ARM GAS  C:\Users\Rolf\AppData\Local\Temp\ccUtnhQP.s 			page 1


   1              		.syntax unified
   2              		.cpu cortex-m0plus
   3              		.fpu softvfp
   4              		.eabi_attribute 20, 1
   5              		.eabi_attribute 21, 1
   6              		.eabi_attribute 23, 3
   7              		.eabi_attribute 24, 1
   8              		.eabi_attribute 25, 1
   9              		.eabi_attribute 26, 1
  10              		.eabi_attribute 30, 1
  11              		.eabi_attribute 34, 0
  12              		.eabi_attribute 18, 4
  13              		.thumb
  14              		.syntax unified
  15              		.file	"cy_ipc_pipe.c"
  16              		.text
  17              	.Ltext0:
  18              		.cfi_sections	.debug_frame
  19              		.section	.text.Cy_IPC_Pipe_Config,"ax",%progbits
  20              		.align	2
  21              		.global	Cy_IPC_Pipe_Config
  22              		.code	16
  23              		.thumb_func
  24              		.type	Cy_IPC_Pipe_Config, %function
  25              	Cy_IPC_Pipe_Config:
  26              	.LFB66:
  27              		.file 1 "Generated_Source\\PSoC6\\pdl\\drivers\\peripheral\\ipc\\cy_ipc_pipe.c"
   1:Generated_Source\PSoC6\pdl\drivers\peripheral\ipc/cy_ipc_pipe.c **** /***************************************************************************//**
   2:Generated_Source\PSoC6\pdl\drivers\peripheral\ipc/cy_ipc_pipe.c **** * \file cy_ipc_pipe.c
   3:Generated_Source\PSoC6\pdl\drivers\peripheral\ipc/cy_ipc_pipe.c **** * \version 1.30
   4:Generated_Source\PSoC6\pdl\drivers\peripheral\ipc/cy_ipc_pipe.c **** *
   5:Generated_Source\PSoC6\pdl\drivers\peripheral\ipc/cy_ipc_pipe.c **** *  Description:
   6:Generated_Source\PSoC6\pdl\drivers\peripheral\ipc/cy_ipc_pipe.c **** *   IPC Pipe Driver - This source file includes code for the Pipe layer on top
   7:Generated_Source\PSoC6\pdl\drivers\peripheral\ipc/cy_ipc_pipe.c **** *   of the IPC driver.
   8:Generated_Source\PSoC6\pdl\drivers\peripheral\ipc/cy_ipc_pipe.c **** *
   9:Generated_Source\PSoC6\pdl\drivers\peripheral\ipc/cy_ipc_pipe.c **** ********************************************************************************
  10:Generated_Source\PSoC6\pdl\drivers\peripheral\ipc/cy_ipc_pipe.c **** * Copyright 2016-2018, Cypress Semiconductor Corporation.  All rights reserved.
  11:Generated_Source\PSoC6\pdl\drivers\peripheral\ipc/cy_ipc_pipe.c **** * You may use this file only in accordance with the license, terms, conditions,
  12:Generated_Source\PSoC6\pdl\drivers\peripheral\ipc/cy_ipc_pipe.c **** * disclaimers, and limitations in the end user license agreement accompanying
  13:Generated_Source\PSoC6\pdl\drivers\peripheral\ipc/cy_ipc_pipe.c **** * the software package with which this file was provided.
  14:Generated_Source\PSoC6\pdl\drivers\peripheral\ipc/cy_ipc_pipe.c **** *******************************************************************************/
  15:Generated_Source\PSoC6\pdl\drivers\peripheral\ipc/cy_ipc_pipe.c **** 
  16:Generated_Source\PSoC6\pdl\drivers\peripheral\ipc/cy_ipc_pipe.c **** #include "cy_ipc_pipe.h"
  17:Generated_Source\PSoC6\pdl\drivers\peripheral\ipc/cy_ipc_pipe.c **** 
  18:Generated_Source\PSoC6\pdl\drivers\peripheral\ipc/cy_ipc_pipe.c **** /* Define a pointer to array of endPoints. */
  19:Generated_Source\PSoC6\pdl\drivers\peripheral\ipc/cy_ipc_pipe.c **** static cy_stc_ipc_pipe_ep_t * cy_ipc_pipe_epArray = NULL;
  20:Generated_Source\PSoC6\pdl\drivers\peripheral\ipc/cy_ipc_pipe.c **** 
  21:Generated_Source\PSoC6\pdl\drivers\peripheral\ipc/cy_ipc_pipe.c **** 
  22:Generated_Source\PSoC6\pdl\drivers\peripheral\ipc/cy_ipc_pipe.c **** /*******************************************************************************
  23:Generated_Source\PSoC6\pdl\drivers\peripheral\ipc/cy_ipc_pipe.c **** * Function Name: Cy_IPC_Pipe_Config
  24:Generated_Source\PSoC6\pdl\drivers\peripheral\ipc/cy_ipc_pipe.c **** ****************************************************************************//**
  25:Generated_Source\PSoC6\pdl\drivers\peripheral\ipc/cy_ipc_pipe.c **** *
  26:Generated_Source\PSoC6\pdl\drivers\peripheral\ipc/cy_ipc_pipe.c **** * This function stores a copy of a pointer to the array of endpoints.  All
  27:Generated_Source\PSoC6\pdl\drivers\peripheral\ipc/cy_ipc_pipe.c **** * access to endpoints will be via the index of the endpoint in this array.
  28:Generated_Source\PSoC6\pdl\drivers\peripheral\ipc/cy_ipc_pipe.c **** *
  29:Generated_Source\PSoC6\pdl\drivers\peripheral\ipc/cy_ipc_pipe.c **** * \note In general case, this function is called in the default startup code,
  30:Generated_Source\PSoC6\pdl\drivers\peripheral\ipc/cy_ipc_pipe.c **** * so user doesn't need to call it anywhere.
ARM GAS  C:\Users\Rolf\AppData\Local\Temp\ccUtnhQP.s 			page 2


  31:Generated_Source\PSoC6\pdl\drivers\peripheral\ipc/cy_ipc_pipe.c **** * However, it may be useful in case of some pipe customizations.
  32:Generated_Source\PSoC6\pdl\drivers\peripheral\ipc/cy_ipc_pipe.c **** *
  33:Generated_Source\PSoC6\pdl\drivers\peripheral\ipc/cy_ipc_pipe.c **** * \param theEpArray
  34:Generated_Source\PSoC6\pdl\drivers\peripheral\ipc/cy_ipc_pipe.c **** * This is the pointer to an array of endpoint structures that the designer
  35:Generated_Source\PSoC6\pdl\drivers\peripheral\ipc/cy_ipc_pipe.c **** * created and will be used to reference all endpoints.
  36:Generated_Source\PSoC6\pdl\drivers\peripheral\ipc/cy_ipc_pipe.c **** *
  37:Generated_Source\PSoC6\pdl\drivers\peripheral\ipc/cy_ipc_pipe.c **** * \funcusage
  38:Generated_Source\PSoC6\pdl\drivers\peripheral\ipc/cy_ipc_pipe.c **** * \snippet IPC_sut_01.cydsn/main_cm4.c snippet_myIpcPipeEpArray
  39:Generated_Source\PSoC6\pdl\drivers\peripheral\ipc/cy_ipc_pipe.c **** * \snippet IPC_sut_01.cydsn/main_cm4.c snippet_Cy_IPC_Pipe_Config
  40:Generated_Source\PSoC6\pdl\drivers\peripheral\ipc/cy_ipc_pipe.c **** *
  41:Generated_Source\PSoC6\pdl\drivers\peripheral\ipc/cy_ipc_pipe.c **** *******************************************************************************/
  42:Generated_Source\PSoC6\pdl\drivers\peripheral\ipc/cy_ipc_pipe.c **** void Cy_IPC_Pipe_Config(cy_stc_ipc_pipe_ep_t * theEpArray)
  43:Generated_Source\PSoC6\pdl\drivers\peripheral\ipc/cy_ipc_pipe.c **** {
  28              		.loc 1 43 0
  29              		.cfi_startproc
  30              		@ args = 0, pretend = 0, frame = 0
  31              		@ frame_needed = 0, uses_anonymous_args = 0
  32              		@ link register save eliminated.
  33              	.LVL0:
  44:Generated_Source\PSoC6\pdl\drivers\peripheral\ipc/cy_ipc_pipe.c ****     /* Keep copy of this endpoint */
  45:Generated_Source\PSoC6\pdl\drivers\peripheral\ipc/cy_ipc_pipe.c ****     if (cy_ipc_pipe_epArray == NULL)
  34              		.loc 1 45 0
  35 0000 034B     		ldr	r3, .L3
  36 0002 1B68     		ldr	r3, [r3]
  37 0004 002B     		cmp	r3, #0
  38 0006 01D1     		bne	.L1
  46:Generated_Source\PSoC6\pdl\drivers\peripheral\ipc/cy_ipc_pipe.c ****     {
  47:Generated_Source\PSoC6\pdl\drivers\peripheral\ipc/cy_ipc_pipe.c ****         cy_ipc_pipe_epArray = theEpArray;
  39              		.loc 1 47 0
  40 0008 014B     		ldr	r3, .L3
  41 000a 1860     		str	r0, [r3]
  42              	.L1:
  48:Generated_Source\PSoC6\pdl\drivers\peripheral\ipc/cy_ipc_pipe.c ****     }
  49:Generated_Source\PSoC6\pdl\drivers\peripheral\ipc/cy_ipc_pipe.c **** }
  43              		.loc 1 49 0
  44              		@ sp needed
  45 000c 7047     		bx	lr
  46              	.L4:
  47 000e C046     		.align	2
  48              	.L3:
  49 0010 00000000 		.word	.LANCHOR0
  50              		.cfi_endproc
  51              	.LFE66:
  52              		.size	Cy_IPC_Pipe_Config, .-Cy_IPC_Pipe_Config
  53              		.section	.text.Cy_IPC_Pipe_EndpointInit,"ax",%progbits
  54              		.align	2
  55              		.global	Cy_IPC_Pipe_EndpointInit
  56              		.code	16
  57              		.thumb_func
  58              		.type	Cy_IPC_Pipe_EndpointInit, %function
  59              	Cy_IPC_Pipe_EndpointInit:
  60              	.LFB68:
  50:Generated_Source\PSoC6\pdl\drivers\peripheral\ipc/cy_ipc_pipe.c **** 
  51:Generated_Source\PSoC6\pdl\drivers\peripheral\ipc/cy_ipc_pipe.c **** 
  52:Generated_Source\PSoC6\pdl\drivers\peripheral\ipc/cy_ipc_pipe.c **** /*******************************************************************************
  53:Generated_Source\PSoC6\pdl\drivers\peripheral\ipc/cy_ipc_pipe.c **** * Function Name: Cy_IPC_Pipe_Init
  54:Generated_Source\PSoC6\pdl\drivers\peripheral\ipc/cy_ipc_pipe.c **** ****************************************************************************//**
ARM GAS  C:\Users\Rolf\AppData\Local\Temp\ccUtnhQP.s 			page 3


  55:Generated_Source\PSoC6\pdl\drivers\peripheral\ipc/cy_ipc_pipe.c **** *
  56:Generated_Source\PSoC6\pdl\drivers\peripheral\ipc/cy_ipc_pipe.c **** * Initializes the system pipes. The system pipes are used by BLE.
  57:Generated_Source\PSoC6\pdl\drivers\peripheral\ipc/cy_ipc_pipe.c **** * \note The function should be called on all CPUs.
  58:Generated_Source\PSoC6\pdl\drivers\peripheral\ipc/cy_ipc_pipe.c **** *
  59:Generated_Source\PSoC6\pdl\drivers\peripheral\ipc/cy_ipc_pipe.c **** * \note In general case, this function is called in the default startup code,
  60:Generated_Source\PSoC6\pdl\drivers\peripheral\ipc/cy_ipc_pipe.c **** * so user doesn't need to call it anywhere.
  61:Generated_Source\PSoC6\pdl\drivers\peripheral\ipc/cy_ipc_pipe.c **** * However, it may be useful in case of some pipe customizations.
  62:Generated_Source\PSoC6\pdl\drivers\peripheral\ipc/cy_ipc_pipe.c **** *
  63:Generated_Source\PSoC6\pdl\drivers\peripheral\ipc/cy_ipc_pipe.c **** * \param config
  64:Generated_Source\PSoC6\pdl\drivers\peripheral\ipc/cy_ipc_pipe.c **** * This is the pointer to the pipe configuration structure
  65:Generated_Source\PSoC6\pdl\drivers\peripheral\ipc/cy_ipc_pipe.c **** *
  66:Generated_Source\PSoC6\pdl\drivers\peripheral\ipc/cy_ipc_pipe.c **** * \funcusage
  67:Generated_Source\PSoC6\pdl\drivers\peripheral\ipc/cy_ipc_pipe.c **** * \snippet IPC_sut_01.cydsn/main_cm4.c snippet_myIpcPipeCbArray
  68:Generated_Source\PSoC6\pdl\drivers\peripheral\ipc/cy_ipc_pipe.c **** * \snippet IPC_sut_01.cydsn/main_cm4.c snippet_myIpcPipeEpConfig
  69:Generated_Source\PSoC6\pdl\drivers\peripheral\ipc/cy_ipc_pipe.c **** * \snippet IPC_sut_01.cydsn/main_cm4.c snippet_Cy_IPC_Pipe_Init
  70:Generated_Source\PSoC6\pdl\drivers\peripheral\ipc/cy_ipc_pipe.c **** *
  71:Generated_Source\PSoC6\pdl\drivers\peripheral\ipc/cy_ipc_pipe.c **** *******************************************************************************/
  72:Generated_Source\PSoC6\pdl\drivers\peripheral\ipc/cy_ipc_pipe.c **** void Cy_IPC_Pipe_Init(cy_stc_ipc_pipe_config_t const *config)
  73:Generated_Source\PSoC6\pdl\drivers\peripheral\ipc/cy_ipc_pipe.c **** {
  74:Generated_Source\PSoC6\pdl\drivers\peripheral\ipc/cy_ipc_pipe.c ****     /* Create the interrupt structures and arrays needed */
  75:Generated_Source\PSoC6\pdl\drivers\peripheral\ipc/cy_ipc_pipe.c **** 
  76:Generated_Source\PSoC6\pdl\drivers\peripheral\ipc/cy_ipc_pipe.c ****     cy_stc_sysint_t                 ipc_intr_cypipeConfig;
  77:Generated_Source\PSoC6\pdl\drivers\peripheral\ipc/cy_ipc_pipe.c **** 
  78:Generated_Source\PSoC6\pdl\drivers\peripheral\ipc/cy_ipc_pipe.c ****     cy_stc_ipc_pipe_ep_config_t        epConfigDataA;
  79:Generated_Source\PSoC6\pdl\drivers\peripheral\ipc/cy_ipc_pipe.c ****     cy_stc_ipc_pipe_ep_config_t        epConfigDataB;
  80:Generated_Source\PSoC6\pdl\drivers\peripheral\ipc/cy_ipc_pipe.c **** 
  81:Generated_Source\PSoC6\pdl\drivers\peripheral\ipc/cy_ipc_pipe.c ****     /* Parameters checking begin */
  82:Generated_Source\PSoC6\pdl\drivers\peripheral\ipc/cy_ipc_pipe.c ****     CY_ASSERT_L1(NULL != config);
  83:Generated_Source\PSoC6\pdl\drivers\peripheral\ipc/cy_ipc_pipe.c ****     #if (CY_CPU_CORTEX_M0P)
  84:Generated_Source\PSoC6\pdl\drivers\peripheral\ipc/cy_ipc_pipe.c ****     CY_ASSERT_L2((uint32_t)(1UL << __NVIC_PRIO_BITS) > config->ep0ConfigData.ipcNotifierPriority);
  85:Generated_Source\PSoC6\pdl\drivers\peripheral\ipc/cy_ipc_pipe.c ****     #else
  86:Generated_Source\PSoC6\pdl\drivers\peripheral\ipc/cy_ipc_pipe.c ****     CY_ASSERT_L2((uint32_t)(1UL << __NVIC_PRIO_BITS) > config->ep1ConfigData.ipcNotifierPriority);
  87:Generated_Source\PSoC6\pdl\drivers\peripheral\ipc/cy_ipc_pipe.c ****     #endif
  88:Generated_Source\PSoC6\pdl\drivers\peripheral\ipc/cy_ipc_pipe.c ****     CY_ASSERT_L1(NULL != config->endpointsCallbacksArray);
  89:Generated_Source\PSoC6\pdl\drivers\peripheral\ipc/cy_ipc_pipe.c ****     CY_ASSERT_L1(NULL != config->userPipeIsrHandler);
  90:Generated_Source\PSoC6\pdl\drivers\peripheral\ipc/cy_ipc_pipe.c ****     /* Parameters checking end */
  91:Generated_Source\PSoC6\pdl\drivers\peripheral\ipc/cy_ipc_pipe.c **** 
  92:Generated_Source\PSoC6\pdl\drivers\peripheral\ipc/cy_ipc_pipe.c **** #if (CY_CPU_CORTEX_M0P)
  93:Generated_Source\PSoC6\pdl\drivers\peripheral\ipc/cy_ipc_pipe.c **** 
  94:Generated_Source\PSoC6\pdl\drivers\peripheral\ipc/cy_ipc_pipe.c ****     /* Receiver endpoint = EP0, Sender endpoint = EP1 */
  95:Generated_Source\PSoC6\pdl\drivers\peripheral\ipc/cy_ipc_pipe.c ****     epConfigDataA = config->ep0ConfigData;
  96:Generated_Source\PSoC6\pdl\drivers\peripheral\ipc/cy_ipc_pipe.c ****     epConfigDataB = config->ep1ConfigData;
  97:Generated_Source\PSoC6\pdl\drivers\peripheral\ipc/cy_ipc_pipe.c **** 
  98:Generated_Source\PSoC6\pdl\drivers\peripheral\ipc/cy_ipc_pipe.c ****     /* Configure CM0 interrupts */
  99:Generated_Source\PSoC6\pdl\drivers\peripheral\ipc/cy_ipc_pipe.c ****     ipc_intr_cypipeConfig.intrSrc          = (IRQn_Type)epConfigDataA.ipcNotifierMuxNumber;
 100:Generated_Source\PSoC6\pdl\drivers\peripheral\ipc/cy_ipc_pipe.c ****     ipc_intr_cypipeConfig.cm0pSrc          = (cy_en_intr_t)((int32_t)cy_device->cpussIpc0Irq + (int
 101:Generated_Source\PSoC6\pdl\drivers\peripheral\ipc/cy_ipc_pipe.c ****     ipc_intr_cypipeConfig.intrPriority     = epConfigDataA.ipcNotifierPriority;
 102:Generated_Source\PSoC6\pdl\drivers\peripheral\ipc/cy_ipc_pipe.c **** 
 103:Generated_Source\PSoC6\pdl\drivers\peripheral\ipc/cy_ipc_pipe.c **** #else
 104:Generated_Source\PSoC6\pdl\drivers\peripheral\ipc/cy_ipc_pipe.c **** 
 105:Generated_Source\PSoC6\pdl\drivers\peripheral\ipc/cy_ipc_pipe.c ****     /* Receiver endpoint = EP1, Sender endpoint = EP0 */
 106:Generated_Source\PSoC6\pdl\drivers\peripheral\ipc/cy_ipc_pipe.c ****     epConfigDataA = config->ep1ConfigData;
 107:Generated_Source\PSoC6\pdl\drivers\peripheral\ipc/cy_ipc_pipe.c ****     epConfigDataB = config->ep0ConfigData;
 108:Generated_Source\PSoC6\pdl\drivers\peripheral\ipc/cy_ipc_pipe.c **** 
 109:Generated_Source\PSoC6\pdl\drivers\peripheral\ipc/cy_ipc_pipe.c ****     /* Configure interrupts */
 110:Generated_Source\PSoC6\pdl\drivers\peripheral\ipc/cy_ipc_pipe.c ****     ipc_intr_cypipeConfig.intrSrc          = (IRQn_Type)((int32_t)cy_device->cpussIpc0Irq + (int32_
 111:Generated_Source\PSoC6\pdl\drivers\peripheral\ipc/cy_ipc_pipe.c ****     ipc_intr_cypipeConfig.intrPriority     = epConfigDataA.ipcNotifierPriority;
ARM GAS  C:\Users\Rolf\AppData\Local\Temp\ccUtnhQP.s 			page 4


 112:Generated_Source\PSoC6\pdl\drivers\peripheral\ipc/cy_ipc_pipe.c **** 
 113:Generated_Source\PSoC6\pdl\drivers\peripheral\ipc/cy_ipc_pipe.c **** #endif
 114:Generated_Source\PSoC6\pdl\drivers\peripheral\ipc/cy_ipc_pipe.c **** 
 115:Generated_Source\PSoC6\pdl\drivers\peripheral\ipc/cy_ipc_pipe.c ****     /* Initialize the pipe endpoints */
 116:Generated_Source\PSoC6\pdl\drivers\peripheral\ipc/cy_ipc_pipe.c ****     Cy_IPC_Pipe_EndpointInit(epConfigDataA.epAddress,
 117:Generated_Source\PSoC6\pdl\drivers\peripheral\ipc/cy_ipc_pipe.c ****                              config->endpointsCallbacksArray,
 118:Generated_Source\PSoC6\pdl\drivers\peripheral\ipc/cy_ipc_pipe.c ****                              config->endpointClientsCount,
 119:Generated_Source\PSoC6\pdl\drivers\peripheral\ipc/cy_ipc_pipe.c ****                              epConfigDataA.epConfig,
 120:Generated_Source\PSoC6\pdl\drivers\peripheral\ipc/cy_ipc_pipe.c ****                              &ipc_intr_cypipeConfig);
 121:Generated_Source\PSoC6\pdl\drivers\peripheral\ipc/cy_ipc_pipe.c **** 
 122:Generated_Source\PSoC6\pdl\drivers\peripheral\ipc/cy_ipc_pipe.c ****     /* Create the endpoints for the CM4 just for reference */
 123:Generated_Source\PSoC6\pdl\drivers\peripheral\ipc/cy_ipc_pipe.c ****     Cy_IPC_Pipe_EndpointInit(epConfigDataB.epAddress, NULL, 0ul, epConfigDataB.epConfig, NULL);
 124:Generated_Source\PSoC6\pdl\drivers\peripheral\ipc/cy_ipc_pipe.c **** 
 125:Generated_Source\PSoC6\pdl\drivers\peripheral\ipc/cy_ipc_pipe.c ****     (void)Cy_SysInt_Init(&ipc_intr_cypipeConfig, config->userPipeIsrHandler);
 126:Generated_Source\PSoC6\pdl\drivers\peripheral\ipc/cy_ipc_pipe.c **** 
 127:Generated_Source\PSoC6\pdl\drivers\peripheral\ipc/cy_ipc_pipe.c ****     /* Enable the interrupts */
 128:Generated_Source\PSoC6\pdl\drivers\peripheral\ipc/cy_ipc_pipe.c ****     NVIC_EnableIRQ(ipc_intr_cypipeConfig.intrSrc);
 129:Generated_Source\PSoC6\pdl\drivers\peripheral\ipc/cy_ipc_pipe.c **** }
 130:Generated_Source\PSoC6\pdl\drivers\peripheral\ipc/cy_ipc_pipe.c **** 
 131:Generated_Source\PSoC6\pdl\drivers\peripheral\ipc/cy_ipc_pipe.c **** 
 132:Generated_Source\PSoC6\pdl\drivers\peripheral\ipc/cy_ipc_pipe.c **** /*******************************************************************************
 133:Generated_Source\PSoC6\pdl\drivers\peripheral\ipc/cy_ipc_pipe.c **** * Function Name: Cy_IPC_Pipe_EndpointInit
 134:Generated_Source\PSoC6\pdl\drivers\peripheral\ipc/cy_ipc_pipe.c **** ****************************************************************************//**
 135:Generated_Source\PSoC6\pdl\drivers\peripheral\ipc/cy_ipc_pipe.c **** *
 136:Generated_Source\PSoC6\pdl\drivers\peripheral\ipc/cy_ipc_pipe.c **** * This function initializes the endpoint of a pipe for the current CPU.  The
 137:Generated_Source\PSoC6\pdl\drivers\peripheral\ipc/cy_ipc_pipe.c **** * current CPU is the CPU that is executing the code. An endpoint of a pipe
 138:Generated_Source\PSoC6\pdl\drivers\peripheral\ipc/cy_ipc_pipe.c **** * is for the IPC channel that receives a message for the current CPU.
 139:Generated_Source\PSoC6\pdl\drivers\peripheral\ipc/cy_ipc_pipe.c **** *
 140:Generated_Source\PSoC6\pdl\drivers\peripheral\ipc/cy_ipc_pipe.c **** * After this function is called, the callbackArray needs to be populated
 141:Generated_Source\PSoC6\pdl\drivers\peripheral\ipc/cy_ipc_pipe.c **** * with the callback functions for that endpoint using the
 142:Generated_Source\PSoC6\pdl\drivers\peripheral\ipc/cy_ipc_pipe.c **** * Cy_IPC_Pipe_RegisterCallback() function.
 143:Generated_Source\PSoC6\pdl\drivers\peripheral\ipc/cy_ipc_pipe.c **** *
 144:Generated_Source\PSoC6\pdl\drivers\peripheral\ipc/cy_ipc_pipe.c **** * \note In general case, this function is called within \ref Cy_IPC_Pipe_Init,
 145:Generated_Source\PSoC6\pdl\drivers\peripheral\ipc/cy_ipc_pipe.c **** * so user doesn't need to call it anywhere.
 146:Generated_Source\PSoC6\pdl\drivers\peripheral\ipc/cy_ipc_pipe.c **** * However, it may be useful in case of some pipe/endpoint customizations.
 147:Generated_Source\PSoC6\pdl\drivers\peripheral\ipc/cy_ipc_pipe.c **** *
 148:Generated_Source\PSoC6\pdl\drivers\peripheral\ipc/cy_ipc_pipe.c **** * \param epAddr
 149:Generated_Source\PSoC6\pdl\drivers\peripheral\ipc/cy_ipc_pipe.c **** * This parameter is the address (or index in the array of endpoint structures)
 150:Generated_Source\PSoC6\pdl\drivers\peripheral\ipc/cy_ipc_pipe.c **** * that designates the endpoint you want to initialize.
 151:Generated_Source\PSoC6\pdl\drivers\peripheral\ipc/cy_ipc_pipe.c **** *
 152:Generated_Source\PSoC6\pdl\drivers\peripheral\ipc/cy_ipc_pipe.c **** * \param cbArray
 153:Generated_Source\PSoC6\pdl\drivers\peripheral\ipc/cy_ipc_pipe.c **** * This is a pointer to the callback function array.  Based on the client ID, one
 154:Generated_Source\PSoC6\pdl\drivers\peripheral\ipc/cy_ipc_pipe.c **** * of the functions in this array is called to process the message.
 155:Generated_Source\PSoC6\pdl\drivers\peripheral\ipc/cy_ipc_pipe.c **** *
 156:Generated_Source\PSoC6\pdl\drivers\peripheral\ipc/cy_ipc_pipe.c **** * \param cbCnt
 157:Generated_Source\PSoC6\pdl\drivers\peripheral\ipc/cy_ipc_pipe.c **** * This is the size of the callback array, or the number of defined clients.
 158:Generated_Source\PSoC6\pdl\drivers\peripheral\ipc/cy_ipc_pipe.c **** *
 159:Generated_Source\PSoC6\pdl\drivers\peripheral\ipc/cy_ipc_pipe.c **** * \param epConfig
 160:Generated_Source\PSoC6\pdl\drivers\peripheral\ipc/cy_ipc_pipe.c **** * This value defines the IPC channel, IPC interrupt number, and the interrupt
 161:Generated_Source\PSoC6\pdl\drivers\peripheral\ipc/cy_ipc_pipe.c **** * mask for the entire pipe.
 162:Generated_Source\PSoC6\pdl\drivers\peripheral\ipc/cy_ipc_pipe.c **** * The format of the endpoint configuration
 163:Generated_Source\PSoC6\pdl\drivers\peripheral\ipc/cy_ipc_pipe.c **** *    Bits[31:16] Interrupt Mask
 164:Generated_Source\PSoC6\pdl\drivers\peripheral\ipc/cy_ipc_pipe.c **** *    Bits[15:8 ] IPC interrupt
 165:Generated_Source\PSoC6\pdl\drivers\peripheral\ipc/cy_ipc_pipe.c **** *    Bits[ 7:0 ] IPC channel
 166:Generated_Source\PSoC6\pdl\drivers\peripheral\ipc/cy_ipc_pipe.c **** *
 167:Generated_Source\PSoC6\pdl\drivers\peripheral\ipc/cy_ipc_pipe.c **** * \param epInterrupt
 168:Generated_Source\PSoC6\pdl\drivers\peripheral\ipc/cy_ipc_pipe.c **** * This is a pointer to the endpoint interrupt description structure.
ARM GAS  C:\Users\Rolf\AppData\Local\Temp\ccUtnhQP.s 			page 5


 169:Generated_Source\PSoC6\pdl\drivers\peripheral\ipc/cy_ipc_pipe.c **** *
 170:Generated_Source\PSoC6\pdl\drivers\peripheral\ipc/cy_ipc_pipe.c **** * \funcusage
 171:Generated_Source\PSoC6\pdl\drivers\peripheral\ipc/cy_ipc_pipe.c **** * \snippet IPC_sut_01.cydsn/main_cm4.c snippet_myIpcPipeCbArray
 172:Generated_Source\PSoC6\pdl\drivers\peripheral\ipc/cy_ipc_pipe.c **** * \snippet IPC_sut_01.cydsn/main_cm4.c snippet_myIpcPipeEpConfig
 173:Generated_Source\PSoC6\pdl\drivers\peripheral\ipc/cy_ipc_pipe.c **** * \snippet IPC_sut_01.cydsn/main_cm4.c snippet_Cy_IPC_Pipe_EndpointInit
 174:Generated_Source\PSoC6\pdl\drivers\peripheral\ipc/cy_ipc_pipe.c **** *
 175:Generated_Source\PSoC6\pdl\drivers\peripheral\ipc/cy_ipc_pipe.c **** *******************************************************************************/
 176:Generated_Source\PSoC6\pdl\drivers\peripheral\ipc/cy_ipc_pipe.c **** void Cy_IPC_Pipe_EndpointInit(uint32_t epAddr, cy_ipc_pipe_callback_array_ptr_t cbArray,
 177:Generated_Source\PSoC6\pdl\drivers\peripheral\ipc/cy_ipc_pipe.c ****                               uint32_t cbCnt, uint32_t epConfig, cy_stc_sysint_t const *epInterrupt
 178:Generated_Source\PSoC6\pdl\drivers\peripheral\ipc/cy_ipc_pipe.c **** {
  61              		.loc 1 178 0
  62              		.cfi_startproc
  63              		@ args = 4, pretend = 0, frame = 0
  64              		@ frame_needed = 0, uses_anonymous_args = 0
  65              	.LVL1:
  66 0000 F0B5     		push	{r4, r5, r6, r7, lr}
  67              		.cfi_def_cfa_offset 20
  68              		.cfi_offset 4, -20
  69              		.cfi_offset 5, -16
  70              		.cfi_offset 6, -12
  71              		.cfi_offset 7, -8
  72              		.cfi_offset 14, -4
  73 0002 4746     		mov	r7, r8
  74 0004 80B4     		push	{r7}
  75              		.cfi_def_cfa_offset 24
  76              		.cfi_offset 8, -24
  77 0006 0400     		movs	r4, r0
  78 0008 0F00     		movs	r7, r1
  79 000a 9046     		mov	r8, r2
  80 000c 1E00     		movs	r6, r3
 179:Generated_Source\PSoC6\pdl\drivers\peripheral\ipc/cy_ipc_pipe.c ****     cy_stc_ipc_pipe_ep_t * endpoint;
 180:Generated_Source\PSoC6\pdl\drivers\peripheral\ipc/cy_ipc_pipe.c **** 
 181:Generated_Source\PSoC6\pdl\drivers\peripheral\ipc/cy_ipc_pipe.c ****     CY_ASSERT_L1(NULL != cy_ipc_pipe_epArray);
  81              		.loc 1 181 0
  82 000e 2D4B     		ldr	r3, .L12
  83              	.LVL2:
  84 0010 1B68     		ldr	r3, [r3]
  85 0012 002B     		cmp	r3, #0
  86 0014 03D1     		bne	.L6
  87              		.loc 1 181 0 is_stmt 0 discriminator 1
  88 0016 B521     		movs	r1, #181
  89              	.LVL3:
  90 0018 2B48     		ldr	r0, .L12+4
  91              	.LVL4:
  92 001a FFF7FEFF 		bl	Cy_SysLib_AssertFailed
  93              	.LVL5:
  94              	.L6:
 182:Generated_Source\PSoC6\pdl\drivers\peripheral\ipc/cy_ipc_pipe.c **** 
 183:Generated_Source\PSoC6\pdl\drivers\peripheral\ipc/cy_ipc_pipe.c ****     endpoint = &cy_ipc_pipe_epArray[epAddr];
  95              		.loc 1 183 0 is_stmt 1
  96 001e 294B     		ldr	r3, .L12
  97 0020 1B68     		ldr	r3, [r3]
  98 0022 2C20     		movs	r0, #44
  99 0024 6043     		muls	r0, r4
 100 0026 1C18     		adds	r4, r3, r0
 101              	.LVL6:
 184:Generated_Source\PSoC6\pdl\drivers\peripheral\ipc/cy_ipc_pipe.c **** 
ARM GAS  C:\Users\Rolf\AppData\Local\Temp\ccUtnhQP.s 			page 6


 185:Generated_Source\PSoC6\pdl\drivers\peripheral\ipc/cy_ipc_pipe.c ****     /* Extract the channel, interrupt and interrupt mask */
 186:Generated_Source\PSoC6\pdl\drivers\peripheral\ipc/cy_ipc_pipe.c ****     endpoint->ipcChan         = _FLD2VAL(CY_IPC_PIPE_CFG_CHAN,  epConfig);
 102              		.loc 1 186 0
 103 0028 FF22     		movs	r2, #255
 104 002a 1500     		movs	r5, r2
 105 002c 3540     		ands	r5, r6
 106 002e 2560     		str	r5, [r4]
 187:Generated_Source\PSoC6\pdl\drivers\peripheral\ipc/cy_ipc_pipe.c ****     endpoint->intrChan        = _FLD2VAL(CY_IPC_PIPE_CFG_INTR,  epConfig);
 107              		.loc 1 187 0
 108 0030 330A     		lsrs	r3, r6, #8
 109 0032 1340     		ands	r3, r2
 110 0034 6360     		str	r3, [r4, #4]
 188:Generated_Source\PSoC6\pdl\drivers\peripheral\ipc/cy_ipc_pipe.c ****     endpoint->pipeIntMask     = _FLD2VAL(CY_IPC_PIPE_CFG_IMASK, epConfig);
 111              		.loc 1 188 0
 112 0036 360C     		lsrs	r6, r6, #16
 113              	.LVL7:
 114 0038 A660     		str	r6, [r4, #8]
 115              	.LVL8:
 116              	.LBB46:
 117              	.LBB47:
 118              		.file 2 "Generated_Source\\PSoC6\\pdl\\drivers\\peripheral\\ipc\\cy_ipc_drv.h"
   1:Generated_Source\PSoC6\pdl\drivers\peripheral\ipc/cy_ipc_drv.h **** /***************************************************************************//**
   2:Generated_Source\PSoC6\pdl\drivers\peripheral\ipc/cy_ipc_drv.h **** * \file cy_ipc_drv.h
   3:Generated_Source\PSoC6\pdl\drivers\peripheral\ipc/cy_ipc_drv.h **** * \version 1.30
   4:Generated_Source\PSoC6\pdl\drivers\peripheral\ipc/cy_ipc_drv.h **** *
   5:Generated_Source\PSoC6\pdl\drivers\peripheral\ipc/cy_ipc_drv.h **** * Provides an API declaration of the IPC driver.
   6:Generated_Source\PSoC6\pdl\drivers\peripheral\ipc/cy_ipc_drv.h **** *
   7:Generated_Source\PSoC6\pdl\drivers\peripheral\ipc/cy_ipc_drv.h **** ********************************************************************************
   8:Generated_Source\PSoC6\pdl\drivers\peripheral\ipc/cy_ipc_drv.h **** * \copyright
   9:Generated_Source\PSoC6\pdl\drivers\peripheral\ipc/cy_ipc_drv.h **** * Copyright 2016-2018, Cypress Semiconductor Corporation. All rights reserved.
  10:Generated_Source\PSoC6\pdl\drivers\peripheral\ipc/cy_ipc_drv.h **** * You may use this file only in accordance with the license, terms, conditions,
  11:Generated_Source\PSoC6\pdl\drivers\peripheral\ipc/cy_ipc_drv.h **** * disclaimers, and limitations in the end user license agreement accompanying
  12:Generated_Source\PSoC6\pdl\drivers\peripheral\ipc/cy_ipc_drv.h **** * the software package with which this file was provided.
  13:Generated_Source\PSoC6\pdl\drivers\peripheral\ipc/cy_ipc_drv.h **** *******************************************************************************/
  14:Generated_Source\PSoC6\pdl\drivers\peripheral\ipc/cy_ipc_drv.h **** 
  15:Generated_Source\PSoC6\pdl\drivers\peripheral\ipc/cy_ipc_drv.h **** #ifndef CY_IPC_DRV_H
  16:Generated_Source\PSoC6\pdl\drivers\peripheral\ipc/cy_ipc_drv.h **** #define CY_IPC_DRV_H
  17:Generated_Source\PSoC6\pdl\drivers\peripheral\ipc/cy_ipc_drv.h **** 
  18:Generated_Source\PSoC6\pdl\drivers\peripheral\ipc/cy_ipc_drv.h **** 
  19:Generated_Source\PSoC6\pdl\drivers\peripheral\ipc/cy_ipc_drv.h **** /**
  20:Generated_Source\PSoC6\pdl\drivers\peripheral\ipc/cy_ipc_drv.h **** * \addtogroup group_ipc
  21:Generated_Source\PSoC6\pdl\drivers\peripheral\ipc/cy_ipc_drv.h **** * \{
  22:Generated_Source\PSoC6\pdl\drivers\peripheral\ipc/cy_ipc_drv.h **** * The inter-processor communication (IPC) driver provides a safe and reliable
  23:Generated_Source\PSoC6\pdl\drivers\peripheral\ipc/cy_ipc_drv.h **** * method to transfer data between CPUs. Hardware locking ensures that only one
  24:Generated_Source\PSoC6\pdl\drivers\peripheral\ipc/cy_ipc_drv.h **** * device can acquire and transfer data at a time so no data is lost or
  25:Generated_Source\PSoC6\pdl\drivers\peripheral\ipc/cy_ipc_drv.h **** * overwritten by asynchronous processes or CPUs.
  26:Generated_Source\PSoC6\pdl\drivers\peripheral\ipc/cy_ipc_drv.h **** *
  27:Generated_Source\PSoC6\pdl\drivers\peripheral\ipc/cy_ipc_drv.h **** * Include either cy_ipc_pipe.h or cy_ipc_sema.h. Alternatively include cy_pdl.h 
  28:Generated_Source\PSoC6\pdl\drivers\peripheral\ipc/cy_ipc_drv.h **** * (ModusToolbox only) to get access to all functions and declarations in the PDL.
  29:Generated_Source\PSoC6\pdl\drivers\peripheral\ipc/cy_ipc_drv.h **** *
  30:Generated_Source\PSoC6\pdl\drivers\peripheral\ipc/cy_ipc_drv.h **** * There are three parts to the API:
  31:Generated_Source\PSoC6\pdl\drivers\peripheral\ipc/cy_ipc_drv.h **** *     - Driver-level (DRV) API - used internally by Semaphore and Pipe levels
  32:Generated_Source\PSoC6\pdl\drivers\peripheral\ipc/cy_ipc_drv.h **** *     - Pipe-level (PIPE) API - establishes a communication channel between
  33:Generated_Source\PSoC6\pdl\drivers\peripheral\ipc/cy_ipc_drv.h **** *       processors
  34:Generated_Source\PSoC6\pdl\drivers\peripheral\ipc/cy_ipc_drv.h **** *     - Semaphore-level (SEMA) API - enables users to set and clear flags to
  35:Generated_Source\PSoC6\pdl\drivers\peripheral\ipc/cy_ipc_drv.h **** *       synchronize operations.
  36:Generated_Source\PSoC6\pdl\drivers\peripheral\ipc/cy_ipc_drv.h **** *
ARM GAS  C:\Users\Rolf\AppData\Local\Temp\ccUtnhQP.s 			page 7


  37:Generated_Source\PSoC6\pdl\drivers\peripheral\ipc/cy_ipc_drv.h **** * Firmware does not need to use the DRV API. It can implement IPC functionality
  38:Generated_Source\PSoC6\pdl\drivers\peripheral\ipc/cy_ipc_drv.h **** * entirely with the PIPE and SEMA APIs.
  39:Generated_Source\PSoC6\pdl\drivers\peripheral\ipc/cy_ipc_drv.h **** *
  40:Generated_Source\PSoC6\pdl\drivers\peripheral\ipc/cy_ipc_drv.h **** * \section group_ipc_background Background
  41:Generated_Source\PSoC6\pdl\drivers\peripheral\ipc/cy_ipc_drv.h **** *
  42:Generated_Source\PSoC6\pdl\drivers\peripheral\ipc/cy_ipc_drv.h **** * IPC is implemented in hardware as a collection of individual communication
  43:Generated_Source\PSoC6\pdl\drivers\peripheral\ipc/cy_ipc_drv.h **** * channels, each with a set of 32-bit registers. The IPC design implements a set
  44:Generated_Source\PSoC6\pdl\drivers\peripheral\ipc/cy_ipc_drv.h **** * of interrupts that enable each processor to notify the other that data is
  45:Generated_Source\PSoC6\pdl\drivers\peripheral\ipc/cy_ipc_drv.h **** * available, or has been processed. There is also a locking mechanism that
  46:Generated_Source\PSoC6\pdl\drivers\peripheral\ipc/cy_ipc_drv.h **** * allows only one CPU to gain access at a time.
  47:Generated_Source\PSoC6\pdl\drivers\peripheral\ipc/cy_ipc_drv.h **** *
  48:Generated_Source\PSoC6\pdl\drivers\peripheral\ipc/cy_ipc_drv.h **** * The Driver-level API manages each channel's registers to implement IPC
  49:Generated_Source\PSoC6\pdl\drivers\peripheral\ipc/cy_ipc_drv.h **** * functionality. For information on the IPC registers, see the IPC chapter of
  50:Generated_Source\PSoC6\pdl\drivers\peripheral\ipc/cy_ipc_drv.h **** * the Technical Reference Manual (TRM).
  51:Generated_Source\PSoC6\pdl\drivers\peripheral\ipc/cy_ipc_drv.h **** *
  52:Generated_Source\PSoC6\pdl\drivers\peripheral\ipc/cy_ipc_drv.h **** * At the hardware level, communication is a five-step process.
  53:Generated_Source\PSoC6\pdl\drivers\peripheral\ipc/cy_ipc_drv.h **** *     -#  The sending processor acquires a channel
  54:Generated_Source\PSoC6\pdl\drivers\peripheral\ipc/cy_ipc_drv.h **** *     -#  It puts data into the channel
  55:Generated_Source\PSoC6\pdl\drivers\peripheral\ipc/cy_ipc_drv.h **** *     -#  The sender generates a notify event (interrupt)
  56:Generated_Source\PSoC6\pdl\drivers\peripheral\ipc/cy_ipc_drv.h **** *     -#  The receiving processor identifies the sender and retrieves the data
  57:Generated_Source\PSoC6\pdl\drivers\peripheral\ipc/cy_ipc_drv.h **** *     -#  The receiving processor generates a release event (interrupt)
  58:Generated_Source\PSoC6\pdl\drivers\peripheral\ipc/cy_ipc_drv.h **** *
  59:Generated_Source\PSoC6\pdl\drivers\peripheral\ipc/cy_ipc_drv.h **** * \image html ipc_driver.png
  60:Generated_Source\PSoC6\pdl\drivers\peripheral\ipc/cy_ipc_drv.h **** *
  61:Generated_Source\PSoC6\pdl\drivers\peripheral\ipc/cy_ipc_drv.h **** * These transactions are handled transparently by the DRV-level API. Use the
  62:Generated_Source\PSoC6\pdl\drivers\peripheral\ipc/cy_ipc_drv.h **** * PIPE and SEMA layers of the API to implement communication in your application.
  63:Generated_Source\PSoC6\pdl\drivers\peripheral\ipc/cy_ipc_drv.h **** * The data transferred is limited to a single 32-bit value. As implemented by
  64:Generated_Source\PSoC6\pdl\drivers\peripheral\ipc/cy_ipc_drv.h **** * the PIPE API, that value is a pointer to a data structure of arbitrary size
  65:Generated_Source\PSoC6\pdl\drivers\peripheral\ipc/cy_ipc_drv.h **** * and complexity.
  66:Generated_Source\PSoC6\pdl\drivers\peripheral\ipc/cy_ipc_drv.h **** *
  67:Generated_Source\PSoC6\pdl\drivers\peripheral\ipc/cy_ipc_drv.h **** * \section group_ipc_overview Overview
  68:Generated_Source\PSoC6\pdl\drivers\peripheral\ipc/cy_ipc_drv.h **** *
  69:Generated_Source\PSoC6\pdl\drivers\peripheral\ipc/cy_ipc_drv.h **** * The Pipe is the key element in the PDL design. A pipe is typically a
  70:Generated_Source\PSoC6\pdl\drivers\peripheral\ipc/cy_ipc_drv.h **** * full-duplex communication channel between CPU cores. A pipe allows a single
  71:Generated_Source\PSoC6\pdl\drivers\peripheral\ipc/cy_ipc_drv.h **** * conduit to transfer messages or data to and from multiple processes or CPUs.
  72:Generated_Source\PSoC6\pdl\drivers\peripheral\ipc/cy_ipc_drv.h **** *
  73:Generated_Source\PSoC6\pdl\drivers\peripheral\ipc/cy_ipc_drv.h **** * A pipe has two endpoints, one on each core. Each endpoint contains a dedicated
  74:Generated_Source\PSoC6\pdl\drivers\peripheral\ipc/cy_ipc_drv.h **** * IPC channel and an interrupt. IPC channels 0-7 and IPC interrupts 0-7 are
  75:Generated_Source\PSoC6\pdl\drivers\peripheral\ipc/cy_ipc_drv.h **** * reserved for system use.
  76:Generated_Source\PSoC6\pdl\drivers\peripheral\ipc/cy_ipc_drv.h **** *
  77:Generated_Source\PSoC6\pdl\drivers\peripheral\ipc/cy_ipc_drv.h **** * The pipe also contains the number of clients it supports, and for each client
  78:Generated_Source\PSoC6\pdl\drivers\peripheral\ipc/cy_ipc_drv.h **** * a callback function. So the pipe can service a number of clients, each with a
  79:Generated_Source\PSoC6\pdl\drivers\peripheral\ipc/cy_ipc_drv.h **** * separate callback function, on either endpoint. The number of clients a pipe
  80:Generated_Source\PSoC6\pdl\drivers\peripheral\ipc/cy_ipc_drv.h **** * supports is the sum of each endpoint's clients.
  81:Generated_Source\PSoC6\pdl\drivers\peripheral\ipc/cy_ipc_drv.h **** *
  82:Generated_Source\PSoC6\pdl\drivers\peripheral\ipc/cy_ipc_drv.h **** * This design enables any number of processes on the sending core to put
  83:Generated_Source\PSoC6\pdl\drivers\peripheral\ipc/cy_ipc_drv.h **** * arbitrary data into a single pipe. The first element of that data is the
  84:Generated_Source\PSoC6\pdl\drivers\peripheral\ipc/cy_ipc_drv.h **** * client ID of the client that should handle the data.
  85:Generated_Source\PSoC6\pdl\drivers\peripheral\ipc/cy_ipc_drv.h **** *
  86:Generated_Source\PSoC6\pdl\drivers\peripheral\ipc/cy_ipc_drv.h **** * An interrupt notifies the receiving core that data is available. The receiving
  87:Generated_Source\PSoC6\pdl\drivers\peripheral\ipc/cy_ipc_drv.h **** * core parses the data to identify the client, and then dispatches the event to
  88:Generated_Source\PSoC6\pdl\drivers\peripheral\ipc/cy_ipc_drv.h **** * the appropriate client via the client callback function. An interrupt notifies
  89:Generated_Source\PSoC6\pdl\drivers\peripheral\ipc/cy_ipc_drv.h **** * the sending core that the receiver is finished. In this way a single pipe can
  90:Generated_Source\PSoC6\pdl\drivers\peripheral\ipc/cy_ipc_drv.h **** * manage arbitrary data transfers between cores with data flowing in either
  91:Generated_Source\PSoC6\pdl\drivers\peripheral\ipc/cy_ipc_drv.h **** * direction.
  92:Generated_Source\PSoC6\pdl\drivers\peripheral\ipc/cy_ipc_drv.h **** *
  93:Generated_Source\PSoC6\pdl\drivers\peripheral\ipc/cy_ipc_drv.h **** * \image html ipc_ints.png
ARM GAS  C:\Users\Rolf\AppData\Local\Temp\ccUtnhQP.s 			page 8


  94:Generated_Source\PSoC6\pdl\drivers\peripheral\ipc/cy_ipc_drv.h **** *
  95:Generated_Source\PSoC6\pdl\drivers\peripheral\ipc/cy_ipc_drv.h **** * The application can use semaphores to control access to shared resources, as
  96:Generated_Source\PSoC6\pdl\drivers\peripheral\ipc/cy_ipc_drv.h **** * required by the application's logic.
  97:Generated_Source\PSoC6\pdl\drivers\peripheral\ipc/cy_ipc_drv.h **** *
  98:Generated_Source\PSoC6\pdl\drivers\peripheral\ipc/cy_ipc_drv.h **** * The PDL provides specific files that set up default IPC functionality.
  99:Generated_Source\PSoC6\pdl\drivers\peripheral\ipc/cy_ipc_drv.h **** * They are system_psoc6.h, system_psoc6_cm0plus.c and system_psoc6_cm4.c. You 
 100:Generated_Source\PSoC6\pdl\drivers\peripheral\ipc/cy_ipc_drv.h **** * can modify these files based on the requirements of your design. 
 101:Generated_Source\PSoC6\pdl\drivers\peripheral\ipc/cy_ipc_drv.h **** * If you use PSoC Creator as a development environment, it will not overwrite 
 102:Generated_Source\PSoC6\pdl\drivers\peripheral\ipc/cy_ipc_drv.h **** * your changes when you generate the application or build your code.
 103:Generated_Source\PSoC6\pdl\drivers\peripheral\ipc/cy_ipc_drv.h **** *
 104:Generated_Source\PSoC6\pdl\drivers\peripheral\ipc/cy_ipc_drv.h **** * \section group_ipc_pipe_layer PIPE layer
 105:Generated_Source\PSoC6\pdl\drivers\peripheral\ipc/cy_ipc_drv.h **** *
 106:Generated_Source\PSoC6\pdl\drivers\peripheral\ipc/cy_ipc_drv.h **** * A pipe is a communication channel between two endpoints. PSoC 6 devices support
 107:Generated_Source\PSoC6\pdl\drivers\peripheral\ipc/cy_ipc_drv.h **** * 16 IPC channels, and 16 IPC interrupts, each numbered 0-15. IPC Channels 0-7
 108:Generated_Source\PSoC6\pdl\drivers\peripheral\ipc/cy_ipc_drv.h **** * and IPC interrupts 0-7 are reserved for system use. Channels 8-15 and
 109:Generated_Source\PSoC6\pdl\drivers\peripheral\ipc/cy_ipc_drv.h **** * interrupts 8-15 are available for application use.
 110:Generated_Source\PSoC6\pdl\drivers\peripheral\ipc/cy_ipc_drv.h **** *
 111:Generated_Source\PSoC6\pdl\drivers\peripheral\ipc/cy_ipc_drv.h **** * A full duplex pipe uses two IPC channels, one per endpoint. Each endpoint
 112:Generated_Source\PSoC6\pdl\drivers\peripheral\ipc/cy_ipc_drv.h **** * specifies all the information required to process a message (either sent or
 113:Generated_Source\PSoC6\pdl\drivers\peripheral\ipc/cy_ipc_drv.h **** * received). Each endpoint is configured to use an IPC channel, and an IPC
 114:Generated_Source\PSoC6\pdl\drivers\peripheral\ipc/cy_ipc_drv.h **** * interrupt. Common practice is to use the interrupt with the same number as
 115:Generated_Source\PSoC6\pdl\drivers\peripheral\ipc/cy_ipc_drv.h **** * the IPC channel. However, IPC Interrupts are not directly associated with the
 116:Generated_Source\PSoC6\pdl\drivers\peripheral\ipc/cy_ipc_drv.h **** * IPC channels, so any channel can use any interrupt.  Any IPC channel can
 117:Generated_Source\PSoC6\pdl\drivers\peripheral\ipc/cy_ipc_drv.h **** * trigger 0, 1 or all the IPC interrupts at once, depending on the Notify or
 118:Generated_Source\PSoC6\pdl\drivers\peripheral\ipc/cy_ipc_drv.h **** * Release masks used.
 119:Generated_Source\PSoC6\pdl\drivers\peripheral\ipc/cy_ipc_drv.h **** *
 120:Generated_Source\PSoC6\pdl\drivers\peripheral\ipc/cy_ipc_drv.h **** * It is also possible to set up a one-directional pipe, using a single IPC
 121:Generated_Source\PSoC6\pdl\drivers\peripheral\ipc/cy_ipc_drv.h **** * channel. In this design one processor is always the sender, and the other is
 122:Generated_Source\PSoC6\pdl\drivers\peripheral\ipc/cy_ipc_drv.h **** * always the receiver. However, there are still two endpoints.
 123:Generated_Source\PSoC6\pdl\drivers\peripheral\ipc/cy_ipc_drv.h **** *
 124:Generated_Source\PSoC6\pdl\drivers\peripheral\ipc/cy_ipc_drv.h **** * A pipe supports an arbitrary number of clients with an array of callback
 125:Generated_Source\PSoC6\pdl\drivers\peripheral\ipc/cy_ipc_drv.h **** * functions, one per client. The client ID is the index number into the array
 126:Generated_Source\PSoC6\pdl\drivers\peripheral\ipc/cy_ipc_drv.h **** * for the client. After a pipe is configured and initialized, the application
 127:Generated_Source\PSoC6\pdl\drivers\peripheral\ipc/cy_ipc_drv.h **** * calls Cy_IPC_Pipe_RegisterCallback() once per client to register each client's
 128:Generated_Source\PSoC6\pdl\drivers\peripheral\ipc/cy_ipc_drv.h **** * callback function. Multiple clients can use the same callback function. The
 129:Generated_Source\PSoC6\pdl\drivers\peripheral\ipc/cy_ipc_drv.h **** * endpoints in a pipe share the callback array.
 130:Generated_Source\PSoC6\pdl\drivers\peripheral\ipc/cy_ipc_drv.h **** *
 131:Generated_Source\PSoC6\pdl\drivers\peripheral\ipc/cy_ipc_drv.h **** * Use Cy_IPC_Pipe_SendMessage() to send data. You specify both the "to" and
 132:Generated_Source\PSoC6\pdl\drivers\peripheral\ipc/cy_ipc_drv.h **** * "from" endpoints, and a callback function to be used when the data transfer is
 133:Generated_Source\PSoC6\pdl\drivers\peripheral\ipc/cy_ipc_drv.h **** * complete. The data is a 32-bit void pointer. The data pointed to is arbitrary,
 134:Generated_Source\PSoC6\pdl\drivers\peripheral\ipc/cy_ipc_drv.h **** * and can be an array, a structure, or a location in memory. The only limitation
 135:Generated_Source\PSoC6\pdl\drivers\peripheral\ipc/cy_ipc_drv.h **** * is that the first element of the data must be a 32-bit unsigned word containing
 136:Generated_Source\PSoC6\pdl\drivers\peripheral\ipc/cy_ipc_drv.h **** * a client ID number. The ID number is the index into the callback array.
 137:Generated_Source\PSoC6\pdl\drivers\peripheral\ipc/cy_ipc_drv.h **** *
 138:Generated_Source\PSoC6\pdl\drivers\peripheral\ipc/cy_ipc_drv.h **** * When a message is sent, the receiving endpoint's interrupt handler is called.
 139:Generated_Source\PSoC6\pdl\drivers\peripheral\ipc/cy_ipc_drv.h **** * The ISR can perform any task required by the design. However, as part of its
 140:Generated_Source\PSoC6\pdl\drivers\peripheral\ipc/cy_ipc_drv.h **** * function it calls \ref Cy_IPC_Pipe_ExecCallback. This function retrieves the
 141:Generated_Source\PSoC6\pdl\drivers\peripheral\ipc/cy_ipc_drv.h **** * client ID from the data and calls the associated callback function.
 142:Generated_Source\PSoC6\pdl\drivers\peripheral\ipc/cy_ipc_drv.h **** * The user-supplied callback function handles the data in whatever way is
 143:Generated_Source\PSoC6\pdl\drivers\peripheral\ipc/cy_ipc_drv.h **** * appropriate based on the application logic.
 144:Generated_Source\PSoC6\pdl\drivers\peripheral\ipc/cy_ipc_drv.h **** *
 145:Generated_Source\PSoC6\pdl\drivers\peripheral\ipc/cy_ipc_drv.h **** * After the callback function is returned by the receiver, it invokes the release
 146:Generated_Source\PSoC6\pdl\drivers\peripheral\ipc/cy_ipc_drv.h **** * callback function defined by the sender of the message.
 147:Generated_Source\PSoC6\pdl\drivers\peripheral\ipc/cy_ipc_drv.h **** *
 148:Generated_Source\PSoC6\pdl\drivers\peripheral\ipc/cy_ipc_drv.h **** * \section group_ipc_sema_layer SEMA Layer
 149:Generated_Source\PSoC6\pdl\drivers\peripheral\ipc/cy_ipc_drv.h **** *
 150:Generated_Source\PSoC6\pdl\drivers\peripheral\ipc/cy_ipc_drv.h **** * A semaphore is a flag the application uses to control access to a shared
ARM GAS  C:\Users\Rolf\AppData\Local\Temp\ccUtnhQP.s 			page 9


 151:Generated_Source\PSoC6\pdl\drivers\peripheral\ipc/cy_ipc_drv.h **** * resource. The SEMA-level API uses an IPC channel to implement
 152:Generated_Source\PSoC6\pdl\drivers\peripheral\ipc/cy_ipc_drv.h **** * semaphores. Startup code sets up a default semaphore system. The
 153:Generated_Source\PSoC6\pdl\drivers\peripheral\ipc/cy_ipc_drv.h **** * default system creates an array of 128 semaphores (four 32-bit values).
 154:Generated_Source\PSoC6\pdl\drivers\peripheral\ipc/cy_ipc_drv.h **** * Semaphores 0-15 are reserved for system use. See
 155:Generated_Source\PSoC6\pdl\drivers\peripheral\ipc/cy_ipc_drv.h **** * Configuration Considerations - SEMA.
 156:Generated_Source\PSoC6\pdl\drivers\peripheral\ipc/cy_ipc_drv.h **** *
 157:Generated_Source\PSoC6\pdl\drivers\peripheral\ipc/cy_ipc_drv.h **** * Functions are available to initialize the semaphore system, to set or
 158:Generated_Source\PSoC6\pdl\drivers\peripheral\ipc/cy_ipc_drv.h **** * clear a semaphore, or to get the semaphore's current status. Application
 159:Generated_Source\PSoC6\pdl\drivers\peripheral\ipc/cy_ipc_drv.h **** * logic uses SEMA functions to relate a particular semaphore to a particular
 160:Generated_Source\PSoC6\pdl\drivers\peripheral\ipc/cy_ipc_drv.h **** * shared resource, and set, clear, or check the flag when accessing the
 161:Generated_Source\PSoC6\pdl\drivers\peripheral\ipc/cy_ipc_drv.h **** * shared resource.
 162:Generated_Source\PSoC6\pdl\drivers\peripheral\ipc/cy_ipc_drv.h **** *
 163:Generated_Source\PSoC6\pdl\drivers\peripheral\ipc/cy_ipc_drv.h **** * \section group_ipc_configuration_cypipe Configuration Considerations - CYPIPE
 164:Generated_Source\PSoC6\pdl\drivers\peripheral\ipc/cy_ipc_drv.h **** *
 165:Generated_Source\PSoC6\pdl\drivers\peripheral\ipc/cy_ipc_drv.h **** * There are none. The startup files set up the required CYPIPE for system
 166:Generated_Source\PSoC6\pdl\drivers\peripheral\ipc/cy_ipc_drv.h **** * use. Do not modify the CYPIPE. It uses IPC channels 5 and 6 to implement full
 167:Generated_Source\PSoC6\pdl\drivers\peripheral\ipc/cy_ipc_drv.h **** * duplex communication between cores. See System Interrupt (SysInt) for background.
 168:Generated_Source\PSoC6\pdl\drivers\peripheral\ipc/cy_ipc_drv.h **** *
 169:Generated_Source\PSoC6\pdl\drivers\peripheral\ipc/cy_ipc_drv.h **** * To create your own pipe (<b>USRPIPE</b>) you should edit startup files
 170:Generated_Source\PSoC6\pdl\drivers\peripheral\ipc/cy_ipc_drv.h **** * and take 4 steps:
 171:Generated_Source\PSoC6\pdl\drivers\peripheral\ipc/cy_ipc_drv.h **** *   -# Define a pipe callbacks processing interrupt handler
 172:Generated_Source\PSoC6\pdl\drivers\peripheral\ipc/cy_ipc_drv.h **** *      (similar to <b>Cy_SysIpcPipeIsrCm0</b> or <b>Cy_SysIpcPipeIsrCm4</b>)
 173:Generated_Source\PSoC6\pdl\drivers\peripheral\ipc/cy_ipc_drv.h **** *   -# Define a callbacks array (similar to <b>systemIpcPipeSysCbArray</b>)
 174:Generated_Source\PSoC6\pdl\drivers\peripheral\ipc/cy_ipc_drv.h **** *   -# Define your pipe configuration with a cy_stc_ipc_pipe_config_t type structure
 175:Generated_Source\PSoC6\pdl\drivers\peripheral\ipc/cy_ipc_drv.h **** *      (similar to <b>systemIpcPipeConfigCm0</b> and <b>systemIpcPipeConfigCm4</b>)
 176:Generated_Source\PSoC6\pdl\drivers\peripheral\ipc/cy_ipc_drv.h **** *   -# Call Cy_IPC_Pipe_Init() from each core to initialize your pipe (similar
 177:Generated_Source\PSoC6\pdl\drivers\peripheral\ipc/cy_ipc_drv.h **** *      to call in the <b>SystemInit</b>)
 178:Generated_Source\PSoC6\pdl\drivers\peripheral\ipc/cy_ipc_drv.h **** *
 179:Generated_Source\PSoC6\pdl\drivers\peripheral\ipc/cy_ipc_drv.h **** * \section group_ipc_configuration_sema Configuration Considerations - SEMA
 180:Generated_Source\PSoC6\pdl\drivers\peripheral\ipc/cy_ipc_drv.h **** *
 181:Generated_Source\PSoC6\pdl\drivers\peripheral\ipc/cy_ipc_drv.h **** * Startup code calls Cy_IPC_Sema_Init() with default values to set up semaphore 
 182:Generated_Source\PSoC6\pdl\drivers\peripheral\ipc/cy_ipc_drv.h **** * functionality. By default the semaphore system uses IPC channel 4, and 
 183:Generated_Source\PSoC6\pdl\drivers\peripheral\ipc/cy_ipc_drv.h **** * creates 128 semaphores. Do <b>not</b> change the IPC channel. 
 184:Generated_Source\PSoC6\pdl\drivers\peripheral\ipc/cy_ipc_drv.h **** * You can change the number of semaphores.
 185:Generated_Source\PSoC6\pdl\drivers\peripheral\ipc/cy_ipc_drv.h **** *
 186:Generated_Source\PSoC6\pdl\drivers\peripheral\ipc/cy_ipc_drv.h **** * To change the number of semaphores, modify this line of code in system_psoc6.h.
 187:Generated_Source\PSoC6\pdl\drivers\peripheral\ipc/cy_ipc_drv.h **** *
 188:Generated_Source\PSoC6\pdl\drivers\peripheral\ipc/cy_ipc_drv.h **** * \code
 189:Generated_Source\PSoC6\pdl\drivers\peripheral\ipc/cy_ipc_drv.h **** * #define CY_IPC_SEMA_COUNT               (uint32_t)(128u)
 190:Generated_Source\PSoC6\pdl\drivers\peripheral\ipc/cy_ipc_drv.h **** * \endcode
 191:Generated_Source\PSoC6\pdl\drivers\peripheral\ipc/cy_ipc_drv.h **** *
 192:Generated_Source\PSoC6\pdl\drivers\peripheral\ipc/cy_ipc_drv.h **** * Startup also declares array ipcSemaArray to hold the semaphore
 193:Generated_Source\PSoC6\pdl\drivers\peripheral\ipc/cy_ipc_drv.h **** * flags based on the size defined for this symbol. Use increments of 32. You
 194:Generated_Source\PSoC6\pdl\drivers\peripheral\ipc/cy_ipc_drv.h **** * must have at least 32 semaphores. Semaphores 0-15 are reserved for
 195:Generated_Source\PSoC6\pdl\drivers\peripheral\ipc/cy_ipc_drv.h **** * system use. Your application can use semaphores greater than 15.
 196:Generated_Source\PSoC6\pdl\drivers\peripheral\ipc/cy_ipc_drv.h **** *
 197:Generated_Source\PSoC6\pdl\drivers\peripheral\ipc/cy_ipc_drv.h **** * \section group_ipc_more_information More Information
 198:Generated_Source\PSoC6\pdl\drivers\peripheral\ipc/cy_ipc_drv.h **** *
 199:Generated_Source\PSoC6\pdl\drivers\peripheral\ipc/cy_ipc_drv.h **** * If the default startup file is not used, or SystemInit() is not called in your 
 200:Generated_Source\PSoC6\pdl\drivers\peripheral\ipc/cy_ipc_drv.h **** * project, call the following three functions prior to executing any flash or 
 201:Generated_Source\PSoC6\pdl\drivers\peripheral\ipc/cy_ipc_drv.h **** * EmEEPROM write or erase operation:
 202:Generated_Source\PSoC6\pdl\drivers\peripheral\ipc/cy_ipc_drv.h **** *  -# Cy_IPC_Sema_Init()
 203:Generated_Source\PSoC6\pdl\drivers\peripheral\ipc/cy_ipc_drv.h **** *  -# Cy_IPC_Pipe_Config()
 204:Generated_Source\PSoC6\pdl\drivers\peripheral\ipc/cy_ipc_drv.h **** *  -# Cy_IPC_Pipe_Init()
 205:Generated_Source\PSoC6\pdl\drivers\peripheral\ipc/cy_ipc_drv.h **** *  -# Cy_Flash_Init()
 206:Generated_Source\PSoC6\pdl\drivers\peripheral\ipc/cy_ipc_drv.h **** *
 207:Generated_Source\PSoC6\pdl\drivers\peripheral\ipc/cy_ipc_drv.h **** * See the technical reference manual(TRM) for more information on the IPC.
ARM GAS  C:\Users\Rolf\AppData\Local\Temp\ccUtnhQP.s 			page 10


 208:Generated_Source\PSoC6\pdl\drivers\peripheral\ipc/cy_ipc_drv.h **** *
 209:Generated_Source\PSoC6\pdl\drivers\peripheral\ipc/cy_ipc_drv.h **** * \section group_ipc_MISRA MISRA-C Compliance
 210:Generated_Source\PSoC6\pdl\drivers\peripheral\ipc/cy_ipc_drv.h **** *
 211:Generated_Source\PSoC6\pdl\drivers\peripheral\ipc/cy_ipc_drv.h **** * <table class="doxtable">
 212:Generated_Source\PSoC6\pdl\drivers\peripheral\ipc/cy_ipc_drv.h **** *   <tr>
 213:Generated_Source\PSoC6\pdl\drivers\peripheral\ipc/cy_ipc_drv.h **** *     <th>MISRA Rule</th>
 214:Generated_Source\PSoC6\pdl\drivers\peripheral\ipc/cy_ipc_drv.h **** *     <th>Rule Class (Required/Advisory)</th>
 215:Generated_Source\PSoC6\pdl\drivers\peripheral\ipc/cy_ipc_drv.h **** *     <th>Rule Description</th>
 216:Generated_Source\PSoC6\pdl\drivers\peripheral\ipc/cy_ipc_drv.h **** *     <th style="width: 50%;">Description of Deviation(s)</th>
 217:Generated_Source\PSoC6\pdl\drivers\peripheral\ipc/cy_ipc_drv.h **** *   </tr>
 218:Generated_Source\PSoC6\pdl\drivers\peripheral\ipc/cy_ipc_drv.h **** *   <tr>
 219:Generated_Source\PSoC6\pdl\drivers\peripheral\ipc/cy_ipc_drv.h **** *     <td>10.3</td>
 220:Generated_Source\PSoC6\pdl\drivers\peripheral\ipc/cy_ipc_drv.h **** *     <td>R</td>
 221:Generated_Source\PSoC6\pdl\drivers\peripheral\ipc/cy_ipc_drv.h **** *     <td>The value of a complex expression of integer type shall be cast
 222:Generated_Source\PSoC6\pdl\drivers\peripheral\ipc/cy_ipc_drv.h **** *         only to a type of the same signedness that is no wider than the underlying
 223:Generated_Source\PSoC6\pdl\drivers\peripheral\ipc/cy_ipc_drv.h **** *         type of the expression.</td>
 224:Generated_Source\PSoC6\pdl\drivers\peripheral\ipc/cy_ipc_drv.h **** *     <td>The cast from integer to enumeration value is used to calculate
 225:Generated_Source\PSoC6\pdl\drivers\peripheral\ipc/cy_ipc_drv.h **** *         the interrupt vector source from the integer number of the IPC interrupt
 226:Generated_Source\PSoC6\pdl\drivers\peripheral\ipc/cy_ipc_drv.h **** *         structure, so there is no way to avoid this cast.</td>
 227:Generated_Source\PSoC6\pdl\drivers\peripheral\ipc/cy_ipc_drv.h **** *   </tr>
 228:Generated_Source\PSoC6\pdl\drivers\peripheral\ipc/cy_ipc_drv.h **** *   <tr>
 229:Generated_Source\PSoC6\pdl\drivers\peripheral\ipc/cy_ipc_drv.h **** *     <td>11.4</td>
 230:Generated_Source\PSoC6\pdl\drivers\peripheral\ipc/cy_ipc_drv.h **** *     <td>A</td>
 231:Generated_Source\PSoC6\pdl\drivers\peripheral\ipc/cy_ipc_drv.h **** *     <td>A cast should not be performed between a pointer to the void to a
 232:Generated_Source\PSoC6\pdl\drivers\peripheral\ipc/cy_ipc_drv.h **** *         pointer to the object type.</td>
 233:Generated_Source\PSoC6\pdl\drivers\peripheral\ipc/cy_ipc_drv.h **** *     <td>The cast from the void to pointer and vice versa is used to transmit
 234:Generated_Source\PSoC6\pdl\drivers\peripheral\ipc/cy_ipc_drv.h **** *         data via the \ref group_ipc channel by exchanging the pointer. We
 235:Generated_Source\PSoC6\pdl\drivers\peripheral\ipc/cy_ipc_drv.h **** *         exchange only one pointer, so there is no way to avoid this cast.</td>
 236:Generated_Source\PSoC6\pdl\drivers\peripheral\ipc/cy_ipc_drv.h **** *   </tr>
 237:Generated_Source\PSoC6\pdl\drivers\peripheral\ipc/cy_ipc_drv.h **** * </table>
 238:Generated_Source\PSoC6\pdl\drivers\peripheral\ipc/cy_ipc_drv.h **** *
 239:Generated_Source\PSoC6\pdl\drivers\peripheral\ipc/cy_ipc_drv.h **** * \section group_ipc_changelog Changelog
 240:Generated_Source\PSoC6\pdl\drivers\peripheral\ipc/cy_ipc_drv.h **** *
 241:Generated_Source\PSoC6\pdl\drivers\peripheral\ipc/cy_ipc_drv.h **** * <table class="doxtable">
 242:Generated_Source\PSoC6\pdl\drivers\peripheral\ipc/cy_ipc_drv.h **** *   <tr><th>Version</th><th>Changes</th><th>Reason for Change</th></tr>
 243:Generated_Source\PSoC6\pdl\drivers\peripheral\ipc/cy_ipc_drv.h **** *   <tr>
 244:Generated_Source\PSoC6\pdl\drivers\peripheral\ipc/cy_ipc_drv.h **** *     <td rowspan="3">1.30</td>
 245:Generated_Source\PSoC6\pdl\drivers\peripheral\ipc/cy_ipc_drv.h **** *     <td>Flattened the organization of the driver source code into the single source directory and
 246:Generated_Source\PSoC6\pdl\drivers\peripheral\ipc/cy_ipc_drv.h **** *     <td>Driver library directory-structure simplification.</td>
 247:Generated_Source\PSoC6\pdl\drivers\peripheral\ipc/cy_ipc_drv.h **** *   </tr>
 248:Generated_Source\PSoC6\pdl\drivers\peripheral\ipc/cy_ipc_drv.h **** *   <tr>
 249:Generated_Source\PSoC6\pdl\drivers\peripheral\ipc/cy_ipc_drv.h **** *     <td>Moved the Cy_IPC_SystemSemaInit(), Cy_IPC_SystemPipeInit() functions implementation from 
 250:Generated_Source\PSoC6\pdl\drivers\peripheral\ipc/cy_ipc_drv.h **** *     <td>Changed IPC driver configuration method from compile time to run time.</td>
 251:Generated_Source\PSoC6\pdl\drivers\peripheral\ipc/cy_ipc_drv.h **** *   </tr>
 252:Generated_Source\PSoC6\pdl\drivers\peripheral\ipc/cy_ipc_drv.h **** *   <tr>
 253:Generated_Source\PSoC6\pdl\drivers\peripheral\ipc/cy_ipc_drv.h **** *     <td>Added register access layer. Use register access macros instead
 254:Generated_Source\PSoC6\pdl\drivers\peripheral\ipc/cy_ipc_drv.h **** *         of direct register access using dereferenced pointers.</td>
 255:Generated_Source\PSoC6\pdl\drivers\peripheral\ipc/cy_ipc_drv.h **** *     <td>Makes register access device-independent, so that the PDL does 
 256:Generated_Source\PSoC6\pdl\drivers\peripheral\ipc/cy_ipc_drv.h **** *         not need to be recompiled for each supported part number.</td>
 257:Generated_Source\PSoC6\pdl\drivers\peripheral\ipc/cy_ipc_drv.h **** *   </tr>
 258:Generated_Source\PSoC6\pdl\drivers\peripheral\ipc/cy_ipc_drv.h **** *   <tr>
 259:Generated_Source\PSoC6\pdl\drivers\peripheral\ipc/cy_ipc_drv.h **** *     <td>1.20</td>
 260:Generated_Source\PSoC6\pdl\drivers\peripheral\ipc/cy_ipc_drv.h **** *     <td>Added \ref Cy_IPC_Pipe_ExecuteCallback function.
 261:Generated_Source\PSoC6\pdl\drivers\peripheral\ipc/cy_ipc_drv.h **** *         Updated documentation about user pipe initialization.
 262:Generated_Source\PSoC6\pdl\drivers\peripheral\ipc/cy_ipc_drv.h **** *     </td>
 263:Generated_Source\PSoC6\pdl\drivers\peripheral\ipc/cy_ipc_drv.h **** *     <td>Interface improvement, documentation update</td>
 264:Generated_Source\PSoC6\pdl\drivers\peripheral\ipc/cy_ipc_drv.h **** *   </tr>
ARM GAS  C:\Users\Rolf\AppData\Local\Temp\ccUtnhQP.s 			page 11


 265:Generated_Source\PSoC6\pdl\drivers\peripheral\ipc/cy_ipc_drv.h **** *   <tr>
 266:Generated_Source\PSoC6\pdl\drivers\peripheral\ipc/cy_ipc_drv.h **** *     <td>1.10.1</td>
 267:Generated_Source\PSoC6\pdl\drivers\peripheral\ipc/cy_ipc_drv.h **** *     <td>Updated description of the \ref Cy_IPC_Pipe_Init,
 268:Generated_Source\PSoC6\pdl\drivers\peripheral\ipc/cy_ipc_drv.h **** *         \ref Cy_IPC_Pipe_EndpointInit, \ref Cy_IPC_Sema_Set functions.
 269:Generated_Source\PSoC6\pdl\drivers\peripheral\ipc/cy_ipc_drv.h **** *         Added / updated code snippets.
 270:Generated_Source\PSoC6\pdl\drivers\peripheral\ipc/cy_ipc_drv.h **** *     </td>
 271:Generated_Source\PSoC6\pdl\drivers\peripheral\ipc/cy_ipc_drv.h **** *     <td>Documentation update and clarification</td>
 272:Generated_Source\PSoC6\pdl\drivers\peripheral\ipc/cy_ipc_drv.h **** *   </tr>
 273:Generated_Source\PSoC6\pdl\drivers\peripheral\ipc/cy_ipc_drv.h **** *   <tr>
 274:Generated_Source\PSoC6\pdl\drivers\peripheral\ipc/cy_ipc_drv.h **** *     <td>1.10</td>
 275:Generated_Source\PSoC6\pdl\drivers\peripheral\ipc/cy_ipc_drv.h **** *     <td>Added support for more IPC structures</td>
 276:Generated_Source\PSoC6\pdl\drivers\peripheral\ipc/cy_ipc_drv.h **** *     <td>New device support</td>
 277:Generated_Source\PSoC6\pdl\drivers\peripheral\ipc/cy_ipc_drv.h **** *   </tr>
 278:Generated_Source\PSoC6\pdl\drivers\peripheral\ipc/cy_ipc_drv.h **** *   <tr>
 279:Generated_Source\PSoC6\pdl\drivers\peripheral\ipc/cy_ipc_drv.h **** *     <td>1.0</td>
 280:Generated_Source\PSoC6\pdl\drivers\peripheral\ipc/cy_ipc_drv.h **** *     <td>Initial version</td>
 281:Generated_Source\PSoC6\pdl\drivers\peripheral\ipc/cy_ipc_drv.h **** *     <td></td>
 282:Generated_Source\PSoC6\pdl\drivers\peripheral\ipc/cy_ipc_drv.h **** *   </tr>
 283:Generated_Source\PSoC6\pdl\drivers\peripheral\ipc/cy_ipc_drv.h **** * </table>
 284:Generated_Source\PSoC6\pdl\drivers\peripheral\ipc/cy_ipc_drv.h **** *
 285:Generated_Source\PSoC6\pdl\drivers\peripheral\ipc/cy_ipc_drv.h **** * \defgroup group_ipc_drv IPC driver layer (IPC_DRV)
 286:Generated_Source\PSoC6\pdl\drivers\peripheral\ipc/cy_ipc_drv.h **** * \{
 287:Generated_Source\PSoC6\pdl\drivers\peripheral\ipc/cy_ipc_drv.h **** *   The functions of this layer are used in the higher IPC levels
 288:Generated_Source\PSoC6\pdl\drivers\peripheral\ipc/cy_ipc_drv.h **** *   (Semaphores and Pipes).
 289:Generated_Source\PSoC6\pdl\drivers\peripheral\ipc/cy_ipc_drv.h **** *   Users are not expected to call any of these IPC functions directly (cy_ipc_drv.h). 
 290:Generated_Source\PSoC6\pdl\drivers\peripheral\ipc/cy_ipc_drv.h **** *   Instead include either of cy_ipc_sema.h or cy_ipc_pipe.h. 
 291:Generated_Source\PSoC6\pdl\drivers\peripheral\ipc/cy_ipc_drv.h **** *   Alternatively include cy_pdl.h to get access to all functions and declarations in the PDL.
 292:Generated_Source\PSoC6\pdl\drivers\peripheral\ipc/cy_ipc_drv.h **** *
 293:Generated_Source\PSoC6\pdl\drivers\peripheral\ipc/cy_ipc_drv.h **** *   \defgroup group_ipc_macros Macros
 294:Generated_Source\PSoC6\pdl\drivers\peripheral\ipc/cy_ipc_drv.h **** *       Macro definitions are used in the driver
 295:Generated_Source\PSoC6\pdl\drivers\peripheral\ipc/cy_ipc_drv.h **** *
 296:Generated_Source\PSoC6\pdl\drivers\peripheral\ipc/cy_ipc_drv.h **** *   \defgroup group_ipc_functions Functions
 297:Generated_Source\PSoC6\pdl\drivers\peripheral\ipc/cy_ipc_drv.h **** *       Functions are used in the driver
 298:Generated_Source\PSoC6\pdl\drivers\peripheral\ipc/cy_ipc_drv.h **** *
 299:Generated_Source\PSoC6\pdl\drivers\peripheral\ipc/cy_ipc_drv.h **** *   \defgroup group_ipc_data_structures Data Structures
 300:Generated_Source\PSoC6\pdl\drivers\peripheral\ipc/cy_ipc_drv.h **** *       Data structures are used in the driver
 301:Generated_Source\PSoC6\pdl\drivers\peripheral\ipc/cy_ipc_drv.h **** *
 302:Generated_Source\PSoC6\pdl\drivers\peripheral\ipc/cy_ipc_drv.h **** *   \defgroup group_ipc_enums Enumerated Types
 303:Generated_Source\PSoC6\pdl\drivers\peripheral\ipc/cy_ipc_drv.h **** *       Enumerations are used in the driver
 304:Generated_Source\PSoC6\pdl\drivers\peripheral\ipc/cy_ipc_drv.h **** * \}
 305:Generated_Source\PSoC6\pdl\drivers\peripheral\ipc/cy_ipc_drv.h **** *
 306:Generated_Source\PSoC6\pdl\drivers\peripheral\ipc/cy_ipc_drv.h **** * \defgroup group_ipc_sema IPC semaphores layer (IPC_SEMA)
 307:Generated_Source\PSoC6\pdl\drivers\peripheral\ipc/cy_ipc_drv.h **** * \defgroup group_ipc_pipe IPC pipes layer (IPC_PIPE)
 308:Generated_Source\PSoC6\pdl\drivers\peripheral\ipc/cy_ipc_drv.h **** *
 309:Generated_Source\PSoC6\pdl\drivers\peripheral\ipc/cy_ipc_drv.h **** */
 310:Generated_Source\PSoC6\pdl\drivers\peripheral\ipc/cy_ipc_drv.h **** 
 311:Generated_Source\PSoC6\pdl\drivers\peripheral\ipc/cy_ipc_drv.h **** 
 312:Generated_Source\PSoC6\pdl\drivers\peripheral\ipc/cy_ipc_drv.h **** /******************************************************************************/
 313:Generated_Source\PSoC6\pdl\drivers\peripheral\ipc/cy_ipc_drv.h **** /* Include files                                                              */
 314:Generated_Source\PSoC6\pdl\drivers\peripheral\ipc/cy_ipc_drv.h **** /******************************************************************************/
 315:Generated_Source\PSoC6\pdl\drivers\peripheral\ipc/cy_ipc_drv.h **** 
 316:Generated_Source\PSoC6\pdl\drivers\peripheral\ipc/cy_ipc_drv.h **** #include "cy_device.h"
 317:Generated_Source\PSoC6\pdl\drivers\peripheral\ipc/cy_ipc_drv.h **** #include "cy_device_headers.h"
 318:Generated_Source\PSoC6\pdl\drivers\peripheral\ipc/cy_ipc_drv.h **** #include "cy_syslib.h"
 319:Generated_Source\PSoC6\pdl\drivers\peripheral\ipc/cy_ipc_drv.h **** #include <stddef.h>
 320:Generated_Source\PSoC6\pdl\drivers\peripheral\ipc/cy_ipc_drv.h **** 
 321:Generated_Source\PSoC6\pdl\drivers\peripheral\ipc/cy_ipc_drv.h **** 
ARM GAS  C:\Users\Rolf\AppData\Local\Temp\ccUtnhQP.s 			page 12


 322:Generated_Source\PSoC6\pdl\drivers\peripheral\ipc/cy_ipc_drv.h **** /**
 323:Generated_Source\PSoC6\pdl\drivers\peripheral\ipc/cy_ipc_drv.h **** * \addtogroup group_ipc_macros
 324:Generated_Source\PSoC6\pdl\drivers\peripheral\ipc/cy_ipc_drv.h **** * \{
 325:Generated_Source\PSoC6\pdl\drivers\peripheral\ipc/cy_ipc_drv.h **** */
 326:Generated_Source\PSoC6\pdl\drivers\peripheral\ipc/cy_ipc_drv.h **** 
 327:Generated_Source\PSoC6\pdl\drivers\peripheral\ipc/cy_ipc_drv.h **** /** Driver major version */
 328:Generated_Source\PSoC6\pdl\drivers\peripheral\ipc/cy_ipc_drv.h **** #define CY_IPC_DRV_VERSION_MAJOR       1
 329:Generated_Source\PSoC6\pdl\drivers\peripheral\ipc/cy_ipc_drv.h **** 
 330:Generated_Source\PSoC6\pdl\drivers\peripheral\ipc/cy_ipc_drv.h **** /** Driver minor version */
 331:Generated_Source\PSoC6\pdl\drivers\peripheral\ipc/cy_ipc_drv.h **** #define CY_IPC_DRV_VERSION_MINOR       30
 332:Generated_Source\PSoC6\pdl\drivers\peripheral\ipc/cy_ipc_drv.h **** 
 333:Generated_Source\PSoC6\pdl\drivers\peripheral\ipc/cy_ipc_drv.h **** /** Defines a value to indicate that no notification events are needed */
 334:Generated_Source\PSoC6\pdl\drivers\peripheral\ipc/cy_ipc_drv.h **** #define CY_IPC_NO_NOTIFICATION         (uint32_t)(0x00000000ul)
 335:Generated_Source\PSoC6\pdl\drivers\peripheral\ipc/cy_ipc_drv.h **** 
 336:Generated_Source\PSoC6\pdl\drivers\peripheral\ipc/cy_ipc_drv.h **** /* Error Code constants */
 337:Generated_Source\PSoC6\pdl\drivers\peripheral\ipc/cy_ipc_drv.h **** #define CY_IPC_ID CY_PDL_DRV_ID(0x22u)  /**< Software PDL driver ID for IPC */
 338:Generated_Source\PSoC6\pdl\drivers\peripheral\ipc/cy_ipc_drv.h **** 
 339:Generated_Source\PSoC6\pdl\drivers\peripheral\ipc/cy_ipc_drv.h **** /** Return prefix for IPC driver function status codes */
 340:Generated_Source\PSoC6\pdl\drivers\peripheral\ipc/cy_ipc_drv.h **** #define CY_IPC_ID_INFO    (uint32_t)( CY_IPC_ID | CY_PDL_STATUS_INFO )
 341:Generated_Source\PSoC6\pdl\drivers\peripheral\ipc/cy_ipc_drv.h **** /** Return prefix for IPC driver function warning return values */
 342:Generated_Source\PSoC6\pdl\drivers\peripheral\ipc/cy_ipc_drv.h **** #define CY_IPC_ID_WARNING (uint32_t)( CY_IPC_ID | CY_PDL_STATUS_WARNING)
 343:Generated_Source\PSoC6\pdl\drivers\peripheral\ipc/cy_ipc_drv.h **** /** Return prefix for IPC driver function error return values */
 344:Generated_Source\PSoC6\pdl\drivers\peripheral\ipc/cy_ipc_drv.h **** #define CY_IPC_ID_ERROR   (uint32_t)( CY_IPC_ID | CY_PDL_STATUS_ERROR)
 345:Generated_Source\PSoC6\pdl\drivers\peripheral\ipc/cy_ipc_drv.h **** 
 346:Generated_Source\PSoC6\pdl\drivers\peripheral\ipc/cy_ipc_drv.h **** /** Converts the IPC interrupt channel number to interrupt vector */
 347:Generated_Source\PSoC6\pdl\drivers\peripheral\ipc/cy_ipc_drv.h **** #define CY_IPC_INTR_NUM_TO_VECT(x)         ((int32_t) cy_device->cpussIpc0Irq + (x))
 348:Generated_Source\PSoC6\pdl\drivers\peripheral\ipc/cy_ipc_drv.h **** 
 349:Generated_Source\PSoC6\pdl\drivers\peripheral\ipc/cy_ipc_drv.h **** /** \} group_ipc_macros */
 350:Generated_Source\PSoC6\pdl\drivers\peripheral\ipc/cy_ipc_drv.h **** 
 351:Generated_Source\PSoC6\pdl\drivers\peripheral\ipc/cy_ipc_drv.h **** /* end of definition in device.h */
 352:Generated_Source\PSoC6\pdl\drivers\peripheral\ipc/cy_ipc_drv.h **** 
 353:Generated_Source\PSoC6\pdl\drivers\peripheral\ipc/cy_ipc_drv.h **** /** \cond INTERNAL */
 354:Generated_Source\PSoC6\pdl\drivers\peripheral\ipc/cy_ipc_drv.h **** #if (CY_CPU_CORTEX_M0P)
 355:Generated_Source\PSoC6\pdl\drivers\peripheral\ipc/cy_ipc_drv.h ****     #define CY_IPC_CHAN_SYSCALL         CY_IPC_CHAN_SYSCALL_CM0
 356:Generated_Source\PSoC6\pdl\drivers\peripheral\ipc/cy_ipc_drv.h **** #else
 357:Generated_Source\PSoC6\pdl\drivers\peripheral\ipc/cy_ipc_drv.h ****     #define CY_IPC_CHAN_SYSCALL         CY_IPC_CHAN_SYSCALL_CM4
 358:Generated_Source\PSoC6\pdl\drivers\peripheral\ipc/cy_ipc_drv.h **** #endif  /* (CY_CPU_CORTEX_M0P) */
 359:Generated_Source\PSoC6\pdl\drivers\peripheral\ipc/cy_ipc_drv.h **** /** \endcond */
 360:Generated_Source\PSoC6\pdl\drivers\peripheral\ipc/cy_ipc_drv.h **** 
 361:Generated_Source\PSoC6\pdl\drivers\peripheral\ipc/cy_ipc_drv.h **** /**
 362:Generated_Source\PSoC6\pdl\drivers\peripheral\ipc/cy_ipc_drv.h **** * \addtogroup group_ipc_enums
 363:Generated_Source\PSoC6\pdl\drivers\peripheral\ipc/cy_ipc_drv.h **** * \{
 364:Generated_Source\PSoC6\pdl\drivers\peripheral\ipc/cy_ipc_drv.h **** */
 365:Generated_Source\PSoC6\pdl\drivers\peripheral\ipc/cy_ipc_drv.h **** 
 366:Generated_Source\PSoC6\pdl\drivers\peripheral\ipc/cy_ipc_drv.h **** /**
 367:Generated_Source\PSoC6\pdl\drivers\peripheral\ipc/cy_ipc_drv.h **** * This is a list of ENUMs used for function return status.
 368:Generated_Source\PSoC6\pdl\drivers\peripheral\ipc/cy_ipc_drv.h **** */
 369:Generated_Source\PSoC6\pdl\drivers\peripheral\ipc/cy_ipc_drv.h **** typedef enum
 370:Generated_Source\PSoC6\pdl\drivers\peripheral\ipc/cy_ipc_drv.h **** {
 371:Generated_Source\PSoC6\pdl\drivers\peripheral\ipc/cy_ipc_drv.h ****     /** Function was successfully executed */
 372:Generated_Source\PSoC6\pdl\drivers\peripheral\ipc/cy_ipc_drv.h ****     CY_IPC_DRV_SUCCESS      = (0x00u),
 373:Generated_Source\PSoC6\pdl\drivers\peripheral\ipc/cy_ipc_drv.h ****     /** Function was not executed due to an error.
 374:Generated_Source\PSoC6\pdl\drivers\peripheral\ipc/cy_ipc_drv.h ****         Typical conditions for the error explained
 375:Generated_Source\PSoC6\pdl\drivers\peripheral\ipc/cy_ipc_drv.h ****         in the function description */
 376:Generated_Source\PSoC6\pdl\drivers\peripheral\ipc/cy_ipc_drv.h ****     CY_IPC_DRV_ERROR        = ( CY_IPC_ID_ERROR + 1ul),
 377:Generated_Source\PSoC6\pdl\drivers\peripheral\ipc/cy_ipc_drv.h **** } cy_en_ipcdrv_status_t;
 378:Generated_Source\PSoC6\pdl\drivers\peripheral\ipc/cy_ipc_drv.h **** 
ARM GAS  C:\Users\Rolf\AppData\Local\Temp\ccUtnhQP.s 			page 13


 379:Generated_Source\PSoC6\pdl\drivers\peripheral\ipc/cy_ipc_drv.h **** /** \} group_ipc_enums */
 380:Generated_Source\PSoC6\pdl\drivers\peripheral\ipc/cy_ipc_drv.h **** 
 381:Generated_Source\PSoC6\pdl\drivers\peripheral\ipc/cy_ipc_drv.h **** 
 382:Generated_Source\PSoC6\pdl\drivers\peripheral\ipc/cy_ipc_drv.h **** #ifdef __cplusplus
 383:Generated_Source\PSoC6\pdl\drivers\peripheral\ipc/cy_ipc_drv.h **** extern "C" {
 384:Generated_Source\PSoC6\pdl\drivers\peripheral\ipc/cy_ipc_drv.h **** #endif
 385:Generated_Source\PSoC6\pdl\drivers\peripheral\ipc/cy_ipc_drv.h **** 
 386:Generated_Source\PSoC6\pdl\drivers\peripheral\ipc/cy_ipc_drv.h **** /** \cond INTERNAL */
 387:Generated_Source\PSoC6\pdl\drivers\peripheral\ipc/cy_ipc_drv.h **** 
 388:Generated_Source\PSoC6\pdl\drivers\peripheral\ipc/cy_ipc_drv.h **** __STATIC_INLINE void     Cy_IPC_Drv_WriteDataValue (IPC_STRUCT_Type* base, uint32_t dataValue);
 389:Generated_Source\PSoC6\pdl\drivers\peripheral\ipc/cy_ipc_drv.h **** __STATIC_INLINE uint32_t Cy_IPC_Drv_ReadDataValue (IPC_STRUCT_Type const * base);
 390:Generated_Source\PSoC6\pdl\drivers\peripheral\ipc/cy_ipc_drv.h **** 
 391:Generated_Source\PSoC6\pdl\drivers\peripheral\ipc/cy_ipc_drv.h **** __STATIC_INLINE uint32_t Cy_IPC_Drv_ExtractAcquireMask (uint32_t intMask);
 392:Generated_Source\PSoC6\pdl\drivers\peripheral\ipc/cy_ipc_drv.h **** __STATIC_INLINE uint32_t Cy_IPC_Drv_ExtractReleaseMask (uint32_t intMask);
 393:Generated_Source\PSoC6\pdl\drivers\peripheral\ipc/cy_ipc_drv.h **** 
 394:Generated_Source\PSoC6\pdl\drivers\peripheral\ipc/cy_ipc_drv.h **** /** \endcond */
 395:Generated_Source\PSoC6\pdl\drivers\peripheral\ipc/cy_ipc_drv.h **** 
 396:Generated_Source\PSoC6\pdl\drivers\peripheral\ipc/cy_ipc_drv.h **** /**
 397:Generated_Source\PSoC6\pdl\drivers\peripheral\ipc/cy_ipc_drv.h **** * \addtogroup group_ipc_functions
 398:Generated_Source\PSoC6\pdl\drivers\peripheral\ipc/cy_ipc_drv.h **** * \{
 399:Generated_Source\PSoC6\pdl\drivers\peripheral\ipc/cy_ipc_drv.h **** */
 400:Generated_Source\PSoC6\pdl\drivers\peripheral\ipc/cy_ipc_drv.h **** 
 401:Generated_Source\PSoC6\pdl\drivers\peripheral\ipc/cy_ipc_drv.h **** __STATIC_INLINE IPC_STRUCT_Type*       Cy_IPC_Drv_GetIpcBaseAddress (uint32_t ipcIndex);
 402:Generated_Source\PSoC6\pdl\drivers\peripheral\ipc/cy_ipc_drv.h **** __STATIC_INLINE IPC_INTR_STRUCT_Type*  Cy_IPC_Drv_GetIntrBaseAddr (uint32_t ipcIntrIndex);
 403:Generated_Source\PSoC6\pdl\drivers\peripheral\ipc/cy_ipc_drv.h **** 
 404:Generated_Source\PSoC6\pdl\drivers\peripheral\ipc/cy_ipc_drv.h **** __STATIC_INLINE void     Cy_IPC_Drv_AcquireNotify (IPC_STRUCT_Type * base, uint32_t notifyEventIntr
 405:Generated_Source\PSoC6\pdl\drivers\peripheral\ipc/cy_ipc_drv.h **** __STATIC_INLINE void     Cy_IPC_Drv_ReleaseNotify (IPC_STRUCT_Type * base, uint32_t notifyEventIntr
 406:Generated_Source\PSoC6\pdl\drivers\peripheral\ipc/cy_ipc_drv.h **** 
 407:Generated_Source\PSoC6\pdl\drivers\peripheral\ipc/cy_ipc_drv.h **** __STATIC_INLINE  cy_en_ipcdrv_status_t Cy_IPC_Drv_LockAcquire (IPC_STRUCT_Type const * base);
 408:Generated_Source\PSoC6\pdl\drivers\peripheral\ipc/cy_ipc_drv.h **** cy_en_ipcdrv_status_t    Cy_IPC_Drv_LockRelease (IPC_STRUCT_Type * base, uint32_t releaseEventIntr)
 409:Generated_Source\PSoC6\pdl\drivers\peripheral\ipc/cy_ipc_drv.h **** __STATIC_INLINE bool     Cy_IPC_Drv_IsLockAcquired (IPC_STRUCT_Type const * base);
 410:Generated_Source\PSoC6\pdl\drivers\peripheral\ipc/cy_ipc_drv.h **** __STATIC_INLINE uint32_t Cy_IPC_Drv_GetLockStatus (IPC_STRUCT_Type const * base);
 411:Generated_Source\PSoC6\pdl\drivers\peripheral\ipc/cy_ipc_drv.h **** 
 412:Generated_Source\PSoC6\pdl\drivers\peripheral\ipc/cy_ipc_drv.h **** cy_en_ipcdrv_status_t    Cy_IPC_Drv_SendMsgWord (IPC_STRUCT_Type * base, uint32_t notifyEventIntr, 
 413:Generated_Source\PSoC6\pdl\drivers\peripheral\ipc/cy_ipc_drv.h **** cy_en_ipcdrv_status_t    Cy_IPC_Drv_ReadMsgWord (IPC_STRUCT_Type const * base, uint32_t * message);
 414:Generated_Source\PSoC6\pdl\drivers\peripheral\ipc/cy_ipc_drv.h **** __STATIC_INLINE cy_en_ipcdrv_status_t Cy_IPC_Drv_SendMsgPtr (IPC_STRUCT_Type* base, uint32_t notify
 415:Generated_Source\PSoC6\pdl\drivers\peripheral\ipc/cy_ipc_drv.h **** __STATIC_INLINE cy_en_ipcdrv_status_t Cy_IPC_Drv_ReadMsgPtr (IPC_STRUCT_Type const * base, void ** 
 416:Generated_Source\PSoC6\pdl\drivers\peripheral\ipc/cy_ipc_drv.h **** 
 417:Generated_Source\PSoC6\pdl\drivers\peripheral\ipc/cy_ipc_drv.h **** __STATIC_INLINE void     Cy_IPC_Drv_SetInterruptMask (IPC_INTR_STRUCT_Type * base,
 418:Generated_Source\PSoC6\pdl\drivers\peripheral\ipc/cy_ipc_drv.h ****                                                       uint32_t ipcReleaseMask, uint32_t ipcAcquireM
 419:Generated_Source\PSoC6\pdl\drivers\peripheral\ipc/cy_ipc_drv.h **** __STATIC_INLINE uint32_t Cy_IPC_Drv_GetInterruptMask (IPC_INTR_STRUCT_Type const * base);
 420:Generated_Source\PSoC6\pdl\drivers\peripheral\ipc/cy_ipc_drv.h **** __STATIC_INLINE uint32_t Cy_IPC_Drv_GetInterruptStatusMasked (IPC_INTR_STRUCT_Type const * base);
 421:Generated_Source\PSoC6\pdl\drivers\peripheral\ipc/cy_ipc_drv.h **** __STATIC_INLINE uint32_t Cy_IPC_Drv_GetInterruptStatus (IPC_INTR_STRUCT_Type const * base);
 422:Generated_Source\PSoC6\pdl\drivers\peripheral\ipc/cy_ipc_drv.h **** __STATIC_INLINE void     Cy_IPC_Drv_SetInterrupt (IPC_INTR_STRUCT_Type * base,
 423:Generated_Source\PSoC6\pdl\drivers\peripheral\ipc/cy_ipc_drv.h ****                                                       uint32_t ipcReleaseMask, uint32_t ipcAcquireM
 424:Generated_Source\PSoC6\pdl\drivers\peripheral\ipc/cy_ipc_drv.h **** __STATIC_INLINE void     Cy_IPC_Drv_ClearInterrupt (IPC_INTR_STRUCT_Type * base,
 425:Generated_Source\PSoC6\pdl\drivers\peripheral\ipc/cy_ipc_drv.h ****                                                       uint32_t ipcReleaseMask, uint32_t ipcAcquireM
 426:Generated_Source\PSoC6\pdl\drivers\peripheral\ipc/cy_ipc_drv.h **** 
 427:Generated_Source\PSoC6\pdl\drivers\peripheral\ipc/cy_ipc_drv.h **** 
 428:Generated_Source\PSoC6\pdl\drivers\peripheral\ipc/cy_ipc_drv.h **** /*******************************************************************************
 429:Generated_Source\PSoC6\pdl\drivers\peripheral\ipc/cy_ipc_drv.h **** * Function Name: Cy_IPC_Drv_GetIpcBaseAddress
 430:Generated_Source\PSoC6\pdl\drivers\peripheral\ipc/cy_ipc_drv.h **** ****************************************************************************//**
 431:Generated_Source\PSoC6\pdl\drivers\peripheral\ipc/cy_ipc_drv.h **** *
 432:Generated_Source\PSoC6\pdl\drivers\peripheral\ipc/cy_ipc_drv.h **** * This function takes an IPC channel index as a parameter and returns the base
 433:Generated_Source\PSoC6\pdl\drivers\peripheral\ipc/cy_ipc_drv.h **** * address the IPC registers corresponding to the IPC channel.
 434:Generated_Source\PSoC6\pdl\drivers\peripheral\ipc/cy_ipc_drv.h **** *
 435:Generated_Source\PSoC6\pdl\drivers\peripheral\ipc/cy_ipc_drv.h **** * \note The user is responsible for ensuring that ipcIndex does not exceed the
ARM GAS  C:\Users\Rolf\AppData\Local\Temp\ccUtnhQP.s 			page 14


 436:Generated_Source\PSoC6\pdl\drivers\peripheral\ipc/cy_ipc_drv.h **** * limits.
 437:Generated_Source\PSoC6\pdl\drivers\peripheral\ipc/cy_ipc_drv.h **** *
 438:Generated_Source\PSoC6\pdl\drivers\peripheral\ipc/cy_ipc_drv.h **** * \param ipcIndex
 439:Generated_Source\PSoC6\pdl\drivers\peripheral\ipc/cy_ipc_drv.h **** * Represents the number of IPC structure. This is converted to the base address of
 440:Generated_Source\PSoC6\pdl\drivers\peripheral\ipc/cy_ipc_drv.h **** * the IPC channel registers.
 441:Generated_Source\PSoC6\pdl\drivers\peripheral\ipc/cy_ipc_drv.h **** *
 442:Generated_Source\PSoC6\pdl\drivers\peripheral\ipc/cy_ipc_drv.h **** * \return
 443:Generated_Source\PSoC6\pdl\drivers\peripheral\ipc/cy_ipc_drv.h **** * Returns a pointer to the base of the IPC registers.
 444:Generated_Source\PSoC6\pdl\drivers\peripheral\ipc/cy_ipc_drv.h **** *
 445:Generated_Source\PSoC6\pdl\drivers\peripheral\ipc/cy_ipc_drv.h **** * \funcusage
 446:Generated_Source\PSoC6\pdl\drivers\peripheral\ipc/cy_ipc_drv.h **** * \snippet IPC_sut_01.cydsn/main_cm4.c snippet_Cy_IPC_Drv_SendMsgWord
 447:Generated_Source\PSoC6\pdl\drivers\peripheral\ipc/cy_ipc_drv.h **** *
 448:Generated_Source\PSoC6\pdl\drivers\peripheral\ipc/cy_ipc_drv.h **** *******************************************************************************/
 449:Generated_Source\PSoC6\pdl\drivers\peripheral\ipc/cy_ipc_drv.h **** __STATIC_INLINE IPC_STRUCT_Type* Cy_IPC_Drv_GetIpcBaseAddress (uint32_t ipcIndex)
 450:Generated_Source\PSoC6\pdl\drivers\peripheral\ipc/cy_ipc_drv.h **** {
 451:Generated_Source\PSoC6\pdl\drivers\peripheral\ipc/cy_ipc_drv.h ****     CY_ASSERT_L1(CY_IPC_CHANNELS > ipcIndex);
 119              		.loc 2 451 0
 120 003a 244B     		ldr	r3, .L12+8
 121 003c 1A68     		ldr	r2, [r3]
 122 003e 3123     		movs	r3, #49
 123 0040 D35C     		ldrb	r3, [r2, r3]
 124 0042 9D42     		cmp	r5, r3
 125 0044 04D3     		bcc	.L7
 126 0046 C421     		movs	r1, #196
 127 0048 FF31     		adds	r1, r1, #255
 128 004a 2148     		ldr	r0, .L12+12
 129 004c FFF7FEFF 		bl	Cy_SysLib_AssertFailed
 130              	.LVL9:
 131              	.L7:
 452:Generated_Source\PSoC6\pdl\drivers\peripheral\ipc/cy_ipc_drv.h ****     return ( (IPC_STRUCT_Type*) CY_IPC_STRUCT_PTR(ipcIndex));
 132              		.loc 2 452 0
 133 0050 1E4B     		ldr	r3, .L12+8
 134 0052 1A68     		ldr	r2, [r3]
 135 0054 B023     		movs	r3, #176
 136 0056 D35A     		ldrh	r3, [r2, r3]
 137 0058 6B43     		muls	r3, r5
 138 005a 116A     		ldr	r1, [r2, #32]
 139 005c 8C46     		mov	ip, r1
 140 005e 6344     		add	r3, r3, ip
 141              	.LVL10:
 142              	.LBE47:
 143              	.LBE46:
 189:Generated_Source\PSoC6\pdl\drivers\peripheral\ipc/cy_ipc_pipe.c **** 
 190:Generated_Source\PSoC6\pdl\drivers\peripheral\ipc/cy_ipc_pipe.c ****     /* Assign IPC channel to this endpoint */
 191:Generated_Source\PSoC6\pdl\drivers\peripheral\ipc/cy_ipc_pipe.c ****     endpoint->ipcPtr   = Cy_IPC_Drv_GetIpcBaseAddress (endpoint->ipcChan);
 144              		.loc 1 191 0
 145 0060 2361     		str	r3, [r4, #16]
 192:Generated_Source\PSoC6\pdl\drivers\peripheral\ipc/cy_ipc_pipe.c **** 
 193:Generated_Source\PSoC6\pdl\drivers\peripheral\ipc/cy_ipc_pipe.c ****     /* Assign interrupt structure to endpoint and Initialize the interrupt mask for this endpoint *
 194:Generated_Source\PSoC6\pdl\drivers\peripheral\ipc/cy_ipc_pipe.c ****     endpoint->ipcIntrPtr = Cy_IPC_Drv_GetIntrBaseAddr(endpoint->intrChan);
 146              		.loc 1 194 0
 147 0062 6668     		ldr	r6, [r4, #4]
 148              	.LVL11:
 149              	.LBB48:
 150              	.LBB49:
 453:Generated_Source\PSoC6\pdl\drivers\peripheral\ipc/cy_ipc_drv.h **** }
 454:Generated_Source\PSoC6\pdl\drivers\peripheral\ipc/cy_ipc_drv.h **** 
ARM GAS  C:\Users\Rolf\AppData\Local\Temp\ccUtnhQP.s 			page 15


 455:Generated_Source\PSoC6\pdl\drivers\peripheral\ipc/cy_ipc_drv.h **** 
 456:Generated_Source\PSoC6\pdl\drivers\peripheral\ipc/cy_ipc_drv.h **** /*******************************************************************************
 457:Generated_Source\PSoC6\pdl\drivers\peripheral\ipc/cy_ipc_drv.h **** * Function Name: Cy_IPC_Drv_GetIntrBaseAddr
 458:Generated_Source\PSoC6\pdl\drivers\peripheral\ipc/cy_ipc_drv.h **** ****************************************************************************//**
 459:Generated_Source\PSoC6\pdl\drivers\peripheral\ipc/cy_ipc_drv.h **** *
 460:Generated_Source\PSoC6\pdl\drivers\peripheral\ipc/cy_ipc_drv.h **** * This function takes an IPC interrupt structure index and returns the base
 461:Generated_Source\PSoC6\pdl\drivers\peripheral\ipc/cy_ipc_drv.h **** * address of the IPC interrupt registers corresponding to the IPC Interrupt.
 462:Generated_Source\PSoC6\pdl\drivers\peripheral\ipc/cy_ipc_drv.h **** *
 463:Generated_Source\PSoC6\pdl\drivers\peripheral\ipc/cy_ipc_drv.h **** * \note The user is responsible for ensuring that ipcIntrIndex does not exceed the
 464:Generated_Source\PSoC6\pdl\drivers\peripheral\ipc/cy_ipc_drv.h **** * limits.
 465:Generated_Source\PSoC6\pdl\drivers\peripheral\ipc/cy_ipc_drv.h **** *
 466:Generated_Source\PSoC6\pdl\drivers\peripheral\ipc/cy_ipc_drv.h **** * \param ipcIntrIndex
 467:Generated_Source\PSoC6\pdl\drivers\peripheral\ipc/cy_ipc_drv.h **** * Represents the number of IPC interrupt structure. This is converted to the
 468:Generated_Source\PSoC6\pdl\drivers\peripheral\ipc/cy_ipc_drv.h **** * base address of the IPC interrupt registers.
 469:Generated_Source\PSoC6\pdl\drivers\peripheral\ipc/cy_ipc_drv.h **** *
 470:Generated_Source\PSoC6\pdl\drivers\peripheral\ipc/cy_ipc_drv.h **** * \return
 471:Generated_Source\PSoC6\pdl\drivers\peripheral\ipc/cy_ipc_drv.h **** * Returns a pointer to the base of the IPC interrupt registers.
 472:Generated_Source\PSoC6\pdl\drivers\peripheral\ipc/cy_ipc_drv.h **** *
 473:Generated_Source\PSoC6\pdl\drivers\peripheral\ipc/cy_ipc_drv.h **** * \funcusage
 474:Generated_Source\PSoC6\pdl\drivers\peripheral\ipc/cy_ipc_drv.h **** * \snippet IPC_sut_01.cydsn/main_cm4.c snippet_Cy_IPC_Drv_GetInterruptStatus
 475:Generated_Source\PSoC6\pdl\drivers\peripheral\ipc/cy_ipc_drv.h **** *
 476:Generated_Source\PSoC6\pdl\drivers\peripheral\ipc/cy_ipc_drv.h **** *******************************************************************************/
 477:Generated_Source\PSoC6\pdl\drivers\peripheral\ipc/cy_ipc_drv.h **** __STATIC_INLINE IPC_INTR_STRUCT_Type* Cy_IPC_Drv_GetIntrBaseAddr (uint32_t ipcIntrIndex)
 478:Generated_Source\PSoC6\pdl\drivers\peripheral\ipc/cy_ipc_drv.h **** {
 479:Generated_Source\PSoC6\pdl\drivers\peripheral\ipc/cy_ipc_drv.h ****     CY_ASSERT_L1(CY_IPC_INTERRUPTS > ipcIntrIndex);
 151              		.loc 2 479 0
 152 0064 3223     		movs	r3, #50
 153 0066 D35C     		ldrb	r3, [r2, r3]
 154 0068 9E42     		cmp	r6, r3
 155 006a 04D3     		bcc	.L8
 156 006c E021     		movs	r1, #224
 157 006e FF31     		adds	r1, r1, #255
 158 0070 1748     		ldr	r0, .L12+12
 159 0072 FFF7FEFF 		bl	Cy_SysLib_AssertFailed
 160              	.LVL12:
 161              	.L8:
 480:Generated_Source\PSoC6\pdl\drivers\peripheral\ipc/cy_ipc_drv.h ****     return ( (IPC_INTR_STRUCT_Type*) &(((IPC_Type *)cy_device->ipcBase)->INTR_STRUCT[ipcIntrIndex])
 162              		.loc 2 480 0
 163 0076 154B     		ldr	r3, .L12+8
 164 0078 1B68     		ldr	r3, [r3]
 165 007a 1D6A     		ldr	r5, [r3, #32]
 166 007c 8036     		adds	r6, r6, #128
 167              	.LVL13:
 168 007e 7601     		lsls	r6, r6, #5
 169              	.LVL14:
 170 0080 AD19     		adds	r5, r5, r6
 171              	.LBE49:
 172              	.LBE48:
 173              		.loc 1 194 0
 174 0082 6561     		str	r5, [r4, #20]
 195:Generated_Source\PSoC6\pdl\drivers\peripheral\ipc/cy_ipc_pipe.c **** 
 196:Generated_Source\PSoC6\pdl\drivers\peripheral\ipc/cy_ipc_pipe.c ****     /* Only allow notify and release interrupts from endpoints in this pipe. */
 197:Generated_Source\PSoC6\pdl\drivers\peripheral\ipc/cy_ipc_pipe.c ****     Cy_IPC_Drv_SetInterruptMask(endpoint->ipcIntrPtr, endpoint->pipeIntMask, endpoint->pipeIntMask)
 175              		.loc 1 197 0
 176 0084 A668     		ldr	r6, [r4, #8]
 177              	.LVL15:
 178              	.LBB50:
ARM GAS  C:\Users\Rolf\AppData\Local\Temp\ccUtnhQP.s 			page 16


 179              	.LBB51:
 481:Generated_Source\PSoC6\pdl\drivers\peripheral\ipc/cy_ipc_drv.h **** }
 482:Generated_Source\PSoC6\pdl\drivers\peripheral\ipc/cy_ipc_drv.h **** 
 483:Generated_Source\PSoC6\pdl\drivers\peripheral\ipc/cy_ipc_drv.h **** 
 484:Generated_Source\PSoC6\pdl\drivers\peripheral\ipc/cy_ipc_drv.h **** /*******************************************************************************
 485:Generated_Source\PSoC6\pdl\drivers\peripheral\ipc/cy_ipc_drv.h **** * Function Name: Cy_IPC_Drv_SetInterruptMask
 486:Generated_Source\PSoC6\pdl\drivers\peripheral\ipc/cy_ipc_drv.h **** ****************************************************************************//**
 487:Generated_Source\PSoC6\pdl\drivers\peripheral\ipc/cy_ipc_drv.h **** *
 488:Generated_Source\PSoC6\pdl\drivers\peripheral\ipc/cy_ipc_drv.h **** * This function is used to set the interrupt mask for an IPC Interrupt.
 489:Generated_Source\PSoC6\pdl\drivers\peripheral\ipc/cy_ipc_drv.h **** * The mask sets release or acquire notification events for all IPC channels.
 490:Generated_Source\PSoC6\pdl\drivers\peripheral\ipc/cy_ipc_drv.h **** *
 491:Generated_Source\PSoC6\pdl\drivers\peripheral\ipc/cy_ipc_drv.h **** * \param base
 492:Generated_Source\PSoC6\pdl\drivers\peripheral\ipc/cy_ipc_drv.h **** * This is a handle to the IPC interrupt. This handle can be calculated from the
 493:Generated_Source\PSoC6\pdl\drivers\peripheral\ipc/cy_ipc_drv.h **** * IPC interrupt number using \ref Cy_IPC_Drv_GetIntrBaseAddr.
 494:Generated_Source\PSoC6\pdl\drivers\peripheral\ipc/cy_ipc_drv.h **** *
 495:Generated_Source\PSoC6\pdl\drivers\peripheral\ipc/cy_ipc_drv.h **** * \param ipcReleaseMask
 496:Generated_Source\PSoC6\pdl\drivers\peripheral\ipc/cy_ipc_drv.h **** * An encoded list of all IPC channels that can trigger the interrupt on a
 497:Generated_Source\PSoC6\pdl\drivers\peripheral\ipc/cy_ipc_drv.h **** * release event.
 498:Generated_Source\PSoC6\pdl\drivers\peripheral\ipc/cy_ipc_drv.h **** *
 499:Generated_Source\PSoC6\pdl\drivers\peripheral\ipc/cy_ipc_drv.h **** * \param ipcAcquireMask
 500:Generated_Source\PSoC6\pdl\drivers\peripheral\ipc/cy_ipc_drv.h **** * An encoded list of all IPC channels that can trigger the interrupt on a
 501:Generated_Source\PSoC6\pdl\drivers\peripheral\ipc/cy_ipc_drv.h **** * notify event.
 502:Generated_Source\PSoC6\pdl\drivers\peripheral\ipc/cy_ipc_drv.h **** *
 503:Generated_Source\PSoC6\pdl\drivers\peripheral\ipc/cy_ipc_drv.h **** * \funcusage
 504:Generated_Source\PSoC6\pdl\drivers\peripheral\ipc/cy_ipc_drv.h **** * \snippet IPC_sut_01.cydsn/main_cm4.c snippet_Cy_IPC_Drv_GetInterruptStatusMasked
 505:Generated_Source\PSoC6\pdl\drivers\peripheral\ipc/cy_ipc_drv.h **** *
 506:Generated_Source\PSoC6\pdl\drivers\peripheral\ipc/cy_ipc_drv.h **** *******************************************************************************/
 507:Generated_Source\PSoC6\pdl\drivers\peripheral\ipc/cy_ipc_drv.h **** __STATIC_INLINE void  Cy_IPC_Drv_SetInterruptMask (IPC_INTR_STRUCT_Type* base,
 508:Generated_Source\PSoC6\pdl\drivers\peripheral\ipc/cy_ipc_drv.h ****                                               uint32_t ipcReleaseMask, uint32_t ipcAcquireMask)
 509:Generated_Source\PSoC6\pdl\drivers\peripheral\ipc/cy_ipc_drv.h **** {
 510:Generated_Source\PSoC6\pdl\drivers\peripheral\ipc/cy_ipc_drv.h ****     CY_ASSERT_L1(0ul == (ipcAcquireMask & ~(uint32_t)(IPC_STRUCT_NOTIFY_INTR_NOTIFY_Msk)));
 180              		.loc 2 510 0
 181 0086 330C     		lsrs	r3, r6, #16
 182 0088 04D0     		beq	.L9
 183 008a FF21     		movs	r1, #255
 184 008c 4900     		lsls	r1, r1, #1
 185 008e 1048     		ldr	r0, .L12+12
 186 0090 FFF7FEFF 		bl	Cy_SysLib_AssertFailed
 187              	.LVL16:
 188              	.L9:
 511:Generated_Source\PSoC6\pdl\drivers\peripheral\ipc/cy_ipc_drv.h ****     CY_ASSERT_L1(0ul == (ipcReleaseMask & ~(uint32_t)(IPC_STRUCT_RELEASE_INTR_RELEASE_Msk)));
 189              		.loc 2 511 0
 190 0094 330C     		lsrs	r3, r6, #16
 191 0096 03D0     		beq	.L10
 192 0098 0E49     		ldr	r1, .L12+16
 193 009a 0D48     		ldr	r0, .L12+12
 194 009c FFF7FEFF 		bl	Cy_SysLib_AssertFailed
 195              	.LVL17:
 196              	.L10:
 512:Generated_Source\PSoC6\pdl\drivers\peripheral\ipc/cy_ipc_drv.h ****     REG_IPC_INTR_STRUCT_INTR_MASK(base) = _VAL2FLD( IPC_INTR_STRUCT_INTR_MASK_NOTIFY,  ipcAcquireMa
 197              		.loc 2 512 0
 198 00a0 3604     		lsls	r6, r6, #16
 199              	.LVL18:
 513:Generated_Source\PSoC6\pdl\drivers\peripheral\ipc/cy_ipc_drv.h ****                       _VAL2FLD( IPC_INTR_STRUCT_INTR_MASK_RELEASE, ipcReleaseMask);
 200              		.loc 2 513 0
 201 00a2 330C     		lsrs	r3, r6, #16
 512:Generated_Source\PSoC6\pdl\drivers\peripheral\ipc/cy_ipc_drv.h ****     REG_IPC_INTR_STRUCT_INTR_MASK(base) = _VAL2FLD( IPC_INTR_STRUCT_INTR_MASK_NOTIFY,  ipcAcquireMa
ARM GAS  C:\Users\Rolf\AppData\Local\Temp\ccUtnhQP.s 			page 17


 202              		.loc 2 512 0
 203 00a4 1E43     		orrs	r6, r3
 204 00a6 AE60     		str	r6, [r5, #8]
 205              	.LVL19:
 206              	.LBE51:
 207              	.LBE50:
 198:Generated_Source\PSoC6\pdl\drivers\peripheral\ipc/cy_ipc_pipe.c **** 
 199:Generated_Source\PSoC6\pdl\drivers\peripheral\ipc/cy_ipc_pipe.c ****     /* Save the Client count and the callback array pointer */
 200:Generated_Source\PSoC6\pdl\drivers\peripheral\ipc/cy_ipc_pipe.c ****     endpoint->clientCount   = cbCnt;
 208              		.loc 1 200 0
 209 00a8 4346     		mov	r3, r8
 210 00aa E361     		str	r3, [r4, #28]
 201:Generated_Source\PSoC6\pdl\drivers\peripheral\ipc/cy_ipc_pipe.c ****     endpoint->callbackArray = cbArray;
 211              		.loc 1 201 0
 212 00ac 2762     		str	r7, [r4, #32]
 202:Generated_Source\PSoC6\pdl\drivers\peripheral\ipc/cy_ipc_pipe.c ****     endpoint->busy = CY_IPC_PIPE_ENDPOINT_NOTBUSY;
 213              		.loc 1 202 0
 214 00ae 0023     		movs	r3, #0
 215 00b0 A361     		str	r3, [r4, #24]
 203:Generated_Source\PSoC6\pdl\drivers\peripheral\ipc/cy_ipc_pipe.c **** 
 204:Generated_Source\PSoC6\pdl\drivers\peripheral\ipc/cy_ipc_pipe.c ****     if (NULL != epInterrupt)
 216              		.loc 1 204 0
 217 00b2 069B     		ldr	r3, [sp, #24]
 218 00b4 002B     		cmp	r3, #0
 219 00b6 02D0     		beq	.L5
 205:Generated_Source\PSoC6\pdl\drivers\peripheral\ipc/cy_ipc_pipe.c ****     {
 206:Generated_Source\PSoC6\pdl\drivers\peripheral\ipc/cy_ipc_pipe.c ****         endpoint->pipeIntrSrc     = epInterrupt->intrSrc;
 220              		.loc 1 206 0
 221 00b8 0022     		movs	r2, #0
 222 00ba 9B5E     		ldrsh	r3, [r3, r2]
 223 00bc A381     		strh	r3, [r4, #12]
 224              	.L5:
 207:Generated_Source\PSoC6\pdl\drivers\peripheral\ipc/cy_ipc_pipe.c ****     }
 208:Generated_Source\PSoC6\pdl\drivers\peripheral\ipc/cy_ipc_pipe.c **** }
 225              		.loc 1 208 0
 226              		@ sp needed
 227              	.LVL20:
 228              	.LVL21:
 229              	.LVL22:
 230 00be 04BC     		pop	{r2}
 231 00c0 9046     		mov	r8, r2
 232 00c2 F0BD     		pop	{r4, r5, r6, r7, pc}
 233              	.L13:
 234              		.align	2
 235              	.L12:
 236 00c4 00000000 		.word	.LANCHOR0
 237 00c8 00000000 		.word	.LC2
 238 00cc 00000000 		.word	cy_device
 239 00d0 40000000 		.word	.LC5
 240 00d4 FF010000 		.word	511
 241              		.cfi_endproc
 242              	.LFE68:
 243              		.size	Cy_IPC_Pipe_EndpointInit, .-Cy_IPC_Pipe_EndpointInit
 244              		.section	.text.Cy_IPC_Pipe_Init,"ax",%progbits
 245              		.align	2
 246              		.global	Cy_IPC_Pipe_Init
 247              		.code	16
ARM GAS  C:\Users\Rolf\AppData\Local\Temp\ccUtnhQP.s 			page 18


 248              		.thumb_func
 249              		.type	Cy_IPC_Pipe_Init, %function
 250              	Cy_IPC_Pipe_Init:
 251              	.LFB67:
  73:Generated_Source\PSoC6\pdl\drivers\peripheral\ipc/cy_ipc_pipe.c ****     /* Create the interrupt structures and arrays needed */
 252              		.loc 1 73 0
 253              		.cfi_startproc
 254              		@ args = 0, pretend = 0, frame = 48
 255              		@ frame_needed = 0, uses_anonymous_args = 0
 256              	.LVL23:
 257 0000 F0B5     		push	{r4, r5, r6, r7, lr}
 258              		.cfi_def_cfa_offset 20
 259              		.cfi_offset 4, -20
 260              		.cfi_offset 5, -16
 261              		.cfi_offset 6, -12
 262              		.cfi_offset 7, -8
 263              		.cfi_offset 14, -4
 264 0002 8FB0     		sub	sp, sp, #60
 265              		.cfi_def_cfa_offset 80
 266 0004 041E     		subs	r4, r0, #0
  82:Generated_Source\PSoC6\pdl\drivers\peripheral\ipc/cy_ipc_pipe.c ****     #if (CY_CPU_CORTEX_M0P)
 267              		.loc 1 82 0
 268 0006 03D1     		bne	.L15
  82:Generated_Source\PSoC6\pdl\drivers\peripheral\ipc/cy_ipc_pipe.c ****     #if (CY_CPU_CORTEX_M0P)
 269              		.loc 1 82 0 is_stmt 0 discriminator 1
 270 0008 5221     		movs	r1, #82
 271 000a 2948     		ldr	r0, .L20
 272              	.LVL24:
 273 000c FFF7FEFF 		bl	Cy_SysLib_AssertFailed
 274              	.LVL25:
 275              	.L15:
  84:Generated_Source\PSoC6\pdl\drivers\peripheral\ipc/cy_ipc_pipe.c ****     #else
 276              		.loc 1 84 0 is_stmt 1
 277 0010 6368     		ldr	r3, [r4, #4]
 278 0012 032B     		cmp	r3, #3
 279 0014 03D9     		bls	.L16
  84:Generated_Source\PSoC6\pdl\drivers\peripheral\ipc/cy_ipc_pipe.c ****     #else
 280              		.loc 1 84 0 is_stmt 0 discriminator 1
 281 0016 5421     		movs	r1, #84
 282 0018 2548     		ldr	r0, .L20
 283 001a FFF7FEFF 		bl	Cy_SysLib_AssertFailed
 284              	.LVL26:
 285              	.L16:
  88:Generated_Source\PSoC6\pdl\drivers\peripheral\ipc/cy_ipc_pipe.c ****     CY_ASSERT_L1(NULL != config->userPipeIsrHandler);
 286              		.loc 1 88 0 is_stmt 1
 287 001e E36A     		ldr	r3, [r4, #44]
 288 0020 002B     		cmp	r3, #0
 289 0022 03D1     		bne	.L17
  88:Generated_Source\PSoC6\pdl\drivers\peripheral\ipc/cy_ipc_pipe.c ****     CY_ASSERT_L1(NULL != config->userPipeIsrHandler);
 290              		.loc 1 88 0 is_stmt 0 discriminator 1
 291 0024 5821     		movs	r1, #88
 292 0026 2248     		ldr	r0, .L20
 293 0028 FFF7FEFF 		bl	Cy_SysLib_AssertFailed
 294              	.LVL27:
 295              	.L17:
  89:Generated_Source\PSoC6\pdl\drivers\peripheral\ipc/cy_ipc_pipe.c ****     /* Parameters checking end */
 296              		.loc 1 89 0 is_stmt 1
ARM GAS  C:\Users\Rolf\AppData\Local\Temp\ccUtnhQP.s 			page 19


 297 002c 236B     		ldr	r3, [r4, #48]
 298 002e 002B     		cmp	r3, #0
 299 0030 03D1     		bne	.L18
  89:Generated_Source\PSoC6\pdl\drivers\peripheral\ipc/cy_ipc_pipe.c ****     /* Parameters checking end */
 300              		.loc 1 89 0 is_stmt 0 discriminator 1
 301 0032 5921     		movs	r1, #89
 302 0034 1E48     		ldr	r0, .L20
 303 0036 FFF7FEFF 		bl	Cy_SysLib_AssertFailed
 304              	.LVL28:
 305              	.L18:
  95:Generated_Source\PSoC6\pdl\drivers\peripheral\ipc/cy_ipc_pipe.c ****     epConfigDataB = config->ep1ConfigData;
 306              		.loc 1 95 0 is_stmt 1
 307 003a 07AA     		add	r2, sp, #28
 308 003c 1300     		movs	r3, r2
 309 003e 2100     		movs	r1, r4
 310 0040 61C9     		ldmia	r1!, {r0, r5, r6}
 311 0042 61C3     		stmia	r3!, {r0, r5, r6}
 312 0044 21C9     		ldmia	r1!, {r0, r5}
 313 0046 21C3     		stmia	r3!, {r0, r5}
  96:Generated_Source\PSoC6\pdl\drivers\peripheral\ipc/cy_ipc_pipe.c **** 
 314              		.loc 1 96 0
 315 0048 02AD     		add	r5, sp, #8
 316 004a 2900     		movs	r1, r5
 317 004c 2300     		movs	r3, r4
 318 004e 1433     		adds	r3, r3, #20
 319 0050 C1CB     		ldmia	r3!, {r0, r6, r7}
 320 0052 C1C1     		stmia	r1!, {r0, r6, r7}
 321 0054 41CB     		ldmia	r3!, {r0, r6}
 322 0056 41C1     		stmia	r1!, {r0, r6}
  99:Generated_Source\PSoC6\pdl\drivers\peripheral\ipc/cy_ipc_pipe.c ****     ipc_intr_cypipeConfig.cm0pSrc          = (cy_en_intr_t)((int32_t)cy_device->cpussIpc0Irq + (int
 323              		.loc 1 99 0
 324 0058 0821     		movs	r1, #8
 325 005a 535E     		ldrsh	r3, [r2, r1]
 326 005c 0CAE     		add	r6, sp, #48
 327 005e 3380     		strh	r3, [r6]
 100:Generated_Source\PSoC6\pdl\drivers\peripheral\ipc/cy_ipc_pipe.c ****     ipc_intr_cypipeConfig.intrPriority     = epConfigDataA.ipcNotifierPriority;
 328              		.loc 1 100 0
 329 0060 144B     		ldr	r3, .L20+4
 330 0062 1B68     		ldr	r3, [r3]
 331 0064 3621     		movs	r1, #54
 332 0066 5B5E     		ldrsh	r3, [r3, r1]
 333 0068 0799     		ldr	r1, [sp, #28]
 334 006a 8C46     		mov	ip, r1
 335 006c 6344     		add	r3, r3, ip
 336 006e B370     		strb	r3, [r6, #2]
 101:Generated_Source\PSoC6\pdl\drivers\peripheral\ipc/cy_ipc_pipe.c **** 
 337              		.loc 1 101 0
 338 0070 089B     		ldr	r3, [sp, #32]
 339 0072 0D93     		str	r3, [sp, #52]
 116:Generated_Source\PSoC6\pdl\drivers\peripheral\ipc/cy_ipc_pipe.c ****                              config->endpointsCallbacksArray,
 340              		.loc 1 116 0
 341 0074 0B9B     		ldr	r3, [sp, #44]
 342 0076 0A98     		ldr	r0, [sp, #40]
 343 0078 0096     		str	r6, [sp]
 344 007a A26A     		ldr	r2, [r4, #40]
 345 007c E16A     		ldr	r1, [r4, #44]
 346 007e FFF7FEFF 		bl	Cy_IPC_Pipe_EndpointInit
ARM GAS  C:\Users\Rolf\AppData\Local\Temp\ccUtnhQP.s 			page 20


 347              	.LVL29:
 123:Generated_Source\PSoC6\pdl\drivers\peripheral\ipc/cy_ipc_pipe.c **** 
 348              		.loc 1 123 0
 349 0082 2B69     		ldr	r3, [r5, #16]
 350 0084 E868     		ldr	r0, [r5, #12]
 351 0086 0022     		movs	r2, #0
 352 0088 0092     		str	r2, [sp]
 353 008a 0021     		movs	r1, #0
 354 008c FFF7FEFF 		bl	Cy_IPC_Pipe_EndpointInit
 355              	.LVL30:
 125:Generated_Source\PSoC6\pdl\drivers\peripheral\ipc/cy_ipc_pipe.c **** 
 356              		.loc 1 125 0
 357 0090 216B     		ldr	r1, [r4, #48]
 358 0092 3000     		movs	r0, r6
 359 0094 FFF7FEFF 		bl	Cy_SysInt_Init
 360              	.LVL31:
 128:Generated_Source\PSoC6\pdl\drivers\peripheral\ipc/cy_ipc_pipe.c **** }
 361              		.loc 1 128 0
 362 0098 0023     		movs	r3, #0
 363 009a F25E     		ldrsh	r2, [r6, r3]
 364              	.LVL32:
 365              	.LBB52:
 366              	.LBB53:
 367              		.file 3 "Generated_Source\\PSoC6\\pdl\\cmsis/include/core_cm0plus.h"
   1:Generated_Source\PSoC6\pdl\cmsis/include/core_cm0plus.h **** /**************************************************************************//**
   2:Generated_Source\PSoC6\pdl\cmsis/include/core_cm0plus.h ****  * @file     core_cm0plus.h
   3:Generated_Source\PSoC6\pdl\cmsis/include/core_cm0plus.h ****  * @brief    CMSIS Cortex-M0+ Core Peripheral Access Layer Header File
   4:Generated_Source\PSoC6\pdl\cmsis/include/core_cm0plus.h ****  * @version  V5.0.4
   5:Generated_Source\PSoC6\pdl\cmsis/include/core_cm0plus.h ****  * @date     10. January 2018
   6:Generated_Source\PSoC6\pdl\cmsis/include/core_cm0plus.h ****  ******************************************************************************/
   7:Generated_Source\PSoC6\pdl\cmsis/include/core_cm0plus.h **** /*
   8:Generated_Source\PSoC6\pdl\cmsis/include/core_cm0plus.h ****  * Copyright (c) 2009-2018 Arm Limited. All rights reserved.
   9:Generated_Source\PSoC6\pdl\cmsis/include/core_cm0plus.h ****  *
  10:Generated_Source\PSoC6\pdl\cmsis/include/core_cm0plus.h ****  * SPDX-License-Identifier: Apache-2.0
  11:Generated_Source\PSoC6\pdl\cmsis/include/core_cm0plus.h ****  *
  12:Generated_Source\PSoC6\pdl\cmsis/include/core_cm0plus.h ****  * Licensed under the Apache License, Version 2.0 (the License); you may
  13:Generated_Source\PSoC6\pdl\cmsis/include/core_cm0plus.h ****  * not use this file except in compliance with the License.
  14:Generated_Source\PSoC6\pdl\cmsis/include/core_cm0plus.h ****  * You may obtain a copy of the License at
  15:Generated_Source\PSoC6\pdl\cmsis/include/core_cm0plus.h ****  *
  16:Generated_Source\PSoC6\pdl\cmsis/include/core_cm0plus.h ****  * www.apache.org/licenses/LICENSE-2.0
  17:Generated_Source\PSoC6\pdl\cmsis/include/core_cm0plus.h ****  *
  18:Generated_Source\PSoC6\pdl\cmsis/include/core_cm0plus.h ****  * Unless required by applicable law or agreed to in writing, software
  19:Generated_Source\PSoC6\pdl\cmsis/include/core_cm0plus.h ****  * distributed under the License is distributed on an AS IS BASIS, WITHOUT
  20:Generated_Source\PSoC6\pdl\cmsis/include/core_cm0plus.h ****  * WARRANTIES OR CONDITIONS OF ANY KIND, either express or implied.
  21:Generated_Source\PSoC6\pdl\cmsis/include/core_cm0plus.h ****  * See the License for the specific language governing permissions and
  22:Generated_Source\PSoC6\pdl\cmsis/include/core_cm0plus.h ****  * limitations under the License.
  23:Generated_Source\PSoC6\pdl\cmsis/include/core_cm0plus.h ****  */
  24:Generated_Source\PSoC6\pdl\cmsis/include/core_cm0plus.h **** 
  25:Generated_Source\PSoC6\pdl\cmsis/include/core_cm0plus.h **** #if   defined ( __ICCARM__ )
  26:Generated_Source\PSoC6\pdl\cmsis/include/core_cm0plus.h ****   #pragma system_include         /* treat file as system include file for MISRA check */
  27:Generated_Source\PSoC6\pdl\cmsis/include/core_cm0plus.h **** #elif defined (__clang__)
  28:Generated_Source\PSoC6\pdl\cmsis/include/core_cm0plus.h ****   #pragma clang system_header   /* treat file as system include file */
  29:Generated_Source\PSoC6\pdl\cmsis/include/core_cm0plus.h **** #endif
  30:Generated_Source\PSoC6\pdl\cmsis/include/core_cm0plus.h **** 
  31:Generated_Source\PSoC6\pdl\cmsis/include/core_cm0plus.h **** #ifndef __CORE_CM0PLUS_H_GENERIC
  32:Generated_Source\PSoC6\pdl\cmsis/include/core_cm0plus.h **** #define __CORE_CM0PLUS_H_GENERIC
  33:Generated_Source\PSoC6\pdl\cmsis/include/core_cm0plus.h **** 
ARM GAS  C:\Users\Rolf\AppData\Local\Temp\ccUtnhQP.s 			page 21


  34:Generated_Source\PSoC6\pdl\cmsis/include/core_cm0plus.h **** #include <stdint.h>
  35:Generated_Source\PSoC6\pdl\cmsis/include/core_cm0plus.h **** 
  36:Generated_Source\PSoC6\pdl\cmsis/include/core_cm0plus.h **** #ifdef __cplusplus
  37:Generated_Source\PSoC6\pdl\cmsis/include/core_cm0plus.h ****  extern "C" {
  38:Generated_Source\PSoC6\pdl\cmsis/include/core_cm0plus.h **** #endif
  39:Generated_Source\PSoC6\pdl\cmsis/include/core_cm0plus.h **** 
  40:Generated_Source\PSoC6\pdl\cmsis/include/core_cm0plus.h **** /**
  41:Generated_Source\PSoC6\pdl\cmsis/include/core_cm0plus.h ****   \page CMSIS_MISRA_Exceptions  MISRA-C:2004 Compliance Exceptions
  42:Generated_Source\PSoC6\pdl\cmsis/include/core_cm0plus.h ****   CMSIS violates the following MISRA-C:2004 rules:
  43:Generated_Source\PSoC6\pdl\cmsis/include/core_cm0plus.h **** 
  44:Generated_Source\PSoC6\pdl\cmsis/include/core_cm0plus.h ****    \li Required Rule 8.5, object/function definition in header file.<br>
  45:Generated_Source\PSoC6\pdl\cmsis/include/core_cm0plus.h ****      Function definitions in header files are used to allow 'inlining'.
  46:Generated_Source\PSoC6\pdl\cmsis/include/core_cm0plus.h **** 
  47:Generated_Source\PSoC6\pdl\cmsis/include/core_cm0plus.h ****    \li Required Rule 18.4, declaration of union type or object of union type: '{...}'.<br>
  48:Generated_Source\PSoC6\pdl\cmsis/include/core_cm0plus.h ****      Unions are used for effective representation of core registers.
  49:Generated_Source\PSoC6\pdl\cmsis/include/core_cm0plus.h **** 
  50:Generated_Source\PSoC6\pdl\cmsis/include/core_cm0plus.h ****    \li Advisory Rule 19.7, Function-like macro defined.<br>
  51:Generated_Source\PSoC6\pdl\cmsis/include/core_cm0plus.h ****      Function-like macros are used to allow more efficient code.
  52:Generated_Source\PSoC6\pdl\cmsis/include/core_cm0plus.h ****  */
  53:Generated_Source\PSoC6\pdl\cmsis/include/core_cm0plus.h **** 
  54:Generated_Source\PSoC6\pdl\cmsis/include/core_cm0plus.h **** 
  55:Generated_Source\PSoC6\pdl\cmsis/include/core_cm0plus.h **** /*******************************************************************************
  56:Generated_Source\PSoC6\pdl\cmsis/include/core_cm0plus.h ****  *                 CMSIS definitions
  57:Generated_Source\PSoC6\pdl\cmsis/include/core_cm0plus.h ****  ******************************************************************************/
  58:Generated_Source\PSoC6\pdl\cmsis/include/core_cm0plus.h **** /**
  59:Generated_Source\PSoC6\pdl\cmsis/include/core_cm0plus.h ****   \ingroup Cortex-M0+
  60:Generated_Source\PSoC6\pdl\cmsis/include/core_cm0plus.h ****   @{
  61:Generated_Source\PSoC6\pdl\cmsis/include/core_cm0plus.h ****  */
  62:Generated_Source\PSoC6\pdl\cmsis/include/core_cm0plus.h **** 
  63:Generated_Source\PSoC6\pdl\cmsis/include/core_cm0plus.h **** #include "cmsis_version.h"
  64:Generated_Source\PSoC6\pdl\cmsis/include/core_cm0plus.h ****  
  65:Generated_Source\PSoC6\pdl\cmsis/include/core_cm0plus.h **** /*  CMSIS CM0+ definitions */
  66:Generated_Source\PSoC6\pdl\cmsis/include/core_cm0plus.h **** #define __CM0PLUS_CMSIS_VERSION_MAIN (__CM_CMSIS_VERSION_MAIN)                  /*!< \deprecated [3
  67:Generated_Source\PSoC6\pdl\cmsis/include/core_cm0plus.h **** #define __CM0PLUS_CMSIS_VERSION_SUB  (__CM_CMSIS_VERSION_SUB)                   /*!< \deprecated [1
  68:Generated_Source\PSoC6\pdl\cmsis/include/core_cm0plus.h **** #define __CM0PLUS_CMSIS_VERSION      ((__CM0PLUS_CMSIS_VERSION_MAIN << 16U) | \
  69:Generated_Source\PSoC6\pdl\cmsis/include/core_cm0plus.h ****                                        __CM0PLUS_CMSIS_VERSION_SUB           )  /*!< \deprecated CM
  70:Generated_Source\PSoC6\pdl\cmsis/include/core_cm0plus.h **** 
  71:Generated_Source\PSoC6\pdl\cmsis/include/core_cm0plus.h **** #define __CORTEX_M                   (0U)                                       /*!< Cortex-M Core 
  72:Generated_Source\PSoC6\pdl\cmsis/include/core_cm0plus.h **** 
  73:Generated_Source\PSoC6\pdl\cmsis/include/core_cm0plus.h **** /** __FPU_USED indicates whether an FPU is used or not.
  74:Generated_Source\PSoC6\pdl\cmsis/include/core_cm0plus.h ****     This core does not support an FPU at all
  75:Generated_Source\PSoC6\pdl\cmsis/include/core_cm0plus.h **** */
  76:Generated_Source\PSoC6\pdl\cmsis/include/core_cm0plus.h **** #define __FPU_USED       0U
  77:Generated_Source\PSoC6\pdl\cmsis/include/core_cm0plus.h **** 
  78:Generated_Source\PSoC6\pdl\cmsis/include/core_cm0plus.h **** #if defined ( __CC_ARM )
  79:Generated_Source\PSoC6\pdl\cmsis/include/core_cm0plus.h ****   #if defined __TARGET_FPU_VFP
  80:Generated_Source\PSoC6\pdl\cmsis/include/core_cm0plus.h ****     #error "Compiler generates FPU instructions for a device without an FPU (check __FPU_PRESENT)"
  81:Generated_Source\PSoC6\pdl\cmsis/include/core_cm0plus.h ****   #endif
  82:Generated_Source\PSoC6\pdl\cmsis/include/core_cm0plus.h **** 
  83:Generated_Source\PSoC6\pdl\cmsis/include/core_cm0plus.h **** #elif defined (__ARMCC_VERSION) && (__ARMCC_VERSION >= 6010050)
  84:Generated_Source\PSoC6\pdl\cmsis/include/core_cm0plus.h ****   #if defined __ARM_PCS_VFP
  85:Generated_Source\PSoC6\pdl\cmsis/include/core_cm0plus.h ****     #error "Compiler generates FPU instructions for a device without an FPU (check __FPU_PRESENT)"
  86:Generated_Source\PSoC6\pdl\cmsis/include/core_cm0plus.h ****   #endif
  87:Generated_Source\PSoC6\pdl\cmsis/include/core_cm0plus.h **** 
  88:Generated_Source\PSoC6\pdl\cmsis/include/core_cm0plus.h **** #elif defined ( __GNUC__ )
  89:Generated_Source\PSoC6\pdl\cmsis/include/core_cm0plus.h ****   #if defined (__VFP_FP__) && !defined(__SOFTFP__)
  90:Generated_Source\PSoC6\pdl\cmsis/include/core_cm0plus.h ****     #error "Compiler generates FPU instructions for a device without an FPU (check __FPU_PRESENT)"
ARM GAS  C:\Users\Rolf\AppData\Local\Temp\ccUtnhQP.s 			page 22


  91:Generated_Source\PSoC6\pdl\cmsis/include/core_cm0plus.h ****   #endif
  92:Generated_Source\PSoC6\pdl\cmsis/include/core_cm0plus.h **** 
  93:Generated_Source\PSoC6\pdl\cmsis/include/core_cm0plus.h **** #elif defined ( __ICCARM__ )
  94:Generated_Source\PSoC6\pdl\cmsis/include/core_cm0plus.h ****   #if defined __ARMVFP__
  95:Generated_Source\PSoC6\pdl\cmsis/include/core_cm0plus.h ****     #error "Compiler generates FPU instructions for a device without an FPU (check __FPU_PRESENT)"
  96:Generated_Source\PSoC6\pdl\cmsis/include/core_cm0plus.h ****   #endif
  97:Generated_Source\PSoC6\pdl\cmsis/include/core_cm0plus.h **** 
  98:Generated_Source\PSoC6\pdl\cmsis/include/core_cm0plus.h **** #elif defined ( __TI_ARM__ )
  99:Generated_Source\PSoC6\pdl\cmsis/include/core_cm0plus.h ****   #if defined __TI_VFP_SUPPORT__
 100:Generated_Source\PSoC6\pdl\cmsis/include/core_cm0plus.h ****     #error "Compiler generates FPU instructions for a device without an FPU (check __FPU_PRESENT)"
 101:Generated_Source\PSoC6\pdl\cmsis/include/core_cm0plus.h ****   #endif
 102:Generated_Source\PSoC6\pdl\cmsis/include/core_cm0plus.h **** 
 103:Generated_Source\PSoC6\pdl\cmsis/include/core_cm0plus.h **** #elif defined ( __TASKING__ )
 104:Generated_Source\PSoC6\pdl\cmsis/include/core_cm0plus.h ****   #if defined __FPU_VFP__
 105:Generated_Source\PSoC6\pdl\cmsis/include/core_cm0plus.h ****     #error "Compiler generates FPU instructions for a device without an FPU (check __FPU_PRESENT)"
 106:Generated_Source\PSoC6\pdl\cmsis/include/core_cm0plus.h ****   #endif
 107:Generated_Source\PSoC6\pdl\cmsis/include/core_cm0plus.h **** 
 108:Generated_Source\PSoC6\pdl\cmsis/include/core_cm0plus.h **** #elif defined ( __CSMC__ )
 109:Generated_Source\PSoC6\pdl\cmsis/include/core_cm0plus.h ****   #if ( __CSMC__ & 0x400U)
 110:Generated_Source\PSoC6\pdl\cmsis/include/core_cm0plus.h ****     #error "Compiler generates FPU instructions for a device without an FPU (check __FPU_PRESENT)"
 111:Generated_Source\PSoC6\pdl\cmsis/include/core_cm0plus.h ****   #endif
 112:Generated_Source\PSoC6\pdl\cmsis/include/core_cm0plus.h **** 
 113:Generated_Source\PSoC6\pdl\cmsis/include/core_cm0plus.h **** #endif
 114:Generated_Source\PSoC6\pdl\cmsis/include/core_cm0plus.h **** 
 115:Generated_Source\PSoC6\pdl\cmsis/include/core_cm0plus.h **** #include "cmsis_compiler.h"               /* CMSIS compiler specific defines */
 116:Generated_Source\PSoC6\pdl\cmsis/include/core_cm0plus.h **** 
 117:Generated_Source\PSoC6\pdl\cmsis/include/core_cm0plus.h **** 
 118:Generated_Source\PSoC6\pdl\cmsis/include/core_cm0plus.h **** #ifdef __cplusplus
 119:Generated_Source\PSoC6\pdl\cmsis/include/core_cm0plus.h **** }
 120:Generated_Source\PSoC6\pdl\cmsis/include/core_cm0plus.h **** #endif
 121:Generated_Source\PSoC6\pdl\cmsis/include/core_cm0plus.h **** 
 122:Generated_Source\PSoC6\pdl\cmsis/include/core_cm0plus.h **** #endif /* __CORE_CM0PLUS_H_GENERIC */
 123:Generated_Source\PSoC6\pdl\cmsis/include/core_cm0plus.h **** 
 124:Generated_Source\PSoC6\pdl\cmsis/include/core_cm0plus.h **** #ifndef __CMSIS_GENERIC
 125:Generated_Source\PSoC6\pdl\cmsis/include/core_cm0plus.h **** 
 126:Generated_Source\PSoC6\pdl\cmsis/include/core_cm0plus.h **** #ifndef __CORE_CM0PLUS_H_DEPENDANT
 127:Generated_Source\PSoC6\pdl\cmsis/include/core_cm0plus.h **** #define __CORE_CM0PLUS_H_DEPENDANT
 128:Generated_Source\PSoC6\pdl\cmsis/include/core_cm0plus.h **** 
 129:Generated_Source\PSoC6\pdl\cmsis/include/core_cm0plus.h **** #ifdef __cplusplus
 130:Generated_Source\PSoC6\pdl\cmsis/include/core_cm0plus.h ****  extern "C" {
 131:Generated_Source\PSoC6\pdl\cmsis/include/core_cm0plus.h **** #endif
 132:Generated_Source\PSoC6\pdl\cmsis/include/core_cm0plus.h **** 
 133:Generated_Source\PSoC6\pdl\cmsis/include/core_cm0plus.h **** /* check device defines and use defaults */
 134:Generated_Source\PSoC6\pdl\cmsis/include/core_cm0plus.h **** #if defined __CHECK_DEVICE_DEFINES
 135:Generated_Source\PSoC6\pdl\cmsis/include/core_cm0plus.h ****   #ifndef __CM0PLUS_REV
 136:Generated_Source\PSoC6\pdl\cmsis/include/core_cm0plus.h ****     #define __CM0PLUS_REV             0x0000U
 137:Generated_Source\PSoC6\pdl\cmsis/include/core_cm0plus.h ****     #warning "__CM0PLUS_REV not defined in device header file; using default!"
 138:Generated_Source\PSoC6\pdl\cmsis/include/core_cm0plus.h ****   #endif
 139:Generated_Source\PSoC6\pdl\cmsis/include/core_cm0plus.h **** 
 140:Generated_Source\PSoC6\pdl\cmsis/include/core_cm0plus.h ****   #ifndef __MPU_PRESENT
 141:Generated_Source\PSoC6\pdl\cmsis/include/core_cm0plus.h ****     #define __MPU_PRESENT             0U
 142:Generated_Source\PSoC6\pdl\cmsis/include/core_cm0plus.h ****     #warning "__MPU_PRESENT not defined in device header file; using default!"
 143:Generated_Source\PSoC6\pdl\cmsis/include/core_cm0plus.h ****   #endif
 144:Generated_Source\PSoC6\pdl\cmsis/include/core_cm0plus.h **** 
 145:Generated_Source\PSoC6\pdl\cmsis/include/core_cm0plus.h ****   #ifndef __VTOR_PRESENT
 146:Generated_Source\PSoC6\pdl\cmsis/include/core_cm0plus.h ****     #define __VTOR_PRESENT            0U
 147:Generated_Source\PSoC6\pdl\cmsis/include/core_cm0plus.h ****     #warning "__VTOR_PRESENT not defined in device header file; using default!"
ARM GAS  C:\Users\Rolf\AppData\Local\Temp\ccUtnhQP.s 			page 23


 148:Generated_Source\PSoC6\pdl\cmsis/include/core_cm0plus.h ****   #endif
 149:Generated_Source\PSoC6\pdl\cmsis/include/core_cm0plus.h **** 
 150:Generated_Source\PSoC6\pdl\cmsis/include/core_cm0plus.h ****   #ifndef __NVIC_PRIO_BITS
 151:Generated_Source\PSoC6\pdl\cmsis/include/core_cm0plus.h ****     #define __NVIC_PRIO_BITS          2U
 152:Generated_Source\PSoC6\pdl\cmsis/include/core_cm0plus.h ****     #warning "__NVIC_PRIO_BITS not defined in device header file; using default!"
 153:Generated_Source\PSoC6\pdl\cmsis/include/core_cm0plus.h ****   #endif
 154:Generated_Source\PSoC6\pdl\cmsis/include/core_cm0plus.h **** 
 155:Generated_Source\PSoC6\pdl\cmsis/include/core_cm0plus.h ****   #ifndef __Vendor_SysTickConfig
 156:Generated_Source\PSoC6\pdl\cmsis/include/core_cm0plus.h ****     #define __Vendor_SysTickConfig    0U
 157:Generated_Source\PSoC6\pdl\cmsis/include/core_cm0plus.h ****     #warning "__Vendor_SysTickConfig not defined in device header file; using default!"
 158:Generated_Source\PSoC6\pdl\cmsis/include/core_cm0plus.h ****   #endif
 159:Generated_Source\PSoC6\pdl\cmsis/include/core_cm0plus.h **** #endif
 160:Generated_Source\PSoC6\pdl\cmsis/include/core_cm0plus.h **** 
 161:Generated_Source\PSoC6\pdl\cmsis/include/core_cm0plus.h **** /* IO definitions (access restrictions to peripheral registers) */
 162:Generated_Source\PSoC6\pdl\cmsis/include/core_cm0plus.h **** /**
 163:Generated_Source\PSoC6\pdl\cmsis/include/core_cm0plus.h ****     \defgroup CMSIS_glob_defs CMSIS Global Defines
 164:Generated_Source\PSoC6\pdl\cmsis/include/core_cm0plus.h **** 
 165:Generated_Source\PSoC6\pdl\cmsis/include/core_cm0plus.h ****     <strong>IO Type Qualifiers</strong> are used
 166:Generated_Source\PSoC6\pdl\cmsis/include/core_cm0plus.h ****     \li to specify the access to peripheral variables.
 167:Generated_Source\PSoC6\pdl\cmsis/include/core_cm0plus.h ****     \li for automatic generation of peripheral register debug information.
 168:Generated_Source\PSoC6\pdl\cmsis/include/core_cm0plus.h **** */
 169:Generated_Source\PSoC6\pdl\cmsis/include/core_cm0plus.h **** #ifdef __cplusplus
 170:Generated_Source\PSoC6\pdl\cmsis/include/core_cm0plus.h ****   #define   __I     volatile             /*!< Defines 'read only' permissions */
 171:Generated_Source\PSoC6\pdl\cmsis/include/core_cm0plus.h **** #else
 172:Generated_Source\PSoC6\pdl\cmsis/include/core_cm0plus.h ****   #define   __I     volatile const       /*!< Defines 'read only' permissions */
 173:Generated_Source\PSoC6\pdl\cmsis/include/core_cm0plus.h **** #endif
 174:Generated_Source\PSoC6\pdl\cmsis/include/core_cm0plus.h **** #define     __O     volatile             /*!< Defines 'write only' permissions */
 175:Generated_Source\PSoC6\pdl\cmsis/include/core_cm0plus.h **** #define     __IO    volatile             /*!< Defines 'read / write' permissions */
 176:Generated_Source\PSoC6\pdl\cmsis/include/core_cm0plus.h **** 
 177:Generated_Source\PSoC6\pdl\cmsis/include/core_cm0plus.h **** /* following defines should be used for structure members */
 178:Generated_Source\PSoC6\pdl\cmsis/include/core_cm0plus.h **** #define     __IM     volatile const      /*! Defines 'read only' structure member permissions */
 179:Generated_Source\PSoC6\pdl\cmsis/include/core_cm0plus.h **** #define     __OM     volatile            /*! Defines 'write only' structure member permissions */
 180:Generated_Source\PSoC6\pdl\cmsis/include/core_cm0plus.h **** #define     __IOM    volatile            /*! Defines 'read / write' structure member permissions */
 181:Generated_Source\PSoC6\pdl\cmsis/include/core_cm0plus.h **** 
 182:Generated_Source\PSoC6\pdl\cmsis/include/core_cm0plus.h **** /*@} end of group Cortex-M0+ */
 183:Generated_Source\PSoC6\pdl\cmsis/include/core_cm0plus.h **** 
 184:Generated_Source\PSoC6\pdl\cmsis/include/core_cm0plus.h **** 
 185:Generated_Source\PSoC6\pdl\cmsis/include/core_cm0plus.h **** 
 186:Generated_Source\PSoC6\pdl\cmsis/include/core_cm0plus.h **** /*******************************************************************************
 187:Generated_Source\PSoC6\pdl\cmsis/include/core_cm0plus.h ****  *                 Register Abstraction
 188:Generated_Source\PSoC6\pdl\cmsis/include/core_cm0plus.h ****   Core Register contain:
 189:Generated_Source\PSoC6\pdl\cmsis/include/core_cm0plus.h ****   - Core Register
 190:Generated_Source\PSoC6\pdl\cmsis/include/core_cm0plus.h ****   - Core NVIC Register
 191:Generated_Source\PSoC6\pdl\cmsis/include/core_cm0plus.h ****   - Core SCB Register
 192:Generated_Source\PSoC6\pdl\cmsis/include/core_cm0plus.h ****   - Core SysTick Register
 193:Generated_Source\PSoC6\pdl\cmsis/include/core_cm0plus.h ****   - Core MPU Register
 194:Generated_Source\PSoC6\pdl\cmsis/include/core_cm0plus.h ****  ******************************************************************************/
 195:Generated_Source\PSoC6\pdl\cmsis/include/core_cm0plus.h **** /**
 196:Generated_Source\PSoC6\pdl\cmsis/include/core_cm0plus.h ****   \defgroup CMSIS_core_register Defines and Type Definitions
 197:Generated_Source\PSoC6\pdl\cmsis/include/core_cm0plus.h ****   \brief Type definitions and defines for Cortex-M processor based devices.
 198:Generated_Source\PSoC6\pdl\cmsis/include/core_cm0plus.h **** */
 199:Generated_Source\PSoC6\pdl\cmsis/include/core_cm0plus.h **** 
 200:Generated_Source\PSoC6\pdl\cmsis/include/core_cm0plus.h **** /**
 201:Generated_Source\PSoC6\pdl\cmsis/include/core_cm0plus.h ****   \ingroup    CMSIS_core_register
 202:Generated_Source\PSoC6\pdl\cmsis/include/core_cm0plus.h ****   \defgroup   CMSIS_CORE  Status and Control Registers
 203:Generated_Source\PSoC6\pdl\cmsis/include/core_cm0plus.h ****   \brief      Core Register type definitions.
 204:Generated_Source\PSoC6\pdl\cmsis/include/core_cm0plus.h ****   @{
ARM GAS  C:\Users\Rolf\AppData\Local\Temp\ccUtnhQP.s 			page 24


 205:Generated_Source\PSoC6\pdl\cmsis/include/core_cm0plus.h ****  */
 206:Generated_Source\PSoC6\pdl\cmsis/include/core_cm0plus.h **** 
 207:Generated_Source\PSoC6\pdl\cmsis/include/core_cm0plus.h **** /**
 208:Generated_Source\PSoC6\pdl\cmsis/include/core_cm0plus.h ****   \brief  Union type to access the Application Program Status Register (APSR).
 209:Generated_Source\PSoC6\pdl\cmsis/include/core_cm0plus.h ****  */
 210:Generated_Source\PSoC6\pdl\cmsis/include/core_cm0plus.h **** typedef union
 211:Generated_Source\PSoC6\pdl\cmsis/include/core_cm0plus.h **** {
 212:Generated_Source\PSoC6\pdl\cmsis/include/core_cm0plus.h ****   struct
 213:Generated_Source\PSoC6\pdl\cmsis/include/core_cm0plus.h ****   {
 214:Generated_Source\PSoC6\pdl\cmsis/include/core_cm0plus.h ****     uint32_t _reserved0:28;              /*!< bit:  0..27  Reserved */
 215:Generated_Source\PSoC6\pdl\cmsis/include/core_cm0plus.h ****     uint32_t V:1;                        /*!< bit:     28  Overflow condition code flag */
 216:Generated_Source\PSoC6\pdl\cmsis/include/core_cm0plus.h ****     uint32_t C:1;                        /*!< bit:     29  Carry condition code flag */
 217:Generated_Source\PSoC6\pdl\cmsis/include/core_cm0plus.h ****     uint32_t Z:1;                        /*!< bit:     30  Zero condition code flag */
 218:Generated_Source\PSoC6\pdl\cmsis/include/core_cm0plus.h ****     uint32_t N:1;                        /*!< bit:     31  Negative condition code flag */
 219:Generated_Source\PSoC6\pdl\cmsis/include/core_cm0plus.h ****   } b;                                   /*!< Structure used for bit  access */
 220:Generated_Source\PSoC6\pdl\cmsis/include/core_cm0plus.h ****   uint32_t w;                            /*!< Type      used for word access */
 221:Generated_Source\PSoC6\pdl\cmsis/include/core_cm0plus.h **** } APSR_Type;
 222:Generated_Source\PSoC6\pdl\cmsis/include/core_cm0plus.h **** 
 223:Generated_Source\PSoC6\pdl\cmsis/include/core_cm0plus.h **** /* APSR Register Definitions */
 224:Generated_Source\PSoC6\pdl\cmsis/include/core_cm0plus.h **** #define APSR_N_Pos                         31U                                            /*!< APSR
 225:Generated_Source\PSoC6\pdl\cmsis/include/core_cm0plus.h **** #define APSR_N_Msk                         (1UL << APSR_N_Pos)                            /*!< APSR
 226:Generated_Source\PSoC6\pdl\cmsis/include/core_cm0plus.h **** 
 227:Generated_Source\PSoC6\pdl\cmsis/include/core_cm0plus.h **** #define APSR_Z_Pos                         30U                                            /*!< APSR
 228:Generated_Source\PSoC6\pdl\cmsis/include/core_cm0plus.h **** #define APSR_Z_Msk                         (1UL << APSR_Z_Pos)                            /*!< APSR
 229:Generated_Source\PSoC6\pdl\cmsis/include/core_cm0plus.h **** 
 230:Generated_Source\PSoC6\pdl\cmsis/include/core_cm0plus.h **** #define APSR_C_Pos                         29U                                            /*!< APSR
 231:Generated_Source\PSoC6\pdl\cmsis/include/core_cm0plus.h **** #define APSR_C_Msk                         (1UL << APSR_C_Pos)                            /*!< APSR
 232:Generated_Source\PSoC6\pdl\cmsis/include/core_cm0plus.h **** 
 233:Generated_Source\PSoC6\pdl\cmsis/include/core_cm0plus.h **** #define APSR_V_Pos                         28U                                            /*!< APSR
 234:Generated_Source\PSoC6\pdl\cmsis/include/core_cm0plus.h **** #define APSR_V_Msk                         (1UL << APSR_V_Pos)                            /*!< APSR
 235:Generated_Source\PSoC6\pdl\cmsis/include/core_cm0plus.h **** 
 236:Generated_Source\PSoC6\pdl\cmsis/include/core_cm0plus.h **** 
 237:Generated_Source\PSoC6\pdl\cmsis/include/core_cm0plus.h **** /**
 238:Generated_Source\PSoC6\pdl\cmsis/include/core_cm0plus.h ****   \brief  Union type to access the Interrupt Program Status Register (IPSR).
 239:Generated_Source\PSoC6\pdl\cmsis/include/core_cm0plus.h ****  */
 240:Generated_Source\PSoC6\pdl\cmsis/include/core_cm0plus.h **** typedef union
 241:Generated_Source\PSoC6\pdl\cmsis/include/core_cm0plus.h **** {
 242:Generated_Source\PSoC6\pdl\cmsis/include/core_cm0plus.h ****   struct
 243:Generated_Source\PSoC6\pdl\cmsis/include/core_cm0plus.h ****   {
 244:Generated_Source\PSoC6\pdl\cmsis/include/core_cm0plus.h ****     uint32_t ISR:9;                      /*!< bit:  0.. 8  Exception number */
 245:Generated_Source\PSoC6\pdl\cmsis/include/core_cm0plus.h ****     uint32_t _reserved0:23;              /*!< bit:  9..31  Reserved */
 246:Generated_Source\PSoC6\pdl\cmsis/include/core_cm0plus.h ****   } b;                                   /*!< Structure used for bit  access */
 247:Generated_Source\PSoC6\pdl\cmsis/include/core_cm0plus.h ****   uint32_t w;                            /*!< Type      used for word access */
 248:Generated_Source\PSoC6\pdl\cmsis/include/core_cm0plus.h **** } IPSR_Type;
 249:Generated_Source\PSoC6\pdl\cmsis/include/core_cm0plus.h **** 
 250:Generated_Source\PSoC6\pdl\cmsis/include/core_cm0plus.h **** /* IPSR Register Definitions */
 251:Generated_Source\PSoC6\pdl\cmsis/include/core_cm0plus.h **** #define IPSR_ISR_Pos                        0U                                            /*!< IPSR
 252:Generated_Source\PSoC6\pdl\cmsis/include/core_cm0plus.h **** #define IPSR_ISR_Msk                       (0x1FFUL /*<< IPSR_ISR_Pos*/)                  /*!< IPSR
 253:Generated_Source\PSoC6\pdl\cmsis/include/core_cm0plus.h **** 
 254:Generated_Source\PSoC6\pdl\cmsis/include/core_cm0plus.h **** 
 255:Generated_Source\PSoC6\pdl\cmsis/include/core_cm0plus.h **** /**
 256:Generated_Source\PSoC6\pdl\cmsis/include/core_cm0plus.h ****   \brief  Union type to access the Special-Purpose Program Status Registers (xPSR).
 257:Generated_Source\PSoC6\pdl\cmsis/include/core_cm0plus.h ****  */
 258:Generated_Source\PSoC6\pdl\cmsis/include/core_cm0plus.h **** typedef union
 259:Generated_Source\PSoC6\pdl\cmsis/include/core_cm0plus.h **** {
 260:Generated_Source\PSoC6\pdl\cmsis/include/core_cm0plus.h ****   struct
 261:Generated_Source\PSoC6\pdl\cmsis/include/core_cm0plus.h ****   {
ARM GAS  C:\Users\Rolf\AppData\Local\Temp\ccUtnhQP.s 			page 25


 262:Generated_Source\PSoC6\pdl\cmsis/include/core_cm0plus.h ****     uint32_t ISR:9;                      /*!< bit:  0.. 8  Exception number */
 263:Generated_Source\PSoC6\pdl\cmsis/include/core_cm0plus.h ****     uint32_t _reserved0:15;              /*!< bit:  9..23  Reserved */
 264:Generated_Source\PSoC6\pdl\cmsis/include/core_cm0plus.h ****     uint32_t T:1;                        /*!< bit:     24  Thumb bit        (read 0) */
 265:Generated_Source\PSoC6\pdl\cmsis/include/core_cm0plus.h ****     uint32_t _reserved1:3;               /*!< bit: 25..27  Reserved */
 266:Generated_Source\PSoC6\pdl\cmsis/include/core_cm0plus.h ****     uint32_t V:1;                        /*!< bit:     28  Overflow condition code flag */
 267:Generated_Source\PSoC6\pdl\cmsis/include/core_cm0plus.h ****     uint32_t C:1;                        /*!< bit:     29  Carry condition code flag */
 268:Generated_Source\PSoC6\pdl\cmsis/include/core_cm0plus.h ****     uint32_t Z:1;                        /*!< bit:     30  Zero condition code flag */
 269:Generated_Source\PSoC6\pdl\cmsis/include/core_cm0plus.h ****     uint32_t N:1;                        /*!< bit:     31  Negative condition code flag */
 270:Generated_Source\PSoC6\pdl\cmsis/include/core_cm0plus.h ****   } b;                                   /*!< Structure used for bit  access */
 271:Generated_Source\PSoC6\pdl\cmsis/include/core_cm0plus.h ****   uint32_t w;                            /*!< Type      used for word access */
 272:Generated_Source\PSoC6\pdl\cmsis/include/core_cm0plus.h **** } xPSR_Type;
 273:Generated_Source\PSoC6\pdl\cmsis/include/core_cm0plus.h **** 
 274:Generated_Source\PSoC6\pdl\cmsis/include/core_cm0plus.h **** /* xPSR Register Definitions */
 275:Generated_Source\PSoC6\pdl\cmsis/include/core_cm0plus.h **** #define xPSR_N_Pos                         31U                                            /*!< xPSR
 276:Generated_Source\PSoC6\pdl\cmsis/include/core_cm0plus.h **** #define xPSR_N_Msk                         (1UL << xPSR_N_Pos)                            /*!< xPSR
 277:Generated_Source\PSoC6\pdl\cmsis/include/core_cm0plus.h **** 
 278:Generated_Source\PSoC6\pdl\cmsis/include/core_cm0plus.h **** #define xPSR_Z_Pos                         30U                                            /*!< xPSR
 279:Generated_Source\PSoC6\pdl\cmsis/include/core_cm0plus.h **** #define xPSR_Z_Msk                         (1UL << xPSR_Z_Pos)                            /*!< xPSR
 280:Generated_Source\PSoC6\pdl\cmsis/include/core_cm0plus.h **** 
 281:Generated_Source\PSoC6\pdl\cmsis/include/core_cm0plus.h **** #define xPSR_C_Pos                         29U                                            /*!< xPSR
 282:Generated_Source\PSoC6\pdl\cmsis/include/core_cm0plus.h **** #define xPSR_C_Msk                         (1UL << xPSR_C_Pos)                            /*!< xPSR
 283:Generated_Source\PSoC6\pdl\cmsis/include/core_cm0plus.h **** 
 284:Generated_Source\PSoC6\pdl\cmsis/include/core_cm0plus.h **** #define xPSR_V_Pos                         28U                                            /*!< xPSR
 285:Generated_Source\PSoC6\pdl\cmsis/include/core_cm0plus.h **** #define xPSR_V_Msk                         (1UL << xPSR_V_Pos)                            /*!< xPSR
 286:Generated_Source\PSoC6\pdl\cmsis/include/core_cm0plus.h **** 
 287:Generated_Source\PSoC6\pdl\cmsis/include/core_cm0plus.h **** #define xPSR_T_Pos                         24U                                            /*!< xPSR
 288:Generated_Source\PSoC6\pdl\cmsis/include/core_cm0plus.h **** #define xPSR_T_Msk                         (1UL << xPSR_T_Pos)                            /*!< xPSR
 289:Generated_Source\PSoC6\pdl\cmsis/include/core_cm0plus.h **** 
 290:Generated_Source\PSoC6\pdl\cmsis/include/core_cm0plus.h **** #define xPSR_ISR_Pos                        0U                                            /*!< xPSR
 291:Generated_Source\PSoC6\pdl\cmsis/include/core_cm0plus.h **** #define xPSR_ISR_Msk                       (0x1FFUL /*<< xPSR_ISR_Pos*/)                  /*!< xPSR
 292:Generated_Source\PSoC6\pdl\cmsis/include/core_cm0plus.h **** 
 293:Generated_Source\PSoC6\pdl\cmsis/include/core_cm0plus.h **** 
 294:Generated_Source\PSoC6\pdl\cmsis/include/core_cm0plus.h **** /**
 295:Generated_Source\PSoC6\pdl\cmsis/include/core_cm0plus.h ****   \brief  Union type to access the Control Registers (CONTROL).
 296:Generated_Source\PSoC6\pdl\cmsis/include/core_cm0plus.h ****  */
 297:Generated_Source\PSoC6\pdl\cmsis/include/core_cm0plus.h **** typedef union
 298:Generated_Source\PSoC6\pdl\cmsis/include/core_cm0plus.h **** {
 299:Generated_Source\PSoC6\pdl\cmsis/include/core_cm0plus.h ****   struct
 300:Generated_Source\PSoC6\pdl\cmsis/include/core_cm0plus.h ****   {
 301:Generated_Source\PSoC6\pdl\cmsis/include/core_cm0plus.h ****     uint32_t nPRIV:1;                    /*!< bit:      0  Execution privilege in Thread mode */
 302:Generated_Source\PSoC6\pdl\cmsis/include/core_cm0plus.h ****     uint32_t SPSEL:1;                    /*!< bit:      1  Stack to be used */
 303:Generated_Source\PSoC6\pdl\cmsis/include/core_cm0plus.h ****     uint32_t _reserved1:30;              /*!< bit:  2..31  Reserved */
 304:Generated_Source\PSoC6\pdl\cmsis/include/core_cm0plus.h ****   } b;                                   /*!< Structure used for bit  access */
 305:Generated_Source\PSoC6\pdl\cmsis/include/core_cm0plus.h ****   uint32_t w;                            /*!< Type      used for word access */
 306:Generated_Source\PSoC6\pdl\cmsis/include/core_cm0plus.h **** } CONTROL_Type;
 307:Generated_Source\PSoC6\pdl\cmsis/include/core_cm0plus.h **** 
 308:Generated_Source\PSoC6\pdl\cmsis/include/core_cm0plus.h **** /* CONTROL Register Definitions */
 309:Generated_Source\PSoC6\pdl\cmsis/include/core_cm0plus.h **** #define CONTROL_SPSEL_Pos                   1U                                            /*!< CONT
 310:Generated_Source\PSoC6\pdl\cmsis/include/core_cm0plus.h **** #define CONTROL_SPSEL_Msk                  (1UL << CONTROL_SPSEL_Pos)                     /*!< CONT
 311:Generated_Source\PSoC6\pdl\cmsis/include/core_cm0plus.h **** 
 312:Generated_Source\PSoC6\pdl\cmsis/include/core_cm0plus.h **** #define CONTROL_nPRIV_Pos                   0U                                            /*!< CONT
 313:Generated_Source\PSoC6\pdl\cmsis/include/core_cm0plus.h **** #define CONTROL_nPRIV_Msk                  (1UL /*<< CONTROL_nPRIV_Pos*/)                 /*!< CONT
 314:Generated_Source\PSoC6\pdl\cmsis/include/core_cm0plus.h **** 
 315:Generated_Source\PSoC6\pdl\cmsis/include/core_cm0plus.h **** /*@} end of group CMSIS_CORE */
 316:Generated_Source\PSoC6\pdl\cmsis/include/core_cm0plus.h **** 
 317:Generated_Source\PSoC6\pdl\cmsis/include/core_cm0plus.h **** 
 318:Generated_Source\PSoC6\pdl\cmsis/include/core_cm0plus.h **** /**
ARM GAS  C:\Users\Rolf\AppData\Local\Temp\ccUtnhQP.s 			page 26


 319:Generated_Source\PSoC6\pdl\cmsis/include/core_cm0plus.h ****   \ingroup    CMSIS_core_register
 320:Generated_Source\PSoC6\pdl\cmsis/include/core_cm0plus.h ****   \defgroup   CMSIS_NVIC  Nested Vectored Interrupt Controller (NVIC)
 321:Generated_Source\PSoC6\pdl\cmsis/include/core_cm0plus.h ****   \brief      Type definitions for the NVIC Registers
 322:Generated_Source\PSoC6\pdl\cmsis/include/core_cm0plus.h ****   @{
 323:Generated_Source\PSoC6\pdl\cmsis/include/core_cm0plus.h ****  */
 324:Generated_Source\PSoC6\pdl\cmsis/include/core_cm0plus.h **** 
 325:Generated_Source\PSoC6\pdl\cmsis/include/core_cm0plus.h **** /**
 326:Generated_Source\PSoC6\pdl\cmsis/include/core_cm0plus.h ****   \brief  Structure type to access the Nested Vectored Interrupt Controller (NVIC).
 327:Generated_Source\PSoC6\pdl\cmsis/include/core_cm0plus.h ****  */
 328:Generated_Source\PSoC6\pdl\cmsis/include/core_cm0plus.h **** typedef struct
 329:Generated_Source\PSoC6\pdl\cmsis/include/core_cm0plus.h **** {
 330:Generated_Source\PSoC6\pdl\cmsis/include/core_cm0plus.h ****   __IOM uint32_t ISER[1U];               /*!< Offset: 0x000 (R/W)  Interrupt Set Enable Register */
 331:Generated_Source\PSoC6\pdl\cmsis/include/core_cm0plus.h ****         uint32_t RESERVED0[31U];
 332:Generated_Source\PSoC6\pdl\cmsis/include/core_cm0plus.h ****   __IOM uint32_t ICER[1U];               /*!< Offset: 0x080 (R/W)  Interrupt Clear Enable Register 
 333:Generated_Source\PSoC6\pdl\cmsis/include/core_cm0plus.h ****         uint32_t RSERVED1[31U];
 334:Generated_Source\PSoC6\pdl\cmsis/include/core_cm0plus.h ****   __IOM uint32_t ISPR[1U];               /*!< Offset: 0x100 (R/W)  Interrupt Set Pending Register *
 335:Generated_Source\PSoC6\pdl\cmsis/include/core_cm0plus.h ****         uint32_t RESERVED2[31U];
 336:Generated_Source\PSoC6\pdl\cmsis/include/core_cm0plus.h ****   __IOM uint32_t ICPR[1U];               /*!< Offset: 0x180 (R/W)  Interrupt Clear Pending Register
 337:Generated_Source\PSoC6\pdl\cmsis/include/core_cm0plus.h ****         uint32_t RESERVED3[31U];
 338:Generated_Source\PSoC6\pdl\cmsis/include/core_cm0plus.h ****         uint32_t RESERVED4[64U];
 339:Generated_Source\PSoC6\pdl\cmsis/include/core_cm0plus.h ****   __IOM uint32_t IP[8U];                 /*!< Offset: 0x300 (R/W)  Interrupt Priority Register */
 340:Generated_Source\PSoC6\pdl\cmsis/include/core_cm0plus.h **** }  NVIC_Type;
 341:Generated_Source\PSoC6\pdl\cmsis/include/core_cm0plus.h **** 
 342:Generated_Source\PSoC6\pdl\cmsis/include/core_cm0plus.h **** /*@} end of group CMSIS_NVIC */
 343:Generated_Source\PSoC6\pdl\cmsis/include/core_cm0plus.h **** 
 344:Generated_Source\PSoC6\pdl\cmsis/include/core_cm0plus.h **** 
 345:Generated_Source\PSoC6\pdl\cmsis/include/core_cm0plus.h **** /**
 346:Generated_Source\PSoC6\pdl\cmsis/include/core_cm0plus.h ****   \ingroup  CMSIS_core_register
 347:Generated_Source\PSoC6\pdl\cmsis/include/core_cm0plus.h ****   \defgroup CMSIS_SCB     System Control Block (SCB)
 348:Generated_Source\PSoC6\pdl\cmsis/include/core_cm0plus.h ****   \brief    Type definitions for the System Control Block Registers
 349:Generated_Source\PSoC6\pdl\cmsis/include/core_cm0plus.h ****   @{
 350:Generated_Source\PSoC6\pdl\cmsis/include/core_cm0plus.h ****  */
 351:Generated_Source\PSoC6\pdl\cmsis/include/core_cm0plus.h **** 
 352:Generated_Source\PSoC6\pdl\cmsis/include/core_cm0plus.h **** /**
 353:Generated_Source\PSoC6\pdl\cmsis/include/core_cm0plus.h ****   \brief  Structure type to access the System Control Block (SCB).
 354:Generated_Source\PSoC6\pdl\cmsis/include/core_cm0plus.h ****  */
 355:Generated_Source\PSoC6\pdl\cmsis/include/core_cm0plus.h **** typedef struct
 356:Generated_Source\PSoC6\pdl\cmsis/include/core_cm0plus.h **** {
 357:Generated_Source\PSoC6\pdl\cmsis/include/core_cm0plus.h ****   __IM  uint32_t CPUID;                  /*!< Offset: 0x000 (R/ )  CPUID Base Register */
 358:Generated_Source\PSoC6\pdl\cmsis/include/core_cm0plus.h ****   __IOM uint32_t ICSR;                   /*!< Offset: 0x004 (R/W)  Interrupt Control and State Regi
 359:Generated_Source\PSoC6\pdl\cmsis/include/core_cm0plus.h **** #if defined (__VTOR_PRESENT) && (__VTOR_PRESENT == 1U)
 360:Generated_Source\PSoC6\pdl\cmsis/include/core_cm0plus.h ****   __IOM uint32_t VTOR;                   /*!< Offset: 0x008 (R/W)  Vector Table Offset Register */
 361:Generated_Source\PSoC6\pdl\cmsis/include/core_cm0plus.h **** #else
 362:Generated_Source\PSoC6\pdl\cmsis/include/core_cm0plus.h ****         uint32_t RESERVED0;
 363:Generated_Source\PSoC6\pdl\cmsis/include/core_cm0plus.h **** #endif
 364:Generated_Source\PSoC6\pdl\cmsis/include/core_cm0plus.h ****   __IOM uint32_t AIRCR;                  /*!< Offset: 0x00C (R/W)  Application Interrupt and Reset 
 365:Generated_Source\PSoC6\pdl\cmsis/include/core_cm0plus.h ****   __IOM uint32_t SCR;                    /*!< Offset: 0x010 (R/W)  System Control Register */
 366:Generated_Source\PSoC6\pdl\cmsis/include/core_cm0plus.h ****   __IOM uint32_t CCR;                    /*!< Offset: 0x014 (R/W)  Configuration Control Register *
 367:Generated_Source\PSoC6\pdl\cmsis/include/core_cm0plus.h ****         uint32_t RESERVED1;
 368:Generated_Source\PSoC6\pdl\cmsis/include/core_cm0plus.h ****   __IOM uint32_t SHP[2U];                /*!< Offset: 0x01C (R/W)  System Handlers Priority Registe
 369:Generated_Source\PSoC6\pdl\cmsis/include/core_cm0plus.h ****   __IOM uint32_t SHCSR;                  /*!< Offset: 0x024 (R/W)  System Handler Control and State
 370:Generated_Source\PSoC6\pdl\cmsis/include/core_cm0plus.h **** } SCB_Type;
 371:Generated_Source\PSoC6\pdl\cmsis/include/core_cm0plus.h **** 
 372:Generated_Source\PSoC6\pdl\cmsis/include/core_cm0plus.h **** /* SCB CPUID Register Definitions */
 373:Generated_Source\PSoC6\pdl\cmsis/include/core_cm0plus.h **** #define SCB_CPUID_IMPLEMENTER_Pos          24U                                            /*!< SCB 
 374:Generated_Source\PSoC6\pdl\cmsis/include/core_cm0plus.h **** #define SCB_CPUID_IMPLEMENTER_Msk          (0xFFUL << SCB_CPUID_IMPLEMENTER_Pos)          /*!< SCB 
 375:Generated_Source\PSoC6\pdl\cmsis/include/core_cm0plus.h **** 
ARM GAS  C:\Users\Rolf\AppData\Local\Temp\ccUtnhQP.s 			page 27


 376:Generated_Source\PSoC6\pdl\cmsis/include/core_cm0plus.h **** #define SCB_CPUID_VARIANT_Pos              20U                                            /*!< SCB 
 377:Generated_Source\PSoC6\pdl\cmsis/include/core_cm0plus.h **** #define SCB_CPUID_VARIANT_Msk              (0xFUL << SCB_CPUID_VARIANT_Pos)               /*!< SCB 
 378:Generated_Source\PSoC6\pdl\cmsis/include/core_cm0plus.h **** 
 379:Generated_Source\PSoC6\pdl\cmsis/include/core_cm0plus.h **** #define SCB_CPUID_ARCHITECTURE_Pos         16U                                            /*!< SCB 
 380:Generated_Source\PSoC6\pdl\cmsis/include/core_cm0plus.h **** #define SCB_CPUID_ARCHITECTURE_Msk         (0xFUL << SCB_CPUID_ARCHITECTURE_Pos)          /*!< SCB 
 381:Generated_Source\PSoC6\pdl\cmsis/include/core_cm0plus.h **** 
 382:Generated_Source\PSoC6\pdl\cmsis/include/core_cm0plus.h **** #define SCB_CPUID_PARTNO_Pos                4U                                            /*!< SCB 
 383:Generated_Source\PSoC6\pdl\cmsis/include/core_cm0plus.h **** #define SCB_CPUID_PARTNO_Msk               (0xFFFUL << SCB_CPUID_PARTNO_Pos)              /*!< SCB 
 384:Generated_Source\PSoC6\pdl\cmsis/include/core_cm0plus.h **** 
 385:Generated_Source\PSoC6\pdl\cmsis/include/core_cm0plus.h **** #define SCB_CPUID_REVISION_Pos              0U                                            /*!< SCB 
 386:Generated_Source\PSoC6\pdl\cmsis/include/core_cm0plus.h **** #define SCB_CPUID_REVISION_Msk             (0xFUL /*<< SCB_CPUID_REVISION_Pos*/)          /*!< SCB 
 387:Generated_Source\PSoC6\pdl\cmsis/include/core_cm0plus.h **** 
 388:Generated_Source\PSoC6\pdl\cmsis/include/core_cm0plus.h **** /* SCB Interrupt Control State Register Definitions */
 389:Generated_Source\PSoC6\pdl\cmsis/include/core_cm0plus.h **** #define SCB_ICSR_NMIPENDSET_Pos            31U                                            /*!< SCB 
 390:Generated_Source\PSoC6\pdl\cmsis/include/core_cm0plus.h **** #define SCB_ICSR_NMIPENDSET_Msk            (1UL << SCB_ICSR_NMIPENDSET_Pos)               /*!< SCB 
 391:Generated_Source\PSoC6\pdl\cmsis/include/core_cm0plus.h **** 
 392:Generated_Source\PSoC6\pdl\cmsis/include/core_cm0plus.h **** #define SCB_ICSR_PENDSVSET_Pos             28U                                            /*!< SCB 
 393:Generated_Source\PSoC6\pdl\cmsis/include/core_cm0plus.h **** #define SCB_ICSR_PENDSVSET_Msk             (1UL << SCB_ICSR_PENDSVSET_Pos)                /*!< SCB 
 394:Generated_Source\PSoC6\pdl\cmsis/include/core_cm0plus.h **** 
 395:Generated_Source\PSoC6\pdl\cmsis/include/core_cm0plus.h **** #define SCB_ICSR_PENDSVCLR_Pos             27U                                            /*!< SCB 
 396:Generated_Source\PSoC6\pdl\cmsis/include/core_cm0plus.h **** #define SCB_ICSR_PENDSVCLR_Msk             (1UL << SCB_ICSR_PENDSVCLR_Pos)                /*!< SCB 
 397:Generated_Source\PSoC6\pdl\cmsis/include/core_cm0plus.h **** 
 398:Generated_Source\PSoC6\pdl\cmsis/include/core_cm0plus.h **** #define SCB_ICSR_PENDSTSET_Pos             26U                                            /*!< SCB 
 399:Generated_Source\PSoC6\pdl\cmsis/include/core_cm0plus.h **** #define SCB_ICSR_PENDSTSET_Msk             (1UL << SCB_ICSR_PENDSTSET_Pos)                /*!< SCB 
 400:Generated_Source\PSoC6\pdl\cmsis/include/core_cm0plus.h **** 
 401:Generated_Source\PSoC6\pdl\cmsis/include/core_cm0plus.h **** #define SCB_ICSR_PENDSTCLR_Pos             25U                                            /*!< SCB 
 402:Generated_Source\PSoC6\pdl\cmsis/include/core_cm0plus.h **** #define SCB_ICSR_PENDSTCLR_Msk             (1UL << SCB_ICSR_PENDSTCLR_Pos)                /*!< SCB 
 403:Generated_Source\PSoC6\pdl\cmsis/include/core_cm0plus.h **** 
 404:Generated_Source\PSoC6\pdl\cmsis/include/core_cm0plus.h **** #define SCB_ICSR_ISRPREEMPT_Pos            23U                                            /*!< SCB 
 405:Generated_Source\PSoC6\pdl\cmsis/include/core_cm0plus.h **** #define SCB_ICSR_ISRPREEMPT_Msk            (1UL << SCB_ICSR_ISRPREEMPT_Pos)               /*!< SCB 
 406:Generated_Source\PSoC6\pdl\cmsis/include/core_cm0plus.h **** 
 407:Generated_Source\PSoC6\pdl\cmsis/include/core_cm0plus.h **** #define SCB_ICSR_ISRPENDING_Pos            22U                                            /*!< SCB 
 408:Generated_Source\PSoC6\pdl\cmsis/include/core_cm0plus.h **** #define SCB_ICSR_ISRPENDING_Msk            (1UL << SCB_ICSR_ISRPENDING_Pos)               /*!< SCB 
 409:Generated_Source\PSoC6\pdl\cmsis/include/core_cm0plus.h **** 
 410:Generated_Source\PSoC6\pdl\cmsis/include/core_cm0plus.h **** #define SCB_ICSR_VECTPENDING_Pos           12U                                            /*!< SCB 
 411:Generated_Source\PSoC6\pdl\cmsis/include/core_cm0plus.h **** #define SCB_ICSR_VECTPENDING_Msk           (0x1FFUL << SCB_ICSR_VECTPENDING_Pos)          /*!< SCB 
 412:Generated_Source\PSoC6\pdl\cmsis/include/core_cm0plus.h **** 
 413:Generated_Source\PSoC6\pdl\cmsis/include/core_cm0plus.h **** #define SCB_ICSR_VECTACTIVE_Pos             0U                                            /*!< SCB 
 414:Generated_Source\PSoC6\pdl\cmsis/include/core_cm0plus.h **** #define SCB_ICSR_VECTACTIVE_Msk            (0x1FFUL /*<< SCB_ICSR_VECTACTIVE_Pos*/)       /*!< SCB 
 415:Generated_Source\PSoC6\pdl\cmsis/include/core_cm0plus.h **** 
 416:Generated_Source\PSoC6\pdl\cmsis/include/core_cm0plus.h **** #if defined (__VTOR_PRESENT) && (__VTOR_PRESENT == 1U)
 417:Generated_Source\PSoC6\pdl\cmsis/include/core_cm0plus.h **** /* SCB Interrupt Control State Register Definitions */
 418:Generated_Source\PSoC6\pdl\cmsis/include/core_cm0plus.h **** #define SCB_VTOR_TBLOFF_Pos                 8U                                            /*!< SCB 
 419:Generated_Source\PSoC6\pdl\cmsis/include/core_cm0plus.h **** #define SCB_VTOR_TBLOFF_Msk                (0xFFFFFFUL << SCB_VTOR_TBLOFF_Pos)            /*!< SCB 
 420:Generated_Source\PSoC6\pdl\cmsis/include/core_cm0plus.h **** #endif
 421:Generated_Source\PSoC6\pdl\cmsis/include/core_cm0plus.h **** 
 422:Generated_Source\PSoC6\pdl\cmsis/include/core_cm0plus.h **** /* SCB Application Interrupt and Reset Control Register Definitions */
 423:Generated_Source\PSoC6\pdl\cmsis/include/core_cm0plus.h **** #define SCB_AIRCR_VECTKEY_Pos              16U                                            /*!< SCB 
 424:Generated_Source\PSoC6\pdl\cmsis/include/core_cm0plus.h **** #define SCB_AIRCR_VECTKEY_Msk              (0xFFFFUL << SCB_AIRCR_VECTKEY_Pos)            /*!< SCB 
 425:Generated_Source\PSoC6\pdl\cmsis/include/core_cm0plus.h **** 
 426:Generated_Source\PSoC6\pdl\cmsis/include/core_cm0plus.h **** #define SCB_AIRCR_VECTKEYSTAT_Pos          16U                                            /*!< SCB 
 427:Generated_Source\PSoC6\pdl\cmsis/include/core_cm0plus.h **** #define SCB_AIRCR_VECTKEYSTAT_Msk          (0xFFFFUL << SCB_AIRCR_VECTKEYSTAT_Pos)        /*!< SCB 
 428:Generated_Source\PSoC6\pdl\cmsis/include/core_cm0plus.h **** 
 429:Generated_Source\PSoC6\pdl\cmsis/include/core_cm0plus.h **** #define SCB_AIRCR_ENDIANESS_Pos            15U                                            /*!< SCB 
 430:Generated_Source\PSoC6\pdl\cmsis/include/core_cm0plus.h **** #define SCB_AIRCR_ENDIANESS_Msk            (1UL << SCB_AIRCR_ENDIANESS_Pos)               /*!< SCB 
 431:Generated_Source\PSoC6\pdl\cmsis/include/core_cm0plus.h **** 
 432:Generated_Source\PSoC6\pdl\cmsis/include/core_cm0plus.h **** #define SCB_AIRCR_SYSRESETREQ_Pos           2U                                            /*!< SCB 
ARM GAS  C:\Users\Rolf\AppData\Local\Temp\ccUtnhQP.s 			page 28


 433:Generated_Source\PSoC6\pdl\cmsis/include/core_cm0plus.h **** #define SCB_AIRCR_SYSRESETREQ_Msk          (1UL << SCB_AIRCR_SYSRESETREQ_Pos)             /*!< SCB 
 434:Generated_Source\PSoC6\pdl\cmsis/include/core_cm0plus.h **** 
 435:Generated_Source\PSoC6\pdl\cmsis/include/core_cm0plus.h **** #define SCB_AIRCR_VECTCLRACTIVE_Pos         1U                                            /*!< SCB 
 436:Generated_Source\PSoC6\pdl\cmsis/include/core_cm0plus.h **** #define SCB_AIRCR_VECTCLRACTIVE_Msk        (1UL << SCB_AIRCR_VECTCLRACTIVE_Pos)           /*!< SCB 
 437:Generated_Source\PSoC6\pdl\cmsis/include/core_cm0plus.h **** 
 438:Generated_Source\PSoC6\pdl\cmsis/include/core_cm0plus.h **** /* SCB System Control Register Definitions */
 439:Generated_Source\PSoC6\pdl\cmsis/include/core_cm0plus.h **** #define SCB_SCR_SEVONPEND_Pos               4U                                            /*!< SCB 
 440:Generated_Source\PSoC6\pdl\cmsis/include/core_cm0plus.h **** #define SCB_SCR_SEVONPEND_Msk              (1UL << SCB_SCR_SEVONPEND_Pos)                 /*!< SCB 
 441:Generated_Source\PSoC6\pdl\cmsis/include/core_cm0plus.h **** 
 442:Generated_Source\PSoC6\pdl\cmsis/include/core_cm0plus.h **** #define SCB_SCR_SLEEPDEEP_Pos               2U                                            /*!< SCB 
 443:Generated_Source\PSoC6\pdl\cmsis/include/core_cm0plus.h **** #define SCB_SCR_SLEEPDEEP_Msk              (1UL << SCB_SCR_SLEEPDEEP_Pos)                 /*!< SCB 
 444:Generated_Source\PSoC6\pdl\cmsis/include/core_cm0plus.h **** 
 445:Generated_Source\PSoC6\pdl\cmsis/include/core_cm0plus.h **** #define SCB_SCR_SLEEPONEXIT_Pos             1U                                            /*!< SCB 
 446:Generated_Source\PSoC6\pdl\cmsis/include/core_cm0plus.h **** #define SCB_SCR_SLEEPONEXIT_Msk            (1UL << SCB_SCR_SLEEPONEXIT_Pos)               /*!< SCB 
 447:Generated_Source\PSoC6\pdl\cmsis/include/core_cm0plus.h **** 
 448:Generated_Source\PSoC6\pdl\cmsis/include/core_cm0plus.h **** /* SCB Configuration Control Register Definitions */
 449:Generated_Source\PSoC6\pdl\cmsis/include/core_cm0plus.h **** #define SCB_CCR_STKALIGN_Pos                9U                                            /*!< SCB 
 450:Generated_Source\PSoC6\pdl\cmsis/include/core_cm0plus.h **** #define SCB_CCR_STKALIGN_Msk               (1UL << SCB_CCR_STKALIGN_Pos)                  /*!< SCB 
 451:Generated_Source\PSoC6\pdl\cmsis/include/core_cm0plus.h **** 
 452:Generated_Source\PSoC6\pdl\cmsis/include/core_cm0plus.h **** #define SCB_CCR_UNALIGN_TRP_Pos             3U                                            /*!< SCB 
 453:Generated_Source\PSoC6\pdl\cmsis/include/core_cm0plus.h **** #define SCB_CCR_UNALIGN_TRP_Msk            (1UL << SCB_CCR_UNALIGN_TRP_Pos)               /*!< SCB 
 454:Generated_Source\PSoC6\pdl\cmsis/include/core_cm0plus.h **** 
 455:Generated_Source\PSoC6\pdl\cmsis/include/core_cm0plus.h **** /* SCB System Handler Control and State Register Definitions */
 456:Generated_Source\PSoC6\pdl\cmsis/include/core_cm0plus.h **** #define SCB_SHCSR_SVCALLPENDED_Pos         15U                                            /*!< SCB 
 457:Generated_Source\PSoC6\pdl\cmsis/include/core_cm0plus.h **** #define SCB_SHCSR_SVCALLPENDED_Msk         (1UL << SCB_SHCSR_SVCALLPENDED_Pos)            /*!< SCB 
 458:Generated_Source\PSoC6\pdl\cmsis/include/core_cm0plus.h **** 
 459:Generated_Source\PSoC6\pdl\cmsis/include/core_cm0plus.h **** /*@} end of group CMSIS_SCB */
 460:Generated_Source\PSoC6\pdl\cmsis/include/core_cm0plus.h **** 
 461:Generated_Source\PSoC6\pdl\cmsis/include/core_cm0plus.h **** 
 462:Generated_Source\PSoC6\pdl\cmsis/include/core_cm0plus.h **** /**
 463:Generated_Source\PSoC6\pdl\cmsis/include/core_cm0plus.h ****   \ingroup  CMSIS_core_register
 464:Generated_Source\PSoC6\pdl\cmsis/include/core_cm0plus.h ****   \defgroup CMSIS_SysTick     System Tick Timer (SysTick)
 465:Generated_Source\PSoC6\pdl\cmsis/include/core_cm0plus.h ****   \brief    Type definitions for the System Timer Registers.
 466:Generated_Source\PSoC6\pdl\cmsis/include/core_cm0plus.h ****   @{
 467:Generated_Source\PSoC6\pdl\cmsis/include/core_cm0plus.h ****  */
 468:Generated_Source\PSoC6\pdl\cmsis/include/core_cm0plus.h **** 
 469:Generated_Source\PSoC6\pdl\cmsis/include/core_cm0plus.h **** /**
 470:Generated_Source\PSoC6\pdl\cmsis/include/core_cm0plus.h ****   \brief  Structure type to access the System Timer (SysTick).
 471:Generated_Source\PSoC6\pdl\cmsis/include/core_cm0plus.h ****  */
 472:Generated_Source\PSoC6\pdl\cmsis/include/core_cm0plus.h **** typedef struct
 473:Generated_Source\PSoC6\pdl\cmsis/include/core_cm0plus.h **** {
 474:Generated_Source\PSoC6\pdl\cmsis/include/core_cm0plus.h ****   __IOM uint32_t CTRL;                   /*!< Offset: 0x000 (R/W)  SysTick Control and Status Regis
 475:Generated_Source\PSoC6\pdl\cmsis/include/core_cm0plus.h ****   __IOM uint32_t LOAD;                   /*!< Offset: 0x004 (R/W)  SysTick Reload Value Register */
 476:Generated_Source\PSoC6\pdl\cmsis/include/core_cm0plus.h ****   __IOM uint32_t VAL;                    /*!< Offset: 0x008 (R/W)  SysTick Current Value Register *
 477:Generated_Source\PSoC6\pdl\cmsis/include/core_cm0plus.h ****   __IM  uint32_t CALIB;                  /*!< Offset: 0x00C (R/ )  SysTick Calibration Register */
 478:Generated_Source\PSoC6\pdl\cmsis/include/core_cm0plus.h **** } SysTick_Type;
 479:Generated_Source\PSoC6\pdl\cmsis/include/core_cm0plus.h **** 
 480:Generated_Source\PSoC6\pdl\cmsis/include/core_cm0plus.h **** /* SysTick Control / Status Register Definitions */
 481:Generated_Source\PSoC6\pdl\cmsis/include/core_cm0plus.h **** #define SysTick_CTRL_COUNTFLAG_Pos         16U                                            /*!< SysT
 482:Generated_Source\PSoC6\pdl\cmsis/include/core_cm0plus.h **** #define SysTick_CTRL_COUNTFLAG_Msk         (1UL << SysTick_CTRL_COUNTFLAG_Pos)            /*!< SysT
 483:Generated_Source\PSoC6\pdl\cmsis/include/core_cm0plus.h **** 
 484:Generated_Source\PSoC6\pdl\cmsis/include/core_cm0plus.h **** #define SysTick_CTRL_CLKSOURCE_Pos          2U                                            /*!< SysT
 485:Generated_Source\PSoC6\pdl\cmsis/include/core_cm0plus.h **** #define SysTick_CTRL_CLKSOURCE_Msk         (1UL << SysTick_CTRL_CLKSOURCE_Pos)            /*!< SysT
 486:Generated_Source\PSoC6\pdl\cmsis/include/core_cm0plus.h **** 
 487:Generated_Source\PSoC6\pdl\cmsis/include/core_cm0plus.h **** #define SysTick_CTRL_TICKINT_Pos            1U                                            /*!< SysT
 488:Generated_Source\PSoC6\pdl\cmsis/include/core_cm0plus.h **** #define SysTick_CTRL_TICKINT_Msk           (1UL << SysTick_CTRL_TICKINT_Pos)              /*!< SysT
 489:Generated_Source\PSoC6\pdl\cmsis/include/core_cm0plus.h **** 
ARM GAS  C:\Users\Rolf\AppData\Local\Temp\ccUtnhQP.s 			page 29


 490:Generated_Source\PSoC6\pdl\cmsis/include/core_cm0plus.h **** #define SysTick_CTRL_ENABLE_Pos             0U                                            /*!< SysT
 491:Generated_Source\PSoC6\pdl\cmsis/include/core_cm0plus.h **** #define SysTick_CTRL_ENABLE_Msk            (1UL /*<< SysTick_CTRL_ENABLE_Pos*/)           /*!< SysT
 492:Generated_Source\PSoC6\pdl\cmsis/include/core_cm0plus.h **** 
 493:Generated_Source\PSoC6\pdl\cmsis/include/core_cm0plus.h **** /* SysTick Reload Register Definitions */
 494:Generated_Source\PSoC6\pdl\cmsis/include/core_cm0plus.h **** #define SysTick_LOAD_RELOAD_Pos             0U                                            /*!< SysT
 495:Generated_Source\PSoC6\pdl\cmsis/include/core_cm0plus.h **** #define SysTick_LOAD_RELOAD_Msk            (0xFFFFFFUL /*<< SysTick_LOAD_RELOAD_Pos*/)    /*!< SysT
 496:Generated_Source\PSoC6\pdl\cmsis/include/core_cm0plus.h **** 
 497:Generated_Source\PSoC6\pdl\cmsis/include/core_cm0plus.h **** /* SysTick Current Register Definitions */
 498:Generated_Source\PSoC6\pdl\cmsis/include/core_cm0plus.h **** #define SysTick_VAL_CURRENT_Pos             0U                                            /*!< SysT
 499:Generated_Source\PSoC6\pdl\cmsis/include/core_cm0plus.h **** #define SysTick_VAL_CURRENT_Msk            (0xFFFFFFUL /*<< SysTick_VAL_CURRENT_Pos*/)    /*!< SysT
 500:Generated_Source\PSoC6\pdl\cmsis/include/core_cm0plus.h **** 
 501:Generated_Source\PSoC6\pdl\cmsis/include/core_cm0plus.h **** /* SysTick Calibration Register Definitions */
 502:Generated_Source\PSoC6\pdl\cmsis/include/core_cm0plus.h **** #define SysTick_CALIB_NOREF_Pos            31U                                            /*!< SysT
 503:Generated_Source\PSoC6\pdl\cmsis/include/core_cm0plus.h **** #define SysTick_CALIB_NOREF_Msk            (1UL << SysTick_CALIB_NOREF_Pos)               /*!< SysT
 504:Generated_Source\PSoC6\pdl\cmsis/include/core_cm0plus.h **** 
 505:Generated_Source\PSoC6\pdl\cmsis/include/core_cm0plus.h **** #define SysTick_CALIB_SKEW_Pos             30U                                            /*!< SysT
 506:Generated_Source\PSoC6\pdl\cmsis/include/core_cm0plus.h **** #define SysTick_CALIB_SKEW_Msk             (1UL << SysTick_CALIB_SKEW_Pos)                /*!< SysT
 507:Generated_Source\PSoC6\pdl\cmsis/include/core_cm0plus.h **** 
 508:Generated_Source\PSoC6\pdl\cmsis/include/core_cm0plus.h **** #define SysTick_CALIB_TENMS_Pos             0U                                            /*!< SysT
 509:Generated_Source\PSoC6\pdl\cmsis/include/core_cm0plus.h **** #define SysTick_CALIB_TENMS_Msk            (0xFFFFFFUL /*<< SysTick_CALIB_TENMS_Pos*/)    /*!< SysT
 510:Generated_Source\PSoC6\pdl\cmsis/include/core_cm0plus.h **** 
 511:Generated_Source\PSoC6\pdl\cmsis/include/core_cm0plus.h **** /*@} end of group CMSIS_SysTick */
 512:Generated_Source\PSoC6\pdl\cmsis/include/core_cm0plus.h **** 
 513:Generated_Source\PSoC6\pdl\cmsis/include/core_cm0plus.h **** #if defined (__MPU_PRESENT) && (__MPU_PRESENT == 1U)
 514:Generated_Source\PSoC6\pdl\cmsis/include/core_cm0plus.h **** /**
 515:Generated_Source\PSoC6\pdl\cmsis/include/core_cm0plus.h ****   \ingroup  CMSIS_core_register
 516:Generated_Source\PSoC6\pdl\cmsis/include/core_cm0plus.h ****   \defgroup CMSIS_MPU     Memory Protection Unit (MPU)
 517:Generated_Source\PSoC6\pdl\cmsis/include/core_cm0plus.h ****   \brief    Type definitions for the Memory Protection Unit (MPU)
 518:Generated_Source\PSoC6\pdl\cmsis/include/core_cm0plus.h ****   @{
 519:Generated_Source\PSoC6\pdl\cmsis/include/core_cm0plus.h ****  */
 520:Generated_Source\PSoC6\pdl\cmsis/include/core_cm0plus.h **** 
 521:Generated_Source\PSoC6\pdl\cmsis/include/core_cm0plus.h **** /**
 522:Generated_Source\PSoC6\pdl\cmsis/include/core_cm0plus.h ****   \brief  Structure type to access the Memory Protection Unit (MPU).
 523:Generated_Source\PSoC6\pdl\cmsis/include/core_cm0plus.h ****  */
 524:Generated_Source\PSoC6\pdl\cmsis/include/core_cm0plus.h **** typedef struct
 525:Generated_Source\PSoC6\pdl\cmsis/include/core_cm0plus.h **** {
 526:Generated_Source\PSoC6\pdl\cmsis/include/core_cm0plus.h ****   __IM  uint32_t TYPE;                   /*!< Offset: 0x000 (R/ )  MPU Type Register */
 527:Generated_Source\PSoC6\pdl\cmsis/include/core_cm0plus.h ****   __IOM uint32_t CTRL;                   /*!< Offset: 0x004 (R/W)  MPU Control Register */
 528:Generated_Source\PSoC6\pdl\cmsis/include/core_cm0plus.h ****   __IOM uint32_t RNR;                    /*!< Offset: 0x008 (R/W)  MPU Region RNRber Register */
 529:Generated_Source\PSoC6\pdl\cmsis/include/core_cm0plus.h ****   __IOM uint32_t RBAR;                   /*!< Offset: 0x00C (R/W)  MPU Region Base Address Register
 530:Generated_Source\PSoC6\pdl\cmsis/include/core_cm0plus.h ****   __IOM uint32_t RASR;                   /*!< Offset: 0x010 (R/W)  MPU Region Attribute and Size Re
 531:Generated_Source\PSoC6\pdl\cmsis/include/core_cm0plus.h **** } MPU_Type;
 532:Generated_Source\PSoC6\pdl\cmsis/include/core_cm0plus.h **** 
 533:Generated_Source\PSoC6\pdl\cmsis/include/core_cm0plus.h **** #define MPU_TYPE_RALIASES                  1U
 534:Generated_Source\PSoC6\pdl\cmsis/include/core_cm0plus.h **** 
 535:Generated_Source\PSoC6\pdl\cmsis/include/core_cm0plus.h **** /* MPU Type Register Definitions */
 536:Generated_Source\PSoC6\pdl\cmsis/include/core_cm0plus.h **** #define MPU_TYPE_IREGION_Pos               16U                                            /*!< MPU 
 537:Generated_Source\PSoC6\pdl\cmsis/include/core_cm0plus.h **** #define MPU_TYPE_IREGION_Msk               (0xFFUL << MPU_TYPE_IREGION_Pos)               /*!< MPU 
 538:Generated_Source\PSoC6\pdl\cmsis/include/core_cm0plus.h **** 
 539:Generated_Source\PSoC6\pdl\cmsis/include/core_cm0plus.h **** #define MPU_TYPE_DREGION_Pos                8U                                            /*!< MPU 
 540:Generated_Source\PSoC6\pdl\cmsis/include/core_cm0plus.h **** #define MPU_TYPE_DREGION_Msk               (0xFFUL << MPU_TYPE_DREGION_Pos)               /*!< MPU 
 541:Generated_Source\PSoC6\pdl\cmsis/include/core_cm0plus.h **** 
 542:Generated_Source\PSoC6\pdl\cmsis/include/core_cm0plus.h **** #define MPU_TYPE_SEPARATE_Pos               0U                                            /*!< MPU 
 543:Generated_Source\PSoC6\pdl\cmsis/include/core_cm0plus.h **** #define MPU_TYPE_SEPARATE_Msk              (1UL /*<< MPU_TYPE_SEPARATE_Pos*/)             /*!< MPU 
 544:Generated_Source\PSoC6\pdl\cmsis/include/core_cm0plus.h **** 
 545:Generated_Source\PSoC6\pdl\cmsis/include/core_cm0plus.h **** /* MPU Control Register Definitions */
 546:Generated_Source\PSoC6\pdl\cmsis/include/core_cm0plus.h **** #define MPU_CTRL_PRIVDEFENA_Pos             2U                                            /*!< MPU 
ARM GAS  C:\Users\Rolf\AppData\Local\Temp\ccUtnhQP.s 			page 30


 547:Generated_Source\PSoC6\pdl\cmsis/include/core_cm0plus.h **** #define MPU_CTRL_PRIVDEFENA_Msk            (1UL << MPU_CTRL_PRIVDEFENA_Pos)               /*!< MPU 
 548:Generated_Source\PSoC6\pdl\cmsis/include/core_cm0plus.h **** 
 549:Generated_Source\PSoC6\pdl\cmsis/include/core_cm0plus.h **** #define MPU_CTRL_HFNMIENA_Pos               1U                                            /*!< MPU 
 550:Generated_Source\PSoC6\pdl\cmsis/include/core_cm0plus.h **** #define MPU_CTRL_HFNMIENA_Msk              (1UL << MPU_CTRL_HFNMIENA_Pos)                 /*!< MPU 
 551:Generated_Source\PSoC6\pdl\cmsis/include/core_cm0plus.h **** 
 552:Generated_Source\PSoC6\pdl\cmsis/include/core_cm0plus.h **** #define MPU_CTRL_ENABLE_Pos                 0U                                            /*!< MPU 
 553:Generated_Source\PSoC6\pdl\cmsis/include/core_cm0plus.h **** #define MPU_CTRL_ENABLE_Msk                (1UL /*<< MPU_CTRL_ENABLE_Pos*/)               /*!< MPU 
 554:Generated_Source\PSoC6\pdl\cmsis/include/core_cm0plus.h **** 
 555:Generated_Source\PSoC6\pdl\cmsis/include/core_cm0plus.h **** /* MPU Region Number Register Definitions */
 556:Generated_Source\PSoC6\pdl\cmsis/include/core_cm0plus.h **** #define MPU_RNR_REGION_Pos                  0U                                            /*!< MPU 
 557:Generated_Source\PSoC6\pdl\cmsis/include/core_cm0plus.h **** #define MPU_RNR_REGION_Msk                 (0xFFUL /*<< MPU_RNR_REGION_Pos*/)             /*!< MPU 
 558:Generated_Source\PSoC6\pdl\cmsis/include/core_cm0plus.h **** 
 559:Generated_Source\PSoC6\pdl\cmsis/include/core_cm0plus.h **** /* MPU Region Base Address Register Definitions */
 560:Generated_Source\PSoC6\pdl\cmsis/include/core_cm0plus.h **** #define MPU_RBAR_ADDR_Pos                   8U                                            /*!< MPU 
 561:Generated_Source\PSoC6\pdl\cmsis/include/core_cm0plus.h **** #define MPU_RBAR_ADDR_Msk                  (0xFFFFFFUL << MPU_RBAR_ADDR_Pos)              /*!< MPU 
 562:Generated_Source\PSoC6\pdl\cmsis/include/core_cm0plus.h **** 
 563:Generated_Source\PSoC6\pdl\cmsis/include/core_cm0plus.h **** #define MPU_RBAR_VALID_Pos                  4U                                            /*!< MPU 
 564:Generated_Source\PSoC6\pdl\cmsis/include/core_cm0plus.h **** #define MPU_RBAR_VALID_Msk                 (1UL << MPU_RBAR_VALID_Pos)                    /*!< MPU 
 565:Generated_Source\PSoC6\pdl\cmsis/include/core_cm0plus.h **** 
 566:Generated_Source\PSoC6\pdl\cmsis/include/core_cm0plus.h **** #define MPU_RBAR_REGION_Pos                 0U                                            /*!< MPU 
 567:Generated_Source\PSoC6\pdl\cmsis/include/core_cm0plus.h **** #define MPU_RBAR_REGION_Msk                (0xFUL /*<< MPU_RBAR_REGION_Pos*/)             /*!< MPU 
 568:Generated_Source\PSoC6\pdl\cmsis/include/core_cm0plus.h **** 
 569:Generated_Source\PSoC6\pdl\cmsis/include/core_cm0plus.h **** /* MPU Region Attribute and Size Register Definitions */
 570:Generated_Source\PSoC6\pdl\cmsis/include/core_cm0plus.h **** #define MPU_RASR_ATTRS_Pos                 16U                                            /*!< MPU 
 571:Generated_Source\PSoC6\pdl\cmsis/include/core_cm0plus.h **** #define MPU_RASR_ATTRS_Msk                 (0xFFFFUL << MPU_RASR_ATTRS_Pos)               /*!< MPU 
 572:Generated_Source\PSoC6\pdl\cmsis/include/core_cm0plus.h **** 
 573:Generated_Source\PSoC6\pdl\cmsis/include/core_cm0plus.h **** #define MPU_RASR_XN_Pos                    28U                                            /*!< MPU 
 574:Generated_Source\PSoC6\pdl\cmsis/include/core_cm0plus.h **** #define MPU_RASR_XN_Msk                    (1UL << MPU_RASR_XN_Pos)                       /*!< MPU 
 575:Generated_Source\PSoC6\pdl\cmsis/include/core_cm0plus.h **** 
 576:Generated_Source\PSoC6\pdl\cmsis/include/core_cm0plus.h **** #define MPU_RASR_AP_Pos                    24U                                            /*!< MPU 
 577:Generated_Source\PSoC6\pdl\cmsis/include/core_cm0plus.h **** #define MPU_RASR_AP_Msk                    (0x7UL << MPU_RASR_AP_Pos)                     /*!< MPU 
 578:Generated_Source\PSoC6\pdl\cmsis/include/core_cm0plus.h **** 
 579:Generated_Source\PSoC6\pdl\cmsis/include/core_cm0plus.h **** #define MPU_RASR_TEX_Pos                   19U                                            /*!< MPU 
 580:Generated_Source\PSoC6\pdl\cmsis/include/core_cm0plus.h **** #define MPU_RASR_TEX_Msk                   (0x7UL << MPU_RASR_TEX_Pos)                    /*!< MPU 
 581:Generated_Source\PSoC6\pdl\cmsis/include/core_cm0plus.h **** 
 582:Generated_Source\PSoC6\pdl\cmsis/include/core_cm0plus.h **** #define MPU_RASR_S_Pos                     18U                                            /*!< MPU 
 583:Generated_Source\PSoC6\pdl\cmsis/include/core_cm0plus.h **** #define MPU_RASR_S_Msk                     (1UL << MPU_RASR_S_Pos)                        /*!< MPU 
 584:Generated_Source\PSoC6\pdl\cmsis/include/core_cm0plus.h **** 
 585:Generated_Source\PSoC6\pdl\cmsis/include/core_cm0plus.h **** #define MPU_RASR_C_Pos                     17U                                            /*!< MPU 
 586:Generated_Source\PSoC6\pdl\cmsis/include/core_cm0plus.h **** #define MPU_RASR_C_Msk                     (1UL << MPU_RASR_C_Pos)                        /*!< MPU 
 587:Generated_Source\PSoC6\pdl\cmsis/include/core_cm0plus.h **** 
 588:Generated_Source\PSoC6\pdl\cmsis/include/core_cm0plus.h **** #define MPU_RASR_B_Pos                     16U                                            /*!< MPU 
 589:Generated_Source\PSoC6\pdl\cmsis/include/core_cm0plus.h **** #define MPU_RASR_B_Msk                     (1UL << MPU_RASR_B_Pos)                        /*!< MPU 
 590:Generated_Source\PSoC6\pdl\cmsis/include/core_cm0plus.h **** 
 591:Generated_Source\PSoC6\pdl\cmsis/include/core_cm0plus.h **** #define MPU_RASR_SRD_Pos                    8U                                            /*!< MPU 
 592:Generated_Source\PSoC6\pdl\cmsis/include/core_cm0plus.h **** #define MPU_RASR_SRD_Msk                   (0xFFUL << MPU_RASR_SRD_Pos)                   /*!< MPU 
 593:Generated_Source\PSoC6\pdl\cmsis/include/core_cm0plus.h **** 
 594:Generated_Source\PSoC6\pdl\cmsis/include/core_cm0plus.h **** #define MPU_RASR_SIZE_Pos                   1U                                            /*!< MPU 
 595:Generated_Source\PSoC6\pdl\cmsis/include/core_cm0plus.h **** #define MPU_RASR_SIZE_Msk                  (0x1FUL << MPU_RASR_SIZE_Pos)                  /*!< MPU 
 596:Generated_Source\PSoC6\pdl\cmsis/include/core_cm0plus.h **** 
 597:Generated_Source\PSoC6\pdl\cmsis/include/core_cm0plus.h **** #define MPU_RASR_ENABLE_Pos                 0U                                            /*!< MPU 
 598:Generated_Source\PSoC6\pdl\cmsis/include/core_cm0plus.h **** #define MPU_RASR_ENABLE_Msk                (1UL /*<< MPU_RASR_ENABLE_Pos*/)               /*!< MPU 
 599:Generated_Source\PSoC6\pdl\cmsis/include/core_cm0plus.h **** 
 600:Generated_Source\PSoC6\pdl\cmsis/include/core_cm0plus.h **** /*@} end of group CMSIS_MPU */
 601:Generated_Source\PSoC6\pdl\cmsis/include/core_cm0plus.h **** #endif
 602:Generated_Source\PSoC6\pdl\cmsis/include/core_cm0plus.h **** 
 603:Generated_Source\PSoC6\pdl\cmsis/include/core_cm0plus.h **** 
ARM GAS  C:\Users\Rolf\AppData\Local\Temp\ccUtnhQP.s 			page 31


 604:Generated_Source\PSoC6\pdl\cmsis/include/core_cm0plus.h **** /**
 605:Generated_Source\PSoC6\pdl\cmsis/include/core_cm0plus.h ****   \ingroup  CMSIS_core_register
 606:Generated_Source\PSoC6\pdl\cmsis/include/core_cm0plus.h ****   \defgroup CMSIS_CoreDebug       Core Debug Registers (CoreDebug)
 607:Generated_Source\PSoC6\pdl\cmsis/include/core_cm0plus.h ****   \brief    Cortex-M0+ Core Debug Registers (DCB registers, SHCSR, and DFSR) are only accessible ov
 608:Generated_Source\PSoC6\pdl\cmsis/include/core_cm0plus.h ****             Therefore they are not covered by the Cortex-M0+ header file.
 609:Generated_Source\PSoC6\pdl\cmsis/include/core_cm0plus.h ****   @{
 610:Generated_Source\PSoC6\pdl\cmsis/include/core_cm0plus.h ****  */
 611:Generated_Source\PSoC6\pdl\cmsis/include/core_cm0plus.h **** /*@} end of group CMSIS_CoreDebug */
 612:Generated_Source\PSoC6\pdl\cmsis/include/core_cm0plus.h **** 
 613:Generated_Source\PSoC6\pdl\cmsis/include/core_cm0plus.h **** 
 614:Generated_Source\PSoC6\pdl\cmsis/include/core_cm0plus.h **** /**
 615:Generated_Source\PSoC6\pdl\cmsis/include/core_cm0plus.h ****   \ingroup    CMSIS_core_register
 616:Generated_Source\PSoC6\pdl\cmsis/include/core_cm0plus.h ****   \defgroup   CMSIS_core_bitfield     Core register bit field macros
 617:Generated_Source\PSoC6\pdl\cmsis/include/core_cm0plus.h ****   \brief      Macros for use with bit field definitions (xxx_Pos, xxx_Msk).
 618:Generated_Source\PSoC6\pdl\cmsis/include/core_cm0plus.h ****   @{
 619:Generated_Source\PSoC6\pdl\cmsis/include/core_cm0plus.h ****  */
 620:Generated_Source\PSoC6\pdl\cmsis/include/core_cm0plus.h **** 
 621:Generated_Source\PSoC6\pdl\cmsis/include/core_cm0plus.h **** /**
 622:Generated_Source\PSoC6\pdl\cmsis/include/core_cm0plus.h ****   \brief   Mask and shift a bit field value for use in a register bit range.
 623:Generated_Source\PSoC6\pdl\cmsis/include/core_cm0plus.h ****   \param[in] field  Name of the register bit field.
 624:Generated_Source\PSoC6\pdl\cmsis/include/core_cm0plus.h ****   \param[in] value  Value of the bit field. This parameter is interpreted as an uint32_t type.
 625:Generated_Source\PSoC6\pdl\cmsis/include/core_cm0plus.h ****   \return           Masked and shifted value.
 626:Generated_Source\PSoC6\pdl\cmsis/include/core_cm0plus.h **** */
 627:Generated_Source\PSoC6\pdl\cmsis/include/core_cm0plus.h **** #define _VAL2FLD(field, value)    (((uint32_t)(value) << field ## _Pos) & field ## _Msk)
 628:Generated_Source\PSoC6\pdl\cmsis/include/core_cm0plus.h **** 
 629:Generated_Source\PSoC6\pdl\cmsis/include/core_cm0plus.h **** /**
 630:Generated_Source\PSoC6\pdl\cmsis/include/core_cm0plus.h ****   \brief     Mask and shift a register value to extract a bit filed value.
 631:Generated_Source\PSoC6\pdl\cmsis/include/core_cm0plus.h ****   \param[in] field  Name of the register bit field.
 632:Generated_Source\PSoC6\pdl\cmsis/include/core_cm0plus.h ****   \param[in] value  Value of register. This parameter is interpreted as an uint32_t type.
 633:Generated_Source\PSoC6\pdl\cmsis/include/core_cm0plus.h ****   \return           Masked and shifted bit field value.
 634:Generated_Source\PSoC6\pdl\cmsis/include/core_cm0plus.h **** */
 635:Generated_Source\PSoC6\pdl\cmsis/include/core_cm0plus.h **** #define _FLD2VAL(field, value)    (((uint32_t)(value) & field ## _Msk) >> field ## _Pos)
 636:Generated_Source\PSoC6\pdl\cmsis/include/core_cm0plus.h **** 
 637:Generated_Source\PSoC6\pdl\cmsis/include/core_cm0plus.h **** /*@} end of group CMSIS_core_bitfield */
 638:Generated_Source\PSoC6\pdl\cmsis/include/core_cm0plus.h **** 
 639:Generated_Source\PSoC6\pdl\cmsis/include/core_cm0plus.h **** 
 640:Generated_Source\PSoC6\pdl\cmsis/include/core_cm0plus.h **** /**
 641:Generated_Source\PSoC6\pdl\cmsis/include/core_cm0plus.h ****   \ingroup    CMSIS_core_register
 642:Generated_Source\PSoC6\pdl\cmsis/include/core_cm0plus.h ****   \defgroup   CMSIS_core_base     Core Definitions
 643:Generated_Source\PSoC6\pdl\cmsis/include/core_cm0plus.h ****   \brief      Definitions for base addresses, unions, and structures.
 644:Generated_Source\PSoC6\pdl\cmsis/include/core_cm0plus.h ****   @{
 645:Generated_Source\PSoC6\pdl\cmsis/include/core_cm0plus.h ****  */
 646:Generated_Source\PSoC6\pdl\cmsis/include/core_cm0plus.h **** 
 647:Generated_Source\PSoC6\pdl\cmsis/include/core_cm0plus.h **** /* Memory mapping of Core Hardware */
 648:Generated_Source\PSoC6\pdl\cmsis/include/core_cm0plus.h **** #define SCS_BASE            (0xE000E000UL)                            /*!< System Control Space Bas
 649:Generated_Source\PSoC6\pdl\cmsis/include/core_cm0plus.h **** #define SysTick_BASE        (SCS_BASE +  0x0010UL)                    /*!< SysTick Base Address */
 650:Generated_Source\PSoC6\pdl\cmsis/include/core_cm0plus.h **** #define NVIC_BASE           (SCS_BASE +  0x0100UL)                    /*!< NVIC Base Address */
 651:Generated_Source\PSoC6\pdl\cmsis/include/core_cm0plus.h **** #define SCB_BASE            (SCS_BASE +  0x0D00UL)                    /*!< System Control Block Bas
 652:Generated_Source\PSoC6\pdl\cmsis/include/core_cm0plus.h **** 
 653:Generated_Source\PSoC6\pdl\cmsis/include/core_cm0plus.h **** #define SCB                 ((SCB_Type       *)     SCB_BASE      )   /*!< SCB configuration struct
 654:Generated_Source\PSoC6\pdl\cmsis/include/core_cm0plus.h **** #define SysTick             ((SysTick_Type   *)     SysTick_BASE  )   /*!< SysTick configuration st
 655:Generated_Source\PSoC6\pdl\cmsis/include/core_cm0plus.h **** #define NVIC                ((NVIC_Type      *)     NVIC_BASE     )   /*!< NVIC configuration struc
 656:Generated_Source\PSoC6\pdl\cmsis/include/core_cm0plus.h **** 
 657:Generated_Source\PSoC6\pdl\cmsis/include/core_cm0plus.h **** #if defined (__MPU_PRESENT) && (__MPU_PRESENT == 1U)
 658:Generated_Source\PSoC6\pdl\cmsis/include/core_cm0plus.h ****   #define MPU_BASE          (SCS_BASE +  0x0D90UL)                    /*!< Memory Protection Unit *
 659:Generated_Source\PSoC6\pdl\cmsis/include/core_cm0plus.h ****   #define MPU               ((MPU_Type       *)     MPU_BASE      )   /*!< Memory Protection Unit *
 660:Generated_Source\PSoC6\pdl\cmsis/include/core_cm0plus.h **** #endif
ARM GAS  C:\Users\Rolf\AppData\Local\Temp\ccUtnhQP.s 			page 32


 661:Generated_Source\PSoC6\pdl\cmsis/include/core_cm0plus.h **** 
 662:Generated_Source\PSoC6\pdl\cmsis/include/core_cm0plus.h **** /*@} */
 663:Generated_Source\PSoC6\pdl\cmsis/include/core_cm0plus.h **** 
 664:Generated_Source\PSoC6\pdl\cmsis/include/core_cm0plus.h **** 
 665:Generated_Source\PSoC6\pdl\cmsis/include/core_cm0plus.h **** 
 666:Generated_Source\PSoC6\pdl\cmsis/include/core_cm0plus.h **** /*******************************************************************************
 667:Generated_Source\PSoC6\pdl\cmsis/include/core_cm0plus.h ****  *                Hardware Abstraction Layer
 668:Generated_Source\PSoC6\pdl\cmsis/include/core_cm0plus.h ****   Core Function Interface contains:
 669:Generated_Source\PSoC6\pdl\cmsis/include/core_cm0plus.h ****   - Core NVIC Functions
 670:Generated_Source\PSoC6\pdl\cmsis/include/core_cm0plus.h ****   - Core SysTick Functions
 671:Generated_Source\PSoC6\pdl\cmsis/include/core_cm0plus.h ****   - Core Register Access Functions
 672:Generated_Source\PSoC6\pdl\cmsis/include/core_cm0plus.h ****  ******************************************************************************/
 673:Generated_Source\PSoC6\pdl\cmsis/include/core_cm0plus.h **** /**
 674:Generated_Source\PSoC6\pdl\cmsis/include/core_cm0plus.h ****   \defgroup CMSIS_Core_FunctionInterface Functions and Instructions Reference
 675:Generated_Source\PSoC6\pdl\cmsis/include/core_cm0plus.h **** */
 676:Generated_Source\PSoC6\pdl\cmsis/include/core_cm0plus.h **** 
 677:Generated_Source\PSoC6\pdl\cmsis/include/core_cm0plus.h **** 
 678:Generated_Source\PSoC6\pdl\cmsis/include/core_cm0plus.h **** 
 679:Generated_Source\PSoC6\pdl\cmsis/include/core_cm0plus.h **** /* ##########################   NVIC functions  #################################### */
 680:Generated_Source\PSoC6\pdl\cmsis/include/core_cm0plus.h **** /**
 681:Generated_Source\PSoC6\pdl\cmsis/include/core_cm0plus.h ****   \ingroup  CMSIS_Core_FunctionInterface
 682:Generated_Source\PSoC6\pdl\cmsis/include/core_cm0plus.h ****   \defgroup CMSIS_Core_NVICFunctions NVIC Functions
 683:Generated_Source\PSoC6\pdl\cmsis/include/core_cm0plus.h ****   \brief    Functions that manage interrupts and exceptions via the NVIC.
 684:Generated_Source\PSoC6\pdl\cmsis/include/core_cm0plus.h ****   @{
 685:Generated_Source\PSoC6\pdl\cmsis/include/core_cm0plus.h ****  */
 686:Generated_Source\PSoC6\pdl\cmsis/include/core_cm0plus.h **** 
 687:Generated_Source\PSoC6\pdl\cmsis/include/core_cm0plus.h **** #ifdef CMSIS_NVIC_VIRTUAL
 688:Generated_Source\PSoC6\pdl\cmsis/include/core_cm0plus.h ****   #ifndef CMSIS_NVIC_VIRTUAL_HEADER_FILE
 689:Generated_Source\PSoC6\pdl\cmsis/include/core_cm0plus.h ****     #define CMSIS_NVIC_VIRTUAL_HEADER_FILE "cmsis_nvic_virtual.h"
 690:Generated_Source\PSoC6\pdl\cmsis/include/core_cm0plus.h ****   #endif
 691:Generated_Source\PSoC6\pdl\cmsis/include/core_cm0plus.h ****   #include CMSIS_NVIC_VIRTUAL_HEADER_FILE
 692:Generated_Source\PSoC6\pdl\cmsis/include/core_cm0plus.h **** #else
 693:Generated_Source\PSoC6\pdl\cmsis/include/core_cm0plus.h **** /*#define NVIC_SetPriorityGrouping    __NVIC_SetPriorityGrouping   not available for Cortex-M0+ */
 694:Generated_Source\PSoC6\pdl\cmsis/include/core_cm0plus.h **** /*#define NVIC_GetPriorityGrouping    __NVIC_GetPriorityGrouping   not available for Cortex-M0+ */
 695:Generated_Source\PSoC6\pdl\cmsis/include/core_cm0plus.h ****   #define NVIC_EnableIRQ              __NVIC_EnableIRQ
 696:Generated_Source\PSoC6\pdl\cmsis/include/core_cm0plus.h ****   #define NVIC_GetEnableIRQ           __NVIC_GetEnableIRQ
 697:Generated_Source\PSoC6\pdl\cmsis/include/core_cm0plus.h ****   #define NVIC_DisableIRQ             __NVIC_DisableIRQ
 698:Generated_Source\PSoC6\pdl\cmsis/include/core_cm0plus.h ****   #define NVIC_GetPendingIRQ          __NVIC_GetPendingIRQ
 699:Generated_Source\PSoC6\pdl\cmsis/include/core_cm0plus.h ****   #define NVIC_SetPendingIRQ          __NVIC_SetPendingIRQ
 700:Generated_Source\PSoC6\pdl\cmsis/include/core_cm0plus.h ****   #define NVIC_ClearPendingIRQ        __NVIC_ClearPendingIRQ
 701:Generated_Source\PSoC6\pdl\cmsis/include/core_cm0plus.h **** /*#define NVIC_GetActive              __NVIC_GetActive             not available for Cortex-M0+ */
 702:Generated_Source\PSoC6\pdl\cmsis/include/core_cm0plus.h ****   #define NVIC_SetPriority            __NVIC_SetPriority
 703:Generated_Source\PSoC6\pdl\cmsis/include/core_cm0plus.h ****   #define NVIC_GetPriority            __NVIC_GetPriority
 704:Generated_Source\PSoC6\pdl\cmsis/include/core_cm0plus.h ****   #define NVIC_SystemReset            __NVIC_SystemReset
 705:Generated_Source\PSoC6\pdl\cmsis/include/core_cm0plus.h **** #endif /* CMSIS_NVIC_VIRTUAL */
 706:Generated_Source\PSoC6\pdl\cmsis/include/core_cm0plus.h **** 
 707:Generated_Source\PSoC6\pdl\cmsis/include/core_cm0plus.h **** #ifdef CMSIS_VECTAB_VIRTUAL
 708:Generated_Source\PSoC6\pdl\cmsis/include/core_cm0plus.h ****   #ifndef CMSIS_VECTAB_VIRTUAL_HEADER_FILE
 709:Generated_Source\PSoC6\pdl\cmsis/include/core_cm0plus.h ****     #define CMSIS_VECTAB_VIRTUAL_HEADER_FILE "cmsis_vectab_virtual.h"
 710:Generated_Source\PSoC6\pdl\cmsis/include/core_cm0plus.h ****   #endif
 711:Generated_Source\PSoC6\pdl\cmsis/include/core_cm0plus.h ****   #include CMSIS_VECTAB_VIRTUAL_HEADER_FILE
 712:Generated_Source\PSoC6\pdl\cmsis/include/core_cm0plus.h **** #else
 713:Generated_Source\PSoC6\pdl\cmsis/include/core_cm0plus.h ****   #define NVIC_SetVector              __NVIC_SetVector
 714:Generated_Source\PSoC6\pdl\cmsis/include/core_cm0plus.h ****   #define NVIC_GetVector              __NVIC_GetVector
 715:Generated_Source\PSoC6\pdl\cmsis/include/core_cm0plus.h **** #endif  /* (CMSIS_VECTAB_VIRTUAL) */
 716:Generated_Source\PSoC6\pdl\cmsis/include/core_cm0plus.h **** 
 717:Generated_Source\PSoC6\pdl\cmsis/include/core_cm0plus.h **** #define NVIC_USER_IRQ_OFFSET          16
ARM GAS  C:\Users\Rolf\AppData\Local\Temp\ccUtnhQP.s 			page 33


 718:Generated_Source\PSoC6\pdl\cmsis/include/core_cm0plus.h **** 
 719:Generated_Source\PSoC6\pdl\cmsis/include/core_cm0plus.h **** 
 720:Generated_Source\PSoC6\pdl\cmsis/include/core_cm0plus.h **** /* Interrupt Priorities are WORD accessible only under Armv6-M                  */
 721:Generated_Source\PSoC6\pdl\cmsis/include/core_cm0plus.h **** /* The following MACROS handle generation of the register offset and byte masks */
 722:Generated_Source\PSoC6\pdl\cmsis/include/core_cm0plus.h **** #define _BIT_SHIFT(IRQn)         (  ((((uint32_t)(int32_t)(IRQn))         )      &  0x03UL) * 8UL)
 723:Generated_Source\PSoC6\pdl\cmsis/include/core_cm0plus.h **** #define _SHP_IDX(IRQn)           ( (((((uint32_t)(int32_t)(IRQn)) & 0x0FUL)-8UL) >>    2UL)      )
 724:Generated_Source\PSoC6\pdl\cmsis/include/core_cm0plus.h **** #define _IP_IDX(IRQn)            (   (((uint32_t)(int32_t)(IRQn))                >>    2UL)      )
 725:Generated_Source\PSoC6\pdl\cmsis/include/core_cm0plus.h **** 
 726:Generated_Source\PSoC6\pdl\cmsis/include/core_cm0plus.h **** 
 727:Generated_Source\PSoC6\pdl\cmsis/include/core_cm0plus.h **** /**
 728:Generated_Source\PSoC6\pdl\cmsis/include/core_cm0plus.h ****   \brief   Enable Interrupt
 729:Generated_Source\PSoC6\pdl\cmsis/include/core_cm0plus.h ****   \details Enables a device specific interrupt in the NVIC interrupt controller.
 730:Generated_Source\PSoC6\pdl\cmsis/include/core_cm0plus.h ****   \param [in]      IRQn  Device specific interrupt number.
 731:Generated_Source\PSoC6\pdl\cmsis/include/core_cm0plus.h ****   \note    IRQn must not be negative.
 732:Generated_Source\PSoC6\pdl\cmsis/include/core_cm0plus.h ****  */
 733:Generated_Source\PSoC6\pdl\cmsis/include/core_cm0plus.h **** __STATIC_INLINE void __NVIC_EnableIRQ(IRQn_Type IRQn)
 734:Generated_Source\PSoC6\pdl\cmsis/include/core_cm0plus.h **** {
 735:Generated_Source\PSoC6\pdl\cmsis/include/core_cm0plus.h ****   if ((int32_t)(IRQn) >= 0)
 368              		.loc 3 735 0
 369 009c 002A     		cmp	r2, #0
 370 009e 05DB     		blt	.L14
 736:Generated_Source\PSoC6\pdl\cmsis/include/core_cm0plus.h ****   {
 737:Generated_Source\PSoC6\pdl\cmsis/include/core_cm0plus.h ****     NVIC->ISER[0U] = (uint32_t)(1UL << (((uint32_t)IRQn) & 0x1FUL));
 371              		.loc 3 737 0
 372 00a0 1F23     		movs	r3, #31
 373 00a2 1A40     		ands	r2, r3
 374              	.LVL33:
 375 00a4 1E3B     		subs	r3, r3, #30
 376 00a6 9340     		lsls	r3, r3, r2
 377 00a8 034A     		ldr	r2, .L20+8
 378 00aa 1360     		str	r3, [r2]
 379              	.LVL34:
 380              	.L14:
 381              	.LBE53:
 382              	.LBE52:
 129:Generated_Source\PSoC6\pdl\drivers\peripheral\ipc/cy_ipc_pipe.c **** 
 383              		.loc 1 129 0
 384 00ac 0FB0     		add	sp, sp, #60
 385              		@ sp needed
 386              	.LVL35:
 387 00ae F0BD     		pop	{r4, r5, r6, r7, pc}
 388              	.L21:
 389              		.align	2
 390              	.L20:
 391 00b0 00000000 		.word	.LC2
 392 00b4 00000000 		.word	cy_device
 393 00b8 00E100E0 		.word	-536813312
 394              		.cfi_endproc
 395              	.LFE67:
 396              		.size	Cy_IPC_Pipe_Init, .-Cy_IPC_Pipe_Init
 397              		.section	.text.Cy_IPC_Pipe_SendMessage,"ax",%progbits
 398              		.align	2
 399              		.global	Cy_IPC_Pipe_SendMessage
 400              		.code	16
 401              		.thumb_func
 402              		.type	Cy_IPC_Pipe_SendMessage, %function
 403              	Cy_IPC_Pipe_SendMessage:
ARM GAS  C:\Users\Rolf\AppData\Local\Temp\ccUtnhQP.s 			page 34


 404              	.LFB69:
 209:Generated_Source\PSoC6\pdl\drivers\peripheral\ipc/cy_ipc_pipe.c **** 
 210:Generated_Source\PSoC6\pdl\drivers\peripheral\ipc/cy_ipc_pipe.c **** 
 211:Generated_Source\PSoC6\pdl\drivers\peripheral\ipc/cy_ipc_pipe.c **** /*******************************************************************************
 212:Generated_Source\PSoC6\pdl\drivers\peripheral\ipc/cy_ipc_pipe.c **** * Function Name: Cy_IPC_Pipe_SendMessage
 213:Generated_Source\PSoC6\pdl\drivers\peripheral\ipc/cy_ipc_pipe.c **** ****************************************************************************//**
 214:Generated_Source\PSoC6\pdl\drivers\peripheral\ipc/cy_ipc_pipe.c **** *
 215:Generated_Source\PSoC6\pdl\drivers\peripheral\ipc/cy_ipc_pipe.c **** * This function is used to send a message from one endpoint to another.  It
 216:Generated_Source\PSoC6\pdl\drivers\peripheral\ipc/cy_ipc_pipe.c **** * generates an interrupt on the endpoint that receives the message and a
 217:Generated_Source\PSoC6\pdl\drivers\peripheral\ipc/cy_ipc_pipe.c **** * release interrupt to the sender to acknowledge the message has been processed.
 218:Generated_Source\PSoC6\pdl\drivers\peripheral\ipc/cy_ipc_pipe.c **** *
 219:Generated_Source\PSoC6\pdl\drivers\peripheral\ipc/cy_ipc_pipe.c **** * \param toAddr
 220:Generated_Source\PSoC6\pdl\drivers\peripheral\ipc/cy_ipc_pipe.c **** * This parameter is the address (or index in the array of endpoint structures)
 221:Generated_Source\PSoC6\pdl\drivers\peripheral\ipc/cy_ipc_pipe.c **** * of the endpoint to which you are sending the message.
 222:Generated_Source\PSoC6\pdl\drivers\peripheral\ipc/cy_ipc_pipe.c **** *
 223:Generated_Source\PSoC6\pdl\drivers\peripheral\ipc/cy_ipc_pipe.c **** * \param fromAddr
 224:Generated_Source\PSoC6\pdl\drivers\peripheral\ipc/cy_ipc_pipe.c **** * This parameter is the address (or index in the array of endpoint structures)
 225:Generated_Source\PSoC6\pdl\drivers\peripheral\ipc/cy_ipc_pipe.c **** * of the endpoint from which the message is being sent.
 226:Generated_Source\PSoC6\pdl\drivers\peripheral\ipc/cy_ipc_pipe.c **** *
 227:Generated_Source\PSoC6\pdl\drivers\peripheral\ipc/cy_ipc_pipe.c **** * \param msgPtr
 228:Generated_Source\PSoC6\pdl\drivers\peripheral\ipc/cy_ipc_pipe.c **** * Pointer to the message structure to be sent.
 229:Generated_Source\PSoC6\pdl\drivers\peripheral\ipc/cy_ipc_pipe.c **** *
 230:Generated_Source\PSoC6\pdl\drivers\peripheral\ipc/cy_ipc_pipe.c **** * \param callBackPtr
 231:Generated_Source\PSoC6\pdl\drivers\peripheral\ipc/cy_ipc_pipe.c **** * Pointer to the Release callback function.
 232:Generated_Source\PSoC6\pdl\drivers\peripheral\ipc/cy_ipc_pipe.c **** *
 233:Generated_Source\PSoC6\pdl\drivers\peripheral\ipc/cy_ipc_pipe.c **** * \return
 234:Generated_Source\PSoC6\pdl\drivers\peripheral\ipc/cy_ipc_pipe.c **** *    CY_IPC_PIPE_SUCCESS:          Message was sent to the other end of the pipe
 235:Generated_Source\PSoC6\pdl\drivers\peripheral\ipc/cy_ipc_pipe.c **** *    CY_IPC_PIPE_ERROR_BAD_HANDLE: The handle provided for the pipe was not valid
 236:Generated_Source\PSoC6\pdl\drivers\peripheral\ipc/cy_ipc_pipe.c **** *    CY_IPC_PIPE_ERROR_SEND_BUSY:  The pipe is already busy sending a message
 237:Generated_Source\PSoC6\pdl\drivers\peripheral\ipc/cy_ipc_pipe.c **** *
 238:Generated_Source\PSoC6\pdl\drivers\peripheral\ipc/cy_ipc_pipe.c **** * \funcusage
 239:Generated_Source\PSoC6\pdl\drivers\peripheral\ipc/cy_ipc_pipe.c **** * \snippet IPC_sut_01.cydsn/main_cm4.c snippet_myReleaseCallback
 240:Generated_Source\PSoC6\pdl\drivers\peripheral\ipc/cy_ipc_pipe.c **** * \snippet IPC_sut_01.cydsn/main_cm4.c snippet_Cy_IPC_Pipe_SendMessage
 241:Generated_Source\PSoC6\pdl\drivers\peripheral\ipc/cy_ipc_pipe.c **** *
 242:Generated_Source\PSoC6\pdl\drivers\peripheral\ipc/cy_ipc_pipe.c **** *******************************************************************************/
 243:Generated_Source\PSoC6\pdl\drivers\peripheral\ipc/cy_ipc_pipe.c **** cy_en_ipc_pipe_status_t Cy_IPC_Pipe_SendMessage(uint32_t toAddr, uint32_t fromAddr,
 244:Generated_Source\PSoC6\pdl\drivers\peripheral\ipc/cy_ipc_pipe.c ****                                                 void * msgPtr, cy_ipc_pipe_relcallback_ptr_t callBa
 245:Generated_Source\PSoC6\pdl\drivers\peripheral\ipc/cy_ipc_pipe.c **** {
 405              		.loc 1 245 0
 406              		.cfi_startproc
 407              		@ args = 0, pretend = 0, frame = 0
 408              		@ frame_needed = 0, uses_anonymous_args = 0
 409              	.LVL36:
 410 0000 F8B5     		push	{r3, r4, r5, r6, r7, lr}
 411              		.cfi_def_cfa_offset 24
 412              		.cfi_offset 3, -24
 413              		.cfi_offset 4, -20
 414              		.cfi_offset 5, -16
 415              		.cfi_offset 6, -12
 416              		.cfi_offset 7, -8
 417              		.cfi_offset 14, -4
 418 0002 0500     		movs	r5, r0
 419 0004 0F00     		movs	r7, r1
 420 0006 1600     		movs	r6, r2
 421 0008 1C00     		movs	r4, r3
 246:Generated_Source\PSoC6\pdl\drivers\peripheral\ipc/cy_ipc_pipe.c ****     cy_en_ipc_pipe_status_t  returnStatus;
 247:Generated_Source\PSoC6\pdl\drivers\peripheral\ipc/cy_ipc_pipe.c ****     uint32_t releaseMask;
ARM GAS  C:\Users\Rolf\AppData\Local\Temp\ccUtnhQP.s 			page 35


 248:Generated_Source\PSoC6\pdl\drivers\peripheral\ipc/cy_ipc_pipe.c ****     uint32_t notifyMask;
 249:Generated_Source\PSoC6\pdl\drivers\peripheral\ipc/cy_ipc_pipe.c **** 
 250:Generated_Source\PSoC6\pdl\drivers\peripheral\ipc/cy_ipc_pipe.c ****     cy_stc_ipc_pipe_ep_t * fromEp;
 251:Generated_Source\PSoC6\pdl\drivers\peripheral\ipc/cy_ipc_pipe.c ****     cy_stc_ipc_pipe_ep_t * toEp;
 252:Generated_Source\PSoC6\pdl\drivers\peripheral\ipc/cy_ipc_pipe.c **** 
 253:Generated_Source\PSoC6\pdl\drivers\peripheral\ipc/cy_ipc_pipe.c ****     CY_ASSERT_L1(NULL != msgPtr);
 422              		.loc 1 253 0
 423 000a 002A     		cmp	r2, #0
 424 000c 03D1     		bne	.L23
 425              		.loc 1 253 0 is_stmt 0 discriminator 1
 426 000e FD21     		movs	r1, #253
 427              	.LVL37:
 428 0010 2248     		ldr	r0, .L32
 429              	.LVL38:
 430 0012 FFF7FEFF 		bl	Cy_SysLib_AssertFailed
 431              	.LVL39:
 432              	.L23:
 254:Generated_Source\PSoC6\pdl\drivers\peripheral\ipc/cy_ipc_pipe.c ****     CY_ASSERT_L1(NULL != cy_ipc_pipe_epArray);
 433              		.loc 1 254 0 is_stmt 1
 434 0016 224B     		ldr	r3, .L32+4
 435 0018 1B68     		ldr	r3, [r3]
 436 001a 002B     		cmp	r3, #0
 437 001c 03D1     		bne	.L24
 438              		.loc 1 254 0 is_stmt 0 discriminator 1
 439 001e FE21     		movs	r1, #254
 440 0020 1E48     		ldr	r0, .L32
 441 0022 FFF7FEFF 		bl	Cy_SysLib_AssertFailed
 442              	.LVL40:
 443              	.L24:
 255:Generated_Source\PSoC6\pdl\drivers\peripheral\ipc/cy_ipc_pipe.c **** 
 256:Generated_Source\PSoC6\pdl\drivers\peripheral\ipc/cy_ipc_pipe.c ****     toEp   = &(cy_ipc_pipe_epArray[toAddr]);
 444              		.loc 1 256 0 is_stmt 1
 445 0026 1E4B     		ldr	r3, .L32+4
 446 0028 1B68     		ldr	r3, [r3]
 447 002a 2C21     		movs	r1, #44
 448 002c 2800     		movs	r0, r5
 449 002e 4843     		muls	r0, r1
 450 0030 1818     		adds	r0, r3, r0
 451              	.LVL41:
 257:Generated_Source\PSoC6\pdl\drivers\peripheral\ipc/cy_ipc_pipe.c ****     fromEp = &cy_ipc_pipe_epArray[fromAddr];
 452              		.loc 1 257 0
 453 0032 7943     		muls	r1, r7
 454 0034 5918     		adds	r1, r3, r1
 455              	.LVL42:
 258:Generated_Source\PSoC6\pdl\drivers\peripheral\ipc/cy_ipc_pipe.c **** 
 259:Generated_Source\PSoC6\pdl\drivers\peripheral\ipc/cy_ipc_pipe.c ****     /* Create the release mask for the "fromAddr" channel's interrupt channel */
 260:Generated_Source\PSoC6\pdl\drivers\peripheral\ipc/cy_ipc_pipe.c ****     releaseMask =  (uint32_t)(1ul << (fromEp->intrChan));
 456              		.loc 1 260 0
 457 0036 0122     		movs	r2, #1
 458 0038 1300     		movs	r3, r2
 459 003a 4D68     		ldr	r5, [r1, #4]
 460              	.LVL43:
 461 003c AB40     		lsls	r3, r3, r5
 462              	.LVL44:
 261:Generated_Source\PSoC6\pdl\drivers\peripheral\ipc/cy_ipc_pipe.c **** 
 262:Generated_Source\PSoC6\pdl\drivers\peripheral\ipc/cy_ipc_pipe.c ****     /* Shift into position */
 263:Generated_Source\PSoC6\pdl\drivers\peripheral\ipc/cy_ipc_pipe.c ****     releaseMask = _VAL2FLD(CY_IPC_PIPE_MSG_RELEASE, releaseMask);
ARM GAS  C:\Users\Rolf\AppData\Local\Temp\ccUtnhQP.s 			page 36


 463              		.loc 1 263 0
 464 003e 1B04     		lsls	r3, r3, #16
 465              	.LVL45:
 264:Generated_Source\PSoC6\pdl\drivers\peripheral\ipc/cy_ipc_pipe.c **** 
 265:Generated_Source\PSoC6\pdl\drivers\peripheral\ipc/cy_ipc_pipe.c ****     /* Create the notify mask for the "toAddr" channel's interrupt channel */
 266:Generated_Source\PSoC6\pdl\drivers\peripheral\ipc/cy_ipc_pipe.c ****     notifyMask  =  (uint32_t)(1ul << (toEp->intrChan));
 466              		.loc 1 266 0
 467 0040 4568     		ldr	r5, [r0, #4]
 468 0042 AA40     		lsls	r2, r2, r5
 469 0044 1500     		movs	r5, r2
 470              	.LVL46:
 267:Generated_Source\PSoC6\pdl\drivers\peripheral\ipc/cy_ipc_pipe.c **** 
 268:Generated_Source\PSoC6\pdl\drivers\peripheral\ipc/cy_ipc_pipe.c ****     /* Check if IPC channel valid */
 269:Generated_Source\PSoC6\pdl\drivers\peripheral\ipc/cy_ipc_pipe.c ****     if( toEp->ipcPtr != NULL)
 471              		.loc 1 269 0
 472 0046 0269     		ldr	r2, [r0, #16]
 473              	.LVL47:
 474 0048 002A     		cmp	r2, #0
 475 004a 20D0     		beq	.L28
 270:Generated_Source\PSoC6\pdl\drivers\peripheral\ipc/cy_ipc_pipe.c ****     {
 271:Generated_Source\PSoC6\pdl\drivers\peripheral\ipc/cy_ipc_pipe.c ****         if(fromEp->busy == CY_IPC_PIPE_ENDPOINT_NOTBUSY)
 476              		.loc 1 271 0
 477 004c 8F69     		ldr	r7, [r1, #24]
 478              	.LVL48:
 479 004e 002F     		cmp	r7, #0
 480 0050 1FD1     		bne	.L29
 481              	.LVL49:
 482              	.LBB54:
 483              	.LBB55:
 514:Generated_Source\PSoC6\pdl\drivers\peripheral\ipc/cy_ipc_drv.h **** }
 515:Generated_Source\PSoC6\pdl\drivers\peripheral\ipc/cy_ipc_drv.h **** 
 516:Generated_Source\PSoC6\pdl\drivers\peripheral\ipc/cy_ipc_drv.h **** 
 517:Generated_Source\PSoC6\pdl\drivers\peripheral\ipc/cy_ipc_drv.h **** /*******************************************************************************
 518:Generated_Source\PSoC6\pdl\drivers\peripheral\ipc/cy_ipc_drv.h **** * Function Name: Cy_IPC_Drv_GetInterruptMask
 519:Generated_Source\PSoC6\pdl\drivers\peripheral\ipc/cy_ipc_drv.h **** ****************************************************************************//**
 520:Generated_Source\PSoC6\pdl\drivers\peripheral\ipc/cy_ipc_drv.h **** *
 521:Generated_Source\PSoC6\pdl\drivers\peripheral\ipc/cy_ipc_drv.h **** * This function is used to read the interrupt mask.
 522:Generated_Source\PSoC6\pdl\drivers\peripheral\ipc/cy_ipc_drv.h **** *
 523:Generated_Source\PSoC6\pdl\drivers\peripheral\ipc/cy_ipc_drv.h **** * \param base
 524:Generated_Source\PSoC6\pdl\drivers\peripheral\ipc/cy_ipc_drv.h **** * This is a handle to the IPC interrupt. This handle can be calculated from
 525:Generated_Source\PSoC6\pdl\drivers\peripheral\ipc/cy_ipc_drv.h **** * the IPC interrupt number using \ref Cy_IPC_Drv_GetIntrBaseAddr.
 526:Generated_Source\PSoC6\pdl\drivers\peripheral\ipc/cy_ipc_drv.h **** *
 527:Generated_Source\PSoC6\pdl\drivers\peripheral\ipc/cy_ipc_drv.h **** * \return
 528:Generated_Source\PSoC6\pdl\drivers\peripheral\ipc/cy_ipc_drv.h **** *   The return value is encoded as follows
 529:Generated_Source\PSoC6\pdl\drivers\peripheral\ipc/cy_ipc_drv.h **** *   <table>
 530:Generated_Source\PSoC6\pdl\drivers\peripheral\ipc/cy_ipc_drv.h **** *   <tr><th>Interrupt sources   <th>Value
 531:Generated_Source\PSoC6\pdl\drivers\peripheral\ipc/cy_ipc_drv.h **** *   <tr><td>Ipc_PORTX_RELEASE   <td>Xth bit set
 532:Generated_Source\PSoC6\pdl\drivers\peripheral\ipc/cy_ipc_drv.h **** *   <tr><td>Ipc_PORTX_NOTIFY    <td>X+16th bit set
 533:Generated_Source\PSoC6\pdl\drivers\peripheral\ipc/cy_ipc_drv.h **** *   </table>
 534:Generated_Source\PSoC6\pdl\drivers\peripheral\ipc/cy_ipc_drv.h **** *
 535:Generated_Source\PSoC6\pdl\drivers\peripheral\ipc/cy_ipc_drv.h **** * \funcusage
 536:Generated_Source\PSoC6\pdl\drivers\peripheral\ipc/cy_ipc_drv.h **** * \snippet IPC_sut_01.cydsn/main_cm4.c snippet_Cy_IPC_Drv_GetInterruptStatusMasked
 537:Generated_Source\PSoC6\pdl\drivers\peripheral\ipc/cy_ipc_drv.h **** *
 538:Generated_Source\PSoC6\pdl\drivers\peripheral\ipc/cy_ipc_drv.h **** *******************************************************************************/
 539:Generated_Source\PSoC6\pdl\drivers\peripheral\ipc/cy_ipc_drv.h **** __STATIC_INLINE uint32_t Cy_IPC_Drv_GetInterruptMask(IPC_INTR_STRUCT_Type const * base)
 540:Generated_Source\PSoC6\pdl\drivers\peripheral\ipc/cy_ipc_drv.h **** {
 541:Generated_Source\PSoC6\pdl\drivers\peripheral\ipc/cy_ipc_drv.h ****     return REG_IPC_INTR_STRUCT_INTR_MASK(base);
ARM GAS  C:\Users\Rolf\AppData\Local\Temp\ccUtnhQP.s 			page 37


 542:Generated_Source\PSoC6\pdl\drivers\peripheral\ipc/cy_ipc_drv.h **** }
 543:Generated_Source\PSoC6\pdl\drivers\peripheral\ipc/cy_ipc_drv.h **** 
 544:Generated_Source\PSoC6\pdl\drivers\peripheral\ipc/cy_ipc_drv.h **** 
 545:Generated_Source\PSoC6\pdl\drivers\peripheral\ipc/cy_ipc_drv.h **** /*******************************************************************************
 546:Generated_Source\PSoC6\pdl\drivers\peripheral\ipc/cy_ipc_drv.h **** * Function Name: Cy_IPC_Drv_GetInterruptStatusMasked
 547:Generated_Source\PSoC6\pdl\drivers\peripheral\ipc/cy_ipc_drv.h **** ****************************************************************************//**
 548:Generated_Source\PSoC6\pdl\drivers\peripheral\ipc/cy_ipc_drv.h **** *
 549:Generated_Source\PSoC6\pdl\drivers\peripheral\ipc/cy_ipc_drv.h **** * This function is used to read the active unmasked interrupt. This function
 550:Generated_Source\PSoC6\pdl\drivers\peripheral\ipc/cy_ipc_drv.h **** * can be used in the interrupt service routine to find which source triggered
 551:Generated_Source\PSoC6\pdl\drivers\peripheral\ipc/cy_ipc_drv.h **** * the interrupt.
 552:Generated_Source\PSoC6\pdl\drivers\peripheral\ipc/cy_ipc_drv.h **** *
 553:Generated_Source\PSoC6\pdl\drivers\peripheral\ipc/cy_ipc_drv.h **** * \param base
 554:Generated_Source\PSoC6\pdl\drivers\peripheral\ipc/cy_ipc_drv.h **** * This is a handle to the IPC interrupt. This handle can be calculated from the
 555:Generated_Source\PSoC6\pdl\drivers\peripheral\ipc/cy_ipc_drv.h **** * IPC interrupt number using \ref Cy_IPC_Drv_GetIntrBaseAddr.
 556:Generated_Source\PSoC6\pdl\drivers\peripheral\ipc/cy_ipc_drv.h **** *
 557:Generated_Source\PSoC6\pdl\drivers\peripheral\ipc/cy_ipc_drv.h **** * \return
 558:Generated_Source\PSoC6\pdl\drivers\peripheral\ipc/cy_ipc_drv.h **** *   The return value is encoded as follows
 559:Generated_Source\PSoC6\pdl\drivers\peripheral\ipc/cy_ipc_drv.h **** *   <table>
 560:Generated_Source\PSoC6\pdl\drivers\peripheral\ipc/cy_ipc_drv.h **** *   <tr><th>Interrupt sources   <th>Value
 561:Generated_Source\PSoC6\pdl\drivers\peripheral\ipc/cy_ipc_drv.h **** *   <tr><td>Ipc_PORTX_RELEASE   <td>Xth bit set
 562:Generated_Source\PSoC6\pdl\drivers\peripheral\ipc/cy_ipc_drv.h **** *   <tr><td>Ipc_PORTX_NOTIFY    <td>X+16th bit set
 563:Generated_Source\PSoC6\pdl\drivers\peripheral\ipc/cy_ipc_drv.h **** *   </table>
 564:Generated_Source\PSoC6\pdl\drivers\peripheral\ipc/cy_ipc_drv.h **** *
 565:Generated_Source\PSoC6\pdl\drivers\peripheral\ipc/cy_ipc_drv.h **** * \funcusage
 566:Generated_Source\PSoC6\pdl\drivers\peripheral\ipc/cy_ipc_drv.h **** * \snippet IPC_sut_01.cydsn/main_cm4.c snippet_Cy_IPC_Drv_GetInterruptStatusMasked
 567:Generated_Source\PSoC6\pdl\drivers\peripheral\ipc/cy_ipc_drv.h **** *
 568:Generated_Source\PSoC6\pdl\drivers\peripheral\ipc/cy_ipc_drv.h **** *******************************************************************************/
 569:Generated_Source\PSoC6\pdl\drivers\peripheral\ipc/cy_ipc_drv.h **** __STATIC_INLINE uint32_t Cy_IPC_Drv_GetInterruptStatusMasked (IPC_INTR_STRUCT_Type const * base)
 570:Generated_Source\PSoC6\pdl\drivers\peripheral\ipc/cy_ipc_drv.h **** {
 571:Generated_Source\PSoC6\pdl\drivers\peripheral\ipc/cy_ipc_drv.h ****     return REG_IPC_INTR_STRUCT_INTR_MASKED(base);
 572:Generated_Source\PSoC6\pdl\drivers\peripheral\ipc/cy_ipc_drv.h **** }
 573:Generated_Source\PSoC6\pdl\drivers\peripheral\ipc/cy_ipc_drv.h **** 
 574:Generated_Source\PSoC6\pdl\drivers\peripheral\ipc/cy_ipc_drv.h **** 
 575:Generated_Source\PSoC6\pdl\drivers\peripheral\ipc/cy_ipc_drv.h **** /*******************************************************************************
 576:Generated_Source\PSoC6\pdl\drivers\peripheral\ipc/cy_ipc_drv.h **** * Function Name: Cy_IPC_Drv_GetInterruptStatus
 577:Generated_Source\PSoC6\pdl\drivers\peripheral\ipc/cy_ipc_drv.h **** ****************************************************************************//**
 578:Generated_Source\PSoC6\pdl\drivers\peripheral\ipc/cy_ipc_drv.h **** *
 579:Generated_Source\PSoC6\pdl\drivers\peripheral\ipc/cy_ipc_drv.h **** * This function is used to read the pending interrupts. Note that this read is
 580:Generated_Source\PSoC6\pdl\drivers\peripheral\ipc/cy_ipc_drv.h **** * an unmasked read of the interrupt status. Interrupt sources read as active by
 581:Generated_Source\PSoC6\pdl\drivers\peripheral\ipc/cy_ipc_drv.h **** * this function would generate interrupts only if they were not masked.
 582:Generated_Source\PSoC6\pdl\drivers\peripheral\ipc/cy_ipc_drv.h **** *
 583:Generated_Source\PSoC6\pdl\drivers\peripheral\ipc/cy_ipc_drv.h **** * \param base
 584:Generated_Source\PSoC6\pdl\drivers\peripheral\ipc/cy_ipc_drv.h **** * This is a handle to the IPC interrupt. This handle can be calculated from the
 585:Generated_Source\PSoC6\pdl\drivers\peripheral\ipc/cy_ipc_drv.h **** * IPC interrupt number using \ref Cy_IPC_Drv_GetIntrBaseAddr.
 586:Generated_Source\PSoC6\pdl\drivers\peripheral\ipc/cy_ipc_drv.h **** *
 587:Generated_Source\PSoC6\pdl\drivers\peripheral\ipc/cy_ipc_drv.h **** * \return
 588:Generated_Source\PSoC6\pdl\drivers\peripheral\ipc/cy_ipc_drv.h **** *   The return value is encoded as follows
 589:Generated_Source\PSoC6\pdl\drivers\peripheral\ipc/cy_ipc_drv.h **** *   <table>
 590:Generated_Source\PSoC6\pdl\drivers\peripheral\ipc/cy_ipc_drv.h **** *   <tr><th>Interrupt sources   <th>Value
 591:Generated_Source\PSoC6\pdl\drivers\peripheral\ipc/cy_ipc_drv.h **** *   <tr><td>Ipc_PORTX_RELEASE   <td>Xth bit set
 592:Generated_Source\PSoC6\pdl\drivers\peripheral\ipc/cy_ipc_drv.h **** *   <tr><td>Ipc_PORTX_NOTIFY    <td>X+16th bit set
 593:Generated_Source\PSoC6\pdl\drivers\peripheral\ipc/cy_ipc_drv.h **** *   </table>
 594:Generated_Source\PSoC6\pdl\drivers\peripheral\ipc/cy_ipc_drv.h **** *
 595:Generated_Source\PSoC6\pdl\drivers\peripheral\ipc/cy_ipc_drv.h **** * \funcusage
 596:Generated_Source\PSoC6\pdl\drivers\peripheral\ipc/cy_ipc_drv.h **** * \snippet IPC_sut_01.cydsn/main_cm4.c snippet_Cy_IPC_Drv_GetInterruptStatus
 597:Generated_Source\PSoC6\pdl\drivers\peripheral\ipc/cy_ipc_drv.h **** *
 598:Generated_Source\PSoC6\pdl\drivers\peripheral\ipc/cy_ipc_drv.h **** *******************************************************************************/
ARM GAS  C:\Users\Rolf\AppData\Local\Temp\ccUtnhQP.s 			page 38


 599:Generated_Source\PSoC6\pdl\drivers\peripheral\ipc/cy_ipc_drv.h **** __STATIC_INLINE uint32_t Cy_IPC_Drv_GetInterruptStatus(IPC_INTR_STRUCT_Type const * base)
 600:Generated_Source\PSoC6\pdl\drivers\peripheral\ipc/cy_ipc_drv.h **** {
 601:Generated_Source\PSoC6\pdl\drivers\peripheral\ipc/cy_ipc_drv.h ****     return REG_IPC_INTR_STRUCT_INTR(base);
 602:Generated_Source\PSoC6\pdl\drivers\peripheral\ipc/cy_ipc_drv.h **** }
 603:Generated_Source\PSoC6\pdl\drivers\peripheral\ipc/cy_ipc_drv.h **** 
 604:Generated_Source\PSoC6\pdl\drivers\peripheral\ipc/cy_ipc_drv.h **** 
 605:Generated_Source\PSoC6\pdl\drivers\peripheral\ipc/cy_ipc_drv.h **** /*******************************************************************************
 606:Generated_Source\PSoC6\pdl\drivers\peripheral\ipc/cy_ipc_drv.h **** * Function Name: Cy_IPC_Drv_SetInterrupt
 607:Generated_Source\PSoC6\pdl\drivers\peripheral\ipc/cy_ipc_drv.h **** ****************************************************************************//**
 608:Generated_Source\PSoC6\pdl\drivers\peripheral\ipc/cy_ipc_drv.h **** *
 609:Generated_Source\PSoC6\pdl\drivers\peripheral\ipc/cy_ipc_drv.h **** * This function is used to set the interrupt source. This function can be used
 610:Generated_Source\PSoC6\pdl\drivers\peripheral\ipc/cy_ipc_drv.h **** * to activate interrupts through software.
 611:Generated_Source\PSoC6\pdl\drivers\peripheral\ipc/cy_ipc_drv.h **** * \note That interrupt sources set using this interrupt would generate interrupts
 612:Generated_Source\PSoC6\pdl\drivers\peripheral\ipc/cy_ipc_drv.h **** * only if they are not masked.
 613:Generated_Source\PSoC6\pdl\drivers\peripheral\ipc/cy_ipc_drv.h **** *
 614:Generated_Source\PSoC6\pdl\drivers\peripheral\ipc/cy_ipc_drv.h **** * \param base
 615:Generated_Source\PSoC6\pdl\drivers\peripheral\ipc/cy_ipc_drv.h **** * This is a handle to the IPC interrupt. This handle can be calculated from the
 616:Generated_Source\PSoC6\pdl\drivers\peripheral\ipc/cy_ipc_drv.h **** * IPC interrupt number using \ref Cy_IPC_Drv_GetIntrBaseAddr.
 617:Generated_Source\PSoC6\pdl\drivers\peripheral\ipc/cy_ipc_drv.h **** *
 618:Generated_Source\PSoC6\pdl\drivers\peripheral\ipc/cy_ipc_drv.h **** * \param ipcReleaseMask
 619:Generated_Source\PSoC6\pdl\drivers\peripheral\ipc/cy_ipc_drv.h **** * An encoded list of all IPC channels that can trigger the interrupt on a
 620:Generated_Source\PSoC6\pdl\drivers\peripheral\ipc/cy_ipc_drv.h **** * release event.
 621:Generated_Source\PSoC6\pdl\drivers\peripheral\ipc/cy_ipc_drv.h **** *
 622:Generated_Source\PSoC6\pdl\drivers\peripheral\ipc/cy_ipc_drv.h **** * \param ipcAcquireMask
 623:Generated_Source\PSoC6\pdl\drivers\peripheral\ipc/cy_ipc_drv.h **** * An encoded list of all IPC channels that can trigger the interrupt on a
 624:Generated_Source\PSoC6\pdl\drivers\peripheral\ipc/cy_ipc_drv.h **** * notify event.
 625:Generated_Source\PSoC6\pdl\drivers\peripheral\ipc/cy_ipc_drv.h **** *
 626:Generated_Source\PSoC6\pdl\drivers\peripheral\ipc/cy_ipc_drv.h **** * \funcusage
 627:Generated_Source\PSoC6\pdl\drivers\peripheral\ipc/cy_ipc_drv.h **** * \snippet IPC_sut_01.cydsn/main_cm4.c snippet_Cy_IPC_Drv_SetInterrupt
 628:Generated_Source\PSoC6\pdl\drivers\peripheral\ipc/cy_ipc_drv.h **** *
 629:Generated_Source\PSoC6\pdl\drivers\peripheral\ipc/cy_ipc_drv.h **** *******************************************************************************/
 630:Generated_Source\PSoC6\pdl\drivers\peripheral\ipc/cy_ipc_drv.h **** __STATIC_INLINE void  Cy_IPC_Drv_SetInterrupt(IPC_INTR_STRUCT_Type* base, uint32_t ipcReleaseMask, 
 631:Generated_Source\PSoC6\pdl\drivers\peripheral\ipc/cy_ipc_drv.h **** {
 632:Generated_Source\PSoC6\pdl\drivers\peripheral\ipc/cy_ipc_drv.h ****     CY_ASSERT_L1(0ul == (ipcAcquireMask  & ~(uint32_t)(IPC_STRUCT_NOTIFY_INTR_NOTIFY_Msk)));
 633:Generated_Source\PSoC6\pdl\drivers\peripheral\ipc/cy_ipc_drv.h ****     CY_ASSERT_L1(0ul == (ipcReleaseMask & ~(uint32_t)(IPC_STRUCT_RELEASE_INTR_RELEASE_Msk)));
 634:Generated_Source\PSoC6\pdl\drivers\peripheral\ipc/cy_ipc_drv.h ****     REG_IPC_INTR_STRUCT_INTR_SET(base) =  _VAL2FLD( IPC_INTR_STRUCT_INTR_NOTIFY,  ipcAcquireMask ) 
 635:Generated_Source\PSoC6\pdl\drivers\peripheral\ipc/cy_ipc_drv.h ****                       _VAL2FLD( IPC_INTR_STRUCT_INTR_RELEASE, ipcReleaseMask );
 636:Generated_Source\PSoC6\pdl\drivers\peripheral\ipc/cy_ipc_drv.h **** }
 637:Generated_Source\PSoC6\pdl\drivers\peripheral\ipc/cy_ipc_drv.h **** 
 638:Generated_Source\PSoC6\pdl\drivers\peripheral\ipc/cy_ipc_drv.h **** 
 639:Generated_Source\PSoC6\pdl\drivers\peripheral\ipc/cy_ipc_drv.h **** /*******************************************************************************
 640:Generated_Source\PSoC6\pdl\drivers\peripheral\ipc/cy_ipc_drv.h **** * Function Name: Cy_IPC_Drv_ClearInterrupt
 641:Generated_Source\PSoC6\pdl\drivers\peripheral\ipc/cy_ipc_drv.h **** ****************************************************************************//**
 642:Generated_Source\PSoC6\pdl\drivers\peripheral\ipc/cy_ipc_drv.h **** *
 643:Generated_Source\PSoC6\pdl\drivers\peripheral\ipc/cy_ipc_drv.h **** * This function is used to clear the interrupt source. Use this function to clear
 644:Generated_Source\PSoC6\pdl\drivers\peripheral\ipc/cy_ipc_drv.h **** * a pending interrupt source in the interrupt status.
 645:Generated_Source\PSoC6\pdl\drivers\peripheral\ipc/cy_ipc_drv.h **** *
 646:Generated_Source\PSoC6\pdl\drivers\peripheral\ipc/cy_ipc_drv.h **** * \param base
 647:Generated_Source\PSoC6\pdl\drivers\peripheral\ipc/cy_ipc_drv.h **** * This is a handle to the IPC interrupt. This handle can be calculated from the
 648:Generated_Source\PSoC6\pdl\drivers\peripheral\ipc/cy_ipc_drv.h **** * IPC interrupt number using \ref Cy_IPC_Drv_GetIntrBaseAddr.
 649:Generated_Source\PSoC6\pdl\drivers\peripheral\ipc/cy_ipc_drv.h **** *
 650:Generated_Source\PSoC6\pdl\drivers\peripheral\ipc/cy_ipc_drv.h **** * \param ipcReleaseMask
 651:Generated_Source\PSoC6\pdl\drivers\peripheral\ipc/cy_ipc_drv.h **** * An encoded list of all IPC channels that can trigger the interrupt on a
 652:Generated_Source\PSoC6\pdl\drivers\peripheral\ipc/cy_ipc_drv.h **** * release event.
 653:Generated_Source\PSoC6\pdl\drivers\peripheral\ipc/cy_ipc_drv.h **** *
 654:Generated_Source\PSoC6\pdl\drivers\peripheral\ipc/cy_ipc_drv.h **** * \param ipcAcquireMask
 655:Generated_Source\PSoC6\pdl\drivers\peripheral\ipc/cy_ipc_drv.h **** * An encoded list of all IPC channels that can trigger the interrupt on a
ARM GAS  C:\Users\Rolf\AppData\Local\Temp\ccUtnhQP.s 			page 39


 656:Generated_Source\PSoC6\pdl\drivers\peripheral\ipc/cy_ipc_drv.h **** * notify event.
 657:Generated_Source\PSoC6\pdl\drivers\peripheral\ipc/cy_ipc_drv.h **** *
 658:Generated_Source\PSoC6\pdl\drivers\peripheral\ipc/cy_ipc_drv.h **** * \funcusage
 659:Generated_Source\PSoC6\pdl\drivers\peripheral\ipc/cy_ipc_drv.h **** * \snippet IPC_sut_01.cydsn/main_cm4.c snippet_Cy_IPC_Drv_GetInterruptStatusMasked
 660:Generated_Source\PSoC6\pdl\drivers\peripheral\ipc/cy_ipc_drv.h **** *
 661:Generated_Source\PSoC6\pdl\drivers\peripheral\ipc/cy_ipc_drv.h **** *******************************************************************************/
 662:Generated_Source\PSoC6\pdl\drivers\peripheral\ipc/cy_ipc_drv.h **** __STATIC_INLINE void  Cy_IPC_Drv_ClearInterrupt(IPC_INTR_STRUCT_Type* base, uint32_t ipcReleaseMask
 663:Generated_Source\PSoC6\pdl\drivers\peripheral\ipc/cy_ipc_drv.h **** {
 664:Generated_Source\PSoC6\pdl\drivers\peripheral\ipc/cy_ipc_drv.h ****     CY_ASSERT_L1(0ul == (ipcAcquireMask  & ~(uint32_t)(IPC_STRUCT_NOTIFY_INTR_NOTIFY_Msk)));
 665:Generated_Source\PSoC6\pdl\drivers\peripheral\ipc/cy_ipc_drv.h ****     CY_ASSERT_L1(0ul == (ipcReleaseMask & ~(uint32_t)(IPC_STRUCT_RELEASE_INTR_RELEASE_Msk)));
 666:Generated_Source\PSoC6\pdl\drivers\peripheral\ipc/cy_ipc_drv.h ****     REG_IPC_INTR_STRUCT_INTR(base) =  _VAL2FLD(IPC_INTR_STRUCT_INTR_NOTIFY,  ipcAcquireMask) |
 667:Generated_Source\PSoC6\pdl\drivers\peripheral\ipc/cy_ipc_drv.h ****                   _VAL2FLD(IPC_INTR_STRUCT_INTR_RELEASE, ipcReleaseMask);
 668:Generated_Source\PSoC6\pdl\drivers\peripheral\ipc/cy_ipc_drv.h ****     (void)REG_IPC_INTR_STRUCT_INTR(base);  /* Read the register to flush the cache */
 669:Generated_Source\PSoC6\pdl\drivers\peripheral\ipc/cy_ipc_drv.h **** }
 670:Generated_Source\PSoC6\pdl\drivers\peripheral\ipc/cy_ipc_drv.h **** 
 671:Generated_Source\PSoC6\pdl\drivers\peripheral\ipc/cy_ipc_drv.h **** /** \} group_ipc_functions */
 672:Generated_Source\PSoC6\pdl\drivers\peripheral\ipc/cy_ipc_drv.h **** 
 673:Generated_Source\PSoC6\pdl\drivers\peripheral\ipc/cy_ipc_drv.h **** /** \} group_ipc */
 674:Generated_Source\PSoC6\pdl\drivers\peripheral\ipc/cy_ipc_drv.h **** 
 675:Generated_Source\PSoC6\pdl\drivers\peripheral\ipc/cy_ipc_drv.h **** 
 676:Generated_Source\PSoC6\pdl\drivers\peripheral\ipc/cy_ipc_drv.h **** /*******************************************************************************
 677:Generated_Source\PSoC6\pdl\drivers\peripheral\ipc/cy_ipc_drv.h **** * Function Name: Cy_IPC_Drv_AcquireNotify
 678:Generated_Source\PSoC6\pdl\drivers\peripheral\ipc/cy_ipc_drv.h **** ****************************************************************************//**
 679:Generated_Source\PSoC6\pdl\drivers\peripheral\ipc/cy_ipc_drv.h **** *
 680:Generated_Source\PSoC6\pdl\drivers\peripheral\ipc/cy_ipc_drv.h **** * The function generates a acquire notification event by IPC interrupt structure.
 681:Generated_Source\PSoC6\pdl\drivers\peripheral\ipc/cy_ipc_drv.h **** *
 682:Generated_Source\PSoC6\pdl\drivers\peripheral\ipc/cy_ipc_drv.h **** * \param base
 683:Generated_Source\PSoC6\pdl\drivers\peripheral\ipc/cy_ipc_drv.h **** * This parameter is a handle that represents the base address of the registers
 684:Generated_Source\PSoC6\pdl\drivers\peripheral\ipc/cy_ipc_drv.h **** * of the IPC channel.
 685:Generated_Source\PSoC6\pdl\drivers\peripheral\ipc/cy_ipc_drv.h **** * The parameter is generally returned from a call to the \ref
 686:Generated_Source\PSoC6\pdl\drivers\peripheral\ipc/cy_ipc_drv.h **** * Cy_IPC_Drv_GetIpcBaseAddress.
 687:Generated_Source\PSoC6\pdl\drivers\peripheral\ipc/cy_ipc_drv.h **** *
 688:Generated_Source\PSoC6\pdl\drivers\peripheral\ipc/cy_ipc_drv.h **** * \param notifyEventIntr
 689:Generated_Source\PSoC6\pdl\drivers\peripheral\ipc/cy_ipc_drv.h **** * Bit encoded list of IPC interrupt structures that are triggered
 690:Generated_Source\PSoC6\pdl\drivers\peripheral\ipc/cy_ipc_drv.h **** * by a notification. Bit number correspond to number of the IPC interrupt
 691:Generated_Source\PSoC6\pdl\drivers\peripheral\ipc/cy_ipc_drv.h **** * structure.
 692:Generated_Source\PSoC6\pdl\drivers\peripheral\ipc/cy_ipc_drv.h **** *
 693:Generated_Source\PSoC6\pdl\drivers\peripheral\ipc/cy_ipc_drv.h **** * \funcusage
 694:Generated_Source\PSoC6\pdl\drivers\peripheral\ipc/cy_ipc_drv.h **** * \snippet IPC_sut_01.cydsn/main_cm4.c snippet_Cy_IPC_Drv_LockAcquire
 695:Generated_Source\PSoC6\pdl\drivers\peripheral\ipc/cy_ipc_drv.h **** *
 696:Generated_Source\PSoC6\pdl\drivers\peripheral\ipc/cy_ipc_drv.h **** *******************************************************************************/
 697:Generated_Source\PSoC6\pdl\drivers\peripheral\ipc/cy_ipc_drv.h **** __STATIC_INLINE void  Cy_IPC_Drv_AcquireNotify (IPC_STRUCT_Type* base, uint32_t notifyEventIntr)
 698:Generated_Source\PSoC6\pdl\drivers\peripheral\ipc/cy_ipc_drv.h **** {
 699:Generated_Source\PSoC6\pdl\drivers\peripheral\ipc/cy_ipc_drv.h ****     CY_ASSERT_L1(0ul == (notifyEventIntr  & ~(uint32_t)(IPC_STRUCT_NOTIFY_INTR_NOTIFY_Msk)));
 700:Generated_Source\PSoC6\pdl\drivers\peripheral\ipc/cy_ipc_drv.h ****     REG_IPC_STRUCT_NOTIFY(base) = _VAL2FLD(IPC_STRUCT_NOTIFY_INTR_NOTIFY, notifyEventIntr);
 701:Generated_Source\PSoC6\pdl\drivers\peripheral\ipc/cy_ipc_drv.h **** }
 702:Generated_Source\PSoC6\pdl\drivers\peripheral\ipc/cy_ipc_drv.h **** 
 703:Generated_Source\PSoC6\pdl\drivers\peripheral\ipc/cy_ipc_drv.h **** 
 704:Generated_Source\PSoC6\pdl\drivers\peripheral\ipc/cy_ipc_drv.h **** /*******************************************************************************
 705:Generated_Source\PSoC6\pdl\drivers\peripheral\ipc/cy_ipc_drv.h **** * Function Name: Cy_IPC_Drv_ReleaseNotify
 706:Generated_Source\PSoC6\pdl\drivers\peripheral\ipc/cy_ipc_drv.h **** ****************************************************************************//**
 707:Generated_Source\PSoC6\pdl\drivers\peripheral\ipc/cy_ipc_drv.h **** *
 708:Generated_Source\PSoC6\pdl\drivers\peripheral\ipc/cy_ipc_drv.h **** * The function generates a release notification event by IPC interrupt structure.
 709:Generated_Source\PSoC6\pdl\drivers\peripheral\ipc/cy_ipc_drv.h **** *
 710:Generated_Source\PSoC6\pdl\drivers\peripheral\ipc/cy_ipc_drv.h **** * \param base
 711:Generated_Source\PSoC6\pdl\drivers\peripheral\ipc/cy_ipc_drv.h **** * This parameter is a handle that represents the base address of the registers
 712:Generated_Source\PSoC6\pdl\drivers\peripheral\ipc/cy_ipc_drv.h **** * of the IPC channel.
ARM GAS  C:\Users\Rolf\AppData\Local\Temp\ccUtnhQP.s 			page 40


 713:Generated_Source\PSoC6\pdl\drivers\peripheral\ipc/cy_ipc_drv.h **** * The parameter is generally returned from a call to the \ref
 714:Generated_Source\PSoC6\pdl\drivers\peripheral\ipc/cy_ipc_drv.h **** * Cy_IPC_Drv_GetIpcBaseAddress.
 715:Generated_Source\PSoC6\pdl\drivers\peripheral\ipc/cy_ipc_drv.h **** *
 716:Generated_Source\PSoC6\pdl\drivers\peripheral\ipc/cy_ipc_drv.h **** * \param notifyEventIntr
 717:Generated_Source\PSoC6\pdl\drivers\peripheral\ipc/cy_ipc_drv.h **** * Bit encoded list of IPC interrupt lines that are triggered by a notification.
 718:Generated_Source\PSoC6\pdl\drivers\peripheral\ipc/cy_ipc_drv.h **** *
 719:Generated_Source\PSoC6\pdl\drivers\peripheral\ipc/cy_ipc_drv.h **** * \funcusage
 720:Generated_Source\PSoC6\pdl\drivers\peripheral\ipc/cy_ipc_drv.h **** * \snippet IPC_sut_01.cydsn/main_cm4.c snippet_Cy_IPC_Drv_ReadMsgWord
 721:Generated_Source\PSoC6\pdl\drivers\peripheral\ipc/cy_ipc_drv.h **** *
 722:Generated_Source\PSoC6\pdl\drivers\peripheral\ipc/cy_ipc_drv.h **** *******************************************************************************/
 723:Generated_Source\PSoC6\pdl\drivers\peripheral\ipc/cy_ipc_drv.h **** __STATIC_INLINE void  Cy_IPC_Drv_ReleaseNotify (IPC_STRUCT_Type* base, uint32_t notifyEventIntr)
 724:Generated_Source\PSoC6\pdl\drivers\peripheral\ipc/cy_ipc_drv.h **** {
 725:Generated_Source\PSoC6\pdl\drivers\peripheral\ipc/cy_ipc_drv.h ****     CY_ASSERT_L1(0ul == (notifyEventIntr  & ~(uint32_t)(IPC_INTR_STRUCT_INTR_RELEASE_Msk)));
 726:Generated_Source\PSoC6\pdl\drivers\peripheral\ipc/cy_ipc_drv.h ****     REG_IPC_STRUCT_RELEASE(base) = _VAL2FLD(IPC_INTR_STRUCT_INTR_RELEASE, notifyEventIntr);
 727:Generated_Source\PSoC6\pdl\drivers\peripheral\ipc/cy_ipc_drv.h **** }
 728:Generated_Source\PSoC6\pdl\drivers\peripheral\ipc/cy_ipc_drv.h **** 
 729:Generated_Source\PSoC6\pdl\drivers\peripheral\ipc/cy_ipc_drv.h **** 
 730:Generated_Source\PSoC6\pdl\drivers\peripheral\ipc/cy_ipc_drv.h **** /*******************************************************************************
 731:Generated_Source\PSoC6\pdl\drivers\peripheral\ipc/cy_ipc_drv.h **** * Function Name: Cy_IPC_Drv_WriteDataValue
 732:Generated_Source\PSoC6\pdl\drivers\peripheral\ipc/cy_ipc_drv.h **** ****************************************************************************//**
 733:Generated_Source\PSoC6\pdl\drivers\peripheral\ipc/cy_ipc_drv.h **** *
 734:Generated_Source\PSoC6\pdl\drivers\peripheral\ipc/cy_ipc_drv.h **** * The function writes a value to the DATA register of the IPC channel.
 735:Generated_Source\PSoC6\pdl\drivers\peripheral\ipc/cy_ipc_drv.h **** *
 736:Generated_Source\PSoC6\pdl\drivers\peripheral\ipc/cy_ipc_drv.h **** * This function is internal and should not be called directly by user
 737:Generated_Source\PSoC6\pdl\drivers\peripheral\ipc/cy_ipc_drv.h **** * software.
 738:Generated_Source\PSoC6\pdl\drivers\peripheral\ipc/cy_ipc_drv.h **** *
 739:Generated_Source\PSoC6\pdl\drivers\peripheral\ipc/cy_ipc_drv.h **** * \param base
 740:Generated_Source\PSoC6\pdl\drivers\peripheral\ipc/cy_ipc_drv.h **** * This parameter is a handle that represents the base address of the registers
 741:Generated_Source\PSoC6\pdl\drivers\peripheral\ipc/cy_ipc_drv.h **** * of the IPC channel.
 742:Generated_Source\PSoC6\pdl\drivers\peripheral\ipc/cy_ipc_drv.h **** * The parameter is generally returned from a call to the \ref
 743:Generated_Source\PSoC6\pdl\drivers\peripheral\ipc/cy_ipc_drv.h **** * Cy_IPC_Drv_GetIpcBaseAddress.
 744:Generated_Source\PSoC6\pdl\drivers\peripheral\ipc/cy_ipc_drv.h **** *
 745:Generated_Source\PSoC6\pdl\drivers\peripheral\ipc/cy_ipc_drv.h **** * \param dataValue
 746:Generated_Source\PSoC6\pdl\drivers\peripheral\ipc/cy_ipc_drv.h **** * Value to be written.
 747:Generated_Source\PSoC6\pdl\drivers\peripheral\ipc/cy_ipc_drv.h **** *
 748:Generated_Source\PSoC6\pdl\drivers\peripheral\ipc/cy_ipc_drv.h **** *******************************************************************************/
 749:Generated_Source\PSoC6\pdl\drivers\peripheral\ipc/cy_ipc_drv.h **** __STATIC_INLINE void     Cy_IPC_Drv_WriteDataValue (IPC_STRUCT_Type* base, uint32_t dataValue)
 750:Generated_Source\PSoC6\pdl\drivers\peripheral\ipc/cy_ipc_drv.h **** {
 751:Generated_Source\PSoC6\pdl\drivers\peripheral\ipc/cy_ipc_drv.h ****     REG_IPC_STRUCT_DATA(base) = dataValue;
 752:Generated_Source\PSoC6\pdl\drivers\peripheral\ipc/cy_ipc_drv.h **** }
 753:Generated_Source\PSoC6\pdl\drivers\peripheral\ipc/cy_ipc_drv.h **** 
 754:Generated_Source\PSoC6\pdl\drivers\peripheral\ipc/cy_ipc_drv.h **** 
 755:Generated_Source\PSoC6\pdl\drivers\peripheral\ipc/cy_ipc_drv.h **** /*******************************************************************************
 756:Generated_Source\PSoC6\pdl\drivers\peripheral\ipc/cy_ipc_drv.h **** * Function Name: Cy_IPC_Drv_ReadDataValue
 757:Generated_Source\PSoC6\pdl\drivers\peripheral\ipc/cy_ipc_drv.h **** ****************************************************************************//**
 758:Generated_Source\PSoC6\pdl\drivers\peripheral\ipc/cy_ipc_drv.h **** *
 759:Generated_Source\PSoC6\pdl\drivers\peripheral\ipc/cy_ipc_drv.h **** * The function reads a value from the DATA register of the IPC channel.
 760:Generated_Source\PSoC6\pdl\drivers\peripheral\ipc/cy_ipc_drv.h **** *
 761:Generated_Source\PSoC6\pdl\drivers\peripheral\ipc/cy_ipc_drv.h **** * This function is internal and should not be called directly by user
 762:Generated_Source\PSoC6\pdl\drivers\peripheral\ipc/cy_ipc_drv.h **** * software.
 763:Generated_Source\PSoC6\pdl\drivers\peripheral\ipc/cy_ipc_drv.h **** *
 764:Generated_Source\PSoC6\pdl\drivers\peripheral\ipc/cy_ipc_drv.h **** * \param base
 765:Generated_Source\PSoC6\pdl\drivers\peripheral\ipc/cy_ipc_drv.h **** * This parameter is a handle that represents the base address of the registers
 766:Generated_Source\PSoC6\pdl\drivers\peripheral\ipc/cy_ipc_drv.h **** * of the IPC channel.
 767:Generated_Source\PSoC6\pdl\drivers\peripheral\ipc/cy_ipc_drv.h **** * The parameter is generally returned from a call to the \ref
 768:Generated_Source\PSoC6\pdl\drivers\peripheral\ipc/cy_ipc_drv.h **** * Cy_IPC_Drv_GetIpcBaseAddress.
 769:Generated_Source\PSoC6\pdl\drivers\peripheral\ipc/cy_ipc_drv.h **** *
ARM GAS  C:\Users\Rolf\AppData\Local\Temp\ccUtnhQP.s 			page 41


 770:Generated_Source\PSoC6\pdl\drivers\peripheral\ipc/cy_ipc_drv.h **** * \return
 771:Generated_Source\PSoC6\pdl\drivers\peripheral\ipc/cy_ipc_drv.h **** * Value from DATA register.
 772:Generated_Source\PSoC6\pdl\drivers\peripheral\ipc/cy_ipc_drv.h **** *
 773:Generated_Source\PSoC6\pdl\drivers\peripheral\ipc/cy_ipc_drv.h **** *******************************************************************************/
 774:Generated_Source\PSoC6\pdl\drivers\peripheral\ipc/cy_ipc_drv.h **** __STATIC_INLINE uint32_t Cy_IPC_Drv_ReadDataValue (IPC_STRUCT_Type const * base)
 775:Generated_Source\PSoC6\pdl\drivers\peripheral\ipc/cy_ipc_drv.h **** {
 776:Generated_Source\PSoC6\pdl\drivers\peripheral\ipc/cy_ipc_drv.h ****     return REG_IPC_STRUCT_DATA(base);
 777:Generated_Source\PSoC6\pdl\drivers\peripheral\ipc/cy_ipc_drv.h **** }
 778:Generated_Source\PSoC6\pdl\drivers\peripheral\ipc/cy_ipc_drv.h **** 
 779:Generated_Source\PSoC6\pdl\drivers\peripheral\ipc/cy_ipc_drv.h **** 
 780:Generated_Source\PSoC6\pdl\drivers\peripheral\ipc/cy_ipc_drv.h **** /*******************************************************************************
 781:Generated_Source\PSoC6\pdl\drivers\peripheral\ipc/cy_ipc_drv.h **** * Function Name: Cy_IPC_Drv_IsLockAcquired
 782:Generated_Source\PSoC6\pdl\drivers\peripheral\ipc/cy_ipc_drv.h **** ****************************************************************************//**
 783:Generated_Source\PSoC6\pdl\drivers\peripheral\ipc/cy_ipc_drv.h **** *
 784:Generated_Source\PSoC6\pdl\drivers\peripheral\ipc/cy_ipc_drv.h **** * The function is used to test the status of an IPC channel. The function
 785:Generated_Source\PSoC6\pdl\drivers\peripheral\ipc/cy_ipc_drv.h **** * tells the reader if the IPC channel was in the locked or released state.
 786:Generated_Source\PSoC6\pdl\drivers\peripheral\ipc/cy_ipc_drv.h **** *
 787:Generated_Source\PSoC6\pdl\drivers\peripheral\ipc/cy_ipc_drv.h **** * \param base
 788:Generated_Source\PSoC6\pdl\drivers\peripheral\ipc/cy_ipc_drv.h **** * This parameter is a handle that represents the base address of the registers
 789:Generated_Source\PSoC6\pdl\drivers\peripheral\ipc/cy_ipc_drv.h **** * of the IPC channel.
 790:Generated_Source\PSoC6\pdl\drivers\peripheral\ipc/cy_ipc_drv.h **** * The parameter is generally returned from a call to the \ref
 791:Generated_Source\PSoC6\pdl\drivers\peripheral\ipc/cy_ipc_drv.h **** * Cy_IPC_Drv_GetIpcBaseAddress.
 792:Generated_Source\PSoC6\pdl\drivers\peripheral\ipc/cy_ipc_drv.h **** *
 793:Generated_Source\PSoC6\pdl\drivers\peripheral\ipc/cy_ipc_drv.h **** * \return
 794:Generated_Source\PSoC6\pdl\drivers\peripheral\ipc/cy_ipc_drv.h **** *   Status for the function:
 795:Generated_Source\PSoC6\pdl\drivers\peripheral\ipc/cy_ipc_drv.h **** *   true:  The IPC channel is in the Locked state.
 796:Generated_Source\PSoC6\pdl\drivers\peripheral\ipc/cy_ipc_drv.h **** *   false: The IPC channel is in the Released state.
 797:Generated_Source\PSoC6\pdl\drivers\peripheral\ipc/cy_ipc_drv.h **** *
 798:Generated_Source\PSoC6\pdl\drivers\peripheral\ipc/cy_ipc_drv.h **** * \funcusage
 799:Generated_Source\PSoC6\pdl\drivers\peripheral\ipc/cy_ipc_drv.h **** * \snippet IPC_sut_01.cydsn/main_cm4.c snippet_Cy_IPC_Drv_LockAcquire
 800:Generated_Source\PSoC6\pdl\drivers\peripheral\ipc/cy_ipc_drv.h **** *
 801:Generated_Source\PSoC6\pdl\drivers\peripheral\ipc/cy_ipc_drv.h **** *******************************************************************************/
 802:Generated_Source\PSoC6\pdl\drivers\peripheral\ipc/cy_ipc_drv.h **** __STATIC_INLINE bool Cy_IPC_Drv_IsLockAcquired (IPC_STRUCT_Type const * base)
 803:Generated_Source\PSoC6\pdl\drivers\peripheral\ipc/cy_ipc_drv.h **** {
 804:Generated_Source\PSoC6\pdl\drivers\peripheral\ipc/cy_ipc_drv.h ****     return ( 0u != _FLD2VAL(IPC_STRUCT_ACQUIRE_SUCCESS, REG_IPC_STRUCT_LOCK_STATUS(base)) );
 805:Generated_Source\PSoC6\pdl\drivers\peripheral\ipc/cy_ipc_drv.h **** }
 806:Generated_Source\PSoC6\pdl\drivers\peripheral\ipc/cy_ipc_drv.h **** 
 807:Generated_Source\PSoC6\pdl\drivers\peripheral\ipc/cy_ipc_drv.h **** 
 808:Generated_Source\PSoC6\pdl\drivers\peripheral\ipc/cy_ipc_drv.h **** /*******************************************************************************
 809:Generated_Source\PSoC6\pdl\drivers\peripheral\ipc/cy_ipc_drv.h **** * Function Name: Cy_IPC_Drv_GetLockStatus
 810:Generated_Source\PSoC6\pdl\drivers\peripheral\ipc/cy_ipc_drv.h **** ****************************************************************************//**
 811:Generated_Source\PSoC6\pdl\drivers\peripheral\ipc/cy_ipc_drv.h **** *
 812:Generated_Source\PSoC6\pdl\drivers\peripheral\ipc/cy_ipc_drv.h **** * The function is used to get the status of an IPC channel.
 813:Generated_Source\PSoC6\pdl\drivers\peripheral\ipc/cy_ipc_drv.h **** *
 814:Generated_Source\PSoC6\pdl\drivers\peripheral\ipc/cy_ipc_drv.h **** * \param base
 815:Generated_Source\PSoC6\pdl\drivers\peripheral\ipc/cy_ipc_drv.h **** * This parameter is a handle that represents the base address of the registers
 816:Generated_Source\PSoC6\pdl\drivers\peripheral\ipc/cy_ipc_drv.h **** * of the IPC channel.
 817:Generated_Source\PSoC6\pdl\drivers\peripheral\ipc/cy_ipc_drv.h **** * The parameter is generally returned from a call to the \ref
 818:Generated_Source\PSoC6\pdl\drivers\peripheral\ipc/cy_ipc_drv.h **** * Cy_IPC_Drv_GetIpcBaseAddress.
 819:Generated_Source\PSoC6\pdl\drivers\peripheral\ipc/cy_ipc_drv.h **** *
 820:Generated_Source\PSoC6\pdl\drivers\peripheral\ipc/cy_ipc_drv.h **** * \return
 821:Generated_Source\PSoC6\pdl\drivers\peripheral\ipc/cy_ipc_drv.h **** * Value from LOCK_STATUS register.
 822:Generated_Source\PSoC6\pdl\drivers\peripheral\ipc/cy_ipc_drv.h **** *
 823:Generated_Source\PSoC6\pdl\drivers\peripheral\ipc/cy_ipc_drv.h **** * \funcusage
 824:Generated_Source\PSoC6\pdl\drivers\peripheral\ipc/cy_ipc_drv.h **** * \snippet IPC_sut_01.cydsn/main_cm4.c snippet_Cy_IPC_Drv_GetLockStatus
 825:Generated_Source\PSoC6\pdl\drivers\peripheral\ipc/cy_ipc_drv.h **** *
 826:Generated_Source\PSoC6\pdl\drivers\peripheral\ipc/cy_ipc_drv.h **** *******************************************************************************/
ARM GAS  C:\Users\Rolf\AppData\Local\Temp\ccUtnhQP.s 			page 42


 827:Generated_Source\PSoC6\pdl\drivers\peripheral\ipc/cy_ipc_drv.h **** __STATIC_INLINE uint32_t Cy_IPC_Drv_GetLockStatus (IPC_STRUCT_Type const * base)
 828:Generated_Source\PSoC6\pdl\drivers\peripheral\ipc/cy_ipc_drv.h **** {
 829:Generated_Source\PSoC6\pdl\drivers\peripheral\ipc/cy_ipc_drv.h ****     return REG_IPC_STRUCT_LOCK_STATUS(base);
 830:Generated_Source\PSoC6\pdl\drivers\peripheral\ipc/cy_ipc_drv.h **** }
 831:Generated_Source\PSoC6\pdl\drivers\peripheral\ipc/cy_ipc_drv.h **** 
 832:Generated_Source\PSoC6\pdl\drivers\peripheral\ipc/cy_ipc_drv.h **** 
 833:Generated_Source\PSoC6\pdl\drivers\peripheral\ipc/cy_ipc_drv.h **** /*******************************************************************************
 834:Generated_Source\PSoC6\pdl\drivers\peripheral\ipc/cy_ipc_drv.h **** * Function Name: Cy_IPC_Drv_ExtractAcquireMask
 835:Generated_Source\PSoC6\pdl\drivers\peripheral\ipc/cy_ipc_drv.h **** ****************************************************************************//**
 836:Generated_Source\PSoC6\pdl\drivers\peripheral\ipc/cy_ipc_drv.h **** *
 837:Generated_Source\PSoC6\pdl\drivers\peripheral\ipc/cy_ipc_drv.h **** * The function extracts an Acquire mask part from full interrupt mask value.
 838:Generated_Source\PSoC6\pdl\drivers\peripheral\ipc/cy_ipc_drv.h **** *
 839:Generated_Source\PSoC6\pdl\drivers\peripheral\ipc/cy_ipc_drv.h **** * This function is internal and should not be called directly by user
 840:Generated_Source\PSoC6\pdl\drivers\peripheral\ipc/cy_ipc_drv.h **** * software.
 841:Generated_Source\PSoC6\pdl\drivers\peripheral\ipc/cy_ipc_drv.h **** *
 842:Generated_Source\PSoC6\pdl\drivers\peripheral\ipc/cy_ipc_drv.h **** * \param intMask
 843:Generated_Source\PSoC6\pdl\drivers\peripheral\ipc/cy_ipc_drv.h **** * Interrupt mask value to be processed.
 844:Generated_Source\PSoC6\pdl\drivers\peripheral\ipc/cy_ipc_drv.h **** *
 845:Generated_Source\PSoC6\pdl\drivers\peripheral\ipc/cy_ipc_drv.h **** * \return
 846:Generated_Source\PSoC6\pdl\drivers\peripheral\ipc/cy_ipc_drv.h **** * Acquire mask value.
 847:Generated_Source\PSoC6\pdl\drivers\peripheral\ipc/cy_ipc_drv.h **** *
 848:Generated_Source\PSoC6\pdl\drivers\peripheral\ipc/cy_ipc_drv.h **** *******************************************************************************/
 849:Generated_Source\PSoC6\pdl\drivers\peripheral\ipc/cy_ipc_drv.h **** __STATIC_INLINE uint32_t Cy_IPC_Drv_ExtractAcquireMask (uint32_t intMask)
 850:Generated_Source\PSoC6\pdl\drivers\peripheral\ipc/cy_ipc_drv.h **** {
 851:Generated_Source\PSoC6\pdl\drivers\peripheral\ipc/cy_ipc_drv.h ****     return _FLD2VAL(IPC_INTR_STRUCT_INTR_MASK_NOTIFY, intMask);
 852:Generated_Source\PSoC6\pdl\drivers\peripheral\ipc/cy_ipc_drv.h **** }
 853:Generated_Source\PSoC6\pdl\drivers\peripheral\ipc/cy_ipc_drv.h **** 
 854:Generated_Source\PSoC6\pdl\drivers\peripheral\ipc/cy_ipc_drv.h **** 
 855:Generated_Source\PSoC6\pdl\drivers\peripheral\ipc/cy_ipc_drv.h **** /*******************************************************************************
 856:Generated_Source\PSoC6\pdl\drivers\peripheral\ipc/cy_ipc_drv.h **** * Function Name: Cy_IPC_Drv_ExtractReleaseMask
 857:Generated_Source\PSoC6\pdl\drivers\peripheral\ipc/cy_ipc_drv.h **** ****************************************************************************//**
 858:Generated_Source\PSoC6\pdl\drivers\peripheral\ipc/cy_ipc_drv.h **** *
 859:Generated_Source\PSoC6\pdl\drivers\peripheral\ipc/cy_ipc_drv.h **** * The function extracts a Release mask part from full interrupt mask value.
 860:Generated_Source\PSoC6\pdl\drivers\peripheral\ipc/cy_ipc_drv.h **** *
 861:Generated_Source\PSoC6\pdl\drivers\peripheral\ipc/cy_ipc_drv.h **** * This function is internal and should not be called directly by user
 862:Generated_Source\PSoC6\pdl\drivers\peripheral\ipc/cy_ipc_drv.h **** * software.
 863:Generated_Source\PSoC6\pdl\drivers\peripheral\ipc/cy_ipc_drv.h **** *
 864:Generated_Source\PSoC6\pdl\drivers\peripheral\ipc/cy_ipc_drv.h **** * \param intMask
 865:Generated_Source\PSoC6\pdl\drivers\peripheral\ipc/cy_ipc_drv.h **** * Interrupt mask value to be processed.
 866:Generated_Source\PSoC6\pdl\drivers\peripheral\ipc/cy_ipc_drv.h **** *
 867:Generated_Source\PSoC6\pdl\drivers\peripheral\ipc/cy_ipc_drv.h **** * \return
 868:Generated_Source\PSoC6\pdl\drivers\peripheral\ipc/cy_ipc_drv.h **** * Release mask value.
 869:Generated_Source\PSoC6\pdl\drivers\peripheral\ipc/cy_ipc_drv.h **** *
 870:Generated_Source\PSoC6\pdl\drivers\peripheral\ipc/cy_ipc_drv.h **** *******************************************************************************/
 871:Generated_Source\PSoC6\pdl\drivers\peripheral\ipc/cy_ipc_drv.h **** __STATIC_INLINE uint32_t Cy_IPC_Drv_ExtractReleaseMask (uint32_t intMask)
 872:Generated_Source\PSoC6\pdl\drivers\peripheral\ipc/cy_ipc_drv.h **** {
 873:Generated_Source\PSoC6\pdl\drivers\peripheral\ipc/cy_ipc_drv.h ****     return _FLD2VAL(IPC_INTR_STRUCT_INTR_MASK_RELEASE, intMask);
 874:Generated_Source\PSoC6\pdl\drivers\peripheral\ipc/cy_ipc_drv.h **** }
 875:Generated_Source\PSoC6\pdl\drivers\peripheral\ipc/cy_ipc_drv.h **** 
 876:Generated_Source\PSoC6\pdl\drivers\peripheral\ipc/cy_ipc_drv.h **** 
 877:Generated_Source\PSoC6\pdl\drivers\peripheral\ipc/cy_ipc_drv.h **** /*******************************************************************************
 878:Generated_Source\PSoC6\pdl\drivers\peripheral\ipc/cy_ipc_drv.h **** * Function Name: Cy_IPC_Drv_SendMsgPtr
 879:Generated_Source\PSoC6\pdl\drivers\peripheral\ipc/cy_ipc_drv.h **** ****************************************************************************//**
 880:Generated_Source\PSoC6\pdl\drivers\peripheral\ipc/cy_ipc_drv.h **** *
 881:Generated_Source\PSoC6\pdl\drivers\peripheral\ipc/cy_ipc_drv.h **** * This function is used to send a message pointer through an IPC channel.
 882:Generated_Source\PSoC6\pdl\drivers\peripheral\ipc/cy_ipc_drv.h **** * The message structure may hold a generic pointer that may contain the address
 883:Generated_Source\PSoC6\pdl\drivers\peripheral\ipc/cy_ipc_drv.h **** * of any user data type or structure. This parameter could be a pointer to a 32-bit
ARM GAS  C:\Users\Rolf\AppData\Local\Temp\ccUtnhQP.s 			page 43


 884:Generated_Source\PSoC6\pdl\drivers\peripheral\ipc/cy_ipc_drv.h **** * integer, an array, or even a data structure defined in the user code. This
 885:Generated_Source\PSoC6\pdl\drivers\peripheral\ipc/cy_ipc_drv.h **** * function acts as a transfer engine for sending the pointer. Any memory
 886:Generated_Source\PSoC6\pdl\drivers\peripheral\ipc/cy_ipc_drv.h **** * management of the pointer allocation and deallocation is up to the application
 887:Generated_Source\PSoC6\pdl\drivers\peripheral\ipc/cy_ipc_drv.h **** * code.
 888:Generated_Source\PSoC6\pdl\drivers\peripheral\ipc/cy_ipc_drv.h **** * The function also has an associated notification field that will let the
 889:Generated_Source\PSoC6\pdl\drivers\peripheral\ipc/cy_ipc_drv.h **** * message notify one or multiple interrupts.
 890:Generated_Source\PSoC6\pdl\drivers\peripheral\ipc/cy_ipc_drv.h **** *
 891:Generated_Source\PSoC6\pdl\drivers\peripheral\ipc/cy_ipc_drv.h **** * \param base
 892:Generated_Source\PSoC6\pdl\drivers\peripheral\ipc/cy_ipc_drv.h **** * This parameter is a handle that represents the base address of the registers
 893:Generated_Source\PSoC6\pdl\drivers\peripheral\ipc/cy_ipc_drv.h **** * of the IPC channel.
 894:Generated_Source\PSoC6\pdl\drivers\peripheral\ipc/cy_ipc_drv.h **** * The parameter is generally returned from a call to the \ref
 895:Generated_Source\PSoC6\pdl\drivers\peripheral\ipc/cy_ipc_drv.h **** * Cy_IPC_Drv_GetIpcBaseAddress.
 896:Generated_Source\PSoC6\pdl\drivers\peripheral\ipc/cy_ipc_drv.h **** *
 897:Generated_Source\PSoC6\pdl\drivers\peripheral\ipc/cy_ipc_drv.h **** * \param notifyEventIntr
 898:Generated_Source\PSoC6\pdl\drivers\peripheral\ipc/cy_ipc_drv.h **** * Bit encoded list of IPC interrupt lines that are triggered during the release
 899:Generated_Source\PSoC6\pdl\drivers\peripheral\ipc/cy_ipc_drv.h **** * action.
 900:Generated_Source\PSoC6\pdl\drivers\peripheral\ipc/cy_ipc_drv.h **** *
 901:Generated_Source\PSoC6\pdl\drivers\peripheral\ipc/cy_ipc_drv.h **** * \param msgPtr
 902:Generated_Source\PSoC6\pdl\drivers\peripheral\ipc/cy_ipc_drv.h **** * The message pointer that is being sent over the IPC channel.
 903:Generated_Source\PSoC6\pdl\drivers\peripheral\ipc/cy_ipc_drv.h **** *
 904:Generated_Source\PSoC6\pdl\drivers\peripheral\ipc/cy_ipc_drv.h **** * \return   Status of the operation:
 905:Generated_Source\PSoC6\pdl\drivers\peripheral\ipc/cy_ipc_drv.h **** *   \retval CY_IPC_DRV_SUCCESS: The send operation was successful.
 906:Generated_Source\PSoC6\pdl\drivers\peripheral\ipc/cy_ipc_drv.h **** *   \retval CY_IPC_DRV_ERROR:   The IPC channel is unavailable because
 907:Generated_Source\PSoC6\pdl\drivers\peripheral\ipc/cy_ipc_drv.h **** *                               it is already locked.
 908:Generated_Source\PSoC6\pdl\drivers\peripheral\ipc/cy_ipc_drv.h **** *
 909:Generated_Source\PSoC6\pdl\drivers\peripheral\ipc/cy_ipc_drv.h **** * \funcusage
 910:Generated_Source\PSoC6\pdl\drivers\peripheral\ipc/cy_ipc_drv.h **** * \snippet IPC_sut_01.cydsn/main_cm4.c snippet_Cy_IPC_Drv_SendMsgPtr
 911:Generated_Source\PSoC6\pdl\drivers\peripheral\ipc/cy_ipc_drv.h **** *
 912:Generated_Source\PSoC6\pdl\drivers\peripheral\ipc/cy_ipc_drv.h **** *******************************************************************************/
 913:Generated_Source\PSoC6\pdl\drivers\peripheral\ipc/cy_ipc_drv.h **** __STATIC_INLINE cy_en_ipcdrv_status_t  Cy_IPC_Drv_SendMsgPtr(IPC_STRUCT_Type* base, uint32_t notify
 914:Generated_Source\PSoC6\pdl\drivers\peripheral\ipc/cy_ipc_drv.h **** {
 915:Generated_Source\PSoC6\pdl\drivers\peripheral\ipc/cy_ipc_drv.h ****     CY_ASSERT_L1(NULL != msgPtr);
 916:Generated_Source\PSoC6\pdl\drivers\peripheral\ipc/cy_ipc_drv.h ****     return Cy_IPC_Drv_SendMsgWord(base, notifyEventIntr, (uint32_t)msgPtr);
 917:Generated_Source\PSoC6\pdl\drivers\peripheral\ipc/cy_ipc_drv.h **** }
 918:Generated_Source\PSoC6\pdl\drivers\peripheral\ipc/cy_ipc_drv.h **** 
 919:Generated_Source\PSoC6\pdl\drivers\peripheral\ipc/cy_ipc_drv.h **** 
 920:Generated_Source\PSoC6\pdl\drivers\peripheral\ipc/cy_ipc_drv.h **** /*******************************************************************************
 921:Generated_Source\PSoC6\pdl\drivers\peripheral\ipc/cy_ipc_drv.h **** * Function Name: Cy_IPC_Drv_ReadMsgPtr
 922:Generated_Source\PSoC6\pdl\drivers\peripheral\ipc/cy_ipc_drv.h **** ****************************************************************************//**
 923:Generated_Source\PSoC6\pdl\drivers\peripheral\ipc/cy_ipc_drv.h **** *
 924:Generated_Source\PSoC6\pdl\drivers\peripheral\ipc/cy_ipc_drv.h **** * This function is used to read a 32-bit pointer message through an IPC channel.
 925:Generated_Source\PSoC6\pdl\drivers\peripheral\ipc/cy_ipc_drv.h **** *
 926:Generated_Source\PSoC6\pdl\drivers\peripheral\ipc/cy_ipc_drv.h **** * \param base
 927:Generated_Source\PSoC6\pdl\drivers\peripheral\ipc/cy_ipc_drv.h **** * This parameter is a handle that represents the base address of the registers
 928:Generated_Source\PSoC6\pdl\drivers\peripheral\ipc/cy_ipc_drv.h **** * of the IPC channel.
 929:Generated_Source\PSoC6\pdl\drivers\peripheral\ipc/cy_ipc_drv.h **** * The parameter is generally returned from a call to the \ref
 930:Generated_Source\PSoC6\pdl\drivers\peripheral\ipc/cy_ipc_drv.h **** * Cy_IPC_Drv_GetIpcBaseAddress.
 931:Generated_Source\PSoC6\pdl\drivers\peripheral\ipc/cy_ipc_drv.h **** *
 932:Generated_Source\PSoC6\pdl\drivers\peripheral\ipc/cy_ipc_drv.h **** * \param msgPtr
 933:Generated_Source\PSoC6\pdl\drivers\peripheral\ipc/cy_ipc_drv.h **** * Pointer variable to hold the data pointer that is being read from the IPC
 934:Generated_Source\PSoC6\pdl\drivers\peripheral\ipc/cy_ipc_drv.h **** * channel.
 935:Generated_Source\PSoC6\pdl\drivers\peripheral\ipc/cy_ipc_drv.h **** *
 936:Generated_Source\PSoC6\pdl\drivers\peripheral\ipc/cy_ipc_drv.h **** *
 937:Generated_Source\PSoC6\pdl\drivers\peripheral\ipc/cy_ipc_drv.h **** * \return Status of the operation
 938:Generated_Source\PSoC6\pdl\drivers\peripheral\ipc/cy_ipc_drv.h **** *   \retval CY_IPC_DRV_SUCCESS: The function executed successfully and the IPC
 939:Generated_Source\PSoC6\pdl\drivers\peripheral\ipc/cy_ipc_drv.h **** *                       was acquired.
 940:Generated_Source\PSoC6\pdl\drivers\peripheral\ipc/cy_ipc_drv.h **** *   \retval CY_IPC_DRV_ERROR:   The function encountered an error because the IPC
ARM GAS  C:\Users\Rolf\AppData\Local\Temp\ccUtnhQP.s 			page 44


 941:Generated_Source\PSoC6\pdl\drivers\peripheral\ipc/cy_ipc_drv.h **** *                       channel was already in a released state meaning the data
 942:Generated_Source\PSoC6\pdl\drivers\peripheral\ipc/cy_ipc_drv.h **** *                       in it is invalid.
 943:Generated_Source\PSoC6\pdl\drivers\peripheral\ipc/cy_ipc_drv.h **** *
 944:Generated_Source\PSoC6\pdl\drivers\peripheral\ipc/cy_ipc_drv.h **** * \funcusage
 945:Generated_Source\PSoC6\pdl\drivers\peripheral\ipc/cy_ipc_drv.h **** * \snippet IPC_sut_01.cydsn/main_cm4.c snippet_Cy_IPC_Drv_ReadMsgPtr
 946:Generated_Source\PSoC6\pdl\drivers\peripheral\ipc/cy_ipc_drv.h **** *
 947:Generated_Source\PSoC6\pdl\drivers\peripheral\ipc/cy_ipc_drv.h **** *******************************************************************************/
 948:Generated_Source\PSoC6\pdl\drivers\peripheral\ipc/cy_ipc_drv.h **** __STATIC_INLINE  cy_en_ipcdrv_status_t  Cy_IPC_Drv_ReadMsgPtr (IPC_STRUCT_Type const * base, void *
 949:Generated_Source\PSoC6\pdl\drivers\peripheral\ipc/cy_ipc_drv.h **** {
 950:Generated_Source\PSoC6\pdl\drivers\peripheral\ipc/cy_ipc_drv.h ****     CY_ASSERT_L1(NULL != msgPtr);
 951:Generated_Source\PSoC6\pdl\drivers\peripheral\ipc/cy_ipc_drv.h ****     return Cy_IPC_Drv_ReadMsgWord(base, (uint32_t *)msgPtr);
 952:Generated_Source\PSoC6\pdl\drivers\peripheral\ipc/cy_ipc_drv.h **** }
 953:Generated_Source\PSoC6\pdl\drivers\peripheral\ipc/cy_ipc_drv.h **** 
 954:Generated_Source\PSoC6\pdl\drivers\peripheral\ipc/cy_ipc_drv.h **** 
 955:Generated_Source\PSoC6\pdl\drivers\peripheral\ipc/cy_ipc_drv.h **** /*******************************************************************************
 956:Generated_Source\PSoC6\pdl\drivers\peripheral\ipc/cy_ipc_drv.h **** * Function Name: Cy_IPC_Drv_LockAcquire
 957:Generated_Source\PSoC6\pdl\drivers\peripheral\ipc/cy_ipc_drv.h **** ****************************************************************************//**
 958:Generated_Source\PSoC6\pdl\drivers\peripheral\ipc/cy_ipc_drv.h **** *
 959:Generated_Source\PSoC6\pdl\drivers\peripheral\ipc/cy_ipc_drv.h **** * This function is used to acquire the IPC channel.
 960:Generated_Source\PSoC6\pdl\drivers\peripheral\ipc/cy_ipc_drv.h **** *
 961:Generated_Source\PSoC6\pdl\drivers\peripheral\ipc/cy_ipc_drv.h **** * \param base
 962:Generated_Source\PSoC6\pdl\drivers\peripheral\ipc/cy_ipc_drv.h **** * This parameter is a handle that represents the base address of the registers
 963:Generated_Source\PSoC6\pdl\drivers\peripheral\ipc/cy_ipc_drv.h **** * of the IPC channel.
 964:Generated_Source\PSoC6\pdl\drivers\peripheral\ipc/cy_ipc_drv.h **** * The parameter is generally returned from a call to the \ref
 965:Generated_Source\PSoC6\pdl\drivers\peripheral\ipc/cy_ipc_drv.h **** * Cy_IPC_Drv_GetIpcBaseAddress
 966:Generated_Source\PSoC6\pdl\drivers\peripheral\ipc/cy_ipc_drv.h **** *
 967:Generated_Source\PSoC6\pdl\drivers\peripheral\ipc/cy_ipc_drv.h **** * \return   Status of the operation
 968:Generated_Source\PSoC6\pdl\drivers\peripheral\ipc/cy_ipc_drv.h **** *   \retval CY_IPC_DRV_SUCCESS: The IPC was successfully acquired
 969:Generated_Source\PSoC6\pdl\drivers\peripheral\ipc/cy_ipc_drv.h **** *   \retval CY_IPC_DRV_ERROR:   The IPC was not acquired because it was already acquired
 970:Generated_Source\PSoC6\pdl\drivers\peripheral\ipc/cy_ipc_drv.h **** *                       by another master
 971:Generated_Source\PSoC6\pdl\drivers\peripheral\ipc/cy_ipc_drv.h **** *
 972:Generated_Source\PSoC6\pdl\drivers\peripheral\ipc/cy_ipc_drv.h **** * \funcusage
 973:Generated_Source\PSoC6\pdl\drivers\peripheral\ipc/cy_ipc_drv.h **** * \snippet IPC_sut_01.cydsn/main_cm4.c snippet_Cy_IPC_Drv_LockAcquire
 974:Generated_Source\PSoC6\pdl\drivers\peripheral\ipc/cy_ipc_drv.h **** *
 975:Generated_Source\PSoC6\pdl\drivers\peripheral\ipc/cy_ipc_drv.h **** *******************************************************************************/
 976:Generated_Source\PSoC6\pdl\drivers\peripheral\ipc/cy_ipc_drv.h **** __STATIC_INLINE cy_en_ipcdrv_status_t Cy_IPC_Drv_LockAcquire (IPC_STRUCT_Type const * base)
 977:Generated_Source\PSoC6\pdl\drivers\peripheral\ipc/cy_ipc_drv.h **** {
 978:Generated_Source\PSoC6\pdl\drivers\peripheral\ipc/cy_ipc_drv.h ****     return ( 0ul != _FLD2VAL(IPC_STRUCT_ACQUIRE_SUCCESS, REG_IPC_STRUCT_ACQUIRE(base))) ? CY_IPC_DR
 484              		.loc 2 978 0
 485 0052 1268     		ldr	r2, [r2]
 486              	.LVL50:
 487 0054 002A     		cmp	r2, #0
 488 0056 01DA     		bge	.L30
 489 0058 0022     		movs	r2, #0
 490 005a 00E0     		b	.L26
 491              	.L30:
 492 005c 114A     		ldr	r2, .L32+8
 493              	.L26:
 494              	.LVL51:
 495              	.LBE55:
 496              	.LBE54:
 272:Generated_Source\PSoC6\pdl\drivers\peripheral\ipc/cy_ipc_pipe.c ****         {
 273:Generated_Source\PSoC6\pdl\drivers\peripheral\ipc/cy_ipc_pipe.c ****             /* Attempt to acquire the channel */
 274:Generated_Source\PSoC6\pdl\drivers\peripheral\ipc/cy_ipc_pipe.c ****             if( CY_IPC_DRV_SUCCESS == Cy_IPC_Drv_LockAcquire(toEp->ipcPtr) )
 497              		.loc 1 274 0
 498 005e 002A     		cmp	r2, #0
 499 0060 19D1     		bne	.L31
ARM GAS  C:\Users\Rolf\AppData\Local\Temp\ccUtnhQP.s 			page 45


 275:Generated_Source\PSoC6\pdl\drivers\peripheral\ipc/cy_ipc_pipe.c ****             {
 276:Generated_Source\PSoC6\pdl\drivers\peripheral\ipc/cy_ipc_pipe.c ****                 /* Mask out the release mask area */
 277:Generated_Source\PSoC6\pdl\drivers\peripheral\ipc/cy_ipc_pipe.c ****                 * (uint32_t *) msgPtr &= ~(CY_IPC_PIPE_MSG_RELEASE_Msk);
 500              		.loc 1 277 0
 501 0062 3268     		ldr	r2, [r6]
 502 0064 1204     		lsls	r2, r2, #16
 503 0066 120C     		lsrs	r2, r2, #16
 278:Generated_Source\PSoC6\pdl\drivers\peripheral\ipc/cy_ipc_pipe.c **** 
 279:Generated_Source\PSoC6\pdl\drivers\peripheral\ipc/cy_ipc_pipe.c ****                 * (uint32_t *) msgPtr |= releaseMask;
 504              		.loc 1 279 0
 505 0068 1343     		orrs	r3, r2
 506              	.LVL52:
 507 006a 3360     		str	r3, [r6]
 508              	.LVL53:
 280:Generated_Source\PSoC6\pdl\drivers\peripheral\ipc/cy_ipc_pipe.c **** 
 281:Generated_Source\PSoC6\pdl\drivers\peripheral\ipc/cy_ipc_pipe.c ****                 /* If the channel was acquired, write the message.   */
 282:Generated_Source\PSoC6\pdl\drivers\peripheral\ipc/cy_ipc_pipe.c ****                 Cy_IPC_Drv_WriteDataValue(toEp->ipcPtr, (uint32_t) msgPtr);
 509              		.loc 1 282 0
 510 006c 0369     		ldr	r3, [r0, #16]
 511              	.LVL54:
 512              	.LBB56:
 513              	.LBB57:
 751:Generated_Source\PSoC6\pdl\drivers\peripheral\ipc/cy_ipc_drv.h **** }
 514              		.loc 2 751 0
 515 006e DE60     		str	r6, [r3, #12]
 516              	.LVL55:
 517              	.LBE57:
 518              	.LBE56:
 283:Generated_Source\PSoC6\pdl\drivers\peripheral\ipc/cy_ipc_pipe.c **** 
 284:Generated_Source\PSoC6\pdl\drivers\peripheral\ipc/cy_ipc_pipe.c ****                 /* Set the busy flag.  The ISR clears this after the release */
 285:Generated_Source\PSoC6\pdl\drivers\peripheral\ipc/cy_ipc_pipe.c ****                 fromEp->busy = CY_IPC_PIPE_ENDPOINT_BUSY;
 519              		.loc 1 285 0
 520 0070 0123     		movs	r3, #1
 521 0072 8B61     		str	r3, [r1, #24]
 286:Generated_Source\PSoC6\pdl\drivers\peripheral\ipc/cy_ipc_pipe.c **** 
 287:Generated_Source\PSoC6\pdl\drivers\peripheral\ipc/cy_ipc_pipe.c ****                 /* Setup release callback function */
 288:Generated_Source\PSoC6\pdl\drivers\peripheral\ipc/cy_ipc_pipe.c ****                 fromEp->releaseCallbackPtr = callBackPtr;
 522              		.loc 1 288 0
 523 0074 4C62     		str	r4, [r1, #36]
 289:Generated_Source\PSoC6\pdl\drivers\peripheral\ipc/cy_ipc_pipe.c **** 
 290:Generated_Source\PSoC6\pdl\drivers\peripheral\ipc/cy_ipc_pipe.c ****                 /* Cause notify event/interrupt */
 291:Generated_Source\PSoC6\pdl\drivers\peripheral\ipc/cy_ipc_pipe.c ****                 Cy_IPC_Drv_AcquireNotify(toEp->ipcPtr, notifyMask);
 524              		.loc 1 291 0
 525 0076 0469     		ldr	r4, [r0, #16]
 526              	.LVL56:
 527              	.LBB58:
 528              	.LBB59:
 699:Generated_Source\PSoC6\pdl\drivers\peripheral\ipc/cy_ipc_drv.h ****     REG_IPC_STRUCT_NOTIFY(base) = _VAL2FLD(IPC_STRUCT_NOTIFY_INTR_NOTIFY, notifyEventIntr);
 529              		.loc 2 699 0
 530 0078 2B0C     		lsrs	r3, r5, #16
 531 007a 03D0     		beq	.L27
 532 007c 0A49     		ldr	r1, .L32+12
 533              	.LVL57:
 534 007e 0B48     		ldr	r0, .L32+16
 535              	.LVL58:
 536 0080 FFF7FEFF 		bl	Cy_SysLib_AssertFailed
 537              	.LVL59:
ARM GAS  C:\Users\Rolf\AppData\Local\Temp\ccUtnhQP.s 			page 46


 538              	.L27:
 700:Generated_Source\PSoC6\pdl\drivers\peripheral\ipc/cy_ipc_drv.h **** }
 539              		.loc 2 700 0
 540 0084 2A04     		lsls	r2, r5, #16
 541 0086 120C     		lsrs	r2, r2, #16
 542 0088 A260     		str	r2, [r4, #8]
 543              	.LVL60:
 544              	.LBE59:
 545              	.LBE58:
 292:Generated_Source\PSoC6\pdl\drivers\peripheral\ipc/cy_ipc_pipe.c **** 
 293:Generated_Source\PSoC6\pdl\drivers\peripheral\ipc/cy_ipc_pipe.c ****                 returnStatus = CY_IPC_PIPE_SUCCESS;
 546              		.loc 1 293 0
 547 008a 0020     		movs	r0, #0
 548 008c 04E0     		b	.L25
 549              	.LVL61:
 550              	.L28:
 294:Generated_Source\PSoC6\pdl\drivers\peripheral\ipc/cy_ipc_pipe.c ****             }
 295:Generated_Source\PSoC6\pdl\drivers\peripheral\ipc/cy_ipc_pipe.c ****             else
 296:Generated_Source\PSoC6\pdl\drivers\peripheral\ipc/cy_ipc_pipe.c ****             {
 297:Generated_Source\PSoC6\pdl\drivers\peripheral\ipc/cy_ipc_pipe.c ****                 /* Channel was already acquired, return Error */
 298:Generated_Source\PSoC6\pdl\drivers\peripheral\ipc/cy_ipc_pipe.c ****                 returnStatus = CY_IPC_PIPE_ERROR_SEND_BUSY;
 299:Generated_Source\PSoC6\pdl\drivers\peripheral\ipc/cy_ipc_pipe.c ****             }
 300:Generated_Source\PSoC6\pdl\drivers\peripheral\ipc/cy_ipc_pipe.c ****         }
 301:Generated_Source\PSoC6\pdl\drivers\peripheral\ipc/cy_ipc_pipe.c ****         else
 302:Generated_Source\PSoC6\pdl\drivers\peripheral\ipc/cy_ipc_pipe.c ****         {
 303:Generated_Source\PSoC6\pdl\drivers\peripheral\ipc/cy_ipc_pipe.c ****             /* Channel may not be acquired, but the release interrupt has not executed yet */
 304:Generated_Source\PSoC6\pdl\drivers\peripheral\ipc/cy_ipc_pipe.c ****             returnStatus = CY_IPC_PIPE_ERROR_SEND_BUSY;
 305:Generated_Source\PSoC6\pdl\drivers\peripheral\ipc/cy_ipc_pipe.c ****         }
 306:Generated_Source\PSoC6\pdl\drivers\peripheral\ipc/cy_ipc_pipe.c ****     }
 307:Generated_Source\PSoC6\pdl\drivers\peripheral\ipc/cy_ipc_pipe.c ****     else
 308:Generated_Source\PSoC6\pdl\drivers\peripheral\ipc/cy_ipc_pipe.c ****     {
 309:Generated_Source\PSoC6\pdl\drivers\peripheral\ipc/cy_ipc_pipe.c ****         /* Null pipe handle. */
 310:Generated_Source\PSoC6\pdl\drivers\peripheral\ipc/cy_ipc_pipe.c ****         returnStatus = CY_IPC_PIPE_ERROR_BAD_HANDLE;
 551              		.loc 1 310 0
 552 008e 0848     		ldr	r0, .L32+20
 553              	.LVL62:
 554 0090 02E0     		b	.L25
 555              	.LVL63:
 556              	.L29:
 304:Generated_Source\PSoC6\pdl\drivers\peripheral\ipc/cy_ipc_pipe.c ****         }
 557              		.loc 1 304 0
 558 0092 0848     		ldr	r0, .L32+24
 559              	.LVL64:
 560 0094 00E0     		b	.L25
 561              	.LVL65:
 562              	.L31:
 298:Generated_Source\PSoC6\pdl\drivers\peripheral\ipc/cy_ipc_pipe.c ****             }
 563              		.loc 1 298 0
 564 0096 0748     		ldr	r0, .L32+24
 565              	.LVL66:
 566              	.L25:
 311:Generated_Source\PSoC6\pdl\drivers\peripheral\ipc/cy_ipc_pipe.c ****     }
 312:Generated_Source\PSoC6\pdl\drivers\peripheral\ipc/cy_ipc_pipe.c ****     return (returnStatus);
 313:Generated_Source\PSoC6\pdl\drivers\peripheral\ipc/cy_ipc_pipe.c **** }
 567              		.loc 1 313 0
 568              		@ sp needed
 569              	.LVL67:
ARM GAS  C:\Users\Rolf\AppData\Local\Temp\ccUtnhQP.s 			page 47


 570              	.LVL68:
 571 0098 F8BD     		pop	{r3, r4, r5, r6, r7, pc}
 572              	.L33:
 573 009a C046     		.align	2
 574              	.L32:
 575 009c 00000000 		.word	.LC2
 576 00a0 00000000 		.word	.LANCHOR0
 577 00a4 01008A00 		.word	9043969
 578 00a8 BB020000 		.word	699
 579 00ac 40000000 		.word	.LC5
 580 00b0 04028A00 		.word	9044484
 581 00b4 07028A00 		.word	9044487
 582              		.cfi_endproc
 583              	.LFE69:
 584              		.size	Cy_IPC_Pipe_SendMessage, .-Cy_IPC_Pipe_SendMessage
 585              		.section	.text.Cy_IPC_Pipe_RegisterCallback,"ax",%progbits
 586              		.align	2
 587              		.global	Cy_IPC_Pipe_RegisterCallback
 588              		.code	16
 589              		.thumb_func
 590              		.type	Cy_IPC_Pipe_RegisterCallback, %function
 591              	Cy_IPC_Pipe_RegisterCallback:
 592              	.LFB70:
 314:Generated_Source\PSoC6\pdl\drivers\peripheral\ipc/cy_ipc_pipe.c **** 
 315:Generated_Source\PSoC6\pdl\drivers\peripheral\ipc/cy_ipc_pipe.c **** 
 316:Generated_Source\PSoC6\pdl\drivers\peripheral\ipc/cy_ipc_pipe.c **** /*******************************************************************************
 317:Generated_Source\PSoC6\pdl\drivers\peripheral\ipc/cy_ipc_pipe.c **** * Function Name: Cy_IPC_Pipe_RegisterCallback
 318:Generated_Source\PSoC6\pdl\drivers\peripheral\ipc/cy_ipc_pipe.c **** ****************************************************************************//**
 319:Generated_Source\PSoC6\pdl\drivers\peripheral\ipc/cy_ipc_pipe.c **** *
 320:Generated_Source\PSoC6\pdl\drivers\peripheral\ipc/cy_ipc_pipe.c **** * This function registers a callback that is called when a message is received
 321:Generated_Source\PSoC6\pdl\drivers\peripheral\ipc/cy_ipc_pipe.c **** * on a pipe.
 322:Generated_Source\PSoC6\pdl\drivers\peripheral\ipc/cy_ipc_pipe.c **** * The client_ID is the same as the index of the callback function array.
 323:Generated_Source\PSoC6\pdl\drivers\peripheral\ipc/cy_ipc_pipe.c **** * The callback may be a real function pointer or NULL if no callback is required.
 324:Generated_Source\PSoC6\pdl\drivers\peripheral\ipc/cy_ipc_pipe.c **** *
 325:Generated_Source\PSoC6\pdl\drivers\peripheral\ipc/cy_ipc_pipe.c **** * \param epAddr
 326:Generated_Source\PSoC6\pdl\drivers\peripheral\ipc/cy_ipc_pipe.c **** * This parameter is the address (or index in the array of endpoint structures)
 327:Generated_Source\PSoC6\pdl\drivers\peripheral\ipc/cy_ipc_pipe.c **** * that designates the endpoint to which you want to add callback functions.
 328:Generated_Source\PSoC6\pdl\drivers\peripheral\ipc/cy_ipc_pipe.c **** *
 329:Generated_Source\PSoC6\pdl\drivers\peripheral\ipc/cy_ipc_pipe.c **** * \param callBackPtr
 330:Generated_Source\PSoC6\pdl\drivers\peripheral\ipc/cy_ipc_pipe.c **** * Pointer to the callback function called when the endpoint has received a message.
 331:Generated_Source\PSoC6\pdl\drivers\peripheral\ipc/cy_ipc_pipe.c **** * If this parameters is NULL current callback will be unregistered.
 332:Generated_Source\PSoC6\pdl\drivers\peripheral\ipc/cy_ipc_pipe.c **** *
 333:Generated_Source\PSoC6\pdl\drivers\peripheral\ipc/cy_ipc_pipe.c **** * \param clientId
 334:Generated_Source\PSoC6\pdl\drivers\peripheral\ipc/cy_ipc_pipe.c **** * The index in the callback array (Client ID) where the function pointer is saved.
 335:Generated_Source\PSoC6\pdl\drivers\peripheral\ipc/cy_ipc_pipe.c **** *
 336:Generated_Source\PSoC6\pdl\drivers\peripheral\ipc/cy_ipc_pipe.c **** * \return
 337:Generated_Source\PSoC6\pdl\drivers\peripheral\ipc/cy_ipc_pipe.c **** *    CY_IPC_PIPE_SUCCESS:           Callback registered successfully
 338:Generated_Source\PSoC6\pdl\drivers\peripheral\ipc/cy_ipc_pipe.c **** *    CY_IPC_PIPE_ERROR_BAD_CLIENT:  Client ID out of range, callback not registered.
 339:Generated_Source\PSoC6\pdl\drivers\peripheral\ipc/cy_ipc_pipe.c **** *
 340:Generated_Source\PSoC6\pdl\drivers\peripheral\ipc/cy_ipc_pipe.c **** * \funcusage
 341:Generated_Source\PSoC6\pdl\drivers\peripheral\ipc/cy_ipc_pipe.c **** * \snippet IPC_sut_01.cydsn/main_cm4.c snippet_myAcquireCallback
 342:Generated_Source\PSoC6\pdl\drivers\peripheral\ipc/cy_ipc_pipe.c **** * \snippet IPC_sut_01.cydsn/main_cm4.c snippet_Cy_IPC_Pipe_RegisterCallback
 343:Generated_Source\PSoC6\pdl\drivers\peripheral\ipc/cy_ipc_pipe.c **** *
 344:Generated_Source\PSoC6\pdl\drivers\peripheral\ipc/cy_ipc_pipe.c **** *******************************************************************************/
 345:Generated_Source\PSoC6\pdl\drivers\peripheral\ipc/cy_ipc_pipe.c **** cy_en_ipc_pipe_status_t Cy_IPC_Pipe_RegisterCallback(uint32_t epAddr, cy_ipc_pipe_callback_ptr_t ca
 346:Generated_Source\PSoC6\pdl\drivers\peripheral\ipc/cy_ipc_pipe.c **** {
 593              		.loc 1 346 0
ARM GAS  C:\Users\Rolf\AppData\Local\Temp\ccUtnhQP.s 			page 48


 594              		.cfi_startproc
 595              		@ args = 0, pretend = 0, frame = 0
 596              		@ frame_needed = 0, uses_anonymous_args = 0
 597              	.LVL69:
 598 0000 70B5     		push	{r4, r5, r6, lr}
 599              		.cfi_def_cfa_offset 16
 600              		.cfi_offset 4, -16
 601              		.cfi_offset 5, -12
 602              		.cfi_offset 6, -8
 603              		.cfi_offset 14, -4
 604 0002 0400     		movs	r4, r0
 605 0004 0D00     		movs	r5, r1
 606 0006 1600     		movs	r6, r2
 347:Generated_Source\PSoC6\pdl\drivers\peripheral\ipc/cy_ipc_pipe.c ****     cy_en_ipc_pipe_status_t returnStatus;
 348:Generated_Source\PSoC6\pdl\drivers\peripheral\ipc/cy_ipc_pipe.c ****     cy_stc_ipc_pipe_ep_t * thisEp;
 349:Generated_Source\PSoC6\pdl\drivers\peripheral\ipc/cy_ipc_pipe.c **** 
 350:Generated_Source\PSoC6\pdl\drivers\peripheral\ipc/cy_ipc_pipe.c ****     CY_ASSERT_L1(NULL != cy_ipc_pipe_epArray);
 607              		.loc 1 350 0
 608 0008 0F4B     		ldr	r3, .L39
 609 000a 1B68     		ldr	r3, [r3]
 610 000c 002B     		cmp	r3, #0
 611 000e 04D1     		bne	.L35
 612              		.loc 1 350 0 is_stmt 0 discriminator 1
 613 0010 AF21     		movs	r1, #175
 614              	.LVL70:
 615 0012 4900     		lsls	r1, r1, #1
 616 0014 0D48     		ldr	r0, .L39+4
 617              	.LVL71:
 618 0016 FFF7FEFF 		bl	Cy_SysLib_AssertFailed
 619              	.LVL72:
 620              	.L35:
 351:Generated_Source\PSoC6\pdl\drivers\peripheral\ipc/cy_ipc_pipe.c **** 
 352:Generated_Source\PSoC6\pdl\drivers\peripheral\ipc/cy_ipc_pipe.c ****     thisEp = &cy_ipc_pipe_epArray[epAddr];
 621              		.loc 1 352 0 is_stmt 1
 622 001a 0B4B     		ldr	r3, .L39
 623 001c 1B68     		ldr	r3, [r3]
 624 001e 2C20     		movs	r0, #44
 625 0020 6043     		muls	r0, r4
 626 0022 1C18     		adds	r4, r3, r0
 627              	.LVL73:
 353:Generated_Source\PSoC6\pdl\drivers\peripheral\ipc/cy_ipc_pipe.c **** 
 354:Generated_Source\PSoC6\pdl\drivers\peripheral\ipc/cy_ipc_pipe.c ****     CY_ASSERT_L1(NULL != thisEp->callbackArray);
 628              		.loc 1 354 0
 629 0024 236A     		ldr	r3, [r4, #32]
 630 0026 002B     		cmp	r3, #0
 631 0028 04D1     		bne	.L36
 632              		.loc 1 354 0 is_stmt 0 discriminator 1
 633 002a B121     		movs	r1, #177
 634 002c 4900     		lsls	r1, r1, #1
 635 002e 0748     		ldr	r0, .L39+4
 636 0030 FFF7FEFF 		bl	Cy_SysLib_AssertFailed
 637              	.LVL74:
 638              	.L36:
 355:Generated_Source\PSoC6\pdl\drivers\peripheral\ipc/cy_ipc_pipe.c **** 
 356:Generated_Source\PSoC6\pdl\drivers\peripheral\ipc/cy_ipc_pipe.c ****     /* Check if clientId is between 0 and less than client count */
 357:Generated_Source\PSoC6\pdl\drivers\peripheral\ipc/cy_ipc_pipe.c ****     if (clientId < thisEp->clientCount)
 639              		.loc 1 357 0 is_stmt 1
ARM GAS  C:\Users\Rolf\AppData\Local\Temp\ccUtnhQP.s 			page 49


 640 0034 E369     		ldr	r3, [r4, #28]
 641 0036 B342     		cmp	r3, r6
 642 0038 04D9     		bls	.L38
 358:Generated_Source\PSoC6\pdl\drivers\peripheral\ipc/cy_ipc_pipe.c ****     {
 359:Generated_Source\PSoC6\pdl\drivers\peripheral\ipc/cy_ipc_pipe.c ****         /* Copy callback function into callback function pointer array */
 360:Generated_Source\PSoC6\pdl\drivers\peripheral\ipc/cy_ipc_pipe.c ****         thisEp->callbackArray[clientId] = callBackPtr;
 643              		.loc 1 360 0
 644 003a 236A     		ldr	r3, [r4, #32]
 645 003c B600     		lsls	r6, r6, #2
 646              	.LVL75:
 647 003e 9D51     		str	r5, [r3, r6]
 648              	.LVL76:
 361:Generated_Source\PSoC6\pdl\drivers\peripheral\ipc/cy_ipc_pipe.c **** 
 362:Generated_Source\PSoC6\pdl\drivers\peripheral\ipc/cy_ipc_pipe.c ****         returnStatus = CY_IPC_PIPE_SUCCESS;
 649              		.loc 1 362 0
 650 0040 0020     		movs	r0, #0
 651 0042 00E0     		b	.L37
 652              	.LVL77:
 653              	.L38:
 363:Generated_Source\PSoC6\pdl\drivers\peripheral\ipc/cy_ipc_pipe.c ****     }
 364:Generated_Source\PSoC6\pdl\drivers\peripheral\ipc/cy_ipc_pipe.c ****     else
 365:Generated_Source\PSoC6\pdl\drivers\peripheral\ipc/cy_ipc_pipe.c ****     {
 366:Generated_Source\PSoC6\pdl\drivers\peripheral\ipc/cy_ipc_pipe.c ****         returnStatus = CY_IPC_PIPE_ERROR_BAD_CLIENT;
 654              		.loc 1 366 0
 655 0044 0248     		ldr	r0, .L39+8
 656              	.LVL78:
 657              	.L37:
 367:Generated_Source\PSoC6\pdl\drivers\peripheral\ipc/cy_ipc_pipe.c ****     }
 368:Generated_Source\PSoC6\pdl\drivers\peripheral\ipc/cy_ipc_pipe.c ****     return (returnStatus);
 369:Generated_Source\PSoC6\pdl\drivers\peripheral\ipc/cy_ipc_pipe.c **** }
 658              		.loc 1 369 0
 659              		@ sp needed
 660              	.LVL79:
 661              	.LVL80:
 662 0046 70BD     		pop	{r4, r5, r6, pc}
 663              	.L40:
 664              		.align	2
 665              	.L39:
 666 0048 00000000 		.word	.LANCHOR0
 667 004c 00000000 		.word	.LC2
 668 0050 0A028A00 		.word	9044490
 669              		.cfi_endproc
 670              	.LFE70:
 671              		.size	Cy_IPC_Pipe_RegisterCallback, .-Cy_IPC_Pipe_RegisterCallback
 672              		.section	.text.Cy_IPC_Pipe_RegisterCallbackRel,"ax",%progbits
 673              		.align	2
 674              		.global	Cy_IPC_Pipe_RegisterCallbackRel
 675              		.code	16
 676              		.thumb_func
 677              		.type	Cy_IPC_Pipe_RegisterCallbackRel, %function
 678              	Cy_IPC_Pipe_RegisterCallbackRel:
 679              	.LFB71:
 370:Generated_Source\PSoC6\pdl\drivers\peripheral\ipc/cy_ipc_pipe.c **** 
 371:Generated_Source\PSoC6\pdl\drivers\peripheral\ipc/cy_ipc_pipe.c **** 
 372:Generated_Source\PSoC6\pdl\drivers\peripheral\ipc/cy_ipc_pipe.c **** /*******************************************************************************
 373:Generated_Source\PSoC6\pdl\drivers\peripheral\ipc/cy_ipc_pipe.c **** * Function Name: Cy_IPC_Pipe_RegisterCallbackRel
 374:Generated_Source\PSoC6\pdl\drivers\peripheral\ipc/cy_ipc_pipe.c **** ****************************************************************************//**
ARM GAS  C:\Users\Rolf\AppData\Local\Temp\ccUtnhQP.s 			page 50


 375:Generated_Source\PSoC6\pdl\drivers\peripheral\ipc/cy_ipc_pipe.c **** *
 376:Generated_Source\PSoC6\pdl\drivers\peripheral\ipc/cy_ipc_pipe.c **** * This function registers a default callback if a release interrupt
 377:Generated_Source\PSoC6\pdl\drivers\peripheral\ipc/cy_ipc_pipe.c **** * is generated but the current release callback function is null.
 378:Generated_Source\PSoC6\pdl\drivers\peripheral\ipc/cy_ipc_pipe.c **** *
 379:Generated_Source\PSoC6\pdl\drivers\peripheral\ipc/cy_ipc_pipe.c **** *
 380:Generated_Source\PSoC6\pdl\drivers\peripheral\ipc/cy_ipc_pipe.c **** * \param epAddr
 381:Generated_Source\PSoC6\pdl\drivers\peripheral\ipc/cy_ipc_pipe.c **** * This parameter is the address (or index in the array of endpoint structures)
 382:Generated_Source\PSoC6\pdl\drivers\peripheral\ipc/cy_ipc_pipe.c **** * that designates the endpoint to which you want to add a release callback function.
 383:Generated_Source\PSoC6\pdl\drivers\peripheral\ipc/cy_ipc_pipe.c **** *
 384:Generated_Source\PSoC6\pdl\drivers\peripheral\ipc/cy_ipc_pipe.c **** * \param callBackPtr
 385:Generated_Source\PSoC6\pdl\drivers\peripheral\ipc/cy_ipc_pipe.c **** * Pointer to the callback executed when the endpoint has received a message.
 386:Generated_Source\PSoC6\pdl\drivers\peripheral\ipc/cy_ipc_pipe.c **** * If this parameters is NULL current callback will be unregistered.
 387:Generated_Source\PSoC6\pdl\drivers\peripheral\ipc/cy_ipc_pipe.c **** *
 388:Generated_Source\PSoC6\pdl\drivers\peripheral\ipc/cy_ipc_pipe.c **** * \return
 389:Generated_Source\PSoC6\pdl\drivers\peripheral\ipc/cy_ipc_pipe.c **** *    None
 390:Generated_Source\PSoC6\pdl\drivers\peripheral\ipc/cy_ipc_pipe.c **** *
 391:Generated_Source\PSoC6\pdl\drivers\peripheral\ipc/cy_ipc_pipe.c **** * \funcusage
 392:Generated_Source\PSoC6\pdl\drivers\peripheral\ipc/cy_ipc_pipe.c **** * \snippet IPC_sut_01.cydsn/main_cm4.c snippet_myDefaultReleaseCallback
 393:Generated_Source\PSoC6\pdl\drivers\peripheral\ipc/cy_ipc_pipe.c **** * \snippet IPC_sut_01.cydsn/main_cm4.c snippet_Cy_IPC_Pipe_RegisterCallbackRel
 394:Generated_Source\PSoC6\pdl\drivers\peripheral\ipc/cy_ipc_pipe.c **** *
 395:Generated_Source\PSoC6\pdl\drivers\peripheral\ipc/cy_ipc_pipe.c **** *******************************************************************************/
 396:Generated_Source\PSoC6\pdl\drivers\peripheral\ipc/cy_ipc_pipe.c **** void Cy_IPC_Pipe_RegisterCallbackRel(uint32_t epAddr, cy_ipc_pipe_relcallback_ptr_t callBackPtr)
 397:Generated_Source\PSoC6\pdl\drivers\peripheral\ipc/cy_ipc_pipe.c **** {
 680              		.loc 1 397 0
 681              		.cfi_startproc
 682              		@ args = 0, pretend = 0, frame = 0
 683              		@ frame_needed = 0, uses_anonymous_args = 0
 684              	.LVL81:
 685 0000 70B5     		push	{r4, r5, r6, lr}
 686              		.cfi_def_cfa_offset 16
 687              		.cfi_offset 4, -16
 688              		.cfi_offset 5, -12
 689              		.cfi_offset 6, -8
 690              		.cfi_offset 14, -4
 691 0002 0500     		movs	r5, r0
 692 0004 0C00     		movs	r4, r1
 398:Generated_Source\PSoC6\pdl\drivers\peripheral\ipc/cy_ipc_pipe.c ****     cy_stc_ipc_pipe_ep_t * endpoint;
 399:Generated_Source\PSoC6\pdl\drivers\peripheral\ipc/cy_ipc_pipe.c **** 
 400:Generated_Source\PSoC6\pdl\drivers\peripheral\ipc/cy_ipc_pipe.c ****     CY_ASSERT_L1(NULL != cy_ipc_pipe_epArray);
 693              		.loc 1 400 0
 694 0006 084B     		ldr	r3, .L43
 695 0008 1B68     		ldr	r3, [r3]
 696 000a 002B     		cmp	r3, #0
 697 000c 04D1     		bne	.L42
 698              		.loc 1 400 0 is_stmt 0 discriminator 1
 699 000e C821     		movs	r1, #200
 700              	.LVL82:
 701 0010 4900     		lsls	r1, r1, #1
 702 0012 0648     		ldr	r0, .L43+4
 703              	.LVL83:
 704 0014 FFF7FEFF 		bl	Cy_SysLib_AssertFailed
 705              	.LVL84:
 706              	.L42:
 401:Generated_Source\PSoC6\pdl\drivers\peripheral\ipc/cy_ipc_pipe.c **** 
 402:Generated_Source\PSoC6\pdl\drivers\peripheral\ipc/cy_ipc_pipe.c ****     endpoint = &cy_ipc_pipe_epArray[epAddr];
 707              		.loc 1 402 0 is_stmt 1
 708 0018 034B     		ldr	r3, .L43
ARM GAS  C:\Users\Rolf\AppData\Local\Temp\ccUtnhQP.s 			page 51


 709 001a 1B68     		ldr	r3, [r3]
 710 001c 2C20     		movs	r0, #44
 711 001e 6843     		muls	r0, r5
 712 0020 1818     		adds	r0, r3, r0
 713              	.LVL85:
 403:Generated_Source\PSoC6\pdl\drivers\peripheral\ipc/cy_ipc_pipe.c **** 
 404:Generated_Source\PSoC6\pdl\drivers\peripheral\ipc/cy_ipc_pipe.c ****     /* Copy callback function into callback function pointer array */
 405:Generated_Source\PSoC6\pdl\drivers\peripheral\ipc/cy_ipc_pipe.c ****     endpoint->defaultReleaseCallbackPtr = callBackPtr;
 714              		.loc 1 405 0
 715 0022 8462     		str	r4, [r0, #40]
 406:Generated_Source\PSoC6\pdl\drivers\peripheral\ipc/cy_ipc_pipe.c **** }
 716              		.loc 1 406 0
 717              		@ sp needed
 718              	.LVL86:
 719              	.LVL87:
 720 0024 70BD     		pop	{r4, r5, r6, pc}
 721              	.L44:
 722 0026 C046     		.align	2
 723              	.L43:
 724 0028 00000000 		.word	.LANCHOR0
 725 002c 00000000 		.word	.LC2
 726              		.cfi_endproc
 727              	.LFE71:
 728              		.size	Cy_IPC_Pipe_RegisterCallbackRel, .-Cy_IPC_Pipe_RegisterCallbackRel
 729              		.section	.text.Cy_IPC_Pipe_ExecCallback,"ax",%progbits
 730              		.align	2
 731              		.global	Cy_IPC_Pipe_ExecCallback
 732              		.code	16
 733              		.thumb_func
 734              		.type	Cy_IPC_Pipe_ExecCallback, %function
 735              	Cy_IPC_Pipe_ExecCallback:
 736              	.LFB73:
 407:Generated_Source\PSoC6\pdl\drivers\peripheral\ipc/cy_ipc_pipe.c **** 
 408:Generated_Source\PSoC6\pdl\drivers\peripheral\ipc/cy_ipc_pipe.c **** 
 409:Generated_Source\PSoC6\pdl\drivers\peripheral\ipc/cy_ipc_pipe.c **** /*******************************************************************************
 410:Generated_Source\PSoC6\pdl\drivers\peripheral\ipc/cy_ipc_pipe.c **** * Function Name: Cy_IPC_Pipe_ExecuteCallback
 411:Generated_Source\PSoC6\pdl\drivers\peripheral\ipc/cy_ipc_pipe.c **** ****************************************************************************//**
 412:Generated_Source\PSoC6\pdl\drivers\peripheral\ipc/cy_ipc_pipe.c **** *
 413:Generated_Source\PSoC6\pdl\drivers\peripheral\ipc/cy_ipc_pipe.c **** * This function is called by the ISR for a given pipe endpoint to dispatch
 414:Generated_Source\PSoC6\pdl\drivers\peripheral\ipc/cy_ipc_pipe.c **** * the appropriate callback function based on the client ID for that endpoint.
 415:Generated_Source\PSoC6\pdl\drivers\peripheral\ipc/cy_ipc_pipe.c **** *
 416:Generated_Source\PSoC6\pdl\drivers\peripheral\ipc/cy_ipc_pipe.c **** * \param epAddr
 417:Generated_Source\PSoC6\pdl\drivers\peripheral\ipc/cy_ipc_pipe.c **** * This parameter is the address (or index in the array of endpoint structures)
 418:Generated_Source\PSoC6\pdl\drivers\peripheral\ipc/cy_ipc_pipe.c **** * that designates the endpoint to process.
 419:Generated_Source\PSoC6\pdl\drivers\peripheral\ipc/cy_ipc_pipe.c **** *
 420:Generated_Source\PSoC6\pdl\drivers\peripheral\ipc/cy_ipc_pipe.c **** * \note This function should be used instead of obsolete
 421:Generated_Source\PSoC6\pdl\drivers\peripheral\ipc/cy_ipc_pipe.c **** *       Cy_IPC_Pipe_ExecCallback() function because it will be removed in the
 422:Generated_Source\PSoC6\pdl\drivers\peripheral\ipc/cy_ipc_pipe.c **** *       next releases.
 423:Generated_Source\PSoC6\pdl\drivers\peripheral\ipc/cy_ipc_pipe.c **** *
 424:Generated_Source\PSoC6\pdl\drivers\peripheral\ipc/cy_ipc_pipe.c **** * \funcusage
 425:Generated_Source\PSoC6\pdl\drivers\peripheral\ipc/cy_ipc_pipe.c **** * \snippet IPC_sut_01.cydsn/main_cm4.c snippet_myIpcPipeEpArray
 426:Generated_Source\PSoC6\pdl\drivers\peripheral\ipc/cy_ipc_pipe.c **** * \snippet IPC_sut_01.cydsn/main_cm4.c snippet_Cy_IPC_Pipe_ExecuteCallback
 427:Generated_Source\PSoC6\pdl\drivers\peripheral\ipc/cy_ipc_pipe.c **** *
 428:Generated_Source\PSoC6\pdl\drivers\peripheral\ipc/cy_ipc_pipe.c **** *******************************************************************************/
 429:Generated_Source\PSoC6\pdl\drivers\peripheral\ipc/cy_ipc_pipe.c **** void Cy_IPC_Pipe_ExecuteCallback(uint32_t epAddr)
 430:Generated_Source\PSoC6\pdl\drivers\peripheral\ipc/cy_ipc_pipe.c **** {
 431:Generated_Source\PSoC6\pdl\drivers\peripheral\ipc/cy_ipc_pipe.c ****     cy_stc_ipc_pipe_ep_t * endpoint;
ARM GAS  C:\Users\Rolf\AppData\Local\Temp\ccUtnhQP.s 			page 52


 432:Generated_Source\PSoC6\pdl\drivers\peripheral\ipc/cy_ipc_pipe.c **** 
 433:Generated_Source\PSoC6\pdl\drivers\peripheral\ipc/cy_ipc_pipe.c ****     CY_ASSERT_L1(NULL != cy_ipc_pipe_epArray);
 434:Generated_Source\PSoC6\pdl\drivers\peripheral\ipc/cy_ipc_pipe.c **** 
 435:Generated_Source\PSoC6\pdl\drivers\peripheral\ipc/cy_ipc_pipe.c ****     endpoint = &cy_ipc_pipe_epArray[epAddr];
 436:Generated_Source\PSoC6\pdl\drivers\peripheral\ipc/cy_ipc_pipe.c **** 
 437:Generated_Source\PSoC6\pdl\drivers\peripheral\ipc/cy_ipc_pipe.c ****     Cy_IPC_Pipe_ExecCallback(endpoint);
 438:Generated_Source\PSoC6\pdl\drivers\peripheral\ipc/cy_ipc_pipe.c **** }
 439:Generated_Source\PSoC6\pdl\drivers\peripheral\ipc/cy_ipc_pipe.c **** 
 440:Generated_Source\PSoC6\pdl\drivers\peripheral\ipc/cy_ipc_pipe.c **** 
 441:Generated_Source\PSoC6\pdl\drivers\peripheral\ipc/cy_ipc_pipe.c **** /*******************************************************************************
 442:Generated_Source\PSoC6\pdl\drivers\peripheral\ipc/cy_ipc_pipe.c **** * Function Name: Cy_IPC_Pipe_ExecCallback
 443:Generated_Source\PSoC6\pdl\drivers\peripheral\ipc/cy_ipc_pipe.c **** ****************************************************************************//**
 444:Generated_Source\PSoC6\pdl\drivers\peripheral\ipc/cy_ipc_pipe.c **** *
 445:Generated_Source\PSoC6\pdl\drivers\peripheral\ipc/cy_ipc_pipe.c **** * This function is called by the ISR for a given pipe endpoint to dispatch
 446:Generated_Source\PSoC6\pdl\drivers\peripheral\ipc/cy_ipc_pipe.c **** * the appropriate callback function based on the client ID for that endpoint.
 447:Generated_Source\PSoC6\pdl\drivers\peripheral\ipc/cy_ipc_pipe.c **** *
 448:Generated_Source\PSoC6\pdl\drivers\peripheral\ipc/cy_ipc_pipe.c **** * \param endpoint
 449:Generated_Source\PSoC6\pdl\drivers\peripheral\ipc/cy_ipc_pipe.c **** * Pointer to endpoint structure.
 450:Generated_Source\PSoC6\pdl\drivers\peripheral\ipc/cy_ipc_pipe.c **** *
 451:Generated_Source\PSoC6\pdl\drivers\peripheral\ipc/cy_ipc_pipe.c **** * \note This function is obsolete and will be removed in the next releases.
 452:Generated_Source\PSoC6\pdl\drivers\peripheral\ipc/cy_ipc_pipe.c **** *       Please use Cy_IPC_Pipe_ExecuteCallback() instead.
 453:Generated_Source\PSoC6\pdl\drivers\peripheral\ipc/cy_ipc_pipe.c **** *
 454:Generated_Source\PSoC6\pdl\drivers\peripheral\ipc/cy_ipc_pipe.c **** *******************************************************************************/
 455:Generated_Source\PSoC6\pdl\drivers\peripheral\ipc/cy_ipc_pipe.c **** void Cy_IPC_Pipe_ExecCallback(cy_stc_ipc_pipe_ep_t * endpoint)
 456:Generated_Source\PSoC6\pdl\drivers\peripheral\ipc/cy_ipc_pipe.c **** {
 737              		.loc 1 456 0
 738              		.cfi_startproc
 739              		@ args = 0, pretend = 0, frame = 8
 740              		@ frame_needed = 0, uses_anonymous_args = 0
 741              	.LVL88:
 742 0000 70B5     		push	{r4, r5, r6, lr}
 743              		.cfi_def_cfa_offset 16
 744              		.cfi_offset 4, -16
 745              		.cfi_offset 5, -12
 746              		.cfi_offset 6, -8
 747              		.cfi_offset 14, -4
 748 0002 82B0     		sub	sp, sp, #8
 749              		.cfi_def_cfa_offset 24
 750 0004 0400     		movs	r4, r0
 457:Generated_Source\PSoC6\pdl\drivers\peripheral\ipc/cy_ipc_pipe.c ****     uint32_t *msgPtr = NULL;
 751              		.loc 1 457 0
 752 0006 0023     		movs	r3, #0
 753 0008 0193     		str	r3, [sp, #4]
 754              	.LVL89:
 458:Generated_Source\PSoC6\pdl\drivers\peripheral\ipc/cy_ipc_pipe.c ****     uint32_t clientID;
 459:Generated_Source\PSoC6\pdl\drivers\peripheral\ipc/cy_ipc_pipe.c ****     uint32_t shadowIntr;
 460:Generated_Source\PSoC6\pdl\drivers\peripheral\ipc/cy_ipc_pipe.c ****     uint32_t releaseMask = (uint32_t)0;
 461:Generated_Source\PSoC6\pdl\drivers\peripheral\ipc/cy_ipc_pipe.c **** 
 462:Generated_Source\PSoC6\pdl\drivers\peripheral\ipc/cy_ipc_pipe.c ****     cy_ipc_pipe_callback_ptr_t callbackPtr;
 463:Generated_Source\PSoC6\pdl\drivers\peripheral\ipc/cy_ipc_pipe.c **** 
 464:Generated_Source\PSoC6\pdl\drivers\peripheral\ipc/cy_ipc_pipe.c ****     /* Parameters checking begin */
 465:Generated_Source\PSoC6\pdl\drivers\peripheral\ipc/cy_ipc_pipe.c ****     CY_ASSERT_L1(NULL != endpoint);
 755              		.loc 1 465 0
 756 000a 0028     		cmp	r0, #0
 757 000c 04D1     		bne	.L46
 758              		.loc 1 465 0 is_stmt 0 discriminator 1
 759 000e D221     		movs	r1, #210
ARM GAS  C:\Users\Rolf\AppData\Local\Temp\ccUtnhQP.s 			page 53


 760 0010 FF31     		adds	r1, r1, #255
 761 0012 2D48     		ldr	r0, .L57
 762              	.LVL90:
 763 0014 FFF7FEFF 		bl	Cy_SysLib_AssertFailed
 764              	.LVL91:
 765              	.L46:
 466:Generated_Source\PSoC6\pdl\drivers\peripheral\ipc/cy_ipc_pipe.c ****     CY_ASSERT_L1(NULL != endpoint->ipcPtr);
 766              		.loc 1 466 0 is_stmt 1
 767 0018 2369     		ldr	r3, [r4, #16]
 768 001a 002B     		cmp	r3, #0
 769 001c 04D1     		bne	.L47
 770              		.loc 1 466 0 is_stmt 0 discriminator 1
 771 001e E921     		movs	r1, #233
 772 0020 4900     		lsls	r1, r1, #1
 773 0022 2948     		ldr	r0, .L57
 774 0024 FFF7FEFF 		bl	Cy_SysLib_AssertFailed
 775              	.LVL92:
 776              	.L47:
 467:Generated_Source\PSoC6\pdl\drivers\peripheral\ipc/cy_ipc_pipe.c ****     CY_ASSERT_L1(NULL != endpoint->ipcIntrPtr);
 777              		.loc 1 467 0 is_stmt 1
 778 0028 6369     		ldr	r3, [r4, #20]
 779 002a 002B     		cmp	r3, #0
 780 002c 04D1     		bne	.L48
 781              		.loc 1 467 0 is_stmt 0 discriminator 1
 782 002e D421     		movs	r1, #212
 783 0030 FF31     		adds	r1, r1, #255
 784 0032 2548     		ldr	r0, .L57
 785 0034 FFF7FEFF 		bl	Cy_SysLib_AssertFailed
 786              	.LVL93:
 787              	.L48:
 468:Generated_Source\PSoC6\pdl\drivers\peripheral\ipc/cy_ipc_pipe.c ****     CY_ASSERT_L1(NULL != endpoint->callbackArray);
 788              		.loc 1 468 0 is_stmt 1
 789 0038 236A     		ldr	r3, [r4, #32]
 790 003a 002B     		cmp	r3, #0
 791 003c 04D1     		bne	.L49
 792              		.loc 1 468 0 is_stmt 0 discriminator 1
 793 003e EA21     		movs	r1, #234
 794 0040 4900     		lsls	r1, r1, #1
 795 0042 2148     		ldr	r0, .L57
 796 0044 FFF7FEFF 		bl	Cy_SysLib_AssertFailed
 797              	.LVL94:
 798              	.L49:
 469:Generated_Source\PSoC6\pdl\drivers\peripheral\ipc/cy_ipc_pipe.c ****     /* Parameters checking end */
 470:Generated_Source\PSoC6\pdl\drivers\peripheral\ipc/cy_ipc_pipe.c **** 
 471:Generated_Source\PSoC6\pdl\drivers\peripheral\ipc/cy_ipc_pipe.c ****     shadowIntr = Cy_IPC_Drv_GetInterruptStatusMasked(endpoint->ipcIntrPtr);
 799              		.loc 1 471 0 is_stmt 1
 800 0048 6269     		ldr	r2, [r4, #20]
 801              	.LVL95:
 802              	.LBB76:
 803              	.LBB77:
 571:Generated_Source\PSoC6\pdl\drivers\peripheral\ipc/cy_ipc_drv.h **** }
 804              		.loc 2 571 0
 805 004a D568     		ldr	r5, [r2, #12]
 806              	.LVL96:
 807              	.LBE77:
 808              	.LBE76:
 809              	.LBB78:
ARM GAS  C:\Users\Rolf\AppData\Local\Temp\ccUtnhQP.s 			page 54


 810              	.LBB79:
 851:Generated_Source\PSoC6\pdl\drivers\peripheral\ipc/cy_ipc_drv.h **** }
 811              		.loc 2 851 0
 812 004c 2B0C     		lsrs	r3, r5, #16
 813              	.LBE79:
 814              	.LBE78:
 472:Generated_Source\PSoC6\pdl\drivers\peripheral\ipc/cy_ipc_pipe.c **** 
 473:Generated_Source\PSoC6\pdl\drivers\peripheral\ipc/cy_ipc_pipe.c ****     /* Check to make sure the interrupt was a notify interrupt */
 474:Generated_Source\PSoC6\pdl\drivers\peripheral\ipc/cy_ipc_pipe.c ****     if (0ul != Cy_IPC_Drv_ExtractAcquireMask(shadowIntr))
 815              		.loc 1 474 0
 816 004e 24D0     		beq	.L50
 817              	.LBB80:
 818              	.LBB81:
 666:Generated_Source\PSoC6\pdl\drivers\peripheral\ipc/cy_ipc_drv.h ****                   _VAL2FLD(IPC_INTR_STRUCT_INTR_RELEASE, ipcReleaseMask);
 819              		.loc 2 666 0
 820 0050 1B04     		lsls	r3, r3, #16
 821 0052 1360     		str	r3, [r2]
 668:Generated_Source\PSoC6\pdl\drivers\peripheral\ipc/cy_ipc_drv.h **** }
 822              		.loc 2 668 0
 823 0054 1368     		ldr	r3, [r2]
 824              	.LBE81:
 825              	.LBE80:
 475:Generated_Source\PSoC6\pdl\drivers\peripheral\ipc/cy_ipc_pipe.c ****     {
 476:Generated_Source\PSoC6\pdl\drivers\peripheral\ipc/cy_ipc_pipe.c ****         /* Clear the notify interrupt.  */
 477:Generated_Source\PSoC6\pdl\drivers\peripheral\ipc/cy_ipc_pipe.c ****         Cy_IPC_Drv_ClearInterrupt(endpoint->ipcIntrPtr, CY_IPC_NO_NOTIFICATION, Cy_IPC_Drv_ExtractA
 478:Generated_Source\PSoC6\pdl\drivers\peripheral\ipc/cy_ipc_pipe.c **** 
 479:Generated_Source\PSoC6\pdl\drivers\peripheral\ipc/cy_ipc_pipe.c ****         if ( Cy_IPC_Drv_IsLockAcquired (endpoint->ipcPtr) )
 826              		.loc 1 479 0
 827 0056 2069     		ldr	r0, [r4, #16]
 828              	.LVL97:
 829              	.LBB82:
 830              	.LBB83:
 804:Generated_Source\PSoC6\pdl\drivers\peripheral\ipc/cy_ipc_drv.h **** }
 831              		.loc 2 804 0
 832 0058 1C4B     		ldr	r3, .L57+4
 833 005a 1A68     		ldr	r2, [r3]
 834 005c B423     		movs	r3, #180
 835 005e D358     		ldr	r3, [r2, r3]
 836 0060 C318     		adds	r3, r0, r3
 837 0062 1B68     		ldr	r3, [r3]
 838              	.LVL98:
 839              	.LBE83:
 840              	.LBE82:
 841              		.loc 1 479 0
 842 0064 002B     		cmp	r3, #0
 843 0066 18DA     		bge	.L50
 844              	.LVL99:
 845              	.LBB84:
 846              	.LBB85:
 951:Generated_Source\PSoC6\pdl\drivers\peripheral\ipc/cy_ipc_drv.h **** }
 847              		.loc 2 951 0
 848 0068 01A9     		add	r1, sp, #4
 849              	.LVL100:
 850 006a FFF7FEFF 		bl	Cy_IPC_Drv_ReadMsgWord
 851              	.LVL101:
 852              	.LBE85:
 853              	.LBE84:
ARM GAS  C:\Users\Rolf\AppData\Local\Temp\ccUtnhQP.s 			page 55


 480:Generated_Source\PSoC6\pdl\drivers\peripheral\ipc/cy_ipc_pipe.c ****         {
 481:Generated_Source\PSoC6\pdl\drivers\peripheral\ipc/cy_ipc_pipe.c ****             /* Extract Client ID  */
 482:Generated_Source\PSoC6\pdl\drivers\peripheral\ipc/cy_ipc_pipe.c ****             if( CY_IPC_DRV_SUCCESS == Cy_IPC_Drv_ReadMsgPtr (endpoint->ipcPtr, (void **)&msgPtr))
 854              		.loc 1 482 0
 855 006e 0028     		cmp	r0, #0
 856 0070 0ED1     		bne	.L56
 483:Generated_Source\PSoC6\pdl\drivers\peripheral\ipc/cy_ipc_pipe.c ****             {
 484:Generated_Source\PSoC6\pdl\drivers\peripheral\ipc/cy_ipc_pipe.c ****                 /* Get release mask */
 485:Generated_Source\PSoC6\pdl\drivers\peripheral\ipc/cy_ipc_pipe.c ****                 releaseMask = _FLD2VAL(CY_IPC_PIPE_MSG_RELEASE, *msgPtr);
 857              		.loc 1 485 0
 858 0072 0198     		ldr	r0, [sp, #4]
 859 0074 0368     		ldr	r3, [r0]
 860 0076 1E0C     		lsrs	r6, r3, #16
 861              	.LVL102:
 486:Generated_Source\PSoC6\pdl\drivers\peripheral\ipc/cy_ipc_pipe.c ****                 clientID    = _FLD2VAL(CY_IPC_PIPE_MSG_CLIENT,  *msgPtr);
 862              		.loc 1 486 0
 863 0078 FF22     		movs	r2, #255
 864 007a 1340     		ands	r3, r2
 865              	.LVL103:
 487:Generated_Source\PSoC6\pdl\drivers\peripheral\ipc/cy_ipc_pipe.c **** 
 488:Generated_Source\PSoC6\pdl\drivers\peripheral\ipc/cy_ipc_pipe.c ****                 /* Make sure client ID is within valid range */
 489:Generated_Source\PSoC6\pdl\drivers\peripheral\ipc/cy_ipc_pipe.c ****                 if (endpoint->clientCount > clientID)
 866              		.loc 1 489 0
 867 007c E269     		ldr	r2, [r4, #28]
 868 007e 9342     		cmp	r3, r2
 869 0080 07D2     		bcs	.L52
 490:Generated_Source\PSoC6\pdl\drivers\peripheral\ipc/cy_ipc_pipe.c ****                 {
 491:Generated_Source\PSoC6\pdl\drivers\peripheral\ipc/cy_ipc_pipe.c ****                     callbackPtr = endpoint->callbackArray[clientID];  /* Get the callback function 
 870              		.loc 1 491 0
 871 0082 9B00     		lsls	r3, r3, #2
 872              	.LVL104:
 873 0084 226A     		ldr	r2, [r4, #32]
 874 0086 D358     		ldr	r3, [r2, r3]
 875              	.LVL105:
 492:Generated_Source\PSoC6\pdl\drivers\peripheral\ipc/cy_ipc_pipe.c **** 
 493:Generated_Source\PSoC6\pdl\drivers\peripheral\ipc/cy_ipc_pipe.c ****                     if (callbackPtr != NULL)
 876              		.loc 1 493 0
 877 0088 002B     		cmp	r3, #0
 878 008a 02D0     		beq	.L52
 494:Generated_Source\PSoC6\pdl\drivers\peripheral\ipc/cy_ipc_pipe.c ****                     {
 495:Generated_Source\PSoC6\pdl\drivers\peripheral\ipc/cy_ipc_pipe.c ****                         callbackPtr(msgPtr);   /* Call the function pointer for "clientID" */
 879              		.loc 1 495 0
 880 008c 9847     		blx	r3
 881              	.LVL106:
 882 008e 00E0     		b	.L52
 883              	.LVL107:
 884              	.L56:
 460:Generated_Source\PSoC6\pdl\drivers\peripheral\ipc/cy_ipc_pipe.c **** 
 885              		.loc 1 460 0
 886 0090 0026     		movs	r6, #0
 887              	.LVL108:
 888              	.L52:
 496:Generated_Source\PSoC6\pdl\drivers\peripheral\ipc/cy_ipc_pipe.c ****                     }
 497:Generated_Source\PSoC6\pdl\drivers\peripheral\ipc/cy_ipc_pipe.c ****                 }
 498:Generated_Source\PSoC6\pdl\drivers\peripheral\ipc/cy_ipc_pipe.c ****             }
 499:Generated_Source\PSoC6\pdl\drivers\peripheral\ipc/cy_ipc_pipe.c **** 
 500:Generated_Source\PSoC6\pdl\drivers\peripheral\ipc/cy_ipc_pipe.c ****             /* Must always release the IPC channel */
ARM GAS  C:\Users\Rolf\AppData\Local\Temp\ccUtnhQP.s 			page 56


 501:Generated_Source\PSoC6\pdl\drivers\peripheral\ipc/cy_ipc_pipe.c ****             (void)Cy_IPC_Drv_LockRelease (endpoint->ipcPtr, releaseMask);
 889              		.loc 1 501 0
 890 0092 3100     		movs	r1, r6
 891 0094 2069     		ldr	r0, [r4, #16]
 892 0096 FFF7FEFF 		bl	Cy_IPC_Drv_LockRelease
 893              	.LVL109:
 894              	.L50:
 895              	.LBB86:
 896              	.LBB87:
 873:Generated_Source\PSoC6\pdl\drivers\peripheral\ipc/cy_ipc_drv.h **** }
 897              		.loc 2 873 0
 898 009a 2D04     		lsls	r5, r5, #16
 899              	.LVL110:
 900 009c 2D0C     		lsrs	r5, r5, #16
 901              	.LBE87:
 902              	.LBE86:
 502:Generated_Source\PSoC6\pdl\drivers\peripheral\ipc/cy_ipc_pipe.c ****         }
 503:Generated_Source\PSoC6\pdl\drivers\peripheral\ipc/cy_ipc_pipe.c ****     }
 504:Generated_Source\PSoC6\pdl\drivers\peripheral\ipc/cy_ipc_pipe.c **** 
 505:Generated_Source\PSoC6\pdl\drivers\peripheral\ipc/cy_ipc_pipe.c ****     /* Check to make sure the interrupt was a release interrupt */
 506:Generated_Source\PSoC6\pdl\drivers\peripheral\ipc/cy_ipc_pipe.c ****     if (0ul != Cy_IPC_Drv_ExtractReleaseMask(shadowIntr))  /* Check for a Release interrupt */
 903              		.loc 1 506 0
 904 009e 0FD0     		beq	.L53
 507:Generated_Source\PSoC6\pdl\drivers\peripheral\ipc/cy_ipc_pipe.c ****     {
 508:Generated_Source\PSoC6\pdl\drivers\peripheral\ipc/cy_ipc_pipe.c ****         /* Clear the release interrupt  */
 509:Generated_Source\PSoC6\pdl\drivers\peripheral\ipc/cy_ipc_pipe.c ****         Cy_IPC_Drv_ClearInterrupt(endpoint->ipcIntrPtr, Cy_IPC_Drv_ExtractReleaseMask(shadowIntr), 
 905              		.loc 1 509 0
 906 00a0 6369     		ldr	r3, [r4, #20]
 907              	.LVL111:
 908              	.LBB88:
 909              	.LBB89:
 666:Generated_Source\PSoC6\pdl\drivers\peripheral\ipc/cy_ipc_drv.h ****                   _VAL2FLD(IPC_INTR_STRUCT_INTR_RELEASE, ipcReleaseMask);
 910              		.loc 2 666 0
 911 00a2 1D60     		str	r5, [r3]
 668:Generated_Source\PSoC6\pdl\drivers\peripheral\ipc/cy_ipc_drv.h **** }
 912              		.loc 2 668 0
 913 00a4 1B68     		ldr	r3, [r3]
 914              	.LVL112:
 915              	.LBE89:
 916              	.LBE88:
 510:Generated_Source\PSoC6\pdl\drivers\peripheral\ipc/cy_ipc_pipe.c **** 
 511:Generated_Source\PSoC6\pdl\drivers\peripheral\ipc/cy_ipc_pipe.c ****         if (endpoint->releaseCallbackPtr != NULL)
 917              		.loc 1 511 0
 918 00a6 636A     		ldr	r3, [r4, #36]
 919 00a8 002B     		cmp	r3, #0
 920 00aa 03D0     		beq	.L54
 512:Generated_Source\PSoC6\pdl\drivers\peripheral\ipc/cy_ipc_pipe.c ****         {
 513:Generated_Source\PSoC6\pdl\drivers\peripheral\ipc/cy_ipc_pipe.c ****             endpoint->releaseCallbackPtr();
 921              		.loc 1 513 0
 922 00ac 9847     		blx	r3
 923              	.LVL113:
 514:Generated_Source\PSoC6\pdl\drivers\peripheral\ipc/cy_ipc_pipe.c **** 
 515:Generated_Source\PSoC6\pdl\drivers\peripheral\ipc/cy_ipc_pipe.c ****             /* Clear the pointer after it was called */
 516:Generated_Source\PSoC6\pdl\drivers\peripheral\ipc/cy_ipc_pipe.c ****             endpoint->releaseCallbackPtr = NULL;
 924              		.loc 1 516 0
 925 00ae 0023     		movs	r3, #0
 926 00b0 6362     		str	r3, [r4, #36]
ARM GAS  C:\Users\Rolf\AppData\Local\Temp\ccUtnhQP.s 			page 57


 927 00b2 03E0     		b	.L55
 928              	.L54:
 517:Generated_Source\PSoC6\pdl\drivers\peripheral\ipc/cy_ipc_pipe.c ****         }
 518:Generated_Source\PSoC6\pdl\drivers\peripheral\ipc/cy_ipc_pipe.c ****         else
 519:Generated_Source\PSoC6\pdl\drivers\peripheral\ipc/cy_ipc_pipe.c ****         {
 520:Generated_Source\PSoC6\pdl\drivers\peripheral\ipc/cy_ipc_pipe.c ****             if (endpoint->defaultReleaseCallbackPtr != NULL)
 929              		.loc 1 520 0
 930 00b4 A36A     		ldr	r3, [r4, #40]
 931 00b6 002B     		cmp	r3, #0
 932 00b8 00D0     		beq	.L55
 521:Generated_Source\PSoC6\pdl\drivers\peripheral\ipc/cy_ipc_pipe.c ****             {
 522:Generated_Source\PSoC6\pdl\drivers\peripheral\ipc/cy_ipc_pipe.c ****                 endpoint->defaultReleaseCallbackPtr();
 933              		.loc 1 522 0
 934 00ba 9847     		blx	r3
 935              	.LVL114:
 936              	.L55:
 523:Generated_Source\PSoC6\pdl\drivers\peripheral\ipc/cy_ipc_pipe.c ****             }
 524:Generated_Source\PSoC6\pdl\drivers\peripheral\ipc/cy_ipc_pipe.c ****         }
 525:Generated_Source\PSoC6\pdl\drivers\peripheral\ipc/cy_ipc_pipe.c **** 
 526:Generated_Source\PSoC6\pdl\drivers\peripheral\ipc/cy_ipc_pipe.c ****         /* Clear the busy flag when release is detected */
 527:Generated_Source\PSoC6\pdl\drivers\peripheral\ipc/cy_ipc_pipe.c ****         endpoint->busy = CY_IPC_PIPE_ENDPOINT_NOTBUSY;
 937              		.loc 1 527 0
 938 00bc 0023     		movs	r3, #0
 939 00be A361     		str	r3, [r4, #24]
 940              	.L53:
 528:Generated_Source\PSoC6\pdl\drivers\peripheral\ipc/cy_ipc_pipe.c ****     }
 529:Generated_Source\PSoC6\pdl\drivers\peripheral\ipc/cy_ipc_pipe.c **** 
 530:Generated_Source\PSoC6\pdl\drivers\peripheral\ipc/cy_ipc_pipe.c ****     (void)Cy_IPC_Drv_GetInterruptStatus(endpoint->ipcIntrPtr);
 941              		.loc 1 530 0
 942 00c0 6369     		ldr	r3, [r4, #20]
 943              	.LVL115:
 944              	.LBB90:
 945              	.LBB91:
 601:Generated_Source\PSoC6\pdl\drivers\peripheral\ipc/cy_ipc_drv.h **** }
 946              		.loc 2 601 0
 947 00c2 1B68     		ldr	r3, [r3]
 948              	.LVL116:
 949              	.LBE91:
 950              	.LBE90:
 531:Generated_Source\PSoC6\pdl\drivers\peripheral\ipc/cy_ipc_pipe.c **** }
 951              		.loc 1 531 0
 952 00c4 02B0     		add	sp, sp, #8
 953              		@ sp needed
 954              	.LVL117:
 955 00c6 70BD     		pop	{r4, r5, r6, pc}
 956              	.L58:
 957              		.align	2
 958              	.L57:
 959 00c8 00000000 		.word	.LC2
 960 00cc 00000000 		.word	cy_device
 961              		.cfi_endproc
 962              	.LFE73:
 963              		.size	Cy_IPC_Pipe_ExecCallback, .-Cy_IPC_Pipe_ExecCallback
 964              		.section	.text.Cy_IPC_Pipe_ExecuteCallback,"ax",%progbits
 965              		.align	2
 966              		.global	Cy_IPC_Pipe_ExecuteCallback
 967              		.code	16
ARM GAS  C:\Users\Rolf\AppData\Local\Temp\ccUtnhQP.s 			page 58


 968              		.thumb_func
 969              		.type	Cy_IPC_Pipe_ExecuteCallback, %function
 970              	Cy_IPC_Pipe_ExecuteCallback:
 971              	.LFB72:
 430:Generated_Source\PSoC6\pdl\drivers\peripheral\ipc/cy_ipc_pipe.c ****     cy_stc_ipc_pipe_ep_t * endpoint;
 972              		.loc 1 430 0
 973              		.cfi_startproc
 974              		@ args = 0, pretend = 0, frame = 0
 975              		@ frame_needed = 0, uses_anonymous_args = 0
 976              	.LVL118:
 977 0000 10B5     		push	{r4, lr}
 978              		.cfi_def_cfa_offset 8
 979              		.cfi_offset 4, -8
 980              		.cfi_offset 14, -4
 981 0002 0400     		movs	r4, r0
 433:Generated_Source\PSoC6\pdl\drivers\peripheral\ipc/cy_ipc_pipe.c **** 
 982              		.loc 1 433 0
 983 0004 084B     		ldr	r3, .L61
 984 0006 1B68     		ldr	r3, [r3]
 985 0008 002B     		cmp	r3, #0
 986 000a 04D1     		bne	.L60
 433:Generated_Source\PSoC6\pdl\drivers\peripheral\ipc/cy_ipc_pipe.c **** 
 987              		.loc 1 433 0 is_stmt 0 discriminator 1
 988 000c B221     		movs	r1, #178
 989 000e FF31     		adds	r1, r1, #255
 990 0010 0648     		ldr	r0, .L61+4
 991              	.LVL119:
 992 0012 FFF7FEFF 		bl	Cy_SysLib_AssertFailed
 993              	.LVL120:
 994              	.L60:
 435:Generated_Source\PSoC6\pdl\drivers\peripheral\ipc/cy_ipc_pipe.c **** 
 995              		.loc 1 435 0 is_stmt 1
 996 0016 044B     		ldr	r3, .L61
 997 0018 1B68     		ldr	r3, [r3]
 998 001a 2C20     		movs	r0, #44
 999 001c 6043     		muls	r0, r4
 1000 001e 1818     		adds	r0, r3, r0
 1001              	.LVL121:
 437:Generated_Source\PSoC6\pdl\drivers\peripheral\ipc/cy_ipc_pipe.c **** }
 1002              		.loc 1 437 0
 1003 0020 FFF7FEFF 		bl	Cy_IPC_Pipe_ExecCallback
 1004              	.LVL122:
 438:Generated_Source\PSoC6\pdl\drivers\peripheral\ipc/cy_ipc_pipe.c **** 
 1005              		.loc 1 438 0
 1006              		@ sp needed
 1007              	.LVL123:
 1008 0024 10BD     		pop	{r4, pc}
 1009              	.L62:
 1010 0026 C046     		.align	2
 1011              	.L61:
 1012 0028 00000000 		.word	.LANCHOR0
 1013 002c 00000000 		.word	.LC2
 1014              		.cfi_endproc
 1015              	.LFE72:
 1016              		.size	Cy_IPC_Pipe_ExecuteCallback, .-Cy_IPC_Pipe_ExecuteCallback
 1017              		.section	.text.Cy_IPC_Pipe_EndpointPause,"ax",%progbits
 1018              		.align	2
ARM GAS  C:\Users\Rolf\AppData\Local\Temp\ccUtnhQP.s 			page 59


 1019              		.global	Cy_IPC_Pipe_EndpointPause
 1020              		.code	16
 1021              		.thumb_func
 1022              		.type	Cy_IPC_Pipe_EndpointPause, %function
 1023              	Cy_IPC_Pipe_EndpointPause:
 1024              	.LFB74:
 532:Generated_Source\PSoC6\pdl\drivers\peripheral\ipc/cy_ipc_pipe.c **** 
 533:Generated_Source\PSoC6\pdl\drivers\peripheral\ipc/cy_ipc_pipe.c **** 
 534:Generated_Source\PSoC6\pdl\drivers\peripheral\ipc/cy_ipc_pipe.c **** /*******************************************************************************
 535:Generated_Source\PSoC6\pdl\drivers\peripheral\ipc/cy_ipc_pipe.c **** * Function Name: Cy_IPC_Pipe_EndpointPause
 536:Generated_Source\PSoC6\pdl\drivers\peripheral\ipc/cy_ipc_pipe.c **** ****************************************************************************//**
 537:Generated_Source\PSoC6\pdl\drivers\peripheral\ipc/cy_ipc_pipe.c **** *
 538:Generated_Source\PSoC6\pdl\drivers\peripheral\ipc/cy_ipc_pipe.c **** * This function sets the receiver endpoint to paused state.
 539:Generated_Source\PSoC6\pdl\drivers\peripheral\ipc/cy_ipc_pipe.c **** *
 540:Generated_Source\PSoC6\pdl\drivers\peripheral\ipc/cy_ipc_pipe.c **** * \param epAddr
 541:Generated_Source\PSoC6\pdl\drivers\peripheral\ipc/cy_ipc_pipe.c **** * This parameter is the address (or index in the array of endpoint structures)
 542:Generated_Source\PSoC6\pdl\drivers\peripheral\ipc/cy_ipc_pipe.c **** * that designates the endpoint to pause.
 543:Generated_Source\PSoC6\pdl\drivers\peripheral\ipc/cy_ipc_pipe.c **** *
 544:Generated_Source\PSoC6\pdl\drivers\peripheral\ipc/cy_ipc_pipe.c **** * \return
 545:Generated_Source\PSoC6\pdl\drivers\peripheral\ipc/cy_ipc_pipe.c **** *    CY_IPC_PIPE_SUCCESS:           Callback registered successfully
 546:Generated_Source\PSoC6\pdl\drivers\peripheral\ipc/cy_ipc_pipe.c **** *
 547:Generated_Source\PSoC6\pdl\drivers\peripheral\ipc/cy_ipc_pipe.c **** * \funcusage
 548:Generated_Source\PSoC6\pdl\drivers\peripheral\ipc/cy_ipc_pipe.c **** * \snippet IPC_sut_01.cydsn/main_cm4.c snippet_Cy_IPC_Pipe_EndpointPauseResume
 549:Generated_Source\PSoC6\pdl\drivers\peripheral\ipc/cy_ipc_pipe.c **** *
 550:Generated_Source\PSoC6\pdl\drivers\peripheral\ipc/cy_ipc_pipe.c **** *******************************************************************************/
 551:Generated_Source\PSoC6\pdl\drivers\peripheral\ipc/cy_ipc_pipe.c **** cy_en_ipc_pipe_status_t Cy_IPC_Pipe_EndpointPause(uint32_t epAddr)
 552:Generated_Source\PSoC6\pdl\drivers\peripheral\ipc/cy_ipc_pipe.c **** {
 1025              		.loc 1 552 0
 1026              		.cfi_startproc
 1027              		@ args = 0, pretend = 0, frame = 0
 1028              		@ frame_needed = 0, uses_anonymous_args = 0
 1029              	.LVL124:
 1030 0000 10B5     		push	{r4, lr}
 1031              		.cfi_def_cfa_offset 8
 1032              		.cfi_offset 4, -8
 1033              		.cfi_offset 14, -4
 1034 0002 0400     		movs	r4, r0
 553:Generated_Source\PSoC6\pdl\drivers\peripheral\ipc/cy_ipc_pipe.c ****     cy_stc_ipc_pipe_ep_t * endpoint;
 554:Generated_Source\PSoC6\pdl\drivers\peripheral\ipc/cy_ipc_pipe.c **** 
 555:Generated_Source\PSoC6\pdl\drivers\peripheral\ipc/cy_ipc_pipe.c ****     CY_ASSERT_L1(NULL != cy_ipc_pipe_epArray);
 1035              		.loc 1 555 0
 1036 0004 0E4B     		ldr	r3, .L66
 1037 0006 1B68     		ldr	r3, [r3]
 1038 0008 002B     		cmp	r3, #0
 1039 000a 03D1     		bne	.L64
 1040              		.loc 1 555 0 is_stmt 0 discriminator 1
 1041 000c 0D49     		ldr	r1, .L66+4
 1042 000e 0E48     		ldr	r0, .L66+8
 1043              	.LVL125:
 1044 0010 FFF7FEFF 		bl	Cy_SysLib_AssertFailed
 1045              	.LVL126:
 1046              	.L64:
 556:Generated_Source\PSoC6\pdl\drivers\peripheral\ipc/cy_ipc_pipe.c **** 
 557:Generated_Source\PSoC6\pdl\drivers\peripheral\ipc/cy_ipc_pipe.c ****     endpoint = &cy_ipc_pipe_epArray[epAddr];
 1047              		.loc 1 557 0 is_stmt 1
 1048 0014 0A4B     		ldr	r3, .L66
 1049 0016 1B68     		ldr	r3, [r3]
ARM GAS  C:\Users\Rolf\AppData\Local\Temp\ccUtnhQP.s 			page 60


 1050 0018 2C20     		movs	r0, #44
 1051 001a 6043     		muls	r0, r4
 1052 001c 1818     		adds	r0, r3, r0
 1053              	.LVL127:
 558:Generated_Source\PSoC6\pdl\drivers\peripheral\ipc/cy_ipc_pipe.c **** 
 559:Generated_Source\PSoC6\pdl\drivers\peripheral\ipc/cy_ipc_pipe.c ****     /* Disable the interrupts */
 560:Generated_Source\PSoC6\pdl\drivers\peripheral\ipc/cy_ipc_pipe.c ****     NVIC_DisableIRQ(endpoint->pipeIntrSrc);
 1054              		.loc 1 560 0
 1055 001e 0C23     		movs	r3, #12
 1056 0020 C25E     		ldrsh	r2, [r0, r3]
 1057              	.LVL128:
 1058              	.LBB92:
 1059              	.LBB93:
 738:Generated_Source\PSoC6\pdl\cmsis/include/core_cm0plus.h ****   }
 739:Generated_Source\PSoC6\pdl\cmsis/include/core_cm0plus.h **** }
 740:Generated_Source\PSoC6\pdl\cmsis/include/core_cm0plus.h **** 
 741:Generated_Source\PSoC6\pdl\cmsis/include/core_cm0plus.h **** 
 742:Generated_Source\PSoC6\pdl\cmsis/include/core_cm0plus.h **** /**
 743:Generated_Source\PSoC6\pdl\cmsis/include/core_cm0plus.h ****   \brief   Get Interrupt Enable status
 744:Generated_Source\PSoC6\pdl\cmsis/include/core_cm0plus.h ****   \details Returns a device specific interrupt enable status from the NVIC interrupt controller.
 745:Generated_Source\PSoC6\pdl\cmsis/include/core_cm0plus.h ****   \param [in]      IRQn  Device specific interrupt number.
 746:Generated_Source\PSoC6\pdl\cmsis/include/core_cm0plus.h ****   \return             0  Interrupt is not enabled.
 747:Generated_Source\PSoC6\pdl\cmsis/include/core_cm0plus.h ****   \return             1  Interrupt is enabled.
 748:Generated_Source\PSoC6\pdl\cmsis/include/core_cm0plus.h ****   \note    IRQn must not be negative.
 749:Generated_Source\PSoC6\pdl\cmsis/include/core_cm0plus.h ****  */
 750:Generated_Source\PSoC6\pdl\cmsis/include/core_cm0plus.h **** __STATIC_INLINE uint32_t __NVIC_GetEnableIRQ(IRQn_Type IRQn)
 751:Generated_Source\PSoC6\pdl\cmsis/include/core_cm0plus.h **** {
 752:Generated_Source\PSoC6\pdl\cmsis/include/core_cm0plus.h ****   if ((int32_t)(IRQn) >= 0)
 753:Generated_Source\PSoC6\pdl\cmsis/include/core_cm0plus.h ****   {
 754:Generated_Source\PSoC6\pdl\cmsis/include/core_cm0plus.h ****     return((uint32_t)(((NVIC->ISER[0U] & (1UL << (((uint32_t)IRQn) & 0x1FUL))) != 0UL) ? 1UL : 0UL)
 755:Generated_Source\PSoC6\pdl\cmsis/include/core_cm0plus.h ****   }
 756:Generated_Source\PSoC6\pdl\cmsis/include/core_cm0plus.h ****   else
 757:Generated_Source\PSoC6\pdl\cmsis/include/core_cm0plus.h ****   {
 758:Generated_Source\PSoC6\pdl\cmsis/include/core_cm0plus.h ****     return(0U);
 759:Generated_Source\PSoC6\pdl\cmsis/include/core_cm0plus.h ****   }
 760:Generated_Source\PSoC6\pdl\cmsis/include/core_cm0plus.h **** }
 761:Generated_Source\PSoC6\pdl\cmsis/include/core_cm0plus.h **** 
 762:Generated_Source\PSoC6\pdl\cmsis/include/core_cm0plus.h **** 
 763:Generated_Source\PSoC6\pdl\cmsis/include/core_cm0plus.h **** /**
 764:Generated_Source\PSoC6\pdl\cmsis/include/core_cm0plus.h ****   \brief   Disable Interrupt
 765:Generated_Source\PSoC6\pdl\cmsis/include/core_cm0plus.h ****   \details Disables a device specific interrupt in the NVIC interrupt controller.
 766:Generated_Source\PSoC6\pdl\cmsis/include/core_cm0plus.h ****   \param [in]      IRQn  Device specific interrupt number.
 767:Generated_Source\PSoC6\pdl\cmsis/include/core_cm0plus.h ****   \note    IRQn must not be negative.
 768:Generated_Source\PSoC6\pdl\cmsis/include/core_cm0plus.h ****  */
 769:Generated_Source\PSoC6\pdl\cmsis/include/core_cm0plus.h **** __STATIC_INLINE void __NVIC_DisableIRQ(IRQn_Type IRQn)
 770:Generated_Source\PSoC6\pdl\cmsis/include/core_cm0plus.h **** {
 771:Generated_Source\PSoC6\pdl\cmsis/include/core_cm0plus.h ****   if ((int32_t)(IRQn) >= 0)
 1060              		.loc 3 771 0
 1061 0022 002A     		cmp	r2, #0
 1062 0024 0ADB     		blt	.L65
 772:Generated_Source\PSoC6\pdl\cmsis/include/core_cm0plus.h ****   {
 773:Generated_Source\PSoC6\pdl\cmsis/include/core_cm0plus.h ****     NVIC->ICER[0U] = (uint32_t)(1UL << (((uint32_t)IRQn) & 0x1FUL));
 1063              		.loc 3 773 0
 1064 0026 1F23     		movs	r3, #31
 1065 0028 1A40     		ands	r2, r3
 1066              	.LVL129:
 1067 002a 1E3B     		subs	r3, r3, #30
ARM GAS  C:\Users\Rolf\AppData\Local\Temp\ccUtnhQP.s 			page 61


 1068 002c 9340     		lsls	r3, r3, r2
 1069 002e 8022     		movs	r2, #128
 1070 0030 0649     		ldr	r1, .L66+12
 1071 0032 8B50     		str	r3, [r1, r2]
 1072              	.LVL130:
 1073              	.LBB94:
 1074              	.LBB95:
 1075              		.file 4 "Generated_Source\\PSoC6\\pdl\\cmsis/include/cmsis_gcc.h"
   1:Generated_Source\PSoC6\pdl\cmsis/include/cmsis_gcc.h **** /**************************************************************************//**
   2:Generated_Source\PSoC6\pdl\cmsis/include/cmsis_gcc.h ****  * @file     cmsis_gcc.h
   3:Generated_Source\PSoC6\pdl\cmsis/include/cmsis_gcc.h ****  * @brief    CMSIS compiler GCC header file
   4:Generated_Source\PSoC6\pdl\cmsis/include/cmsis_gcc.h ****  * @version  V5.0.3
   5:Generated_Source\PSoC6\pdl\cmsis/include/cmsis_gcc.h ****  * @date     16. January 2018
   6:Generated_Source\PSoC6\pdl\cmsis/include/cmsis_gcc.h ****  ******************************************************************************/
   7:Generated_Source\PSoC6\pdl\cmsis/include/cmsis_gcc.h **** /*
   8:Generated_Source\PSoC6\pdl\cmsis/include/cmsis_gcc.h ****  * Copyright (c) 2009-2017 ARM Limited. All rights reserved.
   9:Generated_Source\PSoC6\pdl\cmsis/include/cmsis_gcc.h ****  *
  10:Generated_Source\PSoC6\pdl\cmsis/include/cmsis_gcc.h ****  * SPDX-License-Identifier: Apache-2.0
  11:Generated_Source\PSoC6\pdl\cmsis/include/cmsis_gcc.h ****  *
  12:Generated_Source\PSoC6\pdl\cmsis/include/cmsis_gcc.h ****  * Licensed under the Apache License, Version 2.0 (the License); you may
  13:Generated_Source\PSoC6\pdl\cmsis/include/cmsis_gcc.h ****  * not use this file except in compliance with the License.
  14:Generated_Source\PSoC6\pdl\cmsis/include/cmsis_gcc.h ****  * You may obtain a copy of the License at
  15:Generated_Source\PSoC6\pdl\cmsis/include/cmsis_gcc.h ****  *
  16:Generated_Source\PSoC6\pdl\cmsis/include/cmsis_gcc.h ****  * www.apache.org/licenses/LICENSE-2.0
  17:Generated_Source\PSoC6\pdl\cmsis/include/cmsis_gcc.h ****  *
  18:Generated_Source\PSoC6\pdl\cmsis/include/cmsis_gcc.h ****  * Unless required by applicable law or agreed to in writing, software
  19:Generated_Source\PSoC6\pdl\cmsis/include/cmsis_gcc.h ****  * distributed under the License is distributed on an AS IS BASIS, WITHOUT
  20:Generated_Source\PSoC6\pdl\cmsis/include/cmsis_gcc.h ****  * WARRANTIES OR CONDITIONS OF ANY KIND, either express or implied.
  21:Generated_Source\PSoC6\pdl\cmsis/include/cmsis_gcc.h ****  * See the License for the specific language governing permissions and
  22:Generated_Source\PSoC6\pdl\cmsis/include/cmsis_gcc.h ****  * limitations under the License.
  23:Generated_Source\PSoC6\pdl\cmsis/include/cmsis_gcc.h ****  */
  24:Generated_Source\PSoC6\pdl\cmsis/include/cmsis_gcc.h **** 
  25:Generated_Source\PSoC6\pdl\cmsis/include/cmsis_gcc.h **** #ifndef __CMSIS_GCC_H
  26:Generated_Source\PSoC6\pdl\cmsis/include/cmsis_gcc.h **** #define __CMSIS_GCC_H
  27:Generated_Source\PSoC6\pdl\cmsis/include/cmsis_gcc.h **** 
  28:Generated_Source\PSoC6\pdl\cmsis/include/cmsis_gcc.h **** /* ignore some GCC warnings */
  29:Generated_Source\PSoC6\pdl\cmsis/include/cmsis_gcc.h **** #pragma GCC diagnostic push
  30:Generated_Source\PSoC6\pdl\cmsis/include/cmsis_gcc.h **** #pragma GCC diagnostic ignored "-Wsign-conversion"
  31:Generated_Source\PSoC6\pdl\cmsis/include/cmsis_gcc.h **** #pragma GCC diagnostic ignored "-Wconversion"
  32:Generated_Source\PSoC6\pdl\cmsis/include/cmsis_gcc.h **** #pragma GCC diagnostic ignored "-Wunused-parameter"
  33:Generated_Source\PSoC6\pdl\cmsis/include/cmsis_gcc.h **** 
  34:Generated_Source\PSoC6\pdl\cmsis/include/cmsis_gcc.h **** /* Fallback for __has_builtin */
  35:Generated_Source\PSoC6\pdl\cmsis/include/cmsis_gcc.h **** #ifndef __has_builtin
  36:Generated_Source\PSoC6\pdl\cmsis/include/cmsis_gcc.h ****   #define __has_builtin(x) (0)
  37:Generated_Source\PSoC6\pdl\cmsis/include/cmsis_gcc.h **** #endif
  38:Generated_Source\PSoC6\pdl\cmsis/include/cmsis_gcc.h **** 
  39:Generated_Source\PSoC6\pdl\cmsis/include/cmsis_gcc.h **** /* CMSIS compiler specific defines */
  40:Generated_Source\PSoC6\pdl\cmsis/include/cmsis_gcc.h **** #ifndef   __ASM
  41:Generated_Source\PSoC6\pdl\cmsis/include/cmsis_gcc.h ****   #define __ASM                                  __asm
  42:Generated_Source\PSoC6\pdl\cmsis/include/cmsis_gcc.h **** #endif
  43:Generated_Source\PSoC6\pdl\cmsis/include/cmsis_gcc.h **** #ifndef   __INLINE
  44:Generated_Source\PSoC6\pdl\cmsis/include/cmsis_gcc.h ****   #define __INLINE                               inline
  45:Generated_Source\PSoC6\pdl\cmsis/include/cmsis_gcc.h **** #endif
  46:Generated_Source\PSoC6\pdl\cmsis/include/cmsis_gcc.h **** #ifndef   __STATIC_INLINE
  47:Generated_Source\PSoC6\pdl\cmsis/include/cmsis_gcc.h ****   #define __STATIC_INLINE                        static inline
  48:Generated_Source\PSoC6\pdl\cmsis/include/cmsis_gcc.h **** #endif
  49:Generated_Source\PSoC6\pdl\cmsis/include/cmsis_gcc.h **** #ifndef   __STATIC_FORCEINLINE                 
ARM GAS  C:\Users\Rolf\AppData\Local\Temp\ccUtnhQP.s 			page 62


  50:Generated_Source\PSoC6\pdl\cmsis/include/cmsis_gcc.h ****   #define __STATIC_FORCEINLINE                   __attribute__((always_inline)) static inline
  51:Generated_Source\PSoC6\pdl\cmsis/include/cmsis_gcc.h **** #endif                                           
  52:Generated_Source\PSoC6\pdl\cmsis/include/cmsis_gcc.h **** #ifndef   __NO_RETURN
  53:Generated_Source\PSoC6\pdl\cmsis/include/cmsis_gcc.h ****   #define __NO_RETURN                            __attribute__((__noreturn__))
  54:Generated_Source\PSoC6\pdl\cmsis/include/cmsis_gcc.h **** #endif
  55:Generated_Source\PSoC6\pdl\cmsis/include/cmsis_gcc.h **** #ifndef   __USED
  56:Generated_Source\PSoC6\pdl\cmsis/include/cmsis_gcc.h ****   #define __USED                                 __attribute__((used))
  57:Generated_Source\PSoC6\pdl\cmsis/include/cmsis_gcc.h **** #endif
  58:Generated_Source\PSoC6\pdl\cmsis/include/cmsis_gcc.h **** #ifndef   __WEAK
  59:Generated_Source\PSoC6\pdl\cmsis/include/cmsis_gcc.h ****   #define __WEAK                                 __attribute__((weak))
  60:Generated_Source\PSoC6\pdl\cmsis/include/cmsis_gcc.h **** #endif
  61:Generated_Source\PSoC6\pdl\cmsis/include/cmsis_gcc.h **** #ifndef   __PACKED
  62:Generated_Source\PSoC6\pdl\cmsis/include/cmsis_gcc.h ****   #define __PACKED                               __attribute__((packed, aligned(1)))
  63:Generated_Source\PSoC6\pdl\cmsis/include/cmsis_gcc.h **** #endif
  64:Generated_Source\PSoC6\pdl\cmsis/include/cmsis_gcc.h **** #ifndef   __PACKED_STRUCT
  65:Generated_Source\PSoC6\pdl\cmsis/include/cmsis_gcc.h ****   #define __PACKED_STRUCT                        struct __attribute__((packed, aligned(1)))
  66:Generated_Source\PSoC6\pdl\cmsis/include/cmsis_gcc.h **** #endif
  67:Generated_Source\PSoC6\pdl\cmsis/include/cmsis_gcc.h **** #ifndef   __PACKED_UNION
  68:Generated_Source\PSoC6\pdl\cmsis/include/cmsis_gcc.h ****   #define __PACKED_UNION                         union __attribute__((packed, aligned(1)))
  69:Generated_Source\PSoC6\pdl\cmsis/include/cmsis_gcc.h **** #endif
  70:Generated_Source\PSoC6\pdl\cmsis/include/cmsis_gcc.h **** #ifndef   __UNALIGNED_UINT32        /* deprecated */
  71:Generated_Source\PSoC6\pdl\cmsis/include/cmsis_gcc.h ****   #pragma GCC diagnostic push
  72:Generated_Source\PSoC6\pdl\cmsis/include/cmsis_gcc.h ****   #pragma GCC diagnostic ignored "-Wpacked"
  73:Generated_Source\PSoC6\pdl\cmsis/include/cmsis_gcc.h ****   #pragma GCC diagnostic ignored "-Wattributes"
  74:Generated_Source\PSoC6\pdl\cmsis/include/cmsis_gcc.h ****   struct __attribute__((packed)) T_UINT32 { uint32_t v; };
  75:Generated_Source\PSoC6\pdl\cmsis/include/cmsis_gcc.h ****   #pragma GCC diagnostic pop
  76:Generated_Source\PSoC6\pdl\cmsis/include/cmsis_gcc.h ****   #define __UNALIGNED_UINT32(x)                  (((struct T_UINT32 *)(x))->v)
  77:Generated_Source\PSoC6\pdl\cmsis/include/cmsis_gcc.h **** #endif
  78:Generated_Source\PSoC6\pdl\cmsis/include/cmsis_gcc.h **** #ifndef   __UNALIGNED_UINT16_WRITE
  79:Generated_Source\PSoC6\pdl\cmsis/include/cmsis_gcc.h ****   #pragma GCC diagnostic push
  80:Generated_Source\PSoC6\pdl\cmsis/include/cmsis_gcc.h ****   #pragma GCC diagnostic ignored "-Wpacked"
  81:Generated_Source\PSoC6\pdl\cmsis/include/cmsis_gcc.h ****   #pragma GCC diagnostic ignored "-Wattributes"
  82:Generated_Source\PSoC6\pdl\cmsis/include/cmsis_gcc.h ****   __PACKED_STRUCT T_UINT16_WRITE { uint16_t v; };
  83:Generated_Source\PSoC6\pdl\cmsis/include/cmsis_gcc.h ****   #pragma GCC diagnostic pop
  84:Generated_Source\PSoC6\pdl\cmsis/include/cmsis_gcc.h ****   #define __UNALIGNED_UINT16_WRITE(addr, val)    (void)((((struct T_UINT16_WRITE *)(void *)(addr))-
  85:Generated_Source\PSoC6\pdl\cmsis/include/cmsis_gcc.h **** #endif
  86:Generated_Source\PSoC6\pdl\cmsis/include/cmsis_gcc.h **** #ifndef   __UNALIGNED_UINT16_READ
  87:Generated_Source\PSoC6\pdl\cmsis/include/cmsis_gcc.h ****   #pragma GCC diagnostic push
  88:Generated_Source\PSoC6\pdl\cmsis/include/cmsis_gcc.h ****   #pragma GCC diagnostic ignored "-Wpacked"
  89:Generated_Source\PSoC6\pdl\cmsis/include/cmsis_gcc.h ****   #pragma GCC diagnostic ignored "-Wattributes"
  90:Generated_Source\PSoC6\pdl\cmsis/include/cmsis_gcc.h ****   __PACKED_STRUCT T_UINT16_READ { uint16_t v; };
  91:Generated_Source\PSoC6\pdl\cmsis/include/cmsis_gcc.h ****   #pragma GCC diagnostic pop
  92:Generated_Source\PSoC6\pdl\cmsis/include/cmsis_gcc.h ****   #define __UNALIGNED_UINT16_READ(addr)          (((const struct T_UINT16_READ *)(const void *)(add
  93:Generated_Source\PSoC6\pdl\cmsis/include/cmsis_gcc.h **** #endif
  94:Generated_Source\PSoC6\pdl\cmsis/include/cmsis_gcc.h **** #ifndef   __UNALIGNED_UINT32_WRITE
  95:Generated_Source\PSoC6\pdl\cmsis/include/cmsis_gcc.h ****   #pragma GCC diagnostic push
  96:Generated_Source\PSoC6\pdl\cmsis/include/cmsis_gcc.h ****   #pragma GCC diagnostic ignored "-Wpacked"
  97:Generated_Source\PSoC6\pdl\cmsis/include/cmsis_gcc.h ****   #pragma GCC diagnostic ignored "-Wattributes"
  98:Generated_Source\PSoC6\pdl\cmsis/include/cmsis_gcc.h ****   __PACKED_STRUCT T_UINT32_WRITE { uint32_t v; };
  99:Generated_Source\PSoC6\pdl\cmsis/include/cmsis_gcc.h ****   #pragma GCC diagnostic pop
 100:Generated_Source\PSoC6\pdl\cmsis/include/cmsis_gcc.h ****   #define __UNALIGNED_UINT32_WRITE(addr, val)    (void)((((struct T_UINT32_WRITE *)(void *)(addr))-
 101:Generated_Source\PSoC6\pdl\cmsis/include/cmsis_gcc.h **** #endif
 102:Generated_Source\PSoC6\pdl\cmsis/include/cmsis_gcc.h **** #ifndef   __UNALIGNED_UINT32_READ
 103:Generated_Source\PSoC6\pdl\cmsis/include/cmsis_gcc.h ****   #pragma GCC diagnostic push
 104:Generated_Source\PSoC6\pdl\cmsis/include/cmsis_gcc.h ****   #pragma GCC diagnostic ignored "-Wpacked"
 105:Generated_Source\PSoC6\pdl\cmsis/include/cmsis_gcc.h ****   #pragma GCC diagnostic ignored "-Wattributes"
 106:Generated_Source\PSoC6\pdl\cmsis/include/cmsis_gcc.h ****   __PACKED_STRUCT T_UINT32_READ { uint32_t v; };
ARM GAS  C:\Users\Rolf\AppData\Local\Temp\ccUtnhQP.s 			page 63


 107:Generated_Source\PSoC6\pdl\cmsis/include/cmsis_gcc.h ****   #pragma GCC diagnostic pop
 108:Generated_Source\PSoC6\pdl\cmsis/include/cmsis_gcc.h ****   #define __UNALIGNED_UINT32_READ(addr)          (((const struct T_UINT32_READ *)(const void *)(add
 109:Generated_Source\PSoC6\pdl\cmsis/include/cmsis_gcc.h **** #endif
 110:Generated_Source\PSoC6\pdl\cmsis/include/cmsis_gcc.h **** #ifndef   __ALIGNED
 111:Generated_Source\PSoC6\pdl\cmsis/include/cmsis_gcc.h ****   #define __ALIGNED(x)                           __attribute__((aligned(x)))
 112:Generated_Source\PSoC6\pdl\cmsis/include/cmsis_gcc.h **** #endif
 113:Generated_Source\PSoC6\pdl\cmsis/include/cmsis_gcc.h **** #ifndef   __RESTRICT
 114:Generated_Source\PSoC6\pdl\cmsis/include/cmsis_gcc.h ****   #define __RESTRICT                             __restrict
 115:Generated_Source\PSoC6\pdl\cmsis/include/cmsis_gcc.h **** #endif
 116:Generated_Source\PSoC6\pdl\cmsis/include/cmsis_gcc.h **** 
 117:Generated_Source\PSoC6\pdl\cmsis/include/cmsis_gcc.h **** 
 118:Generated_Source\PSoC6\pdl\cmsis/include/cmsis_gcc.h **** /* ###########################  Core Function Access  ########################### */
 119:Generated_Source\PSoC6\pdl\cmsis/include/cmsis_gcc.h **** /** \ingroup  CMSIS_Core_FunctionInterface
 120:Generated_Source\PSoC6\pdl\cmsis/include/cmsis_gcc.h ****     \defgroup CMSIS_Core_RegAccFunctions CMSIS Core Register Access Functions
 121:Generated_Source\PSoC6\pdl\cmsis/include/cmsis_gcc.h ****   @{
 122:Generated_Source\PSoC6\pdl\cmsis/include/cmsis_gcc.h ****  */
 123:Generated_Source\PSoC6\pdl\cmsis/include/cmsis_gcc.h **** 
 124:Generated_Source\PSoC6\pdl\cmsis/include/cmsis_gcc.h **** /**
 125:Generated_Source\PSoC6\pdl\cmsis/include/cmsis_gcc.h ****   \brief   Enable IRQ Interrupts
 126:Generated_Source\PSoC6\pdl\cmsis/include/cmsis_gcc.h ****   \details Enables IRQ interrupts by clearing the I-bit in the CPSR.
 127:Generated_Source\PSoC6\pdl\cmsis/include/cmsis_gcc.h ****            Can only be executed in Privileged modes.
 128:Generated_Source\PSoC6\pdl\cmsis/include/cmsis_gcc.h ****  */
 129:Generated_Source\PSoC6\pdl\cmsis/include/cmsis_gcc.h **** __STATIC_FORCEINLINE void __enable_irq(void)
 130:Generated_Source\PSoC6\pdl\cmsis/include/cmsis_gcc.h **** {
 131:Generated_Source\PSoC6\pdl\cmsis/include/cmsis_gcc.h ****   __ASM volatile ("cpsie i" : : : "memory");
 132:Generated_Source\PSoC6\pdl\cmsis/include/cmsis_gcc.h **** }
 133:Generated_Source\PSoC6\pdl\cmsis/include/cmsis_gcc.h **** 
 134:Generated_Source\PSoC6\pdl\cmsis/include/cmsis_gcc.h **** 
 135:Generated_Source\PSoC6\pdl\cmsis/include/cmsis_gcc.h **** /**
 136:Generated_Source\PSoC6\pdl\cmsis/include/cmsis_gcc.h ****   \brief   Disable IRQ Interrupts
 137:Generated_Source\PSoC6\pdl\cmsis/include/cmsis_gcc.h ****   \details Disables IRQ interrupts by setting the I-bit in the CPSR.
 138:Generated_Source\PSoC6\pdl\cmsis/include/cmsis_gcc.h ****            Can only be executed in Privileged modes.
 139:Generated_Source\PSoC6\pdl\cmsis/include/cmsis_gcc.h ****  */
 140:Generated_Source\PSoC6\pdl\cmsis/include/cmsis_gcc.h **** __STATIC_FORCEINLINE void __disable_irq(void)
 141:Generated_Source\PSoC6\pdl\cmsis/include/cmsis_gcc.h **** {
 142:Generated_Source\PSoC6\pdl\cmsis/include/cmsis_gcc.h ****   __ASM volatile ("cpsid i" : : : "memory");
 143:Generated_Source\PSoC6\pdl\cmsis/include/cmsis_gcc.h **** }
 144:Generated_Source\PSoC6\pdl\cmsis/include/cmsis_gcc.h **** 
 145:Generated_Source\PSoC6\pdl\cmsis/include/cmsis_gcc.h **** 
 146:Generated_Source\PSoC6\pdl\cmsis/include/cmsis_gcc.h **** /**
 147:Generated_Source\PSoC6\pdl\cmsis/include/cmsis_gcc.h ****   \brief   Get Control Register
 148:Generated_Source\PSoC6\pdl\cmsis/include/cmsis_gcc.h ****   \details Returns the content of the Control Register.
 149:Generated_Source\PSoC6\pdl\cmsis/include/cmsis_gcc.h ****   \return               Control Register value
 150:Generated_Source\PSoC6\pdl\cmsis/include/cmsis_gcc.h ****  */
 151:Generated_Source\PSoC6\pdl\cmsis/include/cmsis_gcc.h **** __STATIC_FORCEINLINE uint32_t __get_CONTROL(void)
 152:Generated_Source\PSoC6\pdl\cmsis/include/cmsis_gcc.h **** {
 153:Generated_Source\PSoC6\pdl\cmsis/include/cmsis_gcc.h ****   uint32_t result;
 154:Generated_Source\PSoC6\pdl\cmsis/include/cmsis_gcc.h **** 
 155:Generated_Source\PSoC6\pdl\cmsis/include/cmsis_gcc.h ****   __ASM volatile ("MRS %0, control" : "=r" (result) );
 156:Generated_Source\PSoC6\pdl\cmsis/include/cmsis_gcc.h ****   return(result);
 157:Generated_Source\PSoC6\pdl\cmsis/include/cmsis_gcc.h **** }
 158:Generated_Source\PSoC6\pdl\cmsis/include/cmsis_gcc.h **** 
 159:Generated_Source\PSoC6\pdl\cmsis/include/cmsis_gcc.h **** 
 160:Generated_Source\PSoC6\pdl\cmsis/include/cmsis_gcc.h **** #if (defined (__ARM_FEATURE_CMSE ) && (__ARM_FEATURE_CMSE == 3))
 161:Generated_Source\PSoC6\pdl\cmsis/include/cmsis_gcc.h **** /**
 162:Generated_Source\PSoC6\pdl\cmsis/include/cmsis_gcc.h ****   \brief   Get Control Register (non-secure)
 163:Generated_Source\PSoC6\pdl\cmsis/include/cmsis_gcc.h ****   \details Returns the content of the non-secure Control Register when in secure mode.
ARM GAS  C:\Users\Rolf\AppData\Local\Temp\ccUtnhQP.s 			page 64


 164:Generated_Source\PSoC6\pdl\cmsis/include/cmsis_gcc.h ****   \return               non-secure Control Register value
 165:Generated_Source\PSoC6\pdl\cmsis/include/cmsis_gcc.h ****  */
 166:Generated_Source\PSoC6\pdl\cmsis/include/cmsis_gcc.h **** __STATIC_FORCEINLINE uint32_t __TZ_get_CONTROL_NS(void)
 167:Generated_Source\PSoC6\pdl\cmsis/include/cmsis_gcc.h **** {
 168:Generated_Source\PSoC6\pdl\cmsis/include/cmsis_gcc.h ****   uint32_t result;
 169:Generated_Source\PSoC6\pdl\cmsis/include/cmsis_gcc.h **** 
 170:Generated_Source\PSoC6\pdl\cmsis/include/cmsis_gcc.h ****   __ASM volatile ("MRS %0, control_ns" : "=r" (result) );
 171:Generated_Source\PSoC6\pdl\cmsis/include/cmsis_gcc.h ****   return(result);
 172:Generated_Source\PSoC6\pdl\cmsis/include/cmsis_gcc.h **** }
 173:Generated_Source\PSoC6\pdl\cmsis/include/cmsis_gcc.h **** #endif
 174:Generated_Source\PSoC6\pdl\cmsis/include/cmsis_gcc.h **** 
 175:Generated_Source\PSoC6\pdl\cmsis/include/cmsis_gcc.h **** 
 176:Generated_Source\PSoC6\pdl\cmsis/include/cmsis_gcc.h **** /**
 177:Generated_Source\PSoC6\pdl\cmsis/include/cmsis_gcc.h ****   \brief   Set Control Register
 178:Generated_Source\PSoC6\pdl\cmsis/include/cmsis_gcc.h ****   \details Writes the given value to the Control Register.
 179:Generated_Source\PSoC6\pdl\cmsis/include/cmsis_gcc.h ****   \param [in]    control  Control Register value to set
 180:Generated_Source\PSoC6\pdl\cmsis/include/cmsis_gcc.h ****  */
 181:Generated_Source\PSoC6\pdl\cmsis/include/cmsis_gcc.h **** __STATIC_FORCEINLINE void __set_CONTROL(uint32_t control)
 182:Generated_Source\PSoC6\pdl\cmsis/include/cmsis_gcc.h **** {
 183:Generated_Source\PSoC6\pdl\cmsis/include/cmsis_gcc.h ****   __ASM volatile ("MSR control, %0" : : "r" (control) : "memory");
 184:Generated_Source\PSoC6\pdl\cmsis/include/cmsis_gcc.h **** }
 185:Generated_Source\PSoC6\pdl\cmsis/include/cmsis_gcc.h **** 
 186:Generated_Source\PSoC6\pdl\cmsis/include/cmsis_gcc.h **** 
 187:Generated_Source\PSoC6\pdl\cmsis/include/cmsis_gcc.h **** #if (defined (__ARM_FEATURE_CMSE ) && (__ARM_FEATURE_CMSE == 3))
 188:Generated_Source\PSoC6\pdl\cmsis/include/cmsis_gcc.h **** /**
 189:Generated_Source\PSoC6\pdl\cmsis/include/cmsis_gcc.h ****   \brief   Set Control Register (non-secure)
 190:Generated_Source\PSoC6\pdl\cmsis/include/cmsis_gcc.h ****   \details Writes the given value to the non-secure Control Register when in secure state.
 191:Generated_Source\PSoC6\pdl\cmsis/include/cmsis_gcc.h ****   \param [in]    control  Control Register value to set
 192:Generated_Source\PSoC6\pdl\cmsis/include/cmsis_gcc.h ****  */
 193:Generated_Source\PSoC6\pdl\cmsis/include/cmsis_gcc.h **** __STATIC_FORCEINLINE void __TZ_set_CONTROL_NS(uint32_t control)
 194:Generated_Source\PSoC6\pdl\cmsis/include/cmsis_gcc.h **** {
 195:Generated_Source\PSoC6\pdl\cmsis/include/cmsis_gcc.h ****   __ASM volatile ("MSR control_ns, %0" : : "r" (control) : "memory");
 196:Generated_Source\PSoC6\pdl\cmsis/include/cmsis_gcc.h **** }
 197:Generated_Source\PSoC6\pdl\cmsis/include/cmsis_gcc.h **** #endif
 198:Generated_Source\PSoC6\pdl\cmsis/include/cmsis_gcc.h **** 
 199:Generated_Source\PSoC6\pdl\cmsis/include/cmsis_gcc.h **** 
 200:Generated_Source\PSoC6\pdl\cmsis/include/cmsis_gcc.h **** /**
 201:Generated_Source\PSoC6\pdl\cmsis/include/cmsis_gcc.h ****   \brief   Get IPSR Register
 202:Generated_Source\PSoC6\pdl\cmsis/include/cmsis_gcc.h ****   \details Returns the content of the IPSR Register.
 203:Generated_Source\PSoC6\pdl\cmsis/include/cmsis_gcc.h ****   \return               IPSR Register value
 204:Generated_Source\PSoC6\pdl\cmsis/include/cmsis_gcc.h ****  */
 205:Generated_Source\PSoC6\pdl\cmsis/include/cmsis_gcc.h **** __STATIC_FORCEINLINE uint32_t __get_IPSR(void)
 206:Generated_Source\PSoC6\pdl\cmsis/include/cmsis_gcc.h **** {
 207:Generated_Source\PSoC6\pdl\cmsis/include/cmsis_gcc.h ****   uint32_t result;
 208:Generated_Source\PSoC6\pdl\cmsis/include/cmsis_gcc.h **** 
 209:Generated_Source\PSoC6\pdl\cmsis/include/cmsis_gcc.h ****   __ASM volatile ("MRS %0, ipsr" : "=r" (result) );
 210:Generated_Source\PSoC6\pdl\cmsis/include/cmsis_gcc.h ****   return(result);
 211:Generated_Source\PSoC6\pdl\cmsis/include/cmsis_gcc.h **** }
 212:Generated_Source\PSoC6\pdl\cmsis/include/cmsis_gcc.h **** 
 213:Generated_Source\PSoC6\pdl\cmsis/include/cmsis_gcc.h **** 
 214:Generated_Source\PSoC6\pdl\cmsis/include/cmsis_gcc.h **** /**
 215:Generated_Source\PSoC6\pdl\cmsis/include/cmsis_gcc.h ****   \brief   Get APSR Register
 216:Generated_Source\PSoC6\pdl\cmsis/include/cmsis_gcc.h ****   \details Returns the content of the APSR Register.
 217:Generated_Source\PSoC6\pdl\cmsis/include/cmsis_gcc.h ****   \return               APSR Register value
 218:Generated_Source\PSoC6\pdl\cmsis/include/cmsis_gcc.h ****  */
 219:Generated_Source\PSoC6\pdl\cmsis/include/cmsis_gcc.h **** __STATIC_FORCEINLINE uint32_t __get_APSR(void)
 220:Generated_Source\PSoC6\pdl\cmsis/include/cmsis_gcc.h **** {
ARM GAS  C:\Users\Rolf\AppData\Local\Temp\ccUtnhQP.s 			page 65


 221:Generated_Source\PSoC6\pdl\cmsis/include/cmsis_gcc.h ****   uint32_t result;
 222:Generated_Source\PSoC6\pdl\cmsis/include/cmsis_gcc.h **** 
 223:Generated_Source\PSoC6\pdl\cmsis/include/cmsis_gcc.h ****   __ASM volatile ("MRS %0, apsr" : "=r" (result) );
 224:Generated_Source\PSoC6\pdl\cmsis/include/cmsis_gcc.h ****   return(result);
 225:Generated_Source\PSoC6\pdl\cmsis/include/cmsis_gcc.h **** }
 226:Generated_Source\PSoC6\pdl\cmsis/include/cmsis_gcc.h **** 
 227:Generated_Source\PSoC6\pdl\cmsis/include/cmsis_gcc.h **** 
 228:Generated_Source\PSoC6\pdl\cmsis/include/cmsis_gcc.h **** /**
 229:Generated_Source\PSoC6\pdl\cmsis/include/cmsis_gcc.h ****   \brief   Get xPSR Register
 230:Generated_Source\PSoC6\pdl\cmsis/include/cmsis_gcc.h ****   \details Returns the content of the xPSR Register.
 231:Generated_Source\PSoC6\pdl\cmsis/include/cmsis_gcc.h ****   \return               xPSR Register value
 232:Generated_Source\PSoC6\pdl\cmsis/include/cmsis_gcc.h ****  */
 233:Generated_Source\PSoC6\pdl\cmsis/include/cmsis_gcc.h **** __STATIC_FORCEINLINE uint32_t __get_xPSR(void)
 234:Generated_Source\PSoC6\pdl\cmsis/include/cmsis_gcc.h **** {
 235:Generated_Source\PSoC6\pdl\cmsis/include/cmsis_gcc.h ****   uint32_t result;
 236:Generated_Source\PSoC6\pdl\cmsis/include/cmsis_gcc.h **** 
 237:Generated_Source\PSoC6\pdl\cmsis/include/cmsis_gcc.h ****   __ASM volatile ("MRS %0, xpsr" : "=r" (result) );
 238:Generated_Source\PSoC6\pdl\cmsis/include/cmsis_gcc.h ****   return(result);
 239:Generated_Source\PSoC6\pdl\cmsis/include/cmsis_gcc.h **** }
 240:Generated_Source\PSoC6\pdl\cmsis/include/cmsis_gcc.h **** 
 241:Generated_Source\PSoC6\pdl\cmsis/include/cmsis_gcc.h **** 
 242:Generated_Source\PSoC6\pdl\cmsis/include/cmsis_gcc.h **** /**
 243:Generated_Source\PSoC6\pdl\cmsis/include/cmsis_gcc.h ****   \brief   Get Process Stack Pointer
 244:Generated_Source\PSoC6\pdl\cmsis/include/cmsis_gcc.h ****   \details Returns the current value of the Process Stack Pointer (PSP).
 245:Generated_Source\PSoC6\pdl\cmsis/include/cmsis_gcc.h ****   \return               PSP Register value
 246:Generated_Source\PSoC6\pdl\cmsis/include/cmsis_gcc.h ****  */
 247:Generated_Source\PSoC6\pdl\cmsis/include/cmsis_gcc.h **** __STATIC_FORCEINLINE uint32_t __get_PSP(void)
 248:Generated_Source\PSoC6\pdl\cmsis/include/cmsis_gcc.h **** {
 249:Generated_Source\PSoC6\pdl\cmsis/include/cmsis_gcc.h ****   register uint32_t result;
 250:Generated_Source\PSoC6\pdl\cmsis/include/cmsis_gcc.h **** 
 251:Generated_Source\PSoC6\pdl\cmsis/include/cmsis_gcc.h ****   __ASM volatile ("MRS %0, psp"  : "=r" (result) );
 252:Generated_Source\PSoC6\pdl\cmsis/include/cmsis_gcc.h ****   return(result);
 253:Generated_Source\PSoC6\pdl\cmsis/include/cmsis_gcc.h **** }
 254:Generated_Source\PSoC6\pdl\cmsis/include/cmsis_gcc.h **** 
 255:Generated_Source\PSoC6\pdl\cmsis/include/cmsis_gcc.h **** 
 256:Generated_Source\PSoC6\pdl\cmsis/include/cmsis_gcc.h **** #if (defined (__ARM_FEATURE_CMSE ) && (__ARM_FEATURE_CMSE == 3))
 257:Generated_Source\PSoC6\pdl\cmsis/include/cmsis_gcc.h **** /**
 258:Generated_Source\PSoC6\pdl\cmsis/include/cmsis_gcc.h ****   \brief   Get Process Stack Pointer (non-secure)
 259:Generated_Source\PSoC6\pdl\cmsis/include/cmsis_gcc.h ****   \details Returns the current value of the non-secure Process Stack Pointer (PSP) when in secure s
 260:Generated_Source\PSoC6\pdl\cmsis/include/cmsis_gcc.h ****   \return               PSP Register value
 261:Generated_Source\PSoC6\pdl\cmsis/include/cmsis_gcc.h ****  */
 262:Generated_Source\PSoC6\pdl\cmsis/include/cmsis_gcc.h **** __STATIC_FORCEINLINE uint32_t __TZ_get_PSP_NS(void)
 263:Generated_Source\PSoC6\pdl\cmsis/include/cmsis_gcc.h **** {
 264:Generated_Source\PSoC6\pdl\cmsis/include/cmsis_gcc.h ****   register uint32_t result;
 265:Generated_Source\PSoC6\pdl\cmsis/include/cmsis_gcc.h **** 
 266:Generated_Source\PSoC6\pdl\cmsis/include/cmsis_gcc.h ****   __ASM volatile ("MRS %0, psp_ns"  : "=r" (result) );
 267:Generated_Source\PSoC6\pdl\cmsis/include/cmsis_gcc.h ****   return(result);
 268:Generated_Source\PSoC6\pdl\cmsis/include/cmsis_gcc.h **** }
 269:Generated_Source\PSoC6\pdl\cmsis/include/cmsis_gcc.h **** #endif
 270:Generated_Source\PSoC6\pdl\cmsis/include/cmsis_gcc.h **** 
 271:Generated_Source\PSoC6\pdl\cmsis/include/cmsis_gcc.h **** 
 272:Generated_Source\PSoC6\pdl\cmsis/include/cmsis_gcc.h **** /**
 273:Generated_Source\PSoC6\pdl\cmsis/include/cmsis_gcc.h ****   \brief   Set Process Stack Pointer
 274:Generated_Source\PSoC6\pdl\cmsis/include/cmsis_gcc.h ****   \details Assigns the given value to the Process Stack Pointer (PSP).
 275:Generated_Source\PSoC6\pdl\cmsis/include/cmsis_gcc.h ****   \param [in]    topOfProcStack  Process Stack Pointer value to set
 276:Generated_Source\PSoC6\pdl\cmsis/include/cmsis_gcc.h ****  */
 277:Generated_Source\PSoC6\pdl\cmsis/include/cmsis_gcc.h **** __STATIC_FORCEINLINE void __set_PSP(uint32_t topOfProcStack)
ARM GAS  C:\Users\Rolf\AppData\Local\Temp\ccUtnhQP.s 			page 66


 278:Generated_Source\PSoC6\pdl\cmsis/include/cmsis_gcc.h **** {
 279:Generated_Source\PSoC6\pdl\cmsis/include/cmsis_gcc.h ****   __ASM volatile ("MSR psp, %0" : : "r" (topOfProcStack) : );
 280:Generated_Source\PSoC6\pdl\cmsis/include/cmsis_gcc.h **** }
 281:Generated_Source\PSoC6\pdl\cmsis/include/cmsis_gcc.h **** 
 282:Generated_Source\PSoC6\pdl\cmsis/include/cmsis_gcc.h **** 
 283:Generated_Source\PSoC6\pdl\cmsis/include/cmsis_gcc.h **** #if (defined (__ARM_FEATURE_CMSE ) && (__ARM_FEATURE_CMSE == 3))
 284:Generated_Source\PSoC6\pdl\cmsis/include/cmsis_gcc.h **** /**
 285:Generated_Source\PSoC6\pdl\cmsis/include/cmsis_gcc.h ****   \brief   Set Process Stack Pointer (non-secure)
 286:Generated_Source\PSoC6\pdl\cmsis/include/cmsis_gcc.h ****   \details Assigns the given value to the non-secure Process Stack Pointer (PSP) when in secure sta
 287:Generated_Source\PSoC6\pdl\cmsis/include/cmsis_gcc.h ****   \param [in]    topOfProcStack  Process Stack Pointer value to set
 288:Generated_Source\PSoC6\pdl\cmsis/include/cmsis_gcc.h ****  */
 289:Generated_Source\PSoC6\pdl\cmsis/include/cmsis_gcc.h **** __STATIC_FORCEINLINE void __TZ_set_PSP_NS(uint32_t topOfProcStack)
 290:Generated_Source\PSoC6\pdl\cmsis/include/cmsis_gcc.h **** {
 291:Generated_Source\PSoC6\pdl\cmsis/include/cmsis_gcc.h ****   __ASM volatile ("MSR psp_ns, %0" : : "r" (topOfProcStack) : );
 292:Generated_Source\PSoC6\pdl\cmsis/include/cmsis_gcc.h **** }
 293:Generated_Source\PSoC6\pdl\cmsis/include/cmsis_gcc.h **** #endif
 294:Generated_Source\PSoC6\pdl\cmsis/include/cmsis_gcc.h **** 
 295:Generated_Source\PSoC6\pdl\cmsis/include/cmsis_gcc.h **** 
 296:Generated_Source\PSoC6\pdl\cmsis/include/cmsis_gcc.h **** /**
 297:Generated_Source\PSoC6\pdl\cmsis/include/cmsis_gcc.h ****   \brief   Get Main Stack Pointer
 298:Generated_Source\PSoC6\pdl\cmsis/include/cmsis_gcc.h ****   \details Returns the current value of the Main Stack Pointer (MSP).
 299:Generated_Source\PSoC6\pdl\cmsis/include/cmsis_gcc.h ****   \return               MSP Register value
 300:Generated_Source\PSoC6\pdl\cmsis/include/cmsis_gcc.h ****  */
 301:Generated_Source\PSoC6\pdl\cmsis/include/cmsis_gcc.h **** __STATIC_FORCEINLINE uint32_t __get_MSP(void)
 302:Generated_Source\PSoC6\pdl\cmsis/include/cmsis_gcc.h **** {
 303:Generated_Source\PSoC6\pdl\cmsis/include/cmsis_gcc.h ****   register uint32_t result;
 304:Generated_Source\PSoC6\pdl\cmsis/include/cmsis_gcc.h **** 
 305:Generated_Source\PSoC6\pdl\cmsis/include/cmsis_gcc.h ****   __ASM volatile ("MRS %0, msp" : "=r" (result) );
 306:Generated_Source\PSoC6\pdl\cmsis/include/cmsis_gcc.h ****   return(result);
 307:Generated_Source\PSoC6\pdl\cmsis/include/cmsis_gcc.h **** }
 308:Generated_Source\PSoC6\pdl\cmsis/include/cmsis_gcc.h **** 
 309:Generated_Source\PSoC6\pdl\cmsis/include/cmsis_gcc.h **** 
 310:Generated_Source\PSoC6\pdl\cmsis/include/cmsis_gcc.h **** #if (defined (__ARM_FEATURE_CMSE ) && (__ARM_FEATURE_CMSE == 3))
 311:Generated_Source\PSoC6\pdl\cmsis/include/cmsis_gcc.h **** /**
 312:Generated_Source\PSoC6\pdl\cmsis/include/cmsis_gcc.h ****   \brief   Get Main Stack Pointer (non-secure)
 313:Generated_Source\PSoC6\pdl\cmsis/include/cmsis_gcc.h ****   \details Returns the current value of the non-secure Main Stack Pointer (MSP) when in secure stat
 314:Generated_Source\PSoC6\pdl\cmsis/include/cmsis_gcc.h ****   \return               MSP Register value
 315:Generated_Source\PSoC6\pdl\cmsis/include/cmsis_gcc.h ****  */
 316:Generated_Source\PSoC6\pdl\cmsis/include/cmsis_gcc.h **** __STATIC_FORCEINLINE uint32_t __TZ_get_MSP_NS(void)
 317:Generated_Source\PSoC6\pdl\cmsis/include/cmsis_gcc.h **** {
 318:Generated_Source\PSoC6\pdl\cmsis/include/cmsis_gcc.h ****   register uint32_t result;
 319:Generated_Source\PSoC6\pdl\cmsis/include/cmsis_gcc.h **** 
 320:Generated_Source\PSoC6\pdl\cmsis/include/cmsis_gcc.h ****   __ASM volatile ("MRS %0, msp_ns" : "=r" (result) );
 321:Generated_Source\PSoC6\pdl\cmsis/include/cmsis_gcc.h ****   return(result);
 322:Generated_Source\PSoC6\pdl\cmsis/include/cmsis_gcc.h **** }
 323:Generated_Source\PSoC6\pdl\cmsis/include/cmsis_gcc.h **** #endif
 324:Generated_Source\PSoC6\pdl\cmsis/include/cmsis_gcc.h **** 
 325:Generated_Source\PSoC6\pdl\cmsis/include/cmsis_gcc.h **** 
 326:Generated_Source\PSoC6\pdl\cmsis/include/cmsis_gcc.h **** /**
 327:Generated_Source\PSoC6\pdl\cmsis/include/cmsis_gcc.h ****   \brief   Set Main Stack Pointer
 328:Generated_Source\PSoC6\pdl\cmsis/include/cmsis_gcc.h ****   \details Assigns the given value to the Main Stack Pointer (MSP).
 329:Generated_Source\PSoC6\pdl\cmsis/include/cmsis_gcc.h ****   \param [in]    topOfMainStack  Main Stack Pointer value to set
 330:Generated_Source\PSoC6\pdl\cmsis/include/cmsis_gcc.h ****  */
 331:Generated_Source\PSoC6\pdl\cmsis/include/cmsis_gcc.h **** __STATIC_FORCEINLINE void __set_MSP(uint32_t topOfMainStack)
 332:Generated_Source\PSoC6\pdl\cmsis/include/cmsis_gcc.h **** {
 333:Generated_Source\PSoC6\pdl\cmsis/include/cmsis_gcc.h ****   __ASM volatile ("MSR msp, %0" : : "r" (topOfMainStack) : );
 334:Generated_Source\PSoC6\pdl\cmsis/include/cmsis_gcc.h **** }
ARM GAS  C:\Users\Rolf\AppData\Local\Temp\ccUtnhQP.s 			page 67


 335:Generated_Source\PSoC6\pdl\cmsis/include/cmsis_gcc.h **** 
 336:Generated_Source\PSoC6\pdl\cmsis/include/cmsis_gcc.h **** 
 337:Generated_Source\PSoC6\pdl\cmsis/include/cmsis_gcc.h **** #if (defined (__ARM_FEATURE_CMSE ) && (__ARM_FEATURE_CMSE == 3))
 338:Generated_Source\PSoC6\pdl\cmsis/include/cmsis_gcc.h **** /**
 339:Generated_Source\PSoC6\pdl\cmsis/include/cmsis_gcc.h ****   \brief   Set Main Stack Pointer (non-secure)
 340:Generated_Source\PSoC6\pdl\cmsis/include/cmsis_gcc.h ****   \details Assigns the given value to the non-secure Main Stack Pointer (MSP) when in secure state.
 341:Generated_Source\PSoC6\pdl\cmsis/include/cmsis_gcc.h ****   \param [in]    topOfMainStack  Main Stack Pointer value to set
 342:Generated_Source\PSoC6\pdl\cmsis/include/cmsis_gcc.h ****  */
 343:Generated_Source\PSoC6\pdl\cmsis/include/cmsis_gcc.h **** __STATIC_FORCEINLINE void __TZ_set_MSP_NS(uint32_t topOfMainStack)
 344:Generated_Source\PSoC6\pdl\cmsis/include/cmsis_gcc.h **** {
 345:Generated_Source\PSoC6\pdl\cmsis/include/cmsis_gcc.h ****   __ASM volatile ("MSR msp_ns, %0" : : "r" (topOfMainStack) : );
 346:Generated_Source\PSoC6\pdl\cmsis/include/cmsis_gcc.h **** }
 347:Generated_Source\PSoC6\pdl\cmsis/include/cmsis_gcc.h **** #endif
 348:Generated_Source\PSoC6\pdl\cmsis/include/cmsis_gcc.h **** 
 349:Generated_Source\PSoC6\pdl\cmsis/include/cmsis_gcc.h **** 
 350:Generated_Source\PSoC6\pdl\cmsis/include/cmsis_gcc.h **** #if (defined (__ARM_FEATURE_CMSE ) && (__ARM_FEATURE_CMSE == 3))
 351:Generated_Source\PSoC6\pdl\cmsis/include/cmsis_gcc.h **** /**
 352:Generated_Source\PSoC6\pdl\cmsis/include/cmsis_gcc.h ****   \brief   Get Stack Pointer (non-secure)
 353:Generated_Source\PSoC6\pdl\cmsis/include/cmsis_gcc.h ****   \details Returns the current value of the non-secure Stack Pointer (SP) when in secure state.
 354:Generated_Source\PSoC6\pdl\cmsis/include/cmsis_gcc.h ****   \return               SP Register value
 355:Generated_Source\PSoC6\pdl\cmsis/include/cmsis_gcc.h ****  */
 356:Generated_Source\PSoC6\pdl\cmsis/include/cmsis_gcc.h **** __STATIC_FORCEINLINE uint32_t __TZ_get_SP_NS(void)
 357:Generated_Source\PSoC6\pdl\cmsis/include/cmsis_gcc.h **** {
 358:Generated_Source\PSoC6\pdl\cmsis/include/cmsis_gcc.h ****   register uint32_t result;
 359:Generated_Source\PSoC6\pdl\cmsis/include/cmsis_gcc.h **** 
 360:Generated_Source\PSoC6\pdl\cmsis/include/cmsis_gcc.h ****   __ASM volatile ("MRS %0, sp_ns" : "=r" (result) );
 361:Generated_Source\PSoC6\pdl\cmsis/include/cmsis_gcc.h ****   return(result);
 362:Generated_Source\PSoC6\pdl\cmsis/include/cmsis_gcc.h **** }
 363:Generated_Source\PSoC6\pdl\cmsis/include/cmsis_gcc.h **** 
 364:Generated_Source\PSoC6\pdl\cmsis/include/cmsis_gcc.h **** 
 365:Generated_Source\PSoC6\pdl\cmsis/include/cmsis_gcc.h **** /**
 366:Generated_Source\PSoC6\pdl\cmsis/include/cmsis_gcc.h ****   \brief   Set Stack Pointer (non-secure)
 367:Generated_Source\PSoC6\pdl\cmsis/include/cmsis_gcc.h ****   \details Assigns the given value to the non-secure Stack Pointer (SP) when in secure state.
 368:Generated_Source\PSoC6\pdl\cmsis/include/cmsis_gcc.h ****   \param [in]    topOfStack  Stack Pointer value to set
 369:Generated_Source\PSoC6\pdl\cmsis/include/cmsis_gcc.h ****  */
 370:Generated_Source\PSoC6\pdl\cmsis/include/cmsis_gcc.h **** __STATIC_FORCEINLINE void __TZ_set_SP_NS(uint32_t topOfStack)
 371:Generated_Source\PSoC6\pdl\cmsis/include/cmsis_gcc.h **** {
 372:Generated_Source\PSoC6\pdl\cmsis/include/cmsis_gcc.h ****   __ASM volatile ("MSR sp_ns, %0" : : "r" (topOfStack) : );
 373:Generated_Source\PSoC6\pdl\cmsis/include/cmsis_gcc.h **** }
 374:Generated_Source\PSoC6\pdl\cmsis/include/cmsis_gcc.h **** #endif
 375:Generated_Source\PSoC6\pdl\cmsis/include/cmsis_gcc.h **** 
 376:Generated_Source\PSoC6\pdl\cmsis/include/cmsis_gcc.h **** 
 377:Generated_Source\PSoC6\pdl\cmsis/include/cmsis_gcc.h **** /**
 378:Generated_Source\PSoC6\pdl\cmsis/include/cmsis_gcc.h ****   \brief   Get Priority Mask
 379:Generated_Source\PSoC6\pdl\cmsis/include/cmsis_gcc.h ****   \details Returns the current state of the priority mask bit from the Priority Mask Register.
 380:Generated_Source\PSoC6\pdl\cmsis/include/cmsis_gcc.h ****   \return               Priority Mask value
 381:Generated_Source\PSoC6\pdl\cmsis/include/cmsis_gcc.h ****  */
 382:Generated_Source\PSoC6\pdl\cmsis/include/cmsis_gcc.h **** __STATIC_FORCEINLINE uint32_t __get_PRIMASK(void)
 383:Generated_Source\PSoC6\pdl\cmsis/include/cmsis_gcc.h **** {
 384:Generated_Source\PSoC6\pdl\cmsis/include/cmsis_gcc.h ****   uint32_t result;
 385:Generated_Source\PSoC6\pdl\cmsis/include/cmsis_gcc.h **** 
 386:Generated_Source\PSoC6\pdl\cmsis/include/cmsis_gcc.h ****   __ASM volatile ("MRS %0, primask" : "=r" (result) :: "memory");
 387:Generated_Source\PSoC6\pdl\cmsis/include/cmsis_gcc.h ****   return(result);
 388:Generated_Source\PSoC6\pdl\cmsis/include/cmsis_gcc.h **** }
 389:Generated_Source\PSoC6\pdl\cmsis/include/cmsis_gcc.h **** 
 390:Generated_Source\PSoC6\pdl\cmsis/include/cmsis_gcc.h **** 
 391:Generated_Source\PSoC6\pdl\cmsis/include/cmsis_gcc.h **** #if (defined (__ARM_FEATURE_CMSE ) && (__ARM_FEATURE_CMSE == 3))
ARM GAS  C:\Users\Rolf\AppData\Local\Temp\ccUtnhQP.s 			page 68


 392:Generated_Source\PSoC6\pdl\cmsis/include/cmsis_gcc.h **** /**
 393:Generated_Source\PSoC6\pdl\cmsis/include/cmsis_gcc.h ****   \brief   Get Priority Mask (non-secure)
 394:Generated_Source\PSoC6\pdl\cmsis/include/cmsis_gcc.h ****   \details Returns the current state of the non-secure priority mask bit from the Priority Mask Reg
 395:Generated_Source\PSoC6\pdl\cmsis/include/cmsis_gcc.h ****   \return               Priority Mask value
 396:Generated_Source\PSoC6\pdl\cmsis/include/cmsis_gcc.h ****  */
 397:Generated_Source\PSoC6\pdl\cmsis/include/cmsis_gcc.h **** __STATIC_FORCEINLINE uint32_t __TZ_get_PRIMASK_NS(void)
 398:Generated_Source\PSoC6\pdl\cmsis/include/cmsis_gcc.h **** {
 399:Generated_Source\PSoC6\pdl\cmsis/include/cmsis_gcc.h ****   uint32_t result;
 400:Generated_Source\PSoC6\pdl\cmsis/include/cmsis_gcc.h **** 
 401:Generated_Source\PSoC6\pdl\cmsis/include/cmsis_gcc.h ****   __ASM volatile ("MRS %0, primask_ns" : "=r" (result) :: "memory");
 402:Generated_Source\PSoC6\pdl\cmsis/include/cmsis_gcc.h ****   return(result);
 403:Generated_Source\PSoC6\pdl\cmsis/include/cmsis_gcc.h **** }
 404:Generated_Source\PSoC6\pdl\cmsis/include/cmsis_gcc.h **** #endif
 405:Generated_Source\PSoC6\pdl\cmsis/include/cmsis_gcc.h **** 
 406:Generated_Source\PSoC6\pdl\cmsis/include/cmsis_gcc.h **** 
 407:Generated_Source\PSoC6\pdl\cmsis/include/cmsis_gcc.h **** /**
 408:Generated_Source\PSoC6\pdl\cmsis/include/cmsis_gcc.h ****   \brief   Set Priority Mask
 409:Generated_Source\PSoC6\pdl\cmsis/include/cmsis_gcc.h ****   \details Assigns the given value to the Priority Mask Register.
 410:Generated_Source\PSoC6\pdl\cmsis/include/cmsis_gcc.h ****   \param [in]    priMask  Priority Mask
 411:Generated_Source\PSoC6\pdl\cmsis/include/cmsis_gcc.h ****  */
 412:Generated_Source\PSoC6\pdl\cmsis/include/cmsis_gcc.h **** __STATIC_FORCEINLINE void __set_PRIMASK(uint32_t priMask)
 413:Generated_Source\PSoC6\pdl\cmsis/include/cmsis_gcc.h **** {
 414:Generated_Source\PSoC6\pdl\cmsis/include/cmsis_gcc.h ****   __ASM volatile ("MSR primask, %0" : : "r" (priMask) : "memory");
 415:Generated_Source\PSoC6\pdl\cmsis/include/cmsis_gcc.h **** }
 416:Generated_Source\PSoC6\pdl\cmsis/include/cmsis_gcc.h **** 
 417:Generated_Source\PSoC6\pdl\cmsis/include/cmsis_gcc.h **** 
 418:Generated_Source\PSoC6\pdl\cmsis/include/cmsis_gcc.h **** #if (defined (__ARM_FEATURE_CMSE ) && (__ARM_FEATURE_CMSE == 3))
 419:Generated_Source\PSoC6\pdl\cmsis/include/cmsis_gcc.h **** /**
 420:Generated_Source\PSoC6\pdl\cmsis/include/cmsis_gcc.h ****   \brief   Set Priority Mask (non-secure)
 421:Generated_Source\PSoC6\pdl\cmsis/include/cmsis_gcc.h ****   \details Assigns the given value to the non-secure Priority Mask Register when in secure state.
 422:Generated_Source\PSoC6\pdl\cmsis/include/cmsis_gcc.h ****   \param [in]    priMask  Priority Mask
 423:Generated_Source\PSoC6\pdl\cmsis/include/cmsis_gcc.h ****  */
 424:Generated_Source\PSoC6\pdl\cmsis/include/cmsis_gcc.h **** __STATIC_FORCEINLINE void __TZ_set_PRIMASK_NS(uint32_t priMask)
 425:Generated_Source\PSoC6\pdl\cmsis/include/cmsis_gcc.h **** {
 426:Generated_Source\PSoC6\pdl\cmsis/include/cmsis_gcc.h ****   __ASM volatile ("MSR primask_ns, %0" : : "r" (priMask) : "memory");
 427:Generated_Source\PSoC6\pdl\cmsis/include/cmsis_gcc.h **** }
 428:Generated_Source\PSoC6\pdl\cmsis/include/cmsis_gcc.h **** #endif
 429:Generated_Source\PSoC6\pdl\cmsis/include/cmsis_gcc.h **** 
 430:Generated_Source\PSoC6\pdl\cmsis/include/cmsis_gcc.h **** 
 431:Generated_Source\PSoC6\pdl\cmsis/include/cmsis_gcc.h **** #if ((defined (__ARM_ARCH_7M__      ) && (__ARM_ARCH_7M__      == 1)) || \
 432:Generated_Source\PSoC6\pdl\cmsis/include/cmsis_gcc.h ****      (defined (__ARM_ARCH_7EM__     ) && (__ARM_ARCH_7EM__     == 1)) || \
 433:Generated_Source\PSoC6\pdl\cmsis/include/cmsis_gcc.h ****      (defined (__ARM_ARCH_8M_MAIN__ ) && (__ARM_ARCH_8M_MAIN__ == 1))    )
 434:Generated_Source\PSoC6\pdl\cmsis/include/cmsis_gcc.h **** /**
 435:Generated_Source\PSoC6\pdl\cmsis/include/cmsis_gcc.h ****   \brief   Enable FIQ
 436:Generated_Source\PSoC6\pdl\cmsis/include/cmsis_gcc.h ****   \details Enables FIQ interrupts by clearing the F-bit in the CPSR.
 437:Generated_Source\PSoC6\pdl\cmsis/include/cmsis_gcc.h ****            Can only be executed in Privileged modes.
 438:Generated_Source\PSoC6\pdl\cmsis/include/cmsis_gcc.h ****  */
 439:Generated_Source\PSoC6\pdl\cmsis/include/cmsis_gcc.h **** __STATIC_FORCEINLINE void __enable_fault_irq(void)
 440:Generated_Source\PSoC6\pdl\cmsis/include/cmsis_gcc.h **** {
 441:Generated_Source\PSoC6\pdl\cmsis/include/cmsis_gcc.h ****   __ASM volatile ("cpsie f" : : : "memory");
 442:Generated_Source\PSoC6\pdl\cmsis/include/cmsis_gcc.h **** }
 443:Generated_Source\PSoC6\pdl\cmsis/include/cmsis_gcc.h **** 
 444:Generated_Source\PSoC6\pdl\cmsis/include/cmsis_gcc.h **** 
 445:Generated_Source\PSoC6\pdl\cmsis/include/cmsis_gcc.h **** /**
 446:Generated_Source\PSoC6\pdl\cmsis/include/cmsis_gcc.h ****   \brief   Disable FIQ
 447:Generated_Source\PSoC6\pdl\cmsis/include/cmsis_gcc.h ****   \details Disables FIQ interrupts by setting the F-bit in the CPSR.
 448:Generated_Source\PSoC6\pdl\cmsis/include/cmsis_gcc.h ****            Can only be executed in Privileged modes.
ARM GAS  C:\Users\Rolf\AppData\Local\Temp\ccUtnhQP.s 			page 69


 449:Generated_Source\PSoC6\pdl\cmsis/include/cmsis_gcc.h ****  */
 450:Generated_Source\PSoC6\pdl\cmsis/include/cmsis_gcc.h **** __STATIC_FORCEINLINE void __disable_fault_irq(void)
 451:Generated_Source\PSoC6\pdl\cmsis/include/cmsis_gcc.h **** {
 452:Generated_Source\PSoC6\pdl\cmsis/include/cmsis_gcc.h ****   __ASM volatile ("cpsid f" : : : "memory");
 453:Generated_Source\PSoC6\pdl\cmsis/include/cmsis_gcc.h **** }
 454:Generated_Source\PSoC6\pdl\cmsis/include/cmsis_gcc.h **** 
 455:Generated_Source\PSoC6\pdl\cmsis/include/cmsis_gcc.h **** 
 456:Generated_Source\PSoC6\pdl\cmsis/include/cmsis_gcc.h **** /**
 457:Generated_Source\PSoC6\pdl\cmsis/include/cmsis_gcc.h ****   \brief   Get Base Priority
 458:Generated_Source\PSoC6\pdl\cmsis/include/cmsis_gcc.h ****   \details Returns the current value of the Base Priority register.
 459:Generated_Source\PSoC6\pdl\cmsis/include/cmsis_gcc.h ****   \return               Base Priority register value
 460:Generated_Source\PSoC6\pdl\cmsis/include/cmsis_gcc.h ****  */
 461:Generated_Source\PSoC6\pdl\cmsis/include/cmsis_gcc.h **** __STATIC_FORCEINLINE uint32_t __get_BASEPRI(void)
 462:Generated_Source\PSoC6\pdl\cmsis/include/cmsis_gcc.h **** {
 463:Generated_Source\PSoC6\pdl\cmsis/include/cmsis_gcc.h ****   uint32_t result;
 464:Generated_Source\PSoC6\pdl\cmsis/include/cmsis_gcc.h **** 
 465:Generated_Source\PSoC6\pdl\cmsis/include/cmsis_gcc.h ****   __ASM volatile ("MRS %0, basepri" : "=r" (result) );
 466:Generated_Source\PSoC6\pdl\cmsis/include/cmsis_gcc.h ****   return(result);
 467:Generated_Source\PSoC6\pdl\cmsis/include/cmsis_gcc.h **** }
 468:Generated_Source\PSoC6\pdl\cmsis/include/cmsis_gcc.h **** 
 469:Generated_Source\PSoC6\pdl\cmsis/include/cmsis_gcc.h **** 
 470:Generated_Source\PSoC6\pdl\cmsis/include/cmsis_gcc.h **** #if (defined (__ARM_FEATURE_CMSE ) && (__ARM_FEATURE_CMSE == 3))
 471:Generated_Source\PSoC6\pdl\cmsis/include/cmsis_gcc.h **** /**
 472:Generated_Source\PSoC6\pdl\cmsis/include/cmsis_gcc.h ****   \brief   Get Base Priority (non-secure)
 473:Generated_Source\PSoC6\pdl\cmsis/include/cmsis_gcc.h ****   \details Returns the current value of the non-secure Base Priority register when in secure state.
 474:Generated_Source\PSoC6\pdl\cmsis/include/cmsis_gcc.h ****   \return               Base Priority register value
 475:Generated_Source\PSoC6\pdl\cmsis/include/cmsis_gcc.h ****  */
 476:Generated_Source\PSoC6\pdl\cmsis/include/cmsis_gcc.h **** __STATIC_FORCEINLINE uint32_t __TZ_get_BASEPRI_NS(void)
 477:Generated_Source\PSoC6\pdl\cmsis/include/cmsis_gcc.h **** {
 478:Generated_Source\PSoC6\pdl\cmsis/include/cmsis_gcc.h ****   uint32_t result;
 479:Generated_Source\PSoC6\pdl\cmsis/include/cmsis_gcc.h **** 
 480:Generated_Source\PSoC6\pdl\cmsis/include/cmsis_gcc.h ****   __ASM volatile ("MRS %0, basepri_ns" : "=r" (result) );
 481:Generated_Source\PSoC6\pdl\cmsis/include/cmsis_gcc.h ****   return(result);
 482:Generated_Source\PSoC6\pdl\cmsis/include/cmsis_gcc.h **** }
 483:Generated_Source\PSoC6\pdl\cmsis/include/cmsis_gcc.h **** #endif
 484:Generated_Source\PSoC6\pdl\cmsis/include/cmsis_gcc.h **** 
 485:Generated_Source\PSoC6\pdl\cmsis/include/cmsis_gcc.h **** 
 486:Generated_Source\PSoC6\pdl\cmsis/include/cmsis_gcc.h **** /**
 487:Generated_Source\PSoC6\pdl\cmsis/include/cmsis_gcc.h ****   \brief   Set Base Priority
 488:Generated_Source\PSoC6\pdl\cmsis/include/cmsis_gcc.h ****   \details Assigns the given value to the Base Priority register.
 489:Generated_Source\PSoC6\pdl\cmsis/include/cmsis_gcc.h ****   \param [in]    basePri  Base Priority value to set
 490:Generated_Source\PSoC6\pdl\cmsis/include/cmsis_gcc.h ****  */
 491:Generated_Source\PSoC6\pdl\cmsis/include/cmsis_gcc.h **** __STATIC_FORCEINLINE void __set_BASEPRI(uint32_t basePri)
 492:Generated_Source\PSoC6\pdl\cmsis/include/cmsis_gcc.h **** {
 493:Generated_Source\PSoC6\pdl\cmsis/include/cmsis_gcc.h ****   __ASM volatile ("MSR basepri, %0" : : "r" (basePri) : "memory");
 494:Generated_Source\PSoC6\pdl\cmsis/include/cmsis_gcc.h **** }
 495:Generated_Source\PSoC6\pdl\cmsis/include/cmsis_gcc.h **** 
 496:Generated_Source\PSoC6\pdl\cmsis/include/cmsis_gcc.h **** 
 497:Generated_Source\PSoC6\pdl\cmsis/include/cmsis_gcc.h **** #if (defined (__ARM_FEATURE_CMSE ) && (__ARM_FEATURE_CMSE == 3))
 498:Generated_Source\PSoC6\pdl\cmsis/include/cmsis_gcc.h **** /**
 499:Generated_Source\PSoC6\pdl\cmsis/include/cmsis_gcc.h ****   \brief   Set Base Priority (non-secure)
 500:Generated_Source\PSoC6\pdl\cmsis/include/cmsis_gcc.h ****   \details Assigns the given value to the non-secure Base Priority register when in secure state.
 501:Generated_Source\PSoC6\pdl\cmsis/include/cmsis_gcc.h ****   \param [in]    basePri  Base Priority value to set
 502:Generated_Source\PSoC6\pdl\cmsis/include/cmsis_gcc.h ****  */
 503:Generated_Source\PSoC6\pdl\cmsis/include/cmsis_gcc.h **** __STATIC_FORCEINLINE void __TZ_set_BASEPRI_NS(uint32_t basePri)
 504:Generated_Source\PSoC6\pdl\cmsis/include/cmsis_gcc.h **** {
 505:Generated_Source\PSoC6\pdl\cmsis/include/cmsis_gcc.h ****   __ASM volatile ("MSR basepri_ns, %0" : : "r" (basePri) : "memory");
ARM GAS  C:\Users\Rolf\AppData\Local\Temp\ccUtnhQP.s 			page 70


 506:Generated_Source\PSoC6\pdl\cmsis/include/cmsis_gcc.h **** }
 507:Generated_Source\PSoC6\pdl\cmsis/include/cmsis_gcc.h **** #endif
 508:Generated_Source\PSoC6\pdl\cmsis/include/cmsis_gcc.h **** 
 509:Generated_Source\PSoC6\pdl\cmsis/include/cmsis_gcc.h **** 
 510:Generated_Source\PSoC6\pdl\cmsis/include/cmsis_gcc.h **** /**
 511:Generated_Source\PSoC6\pdl\cmsis/include/cmsis_gcc.h ****   \brief   Set Base Priority with condition
 512:Generated_Source\PSoC6\pdl\cmsis/include/cmsis_gcc.h ****   \details Assigns the given value to the Base Priority register only if BASEPRI masking is disable
 513:Generated_Source\PSoC6\pdl\cmsis/include/cmsis_gcc.h ****            or the new value increases the BASEPRI priority level.
 514:Generated_Source\PSoC6\pdl\cmsis/include/cmsis_gcc.h ****   \param [in]    basePri  Base Priority value to set
 515:Generated_Source\PSoC6\pdl\cmsis/include/cmsis_gcc.h ****  */
 516:Generated_Source\PSoC6\pdl\cmsis/include/cmsis_gcc.h **** __STATIC_FORCEINLINE void __set_BASEPRI_MAX(uint32_t basePri)
 517:Generated_Source\PSoC6\pdl\cmsis/include/cmsis_gcc.h **** {
 518:Generated_Source\PSoC6\pdl\cmsis/include/cmsis_gcc.h ****   __ASM volatile ("MSR basepri_max, %0" : : "r" (basePri) : "memory");
 519:Generated_Source\PSoC6\pdl\cmsis/include/cmsis_gcc.h **** }
 520:Generated_Source\PSoC6\pdl\cmsis/include/cmsis_gcc.h **** 
 521:Generated_Source\PSoC6\pdl\cmsis/include/cmsis_gcc.h **** 
 522:Generated_Source\PSoC6\pdl\cmsis/include/cmsis_gcc.h **** /**
 523:Generated_Source\PSoC6\pdl\cmsis/include/cmsis_gcc.h ****   \brief   Get Fault Mask
 524:Generated_Source\PSoC6\pdl\cmsis/include/cmsis_gcc.h ****   \details Returns the current value of the Fault Mask register.
 525:Generated_Source\PSoC6\pdl\cmsis/include/cmsis_gcc.h ****   \return               Fault Mask register value
 526:Generated_Source\PSoC6\pdl\cmsis/include/cmsis_gcc.h ****  */
 527:Generated_Source\PSoC6\pdl\cmsis/include/cmsis_gcc.h **** __STATIC_FORCEINLINE uint32_t __get_FAULTMASK(void)
 528:Generated_Source\PSoC6\pdl\cmsis/include/cmsis_gcc.h **** {
 529:Generated_Source\PSoC6\pdl\cmsis/include/cmsis_gcc.h ****   uint32_t result;
 530:Generated_Source\PSoC6\pdl\cmsis/include/cmsis_gcc.h **** 
 531:Generated_Source\PSoC6\pdl\cmsis/include/cmsis_gcc.h ****   __ASM volatile ("MRS %0, faultmask" : "=r" (result) );
 532:Generated_Source\PSoC6\pdl\cmsis/include/cmsis_gcc.h ****   return(result);
 533:Generated_Source\PSoC6\pdl\cmsis/include/cmsis_gcc.h **** }
 534:Generated_Source\PSoC6\pdl\cmsis/include/cmsis_gcc.h **** 
 535:Generated_Source\PSoC6\pdl\cmsis/include/cmsis_gcc.h **** 
 536:Generated_Source\PSoC6\pdl\cmsis/include/cmsis_gcc.h **** #if (defined (__ARM_FEATURE_CMSE ) && (__ARM_FEATURE_CMSE == 3))
 537:Generated_Source\PSoC6\pdl\cmsis/include/cmsis_gcc.h **** /**
 538:Generated_Source\PSoC6\pdl\cmsis/include/cmsis_gcc.h ****   \brief   Get Fault Mask (non-secure)
 539:Generated_Source\PSoC6\pdl\cmsis/include/cmsis_gcc.h ****   \details Returns the current value of the non-secure Fault Mask register when in secure state.
 540:Generated_Source\PSoC6\pdl\cmsis/include/cmsis_gcc.h ****   \return               Fault Mask register value
 541:Generated_Source\PSoC6\pdl\cmsis/include/cmsis_gcc.h ****  */
 542:Generated_Source\PSoC6\pdl\cmsis/include/cmsis_gcc.h **** __STATIC_FORCEINLINE uint32_t __TZ_get_FAULTMASK_NS(void)
 543:Generated_Source\PSoC6\pdl\cmsis/include/cmsis_gcc.h **** {
 544:Generated_Source\PSoC6\pdl\cmsis/include/cmsis_gcc.h ****   uint32_t result;
 545:Generated_Source\PSoC6\pdl\cmsis/include/cmsis_gcc.h **** 
 546:Generated_Source\PSoC6\pdl\cmsis/include/cmsis_gcc.h ****   __ASM volatile ("MRS %0, faultmask_ns" : "=r" (result) );
 547:Generated_Source\PSoC6\pdl\cmsis/include/cmsis_gcc.h ****   return(result);
 548:Generated_Source\PSoC6\pdl\cmsis/include/cmsis_gcc.h **** }
 549:Generated_Source\PSoC6\pdl\cmsis/include/cmsis_gcc.h **** #endif
 550:Generated_Source\PSoC6\pdl\cmsis/include/cmsis_gcc.h **** 
 551:Generated_Source\PSoC6\pdl\cmsis/include/cmsis_gcc.h **** 
 552:Generated_Source\PSoC6\pdl\cmsis/include/cmsis_gcc.h **** /**
 553:Generated_Source\PSoC6\pdl\cmsis/include/cmsis_gcc.h ****   \brief   Set Fault Mask
 554:Generated_Source\PSoC6\pdl\cmsis/include/cmsis_gcc.h ****   \details Assigns the given value to the Fault Mask register.
 555:Generated_Source\PSoC6\pdl\cmsis/include/cmsis_gcc.h ****   \param [in]    faultMask  Fault Mask value to set
 556:Generated_Source\PSoC6\pdl\cmsis/include/cmsis_gcc.h ****  */
 557:Generated_Source\PSoC6\pdl\cmsis/include/cmsis_gcc.h **** __STATIC_FORCEINLINE void __set_FAULTMASK(uint32_t faultMask)
 558:Generated_Source\PSoC6\pdl\cmsis/include/cmsis_gcc.h **** {
 559:Generated_Source\PSoC6\pdl\cmsis/include/cmsis_gcc.h ****   __ASM volatile ("MSR faultmask, %0" : : "r" (faultMask) : "memory");
 560:Generated_Source\PSoC6\pdl\cmsis/include/cmsis_gcc.h **** }
 561:Generated_Source\PSoC6\pdl\cmsis/include/cmsis_gcc.h **** 
 562:Generated_Source\PSoC6\pdl\cmsis/include/cmsis_gcc.h **** 
ARM GAS  C:\Users\Rolf\AppData\Local\Temp\ccUtnhQP.s 			page 71


 563:Generated_Source\PSoC6\pdl\cmsis/include/cmsis_gcc.h **** #if (defined (__ARM_FEATURE_CMSE ) && (__ARM_FEATURE_CMSE == 3))
 564:Generated_Source\PSoC6\pdl\cmsis/include/cmsis_gcc.h **** /**
 565:Generated_Source\PSoC6\pdl\cmsis/include/cmsis_gcc.h ****   \brief   Set Fault Mask (non-secure)
 566:Generated_Source\PSoC6\pdl\cmsis/include/cmsis_gcc.h ****   \details Assigns the given value to the non-secure Fault Mask register when in secure state.
 567:Generated_Source\PSoC6\pdl\cmsis/include/cmsis_gcc.h ****   \param [in]    faultMask  Fault Mask value to set
 568:Generated_Source\PSoC6\pdl\cmsis/include/cmsis_gcc.h ****  */
 569:Generated_Source\PSoC6\pdl\cmsis/include/cmsis_gcc.h **** __STATIC_FORCEINLINE void __TZ_set_FAULTMASK_NS(uint32_t faultMask)
 570:Generated_Source\PSoC6\pdl\cmsis/include/cmsis_gcc.h **** {
 571:Generated_Source\PSoC6\pdl\cmsis/include/cmsis_gcc.h ****   __ASM volatile ("MSR faultmask_ns, %0" : : "r" (faultMask) : "memory");
 572:Generated_Source\PSoC6\pdl\cmsis/include/cmsis_gcc.h **** }
 573:Generated_Source\PSoC6\pdl\cmsis/include/cmsis_gcc.h **** #endif
 574:Generated_Source\PSoC6\pdl\cmsis/include/cmsis_gcc.h **** 
 575:Generated_Source\PSoC6\pdl\cmsis/include/cmsis_gcc.h **** #endif /* ((defined (__ARM_ARCH_7M__      ) && (__ARM_ARCH_7M__      == 1)) || \
 576:Generated_Source\PSoC6\pdl\cmsis/include/cmsis_gcc.h ****            (defined (__ARM_ARCH_7EM__     ) && (__ARM_ARCH_7EM__     == 1)) || \
 577:Generated_Source\PSoC6\pdl\cmsis/include/cmsis_gcc.h ****            (defined (__ARM_ARCH_8M_MAIN__ ) && (__ARM_ARCH_8M_MAIN__ == 1))    ) */
 578:Generated_Source\PSoC6\pdl\cmsis/include/cmsis_gcc.h **** 
 579:Generated_Source\PSoC6\pdl\cmsis/include/cmsis_gcc.h **** 
 580:Generated_Source\PSoC6\pdl\cmsis/include/cmsis_gcc.h **** #if ((defined (__ARM_ARCH_8M_MAIN__ ) && (__ARM_ARCH_8M_MAIN__ == 1)) || \
 581:Generated_Source\PSoC6\pdl\cmsis/include/cmsis_gcc.h ****      (defined (__ARM_ARCH_8M_BASE__ ) && (__ARM_ARCH_8M_BASE__ == 1))    )
 582:Generated_Source\PSoC6\pdl\cmsis/include/cmsis_gcc.h **** 
 583:Generated_Source\PSoC6\pdl\cmsis/include/cmsis_gcc.h **** /**
 584:Generated_Source\PSoC6\pdl\cmsis/include/cmsis_gcc.h ****   \brief   Get Process Stack Pointer Limit
 585:Generated_Source\PSoC6\pdl\cmsis/include/cmsis_gcc.h ****   Devices without ARMv8-M Main Extensions (i.e. Cortex-M23) lack the non-secure
 586:Generated_Source\PSoC6\pdl\cmsis/include/cmsis_gcc.h ****   Stack Pointer Limit register hence zero is returned always in non-secure
 587:Generated_Source\PSoC6\pdl\cmsis/include/cmsis_gcc.h ****   mode.
 588:Generated_Source\PSoC6\pdl\cmsis/include/cmsis_gcc.h ****   
 589:Generated_Source\PSoC6\pdl\cmsis/include/cmsis_gcc.h ****   \details Returns the current value of the Process Stack Pointer Limit (PSPLIM).
 590:Generated_Source\PSoC6\pdl\cmsis/include/cmsis_gcc.h ****   \return               PSPLIM Register value
 591:Generated_Source\PSoC6\pdl\cmsis/include/cmsis_gcc.h ****  */
 592:Generated_Source\PSoC6\pdl\cmsis/include/cmsis_gcc.h **** __STATIC_FORCEINLINE uint32_t __get_PSPLIM(void)
 593:Generated_Source\PSoC6\pdl\cmsis/include/cmsis_gcc.h **** {
 594:Generated_Source\PSoC6\pdl\cmsis/include/cmsis_gcc.h **** #if (!(defined (__ARM_ARCH_8M_MAIN__ ) && (__ARM_ARCH_8M_MAIN__ == 1)) && \
 595:Generated_Source\PSoC6\pdl\cmsis/include/cmsis_gcc.h ****     (!defined (__ARM_FEATURE_CMSE) || (__ARM_FEATURE_CMSE < 3)))
 596:Generated_Source\PSoC6\pdl\cmsis/include/cmsis_gcc.h ****     // without main extensions, the non-secure PSPLIM is RAZ/WI
 597:Generated_Source\PSoC6\pdl\cmsis/include/cmsis_gcc.h ****   return 0U;
 598:Generated_Source\PSoC6\pdl\cmsis/include/cmsis_gcc.h **** #else
 599:Generated_Source\PSoC6\pdl\cmsis/include/cmsis_gcc.h ****   register uint32_t result;
 600:Generated_Source\PSoC6\pdl\cmsis/include/cmsis_gcc.h ****   __ASM volatile ("MRS %0, psplim"  : "=r" (result) );
 601:Generated_Source\PSoC6\pdl\cmsis/include/cmsis_gcc.h ****   return result;
 602:Generated_Source\PSoC6\pdl\cmsis/include/cmsis_gcc.h **** #endif
 603:Generated_Source\PSoC6\pdl\cmsis/include/cmsis_gcc.h **** }
 604:Generated_Source\PSoC6\pdl\cmsis/include/cmsis_gcc.h **** 
 605:Generated_Source\PSoC6\pdl\cmsis/include/cmsis_gcc.h **** #if (defined (__ARM_FEATURE_CMSE) && (__ARM_FEATURE_CMSE == 3))
 606:Generated_Source\PSoC6\pdl\cmsis/include/cmsis_gcc.h **** /**
 607:Generated_Source\PSoC6\pdl\cmsis/include/cmsis_gcc.h ****   \brief   Get Process Stack Pointer Limit (non-secure)
 608:Generated_Source\PSoC6\pdl\cmsis/include/cmsis_gcc.h ****   Devices without ARMv8-M Main Extensions (i.e. Cortex-M23) lack the non-secure
 609:Generated_Source\PSoC6\pdl\cmsis/include/cmsis_gcc.h ****   Stack Pointer Limit register hence zero is returned always.
 610:Generated_Source\PSoC6\pdl\cmsis/include/cmsis_gcc.h **** 
 611:Generated_Source\PSoC6\pdl\cmsis/include/cmsis_gcc.h ****   \details Returns the current value of the non-secure Process Stack Pointer Limit (PSPLIM) when in
 612:Generated_Source\PSoC6\pdl\cmsis/include/cmsis_gcc.h ****   \return               PSPLIM Register value
 613:Generated_Source\PSoC6\pdl\cmsis/include/cmsis_gcc.h ****  */
 614:Generated_Source\PSoC6\pdl\cmsis/include/cmsis_gcc.h **** __STATIC_FORCEINLINE uint32_t __TZ_get_PSPLIM_NS(void)
 615:Generated_Source\PSoC6\pdl\cmsis/include/cmsis_gcc.h **** {
 616:Generated_Source\PSoC6\pdl\cmsis/include/cmsis_gcc.h **** #if (!(defined (__ARM_ARCH_8M_MAIN__ ) && (__ARM_ARCH_8M_MAIN__ == 1)))
 617:Generated_Source\PSoC6\pdl\cmsis/include/cmsis_gcc.h ****   // without main extensions, the non-secure PSPLIM is RAZ/WI
 618:Generated_Source\PSoC6\pdl\cmsis/include/cmsis_gcc.h ****   return 0U;
 619:Generated_Source\PSoC6\pdl\cmsis/include/cmsis_gcc.h **** #else
ARM GAS  C:\Users\Rolf\AppData\Local\Temp\ccUtnhQP.s 			page 72


 620:Generated_Source\PSoC6\pdl\cmsis/include/cmsis_gcc.h ****   register uint32_t result;
 621:Generated_Source\PSoC6\pdl\cmsis/include/cmsis_gcc.h ****   __ASM volatile ("MRS %0, psplim_ns"  : "=r" (result) );
 622:Generated_Source\PSoC6\pdl\cmsis/include/cmsis_gcc.h ****   return result;
 623:Generated_Source\PSoC6\pdl\cmsis/include/cmsis_gcc.h **** #endif
 624:Generated_Source\PSoC6\pdl\cmsis/include/cmsis_gcc.h **** }
 625:Generated_Source\PSoC6\pdl\cmsis/include/cmsis_gcc.h **** #endif
 626:Generated_Source\PSoC6\pdl\cmsis/include/cmsis_gcc.h **** 
 627:Generated_Source\PSoC6\pdl\cmsis/include/cmsis_gcc.h **** 
 628:Generated_Source\PSoC6\pdl\cmsis/include/cmsis_gcc.h **** /**
 629:Generated_Source\PSoC6\pdl\cmsis/include/cmsis_gcc.h ****   \brief   Set Process Stack Pointer Limit
 630:Generated_Source\PSoC6\pdl\cmsis/include/cmsis_gcc.h ****   Devices without ARMv8-M Main Extensions (i.e. Cortex-M23) lack the non-secure
 631:Generated_Source\PSoC6\pdl\cmsis/include/cmsis_gcc.h ****   Stack Pointer Limit register hence the write is silently ignored in non-secure
 632:Generated_Source\PSoC6\pdl\cmsis/include/cmsis_gcc.h ****   mode.
 633:Generated_Source\PSoC6\pdl\cmsis/include/cmsis_gcc.h ****   
 634:Generated_Source\PSoC6\pdl\cmsis/include/cmsis_gcc.h ****   \details Assigns the given value to the Process Stack Pointer Limit (PSPLIM).
 635:Generated_Source\PSoC6\pdl\cmsis/include/cmsis_gcc.h ****   \param [in]    ProcStackPtrLimit  Process Stack Pointer Limit value to set
 636:Generated_Source\PSoC6\pdl\cmsis/include/cmsis_gcc.h ****  */
 637:Generated_Source\PSoC6\pdl\cmsis/include/cmsis_gcc.h **** __STATIC_FORCEINLINE void __set_PSPLIM(uint32_t ProcStackPtrLimit)
 638:Generated_Source\PSoC6\pdl\cmsis/include/cmsis_gcc.h **** {
 639:Generated_Source\PSoC6\pdl\cmsis/include/cmsis_gcc.h **** #if (!(defined (__ARM_ARCH_8M_MAIN__ ) && (__ARM_ARCH_8M_MAIN__ == 1)) && \
 640:Generated_Source\PSoC6\pdl\cmsis/include/cmsis_gcc.h ****     (!defined (__ARM_FEATURE_CMSE) || (__ARM_FEATURE_CMSE < 3)))
 641:Generated_Source\PSoC6\pdl\cmsis/include/cmsis_gcc.h ****   // without main extensions, the non-secure PSPLIM is RAZ/WI
 642:Generated_Source\PSoC6\pdl\cmsis/include/cmsis_gcc.h ****   (void)ProcStackPtrLimit;
 643:Generated_Source\PSoC6\pdl\cmsis/include/cmsis_gcc.h **** #else
 644:Generated_Source\PSoC6\pdl\cmsis/include/cmsis_gcc.h ****   __ASM volatile ("MSR psplim, %0" : : "r" (ProcStackPtrLimit));
 645:Generated_Source\PSoC6\pdl\cmsis/include/cmsis_gcc.h **** #endif
 646:Generated_Source\PSoC6\pdl\cmsis/include/cmsis_gcc.h **** }
 647:Generated_Source\PSoC6\pdl\cmsis/include/cmsis_gcc.h **** 
 648:Generated_Source\PSoC6\pdl\cmsis/include/cmsis_gcc.h **** 
 649:Generated_Source\PSoC6\pdl\cmsis/include/cmsis_gcc.h **** #if (defined (__ARM_FEATURE_CMSE  ) && (__ARM_FEATURE_CMSE   == 3))
 650:Generated_Source\PSoC6\pdl\cmsis/include/cmsis_gcc.h **** /**
 651:Generated_Source\PSoC6\pdl\cmsis/include/cmsis_gcc.h ****   \brief   Set Process Stack Pointer (non-secure)
 652:Generated_Source\PSoC6\pdl\cmsis/include/cmsis_gcc.h ****   Devices without ARMv8-M Main Extensions (i.e. Cortex-M23) lack the non-secure
 653:Generated_Source\PSoC6\pdl\cmsis/include/cmsis_gcc.h ****   Stack Pointer Limit register hence the write is silently ignored.
 654:Generated_Source\PSoC6\pdl\cmsis/include/cmsis_gcc.h **** 
 655:Generated_Source\PSoC6\pdl\cmsis/include/cmsis_gcc.h ****   \details Assigns the given value to the non-secure Process Stack Pointer Limit (PSPLIM) when in s
 656:Generated_Source\PSoC6\pdl\cmsis/include/cmsis_gcc.h ****   \param [in]    ProcStackPtrLimit  Process Stack Pointer Limit value to set
 657:Generated_Source\PSoC6\pdl\cmsis/include/cmsis_gcc.h ****  */
 658:Generated_Source\PSoC6\pdl\cmsis/include/cmsis_gcc.h **** __STATIC_FORCEINLINE void __TZ_set_PSPLIM_NS(uint32_t ProcStackPtrLimit)
 659:Generated_Source\PSoC6\pdl\cmsis/include/cmsis_gcc.h **** {
 660:Generated_Source\PSoC6\pdl\cmsis/include/cmsis_gcc.h **** #if (!(defined (__ARM_ARCH_8M_MAIN__ ) && (__ARM_ARCH_8M_MAIN__ == 1)))
 661:Generated_Source\PSoC6\pdl\cmsis/include/cmsis_gcc.h ****   // without main extensions, the non-secure PSPLIM is RAZ/WI
 662:Generated_Source\PSoC6\pdl\cmsis/include/cmsis_gcc.h ****   (void)ProcStackPtrLimit;
 663:Generated_Source\PSoC6\pdl\cmsis/include/cmsis_gcc.h **** #else
 664:Generated_Source\PSoC6\pdl\cmsis/include/cmsis_gcc.h ****   __ASM volatile ("MSR psplim_ns, %0\n" : : "r" (ProcStackPtrLimit));
 665:Generated_Source\PSoC6\pdl\cmsis/include/cmsis_gcc.h **** #endif
 666:Generated_Source\PSoC6\pdl\cmsis/include/cmsis_gcc.h **** }
 667:Generated_Source\PSoC6\pdl\cmsis/include/cmsis_gcc.h **** #endif
 668:Generated_Source\PSoC6\pdl\cmsis/include/cmsis_gcc.h **** 
 669:Generated_Source\PSoC6\pdl\cmsis/include/cmsis_gcc.h **** 
 670:Generated_Source\PSoC6\pdl\cmsis/include/cmsis_gcc.h **** /**
 671:Generated_Source\PSoC6\pdl\cmsis/include/cmsis_gcc.h ****   \brief   Get Main Stack Pointer Limit
 672:Generated_Source\PSoC6\pdl\cmsis/include/cmsis_gcc.h ****   Devices without ARMv8-M Main Extensions (i.e. Cortex-M23) lack the non-secure
 673:Generated_Source\PSoC6\pdl\cmsis/include/cmsis_gcc.h ****   Stack Pointer Limit register hence zero is returned always in non-secure
 674:Generated_Source\PSoC6\pdl\cmsis/include/cmsis_gcc.h ****   mode.
 675:Generated_Source\PSoC6\pdl\cmsis/include/cmsis_gcc.h **** 
 676:Generated_Source\PSoC6\pdl\cmsis/include/cmsis_gcc.h ****   \details Returns the current value of the Main Stack Pointer Limit (MSPLIM).
ARM GAS  C:\Users\Rolf\AppData\Local\Temp\ccUtnhQP.s 			page 73


 677:Generated_Source\PSoC6\pdl\cmsis/include/cmsis_gcc.h ****   \return               MSPLIM Register value
 678:Generated_Source\PSoC6\pdl\cmsis/include/cmsis_gcc.h ****  */
 679:Generated_Source\PSoC6\pdl\cmsis/include/cmsis_gcc.h **** __STATIC_FORCEINLINE uint32_t __get_MSPLIM(void)
 680:Generated_Source\PSoC6\pdl\cmsis/include/cmsis_gcc.h **** {
 681:Generated_Source\PSoC6\pdl\cmsis/include/cmsis_gcc.h **** #if (!(defined (__ARM_ARCH_8M_MAIN__ ) && (__ARM_ARCH_8M_MAIN__ == 1)) && \
 682:Generated_Source\PSoC6\pdl\cmsis/include/cmsis_gcc.h ****     (!defined (__ARM_FEATURE_CMSE) || (__ARM_FEATURE_CMSE < 3)))
 683:Generated_Source\PSoC6\pdl\cmsis/include/cmsis_gcc.h ****   // without main extensions, the non-secure MSPLIM is RAZ/WI
 684:Generated_Source\PSoC6\pdl\cmsis/include/cmsis_gcc.h ****   return 0U;
 685:Generated_Source\PSoC6\pdl\cmsis/include/cmsis_gcc.h **** #else
 686:Generated_Source\PSoC6\pdl\cmsis/include/cmsis_gcc.h ****   register uint32_t result;
 687:Generated_Source\PSoC6\pdl\cmsis/include/cmsis_gcc.h ****   __ASM volatile ("MRS %0, msplim" : "=r" (result) );
 688:Generated_Source\PSoC6\pdl\cmsis/include/cmsis_gcc.h ****   return result;
 689:Generated_Source\PSoC6\pdl\cmsis/include/cmsis_gcc.h **** #endif
 690:Generated_Source\PSoC6\pdl\cmsis/include/cmsis_gcc.h **** }
 691:Generated_Source\PSoC6\pdl\cmsis/include/cmsis_gcc.h **** 
 692:Generated_Source\PSoC6\pdl\cmsis/include/cmsis_gcc.h **** 
 693:Generated_Source\PSoC6\pdl\cmsis/include/cmsis_gcc.h **** #if (defined (__ARM_FEATURE_CMSE  ) && (__ARM_FEATURE_CMSE   == 3))
 694:Generated_Source\PSoC6\pdl\cmsis/include/cmsis_gcc.h **** /**
 695:Generated_Source\PSoC6\pdl\cmsis/include/cmsis_gcc.h ****   \brief   Get Main Stack Pointer Limit (non-secure)
 696:Generated_Source\PSoC6\pdl\cmsis/include/cmsis_gcc.h ****   Devices without ARMv8-M Main Extensions (i.e. Cortex-M23) lack the non-secure
 697:Generated_Source\PSoC6\pdl\cmsis/include/cmsis_gcc.h ****   Stack Pointer Limit register hence zero is returned always.
 698:Generated_Source\PSoC6\pdl\cmsis/include/cmsis_gcc.h **** 
 699:Generated_Source\PSoC6\pdl\cmsis/include/cmsis_gcc.h ****   \details Returns the current value of the non-secure Main Stack Pointer Limit(MSPLIM) when in sec
 700:Generated_Source\PSoC6\pdl\cmsis/include/cmsis_gcc.h ****   \return               MSPLIM Register value
 701:Generated_Source\PSoC6\pdl\cmsis/include/cmsis_gcc.h ****  */
 702:Generated_Source\PSoC6\pdl\cmsis/include/cmsis_gcc.h **** __STATIC_FORCEINLINE uint32_t __TZ_get_MSPLIM_NS(void)
 703:Generated_Source\PSoC6\pdl\cmsis/include/cmsis_gcc.h **** {
 704:Generated_Source\PSoC6\pdl\cmsis/include/cmsis_gcc.h **** #if (!(defined (__ARM_ARCH_8M_MAIN__ ) && (__ARM_ARCH_8M_MAIN__ == 1)))
 705:Generated_Source\PSoC6\pdl\cmsis/include/cmsis_gcc.h ****   // without main extensions, the non-secure MSPLIM is RAZ/WI
 706:Generated_Source\PSoC6\pdl\cmsis/include/cmsis_gcc.h ****   return 0U;
 707:Generated_Source\PSoC6\pdl\cmsis/include/cmsis_gcc.h **** #else
 708:Generated_Source\PSoC6\pdl\cmsis/include/cmsis_gcc.h ****   register uint32_t result;
 709:Generated_Source\PSoC6\pdl\cmsis/include/cmsis_gcc.h ****   __ASM volatile ("MRS %0, msplim_ns" : "=r" (result) );
 710:Generated_Source\PSoC6\pdl\cmsis/include/cmsis_gcc.h ****   return result;
 711:Generated_Source\PSoC6\pdl\cmsis/include/cmsis_gcc.h **** #endif
 712:Generated_Source\PSoC6\pdl\cmsis/include/cmsis_gcc.h **** }
 713:Generated_Source\PSoC6\pdl\cmsis/include/cmsis_gcc.h **** #endif
 714:Generated_Source\PSoC6\pdl\cmsis/include/cmsis_gcc.h **** 
 715:Generated_Source\PSoC6\pdl\cmsis/include/cmsis_gcc.h **** 
 716:Generated_Source\PSoC6\pdl\cmsis/include/cmsis_gcc.h **** /**
 717:Generated_Source\PSoC6\pdl\cmsis/include/cmsis_gcc.h ****   \brief   Set Main Stack Pointer Limit
 718:Generated_Source\PSoC6\pdl\cmsis/include/cmsis_gcc.h ****   Devices without ARMv8-M Main Extensions (i.e. Cortex-M23) lack the non-secure
 719:Generated_Source\PSoC6\pdl\cmsis/include/cmsis_gcc.h ****   Stack Pointer Limit register hence the write is silently ignored in non-secure
 720:Generated_Source\PSoC6\pdl\cmsis/include/cmsis_gcc.h ****   mode.
 721:Generated_Source\PSoC6\pdl\cmsis/include/cmsis_gcc.h **** 
 722:Generated_Source\PSoC6\pdl\cmsis/include/cmsis_gcc.h ****   \details Assigns the given value to the Main Stack Pointer Limit (MSPLIM).
 723:Generated_Source\PSoC6\pdl\cmsis/include/cmsis_gcc.h ****   \param [in]    MainStackPtrLimit  Main Stack Pointer Limit value to set
 724:Generated_Source\PSoC6\pdl\cmsis/include/cmsis_gcc.h ****  */
 725:Generated_Source\PSoC6\pdl\cmsis/include/cmsis_gcc.h **** __STATIC_FORCEINLINE void __set_MSPLIM(uint32_t MainStackPtrLimit)
 726:Generated_Source\PSoC6\pdl\cmsis/include/cmsis_gcc.h **** {
 727:Generated_Source\PSoC6\pdl\cmsis/include/cmsis_gcc.h **** #if (!(defined (__ARM_ARCH_8M_MAIN__ ) && (__ARM_ARCH_8M_MAIN__ == 1)) && \
 728:Generated_Source\PSoC6\pdl\cmsis/include/cmsis_gcc.h ****     (!defined (__ARM_FEATURE_CMSE) || (__ARM_FEATURE_CMSE < 3)))
 729:Generated_Source\PSoC6\pdl\cmsis/include/cmsis_gcc.h ****   // without main extensions, the non-secure MSPLIM is RAZ/WI
 730:Generated_Source\PSoC6\pdl\cmsis/include/cmsis_gcc.h ****   (void)MainStackPtrLimit;
 731:Generated_Source\PSoC6\pdl\cmsis/include/cmsis_gcc.h **** #else
 732:Generated_Source\PSoC6\pdl\cmsis/include/cmsis_gcc.h ****   __ASM volatile ("MSR msplim, %0" : : "r" (MainStackPtrLimit));
 733:Generated_Source\PSoC6\pdl\cmsis/include/cmsis_gcc.h **** #endif
ARM GAS  C:\Users\Rolf\AppData\Local\Temp\ccUtnhQP.s 			page 74


 734:Generated_Source\PSoC6\pdl\cmsis/include/cmsis_gcc.h **** }
 735:Generated_Source\PSoC6\pdl\cmsis/include/cmsis_gcc.h **** 
 736:Generated_Source\PSoC6\pdl\cmsis/include/cmsis_gcc.h **** 
 737:Generated_Source\PSoC6\pdl\cmsis/include/cmsis_gcc.h **** #if (defined (__ARM_FEATURE_CMSE  ) && (__ARM_FEATURE_CMSE   == 3))
 738:Generated_Source\PSoC6\pdl\cmsis/include/cmsis_gcc.h **** /**
 739:Generated_Source\PSoC6\pdl\cmsis/include/cmsis_gcc.h ****   \brief   Set Main Stack Pointer Limit (non-secure)
 740:Generated_Source\PSoC6\pdl\cmsis/include/cmsis_gcc.h ****   Devices without ARMv8-M Main Extensions (i.e. Cortex-M23) lack the non-secure
 741:Generated_Source\PSoC6\pdl\cmsis/include/cmsis_gcc.h ****   Stack Pointer Limit register hence the write is silently ignored.
 742:Generated_Source\PSoC6\pdl\cmsis/include/cmsis_gcc.h **** 
 743:Generated_Source\PSoC6\pdl\cmsis/include/cmsis_gcc.h ****   \details Assigns the given value to the non-secure Main Stack Pointer Limit (MSPLIM) when in secu
 744:Generated_Source\PSoC6\pdl\cmsis/include/cmsis_gcc.h ****   \param [in]    MainStackPtrLimit  Main Stack Pointer value to set
 745:Generated_Source\PSoC6\pdl\cmsis/include/cmsis_gcc.h ****  */
 746:Generated_Source\PSoC6\pdl\cmsis/include/cmsis_gcc.h **** __STATIC_FORCEINLINE void __TZ_set_MSPLIM_NS(uint32_t MainStackPtrLimit)
 747:Generated_Source\PSoC6\pdl\cmsis/include/cmsis_gcc.h **** {
 748:Generated_Source\PSoC6\pdl\cmsis/include/cmsis_gcc.h **** #if (!(defined (__ARM_ARCH_8M_MAIN__ ) && (__ARM_ARCH_8M_MAIN__ == 1)))
 749:Generated_Source\PSoC6\pdl\cmsis/include/cmsis_gcc.h ****   // without main extensions, the non-secure MSPLIM is RAZ/WI
 750:Generated_Source\PSoC6\pdl\cmsis/include/cmsis_gcc.h ****   (void)MainStackPtrLimit;
 751:Generated_Source\PSoC6\pdl\cmsis/include/cmsis_gcc.h **** #else
 752:Generated_Source\PSoC6\pdl\cmsis/include/cmsis_gcc.h ****   __ASM volatile ("MSR msplim_ns, %0" : : "r" (MainStackPtrLimit));
 753:Generated_Source\PSoC6\pdl\cmsis/include/cmsis_gcc.h **** #endif
 754:Generated_Source\PSoC6\pdl\cmsis/include/cmsis_gcc.h **** }
 755:Generated_Source\PSoC6\pdl\cmsis/include/cmsis_gcc.h **** #endif
 756:Generated_Source\PSoC6\pdl\cmsis/include/cmsis_gcc.h **** 
 757:Generated_Source\PSoC6\pdl\cmsis/include/cmsis_gcc.h **** #endif /* ((defined (__ARM_ARCH_8M_MAIN__ ) && (__ARM_ARCH_8M_MAIN__ == 1)) || \
 758:Generated_Source\PSoC6\pdl\cmsis/include/cmsis_gcc.h ****            (defined (__ARM_ARCH_8M_BASE__ ) && (__ARM_ARCH_8M_BASE__ == 1))    ) */
 759:Generated_Source\PSoC6\pdl\cmsis/include/cmsis_gcc.h **** 
 760:Generated_Source\PSoC6\pdl\cmsis/include/cmsis_gcc.h **** 
 761:Generated_Source\PSoC6\pdl\cmsis/include/cmsis_gcc.h **** #if ((defined (__ARM_ARCH_7EM__     ) && (__ARM_ARCH_7EM__     == 1)) || \
 762:Generated_Source\PSoC6\pdl\cmsis/include/cmsis_gcc.h ****      (defined (__ARM_ARCH_8M_MAIN__ ) && (__ARM_ARCH_8M_MAIN__ == 1))    )
 763:Generated_Source\PSoC6\pdl\cmsis/include/cmsis_gcc.h **** 
 764:Generated_Source\PSoC6\pdl\cmsis/include/cmsis_gcc.h **** /**
 765:Generated_Source\PSoC6\pdl\cmsis/include/cmsis_gcc.h ****   \brief   Get FPSCR
 766:Generated_Source\PSoC6\pdl\cmsis/include/cmsis_gcc.h ****   \details Returns the current value of the Floating Point Status/Control register.
 767:Generated_Source\PSoC6\pdl\cmsis/include/cmsis_gcc.h ****   \return               Floating Point Status/Control register value
 768:Generated_Source\PSoC6\pdl\cmsis/include/cmsis_gcc.h ****  */
 769:Generated_Source\PSoC6\pdl\cmsis/include/cmsis_gcc.h **** __STATIC_FORCEINLINE uint32_t __get_FPSCR(void)
 770:Generated_Source\PSoC6\pdl\cmsis/include/cmsis_gcc.h **** {
 771:Generated_Source\PSoC6\pdl\cmsis/include/cmsis_gcc.h **** #if ((defined (__FPU_PRESENT) && (__FPU_PRESENT == 1U)) && \
 772:Generated_Source\PSoC6\pdl\cmsis/include/cmsis_gcc.h ****      (defined (__FPU_USED   ) && (__FPU_USED    == 1U))     )
 773:Generated_Source\PSoC6\pdl\cmsis/include/cmsis_gcc.h **** #if __has_builtin(__builtin_arm_get_fpscr) || (__GNUC__ > 7) || (__GNUC__ == 7 && __GNUC_MINOR__ >=
 774:Generated_Source\PSoC6\pdl\cmsis/include/cmsis_gcc.h ****   /* see https://gcc.gnu.org/ml/gcc-patches/2017-04/msg00443.html */
 775:Generated_Source\PSoC6\pdl\cmsis/include/cmsis_gcc.h ****   return __builtin_arm_get_fpscr();
 776:Generated_Source\PSoC6\pdl\cmsis/include/cmsis_gcc.h **** #else
 777:Generated_Source\PSoC6\pdl\cmsis/include/cmsis_gcc.h ****   uint32_t result;
 778:Generated_Source\PSoC6\pdl\cmsis/include/cmsis_gcc.h **** 
 779:Generated_Source\PSoC6\pdl\cmsis/include/cmsis_gcc.h ****   __ASM volatile ("VMRS %0, fpscr" : "=r" (result) );
 780:Generated_Source\PSoC6\pdl\cmsis/include/cmsis_gcc.h ****   return(result);
 781:Generated_Source\PSoC6\pdl\cmsis/include/cmsis_gcc.h **** #endif
 782:Generated_Source\PSoC6\pdl\cmsis/include/cmsis_gcc.h **** #else
 783:Generated_Source\PSoC6\pdl\cmsis/include/cmsis_gcc.h ****   return(0U);
 784:Generated_Source\PSoC6\pdl\cmsis/include/cmsis_gcc.h **** #endif
 785:Generated_Source\PSoC6\pdl\cmsis/include/cmsis_gcc.h **** }
 786:Generated_Source\PSoC6\pdl\cmsis/include/cmsis_gcc.h **** 
 787:Generated_Source\PSoC6\pdl\cmsis/include/cmsis_gcc.h **** 
 788:Generated_Source\PSoC6\pdl\cmsis/include/cmsis_gcc.h **** /**
 789:Generated_Source\PSoC6\pdl\cmsis/include/cmsis_gcc.h ****   \brief   Set FPSCR
 790:Generated_Source\PSoC6\pdl\cmsis/include/cmsis_gcc.h ****   \details Assigns the given value to the Floating Point Status/Control register.
ARM GAS  C:\Users\Rolf\AppData\Local\Temp\ccUtnhQP.s 			page 75


 791:Generated_Source\PSoC6\pdl\cmsis/include/cmsis_gcc.h ****   \param [in]    fpscr  Floating Point Status/Control value to set
 792:Generated_Source\PSoC6\pdl\cmsis/include/cmsis_gcc.h ****  */
 793:Generated_Source\PSoC6\pdl\cmsis/include/cmsis_gcc.h **** __STATIC_FORCEINLINE void __set_FPSCR(uint32_t fpscr)
 794:Generated_Source\PSoC6\pdl\cmsis/include/cmsis_gcc.h **** {
 795:Generated_Source\PSoC6\pdl\cmsis/include/cmsis_gcc.h **** #if ((defined (__FPU_PRESENT) && (__FPU_PRESENT == 1U)) && \
 796:Generated_Source\PSoC6\pdl\cmsis/include/cmsis_gcc.h ****      (defined (__FPU_USED   ) && (__FPU_USED    == 1U))     )
 797:Generated_Source\PSoC6\pdl\cmsis/include/cmsis_gcc.h **** #if __has_builtin(__builtin_arm_set_fpscr) || (__GNUC__ > 7) || (__GNUC__ == 7 && __GNUC_MINOR__ >=
 798:Generated_Source\PSoC6\pdl\cmsis/include/cmsis_gcc.h ****   /* see https://gcc.gnu.org/ml/gcc-patches/2017-04/msg00443.html */
 799:Generated_Source\PSoC6\pdl\cmsis/include/cmsis_gcc.h ****   __builtin_arm_set_fpscr(fpscr);
 800:Generated_Source\PSoC6\pdl\cmsis/include/cmsis_gcc.h **** #else
 801:Generated_Source\PSoC6\pdl\cmsis/include/cmsis_gcc.h ****   __ASM volatile ("VMSR fpscr, %0" : : "r" (fpscr) : "vfpcc", "memory");
 802:Generated_Source\PSoC6\pdl\cmsis/include/cmsis_gcc.h **** #endif
 803:Generated_Source\PSoC6\pdl\cmsis/include/cmsis_gcc.h **** #else
 804:Generated_Source\PSoC6\pdl\cmsis/include/cmsis_gcc.h ****   (void)fpscr;
 805:Generated_Source\PSoC6\pdl\cmsis/include/cmsis_gcc.h **** #endif
 806:Generated_Source\PSoC6\pdl\cmsis/include/cmsis_gcc.h **** }
 807:Generated_Source\PSoC6\pdl\cmsis/include/cmsis_gcc.h **** 
 808:Generated_Source\PSoC6\pdl\cmsis/include/cmsis_gcc.h **** #endif /* ((defined (__ARM_ARCH_7EM__     ) && (__ARM_ARCH_7EM__     == 1)) || \
 809:Generated_Source\PSoC6\pdl\cmsis/include/cmsis_gcc.h ****            (defined (__ARM_ARCH_8M_MAIN__ ) && (__ARM_ARCH_8M_MAIN__ == 1))    ) */
 810:Generated_Source\PSoC6\pdl\cmsis/include/cmsis_gcc.h **** 
 811:Generated_Source\PSoC6\pdl\cmsis/include/cmsis_gcc.h **** 
 812:Generated_Source\PSoC6\pdl\cmsis/include/cmsis_gcc.h **** 
 813:Generated_Source\PSoC6\pdl\cmsis/include/cmsis_gcc.h **** /*@} end of CMSIS_Core_RegAccFunctions */
 814:Generated_Source\PSoC6\pdl\cmsis/include/cmsis_gcc.h **** 
 815:Generated_Source\PSoC6\pdl\cmsis/include/cmsis_gcc.h **** 
 816:Generated_Source\PSoC6\pdl\cmsis/include/cmsis_gcc.h **** /* ##########################  Core Instruction Access  ######################### */
 817:Generated_Source\PSoC6\pdl\cmsis/include/cmsis_gcc.h **** /** \defgroup CMSIS_Core_InstructionInterface CMSIS Core Instruction Interface
 818:Generated_Source\PSoC6\pdl\cmsis/include/cmsis_gcc.h ****   Access to dedicated instructions
 819:Generated_Source\PSoC6\pdl\cmsis/include/cmsis_gcc.h ****   @{
 820:Generated_Source\PSoC6\pdl\cmsis/include/cmsis_gcc.h **** */
 821:Generated_Source\PSoC6\pdl\cmsis/include/cmsis_gcc.h **** 
 822:Generated_Source\PSoC6\pdl\cmsis/include/cmsis_gcc.h **** /* Define macros for porting to both thumb1 and thumb2.
 823:Generated_Source\PSoC6\pdl\cmsis/include/cmsis_gcc.h ****  * For thumb1, use low register (r0-r7), specified by constraint "l"
 824:Generated_Source\PSoC6\pdl\cmsis/include/cmsis_gcc.h ****  * Otherwise, use general registers, specified by constraint "r" */
 825:Generated_Source\PSoC6\pdl\cmsis/include/cmsis_gcc.h **** #if defined (__thumb__) && !defined (__thumb2__)
 826:Generated_Source\PSoC6\pdl\cmsis/include/cmsis_gcc.h **** #define __CMSIS_GCC_OUT_REG(r) "=l" (r)
 827:Generated_Source\PSoC6\pdl\cmsis/include/cmsis_gcc.h **** #define __CMSIS_GCC_RW_REG(r) "+l" (r)
 828:Generated_Source\PSoC6\pdl\cmsis/include/cmsis_gcc.h **** #define __CMSIS_GCC_USE_REG(r) "l" (r)
 829:Generated_Source\PSoC6\pdl\cmsis/include/cmsis_gcc.h **** #else
 830:Generated_Source\PSoC6\pdl\cmsis/include/cmsis_gcc.h **** #define __CMSIS_GCC_OUT_REG(r) "=r" (r)
 831:Generated_Source\PSoC6\pdl\cmsis/include/cmsis_gcc.h **** #define __CMSIS_GCC_RW_REG(r) "+r" (r)
 832:Generated_Source\PSoC6\pdl\cmsis/include/cmsis_gcc.h **** #define __CMSIS_GCC_USE_REG(r) "r" (r)
 833:Generated_Source\PSoC6\pdl\cmsis/include/cmsis_gcc.h **** #endif
 834:Generated_Source\PSoC6\pdl\cmsis/include/cmsis_gcc.h **** 
 835:Generated_Source\PSoC6\pdl\cmsis/include/cmsis_gcc.h **** /**
 836:Generated_Source\PSoC6\pdl\cmsis/include/cmsis_gcc.h ****   \brief   No Operation
 837:Generated_Source\PSoC6\pdl\cmsis/include/cmsis_gcc.h ****   \details No Operation does nothing. This instruction can be used for code alignment purposes.
 838:Generated_Source\PSoC6\pdl\cmsis/include/cmsis_gcc.h ****  */
 839:Generated_Source\PSoC6\pdl\cmsis/include/cmsis_gcc.h **** #define __NOP()                             __ASM volatile ("nop")
 840:Generated_Source\PSoC6\pdl\cmsis/include/cmsis_gcc.h **** 
 841:Generated_Source\PSoC6\pdl\cmsis/include/cmsis_gcc.h **** /**
 842:Generated_Source\PSoC6\pdl\cmsis/include/cmsis_gcc.h ****   \brief   Wait For Interrupt
 843:Generated_Source\PSoC6\pdl\cmsis/include/cmsis_gcc.h ****   \details Wait For Interrupt is a hint instruction that suspends execution until one of a number o
 844:Generated_Source\PSoC6\pdl\cmsis/include/cmsis_gcc.h ****  */
 845:Generated_Source\PSoC6\pdl\cmsis/include/cmsis_gcc.h **** #define __WFI()                             __ASM volatile ("wfi")
 846:Generated_Source\PSoC6\pdl\cmsis/include/cmsis_gcc.h **** 
 847:Generated_Source\PSoC6\pdl\cmsis/include/cmsis_gcc.h **** 
ARM GAS  C:\Users\Rolf\AppData\Local\Temp\ccUtnhQP.s 			page 76


 848:Generated_Source\PSoC6\pdl\cmsis/include/cmsis_gcc.h **** /**
 849:Generated_Source\PSoC6\pdl\cmsis/include/cmsis_gcc.h ****   \brief   Wait For Event
 850:Generated_Source\PSoC6\pdl\cmsis/include/cmsis_gcc.h ****   \details Wait For Event is a hint instruction that permits the processor to enter
 851:Generated_Source\PSoC6\pdl\cmsis/include/cmsis_gcc.h ****            a low-power state until one of a number of events occurs.
 852:Generated_Source\PSoC6\pdl\cmsis/include/cmsis_gcc.h ****  */
 853:Generated_Source\PSoC6\pdl\cmsis/include/cmsis_gcc.h **** #define __WFE()                             __ASM volatile ("wfe")
 854:Generated_Source\PSoC6\pdl\cmsis/include/cmsis_gcc.h **** 
 855:Generated_Source\PSoC6\pdl\cmsis/include/cmsis_gcc.h **** 
 856:Generated_Source\PSoC6\pdl\cmsis/include/cmsis_gcc.h **** /**
 857:Generated_Source\PSoC6\pdl\cmsis/include/cmsis_gcc.h ****   \brief   Send Event
 858:Generated_Source\PSoC6\pdl\cmsis/include/cmsis_gcc.h ****   \details Send Event is a hint instruction. It causes an event to be signaled to the CPU.
 859:Generated_Source\PSoC6\pdl\cmsis/include/cmsis_gcc.h ****  */
 860:Generated_Source\PSoC6\pdl\cmsis/include/cmsis_gcc.h **** #define __SEV()                             __ASM volatile ("sev")
 861:Generated_Source\PSoC6\pdl\cmsis/include/cmsis_gcc.h **** 
 862:Generated_Source\PSoC6\pdl\cmsis/include/cmsis_gcc.h **** 
 863:Generated_Source\PSoC6\pdl\cmsis/include/cmsis_gcc.h **** /**
 864:Generated_Source\PSoC6\pdl\cmsis/include/cmsis_gcc.h ****   \brief   Instruction Synchronization Barrier
 865:Generated_Source\PSoC6\pdl\cmsis/include/cmsis_gcc.h ****   \details Instruction Synchronization Barrier flushes the pipeline in the processor,
 866:Generated_Source\PSoC6\pdl\cmsis/include/cmsis_gcc.h ****            so that all instructions following the ISB are fetched from cache or memory,
 867:Generated_Source\PSoC6\pdl\cmsis/include/cmsis_gcc.h ****            after the instruction has been completed.
 868:Generated_Source\PSoC6\pdl\cmsis/include/cmsis_gcc.h ****  */
 869:Generated_Source\PSoC6\pdl\cmsis/include/cmsis_gcc.h **** __STATIC_FORCEINLINE void __ISB(void)
 870:Generated_Source\PSoC6\pdl\cmsis/include/cmsis_gcc.h **** {
 871:Generated_Source\PSoC6\pdl\cmsis/include/cmsis_gcc.h ****   __ASM volatile ("isb 0xF":::"memory");
 872:Generated_Source\PSoC6\pdl\cmsis/include/cmsis_gcc.h **** }
 873:Generated_Source\PSoC6\pdl\cmsis/include/cmsis_gcc.h **** 
 874:Generated_Source\PSoC6\pdl\cmsis/include/cmsis_gcc.h **** 
 875:Generated_Source\PSoC6\pdl\cmsis/include/cmsis_gcc.h **** /**
 876:Generated_Source\PSoC6\pdl\cmsis/include/cmsis_gcc.h ****   \brief   Data Synchronization Barrier
 877:Generated_Source\PSoC6\pdl\cmsis/include/cmsis_gcc.h ****   \details Acts as a special kind of Data Memory Barrier.
 878:Generated_Source\PSoC6\pdl\cmsis/include/cmsis_gcc.h ****            It completes when all explicit memory accesses before this instruction complete.
 879:Generated_Source\PSoC6\pdl\cmsis/include/cmsis_gcc.h ****  */
 880:Generated_Source\PSoC6\pdl\cmsis/include/cmsis_gcc.h **** __STATIC_FORCEINLINE void __DSB(void)
 881:Generated_Source\PSoC6\pdl\cmsis/include/cmsis_gcc.h **** {
 882:Generated_Source\PSoC6\pdl\cmsis/include/cmsis_gcc.h ****   __ASM volatile ("dsb 0xF":::"memory");
 1076              		.loc 4 882 0
 1077              		.syntax divided
 1078              	@ 882 "Generated_Source\PSoC6\pdl\cmsis/include/cmsis_gcc.h" 1
 1079 0034 BFF34F8F 		dsb 0xF
 1080              	@ 0 "" 2
 1081              		.thumb
 1082              		.syntax unified
 1083              	.LBE95:
 1084              	.LBE94:
 1085              	.LBB96:
 1086              	.LBB97:
 871:Generated_Source\PSoC6\pdl\cmsis/include/cmsis_gcc.h **** }
 1087              		.loc 4 871 0
 1088              		.syntax divided
 1089              	@ 871 "Generated_Source\PSoC6\pdl\cmsis/include/cmsis_gcc.h" 1
 1090 0038 BFF36F8F 		isb 0xF
 1091              	@ 0 "" 2
 1092              		.thumb
 1093              		.syntax unified
 1094              	.L65:
 1095              	.LBE97:
 1096              	.LBE96:
ARM GAS  C:\Users\Rolf\AppData\Local\Temp\ccUtnhQP.s 			page 77


 1097              	.LBE93:
 1098              	.LBE92:
 561:Generated_Source\PSoC6\pdl\drivers\peripheral\ipc/cy_ipc_pipe.c **** 
 562:Generated_Source\PSoC6\pdl\drivers\peripheral\ipc/cy_ipc_pipe.c ****     return (CY_IPC_PIPE_SUCCESS);
 563:Generated_Source\PSoC6\pdl\drivers\peripheral\ipc/cy_ipc_pipe.c **** }
 1099              		.loc 1 563 0
 1100 003c 0020     		movs	r0, #0
 1101              	.LVL131:
 1102              		@ sp needed
 1103              	.LVL132:
 1104 003e 10BD     		pop	{r4, pc}
 1105              	.L67:
 1106              		.align	2
 1107              	.L66:
 1108 0040 00000000 		.word	.LANCHOR0
 1109 0044 2B020000 		.word	555
 1110 0048 00000000 		.word	.LC2
 1111 004c 00E100E0 		.word	-536813312
 1112              		.cfi_endproc
 1113              	.LFE74:
 1114              		.size	Cy_IPC_Pipe_EndpointPause, .-Cy_IPC_Pipe_EndpointPause
 1115              		.section	.text.Cy_IPC_Pipe_EndpointResume,"ax",%progbits
 1116              		.align	2
 1117              		.global	Cy_IPC_Pipe_EndpointResume
 1118              		.code	16
 1119              		.thumb_func
 1120              		.type	Cy_IPC_Pipe_EndpointResume, %function
 1121              	Cy_IPC_Pipe_EndpointResume:
 1122              	.LFB75:
 564:Generated_Source\PSoC6\pdl\drivers\peripheral\ipc/cy_ipc_pipe.c **** 
 565:Generated_Source\PSoC6\pdl\drivers\peripheral\ipc/cy_ipc_pipe.c **** 
 566:Generated_Source\PSoC6\pdl\drivers\peripheral\ipc/cy_ipc_pipe.c **** /*******************************************************************************
 567:Generated_Source\PSoC6\pdl\drivers\peripheral\ipc/cy_ipc_pipe.c **** * Function Name: Cy_IPC_Pipe_EndpointResume
 568:Generated_Source\PSoC6\pdl\drivers\peripheral\ipc/cy_ipc_pipe.c **** ****************************************************************************//**
 569:Generated_Source\PSoC6\pdl\drivers\peripheral\ipc/cy_ipc_pipe.c **** *
 570:Generated_Source\PSoC6\pdl\drivers\peripheral\ipc/cy_ipc_pipe.c **** * This function sets the receiver endpoint to active state.
 571:Generated_Source\PSoC6\pdl\drivers\peripheral\ipc/cy_ipc_pipe.c **** *
 572:Generated_Source\PSoC6\pdl\drivers\peripheral\ipc/cy_ipc_pipe.c **** * \param epAddr
 573:Generated_Source\PSoC6\pdl\drivers\peripheral\ipc/cy_ipc_pipe.c **** * This parameter is the address (or index in the array of endpoint structures)
 574:Generated_Source\PSoC6\pdl\drivers\peripheral\ipc/cy_ipc_pipe.c **** * that designates the endpoint to resume.
 575:Generated_Source\PSoC6\pdl\drivers\peripheral\ipc/cy_ipc_pipe.c **** *
 576:Generated_Source\PSoC6\pdl\drivers\peripheral\ipc/cy_ipc_pipe.c **** * \return
 577:Generated_Source\PSoC6\pdl\drivers\peripheral\ipc/cy_ipc_pipe.c **** *    CY_IPC_PIPE_SUCCESS:           Callback registered successfully
 578:Generated_Source\PSoC6\pdl\drivers\peripheral\ipc/cy_ipc_pipe.c **** *
 579:Generated_Source\PSoC6\pdl\drivers\peripheral\ipc/cy_ipc_pipe.c **** * \funcusage
 580:Generated_Source\PSoC6\pdl\drivers\peripheral\ipc/cy_ipc_pipe.c **** * \snippet IPC_sut_01.cydsn/main_cm4.c snippet_Cy_IPC_Pipe_EndpointPauseResume
 581:Generated_Source\PSoC6\pdl\drivers\peripheral\ipc/cy_ipc_pipe.c **** *
 582:Generated_Source\PSoC6\pdl\drivers\peripheral\ipc/cy_ipc_pipe.c **** *******************************************************************************/
 583:Generated_Source\PSoC6\pdl\drivers\peripheral\ipc/cy_ipc_pipe.c **** cy_en_ipc_pipe_status_t Cy_IPC_Pipe_EndpointResume(uint32_t epAddr)
 584:Generated_Source\PSoC6\pdl\drivers\peripheral\ipc/cy_ipc_pipe.c **** {
 1123              		.loc 1 584 0
 1124              		.cfi_startproc
 1125              		@ args = 0, pretend = 0, frame = 0
 1126              		@ frame_needed = 0, uses_anonymous_args = 0
 1127              	.LVL133:
 1128 0000 10B5     		push	{r4, lr}
 1129              		.cfi_def_cfa_offset 8
ARM GAS  C:\Users\Rolf\AppData\Local\Temp\ccUtnhQP.s 			page 78


 1130              		.cfi_offset 4, -8
 1131              		.cfi_offset 14, -4
 1132 0002 0400     		movs	r4, r0
 585:Generated_Source\PSoC6\pdl\drivers\peripheral\ipc/cy_ipc_pipe.c ****     cy_stc_ipc_pipe_ep_t * endpoint;
 586:Generated_Source\PSoC6\pdl\drivers\peripheral\ipc/cy_ipc_pipe.c **** 
 587:Generated_Source\PSoC6\pdl\drivers\peripheral\ipc/cy_ipc_pipe.c ****     CY_ASSERT_L1(NULL != cy_ipc_pipe_epArray);
 1133              		.loc 1 587 0
 1134 0004 0C4B     		ldr	r3, .L71
 1135 0006 1B68     		ldr	r3, [r3]
 1136 0008 002B     		cmp	r3, #0
 1137 000a 03D1     		bne	.L69
 1138              		.loc 1 587 0 is_stmt 0 discriminator 1
 1139 000c 0B49     		ldr	r1, .L71+4
 1140 000e 0C48     		ldr	r0, .L71+8
 1141              	.LVL134:
 1142 0010 FFF7FEFF 		bl	Cy_SysLib_AssertFailed
 1143              	.LVL135:
 1144              	.L69:
 588:Generated_Source\PSoC6\pdl\drivers\peripheral\ipc/cy_ipc_pipe.c **** 
 589:Generated_Source\PSoC6\pdl\drivers\peripheral\ipc/cy_ipc_pipe.c ****     endpoint = &cy_ipc_pipe_epArray[epAddr];
 1145              		.loc 1 589 0 is_stmt 1
 1146 0014 084B     		ldr	r3, .L71
 1147 0016 1B68     		ldr	r3, [r3]
 1148 0018 2C20     		movs	r0, #44
 1149 001a 6043     		muls	r0, r4
 1150 001c 1818     		adds	r0, r3, r0
 1151              	.LVL136:
 590:Generated_Source\PSoC6\pdl\drivers\peripheral\ipc/cy_ipc_pipe.c **** 
 591:Generated_Source\PSoC6\pdl\drivers\peripheral\ipc/cy_ipc_pipe.c ****     /* Enable the interrupts */
 592:Generated_Source\PSoC6\pdl\drivers\peripheral\ipc/cy_ipc_pipe.c ****     NVIC_EnableIRQ(endpoint->pipeIntrSrc);
 1152              		.loc 1 592 0
 1153 001e 0C23     		movs	r3, #12
 1154 0020 C25E     		ldrsh	r2, [r0, r3]
 1155              	.LVL137:
 1156              	.LBB98:
 1157              	.LBB99:
 735:Generated_Source\PSoC6\pdl\cmsis/include/core_cm0plus.h ****   {
 1158              		.loc 3 735 0
 1159 0022 002A     		cmp	r2, #0
 1160 0024 05DB     		blt	.L70
 737:Generated_Source\PSoC6\pdl\cmsis/include/core_cm0plus.h ****   }
 1161              		.loc 3 737 0
 1162 0026 1F23     		movs	r3, #31
 1163 0028 1A40     		ands	r2, r3
 1164              	.LVL138:
 1165 002a 1E3B     		subs	r3, r3, #30
 1166 002c 9340     		lsls	r3, r3, r2
 1167 002e 054A     		ldr	r2, .L71+12
 1168 0030 1360     		str	r3, [r2]
 1169              	.LVL139:
 1170              	.L70:
 1171              	.LBE99:
 1172              	.LBE98:
 593:Generated_Source\PSoC6\pdl\drivers\peripheral\ipc/cy_ipc_pipe.c **** 
 594:Generated_Source\PSoC6\pdl\drivers\peripheral\ipc/cy_ipc_pipe.c ****     return (CY_IPC_PIPE_SUCCESS);
 595:Generated_Source\PSoC6\pdl\drivers\peripheral\ipc/cy_ipc_pipe.c **** }
 1173              		.loc 1 595 0
ARM GAS  C:\Users\Rolf\AppData\Local\Temp\ccUtnhQP.s 			page 79


 1174 0032 0020     		movs	r0, #0
 1175              	.LVL140:
 1176              		@ sp needed
 1177              	.LVL141:
 1178 0034 10BD     		pop	{r4, pc}
 1179              	.L72:
 1180 0036 C046     		.align	2
 1181              	.L71:
 1182 0038 00000000 		.word	.LANCHOR0
 1183 003c 4B020000 		.word	587
 1184 0040 00000000 		.word	.LC2
 1185 0044 00E100E0 		.word	-536813312
 1186              		.cfi_endproc
 1187              	.LFE75:
 1188              		.size	Cy_IPC_Pipe_EndpointResume, .-Cy_IPC_Pipe_EndpointResume
 1189              		.section	.rodata.str1.4,"aMS",%progbits,1
 1190              		.align	2
 1191              	.LC2:
 1192 0000 47656E65 		.ascii	"Generated_Source\\PSoC6\\pdl\\drivers\\peripheral\\"
 1192      72617465 
 1192      645F536F 
 1192      75726365 
 1192      5C50536F 
 1193 002e 6970635C 		.ascii	"ipc\\cy_ipc_pipe.c\000"
 1193      63795F69 
 1193      70635F70 
 1193      6970652E 
 1193      6300
 1194              	.LC5:
 1195 0040 47656E65 		.ascii	"Generated_Source\\PSoC6\\pdl\\drivers\\peripheral\\"
 1195      72617465 
 1195      645F536F 
 1195      75726365 
 1195      5C50536F 
 1196 006e 6970635C 		.ascii	"ipc\\cy_ipc_drv.h\000"
 1196      63795F69 
 1196      70635F64 
 1196      72762E68 
 1196      00
 1197              		.bss
 1198              		.align	2
 1199              		.set	.LANCHOR0,. + 0
 1200              		.type	cy_ipc_pipe_epArray, %object
 1201              		.size	cy_ipc_pipe_epArray, 4
 1202              	cy_ipc_pipe_epArray:
 1203 0000 00000000 		.space	4
 1204              		.text
 1205              	.Letext0:
 1206              		.file 5 "c:\\program files (x86)\\cypress\\psoc creator\\4.4\\4.4\\psoc creator\\import\\gnu\\arm\
 1207              		.file 6 "c:\\program files (x86)\\cypress\\psoc creator\\4.4\\4.4\\psoc creator\\import\\gnu\\arm\
 1208              		.file 7 "Generated_Source\\PSoC6\\pdl\\devices/psoc6/include/ip/cyip_ipc.h"
 1209              		.file 8 "Generated_Source\\PSoC6\\pdl\\drivers/peripheral/device/cy_device.h"
 1210              		.file 9 "Generated_Source\\PSoC6\\pdl\\devices/psoc6/include/cy8c6347bzi_bld53.h"
 1211              		.file 10 "Generated_Source\\PSoC6\\pdl\\devices/psoc6/include/psoc6_01_config.h"
 1212              		.file 11 "Generated_Source\\PSoC6\\pdl\\drivers/peripheral/syslib/cy_syslib.h"
 1213              		.file 12 "Generated_Source\\PSoC6\\pdl\\drivers/peripheral/sysint/cy_sysint.h"
 1214              		.file 13 "Generated_Source\\PSoC6\\pdl\\drivers\\peripheral\\ipc\\cy_ipc_pipe.h"
ARM GAS  C:\Users\Rolf\AppData\Local\Temp\ccUtnhQP.s 			page 80


 1215              		.section	.debug_info,"",%progbits
 1216              	.Ldebug_info0:
 1217 0000 E4190000 		.4byte	0x19e4
 1218 0004 0400     		.2byte	0x4
 1219 0006 00000000 		.4byte	.Ldebug_abbrev0
 1220 000a 04       		.byte	0x4
 1221 000b 01       		.uleb128 0x1
 1222 000c 4E110000 		.4byte	.LASF441
 1223 0010 0C       		.byte	0xc
 1224 0011 EF180000 		.4byte	.LASF442
 1225 0015 49010000 		.4byte	.LASF443
 1226 0019 00000000 		.4byte	.Ldebug_ranges0+0
 1227 001d 00000000 		.4byte	0
 1228 0021 00000000 		.4byte	.Ldebug_line0
 1229 0025 02       		.uleb128 0x2
 1230 0026 01       		.byte	0x1
 1231 0027 06       		.byte	0x6
 1232 0028 CB1E0000 		.4byte	.LASF0
 1233 002c 03       		.uleb128 0x3
 1234 002d 021E0000 		.4byte	.LASF2
 1235 0031 05       		.byte	0x5
 1236 0032 1D       		.byte	0x1d
 1237 0033 37000000 		.4byte	0x37
 1238 0037 02       		.uleb128 0x2
 1239 0038 01       		.byte	0x1
 1240 0039 08       		.byte	0x8
 1241 003a 691C0000 		.4byte	.LASF1
 1242 003e 03       		.uleb128 0x3
 1243 003f 1D120000 		.4byte	.LASF3
 1244 0043 05       		.byte	0x5
 1245 0044 29       		.byte	0x29
 1246 0045 49000000 		.4byte	0x49
 1247 0049 02       		.uleb128 0x2
 1248 004a 02       		.byte	0x2
 1249 004b 05       		.byte	0x5
 1250 004c 07040000 		.4byte	.LASF4
 1251 0050 03       		.uleb128 0x3
 1252 0051 F7080000 		.4byte	.LASF5
 1253 0055 05       		.byte	0x5
 1254 0056 2B       		.byte	0x2b
 1255 0057 5B000000 		.4byte	0x5b
 1256 005b 02       		.uleb128 0x2
 1257 005c 02       		.byte	0x2
 1258 005d 07       		.byte	0x7
 1259 005e 20150000 		.4byte	.LASF6
 1260 0062 03       		.uleb128 0x3
 1261 0063 49030000 		.4byte	.LASF7
 1262 0067 05       		.byte	0x5
 1263 0068 3F       		.byte	0x3f
 1264 0069 6D000000 		.4byte	0x6d
 1265 006d 02       		.uleb128 0x2
 1266 006e 04       		.byte	0x4
 1267 006f 05       		.byte	0x5
 1268 0070 48170000 		.4byte	.LASF8
 1269 0074 03       		.uleb128 0x3
 1270 0075 861C0000 		.4byte	.LASF9
 1271 0079 05       		.byte	0x5
ARM GAS  C:\Users\Rolf\AppData\Local\Temp\ccUtnhQP.s 			page 81


 1272 007a 41       		.byte	0x41
 1273 007b 7F000000 		.4byte	0x7f
 1274 007f 02       		.uleb128 0x2
 1275 0080 04       		.byte	0x4
 1276 0081 07       		.byte	0x7
 1277 0082 1C1B0000 		.4byte	.LASF10
 1278 0086 02       		.uleb128 0x2
 1279 0087 08       		.byte	0x8
 1280 0088 05       		.byte	0x5
 1281 0089 9E100000 		.4byte	.LASF11
 1282 008d 02       		.uleb128 0x2
 1283 008e 08       		.byte	0x8
 1284 008f 07       		.byte	0x7
 1285 0090 3B080000 		.4byte	.LASF12
 1286 0094 04       		.uleb128 0x4
 1287 0095 04       		.byte	0x4
 1288 0096 05       		.byte	0x5
 1289 0097 696E7400 		.ascii	"int\000"
 1290 009b 02       		.uleb128 0x2
 1291 009c 04       		.byte	0x4
 1292 009d 07       		.byte	0x7
 1293 009e 9E020000 		.4byte	.LASF13
 1294 00a2 03       		.uleb128 0x3
 1295 00a3 410F0000 		.4byte	.LASF14
 1296 00a7 06       		.byte	0x6
 1297 00a8 18       		.byte	0x18
 1298 00a9 2C000000 		.4byte	0x2c
 1299 00ad 03       		.uleb128 0x3
 1300 00ae 83050000 		.4byte	.LASF15
 1301 00b2 06       		.byte	0x6
 1302 00b3 20       		.byte	0x20
 1303 00b4 3E000000 		.4byte	0x3e
 1304 00b8 03       		.uleb128 0x3
 1305 00b9 4E150000 		.4byte	.LASF16
 1306 00bd 06       		.byte	0x6
 1307 00be 24       		.byte	0x24
 1308 00bf 50000000 		.4byte	0x50
 1309 00c3 03       		.uleb128 0x3
 1310 00c4 701B0000 		.4byte	.LASF17
 1311 00c8 06       		.byte	0x6
 1312 00c9 2C       		.byte	0x2c
 1313 00ca 62000000 		.4byte	0x62
 1314 00ce 03       		.uleb128 0x3
 1315 00cf 91060000 		.4byte	.LASF18
 1316 00d3 06       		.byte	0x6
 1317 00d4 30       		.byte	0x30
 1318 00d5 74000000 		.4byte	0x74
 1319 00d9 02       		.uleb128 0x2
 1320 00da 08       		.byte	0x8
 1321 00db 04       		.byte	0x4
 1322 00dc 33150000 		.4byte	.LASF19
 1323 00e0 05       		.uleb128 0x5
 1324 00e1 CE000000 		.4byte	0xce
 1325 00e5 06       		.uleb128 0x6
 1326 00e6 E0000000 		.4byte	0xe0
 1327 00ea 07       		.uleb128 0x7
 1328 00eb E5000000 		.4byte	0xe5
ARM GAS  C:\Users\Rolf\AppData\Local\Temp\ccUtnhQP.s 			page 82


 1329 00ef FA000000 		.4byte	0xfa
 1330 00f3 08       		.uleb128 0x8
 1331 00f4 FA000000 		.4byte	0xfa
 1332 00f8 02       		.byte	0x2
 1333 00f9 00       		.byte	0
 1334 00fa 02       		.uleb128 0x2
 1335 00fb 04       		.byte	0x4
 1336 00fc 07       		.byte	0x7
 1337 00fd 5C120000 		.4byte	.LASF20
 1338 0101 07       		.uleb128 0x7
 1339 0102 E5000000 		.4byte	0xe5
 1340 0106 11010000 		.4byte	0x111
 1341 010a 08       		.uleb128 0x8
 1342 010b FA000000 		.4byte	0xfa
 1343 010f 03       		.byte	0x3
 1344 0110 00       		.byte	0
 1345 0111 07       		.uleb128 0x7
 1346 0112 E0000000 		.4byte	0xe0
 1347 0116 21010000 		.4byte	0x121
 1348 011a 08       		.uleb128 0x8
 1349 011b FA000000 		.4byte	0xfa
 1350 011f 07       		.byte	0x7
 1351 0120 00       		.byte	0
 1352 0121 09       		.uleb128 0x9
 1353 0122 20       		.byte	0x20
 1354 0123 07       		.byte	0x7
 1355 0124 23       		.byte	0x23
 1356 0125 72010000 		.4byte	0x172
 1357 0129 0A       		.uleb128 0xa
 1358 012a 2C110000 		.4byte	.LASF21
 1359 012e 07       		.byte	0x7
 1360 012f 24       		.byte	0x24
 1361 0130 E5000000 		.4byte	0xe5
 1362 0134 00       		.byte	0
 1363 0135 0A       		.uleb128 0xa
 1364 0136 69130000 		.4byte	.LASF22
 1365 013a 07       		.byte	0x7
 1366 013b 25       		.byte	0x25
 1367 013c E0000000 		.4byte	0xe0
 1368 0140 04       		.byte	0x4
 1369 0141 0A       		.uleb128 0xa
 1370 0142 E5190000 		.4byte	.LASF23
 1371 0146 07       		.byte	0x7
 1372 0147 26       		.byte	0x26
 1373 0148 E0000000 		.4byte	0xe0
 1374 014c 08       		.byte	0x8
 1375 014d 0A       		.uleb128 0xa
 1376 014e 5B050000 		.4byte	.LASF24
 1377 0152 07       		.byte	0x7
 1378 0153 27       		.byte	0x27
 1379 0154 E0000000 		.4byte	0xe0
 1380 0158 0C       		.byte	0xc
 1381 0159 0A       		.uleb128 0xa
 1382 015a D00A0000 		.4byte	.LASF25
 1383 015e 07       		.byte	0x7
 1384 015f 28       		.byte	0x28
 1385 0160 E5000000 		.4byte	0xe5
ARM GAS  C:\Users\Rolf\AppData\Local\Temp\ccUtnhQP.s 			page 83


 1386 0164 10       		.byte	0x10
 1387 0165 0A       		.uleb128 0xa
 1388 0166 6C050000 		.4byte	.LASF26
 1389 016a 07       		.byte	0x7
 1390 016b 29       		.byte	0x29
 1391 016c 77010000 		.4byte	0x177
 1392 0170 14       		.byte	0x14
 1393 0171 00       		.byte	0
 1394 0172 05       		.uleb128 0x5
 1395 0173 EA000000 		.4byte	0xea
 1396 0177 06       		.uleb128 0x6
 1397 0178 72010000 		.4byte	0x172
 1398 017c 03       		.uleb128 0x3
 1399 017d 8B050000 		.4byte	.LASF27
 1400 0181 07       		.byte	0x7
 1401 0182 2A       		.byte	0x2a
 1402 0183 21010000 		.4byte	0x121
 1403 0187 09       		.uleb128 0x9
 1404 0188 20       		.byte	0x20
 1405 0189 07       		.byte	0x7
 1406 018a 2F       		.byte	0x2f
 1407 018b CC010000 		.4byte	0x1cc
 1408 018f 0A       		.uleb128 0xa
 1409 0190 800C0000 		.4byte	.LASF28
 1410 0194 07       		.byte	0x7
 1411 0195 30       		.byte	0x30
 1412 0196 E0000000 		.4byte	0xe0
 1413 019a 00       		.byte	0
 1414 019b 0A       		.uleb128 0xa
 1415 019c D7040000 		.4byte	.LASF29
 1416 01a0 07       		.byte	0x7
 1417 01a1 31       		.byte	0x31
 1418 01a2 E0000000 		.4byte	0xe0
 1419 01a6 04       		.byte	0x4
 1420 01a7 0A       		.uleb128 0xa
 1421 01a8 960C0000 		.4byte	.LASF30
 1422 01ac 07       		.byte	0x7
 1423 01ad 32       		.byte	0x32
 1424 01ae E0000000 		.4byte	0xe0
 1425 01b2 08       		.byte	0x8
 1426 01b3 0A       		.uleb128 0xa
 1427 01b4 411A0000 		.4byte	.LASF31
 1428 01b8 07       		.byte	0x7
 1429 01b9 33       		.byte	0x33
 1430 01ba E5000000 		.4byte	0xe5
 1431 01be 0C       		.byte	0xc
 1432 01bf 0A       		.uleb128 0xa
 1433 01c0 6C050000 		.4byte	.LASF26
 1434 01c4 07       		.byte	0x7
 1435 01c5 34       		.byte	0x34
 1436 01c6 D1010000 		.4byte	0x1d1
 1437 01ca 10       		.byte	0x10
 1438 01cb 00       		.byte	0
 1439 01cc 05       		.uleb128 0x5
 1440 01cd 01010000 		.4byte	0x101
 1441 01d1 06       		.uleb128 0x6
 1442 01d2 CC010000 		.4byte	0x1cc
ARM GAS  C:\Users\Rolf\AppData\Local\Temp\ccUtnhQP.s 			page 84


 1443 01d6 03       		.uleb128 0x3
 1444 01d7 53090000 		.4byte	.LASF32
 1445 01db 07       		.byte	0x7
 1446 01dc 35       		.byte	0x35
 1447 01dd 87010000 		.4byte	0x187
 1448 01e1 0B       		.uleb128 0xb
 1449 01e2 0012     		.2byte	0x1200
 1450 01e4 07       		.byte	0x7
 1451 01e5 3A       		.byte	0x3a
 1452 01e6 11020000 		.4byte	0x211
 1453 01ea 0A       		.uleb128 0xa
 1454 01eb 69210000 		.4byte	.LASF33
 1455 01ef 07       		.byte	0x7
 1456 01f0 3B       		.byte	0x3b
 1457 01f1 11020000 		.4byte	0x211
 1458 01f5 00       		.byte	0
 1459 01f6 0C       		.uleb128 0xc
 1460 01f7 6C050000 		.4byte	.LASF26
 1461 01fb 07       		.byte	0x7
 1462 01fc 3C       		.byte	0x3c
 1463 01fd 37020000 		.4byte	0x237
 1464 0201 0002     		.2byte	0x200
 1465 0203 0C       		.uleb128 0xc
 1466 0204 20110000 		.4byte	.LASF34
 1467 0208 07       		.byte	0x7
 1468 0209 3D       		.byte	0x3d
 1469 020a 3C020000 		.4byte	0x23c
 1470 020e 0010     		.2byte	0x1000
 1471 0210 00       		.byte	0
 1472 0211 07       		.uleb128 0x7
 1473 0212 7C010000 		.4byte	0x17c
 1474 0216 21020000 		.4byte	0x221
 1475 021a 08       		.uleb128 0x8
 1476 021b FA000000 		.4byte	0xfa
 1477 021f 0F       		.byte	0xf
 1478 0220 00       		.byte	0
 1479 0221 07       		.uleb128 0x7
 1480 0222 E5000000 		.4byte	0xe5
 1481 0226 32020000 		.4byte	0x232
 1482 022a 0D       		.uleb128 0xd
 1483 022b FA000000 		.4byte	0xfa
 1484 022f 7F03     		.2byte	0x37f
 1485 0231 00       		.byte	0
 1486 0232 05       		.uleb128 0x5
 1487 0233 21020000 		.4byte	0x221
 1488 0237 06       		.uleb128 0x6
 1489 0238 32020000 		.4byte	0x232
 1490 023c 07       		.uleb128 0x7
 1491 023d D6010000 		.4byte	0x1d6
 1492 0241 4C020000 		.4byte	0x24c
 1493 0245 08       		.uleb128 0x8
 1494 0246 FA000000 		.4byte	0xfa
 1495 024a 0F       		.byte	0xf
 1496 024b 00       		.byte	0
 1497 024c 03       		.uleb128 0x3
 1498 024d A5120000 		.4byte	.LASF35
 1499 0251 07       		.byte	0x7
ARM GAS  C:\Users\Rolf\AppData\Local\Temp\ccUtnhQP.s 			page 85


 1500 0252 3E       		.byte	0x3e
 1501 0253 E1010000 		.4byte	0x1e1
 1502 0257 09       		.uleb128 0x9
 1503 0258 B8       		.byte	0xb8
 1504 0259 08       		.byte	0x8
 1505 025a 34       		.byte	0x34
 1506 025b 68060000 		.4byte	0x668
 1507 025f 0A       		.uleb128 0xa
 1508 0260 7B030000 		.4byte	.LASF36
 1509 0264 08       		.byte	0x8
 1510 0265 37       		.byte	0x37
 1511 0266 CE000000 		.4byte	0xce
 1512 026a 00       		.byte	0
 1513 026b 0A       		.uleb128 0xa
 1514 026c AF070000 		.4byte	.LASF37
 1515 0270 08       		.byte	0x8
 1516 0271 38       		.byte	0x38
 1517 0272 CE000000 		.4byte	0xce
 1518 0276 04       		.byte	0x4
 1519 0277 0A       		.uleb128 0xa
 1520 0278 5F0E0000 		.4byte	.LASF38
 1521 027c 08       		.byte	0x8
 1522 027d 39       		.byte	0x39
 1523 027e CE000000 		.4byte	0xce
 1524 0282 08       		.byte	0x8
 1525 0283 0A       		.uleb128 0xa
 1526 0284 AF1B0000 		.4byte	.LASF39
 1527 0288 08       		.byte	0x8
 1528 0289 3A       		.byte	0x3a
 1529 028a CE000000 		.4byte	0xce
 1530 028e 0C       		.byte	0xc
 1531 028f 0A       		.uleb128 0xa
 1532 0290 D6170000 		.4byte	.LASF40
 1533 0294 08       		.byte	0x8
 1534 0295 3B       		.byte	0x3b
 1535 0296 CE000000 		.4byte	0xce
 1536 029a 10       		.byte	0x10
 1537 029b 0A       		.uleb128 0xa
 1538 029c 4B120000 		.4byte	.LASF41
 1539 02a0 08       		.byte	0x8
 1540 02a1 3C       		.byte	0x3c
 1541 02a2 CE000000 		.4byte	0xce
 1542 02a6 14       		.byte	0x14
 1543 02a7 0A       		.uleb128 0xa
 1544 02a8 870B0000 		.4byte	.LASF42
 1545 02ac 08       		.byte	0x8
 1546 02ad 3D       		.byte	0x3d
 1547 02ae CE000000 		.4byte	0xce
 1548 02b2 18       		.byte	0x18
 1549 02b3 0A       		.uleb128 0xa
 1550 02b4 05200000 		.4byte	.LASF43
 1551 02b8 08       		.byte	0x8
 1552 02b9 3E       		.byte	0x3e
 1553 02ba CE000000 		.4byte	0xce
 1554 02be 1C       		.byte	0x1c
 1555 02bf 0A       		.uleb128 0xa
 1556 02c0 AC100000 		.4byte	.LASF44
ARM GAS  C:\Users\Rolf\AppData\Local\Temp\ccUtnhQP.s 			page 86


 1557 02c4 08       		.byte	0x8
 1558 02c5 3F       		.byte	0x3f
 1559 02c6 CE000000 		.4byte	0xce
 1560 02ca 20       		.byte	0x20
 1561 02cb 0A       		.uleb128 0xa
 1562 02cc C3100000 		.4byte	.LASF45
 1563 02d0 08       		.byte	0x8
 1564 02d1 40       		.byte	0x40
 1565 02d2 CE000000 		.4byte	0xce
 1566 02d6 24       		.byte	0x24
 1567 02d7 0A       		.uleb128 0xa
 1568 02d8 6E170000 		.4byte	.LASF46
 1569 02dc 08       		.byte	0x8
 1570 02dd 43       		.byte	0x43
 1571 02de A2000000 		.4byte	0xa2
 1572 02e2 28       		.byte	0x28
 1573 02e3 0A       		.uleb128 0xa
 1574 02e4 71070000 		.4byte	.LASF47
 1575 02e8 08       		.byte	0x8
 1576 02e9 44       		.byte	0x44
 1577 02ea A2000000 		.4byte	0xa2
 1578 02ee 29       		.byte	0x29
 1579 02ef 0A       		.uleb128 0xa
 1580 02f0 F8150000 		.4byte	.LASF48
 1581 02f4 08       		.byte	0x8
 1582 02f5 45       		.byte	0x45
 1583 02f6 A2000000 		.4byte	0xa2
 1584 02fa 2A       		.byte	0x2a
 1585 02fb 0A       		.uleb128 0xa
 1586 02fc B6170000 		.4byte	.LASF49
 1587 0300 08       		.byte	0x8
 1588 0301 46       		.byte	0x46
 1589 0302 A2000000 		.4byte	0xa2
 1590 0306 2B       		.byte	0x2b
 1591 0307 0A       		.uleb128 0xa
 1592 0308 7B170000 		.4byte	.LASF50
 1593 030c 08       		.byte	0x8
 1594 030d 47       		.byte	0x47
 1595 030e A2000000 		.4byte	0xa2
 1596 0312 2C       		.byte	0x2c
 1597 0313 0A       		.uleb128 0xa
 1598 0314 E51A0000 		.4byte	.LASF51
 1599 0318 08       		.byte	0x8
 1600 0319 48       		.byte	0x48
 1601 031a A2000000 		.4byte	0xa2
 1602 031e 2D       		.byte	0x2d
 1603 031f 0A       		.uleb128 0xa
 1604 0320 95210000 		.4byte	.LASF52
 1605 0324 08       		.byte	0x8
 1606 0325 49       		.byte	0x49
 1607 0326 A2000000 		.4byte	0xa2
 1608 032a 2E       		.byte	0x2e
 1609 032b 0A       		.uleb128 0xa
 1610 032c C61F0000 		.4byte	.LASF53
 1611 0330 08       		.byte	0x8
 1612 0331 4A       		.byte	0x4a
 1613 0332 A2000000 		.4byte	0xa2
ARM GAS  C:\Users\Rolf\AppData\Local\Temp\ccUtnhQP.s 			page 87


 1614 0336 2F       		.byte	0x2f
 1615 0337 0A       		.uleb128 0xa
 1616 0338 60050000 		.4byte	.LASF54
 1617 033c 08       		.byte	0x8
 1618 033d 4B       		.byte	0x4b
 1619 033e A2000000 		.4byte	0xa2
 1620 0342 30       		.byte	0x30
 1621 0343 0A       		.uleb128 0xa
 1622 0344 43130000 		.4byte	.LASF55
 1623 0348 08       		.byte	0x8
 1624 0349 4E       		.byte	0x4e
 1625 034a A2000000 		.4byte	0xa2
 1626 034e 31       		.byte	0x31
 1627 034f 0A       		.uleb128 0xa
 1628 0350 211F0000 		.4byte	.LASF56
 1629 0354 08       		.byte	0x8
 1630 0355 4F       		.byte	0x4f
 1631 0356 A2000000 		.4byte	0xa2
 1632 035a 32       		.byte	0x32
 1633 035b 0A       		.uleb128 0xa
 1634 035c D5120000 		.4byte	.LASF57
 1635 0360 08       		.byte	0x8
 1636 0361 50       		.byte	0x50
 1637 0362 A2000000 		.4byte	0xa2
 1638 0366 33       		.byte	0x33
 1639 0367 0A       		.uleb128 0xa
 1640 0368 4C0D0000 		.4byte	.LASF58
 1641 036c 08       		.byte	0x8
 1642 036d 51       		.byte	0x51
 1643 036e A2000000 		.4byte	0xa2
 1644 0372 34       		.byte	0x34
 1645 0373 0A       		.uleb128 0xa
 1646 0374 98080000 		.4byte	.LASF59
 1647 0378 08       		.byte	0x8
 1648 0379 52       		.byte	0x52
 1649 037a AD000000 		.4byte	0xad
 1650 037e 36       		.byte	0x36
 1651 037f 0A       		.uleb128 0xa
 1652 0380 9C030000 		.4byte	.LASF60
 1653 0384 08       		.byte	0x8
 1654 0385 53       		.byte	0x53
 1655 0386 AD000000 		.4byte	0xad
 1656 038a 38       		.byte	0x38
 1657 038b 0A       		.uleb128 0xa
 1658 038c E5030000 		.4byte	.LASF61
 1659 0390 08       		.byte	0x8
 1660 0391 54       		.byte	0x54
 1661 0392 AD000000 		.4byte	0xad
 1662 0396 3A       		.byte	0x3a
 1663 0397 0A       		.uleb128 0xa
 1664 0398 6C030000 		.4byte	.LASF62
 1665 039c 08       		.byte	0x8
 1666 039d 55       		.byte	0x55
 1667 039e A2000000 		.4byte	0xa2
 1668 03a2 3C       		.byte	0x3c
 1669 03a3 0A       		.uleb128 0xa
 1670 03a4 6B0A0000 		.4byte	.LASF63
ARM GAS  C:\Users\Rolf\AppData\Local\Temp\ccUtnhQP.s 			page 88


 1671 03a8 08       		.byte	0x8
 1672 03a9 56       		.byte	0x56
 1673 03aa A2000000 		.4byte	0xa2
 1674 03ae 3D       		.byte	0x3d
 1675 03af 0A       		.uleb128 0xa
 1676 03b0 D4150000 		.4byte	.LASF64
 1677 03b4 08       		.byte	0x8
 1678 03b5 57       		.byte	0x57
 1679 03b6 A2000000 		.4byte	0xa2
 1680 03ba 3E       		.byte	0x3e
 1681 03bb 0A       		.uleb128 0xa
 1682 03bc CB1A0000 		.4byte	.LASF65
 1683 03c0 08       		.byte	0x8
 1684 03c1 58       		.byte	0x58
 1685 03c2 A2000000 		.4byte	0xa2
 1686 03c6 3F       		.byte	0x3f
 1687 03c7 0A       		.uleb128 0xa
 1688 03c8 C8020000 		.4byte	.LASF66
 1689 03cc 08       		.byte	0x8
 1690 03cd 59       		.byte	0x59
 1691 03ce A2000000 		.4byte	0xa2
 1692 03d2 40       		.byte	0x40
 1693 03d3 0A       		.uleb128 0xa
 1694 03d4 D5190000 		.4byte	.LASF67
 1695 03d8 08       		.byte	0x8
 1696 03d9 5A       		.byte	0x5a
 1697 03da A2000000 		.4byte	0xa2
 1698 03de 41       		.byte	0x41
 1699 03df 0A       		.uleb128 0xa
 1700 03e0 D1080000 		.4byte	.LASF68
 1701 03e4 08       		.byte	0x8
 1702 03e5 5B       		.byte	0x5b
 1703 03e6 A2000000 		.4byte	0xa2
 1704 03ea 42       		.byte	0x42
 1705 03eb 0A       		.uleb128 0xa
 1706 03ec 9F0F0000 		.4byte	.LASF69
 1707 03f0 08       		.byte	0x8
 1708 03f1 5C       		.byte	0x5c
 1709 03f2 A2000000 		.4byte	0xa2
 1710 03f6 43       		.byte	0x43
 1711 03f7 0A       		.uleb128 0xa
 1712 03f8 680E0000 		.4byte	.LASF70
 1713 03fc 08       		.byte	0x8
 1714 03fd 5D       		.byte	0x5d
 1715 03fe A2000000 		.4byte	0xa2
 1716 0402 44       		.byte	0x44
 1717 0403 0A       		.uleb128 0xa
 1718 0404 C4170000 		.4byte	.LASF71
 1719 0408 08       		.byte	0x8
 1720 0409 5E       		.byte	0x5e
 1721 040a CE000000 		.4byte	0xce
 1722 040e 48       		.byte	0x48
 1723 040f 0A       		.uleb128 0xa
 1724 0410 E0040000 		.4byte	.LASF72
 1725 0414 08       		.byte	0x8
 1726 0415 5F       		.byte	0x5f
 1727 0416 CE000000 		.4byte	0xce
ARM GAS  C:\Users\Rolf\AppData\Local\Temp\ccUtnhQP.s 			page 89


 1728 041a 4C       		.byte	0x4c
 1729 041b 0A       		.uleb128 0xa
 1730 041c 4D1E0000 		.4byte	.LASF73
 1731 0420 08       		.byte	0x8
 1732 0421 60       		.byte	0x60
 1733 0422 A2000000 		.4byte	0xa2
 1734 0426 50       		.byte	0x50
 1735 0427 0A       		.uleb128 0xa
 1736 0428 F40A0000 		.4byte	.LASF74
 1737 042c 08       		.byte	0x8
 1738 042d 61       		.byte	0x61
 1739 042e A2000000 		.4byte	0xa2
 1740 0432 51       		.byte	0x51
 1741 0433 0A       		.uleb128 0xa
 1742 0434 2B080000 		.4byte	.LASF75
 1743 0438 08       		.byte	0x8
 1744 0439 62       		.byte	0x62
 1745 043a A2000000 		.4byte	0xa2
 1746 043e 52       		.byte	0x52
 1747 043f 0A       		.uleb128 0xa
 1748 0440 7F070000 		.4byte	.LASF76
 1749 0444 08       		.byte	0x8
 1750 0445 63       		.byte	0x63
 1751 0446 A2000000 		.4byte	0xa2
 1752 044a 53       		.byte	0x53
 1753 044b 0A       		.uleb128 0xa
 1754 044c 4A1D0000 		.4byte	.LASF77
 1755 0450 08       		.byte	0x8
 1756 0451 64       		.byte	0x64
 1757 0452 A2000000 		.4byte	0xa2
 1758 0456 54       		.byte	0x54
 1759 0457 0A       		.uleb128 0xa
 1760 0458 5B0B0000 		.4byte	.LASF78
 1761 045c 08       		.byte	0x8
 1762 045d 65       		.byte	0x65
 1763 045e A2000000 		.4byte	0xa2
 1764 0462 55       		.byte	0x55
 1765 0463 0A       		.uleb128 0xa
 1766 0464 00000000 		.4byte	.LASF79
 1767 0468 08       		.byte	0x8
 1768 0469 66       		.byte	0x66
 1769 046a A2000000 		.4byte	0xa2
 1770 046e 56       		.byte	0x56
 1771 046f 0A       		.uleb128 0xa
 1772 0470 0E200000 		.4byte	.LASF80
 1773 0474 08       		.byte	0x8
 1774 0475 67       		.byte	0x67
 1775 0476 A2000000 		.4byte	0xa2
 1776 047a 57       		.byte	0x57
 1777 047b 0A       		.uleb128 0xa
 1778 047c 4D0A0000 		.4byte	.LASF81
 1779 0480 08       		.byte	0x8
 1780 0481 68       		.byte	0x68
 1781 0482 A2000000 		.4byte	0xa2
 1782 0486 58       		.byte	0x58
 1783 0487 0A       		.uleb128 0xa
 1784 0488 85200000 		.4byte	.LASF82
ARM GAS  C:\Users\Rolf\AppData\Local\Temp\ccUtnhQP.s 			page 90


 1785 048c 08       		.byte	0x8
 1786 048d 69       		.byte	0x69
 1787 048e A2000000 		.4byte	0xa2
 1788 0492 59       		.byte	0x59
 1789 0493 0A       		.uleb128 0xa
 1790 0494 B71B0000 		.4byte	.LASF83
 1791 0498 08       		.byte	0x8
 1792 0499 6E       		.byte	0x6e
 1793 049a B8000000 		.4byte	0xb8
 1794 049e 5A       		.byte	0x5a
 1795 049f 0A       		.uleb128 0xa
 1796 04a0 69020000 		.4byte	.LASF84
 1797 04a4 08       		.byte	0x8
 1798 04a5 6F       		.byte	0x6f
 1799 04a6 B8000000 		.4byte	0xb8
 1800 04aa 5C       		.byte	0x5c
 1801 04ab 0A       		.uleb128 0xa
 1802 04ac B4100000 		.4byte	.LASF85
 1803 04b0 08       		.byte	0x8
 1804 04b1 70       		.byte	0x70
 1805 04b2 A2000000 		.4byte	0xa2
 1806 04b6 5E       		.byte	0x5e
 1807 04b7 0A       		.uleb128 0xa
 1808 04b8 E2150000 		.4byte	.LASF86
 1809 04bc 08       		.byte	0x8
 1810 04bd 71       		.byte	0x71
 1811 04be A2000000 		.4byte	0xa2
 1812 04c2 5F       		.byte	0x5f
 1813 04c3 0A       		.uleb128 0xa
 1814 04c4 850C0000 		.4byte	.LASF87
 1815 04c8 08       		.byte	0x8
 1816 04c9 72       		.byte	0x72
 1817 04ca A2000000 		.4byte	0xa2
 1818 04ce 60       		.byte	0x60
 1819 04cf 0A       		.uleb128 0xa
 1820 04d0 210F0000 		.4byte	.LASF88
 1821 04d4 08       		.byte	0x8
 1822 04d5 73       		.byte	0x73
 1823 04d6 CE000000 		.4byte	0xce
 1824 04da 64       		.byte	0x64
 1825 04db 0A       		.uleb128 0xa
 1826 04dc BC210000 		.4byte	.LASF89
 1827 04e0 08       		.byte	0x8
 1828 04e1 76       		.byte	0x76
 1829 04e2 B8000000 		.4byte	0xb8
 1830 04e6 68       		.byte	0x68
 1831 04e7 0A       		.uleb128 0xa
 1832 04e8 5C150000 		.4byte	.LASF90
 1833 04ec 08       		.byte	0x8
 1834 04ed 77       		.byte	0x77
 1835 04ee B8000000 		.4byte	0xb8
 1836 04f2 6A       		.byte	0x6a
 1837 04f3 0A       		.uleb128 0xa
 1838 04f4 8A120000 		.4byte	.LASF91
 1839 04f8 08       		.byte	0x8
 1840 04f9 78       		.byte	0x78
 1841 04fa B8000000 		.4byte	0xb8
ARM GAS  C:\Users\Rolf\AppData\Local\Temp\ccUtnhQP.s 			page 91


 1842 04fe 6C       		.byte	0x6c
 1843 04ff 0A       		.uleb128 0xa
 1844 0500 76040000 		.4byte	.LASF92
 1845 0504 08       		.byte	0x8
 1846 0505 79       		.byte	0x79
 1847 0506 B8000000 		.4byte	0xb8
 1848 050a 6E       		.byte	0x6e
 1849 050b 0A       		.uleb128 0xa
 1850 050c AA0F0000 		.4byte	.LASF93
 1851 0510 08       		.byte	0x8
 1852 0511 7B       		.byte	0x7b
 1853 0512 A2000000 		.4byte	0xa2
 1854 0516 70       		.byte	0x70
 1855 0517 0A       		.uleb128 0xa
 1856 0518 9E050000 		.4byte	.LASF94
 1857 051c 08       		.byte	0x8
 1858 051d 7C       		.byte	0x7c
 1859 051e A2000000 		.4byte	0xa2
 1860 0522 71       		.byte	0x71
 1861 0523 0A       		.uleb128 0xa
 1862 0524 C1040000 		.4byte	.LASF95
 1863 0528 08       		.byte	0x8
 1864 0529 7D       		.byte	0x7d
 1865 052a A2000000 		.4byte	0xa2
 1866 052e 72       		.byte	0x72
 1867 052f 0A       		.uleb128 0xa
 1868 0530 EA020000 		.4byte	.LASF96
 1869 0534 08       		.byte	0x8
 1870 0535 7E       		.byte	0x7e
 1871 0536 A2000000 		.4byte	0xa2
 1872 053a 73       		.byte	0x73
 1873 053b 0A       		.uleb128 0xa
 1874 053c A5080000 		.4byte	.LASF97
 1875 0540 08       		.byte	0x8
 1876 0541 80       		.byte	0x80
 1877 0542 B8000000 		.4byte	0xb8
 1878 0546 74       		.byte	0x74
 1879 0547 0A       		.uleb128 0xa
 1880 0548 AA140000 		.4byte	.LASF98
 1881 054c 08       		.byte	0x8
 1882 054d 81       		.byte	0x81
 1883 054e B8000000 		.4byte	0xb8
 1884 0552 76       		.byte	0x76
 1885 0553 0A       		.uleb128 0xa
 1886 0554 EC0D0000 		.4byte	.LASF99
 1887 0558 08       		.byte	0x8
 1888 0559 82       		.byte	0x82
 1889 055a B8000000 		.4byte	0xb8
 1890 055e 78       		.byte	0x78
 1891 055f 0A       		.uleb128 0xa
 1892 0560 52080000 		.4byte	.LASF100
 1893 0564 08       		.byte	0x8
 1894 0565 83       		.byte	0x83
 1895 0566 B8000000 		.4byte	0xb8
 1896 056a 7A       		.byte	0x7a
 1897 056b 0A       		.uleb128 0xa
 1898 056c 13100000 		.4byte	.LASF101
ARM GAS  C:\Users\Rolf\AppData\Local\Temp\ccUtnhQP.s 			page 92


 1899 0570 08       		.byte	0x8
 1900 0571 86       		.byte	0x86
 1901 0572 A2000000 		.4byte	0xa2
 1902 0576 7C       		.byte	0x7c
 1903 0577 0A       		.uleb128 0xa
 1904 0578 761E0000 		.4byte	.LASF102
 1905 057c 08       		.byte	0x8
 1906 057d 87       		.byte	0x87
 1907 057e A2000000 		.4byte	0xa2
 1908 0582 7D       		.byte	0x7d
 1909 0583 0A       		.uleb128 0xa
 1910 0584 E4070000 		.4byte	.LASF103
 1911 0588 08       		.byte	0x8
 1912 0589 88       		.byte	0x88
 1913 058a A2000000 		.4byte	0xa2
 1914 058e 7E       		.byte	0x7e
 1915 058f 0A       		.uleb128 0xa
 1916 0590 32070000 		.4byte	.LASF104
 1917 0594 08       		.byte	0x8
 1918 0595 89       		.byte	0x89
 1919 0596 A2000000 		.4byte	0xa2
 1920 059a 7F       		.byte	0x7f
 1921 059b 0A       		.uleb128 0xa
 1922 059c 67080000 		.4byte	.LASF105
 1923 05a0 08       		.byte	0x8
 1924 05a1 8A       		.byte	0x8a
 1925 05a2 A2000000 		.4byte	0xa2
 1926 05a6 80       		.byte	0x80
 1927 05a7 0A       		.uleb128 0xa
 1928 05a8 CA000000 		.4byte	.LASF106
 1929 05ac 08       		.byte	0x8
 1930 05ad 8D       		.byte	0x8d
 1931 05ae CE000000 		.4byte	0xce
 1932 05b2 84       		.byte	0x84
 1933 05b3 0A       		.uleb128 0xa
 1934 05b4 65120000 		.4byte	.LASF107
 1935 05b8 08       		.byte	0x8
 1936 05b9 8E       		.byte	0x8e
 1937 05ba CE000000 		.4byte	0xce
 1938 05be 88       		.byte	0x88
 1939 05bf 0A       		.uleb128 0xa
 1940 05c0 85130000 		.4byte	.LASF108
 1941 05c4 08       		.byte	0x8
 1942 05c5 8F       		.byte	0x8f
 1943 05c6 CE000000 		.4byte	0xce
 1944 05ca 8C       		.byte	0x8c
 1945 05cb 0A       		.uleb128 0xa
 1946 05cc 54210000 		.4byte	.LASF109
 1947 05d0 08       		.byte	0x8
 1948 05d1 90       		.byte	0x90
 1949 05d2 CE000000 		.4byte	0xce
 1950 05d6 90       		.byte	0x90
 1951 05d7 0A       		.uleb128 0xa
 1952 05d8 4B190000 		.4byte	.LASF110
 1953 05dc 08       		.byte	0x8
 1954 05dd 91       		.byte	0x91
 1955 05de CE000000 		.4byte	0xce
ARM GAS  C:\Users\Rolf\AppData\Local\Temp\ccUtnhQP.s 			page 93


 1956 05e2 94       		.byte	0x94
 1957 05e3 0A       		.uleb128 0xa
 1958 05e4 B3050000 		.4byte	.LASF111
 1959 05e8 08       		.byte	0x8
 1960 05e9 92       		.byte	0x92
 1961 05ea CE000000 		.4byte	0xce
 1962 05ee 98       		.byte	0x98
 1963 05ef 0A       		.uleb128 0xa
 1964 05f0 691A0000 		.4byte	.LASF112
 1965 05f4 08       		.byte	0x8
 1966 05f5 93       		.byte	0x93
 1967 05f6 CE000000 		.4byte	0xce
 1968 05fa 9C       		.byte	0x9c
 1969 05fb 0A       		.uleb128 0xa
 1970 05fc 6A0C0000 		.4byte	.LASF113
 1971 0600 08       		.byte	0x8
 1972 0601 94       		.byte	0x94
 1973 0602 CE000000 		.4byte	0xce
 1974 0606 A0       		.byte	0xa0
 1975 0607 0A       		.uleb128 0xa
 1976 0608 54020000 		.4byte	.LASF114
 1977 060c 08       		.byte	0x8
 1978 060d 95       		.byte	0x95
 1979 060e B8000000 		.4byte	0xb8
 1980 0612 A4       		.byte	0xa4
 1981 0613 0A       		.uleb128 0xa
 1982 0614 490F0000 		.4byte	.LASF115
 1983 0618 08       		.byte	0x8
 1984 0619 96       		.byte	0x96
 1985 061a B8000000 		.4byte	0xb8
 1986 061e A6       		.byte	0xa6
 1987 061f 0A       		.uleb128 0xa
 1988 0620 481B0000 		.4byte	.LASF116
 1989 0624 08       		.byte	0x8
 1990 0625 97       		.byte	0x97
 1991 0626 B8000000 		.4byte	0xb8
 1992 062a A8       		.byte	0xa8
 1993 062b 0A       		.uleb128 0xa
 1994 062c 90100000 		.4byte	.LASF117
 1995 0630 08       		.byte	0x8
 1996 0631 98       		.byte	0x98
 1997 0632 B8000000 		.4byte	0xb8
 1998 0636 AA       		.byte	0xaa
 1999 0637 0A       		.uleb128 0xa
 2000 0638 7C120000 		.4byte	.LASF118
 2001 063c 08       		.byte	0x8
 2002 063d 99       		.byte	0x99
 2003 063e B8000000 		.4byte	0xb8
 2004 0642 AC       		.byte	0xac
 2005 0643 0A       		.uleb128 0xa
 2006 0644 00140000 		.4byte	.LASF119
 2007 0648 08       		.byte	0x8
 2008 0649 9A       		.byte	0x9a
 2009 064a B8000000 		.4byte	0xb8
 2010 064e AE       		.byte	0xae
 2011 064f 0A       		.uleb128 0xa
 2012 0650 0E1B0000 		.4byte	.LASF120
ARM GAS  C:\Users\Rolf\AppData\Local\Temp\ccUtnhQP.s 			page 94


 2013 0654 08       		.byte	0x8
 2014 0655 9D       		.byte	0x9d
 2015 0656 B8000000 		.4byte	0xb8
 2016 065a B0       		.byte	0xb0
 2017 065b 0A       		.uleb128 0xa
 2018 065c 3A0C0000 		.4byte	.LASF121
 2019 0660 08       		.byte	0x8
 2020 0661 9E       		.byte	0x9e
 2021 0662 CE000000 		.4byte	0xce
 2022 0666 B4       		.byte	0xb4
 2023 0667 00       		.byte	0
 2024 0668 03       		.uleb128 0x3
 2025 0669 781B0000 		.4byte	.LASF122
 2026 066d 08       		.byte	0x8
 2027 066e 9F       		.byte	0x9f
 2028 066f 57020000 		.4byte	0x257
 2029 0673 0E       		.uleb128 0xe
 2030 0674 02       		.byte	0x2
 2031 0675 49000000 		.4byte	0x49
 2032 0679 09       		.byte	0x9
 2033 067a 24       		.byte	0x24
 2034 067b 6A070000 		.4byte	0x76a
 2035 067f 0F       		.uleb128 0xf
 2036 0680 291E0000 		.4byte	.LASF123
 2037 0684 71       		.sleb128 -15
 2038 0685 0F       		.uleb128 0xf
 2039 0686 87170000 		.4byte	.LASF124
 2040 068a 72       		.sleb128 -14
 2041 068b 0F       		.uleb128 0xf
 2042 068c BC1E0000 		.4byte	.LASF125
 2043 0690 73       		.sleb128 -13
 2044 0691 0F       		.uleb128 0xf
 2045 0692 02090000 		.4byte	.LASF126
 2046 0696 7B       		.sleb128 -5
 2047 0697 0F       		.uleb128 0xf
 2048 0698 4F050000 		.4byte	.LASF127
 2049 069c 7E       		.sleb128 -2
 2050 069d 0F       		.uleb128 0xf
 2051 069e BE1A0000 		.4byte	.LASF128
 2052 06a2 7F       		.sleb128 -1
 2053 06a3 10       		.uleb128 0x10
 2054 06a4 75050000 		.4byte	.LASF129
 2055 06a8 00       		.byte	0
 2056 06a9 10       		.uleb128 0x10
 2057 06aa B01D0000 		.4byte	.LASF130
 2058 06ae 01       		.byte	0x1
 2059 06af 10       		.uleb128 0x10
 2060 06b0 110B0000 		.4byte	.LASF131
 2061 06b4 02       		.byte	0x2
 2062 06b5 10       		.uleb128 0x10
 2063 06b6 23210000 		.4byte	.LASF132
 2064 06ba 03       		.byte	0x3
 2065 06bb 10       		.uleb128 0x10
 2066 06bc BD140000 		.4byte	.LASF133
 2067 06c0 04       		.byte	0x4
 2068 06c1 10       		.uleb128 0x10
 2069 06c2 EE040000 		.4byte	.LASF134
ARM GAS  C:\Users\Rolf\AppData\Local\Temp\ccUtnhQP.s 			page 95


 2070 06c6 05       		.byte	0x5
 2071 06c7 10       		.uleb128 0x10
 2072 06c8 D71A0000 		.4byte	.LASF135
 2073 06cc 06       		.byte	0x6
 2074 06cd 10       		.uleb128 0x10
 2075 06ce D6070000 		.4byte	.LASF136
 2076 06d2 07       		.byte	0x7
 2077 06d3 10       		.uleb128 0x10
 2078 06d4 64200000 		.4byte	.LASF137
 2079 06d8 08       		.byte	0x8
 2080 06d9 10       		.uleb128 0x10
 2081 06da 49140000 		.4byte	.LASF138
 2082 06de 09       		.byte	0x9
 2083 06df 10       		.uleb128 0x10
 2084 06e0 6C160000 		.4byte	.LASF139
 2085 06e4 0A       		.byte	0xa
 2086 06e5 10       		.uleb128 0x10
 2087 06e6 000A0000 		.4byte	.LASF140
 2088 06ea 0B       		.byte	0xb
 2089 06eb 10       		.uleb128 0x10
 2090 06ec 771C0000 		.4byte	.LASF141
 2091 06f0 0C       		.byte	0xc
 2092 06f1 10       		.uleb128 0x10
 2093 06f2 BE0F0000 		.4byte	.LASF142
 2094 06f6 0D       		.byte	0xd
 2095 06f7 10       		.uleb128 0x10
 2096 06f8 8D030000 		.4byte	.LASF143
 2097 06fc 0E       		.byte	0xe
 2098 06fd 10       		.uleb128 0x10
 2099 06fe C5150000 		.4byte	.LASF144
 2100 0702 0F       		.byte	0xf
 2101 0703 10       		.uleb128 0x10
 2102 0704 7E090000 		.4byte	.LASF145
 2103 0708 10       		.byte	0x10
 2104 0709 10       		.uleb128 0x10
 2105 070a 411F0000 		.4byte	.LASF146
 2106 070e 11       		.byte	0x11
 2107 070f 10       		.uleb128 0x10
 2108 0710 320F0000 		.4byte	.LASF147
 2109 0714 12       		.byte	0x12
 2110 0715 10       		.uleb128 0x10
 2111 0716 2E030000 		.4byte	.LASF148
 2112 071a 13       		.byte	0x13
 2113 071b 10       		.uleb128 0x10
 2114 071c E20E0000 		.4byte	.LASF149
 2115 0720 14       		.byte	0x14
 2116 0721 10       		.uleb128 0x10
 2117 0722 7B1D0000 		.4byte	.LASF150
 2118 0726 15       		.byte	0x15
 2119 0727 10       		.uleb128 0x10
 2120 0728 0C0D0000 		.4byte	.LASF151
 2121 072c 16       		.byte	0x16
 2122 072d 10       		.uleb128 0x10
 2123 072e DB1D0000 		.4byte	.LASF152
 2124 0732 17       		.byte	0x17
 2125 0733 10       		.uleb128 0x10
 2126 0734 15170000 		.4byte	.LASF153
ARM GAS  C:\Users\Rolf\AppData\Local\Temp\ccUtnhQP.s 			page 96


 2127 0738 18       		.byte	0x18
 2128 0739 10       		.uleb128 0x10
 2129 073a 23070000 		.4byte	.LASF154
 2130 073e 19       		.byte	0x19
 2131 073f 10       		.uleb128 0x10
 2132 0740 FE1C0000 		.4byte	.LASF155
 2133 0744 1A       		.byte	0x1a
 2134 0745 10       		.uleb128 0x10
 2135 0746 5A100000 		.4byte	.LASF156
 2136 074a 1B       		.byte	0x1b
 2137 074b 10       		.uleb128 0x10
 2138 074c 8B000000 		.4byte	.LASF157
 2139 0750 1C       		.byte	0x1c
 2140 0751 10       		.uleb128 0x10
 2141 0752 34160000 		.4byte	.LASF158
 2142 0756 1D       		.byte	0x1d
 2143 0757 10       		.uleb128 0x10
 2144 0758 11150000 		.4byte	.LASF159
 2145 075c 1E       		.byte	0x1e
 2146 075d 10       		.uleb128 0x10
 2147 075e E50A0000 		.4byte	.LASF160
 2148 0762 1F       		.byte	0x1f
 2149 0763 10       		.uleb128 0x10
 2150 0764 010E0000 		.4byte	.LASF161
 2151 0768 F0       		.byte	0xf0
 2152 0769 00       		.byte	0
 2153 076a 03       		.uleb128 0x3
 2154 076b 610A0000 		.4byte	.LASF162
 2155 076f 09       		.byte	0x9
 2156 0770 F4       		.byte	0xf4
 2157 0771 73060000 		.4byte	0x673
 2158 0775 0E       		.uleb128 0xe
 2159 0776 01       		.byte	0x1
 2160 0777 37000000 		.4byte	0x37
 2161 077b 09       		.byte	0x9
 2162 077c FD       		.byte	0xfd
 2163 077d FA0A0000 		.4byte	0xafa
 2164 0781 10       		.uleb128 0x10
 2165 0782 22200000 		.4byte	.LASF163
 2166 0786 00       		.byte	0
 2167 0787 10       		.uleb128 0x10
 2168 0788 0E140000 		.4byte	.LASF164
 2169 078c 01       		.byte	0x1
 2170 078d 10       		.uleb128 0x10
 2171 078e C9030000 		.4byte	.LASF165
 2172 0792 02       		.byte	0x2
 2173 0793 10       		.uleb128 0x10
 2174 0794 9C190000 		.4byte	.LASF166
 2175 0798 03       		.byte	0x3
 2176 0799 10       		.uleb128 0x10
 2177 079a D30C0000 		.4byte	.LASF167
 2178 079e 04       		.byte	0x4
 2179 079f 10       		.uleb128 0x10
 2180 07a0 821F0000 		.4byte	.LASF168
 2181 07a4 05       		.byte	0x5
 2182 07a5 10       		.uleb128 0x10
 2183 07a6 27130000 		.4byte	.LASF169
ARM GAS  C:\Users\Rolf\AppData\Local\Temp\ccUtnhQP.s 			page 97


 2184 07aa 06       		.byte	0x6
 2185 07ab 10       		.uleb128 0x10
 2186 07ac EA060000 		.4byte	.LASF170
 2187 07b0 07       		.byte	0x7
 2188 07b1 10       		.uleb128 0x10
 2189 07b2 2F190000 		.4byte	.LASF171
 2190 07b6 08       		.byte	0x8
 2191 07b7 10       		.uleb128 0x10
 2192 07b8 4E0C0000 		.4byte	.LASF172
 2193 07bc 09       		.byte	0x9
 2194 07bd 10       		.uleb128 0x10
 2195 07be EF0C0000 		.4byte	.LASF173
 2196 07c2 0A       		.byte	0xa
 2197 07c3 10       		.uleb128 0x10
 2198 07c4 AC090000 		.4byte	.LASF174
 2199 07c8 0B       		.byte	0xb
 2200 07c9 10       		.uleb128 0x10
 2201 07ca F8160000 		.4byte	.LASF175
 2202 07ce 0C       		.byte	0xc
 2203 07cf 10       		.uleb128 0x10
 2204 07d0 06070000 		.4byte	.LASF176
 2205 07d4 0D       		.byte	0xd
 2206 07d5 10       		.uleb128 0x10
 2207 07d6 7A180000 		.4byte	.LASF177
 2208 07da 0E       		.byte	0xe
 2209 07db 10       		.uleb128 0x10
 2210 07dc 40000000 		.4byte	.LASF178
 2211 07e0 0F       		.byte	0xf
 2212 07e1 10       		.uleb128 0x10
 2213 07e2 EA1D0000 		.4byte	.LASF179
 2214 07e6 10       		.byte	0x10
 2215 07e7 10       		.uleb128 0x10
 2216 07e8 28100000 		.4byte	.LASF180
 2217 07ec 11       		.byte	0x11
 2218 07ed 10       		.uleb128 0x10
 2219 07ee 11060000 		.4byte	.LASF181
 2220 07f2 12       		.byte	0x12
 2221 07f3 10       		.uleb128 0x10
 2222 07f4 CD0F0000 		.4byte	.LASF182
 2223 07f8 13       		.byte	0x13
 2224 07f9 10       		.uleb128 0x10
 2225 07fa A7030000 		.4byte	.LASF183
 2226 07fe 14       		.byte	0x14
 2227 07ff 10       		.uleb128 0x10
 2228 0800 FB1B0000 		.4byte	.LASF184
 2229 0804 15       		.byte	0x15
 2230 0805 10       		.uleb128 0x10
 2231 0806 380D0000 		.4byte	.LASF185
 2232 080a 16       		.byte	0x16
 2233 080b 10       		.uleb128 0x10
 2234 080c 53030000 		.4byte	.LASF186
 2235 0810 17       		.byte	0x17
 2236 0811 10       		.uleb128 0x10
 2237 0812 24170000 		.4byte	.LASF187
 2238 0816 18       		.byte	0x18
 2239 0817 10       		.uleb128 0x10
 2240 0818 DB140000 		.4byte	.LASF188
ARM GAS  C:\Users\Rolf\AppData\Local\Temp\ccUtnhQP.s 			page 98


 2241 081c 19       		.byte	0x19
 2242 081d 10       		.uleb128 0x10
 2243 081e 07010000 		.4byte	.LASF189
 2244 0822 1A       		.byte	0x1a
 2245 0823 10       		.uleb128 0x10
 2246 0824 9F0A0000 		.4byte	.LASF190
 2247 0828 1B       		.byte	0x1b
 2248 0829 10       		.uleb128 0x10
 2249 082a A0210000 		.4byte	.LASF191
 2250 082e 1C       		.byte	0x1c
 2251 082f 10       		.uleb128 0x10
 2252 0830 E21C0000 		.4byte	.LASF192
 2253 0834 1D       		.byte	0x1d
 2254 0835 10       		.uleb128 0x10
 2255 0836 3E100000 		.4byte	.LASF193
 2256 083a 1E       		.byte	0x1e
 2257 083b 10       		.uleb128 0x10
 2258 083c 97180000 		.4byte	.LASF194
 2259 0840 1F       		.byte	0x1f
 2260 0841 10       		.uleb128 0x10
 2261 0842 CE100000 		.4byte	.LASF195
 2262 0846 20       		.byte	0x20
 2263 0847 10       		.uleb128 0x10
 2264 0848 DF050000 		.4byte	.LASF196
 2265 084c 21       		.byte	0x21
 2266 084d 10       		.uleb128 0x10
 2267 084e 9E1F0000 		.4byte	.LASF197
 2268 0852 22       		.byte	0x22
 2269 0853 10       		.uleb128 0x10
 2270 0854 8F0E0000 		.4byte	.LASF198
 2271 0858 23       		.byte	0x23
 2272 0859 10       		.uleb128 0x10
 2273 085a AB020000 		.4byte	.LASF199
 2274 085e 24       		.byte	0x24
 2275 085f 10       		.uleb128 0x10
 2276 0860 5D180000 		.4byte	.LASF200
 2277 0864 25       		.byte	0x25
 2278 0865 10       		.uleb128 0x10
 2279 0866 7B080000 		.4byte	.LASF201
 2280 086a 26       		.byte	0x26
 2281 086b 10       		.uleb128 0x10
 2282 086c 0C1E0000 		.4byte	.LASF202
 2283 0870 27       		.byte	0x27
 2284 0871 10       		.uleb128 0x10
 2285 0872 00120000 		.4byte	.LASF203
 2286 0876 28       		.byte	0x28
 2287 0877 10       		.uleb128 0x10
 2288 0878 CD1C0000 		.4byte	.LASF204
 2289 087c 29       		.byte	0x29
 2290 087d 10       		.uleb128 0x10
 2291 087e F7120000 		.4byte	.LASF205
 2292 0882 2A       		.byte	0x2a
 2293 0883 10       		.uleb128 0x10
 2294 0884 6C190000 		.4byte	.LASF206
 2295 0888 2B       		.byte	0x2b
 2296 0889 10       		.uleb128 0x10
 2297 088a FE0F0000 		.4byte	.LASF207
ARM GAS  C:\Users\Rolf\AppData\Local\Temp\ccUtnhQP.s 			page 99


 2298 088e 2C       		.byte	0x2c
 2299 088f 10       		.uleb128 0x10
 2300 0890 91070000 		.4byte	.LASF208
 2301 0894 2D       		.byte	0x2d
 2302 0895 10       		.uleb128 0x10
 2303 0896 E0110000 		.4byte	.LASF209
 2304 089a 2E       		.byte	0x2e
 2305 089b 10       		.uleb128 0x10
 2306 089c DF170000 		.4byte	.LASF210
 2307 08a0 2F       		.byte	0x2f
 2308 08a1 10       		.uleb128 0x10
 2309 08a2 CC210000 		.4byte	.LASF211
 2310 08a6 30       		.byte	0x30
 2311 08a7 10       		.uleb128 0x10
 2312 08a8 6B090000 		.4byte	.LASF212
 2313 08ac 31       		.byte	0x31
 2314 08ad 10       		.uleb128 0x10
 2315 08ae 4D1A0000 		.4byte	.LASF213
 2316 08b2 32       		.byte	0x32
 2317 08b3 10       		.uleb128 0x10
 2318 08b4 9D0D0000 		.4byte	.LASF214
 2319 08b8 33       		.byte	0x33
 2320 08b9 10       		.uleb128 0x10
 2321 08ba 14000000 		.4byte	.LASF215
 2322 08be 34       		.byte	0x34
 2323 08bf 10       		.uleb128 0x10
 2324 08c0 E4130000 		.4byte	.LASF216
 2325 08c4 35       		.byte	0x35
 2326 08c5 10       		.uleb128 0x10
 2327 08c6 541B0000 		.4byte	.LASF217
 2328 08ca 36       		.byte	0x36
 2329 08cb 10       		.uleb128 0x10
 2330 08cc 5A1D0000 		.4byte	.LASF218
 2331 08d0 37       		.byte	0x37
 2332 08d1 10       		.uleb128 0x10
 2333 08d2 A00C0000 		.4byte	.LASF219
 2334 08d6 38       		.byte	0x38
 2335 08d7 10       		.uleb128 0x10
 2336 08d8 E1000000 		.4byte	.LASF220
 2337 08dc 39       		.byte	0x39
 2338 08dd 10       		.uleb128 0x10
 2339 08de A01E0000 		.4byte	.LASF221
 2340 08e2 3A       		.byte	0x3a
 2341 08e3 10       		.uleb128 0x10
 2342 08e4 C8130000 		.4byte	.LASF222
 2343 08e8 3B       		.byte	0x3b
 2344 08e9 10       		.uleb128 0x10
 2345 08ea 1D0C0000 		.4byte	.LASF223
 2346 08ee 3C       		.byte	0x3c
 2347 08ef 10       		.uleb128 0x10
 2348 08f0 47200000 		.4byte	.LASF224
 2349 08f4 3D       		.byte	0x3d
 2350 08f5 10       		.uleb128 0x10
 2351 08f6 74060000 		.4byte	.LASF225
 2352 08fa 3E       		.byte	0x3e
 2353 08fb 10       		.uleb128 0x10
 2354 08fc 1C090000 		.4byte	.LASF226
ARM GAS  C:\Users\Rolf\AppData\Local\Temp\ccUtnhQP.s 			page 100


 2355 0900 3F       		.byte	0x3f
 2356 0901 10       		.uleb128 0x10
 2357 0902 B8190000 		.4byte	.LASF227
 2358 0906 40       		.byte	0x40
 2359 0907 10       		.uleb128 0x10
 2360 0908 1B0D0000 		.4byte	.LASF228
 2361 090c 41       		.byte	0x41
 2362 090d 10       		.uleb128 0x10
 2363 090e FC040000 		.4byte	.LASF229
 2364 0912 42       		.byte	0x42
 2365 0913 10       		.uleb128 0x10
 2366 0914 F21A0000 		.4byte	.LASF230
 2367 0918 43       		.byte	0x43
 2368 0919 10       		.uleb128 0x10
 2369 091a 290E0000 		.4byte	.LASF231
 2370 091e 44       		.byte	0x44
 2371 091f 10       		.uleb128 0x10
 2372 0920 99200000 		.4byte	.LASF232
 2373 0924 45       		.byte	0x45
 2374 0925 10       		.uleb128 0x10
 2375 0926 57140000 		.4byte	.LASF233
 2376 092a 46       		.byte	0x46
 2377 092b 10       		.uleb128 0x10
 2378 092c BA070000 		.4byte	.LASF234
 2379 0930 47       		.byte	0x47
 2380 0931 10       		.uleb128 0x10
 2381 0932 0A1A0000 		.4byte	.LASF235
 2382 0936 48       		.byte	0x48
 2383 0937 10       		.uleb128 0x10
 2384 0938 5D0D0000 		.4byte	.LASF236
 2385 093c 49       		.byte	0x49
 2386 093d 10       		.uleb128 0x10
 2387 093e B8010000 		.4byte	.LASF237
 2388 0942 4A       		.byte	0x4a
 2389 0943 10       		.uleb128 0x10
 2390 0944 AC130000 		.4byte	.LASF238
 2391 0948 4B       		.byte	0x4b
 2392 0949 10       		.uleb128 0x10
 2393 094a 73140000 		.4byte	.LASF239
 2394 094e 4C       		.byte	0x4c
 2395 094f 10       		.uleb128 0x10
 2396 0950 F7070000 		.4byte	.LASF240
 2397 0954 4D       		.byte	0x4d
 2398 0955 10       		.uleb128 0x10
 2399 0956 BE1D0000 		.4byte	.LASF241
 2400 095a 4E       		.byte	0x4e
 2401 095b 10       		.uleb128 0x10
 2402 095c 790D0000 		.4byte	.LASF242
 2403 0960 4F       		.byte	0x4f
 2404 0961 10       		.uleb128 0x10
 2405 0962 D4010000 		.4byte	.LASF243
 2406 0966 50       		.byte	0x50
 2407 0967 10       		.uleb128 0x10
 2408 0968 51170000 		.4byte	.LASF244
 2409 096c 51       		.byte	0x51
 2410 096d 10       		.uleb128 0x10
 2411 096e 0F0A0000 		.4byte	.LASF245
ARM GAS  C:\Users\Rolf\AppData\Local\Temp\ccUtnhQP.s 			page 101


 2412 0972 52       		.byte	0x52
 2413 0973 10       		.uleb128 0x10
 2414 0974 D21F0000 		.4byte	.LASF246
 2415 0978 53       		.byte	0x53
 2416 0979 10       		.uleb128 0x10
 2417 097a D00D0000 		.4byte	.LASF247
 2418 097e 54       		.byte	0x54
 2419 097f 10       		.uleb128 0x10
 2420 0980 5E1E0000 		.4byte	.LASF248
 2421 0984 55       		.byte	0x55
 2422 0985 10       		.uleb128 0x10
 2423 0986 2D0A0000 		.4byte	.LASF249
 2424 098a 56       		.byte	0x56
 2425 098b 10       		.uleb128 0x10
 2426 098c 4B070000 		.4byte	.LASF250
 2427 0990 57       		.byte	0x57
 2428 0991 10       		.uleb128 0x10
 2429 0992 E1210000 		.4byte	.LASF251
 2430 0996 58       		.byte	0x58
 2431 0997 10       		.uleb128 0x10
 2432 0998 75150000 		.4byte	.LASF252
 2433 099c 59       		.byte	0x59
 2434 099d 10       		.uleb128 0x10
 2435 099e 7B210000 		.4byte	.LASF253
 2436 09a2 5A       		.byte	0x5a
 2437 09a3 10       		.uleb128 0x10
 2438 09a4 34110000 		.4byte	.LASF254
 2439 09a8 5B       		.byte	0x5b
 2440 09a9 10       		.uleb128 0x10
 2441 09aa 35050000 		.4byte	.LASF255
 2442 09ae 5C       		.byte	0x5c
 2443 09af 10       		.uleb128 0x10
 2444 09b0 2E1B0000 		.4byte	.LASF256
 2445 09b4 5D       		.byte	0x5d
 2446 09b5 10       		.uleb128 0x10
 2447 09b6 301D0000 		.4byte	.LASF257
 2448 09ba 5E       		.byte	0x5e
 2449 09bb 10       		.uleb128 0x10
 2450 09bc D0200000 		.4byte	.LASF258
 2451 09c0 5F       		.byte	0x5f
 2452 09c1 10       		.uleb128 0x10
 2453 09c2 90140000 		.4byte	.LASF259
 2454 09c6 60       		.byte	0x60
 2455 09c7 10       		.uleb128 0x10
 2456 09c8 83040000 		.4byte	.LASF260
 2457 09cc 61       		.byte	0x61
 2458 09cd 10       		.uleb128 0x10
 2459 09ce 391C0000 		.4byte	.LASF261
 2460 09d2 62       		.byte	0x62
 2461 09d3 10       		.uleb128 0x10
 2462 09d4 A90B0000 		.4byte	.LASF262
 2463 09d8 63       		.byte	0x63
 2464 09d9 10       		.uleb128 0x10
 2465 09da 01220000 		.4byte	.LASF263
 2466 09de 64       		.byte	0x64
 2467 09df 10       		.uleb128 0x10
 2468 09e0 95150000 		.4byte	.LASF264
ARM GAS  C:\Users\Rolf\AppData\Local\Temp\ccUtnhQP.s 			page 102


 2469 09e4 65       		.byte	0x65
 2470 09e5 10       		.uleb128 0x10
 2471 09e6 39090000 		.4byte	.LASF265
 2472 09ea 66       		.byte	0x66
 2473 09eb 10       		.uleb128 0x10
 2474 09ec 300B0000 		.4byte	.LASF266
 2475 09f0 67       		.byte	0x67
 2476 09f1 10       		.uleb128 0x10
 2477 09f2 F10E0000 		.4byte	.LASF267
 2478 09f6 68       		.byte	0x68
 2479 09f7 10       		.uleb128 0x10
 2480 09f8 01030000 		.4byte	.LASF268
 2481 09fc 69       		.byte	0x69
 2482 09fd 10       		.uleb128 0x10
 2483 09fe F7140000 		.4byte	.LASF269
 2484 0a02 6A       		.byte	0x6a
 2485 0a03 10       		.uleb128 0x10
 2486 0a04 B7080000 		.4byte	.LASF270
 2487 0a08 6B       		.byte	0x6b
 2488 0a09 10       		.uleb128 0x10
 2489 0a0a B5200000 		.4byte	.LASF271
 2490 0a0e 6C       		.byte	0x6c
 2491 0a0f 10       		.uleb128 0x10
 2492 0a10 0C130000 		.4byte	.LASF272
 2493 0a14 6D       		.byte	0x6d
 2494 0a15 10       		.uleb128 0x10
 2495 0a16 CF060000 		.4byte	.LASF273
 2496 0a1a 6E       		.byte	0x6e
 2497 0a1b 10       		.uleb128 0x10
 2498 0a1c B21C0000 		.4byte	.LASF274
 2499 0a20 6F       		.byte	0x6f
 2500 0a21 10       		.uleb128 0x10
 2501 0a22 9D010000 		.4byte	.LASF275
 2502 0a26 70       		.byte	0x70
 2503 0a27 10       		.uleb128 0x10
 2504 0a28 70000000 		.4byte	.LASF276
 2505 0a2c 71       		.byte	0x71
 2506 0a2d 10       		.uleb128 0x10
 2507 0a2e 02160000 		.4byte	.LASF277
 2508 0a32 72       		.byte	0x72
 2509 0a33 10       		.uleb128 0x10
 2510 0a34 43060000 		.4byte	.LASF278
 2511 0a38 73       		.byte	0x73
 2512 0a39 10       		.uleb128 0x10
 2513 0a3a 161C0000 		.4byte	.LASF279
 2514 0a3e 74       		.byte	0x74
 2515 0a3f 10       		.uleb128 0x10
 2516 0a40 7C0F0000 		.4byte	.LASF280
 2517 0a44 75       		.byte	0x75
 2518 0a45 10       		.uleb128 0x10
 2519 0a46 9B170000 		.4byte	.LASF281
 2520 0a4a 76       		.byte	0x76
 2521 0a4b 10       		.uleb128 0x10
 2522 0a4c 020C0000 		.4byte	.LASF282
 2523 0a50 77       		.byte	0x77
 2524 0a51 10       		.uleb128 0x10
 2525 0a52 261A0000 		.4byte	.LASF283
ARM GAS  C:\Users\Rolf\AppData\Local\Temp\ccUtnhQP.s 			page 103


 2526 0a56 78       		.byte	0x78
 2527 0a57 10       		.uleb128 0x10
 2528 0a58 7F1A0000 		.4byte	.LASF284
 2529 0a5c 79       		.byte	0x79
 2530 0a5d 10       		.uleb128 0x10
 2531 0a5e EF1E0000 		.4byte	.LASF285
 2532 0a62 7A       		.byte	0x7a
 2533 0a63 10       		.uleb128 0x10
 2534 0a64 B1120000 		.4byte	.LASF286
 2535 0a68 7B       		.byte	0x7b
 2536 0a69 10       		.uleb128 0x10
 2537 0a6a 5E060000 		.4byte	.LASF287
 2538 0a6e 7C       		.byte	0x7c
 2539 0a6f 10       		.uleb128 0x10
 2540 0a70 531C0000 		.4byte	.LASF288
 2541 0a74 7D       		.byte	0x7d
 2542 0a75 10       		.uleb128 0x10
 2543 0a76 C30B0000 		.4byte	.LASF289
 2544 0a7a 7E       		.byte	0x7e
 2545 0a7b 10       		.uleb128 0x10
 2546 0a7c 0D210000 		.4byte	.LASF290
 2547 0a80 7F       		.byte	0x7f
 2548 0a81 10       		.uleb128 0x10
 2549 0a82 AF150000 		.4byte	.LASF291
 2550 0a86 80       		.byte	0x80
 2551 0a87 10       		.uleb128 0x10
 2552 0a88 C9050000 		.4byte	.LASF292
 2553 0a8c 81       		.byte	0x81
 2554 0a8d 10       		.uleb128 0x10
 2555 0a8e 991B0000 		.4byte	.LASF293
 2556 0a92 82       		.byte	0x82
 2557 0a93 10       		.uleb128 0x10
 2558 0a94 0B0F0000 		.4byte	.LASF294
 2559 0a98 83       		.byte	0x83
 2560 0a99 10       		.uleb128 0x10
 2561 0a9a AE000000 		.4byte	.LASF295
 2562 0a9e 84       		.byte	0x84
 2563 0a9f 10       		.uleb128 0x10
 2564 0aa0 880A0000 		.4byte	.LASF296
 2565 0aa4 85       		.byte	0x85
 2566 0aa5 10       		.uleb128 0x10
 2567 0aa6 A71A0000 		.4byte	.LASF297
 2568 0aaa 86       		.byte	0x86
 2569 0aab 10       		.uleb128 0x10
 2570 0aac 120E0000 		.4byte	.LASF298
 2571 0ab0 87       		.byte	0x87
 2572 0ab1 10       		.uleb128 0x10
 2573 0ab2 5F040000 		.4byte	.LASF299
 2574 0ab6 88       		.byte	0x88
 2575 0ab7 10       		.uleb128 0x10
 2576 0ab8 1D160000 		.4byte	.LASF300
 2577 0abc 89       		.byte	0x89
 2578 0abd 10       		.uleb128 0x10
 2579 0abe D71E0000 		.4byte	.LASF301
 2580 0ac2 8A       		.byte	0x8a
 2581 0ac3 10       		.uleb128 0x10
 2582 0ac4 1E040000 		.4byte	.LASF302
ARM GAS  C:\Users\Rolf\AppData\Local\Temp\ccUtnhQP.s 			page 104


 2583 0ac8 8B       		.byte	0x8b
 2584 0ac9 10       		.uleb128 0x10
 2585 0aca E70B0000 		.4byte	.LASF303
 2586 0ace 8C       		.byte	0x8c
 2587 0acf 10       		.uleb128 0x10
 2588 0ad0 8D090000 		.4byte	.LASF304
 2589 0ad4 8D       		.byte	0x8d
 2590 0ad5 10       		.uleb128 0x10
 2591 0ad6 09180000 		.4byte	.LASF305
 2592 0ada 8E       		.byte	0x8e
 2593 0adb 10       		.uleb128 0x10
 2594 0adc E1120000 		.4byte	.LASF306
 2595 0ae0 8F       		.byte	0x8f
 2596 0ae1 10       		.uleb128 0x10
 2597 0ae2 14080000 		.4byte	.LASF307
 2598 0ae6 90       		.byte	0x90
 2599 0ae7 10       		.uleb128 0x10
 2600 0ae8 790E0000 		.4byte	.LASF308
 2601 0aec 91       		.byte	0x91
 2602 0aed 10       		.uleb128 0x10
 2603 0aee 900B0000 		.4byte	.LASF309
 2604 0af2 92       		.byte	0x92
 2605 0af3 10       		.uleb128 0x10
 2606 0af4 2F1F0000 		.4byte	.LASF310
 2607 0af8 F0       		.byte	0xf0
 2608 0af9 00       		.byte	0
 2609 0afa 11       		.uleb128 0x11
 2610 0afb 11040000 		.4byte	.LASF311
 2611 0aff 09       		.byte	0x9
 2612 0b00 9201     		.2byte	0x192
 2613 0b02 75070000 		.4byte	0x775
 2614 0b06 12       		.uleb128 0x12
 2615 0b07 2003     		.2byte	0x320
 2616 0b09 03       		.byte	0x3
 2617 0b0a 4801     		.2byte	0x148
 2618 0b0c 980B0000 		.4byte	0xb98
 2619 0b10 13       		.uleb128 0x13
 2620 0b11 46070000 		.4byte	.LASF312
 2621 0b15 03       		.byte	0x3
 2622 0b16 4A01     		.2byte	0x14a
 2623 0b18 A80B0000 		.4byte	0xba8
 2624 0b1c 00       		.byte	0
 2625 0b1d 13       		.uleb128 0x13
 2626 0b1e B7160000 		.4byte	.LASF313
 2627 0b22 03       		.byte	0x3
 2628 0b23 4B01     		.2byte	0x14b
 2629 0b25 AD0B0000 		.4byte	0xbad
 2630 0b29 04       		.byte	0x4
 2631 0b2a 13       		.uleb128 0x13
 2632 0b2b AB1D0000 		.4byte	.LASF314
 2633 0b2f 03       		.byte	0x3
 2634 0b30 4C01     		.2byte	0x14c
 2635 0b32 BD0B0000 		.4byte	0xbbd
 2636 0b36 80       		.byte	0x80
 2637 0b37 13       		.uleb128 0x13
 2638 0b38 A6070000 		.4byte	.LASF315
 2639 0b3c 03       		.byte	0x3
ARM GAS  C:\Users\Rolf\AppData\Local\Temp\ccUtnhQP.s 			page 105


 2640 0b3d 4D01     		.2byte	0x14d
 2641 0b3f AD0B0000 		.4byte	0xbad
 2642 0b43 84       		.byte	0x84
 2643 0b44 14       		.uleb128 0x14
 2644 0b45 761D0000 		.4byte	.LASF316
 2645 0b49 03       		.byte	0x3
 2646 0b4a 4E01     		.2byte	0x14e
 2647 0b4c C20B0000 		.4byte	0xbc2
 2648 0b50 0001     		.2byte	0x100
 2649 0b52 14       		.uleb128 0x14
 2650 0b53 DA160000 		.4byte	.LASF317
 2651 0b57 03       		.byte	0x3
 2652 0b58 4F01     		.2byte	0x14f
 2653 0b5a AD0B0000 		.4byte	0xbad
 2654 0b5e 0401     		.2byte	0x104
 2655 0b60 14       		.uleb128 0x14
 2656 0b61 02010000 		.4byte	.LASF318
 2657 0b65 03       		.byte	0x3
 2658 0b66 5001     		.2byte	0x150
 2659 0b68 C70B0000 		.4byte	0xbc7
 2660 0b6c 8001     		.2byte	0x180
 2661 0b6e 14       		.uleb128 0x14
 2662 0b6f E4160000 		.4byte	.LASF319
 2663 0b73 03       		.byte	0x3
 2664 0b74 5101     		.2byte	0x151
 2665 0b76 AD0B0000 		.4byte	0xbad
 2666 0b7a 8401     		.2byte	0x184
 2667 0b7c 14       		.uleb128 0x14
 2668 0b7d EE160000 		.4byte	.LASF320
 2669 0b81 03       		.byte	0x3
 2670 0b82 5201     		.2byte	0x152
 2671 0b84 CC0B0000 		.4byte	0xbcc
 2672 0b88 0002     		.2byte	0x200
 2673 0b8a 15       		.uleb128 0x15
 2674 0b8b 495000   		.ascii	"IP\000"
 2675 0b8e 03       		.byte	0x3
 2676 0b8f 5301     		.2byte	0x153
 2677 0b91 DC0B0000 		.4byte	0xbdc
 2678 0b95 0003     		.2byte	0x300
 2679 0b97 00       		.byte	0
 2680 0b98 07       		.uleb128 0x7
 2681 0b99 E0000000 		.4byte	0xe0
 2682 0b9d A80B0000 		.4byte	0xba8
 2683 0ba1 08       		.uleb128 0x8
 2684 0ba2 FA000000 		.4byte	0xfa
 2685 0ba6 00       		.byte	0
 2686 0ba7 00       		.byte	0
 2687 0ba8 05       		.uleb128 0x5
 2688 0ba9 980B0000 		.4byte	0xb98
 2689 0bad 07       		.uleb128 0x7
 2690 0bae CE000000 		.4byte	0xce
 2691 0bb2 BD0B0000 		.4byte	0xbbd
 2692 0bb6 08       		.uleb128 0x8
 2693 0bb7 FA000000 		.4byte	0xfa
 2694 0bbb 1E       		.byte	0x1e
 2695 0bbc 00       		.byte	0
 2696 0bbd 05       		.uleb128 0x5
ARM GAS  C:\Users\Rolf\AppData\Local\Temp\ccUtnhQP.s 			page 106


 2697 0bbe 980B0000 		.4byte	0xb98
 2698 0bc2 05       		.uleb128 0x5
 2699 0bc3 980B0000 		.4byte	0xb98
 2700 0bc7 05       		.uleb128 0x5
 2701 0bc8 980B0000 		.4byte	0xb98
 2702 0bcc 07       		.uleb128 0x7
 2703 0bcd CE000000 		.4byte	0xce
 2704 0bd1 DC0B0000 		.4byte	0xbdc
 2705 0bd5 08       		.uleb128 0x8
 2706 0bd6 FA000000 		.4byte	0xfa
 2707 0bda 3F       		.byte	0x3f
 2708 0bdb 00       		.byte	0
 2709 0bdc 05       		.uleb128 0x5
 2710 0bdd 11010000 		.4byte	0x111
 2711 0be1 11       		.uleb128 0x11
 2712 0be2 81190000 		.4byte	.LASF321
 2713 0be6 03       		.byte	0x3
 2714 0be7 5401     		.2byte	0x154
 2715 0be9 060B0000 		.4byte	0xb06
 2716 0bed 11       		.uleb128 0x11
 2717 0bee CB140000 		.4byte	.LASF322
 2718 0bf2 0A       		.byte	0xa
 2719 0bf3 1D06     		.2byte	0x61d
 2720 0bf5 7C010000 		.4byte	0x17c
 2721 0bf9 11       		.uleb128 0x11
 2722 0bfa D5020000 		.4byte	.LASF323
 2723 0bfe 0A       		.byte	0xa
 2724 0bff 1E06     		.2byte	0x61e
 2725 0c01 D6010000 		.4byte	0x1d6
 2726 0c05 11       		.uleb128 0x11
 2727 0c06 4B210000 		.4byte	.LASF324
 2728 0c0a 0A       		.byte	0xa
 2729 0c0b 1F06     		.2byte	0x61f
 2730 0c0d 4C020000 		.4byte	0x24c
 2731 0c11 11       		.uleb128 0x11
 2732 0c12 911C0000 		.4byte	.LASF325
 2733 0c16 0B       		.byte	0xb
 2734 0c17 EE01     		.2byte	0x1ee
 2735 0c19 1D0C0000 		.4byte	0xc1d
 2736 0c1d 16       		.uleb128 0x16
 2737 0c1e 04       		.byte	0x4
 2738 0c1f 230C0000 		.4byte	0xc23
 2739 0c23 17       		.uleb128 0x17
 2740 0c24 11       		.uleb128 0x11
 2741 0c25 3B180000 		.4byte	.LASF326
 2742 0c29 0B       		.byte	0xb
 2743 0c2a F601     		.2byte	0x1f6
 2744 0c2c 300C0000 		.4byte	0xc30
 2745 0c30 02       		.uleb128 0x2
 2746 0c31 01       		.byte	0x1
 2747 0c32 08       		.byte	0x8
 2748 0c33 FD000000 		.4byte	.LASF327
 2749 0c37 02       		.uleb128 0x2
 2750 0c38 04       		.byte	0x4
 2751 0c39 04       		.byte	0x4
 2752 0c3a 6B070000 		.4byte	.LASF328
 2753 0c3e 02       		.uleb128 0x2
ARM GAS  C:\Users\Rolf\AppData\Local\Temp\ccUtnhQP.s 			page 107


 2754 0c3f 08       		.byte	0x8
 2755 0c40 04       		.byte	0x4
 2756 0c41 FE1F0000 		.4byte	.LASF329
 2757 0c45 18       		.uleb128 0x18
 2758 0c46 04       		.byte	0x4
 2759 0c47 9B000000 		.4byte	0x9b
 2760 0c4b 02       		.byte	0x2
 2761 0c4c 7201     		.2byte	0x172
 2762 0c4e 620C0000 		.4byte	0xc62
 2763 0c52 10       		.uleb128 0x10
 2764 0c53 1B030000 		.4byte	.LASF330
 2765 0c57 00       		.byte	0
 2766 0c58 19       		.uleb128 0x19
 2767 0c59 881B0000 		.4byte	.LASF331
 2768 0c5d 01008A00 		.4byte	0x8a0001
 2769 0c61 00       		.byte	0
 2770 0c62 11       		.uleb128 0x11
 2771 0c63 B9060000 		.4byte	.LASF332
 2772 0c67 02       		.byte	0x2
 2773 0c68 7901     		.2byte	0x179
 2774 0c6a 450C0000 		.4byte	0xc45
 2775 0c6e 1A       		.uleb128 0x1a
 2776 0c6f 08       		.byte	0x8
 2777 0c70 0C       		.byte	0xc
 2778 0c71 2D01     		.2byte	0x12d
 2779 0c73 9F0C0000 		.4byte	0xc9f
 2780 0c77 13       		.uleb128 0x13
 2781 0c78 970F0000 		.4byte	.LASF333
 2782 0c7c 0C       		.byte	0xc
 2783 0c7d 2E01     		.2byte	0x12e
 2784 0c7f 6A070000 		.4byte	0x76a
 2785 0c83 00       		.byte	0
 2786 0c84 13       		.uleb128 0x13
 2787 0c85 85030000 		.4byte	.LASF334
 2788 0c89 0C       		.byte	0xc
 2789 0c8a 3001     		.2byte	0x130
 2790 0c8c FA0A0000 		.4byte	0xafa
 2791 0c90 02       		.byte	0x2
 2792 0c91 13       		.uleb128 0x13
 2793 0c92 9A1A0000 		.4byte	.LASF335
 2794 0c96 0C       		.byte	0xc
 2795 0c97 3201     		.2byte	0x132
 2796 0c99 CE000000 		.4byte	0xce
 2797 0c9d 04       		.byte	0x4
 2798 0c9e 00       		.byte	0
 2799 0c9f 11       		.uleb128 0x11
 2800 0ca0 30000000 		.4byte	.LASF336
 2801 0ca4 0C       		.byte	0xc
 2802 0ca5 3301     		.2byte	0x133
 2803 0ca7 6E0C0000 		.4byte	0xc6e
 2804 0cab 03       		.uleb128 0x3
 2805 0cac 42180000 		.4byte	.LASF337
 2806 0cb0 0D       		.byte	0xd
 2807 0cb1 43       		.byte	0x43
 2808 0cb2 B60C0000 		.4byte	0xcb6
 2809 0cb6 16       		.uleb128 0x16
 2810 0cb7 04       		.byte	0x4
ARM GAS  C:\Users\Rolf\AppData\Local\Temp\ccUtnhQP.s 			page 108


 2811 0cb8 BC0C0000 		.4byte	0xcbc
 2812 0cbc 1B       		.uleb128 0x1b
 2813 0cbd C70C0000 		.4byte	0xcc7
 2814 0cc1 1C       		.uleb128 0x1c
 2815 0cc2 C70C0000 		.4byte	0xcc7
 2816 0cc6 00       		.byte	0
 2817 0cc7 16       		.uleb128 0x16
 2818 0cc8 04       		.byte	0x4
 2819 0cc9 CE000000 		.4byte	0xce
 2820 0ccd 03       		.uleb128 0x3
 2821 0cce EC190000 		.4byte	.LASF338
 2822 0cd2 0D       		.byte	0xd
 2823 0cd3 46       		.byte	0x46
 2824 0cd4 1D0C0000 		.4byte	0xc1d
 2825 0cd8 03       		.uleb128 0x3
 2826 0cd9 8A1D0000 		.4byte	.LASF339
 2827 0cdd 0D       		.byte	0xd
 2828 0cde 49       		.byte	0x49
 2829 0cdf E30C0000 		.4byte	0xce3
 2830 0ce3 16       		.uleb128 0x16
 2831 0ce4 04       		.byte	0x4
 2832 0ce5 AB0C0000 		.4byte	0xcab
 2833 0ce9 09       		.uleb128 0x9
 2834 0cea 2C       		.byte	0x2c
 2835 0ceb 0D       		.byte	0xd
 2836 0cec 7D       		.byte	0x7d
 2837 0ced 760D0000 		.4byte	0xd76
 2838 0cf1 0A       		.uleb128 0xa
 2839 0cf2 39170000 		.4byte	.LASF340
 2840 0cf6 0D       		.byte	0xd
 2841 0cf7 7F       		.byte	0x7f
 2842 0cf8 CE000000 		.4byte	0xce
 2843 0cfc 00       		.byte	0
 2844 0cfd 0A       		.uleb128 0xa
 2845 0cfe F21B0000 		.4byte	.LASF341
 2846 0d02 0D       		.byte	0xd
 2847 0d03 80       		.byte	0x80
 2848 0d04 CE000000 		.4byte	0xce
 2849 0d08 04       		.byte	0x4
 2850 0d09 0A       		.uleb128 0xa
 2851 0d0a 99120000 		.4byte	.LASF342
 2852 0d0e 0D       		.byte	0xd
 2853 0d0f 81       		.byte	0x81
 2854 0d10 CE000000 		.4byte	0xce
 2855 0d14 08       		.byte	0x8
 2856 0d15 0A       		.uleb128 0xa
 2857 0d16 C7180000 		.4byte	.LASF343
 2858 0d1a 0D       		.byte	0xd
 2859 0d1b 82       		.byte	0x82
 2860 0d1c 6A070000 		.4byte	0x76a
 2861 0d20 0C       		.byte	0xc
 2862 0d21 0A       		.uleb128 0xa
 2863 0d22 42140000 		.4byte	.LASF344
 2864 0d26 0D       		.byte	0xd
 2865 0d27 84       		.byte	0x84
 2866 0d28 760D0000 		.4byte	0xd76
 2867 0d2c 10       		.byte	0x10
ARM GAS  C:\Users\Rolf\AppData\Local\Temp\ccUtnhQP.s 			page 109


 2868 0d2d 0A       		.uleb128 0xa
 2869 0d2e 060B0000 		.4byte	.LASF345
 2870 0d32 0D       		.byte	0xd
 2871 0d33 85       		.byte	0x85
 2872 0d34 7C0D0000 		.4byte	0xd7c
 2873 0d38 14       		.byte	0x14
 2874 0d39 0A       		.uleb128 0xa
 2875 0d3a 26060000 		.4byte	.LASF346
 2876 0d3e 0D       		.byte	0xd
 2877 0d3f 86       		.byte	0x86
 2878 0d40 CE000000 		.4byte	0xce
 2879 0d44 18       		.byte	0x18
 2880 0d45 0A       		.uleb128 0xa
 2881 0d46 7B020000 		.4byte	.LASF347
 2882 0d4a 0D       		.byte	0xd
 2883 0d4b 87       		.byte	0x87
 2884 0d4c CE000000 		.4byte	0xce
 2885 0d50 1C       		.byte	0x1c
 2886 0d51 0A       		.uleb128 0xa
 2887 0d52 D90B0000 		.4byte	.LASF348
 2888 0d56 0D       		.byte	0xd
 2889 0d57 89       		.byte	0x89
 2890 0d58 D80C0000 		.4byte	0xcd8
 2891 0d5c 20       		.byte	0x20
 2892 0d5d 0A       		.uleb128 0xa
 2893 0d5e DF1B0000 		.4byte	.LASF349
 2894 0d62 0D       		.byte	0xd
 2895 0d63 8A       		.byte	0x8a
 2896 0d64 CD0C0000 		.4byte	0xccd
 2897 0d68 24       		.byte	0x24
 2898 0d69 0A       		.uleb128 0xa
 2899 0d6a 681F0000 		.4byte	.LASF350
 2900 0d6e 0D       		.byte	0xd
 2901 0d6f 8B       		.byte	0x8b
 2902 0d70 CD0C0000 		.4byte	0xccd
 2903 0d74 28       		.byte	0x28
 2904 0d75 00       		.byte	0
 2905 0d76 16       		.uleb128 0x16
 2906 0d77 04       		.byte	0x4
 2907 0d78 ED0B0000 		.4byte	0xbed
 2908 0d7c 16       		.uleb128 0x16
 2909 0d7d 04       		.byte	0x4
 2910 0d7e F90B0000 		.4byte	0xbf9
 2911 0d82 03       		.uleb128 0x3
 2912 0d83 E90F0000 		.4byte	.LASF351
 2913 0d87 0D       		.byte	0xd
 2914 0d88 8C       		.byte	0x8c
 2915 0d89 E90C0000 		.4byte	0xce9
 2916 0d8d 09       		.uleb128 0x9
 2917 0d8e 14       		.byte	0x14
 2918 0d8f 0D       		.byte	0xd
 2919 0d90 8F       		.byte	0x8f
 2920 0d91 D20D0000 		.4byte	0xdd2
 2921 0d95 0A       		.uleb128 0xa
 2922 0d96 760A0000 		.4byte	.LASF352
 2923 0d9a 0D       		.byte	0xd
 2924 0d9b 91       		.byte	0x91
ARM GAS  C:\Users\Rolf\AppData\Local\Temp\ccUtnhQP.s 			page 110


 2925 0d9c CE000000 		.4byte	0xce
 2926 0da0 00       		.byte	0
 2927 0da1 0A       		.uleb128 0xa
 2928 0da2 71130000 		.4byte	.LASF353
 2929 0da6 0D       		.byte	0xd
 2930 0da7 92       		.byte	0x92
 2931 0da8 CE000000 		.4byte	0xce
 2932 0dac 04       		.byte	0x4
 2933 0dad 0A       		.uleb128 0xa
 2934 0dae BB0A0000 		.4byte	.LASF354
 2935 0db2 0D       		.byte	0xd
 2936 0db3 93       		.byte	0x93
 2937 0db4 CE000000 		.4byte	0xce
 2938 0db8 08       		.byte	0x8
 2939 0db9 0A       		.uleb128 0xa
 2940 0dba 55040000 		.4byte	.LASF355
 2941 0dbe 0D       		.byte	0xd
 2942 0dbf 95       		.byte	0x95
 2943 0dc0 CE000000 		.4byte	0xce
 2944 0dc4 0C       		.byte	0xc
 2945 0dc5 0A       		.uleb128 0xa
 2946 0dc6 DC0A0000 		.4byte	.LASF356
 2947 0dca 0D       		.byte	0xd
 2948 0dcb 96       		.byte	0x96
 2949 0dcc CE000000 		.4byte	0xce
 2950 0dd0 10       		.byte	0x10
 2951 0dd1 00       		.byte	0
 2952 0dd2 03       		.uleb128 0x3
 2953 0dd3 38020000 		.4byte	.LASF357
 2954 0dd7 0D       		.byte	0xd
 2955 0dd8 98       		.byte	0x98
 2956 0dd9 8D0D0000 		.4byte	0xd8d
 2957 0ddd 09       		.uleb128 0x9
 2958 0dde 34       		.byte	0x34
 2959 0ddf 0D       		.byte	0xd
 2960 0de0 9B       		.byte	0x9b
 2961 0de1 220E0000 		.4byte	0xe22
 2962 0de5 0A       		.uleb128 0xa
 2963 0de6 0E090000 		.4byte	.LASF358
 2964 0dea 0D       		.byte	0xd
 2965 0deb 9E       		.byte	0x9e
 2966 0dec D20D0000 		.4byte	0xdd2
 2967 0df0 00       		.byte	0
 2968 0df1 0A       		.uleb128 0xa
 2969 0df2 5E160000 		.4byte	.LASF359
 2970 0df6 0D       		.byte	0xd
 2971 0df7 A1       		.byte	0xa1
 2972 0df8 D20D0000 		.4byte	0xdd2
 2973 0dfc 14       		.byte	0x14
 2974 0dfd 0A       		.uleb128 0xa
 2975 0dfe F4170000 		.4byte	.LASF360
 2976 0e02 0D       		.byte	0xd
 2977 0e03 A4       		.byte	0xa4
 2978 0e04 CE000000 		.4byte	0xce
 2979 0e08 28       		.byte	0x28
 2980 0e09 0A       		.uleb128 0xa
 2981 0e0a 2B060000 		.4byte	.LASF361
ARM GAS  C:\Users\Rolf\AppData\Local\Temp\ccUtnhQP.s 			page 111


 2982 0e0e 0D       		.byte	0xd
 2983 0e0f A7       		.byte	0xa7
 2984 0e10 D80C0000 		.4byte	0xcd8
 2985 0e14 2C       		.byte	0x2c
 2986 0e15 0A       		.uleb128 0xa
 2987 0e16 9F1C0000 		.4byte	.LASF362
 2988 0e1a 0D       		.byte	0xd
 2989 0e1b AA       		.byte	0xaa
 2990 0e1c 110C0000 		.4byte	0xc11
 2991 0e20 30       		.byte	0x30
 2992 0e21 00       		.byte	0
 2993 0e22 03       		.uleb128 0x3
 2994 0e23 C1160000 		.4byte	.LASF363
 2995 0e27 0D       		.byte	0xd
 2996 0e28 AB       		.byte	0xab
 2997 0e29 DD0D0000 		.4byte	0xddd
 2998 0e2d 0E       		.uleb128 0xe
 2999 0e2e 04       		.byte	0x4
 3000 0e2f 9B000000 		.4byte	0x9b
 3001 0e33 0D       		.byte	0xd
 3002 0e34 C2       		.byte	0xc2
 3003 0e35 9A0E0000 		.4byte	0xe9a
 3004 0e39 10       		.uleb128 0x10
 3005 0e3a 4A160000 		.4byte	.LASF364
 3006 0e3e 00       		.byte	0
 3007 0e3f 19       		.uleb128 0x19
 3008 0e40 EA100000 		.4byte	.LASF365
 3009 0e44 01028A00 		.4byte	0x8a0201
 3010 0e48 19       		.uleb128 0x19
 3011 0e49 AC0E0000 		.4byte	.LASF366
 3012 0e4d 02028A00 		.4byte	0x8a0202
 3013 0e51 19       		.uleb128 0x19
 3014 0e52 9A060000 		.4byte	.LASF367
 3015 0e56 03028A00 		.4byte	0x8a0203
 3016 0e5a 19       		.uleb128 0x19
 3017 0e5b C21B0000 		.4byte	.LASF368
 3018 0e5f 04028A00 		.4byte	0x8a0204
 3019 0e63 19       		.uleb128 0x19
 3020 0e64 871E0000 		.4byte	.LASF369
 3021 0e68 05028A00 		.4byte	0x8a0205
 3022 0e6c 19       		.uleb128 0x19
 3023 0e6d 051F0000 		.4byte	.LASF370
 3024 0e71 06028A00 		.4byte	0x8a0206
 3025 0e75 19       		.uleb128 0x19
 3026 0e76 C60E0000 		.4byte	.LASF371
 3027 0e7a 07028A00 		.4byte	0x8a0207
 3028 0e7e 19       		.uleb128 0x19
 3029 0e7f 9A160000 		.4byte	.LASF372
 3030 0e83 08028A00 		.4byte	0x8a0208
 3031 0e87 19       		.uleb128 0x19
 3032 0e88 EA200000 		.4byte	.LASF373
 3033 0e8c 09028A00 		.4byte	0x8a0209
 3034 0e90 19       		.uleb128 0x19
 3035 0e91 03110000 		.4byte	.LASF374
 3036 0e95 0A028A00 		.4byte	0x8a020a
 3037 0e99 00       		.byte	0
 3038 0e9a 03       		.uleb128 0x3
ARM GAS  C:\Users\Rolf\AppData\Local\Temp\ccUtnhQP.s 			page 112


 3039 0e9b 501F0000 		.4byte	.LASF375
 3040 0e9f 0D       		.byte	0xd
 3041 0ea0 CE       		.byte	0xce
 3042 0ea1 2D0E0000 		.4byte	0xe2d
 3043 0ea5 1D       		.uleb128 0x1d
 3044 0ea6 C3030000 		.4byte	.LASF376
 3045 0eaa 04       		.byte	0x4
 3046 0eab 6503     		.2byte	0x365
 3047 0ead 03       		.byte	0x3
 3048 0eae 1D       		.uleb128 0x1d
 3049 0eaf 9D040000 		.4byte	.LASF377
 3050 0eb3 04       		.byte	0x4
 3051 0eb4 7003     		.2byte	0x370
 3052 0eb6 03       		.byte	0x3
 3053 0eb7 1E       		.uleb128 0x1e
 3054 0eb8 1D020000 		.4byte	.LASF380
 3055 0ebc 02       		.byte	0x2
 3056 0ebd DD01     		.2byte	0x1dd
 3057 0ebf 7C0D0000 		.4byte	0xd7c
 3058 0ec3 03       		.byte	0x3
 3059 0ec4 D50E0000 		.4byte	0xed5
 3060 0ec8 1F       		.uleb128 0x1f
 3061 0ec9 FA030000 		.4byte	.LASF378
 3062 0ecd 02       		.byte	0x2
 3063 0ece DD01     		.2byte	0x1dd
 3064 0ed0 CE000000 		.4byte	0xce
 3065 0ed4 00       		.byte	0
 3066 0ed5 20       		.uleb128 0x20
 3067 0ed6 4A0B0000 		.4byte	.LASF383
 3068 0eda 03       		.byte	0x3
 3069 0edb DD02     		.2byte	0x2dd
 3070 0edd 03       		.byte	0x3
 3071 0ede EF0E0000 		.4byte	0xeef
 3072 0ee2 1F       		.uleb128 0x1f
 3073 0ee3 57150000 		.4byte	.LASF379
 3074 0ee7 03       		.byte	0x3
 3075 0ee8 DD02     		.2byte	0x2dd
 3076 0eea 6A070000 		.4byte	0x76a
 3077 0eee 00       		.byte	0
 3078 0eef 1E       		.uleb128 0x1e
 3079 0ef0 59000000 		.4byte	.LASF381
 3080 0ef4 02       		.byte	0x2
 3081 0ef5 D003     		.2byte	0x3d0
 3082 0ef7 620C0000 		.4byte	0xc62
 3083 0efb 03       		.byte	0x3
 3084 0efc 0D0F0000 		.4byte	0xf0d
 3085 0f00 1F       		.uleb128 0x1f
 3086 0f01 C5000000 		.4byte	.LASF382
 3087 0f05 02       		.byte	0x2
 3088 0f06 D003     		.2byte	0x3d0
 3089 0f08 0D0F0000 		.4byte	0xf0d
 3090 0f0c 00       		.byte	0
 3091 0f0d 16       		.uleb128 0x16
 3092 0f0e 04       		.byte	0x4
 3093 0f0f 130F0000 		.4byte	0xf13
 3094 0f13 06       		.uleb128 0x6
 3095 0f14 ED0B0000 		.4byte	0xbed
ARM GAS  C:\Users\Rolf\AppData\Local\Temp\ccUtnhQP.s 			page 113


 3096 0f18 20       		.uleb128 0x20
 3097 0f19 30010000 		.4byte	.LASF384
 3098 0f1d 02       		.byte	0x2
 3099 0f1e B902     		.2byte	0x2b9
 3100 0f20 03       		.byte	0x3
 3101 0f21 3E0F0000 		.4byte	0xf3e
 3102 0f25 1F       		.uleb128 0x1f
 3103 0f26 C5000000 		.4byte	.LASF382
 3104 0f2a 02       		.byte	0x2
 3105 0f2b B902     		.2byte	0x2b9
 3106 0f2d 760D0000 		.4byte	0xd76
 3107 0f31 1F       		.uleb128 0x1f
 3108 0f32 C9090000 		.4byte	.LASF385
 3109 0f36 02       		.byte	0x2
 3110 0f37 B902     		.2byte	0x2b9
 3111 0f39 CE000000 		.4byte	0xce
 3112 0f3d 00       		.byte	0
 3113 0f3e 20       		.uleb128 0x20
 3114 0f3f 161D0000 		.4byte	.LASF386
 3115 0f43 02       		.byte	0x2
 3116 0f44 ED02     		.2byte	0x2ed
 3117 0f46 03       		.byte	0x3
 3118 0f47 640F0000 		.4byte	0xf64
 3119 0f4b 1F       		.uleb128 0x1f
 3120 0f4c C5000000 		.4byte	.LASF382
 3121 0f50 02       		.byte	0x2
 3122 0f51 ED02     		.2byte	0x2ed
 3123 0f53 760D0000 		.4byte	0xd76
 3124 0f57 1F       		.uleb128 0x1f
 3125 0f58 A4000000 		.4byte	.LASF387
 3126 0f5c 02       		.byte	0x2
 3127 0f5d ED02     		.2byte	0x2ed
 3128 0f5f CE000000 		.4byte	0xce
 3129 0f63 00       		.byte	0
 3130 0f64 1E       		.uleb128 0x1e
 3131 0f65 1D180000 		.4byte	.LASF388
 3132 0f69 02       		.byte	0x2
 3133 0f6a 5103     		.2byte	0x351
 3134 0f6c CE000000 		.4byte	0xce
 3135 0f70 03       		.byte	0x3
 3136 0f71 820F0000 		.4byte	0xf82
 3137 0f75 1F       		.uleb128 0x1f
 3138 0f76 A4090000 		.4byte	.LASF389
 3139 0f7a 02       		.byte	0x2
 3140 0f7b 5103     		.2byte	0x351
 3141 0f7d CE000000 		.4byte	0xce
 3142 0f81 00       		.byte	0
 3143 0f82 1E       		.uleb128 0x1e
 3144 0f83 27120000 		.4byte	.LASF390
 3145 0f87 02       		.byte	0x2
 3146 0f88 3902     		.2byte	0x239
 3147 0f8a CE000000 		.4byte	0xce
 3148 0f8e 03       		.byte	0x3
 3149 0f8f A00F0000 		.4byte	0xfa0
 3150 0f93 1F       		.uleb128 0x1f
 3151 0f94 C5000000 		.4byte	.LASF382
 3152 0f98 02       		.byte	0x2
ARM GAS  C:\Users\Rolf\AppData\Local\Temp\ccUtnhQP.s 			page 114


 3153 0f99 3902     		.2byte	0x239
 3154 0f9b A00F0000 		.4byte	0xfa0
 3155 0f9f 00       		.byte	0
 3156 0fa0 16       		.uleb128 0x16
 3157 0fa1 04       		.byte	0x4
 3158 0fa2 A60F0000 		.4byte	0xfa6
 3159 0fa6 06       		.uleb128 0x6
 3160 0fa7 F90B0000 		.4byte	0xbf9
 3161 0fab 1E       		.uleb128 0x1e
 3162 0fac 31210000 		.4byte	.LASF391
 3163 0fb0 02       		.byte	0x2
 3164 0fb1 2203     		.2byte	0x322
 3165 0fb3 C90F0000 		.4byte	0xfc9
 3166 0fb7 03       		.byte	0x3
 3167 0fb8 C90F0000 		.4byte	0xfc9
 3168 0fbc 1F       		.uleb128 0x1f
 3169 0fbd C5000000 		.4byte	.LASF382
 3170 0fc1 02       		.byte	0x2
 3171 0fc2 2203     		.2byte	0x322
 3172 0fc4 0D0F0000 		.4byte	0xf0d
 3173 0fc8 00       		.byte	0
 3174 0fc9 02       		.uleb128 0x2
 3175 0fca 01       		.byte	0x1
 3176 0fcb 02       		.byte	0x2
 3177 0fcc 2A0B0000 		.4byte	.LASF392
 3178 0fd0 1E       		.uleb128 0x1e
 3179 0fd1 FB050000 		.4byte	.LASF393
 3180 0fd5 02       		.byte	0x2
 3181 0fd6 B403     		.2byte	0x3b4
 3182 0fd8 620C0000 		.4byte	0xc62
 3183 0fdc 03       		.byte	0x3
 3184 0fdd FA0F0000 		.4byte	0xffa
 3185 0fe1 1F       		.uleb128 0x1f
 3186 0fe2 C5000000 		.4byte	.LASF382
 3187 0fe6 02       		.byte	0x2
 3188 0fe7 B403     		.2byte	0x3b4
 3189 0fe9 0D0F0000 		.4byte	0xf0d
 3190 0fed 1F       		.uleb128 0x1f
 3191 0fee F9090000 		.4byte	.LASF394
 3192 0ff2 02       		.byte	0x2
 3193 0ff3 B403     		.2byte	0x3b4
 3194 0ff5 FA0F0000 		.4byte	0xffa
 3195 0ff9 00       		.byte	0
 3196 0ffa 16       		.uleb128 0x16
 3197 0ffb 04       		.byte	0x4
 3198 0ffc 00100000 		.4byte	0x1000
 3199 1000 21       		.uleb128 0x21
 3200 1001 04       		.byte	0x4
 3201 1002 1E       		.uleb128 0x1e
 3202 1003 A3040000 		.4byte	.LASF395
 3203 1007 02       		.byte	0x2
 3204 1008 6703     		.2byte	0x367
 3205 100a CE000000 		.4byte	0xce
 3206 100e 03       		.byte	0x3
 3207 100f 20100000 		.4byte	0x1020
 3208 1013 1F       		.uleb128 0x1f
 3209 1014 A4090000 		.4byte	.LASF389
ARM GAS  C:\Users\Rolf\AppData\Local\Temp\ccUtnhQP.s 			page 115


 3210 1018 02       		.byte	0x2
 3211 1019 6703     		.2byte	0x367
 3212 101b CE000000 		.4byte	0xce
 3213 101f 00       		.byte	0
 3214 1020 1E       		.uleb128 0x1e
 3215 1021 5E0F0000 		.4byte	.LASF396
 3216 1025 02       		.byte	0x2
 3217 1026 5702     		.2byte	0x257
 3218 1028 CE000000 		.4byte	0xce
 3219 102c 03       		.byte	0x3
 3220 102d 3E100000 		.4byte	0x103e
 3221 1031 1F       		.uleb128 0x1f
 3222 1032 C5000000 		.4byte	.LASF382
 3223 1036 02       		.byte	0x2
 3224 1037 5702     		.2byte	0x257
 3225 1039 A00F0000 		.4byte	0xfa0
 3226 103d 00       		.byte	0
 3227 103e 20       		.uleb128 0x20
 3228 103f 9A130000 		.4byte	.LASF397
 3229 1043 03       		.byte	0x3
 3230 1044 0103     		.2byte	0x301
 3231 1046 03       		.byte	0x3
 3232 1047 58100000 		.4byte	0x1058
 3233 104b 1F       		.uleb128 0x1f
 3234 104c 57150000 		.4byte	.LASF379
 3235 1050 03       		.byte	0x3
 3236 1051 0103     		.2byte	0x301
 3237 1053 6A070000 		.4byte	0x76a
 3238 1057 00       		.byte	0
 3239 1058 22       		.uleb128 0x22
 3240 1059 72200000 		.4byte	.LASF403
 3241 105d 01       		.byte	0x1
 3242 105e 2A       		.byte	0x2a
 3243 105f 00000000 		.4byte	.LFB66
 3244 1063 14000000 		.4byte	.LFE66-.LFB66
 3245 1067 01       		.uleb128 0x1
 3246 1068 9C       		.byte	0x9c
 3247 1069 7B100000 		.4byte	0x107b
 3248 106d 23       		.uleb128 0x23
 3249 106e 1F0B0000 		.4byte	.LASF405
 3250 1072 01       		.byte	0x1
 3251 1073 2A       		.byte	0x2a
 3252 1074 7B100000 		.4byte	0x107b
 3253 1078 01       		.uleb128 0x1
 3254 1079 50       		.byte	0x50
 3255 107a 00       		.byte	0
 3256 107b 16       		.uleb128 0x16
 3257 107c 04       		.byte	0x4
 3258 107d 820D0000 		.4byte	0xd82
 3259 1081 1E       		.uleb128 0x1e
 3260 1082 18050000 		.4byte	.LASF398
 3261 1086 02       		.byte	0x2
 3262 1087 C101     		.2byte	0x1c1
 3263 1089 760D0000 		.4byte	0xd76
 3264 108d 03       		.byte	0x3
 3265 108e 9F100000 		.4byte	0x109f
 3266 1092 1F       		.uleb128 0x1f
ARM GAS  C:\Users\Rolf\AppData\Local\Temp\ccUtnhQP.s 			page 116


 3267 1093 0D1D0000 		.4byte	.LASF399
 3268 1097 02       		.byte	0x2
 3269 1098 C101     		.2byte	0x1c1
 3270 109a CE000000 		.4byte	0xce
 3271 109e 00       		.byte	0
 3272 109f 20       		.uleb128 0x20
 3273 10a0 39040000 		.4byte	.LASF400
 3274 10a4 02       		.byte	0x2
 3275 10a5 FB01     		.2byte	0x1fb
 3276 10a7 03       		.byte	0x3
 3277 10a8 D1100000 		.4byte	0x10d1
 3278 10ac 1F       		.uleb128 0x1f
 3279 10ad C5000000 		.4byte	.LASF382
 3280 10b1 02       		.byte	0x2
 3281 10b2 FB01     		.2byte	0x1fb
 3282 10b4 7C0D0000 		.4byte	0xd7c
 3283 10b8 1F       		.uleb128 0x1f
 3284 10b9 6F0B0000 		.4byte	.LASF401
 3285 10bd 02       		.byte	0x2
 3286 10be FC01     		.2byte	0x1fc
 3287 10c0 CE000000 		.4byte	0xce
 3288 10c4 1F       		.uleb128 0x1f
 3289 10c5 3F150000 		.4byte	.LASF402
 3290 10c9 02       		.byte	0x2
 3291 10ca FC01     		.2byte	0x1fc
 3292 10cc CE000000 		.4byte	0xce
 3293 10d0 00       		.byte	0
 3294 10d1 22       		.uleb128 0x22
 3295 10d2 7B160000 		.4byte	.LASF404
 3296 10d6 01       		.byte	0x1
 3297 10d7 B0       		.byte	0xb0
 3298 10d8 00000000 		.4byte	.LFB68
 3299 10dc D8000000 		.4byte	.LFE68-.LFB68
 3300 10e0 01       		.uleb128 0x1
 3301 10e1 9C       		.byte	0x9c
 3302 10e2 2E120000 		.4byte	0x122e
 3303 10e6 24       		.uleb128 0x24
 3304 10e7 960D0000 		.4byte	.LASF406
 3305 10eb 01       		.byte	0x1
 3306 10ec B0       		.byte	0xb0
 3307 10ed CE000000 		.4byte	0xce
 3308 10f1 00000000 		.4byte	.LLST0
 3309 10f5 24       		.uleb128 0x24
 3310 10f6 311C0000 		.4byte	.LASF407
 3311 10fa 01       		.byte	0x1
 3312 10fb B0       		.byte	0xb0
 3313 10fc D80C0000 		.4byte	0xcd8
 3314 1100 2C000000 		.4byte	.LLST1
 3315 1104 24       		.uleb128 0x24
 3316 1105 94160000 		.4byte	.LASF408
 3317 1109 01       		.byte	0x1
 3318 110a B1       		.byte	0xb1
 3319 110b CE000000 		.4byte	0xce
 3320 110f 58000000 		.4byte	.LLST2
 3321 1113 24       		.uleb128 0x24
 3322 1114 DC0A0000 		.4byte	.LASF356
 3323 1118 01       		.byte	0x1
ARM GAS  C:\Users\Rolf\AppData\Local\Temp\ccUtnhQP.s 			page 117


 3324 1119 B1       		.byte	0xb1
 3325 111a CE000000 		.4byte	0xce
 3326 111e 84000000 		.4byte	.LLST3
 3327 1122 23       		.uleb128 0x23
 3328 1123 84100000 		.4byte	.LASF409
 3329 1127 01       		.byte	0x1
 3330 1128 B1       		.byte	0xb1
 3331 1129 2E120000 		.4byte	0x122e
 3332 112d 02       		.uleb128 0x2
 3333 112e 91       		.byte	0x91
 3334 112f 00       		.sleb128 0
 3335 1130 25       		.uleb128 0x25
 3336 1131 04210000 		.4byte	.LASF412
 3337 1135 01       		.byte	0x1
 3338 1136 B3       		.byte	0xb3
 3339 1137 7B100000 		.4byte	0x107b
 3340 113b B0000000 		.4byte	.LLST4
 3341 113f 26       		.uleb128 0x26
 3342 1140 81100000 		.4byte	0x1081
 3343 1144 3A000000 		.4byte	.LBB46
 3344 1148 26000000 		.4byte	.LBE46-.LBB46
 3345 114c 01       		.byte	0x1
 3346 114d BF       		.byte	0xbf
 3347 114e 76110000 		.4byte	0x1176
 3348 1152 27       		.uleb128 0x27
 3349 1153 92100000 		.4byte	0x1092
 3350 1157 C3000000 		.4byte	.LLST5
 3351 115b 28       		.uleb128 0x28
 3352 115c 50000000 		.4byte	.LVL9
 3353 1160 B7190000 		.4byte	0x19b7
 3354 1164 29       		.uleb128 0x29
 3355 1165 01       		.uleb128 0x1
 3356 1166 50       		.byte	0x50
 3357 1167 05       		.uleb128 0x5
 3358 1168 03       		.byte	0x3
 3359 1169 40000000 		.4byte	.LC5
 3360 116d 29       		.uleb128 0x29
 3361 116e 01       		.uleb128 0x1
 3362 116f 51       		.byte	0x51
 3363 1170 03       		.uleb128 0x3
 3364 1171 0A       		.byte	0xa
 3365 1172 C301     		.2byte	0x1c3
 3366 1174 00       		.byte	0
 3367 1175 00       		.byte	0
 3368 1176 26       		.uleb128 0x26
 3369 1177 B70E0000 		.4byte	0xeb7
 3370 117b 64000000 		.4byte	.LBB48
 3371 117f 1E000000 		.4byte	.LBE48-.LBB48
 3372 1183 01       		.byte	0x1
 3373 1184 C2       		.byte	0xc2
 3374 1185 AD110000 		.4byte	0x11ad
 3375 1189 27       		.uleb128 0x27
 3376 118a C80E0000 		.4byte	0xec8
 3377 118e D6000000 		.4byte	.LLST6
 3378 1192 28       		.uleb128 0x28
 3379 1193 76000000 		.4byte	.LVL12
 3380 1197 B7190000 		.4byte	0x19b7
ARM GAS  C:\Users\Rolf\AppData\Local\Temp\ccUtnhQP.s 			page 118


 3381 119b 29       		.uleb128 0x29
 3382 119c 01       		.uleb128 0x1
 3383 119d 50       		.byte	0x50
 3384 119e 05       		.uleb128 0x5
 3385 119f 03       		.byte	0x3
 3386 11a0 40000000 		.4byte	.LC5
 3387 11a4 29       		.uleb128 0x29
 3388 11a5 01       		.uleb128 0x1
 3389 11a6 51       		.byte	0x51
 3390 11a7 03       		.uleb128 0x3
 3391 11a8 0A       		.byte	0xa
 3392 11a9 DF01     		.2byte	0x1df
 3393 11ab 00       		.byte	0
 3394 11ac 00       		.byte	0
 3395 11ad 26       		.uleb128 0x26
 3396 11ae 9F100000 		.4byte	0x109f
 3397 11b2 86000000 		.4byte	.LBB50
 3398 11b6 22000000 		.4byte	.LBE50-.LBB50
 3399 11ba 01       		.byte	0x1
 3400 11bb C5       		.byte	0xc5
 3401 11bc 14120000 		.4byte	0x1214
 3402 11c0 27       		.uleb128 0x27
 3403 11c1 C4100000 		.4byte	0x10c4
 3404 11c5 F7000000 		.4byte	.LLST7
 3405 11c9 27       		.uleb128 0x27
 3406 11ca B8100000 		.4byte	0x10b8
 3407 11ce F7000000 		.4byte	.LLST7
 3408 11d2 27       		.uleb128 0x27
 3409 11d3 AC100000 		.4byte	0x10ac
 3410 11d7 0A010000 		.4byte	.LLST9
 3411 11db 2A       		.uleb128 0x2a
 3412 11dc 94000000 		.4byte	.LVL16
 3413 11e0 B7190000 		.4byte	0x19b7
 3414 11e4 F9110000 		.4byte	0x11f9
 3415 11e8 29       		.uleb128 0x29
 3416 11e9 01       		.uleb128 0x1
 3417 11ea 50       		.byte	0x50
 3418 11eb 05       		.uleb128 0x5
 3419 11ec 03       		.byte	0x3
 3420 11ed 40000000 		.4byte	.LC5
 3421 11f1 29       		.uleb128 0x29
 3422 11f2 01       		.uleb128 0x1
 3423 11f3 51       		.byte	0x51
 3424 11f4 03       		.uleb128 0x3
 3425 11f5 0A       		.byte	0xa
 3426 11f6 FE01     		.2byte	0x1fe
 3427 11f8 00       		.byte	0
 3428 11f9 28       		.uleb128 0x28
 3429 11fa A0000000 		.4byte	.LVL17
 3430 11fe B7190000 		.4byte	0x19b7
 3431 1202 29       		.uleb128 0x29
 3432 1203 01       		.uleb128 0x1
 3433 1204 50       		.byte	0x50
 3434 1205 05       		.uleb128 0x5
 3435 1206 03       		.byte	0x3
 3436 1207 40000000 		.4byte	.LC5
 3437 120b 29       		.uleb128 0x29
ARM GAS  C:\Users\Rolf\AppData\Local\Temp\ccUtnhQP.s 			page 119


 3438 120c 01       		.uleb128 0x1
 3439 120d 51       		.byte	0x51
 3440 120e 03       		.uleb128 0x3
 3441 120f 0A       		.byte	0xa
 3442 1210 FF01     		.2byte	0x1ff
 3443 1212 00       		.byte	0
 3444 1213 00       		.byte	0
 3445 1214 28       		.uleb128 0x28
 3446 1215 1E000000 		.4byte	.LVL5
 3447 1219 B7190000 		.4byte	0x19b7
 3448 121d 29       		.uleb128 0x29
 3449 121e 01       		.uleb128 0x1
 3450 121f 50       		.byte	0x50
 3451 1220 05       		.uleb128 0x5
 3452 1221 03       		.byte	0x3
 3453 1222 00000000 		.4byte	.LC2
 3454 1226 29       		.uleb128 0x29
 3455 1227 01       		.uleb128 0x1
 3456 1228 51       		.byte	0x51
 3457 1229 02       		.uleb128 0x2
 3458 122a 08       		.byte	0x8
 3459 122b B5       		.byte	0xb5
 3460 122c 00       		.byte	0
 3461 122d 00       		.byte	0
 3462 122e 16       		.uleb128 0x16
 3463 122f 04       		.byte	0x4
 3464 1230 34120000 		.4byte	0x1234
 3465 1234 06       		.uleb128 0x6
 3466 1235 9F0C0000 		.4byte	0xc9f
 3467 1239 22       		.uleb128 0x22
 3468 123a 8B190000 		.4byte	.LASF410
 3469 123e 01       		.byte	0x1
 3470 123f 48       		.byte	0x48
 3471 1240 00000000 		.4byte	.LFB67
 3472 1244 BC000000 		.4byte	.LFE67-.LFB67
 3473 1248 01       		.uleb128 0x1
 3474 1249 9C       		.byte	0x9c
 3475 124a 79130000 		.4byte	0x1379
 3476 124e 24       		.uleb128 0x24
 3477 124f 43160000 		.4byte	.LASF411
 3478 1253 01       		.byte	0x1
 3479 1254 48       		.byte	0x48
 3480 1255 79130000 		.4byte	0x1379
 3481 1259 1D010000 		.4byte	.LLST10
 3482 125d 2B       		.uleb128 0x2b
 3483 125e 53130000 		.4byte	.LASF413
 3484 1262 01       		.byte	0x1
 3485 1263 4C       		.byte	0x4c
 3486 1264 9F0C0000 		.4byte	0xc9f
 3487 1268 02       		.uleb128 0x2
 3488 1269 91       		.byte	0x91
 3489 126a 60       		.sleb128 -32
 3490 126b 2B       		.uleb128 0x2b
 3491 126c C7120000 		.4byte	.LASF414
 3492 1270 01       		.byte	0x1
 3493 1271 4E       		.byte	0x4e
 3494 1272 D20D0000 		.4byte	0xdd2
ARM GAS  C:\Users\Rolf\AppData\Local\Temp\ccUtnhQP.s 			page 120


 3495 1276 02       		.uleb128 0x2
 3496 1277 91       		.byte	0x91
 3497 1278 4C       		.sleb128 -52
 3498 1279 2B       		.uleb128 0x2b
 3499 127a F01F0000 		.4byte	.LASF415
 3500 127e 01       		.byte	0x1
 3501 127f 4F       		.byte	0x4f
 3502 1280 D20D0000 		.4byte	0xdd2
 3503 1284 03       		.uleb128 0x3
 3504 1285 91       		.byte	0x91
 3505 1286 B87F     		.sleb128 -72
 3506 1288 26       		.uleb128 0x26
 3507 1289 D50E0000 		.4byte	0xed5
 3508 128d 9C000000 		.4byte	.LBB52
 3509 1291 10000000 		.4byte	.LBE52-.LBB52
 3510 1295 01       		.byte	0x1
 3511 1296 80       		.byte	0x80
 3512 1297 A5120000 		.4byte	0x12a5
 3513 129b 27       		.uleb128 0x27
 3514 129c E20E0000 		.4byte	0xee2
 3515 12a0 49010000 		.4byte	.LLST11
 3516 12a4 00       		.byte	0
 3517 12a5 2A       		.uleb128 0x2a
 3518 12a6 10000000 		.4byte	.LVL25
 3519 12aa B7190000 		.4byte	0x19b7
 3520 12ae C2120000 		.4byte	0x12c2
 3521 12b2 29       		.uleb128 0x29
 3522 12b3 01       		.uleb128 0x1
 3523 12b4 50       		.byte	0x50
 3524 12b5 05       		.uleb128 0x5
 3525 12b6 03       		.byte	0x3
 3526 12b7 00000000 		.4byte	.LC2
 3527 12bb 29       		.uleb128 0x29
 3528 12bc 01       		.uleb128 0x1
 3529 12bd 51       		.byte	0x51
 3530 12be 02       		.uleb128 0x2
 3531 12bf 08       		.byte	0x8
 3532 12c0 52       		.byte	0x52
 3533 12c1 00       		.byte	0
 3534 12c2 2A       		.uleb128 0x2a
 3535 12c3 1E000000 		.4byte	.LVL26
 3536 12c7 B7190000 		.4byte	0x19b7
 3537 12cb DF120000 		.4byte	0x12df
 3538 12cf 29       		.uleb128 0x29
 3539 12d0 01       		.uleb128 0x1
 3540 12d1 50       		.byte	0x50
 3541 12d2 05       		.uleb128 0x5
 3542 12d3 03       		.byte	0x3
 3543 12d4 00000000 		.4byte	.LC2
 3544 12d8 29       		.uleb128 0x29
 3545 12d9 01       		.uleb128 0x1
 3546 12da 51       		.byte	0x51
 3547 12db 02       		.uleb128 0x2
 3548 12dc 08       		.byte	0x8
 3549 12dd 54       		.byte	0x54
 3550 12de 00       		.byte	0
 3551 12df 2A       		.uleb128 0x2a
ARM GAS  C:\Users\Rolf\AppData\Local\Temp\ccUtnhQP.s 			page 121


 3552 12e0 2C000000 		.4byte	.LVL27
 3553 12e4 B7190000 		.4byte	0x19b7
 3554 12e8 FC120000 		.4byte	0x12fc
 3555 12ec 29       		.uleb128 0x29
 3556 12ed 01       		.uleb128 0x1
 3557 12ee 50       		.byte	0x50
 3558 12ef 05       		.uleb128 0x5
 3559 12f0 03       		.byte	0x3
 3560 12f1 00000000 		.4byte	.LC2
 3561 12f5 29       		.uleb128 0x29
 3562 12f6 01       		.uleb128 0x1
 3563 12f7 51       		.byte	0x51
 3564 12f8 02       		.uleb128 0x2
 3565 12f9 08       		.byte	0x8
 3566 12fa 58       		.byte	0x58
 3567 12fb 00       		.byte	0
 3568 12fc 2A       		.uleb128 0x2a
 3569 12fd 3A000000 		.4byte	.LVL28
 3570 1301 B7190000 		.4byte	0x19b7
 3571 1305 19130000 		.4byte	0x1319
 3572 1309 29       		.uleb128 0x29
 3573 130a 01       		.uleb128 0x1
 3574 130b 50       		.byte	0x50
 3575 130c 05       		.uleb128 0x5
 3576 130d 03       		.byte	0x3
 3577 130e 00000000 		.4byte	.LC2
 3578 1312 29       		.uleb128 0x29
 3579 1313 01       		.uleb128 0x1
 3580 1314 51       		.byte	0x51
 3581 1315 02       		.uleb128 0x2
 3582 1316 08       		.byte	0x8
 3583 1317 59       		.byte	0x59
 3584 1318 00       		.byte	0
 3585 1319 2A       		.uleb128 0x2a
 3586 131a 82000000 		.4byte	.LVL29
 3587 131e D1100000 		.4byte	0x10d1
 3588 1322 3C130000 		.4byte	0x133c
 3589 1326 29       		.uleb128 0x29
 3590 1327 01       		.uleb128 0x1
 3591 1328 50       		.byte	0x50
 3592 1329 03       		.uleb128 0x3
 3593 132a 91       		.byte	0x91
 3594 132b 58       		.sleb128 -40
 3595 132c 06       		.byte	0x6
 3596 132d 29       		.uleb128 0x29
 3597 132e 01       		.uleb128 0x1
 3598 132f 53       		.byte	0x53
 3599 1330 03       		.uleb128 0x3
 3600 1331 91       		.byte	0x91
 3601 1332 5C       		.sleb128 -36
 3602 1333 06       		.byte	0x6
 3603 1334 29       		.uleb128 0x29
 3604 1335 02       		.uleb128 0x2
 3605 1336 7D       		.byte	0x7d
 3606 1337 00       		.sleb128 0
 3607 1338 02       		.uleb128 0x2
 3608 1339 76       		.byte	0x76
ARM GAS  C:\Users\Rolf\AppData\Local\Temp\ccUtnhQP.s 			page 122


 3609 133a 00       		.sleb128 0
 3610 133b 00       		.byte	0
 3611 133c 2A       		.uleb128 0x2a
 3612 133d 90000000 		.4byte	.LVL30
 3613 1341 D1100000 		.4byte	0x10d1
 3614 1345 68130000 		.4byte	0x1368
 3615 1349 29       		.uleb128 0x29
 3616 134a 01       		.uleb128 0x1
 3617 134b 50       		.byte	0x50
 3618 134c 03       		.uleb128 0x3
 3619 134d 75       		.byte	0x75
 3620 134e 0C       		.sleb128 12
 3621 134f 06       		.byte	0x6
 3622 1350 29       		.uleb128 0x29
 3623 1351 01       		.uleb128 0x1
 3624 1352 51       		.byte	0x51
 3625 1353 01       		.uleb128 0x1
 3626 1354 30       		.byte	0x30
 3627 1355 29       		.uleb128 0x29
 3628 1356 01       		.uleb128 0x1
 3629 1357 52       		.byte	0x52
 3630 1358 01       		.uleb128 0x1
 3631 1359 30       		.byte	0x30
 3632 135a 29       		.uleb128 0x29
 3633 135b 01       		.uleb128 0x1
 3634 135c 53       		.byte	0x53
 3635 135d 03       		.uleb128 0x3
 3636 135e 75       		.byte	0x75
 3637 135f 10       		.sleb128 16
 3638 1360 06       		.byte	0x6
 3639 1361 29       		.uleb128 0x29
 3640 1362 02       		.uleb128 0x2
 3641 1363 7D       		.byte	0x7d
 3642 1364 00       		.sleb128 0
 3643 1365 01       		.uleb128 0x1
 3644 1366 30       		.byte	0x30
 3645 1367 00       		.byte	0
 3646 1368 28       		.uleb128 0x28
 3647 1369 98000000 		.4byte	.LVL31
 3648 136d C3190000 		.4byte	0x19c3
 3649 1371 29       		.uleb128 0x29
 3650 1372 01       		.uleb128 0x1
 3651 1373 50       		.byte	0x50
 3652 1374 02       		.uleb128 0x2
 3653 1375 76       		.byte	0x76
 3654 1376 00       		.sleb128 0
 3655 1377 00       		.byte	0
 3656 1378 00       		.byte	0
 3657 1379 16       		.uleb128 0x16
 3658 137a 04       		.byte	0x4
 3659 137b 7F130000 		.4byte	0x137f
 3660 137f 06       		.uleb128 0x6
 3661 1380 220E0000 		.4byte	0xe22
 3662 1384 2C       		.uleb128 0x2c
 3663 1385 2A140000 		.4byte	.LASF424
 3664 1389 01       		.byte	0x1
 3665 138a F3       		.byte	0xf3
ARM GAS  C:\Users\Rolf\AppData\Local\Temp\ccUtnhQP.s 			page 123


 3666 138b 9A0E0000 		.4byte	0xe9a
 3667 138f 00000000 		.4byte	.LFB69
 3668 1393 B8000000 		.4byte	.LFE69-.LFB69
 3669 1397 01       		.uleb128 0x1
 3670 1398 9C       		.byte	0x9c
 3671 1399 E1140000 		.4byte	0x14e1
 3672 139d 24       		.uleb128 0x24
 3673 139e 41170000 		.4byte	.LASF416
 3674 13a2 01       		.byte	0x1
 3675 13a3 F3       		.byte	0xf3
 3676 13a4 CE000000 		.4byte	0xce
 3677 13a8 68010000 		.4byte	.LLST12
 3678 13ac 24       		.uleb128 0x24
 3679 13ad 72020000 		.4byte	.LASF417
 3680 13b1 01       		.byte	0x1
 3681 13b2 F3       		.byte	0xf3
 3682 13b3 CE000000 		.4byte	0xce
 3683 13b7 94010000 		.4byte	.LLST13
 3684 13bb 24       		.uleb128 0x24
 3685 13bc F9090000 		.4byte	.LASF394
 3686 13c0 01       		.byte	0x1
 3687 13c1 F4       		.byte	0xf4
 3688 13c2 00100000 		.4byte	0x1000
 3689 13c6 D9010000 		.4byte	.LLST14
 3690 13ca 24       		.uleb128 0x24
 3691 13cb 3D030000 		.4byte	.LASF418
 3692 13cf 01       		.byte	0x1
 3693 13d0 F4       		.byte	0xf4
 3694 13d1 CD0C0000 		.4byte	0xccd
 3695 13d5 05020000 		.4byte	.LLST15
 3696 13d9 25       		.uleb128 0x25
 3697 13da 23010000 		.4byte	.LASF419
 3698 13de 01       		.byte	0x1
 3699 13df F6       		.byte	0xf6
 3700 13e0 9A0E0000 		.4byte	0xe9a
 3701 13e4 6F020000 		.4byte	.LLST16
 3702 13e8 25       		.uleb128 0x25
 3703 13e9 60190000 		.4byte	.LASF420
 3704 13ed 01       		.byte	0x1
 3705 13ee F7       		.byte	0xf7
 3706 13ef CE000000 		.4byte	0xce
 3707 13f3 8E020000 		.4byte	.LLST17
 3708 13f7 25       		.uleb128 0x25
 3709 13f8 70210000 		.4byte	.LASF421
 3710 13fc 01       		.byte	0x1
 3711 13fd F8       		.byte	0xf8
 3712 13fe CE000000 		.4byte	0xce
 3713 1402 BE020000 		.4byte	.LLST18
 3714 1406 25       		.uleb128 0x25
 3715 1407 55120000 		.4byte	.LASF422
 3716 140b 01       		.byte	0x1
 3717 140c FA       		.byte	0xfa
 3718 140d 7B100000 		.4byte	0x107b
 3719 1411 DC020000 		.4byte	.LLST19
 3720 1415 25       		.uleb128 0x25
 3721 1416 4E130000 		.4byte	.LASF423
 3722 141a 01       		.byte	0x1
ARM GAS  C:\Users\Rolf\AppData\Local\Temp\ccUtnhQP.s 			page 124


 3723 141b FB       		.byte	0xfb
 3724 141c 7B100000 		.4byte	0x107b
 3725 1420 12030000 		.4byte	.LLST20
 3726 1424 2D       		.uleb128 0x2d
 3727 1425 EF0E0000 		.4byte	0xeef
 3728 1429 52000000 		.4byte	.LBB54
 3729 142d 0C000000 		.4byte	.LBE54-.LBB54
 3730 1431 01       		.byte	0x1
 3731 1432 1201     		.2byte	0x112
 3732 1434 42140000 		.4byte	0x1442
 3733 1438 27       		.uleb128 0x27
 3734 1439 000F0000 		.4byte	0xf00
 3735 143d 8E030000 		.4byte	.LLST21
 3736 1441 00       		.byte	0
 3737 1442 2D       		.uleb128 0x2d
 3738 1443 3E0F0000 		.4byte	0xf3e
 3739 1447 6E000000 		.4byte	.LBB56
 3740 144b 02000000 		.4byte	.LBE56-.LBB56
 3741 144f 01       		.byte	0x1
 3742 1450 1A01     		.2byte	0x11a
 3743 1452 69140000 		.4byte	0x1469
 3744 1456 27       		.uleb128 0x27
 3745 1457 570F0000 		.4byte	0xf57
 3746 145b AD030000 		.4byte	.LLST22
 3747 145f 27       		.uleb128 0x27
 3748 1460 4B0F0000 		.4byte	0xf4b
 3749 1464 C0030000 		.4byte	.LLST23
 3750 1468 00       		.byte	0
 3751 1469 2D       		.uleb128 0x2d
 3752 146a 180F0000 		.4byte	0xf18
 3753 146e 78000000 		.4byte	.LBB58
 3754 1472 12000000 		.4byte	.LBE58-.LBB58
 3755 1476 01       		.byte	0x1
 3756 1477 2301     		.2byte	0x123
 3757 1479 AA140000 		.4byte	0x14aa
 3758 147d 27       		.uleb128 0x27
 3759 147e 310F0000 		.4byte	0xf31
 3760 1482 D3030000 		.4byte	.LLST24
 3761 1486 27       		.uleb128 0x27
 3762 1487 250F0000 		.4byte	0xf25
 3763 148b E6030000 		.4byte	.LLST25
 3764 148f 28       		.uleb128 0x28
 3765 1490 84000000 		.4byte	.LVL59
 3766 1494 B7190000 		.4byte	0x19b7
 3767 1498 29       		.uleb128 0x29
 3768 1499 01       		.uleb128 0x1
 3769 149a 50       		.byte	0x50
 3770 149b 05       		.uleb128 0x5
 3771 149c 03       		.byte	0x3
 3772 149d 40000000 		.4byte	.LC5
 3773 14a1 29       		.uleb128 0x29
 3774 14a2 01       		.uleb128 0x1
 3775 14a3 51       		.byte	0x51
 3776 14a4 03       		.uleb128 0x3
 3777 14a5 0A       		.byte	0xa
 3778 14a6 BB02     		.2byte	0x2bb
 3779 14a8 00       		.byte	0
ARM GAS  C:\Users\Rolf\AppData\Local\Temp\ccUtnhQP.s 			page 125


 3780 14a9 00       		.byte	0
 3781 14aa 2A       		.uleb128 0x2a
 3782 14ab 16000000 		.4byte	.LVL39
 3783 14af B7190000 		.4byte	0x19b7
 3784 14b3 C7140000 		.4byte	0x14c7
 3785 14b7 29       		.uleb128 0x29
 3786 14b8 01       		.uleb128 0x1
 3787 14b9 50       		.byte	0x50
 3788 14ba 05       		.uleb128 0x5
 3789 14bb 03       		.byte	0x3
 3790 14bc 00000000 		.4byte	.LC2
 3791 14c0 29       		.uleb128 0x29
 3792 14c1 01       		.uleb128 0x1
 3793 14c2 51       		.byte	0x51
 3794 14c3 02       		.uleb128 0x2
 3795 14c4 08       		.byte	0x8
 3796 14c5 FD       		.byte	0xfd
 3797 14c6 00       		.byte	0
 3798 14c7 28       		.uleb128 0x28
 3799 14c8 26000000 		.4byte	.LVL40
 3800 14cc B7190000 		.4byte	0x19b7
 3801 14d0 29       		.uleb128 0x29
 3802 14d1 01       		.uleb128 0x1
 3803 14d2 50       		.byte	0x50
 3804 14d3 05       		.uleb128 0x5
 3805 14d4 03       		.byte	0x3
 3806 14d5 00000000 		.4byte	.LC2
 3807 14d9 29       		.uleb128 0x29
 3808 14da 01       		.uleb128 0x1
 3809 14db 51       		.byte	0x51
 3810 14dc 02       		.uleb128 0x2
 3811 14dd 08       		.byte	0x8
 3812 14de FE       		.byte	0xfe
 3813 14df 00       		.byte	0
 3814 14e0 00       		.byte	0
 3815 14e1 2E       		.uleb128 0x2e
 3816 14e2 F1010000 		.4byte	.LASF425
 3817 14e6 01       		.byte	0x1
 3818 14e7 5901     		.2byte	0x159
 3819 14e9 9A0E0000 		.4byte	0xe9a
 3820 14ed 00000000 		.4byte	.LFB70
 3821 14f1 54000000 		.4byte	.LFE70-.LFB70
 3822 14f5 01       		.uleb128 0x1
 3823 14f6 9C       		.byte	0x9c
 3824 14f7 84150000 		.4byte	0x1584
 3825 14fb 2F       		.uleb128 0x2f
 3826 14fc 960D0000 		.4byte	.LASF406
 3827 1500 01       		.byte	0x1
 3828 1501 5901     		.2byte	0x159
 3829 1503 CE000000 		.4byte	0xce
 3830 1507 F9030000 		.4byte	.LLST26
 3831 150b 2F       		.uleb128 0x2f
 3832 150c 3D030000 		.4byte	.LASF418
 3833 1510 01       		.byte	0x1
 3834 1511 5901     		.2byte	0x159
 3835 1513 AB0C0000 		.4byte	0xcab
 3836 1517 25040000 		.4byte	.LLST27
ARM GAS  C:\Users\Rolf\AppData\Local\Temp\ccUtnhQP.s 			page 126


 3837 151b 2F       		.uleb128 0x2f
 3838 151c 7E0B0000 		.4byte	.LASF426
 3839 1520 01       		.byte	0x1
 3840 1521 5901     		.2byte	0x159
 3841 1523 CE000000 		.4byte	0xce
 3842 1527 51040000 		.4byte	.LLST28
 3843 152b 30       		.uleb128 0x30
 3844 152c 23010000 		.4byte	.LASF419
 3845 1530 01       		.byte	0x1
 3846 1531 5B01     		.2byte	0x15b
 3847 1533 9A0E0000 		.4byte	0xe9a
 3848 1537 96040000 		.4byte	.LLST29
 3849 153b 30       		.uleb128 0x30
 3850 153c 6E150000 		.4byte	.LASF427
 3851 1540 01       		.byte	0x1
 3852 1541 5C01     		.2byte	0x15c
 3853 1543 7B100000 		.4byte	0x107b
 3854 1547 B5040000 		.4byte	.LLST30
 3855 154b 2A       		.uleb128 0x2a
 3856 154c 1A000000 		.4byte	.LVL72
 3857 1550 B7190000 		.4byte	0x19b7
 3858 1554 69150000 		.4byte	0x1569
 3859 1558 29       		.uleb128 0x29
 3860 1559 01       		.uleb128 0x1
 3861 155a 50       		.byte	0x50
 3862 155b 05       		.uleb128 0x5
 3863 155c 03       		.byte	0x3
 3864 155d 00000000 		.4byte	.LC2
 3865 1561 29       		.uleb128 0x29
 3866 1562 01       		.uleb128 0x1
 3867 1563 51       		.byte	0x51
 3868 1564 03       		.uleb128 0x3
 3869 1565 0A       		.byte	0xa
 3870 1566 5E01     		.2byte	0x15e
 3871 1568 00       		.byte	0
 3872 1569 28       		.uleb128 0x28
 3873 156a 34000000 		.4byte	.LVL74
 3874 156e B7190000 		.4byte	0x19b7
 3875 1572 29       		.uleb128 0x29
 3876 1573 01       		.uleb128 0x1
 3877 1574 50       		.byte	0x50
 3878 1575 05       		.uleb128 0x5
 3879 1576 03       		.byte	0x3
 3880 1577 00000000 		.4byte	.LC2
 3881 157b 29       		.uleb128 0x29
 3882 157c 01       		.uleb128 0x1
 3883 157d 51       		.byte	0x51
 3884 157e 03       		.uleb128 0x3
 3885 157f 0A       		.byte	0xa
 3886 1580 6201     		.2byte	0x162
 3887 1582 00       		.byte	0
 3888 1583 00       		.byte	0
 3889 1584 31       		.uleb128 0x31
 3890 1585 D9090000 		.4byte	.LASF428
 3891 1589 01       		.byte	0x1
 3892 158a 8C01     		.2byte	0x18c
 3893 158c 00000000 		.4byte	.LFB71
ARM GAS  C:\Users\Rolf\AppData\Local\Temp\ccUtnhQP.s 			page 127


 3894 1590 30000000 		.4byte	.LFE71-.LFB71
 3895 1594 01       		.uleb128 0x1
 3896 1595 9C       		.byte	0x9c
 3897 1596 E3150000 		.4byte	0x15e3
 3898 159a 2F       		.uleb128 0x2f
 3899 159b 960D0000 		.4byte	.LASF406
 3900 159f 01       		.byte	0x1
 3901 15a0 8C01     		.2byte	0x18c
 3902 15a2 CE000000 		.4byte	0xce
 3903 15a6 C8040000 		.4byte	.LLST31
 3904 15aa 2F       		.uleb128 0x2f
 3905 15ab 3D030000 		.4byte	.LASF418
 3906 15af 01       		.byte	0x1
 3907 15b0 8C01     		.2byte	0x18c
 3908 15b2 CD0C0000 		.4byte	0xccd
 3909 15b6 F4040000 		.4byte	.LLST32
 3910 15ba 32       		.uleb128 0x32
 3911 15bb 04210000 		.4byte	.LASF412
 3912 15bf 01       		.byte	0x1
 3913 15c0 8E01     		.2byte	0x18e
 3914 15c2 7B100000 		.4byte	0x107b
 3915 15c6 01       		.uleb128 0x1
 3916 15c7 50       		.byte	0x50
 3917 15c8 28       		.uleb128 0x28
 3918 15c9 18000000 		.4byte	.LVL84
 3919 15cd B7190000 		.4byte	0x19b7
 3920 15d1 29       		.uleb128 0x29
 3921 15d2 01       		.uleb128 0x1
 3922 15d3 50       		.byte	0x50
 3923 15d4 05       		.uleb128 0x5
 3924 15d5 03       		.byte	0x3
 3925 15d6 00000000 		.4byte	.LC2
 3926 15da 29       		.uleb128 0x29
 3927 15db 01       		.uleb128 0x1
 3928 15dc 51       		.byte	0x51
 3929 15dd 03       		.uleb128 0x3
 3930 15de 0A       		.byte	0xa
 3931 15df 9001     		.2byte	0x190
 3932 15e1 00       		.byte	0
 3933 15e2 00       		.byte	0
 3934 15e3 20       		.uleb128 0x20
 3935 15e4 DD080000 		.4byte	.LASF429
 3936 15e8 02       		.byte	0x2
 3937 15e9 9602     		.2byte	0x296
 3938 15eb 03       		.byte	0x3
 3939 15ec 15160000 		.4byte	0x1615
 3940 15f0 1F       		.uleb128 0x1f
 3941 15f1 C5000000 		.4byte	.LASF382
 3942 15f5 02       		.byte	0x2
 3943 15f6 9602     		.2byte	0x296
 3944 15f8 7C0D0000 		.4byte	0xd7c
 3945 15fc 1F       		.uleb128 0x1f
 3946 15fd 6F0B0000 		.4byte	.LASF401
 3947 1601 02       		.byte	0x2
 3948 1602 9602     		.2byte	0x296
 3949 1604 CE000000 		.4byte	0xce
 3950 1608 1F       		.uleb128 0x1f
ARM GAS  C:\Users\Rolf\AppData\Local\Temp\ccUtnhQP.s 			page 128


 3951 1609 3F150000 		.4byte	.LASF402
 3952 160d 02       		.byte	0x2
 3953 160e 9602     		.2byte	0x296
 3954 1610 CE000000 		.4byte	0xce
 3955 1614 00       		.byte	0
 3956 1615 33       		.uleb128 0x33
 3957 1616 341E0000 		.4byte	.LASF430
 3958 161a 01       		.byte	0x1
 3959 161b C701     		.2byte	0x1c7
 3960 161d 00000000 		.4byte	.LFB73
 3961 1621 D0000000 		.4byte	.LFE73-.LFB73
 3962 1625 01       		.uleb128 0x1
 3963 1626 9C       		.byte	0x9c
 3964 1627 2C180000 		.4byte	0x182c
 3965 162b 2F       		.uleb128 0x2f
 3966 162c 04210000 		.4byte	.LASF412
 3967 1630 01       		.byte	0x1
 3968 1631 C701     		.2byte	0x1c7
 3969 1633 7B100000 		.4byte	0x107b
 3970 1637 1E050000 		.4byte	.LLST33
 3971 163b 32       		.uleb128 0x32
 3972 163c F9090000 		.4byte	.LASF394
 3973 1640 01       		.byte	0x1
 3974 1641 C901     		.2byte	0x1c9
 3975 1643 C70C0000 		.4byte	0xcc7
 3976 1647 02       		.uleb128 0x2
 3977 1648 91       		.byte	0x91
 3978 1649 6C       		.sleb128 -20
 3979 164a 30       		.uleb128 0x30
 3980 164b 3E200000 		.4byte	.LASF431
 3981 164f 01       		.byte	0x1
 3982 1650 CA01     		.2byte	0x1ca
 3983 1652 CE000000 		.4byte	0xce
 3984 1656 4A050000 		.4byte	.LLST34
 3985 165a 34       		.uleb128 0x34
 3986 165b F5110000 		.4byte	.LASF444
 3987 165f 01       		.byte	0x1
 3988 1660 CB01     		.2byte	0x1cb
 3989 1662 CE000000 		.4byte	0xce
 3990 1666 30       		.uleb128 0x30
 3991 1667 60190000 		.4byte	.LASF420
 3992 166b 01       		.byte	0x1
 3993 166c CC01     		.2byte	0x1cc
 3994 166e CE000000 		.4byte	0xce
 3995 1672 6E050000 		.4byte	.LLST35
 3996 1676 30       		.uleb128 0x30
 3997 1677 BA1F0000 		.4byte	.LASF432
 3998 167b 01       		.byte	0x1
 3999 167c CE01     		.2byte	0x1ce
 4000 167e AB0C0000 		.4byte	0xcab
 4001 1682 A4050000 		.4byte	.LLST36
 4002 1686 2D       		.uleb128 0x2d
 4003 1687 820F0000 		.4byte	0xf82
 4004 168b 4A000000 		.4byte	.LBB76
 4005 168f 02000000 		.4byte	.LBE76-.LBB76
 4006 1693 01       		.byte	0x1
 4007 1694 D701     		.2byte	0x1d7
ARM GAS  C:\Users\Rolf\AppData\Local\Temp\ccUtnhQP.s 			page 129


 4008 1696 A4160000 		.4byte	0x16a4
 4009 169a 27       		.uleb128 0x27
 4010 169b 930F0000 		.4byte	0xf93
 4011 169f B7050000 		.4byte	.LLST37
 4012 16a3 00       		.byte	0
 4013 16a4 2D       		.uleb128 0x2d
 4014 16a5 640F0000 		.4byte	0xf64
 4015 16a9 4C000000 		.4byte	.LBB78
 4016 16ad 02000000 		.4byte	.LBE78-.LBB78
 4017 16b1 01       		.byte	0x1
 4018 16b2 DA01     		.2byte	0x1da
 4019 16b4 BE160000 		.4byte	0x16be
 4020 16b8 35       		.uleb128 0x35
 4021 16b9 750F0000 		.4byte	0xf75
 4022 16bd 00       		.byte	0
 4023 16be 2D       		.uleb128 0x2d
 4024 16bf E3150000 		.4byte	0x15e3
 4025 16c3 50000000 		.4byte	.LBB80
 4026 16c7 06000000 		.4byte	.LBE80-.LBB80
 4027 16cb 01       		.byte	0x1
 4028 16cc DD01     		.2byte	0x1dd
 4029 16ce E2160000 		.4byte	0x16e2
 4030 16d2 35       		.uleb128 0x35
 4031 16d3 08160000 		.4byte	0x1608
 4032 16d7 35       		.uleb128 0x35
 4033 16d8 FC150000 		.4byte	0x15fc
 4034 16dc 35       		.uleb128 0x35
 4035 16dd F0150000 		.4byte	0x15f0
 4036 16e1 00       		.byte	0
 4037 16e2 2D       		.uleb128 0x2d
 4038 16e3 AB0F0000 		.4byte	0xfab
 4039 16e7 58000000 		.4byte	.LBB82
 4040 16eb 0C000000 		.4byte	.LBE82-.LBB82
 4041 16ef 01       		.byte	0x1
 4042 16f0 DF01     		.2byte	0x1df
 4043 16f2 00170000 		.4byte	0x1700
 4044 16f6 27       		.uleb128 0x27
 4045 16f7 BC0F0000 		.4byte	0xfbc
 4046 16fb CA050000 		.4byte	.LLST38
 4047 16ff 00       		.byte	0
 4048 1700 2D       		.uleb128 0x2d
 4049 1701 D00F0000 		.4byte	0xfd0
 4050 1705 68000000 		.4byte	.LBB84
 4051 1709 06000000 		.4byte	.LBE84-.LBB84
 4052 170d 01       		.byte	0x1
 4053 170e E201     		.2byte	0x1e2
 4054 1710 37170000 		.4byte	0x1737
 4055 1714 27       		.uleb128 0x27
 4056 1715 ED0F0000 		.4byte	0xfed
 4057 1719 DD050000 		.4byte	.LLST39
 4058 171d 27       		.uleb128 0x27
 4059 171e E10F0000 		.4byte	0xfe1
 4060 1722 0A060000 		.4byte	.LLST40
 4061 1726 28       		.uleb128 0x28
 4062 1727 6E000000 		.4byte	.LVL101
 4063 172b CF190000 		.4byte	0x19cf
 4064 172f 29       		.uleb128 0x29
ARM GAS  C:\Users\Rolf\AppData\Local\Temp\ccUtnhQP.s 			page 130


 4065 1730 01       		.uleb128 0x1
 4066 1731 51       		.byte	0x51
 4067 1732 02       		.uleb128 0x2
 4068 1733 91       		.byte	0x91
 4069 1734 6C       		.sleb128 -20
 4070 1735 00       		.byte	0
 4071 1736 00       		.byte	0
 4072 1737 2D       		.uleb128 0x2d
 4073 1738 02100000 		.4byte	0x1002
 4074 173c 9A000000 		.4byte	.LBB86
 4075 1740 04000000 		.4byte	.LBE86-.LBB86
 4076 1744 01       		.byte	0x1
 4077 1745 FA01     		.2byte	0x1fa
 4078 1747 55170000 		.4byte	0x1755
 4079 174b 27       		.uleb128 0x27
 4080 174c 13100000 		.4byte	0x1013
 4081 1750 1D060000 		.4byte	.LLST41
 4082 1754 00       		.byte	0
 4083 1755 2D       		.uleb128 0x2d
 4084 1756 E3150000 		.4byte	0x15e3
 4085 175a A2000000 		.4byte	.LBB88
 4086 175e 04000000 		.4byte	.LBE88-.LBB88
 4087 1762 01       		.byte	0x1
 4088 1763 FD01     		.2byte	0x1fd
 4089 1765 85170000 		.4byte	0x1785
 4090 1769 27       		.uleb128 0x27
 4091 176a 08160000 		.4byte	0x1608
 4092 176e 30060000 		.4byte	.LLST42
 4093 1772 27       		.uleb128 0x27
 4094 1773 FC150000 		.4byte	0x15fc
 4095 1777 44060000 		.4byte	.LLST43
 4096 177b 27       		.uleb128 0x27
 4097 177c F0150000 		.4byte	0x15f0
 4098 1780 57060000 		.4byte	.LLST44
 4099 1784 00       		.byte	0
 4100 1785 2D       		.uleb128 0x2d
 4101 1786 20100000 		.4byte	0x1020
 4102 178a C2000000 		.4byte	.LBB90
 4103 178e 02000000 		.4byte	.LBE90-.LBB90
 4104 1792 01       		.byte	0x1
 4105 1793 1202     		.2byte	0x212
 4106 1795 A3170000 		.4byte	0x17a3
 4107 1799 27       		.uleb128 0x27
 4108 179a 31100000 		.4byte	0x1031
 4109 179e 6A060000 		.4byte	.LLST45
 4110 17a2 00       		.byte	0
 4111 17a3 2A       		.uleb128 0x2a
 4112 17a4 18000000 		.4byte	.LVL91
 4113 17a8 B7190000 		.4byte	0x19b7
 4114 17ac C1170000 		.4byte	0x17c1
 4115 17b0 29       		.uleb128 0x29
 4116 17b1 01       		.uleb128 0x1
 4117 17b2 50       		.byte	0x50
 4118 17b3 05       		.uleb128 0x5
 4119 17b4 03       		.byte	0x3
 4120 17b5 00000000 		.4byte	.LC2
 4121 17b9 29       		.uleb128 0x29
ARM GAS  C:\Users\Rolf\AppData\Local\Temp\ccUtnhQP.s 			page 131


 4122 17ba 01       		.uleb128 0x1
 4123 17bb 51       		.byte	0x51
 4124 17bc 03       		.uleb128 0x3
 4125 17bd 0A       		.byte	0xa
 4126 17be D101     		.2byte	0x1d1
 4127 17c0 00       		.byte	0
 4128 17c1 2A       		.uleb128 0x2a
 4129 17c2 28000000 		.4byte	.LVL92
 4130 17c6 B7190000 		.4byte	0x19b7
 4131 17ca DF170000 		.4byte	0x17df
 4132 17ce 29       		.uleb128 0x29
 4133 17cf 01       		.uleb128 0x1
 4134 17d0 50       		.byte	0x50
 4135 17d1 05       		.uleb128 0x5
 4136 17d2 03       		.byte	0x3
 4137 17d3 00000000 		.4byte	.LC2
 4138 17d7 29       		.uleb128 0x29
 4139 17d8 01       		.uleb128 0x1
 4140 17d9 51       		.byte	0x51
 4141 17da 03       		.uleb128 0x3
 4142 17db 0A       		.byte	0xa
 4143 17dc D201     		.2byte	0x1d2
 4144 17de 00       		.byte	0
 4145 17df 2A       		.uleb128 0x2a
 4146 17e0 38000000 		.4byte	.LVL93
 4147 17e4 B7190000 		.4byte	0x19b7
 4148 17e8 FD170000 		.4byte	0x17fd
 4149 17ec 29       		.uleb128 0x29
 4150 17ed 01       		.uleb128 0x1
 4151 17ee 50       		.byte	0x50
 4152 17ef 05       		.uleb128 0x5
 4153 17f0 03       		.byte	0x3
 4154 17f1 00000000 		.4byte	.LC2
 4155 17f5 29       		.uleb128 0x29
 4156 17f6 01       		.uleb128 0x1
 4157 17f7 51       		.byte	0x51
 4158 17f8 03       		.uleb128 0x3
 4159 17f9 0A       		.byte	0xa
 4160 17fa D301     		.2byte	0x1d3
 4161 17fc 00       		.byte	0
 4162 17fd 2A       		.uleb128 0x2a
 4163 17fe 48000000 		.4byte	.LVL94
 4164 1802 B7190000 		.4byte	0x19b7
 4165 1806 1B180000 		.4byte	0x181b
 4166 180a 29       		.uleb128 0x29
 4167 180b 01       		.uleb128 0x1
 4168 180c 50       		.byte	0x50
 4169 180d 05       		.uleb128 0x5
 4170 180e 03       		.byte	0x3
 4171 180f 00000000 		.4byte	.LC2
 4172 1813 29       		.uleb128 0x29
 4173 1814 01       		.uleb128 0x1
 4174 1815 51       		.byte	0x51
 4175 1816 03       		.uleb128 0x3
 4176 1817 0A       		.byte	0xa
 4177 1818 D401     		.2byte	0x1d4
 4178 181a 00       		.byte	0
ARM GAS  C:\Users\Rolf\AppData\Local\Temp\ccUtnhQP.s 			page 132


 4179 181b 28       		.uleb128 0x28
 4180 181c 9A000000 		.4byte	.LVL109
 4181 1820 DB190000 		.4byte	0x19db
 4182 1824 29       		.uleb128 0x29
 4183 1825 01       		.uleb128 0x1
 4184 1826 51       		.byte	0x51
 4185 1827 02       		.uleb128 0x2
 4186 1828 76       		.byte	0x76
 4187 1829 00       		.sleb128 0
 4188 182a 00       		.byte	0
 4189 182b 00       		.byte	0
 4190 182c 31       		.uleb128 0x31
 4191 182d D3180000 		.4byte	.LASF433
 4192 1831 01       		.byte	0x1
 4193 1832 AD01     		.2byte	0x1ad
 4194 1834 00000000 		.4byte	.LFB72
 4195 1838 30000000 		.4byte	.LFE72-.LFB72
 4196 183c 01       		.uleb128 0x1
 4197 183d 9C       		.byte	0x9c
 4198 183e 8A180000 		.4byte	0x188a
 4199 1842 2F       		.uleb128 0x2f
 4200 1843 960D0000 		.4byte	.LASF406
 4201 1847 01       		.byte	0x1
 4202 1848 AD01     		.2byte	0x1ad
 4203 184a CE000000 		.4byte	0xce
 4204 184e 7D060000 		.4byte	.LLST46
 4205 1852 30       		.uleb128 0x30
 4206 1853 04210000 		.4byte	.LASF412
 4207 1857 01       		.byte	0x1
 4208 1858 AF01     		.2byte	0x1af
 4209 185a 7B100000 		.4byte	0x107b
 4210 185e A9060000 		.4byte	.LLST47
 4211 1862 2A       		.uleb128 0x2a
 4212 1863 16000000 		.4byte	.LVL120
 4213 1867 B7190000 		.4byte	0x19b7
 4214 186b 80180000 		.4byte	0x1880
 4215 186f 29       		.uleb128 0x29
 4216 1870 01       		.uleb128 0x1
 4217 1871 50       		.byte	0x50
 4218 1872 05       		.uleb128 0x5
 4219 1873 03       		.byte	0x3
 4220 1874 00000000 		.4byte	.LC2
 4221 1878 29       		.uleb128 0x29
 4222 1879 01       		.uleb128 0x1
 4223 187a 51       		.byte	0x51
 4224 187b 03       		.uleb128 0x3
 4225 187c 0A       		.byte	0xa
 4226 187d B101     		.2byte	0x1b1
 4227 187f 00       		.byte	0
 4228 1880 36       		.uleb128 0x36
 4229 1881 24000000 		.4byte	.LVL122
 4230 1885 15160000 		.4byte	0x1615
 4231 1889 00       		.byte	0
 4232 188a 2E       		.uleb128 0x2e
 4233 188b 450E0000 		.4byte	.LASF434
 4234 188f 01       		.byte	0x1
 4235 1890 2702     		.2byte	0x227
ARM GAS  C:\Users\Rolf\AppData\Local\Temp\ccUtnhQP.s 			page 133


 4236 1892 9A0E0000 		.4byte	0xe9a
 4237 1896 00000000 		.4byte	.LFB74
 4238 189a 50000000 		.4byte	.LFE74-.LFB74
 4239 189e 01       		.uleb128 0x1
 4240 189f 9C       		.byte	0x9c
 4241 18a0 1D190000 		.4byte	0x191d
 4242 18a4 2F       		.uleb128 0x2f
 4243 18a5 960D0000 		.4byte	.LASF406
 4244 18a9 01       		.byte	0x1
 4245 18aa 2702     		.2byte	0x227
 4246 18ac CE000000 		.4byte	0xce
 4247 18b0 BC060000 		.4byte	.LLST48
 4248 18b4 30       		.uleb128 0x30
 4249 18b5 04210000 		.4byte	.LASF412
 4250 18b9 01       		.byte	0x1
 4251 18ba 2902     		.2byte	0x229
 4252 18bc 7B100000 		.4byte	0x107b
 4253 18c0 E8060000 		.4byte	.LLST49
 4254 18c4 2D       		.uleb128 0x2d
 4255 18c5 3E100000 		.4byte	0x103e
 4256 18c9 22000000 		.4byte	.LBB92
 4257 18cd 1A000000 		.4byte	.LBE92-.LBB92
 4258 18d1 01       		.byte	0x1
 4259 18d2 3002     		.2byte	0x230
 4260 18d4 02190000 		.4byte	0x1902
 4261 18d8 27       		.uleb128 0x27
 4262 18d9 4B100000 		.4byte	0x104b
 4263 18dd FB060000 		.4byte	.LLST50
 4264 18e1 37       		.uleb128 0x37
 4265 18e2 AE0E0000 		.4byte	0xeae
 4266 18e6 34000000 		.4byte	.LBB94
 4267 18ea 04000000 		.4byte	.LBE94-.LBB94
 4268 18ee 03       		.byte	0x3
 4269 18ef 0603     		.2byte	0x306
 4270 18f1 37       		.uleb128 0x37
 4271 18f2 A50E0000 		.4byte	0xea5
 4272 18f6 38000000 		.4byte	.LBB96
 4273 18fa 04000000 		.4byte	.LBE96-.LBB96
 4274 18fe 03       		.byte	0x3
 4275 18ff 0703     		.2byte	0x307
 4276 1901 00       		.byte	0
 4277 1902 28       		.uleb128 0x28
 4278 1903 14000000 		.4byte	.LVL126
 4279 1907 B7190000 		.4byte	0x19b7
 4280 190b 29       		.uleb128 0x29
 4281 190c 01       		.uleb128 0x1
 4282 190d 50       		.byte	0x50
 4283 190e 05       		.uleb128 0x5
 4284 190f 03       		.byte	0x3
 4285 1910 00000000 		.4byte	.LC2
 4286 1914 29       		.uleb128 0x29
 4287 1915 01       		.uleb128 0x1
 4288 1916 51       		.byte	0x51
 4289 1917 03       		.uleb128 0x3
 4290 1918 0A       		.byte	0xa
 4291 1919 2B02     		.2byte	0x22b
 4292 191b 00       		.byte	0
ARM GAS  C:\Users\Rolf\AppData\Local\Temp\ccUtnhQP.s 			page 134


 4293 191c 00       		.byte	0
 4294 191d 2E       		.uleb128 0x2e
 4295 191e 69100000 		.4byte	.LASF435
 4296 1922 01       		.byte	0x1
 4297 1923 4702     		.2byte	0x247
 4298 1925 9A0E0000 		.4byte	0xe9a
 4299 1929 00000000 		.4byte	.LFB75
 4300 192d 48000000 		.4byte	.LFE75-.LFB75
 4301 1931 01       		.uleb128 0x1
 4302 1932 9C       		.byte	0x9c
 4303 1933 90190000 		.4byte	0x1990
 4304 1937 2F       		.uleb128 0x2f
 4305 1938 960D0000 		.4byte	.LASF406
 4306 193c 01       		.byte	0x1
 4307 193d 4702     		.2byte	0x247
 4308 193f CE000000 		.4byte	0xce
 4309 1943 1A070000 		.4byte	.LLST51
 4310 1947 30       		.uleb128 0x30
 4311 1948 04210000 		.4byte	.LASF412
 4312 194c 01       		.byte	0x1
 4313 194d 4902     		.2byte	0x249
 4314 194f 7B100000 		.4byte	0x107b
 4315 1953 46070000 		.4byte	.LLST52
 4316 1957 2D       		.uleb128 0x2d
 4317 1958 D50E0000 		.4byte	0xed5
 4318 195c 22000000 		.4byte	.LBB98
 4319 1960 10000000 		.4byte	.LBE98-.LBB98
 4320 1964 01       		.byte	0x1
 4321 1965 5002     		.2byte	0x250
 4322 1967 75190000 		.4byte	0x1975
 4323 196b 27       		.uleb128 0x27
 4324 196c E20E0000 		.4byte	0xee2
 4325 1970 59070000 		.4byte	.LLST53
 4326 1974 00       		.byte	0
 4327 1975 28       		.uleb128 0x28
 4328 1976 14000000 		.4byte	.LVL135
 4329 197a B7190000 		.4byte	0x19b7
 4330 197e 29       		.uleb128 0x29
 4331 197f 01       		.uleb128 0x1
 4332 1980 50       		.byte	0x50
 4333 1981 05       		.uleb128 0x5
 4334 1982 03       		.byte	0x3
 4335 1983 00000000 		.4byte	.LC2
 4336 1987 29       		.uleb128 0x29
 4337 1988 01       		.uleb128 0x1
 4338 1989 51       		.byte	0x51
 4339 198a 03       		.uleb128 0x3
 4340 198b 0A       		.byte	0xa
 4341 198c 4B02     		.2byte	0x24b
 4342 198e 00       		.byte	0
 4343 198f 00       		.byte	0
 4344 1990 2B       		.uleb128 0x2b
 4345 1991 B3180000 		.4byte	.LASF436
 4346 1995 01       		.byte	0x1
 4347 1996 13       		.byte	0x13
 4348 1997 7B100000 		.4byte	0x107b
 4349 199b 05       		.uleb128 0x5
ARM GAS  C:\Users\Rolf\AppData\Local\Temp\ccUtnhQP.s 			page 135


 4350 199c 03       		.byte	0x3
 4351 199d 00000000 		.4byte	cy_ipc_pipe_epArray
 4352 19a1 38       		.uleb128 0x38
 4353 19a2 9A000000 		.4byte	.LASF445
 4354 19a6 08       		.byte	0x8
 4355 19a7 A7       		.byte	0xa7
 4356 19a8 AC190000 		.4byte	0x19ac
 4357 19ac 16       		.uleb128 0x16
 4358 19ad 04       		.byte	0x4
 4359 19ae B2190000 		.4byte	0x19b2
 4360 19b2 06       		.uleb128 0x6
 4361 19b3 68060000 		.4byte	0x668
 4362 19b7 39       		.uleb128 0x39
 4363 19b8 B90D0000 		.4byte	.LASF437
 4364 19bc B90D0000 		.4byte	.LASF437
 4365 19c0 0B       		.byte	0xb
 4366 19c1 9203     		.2byte	0x392
 4367 19c3 39       		.uleb128 0x39
 4368 19c4 0E020000 		.4byte	.LASF438
 4369 19c8 0E020000 		.4byte	.LASF438
 4370 19cc 0C       		.byte	0xc
 4371 19cd 6601     		.2byte	0x166
 4372 19cf 39       		.uleb128 0x39
 4373 19d0 BC0C0000 		.4byte	.LASF439
 4374 19d4 BC0C0000 		.4byte	.LASF439
 4375 19d8 02       		.byte	0x2
 4376 19d9 9D01     		.2byte	0x19d
 4377 19db 39       		.uleb128 0x39
 4378 19dc 87020000 		.4byte	.LASF440
 4379 19e0 87020000 		.4byte	.LASF440
 4380 19e4 02       		.byte	0x2
 4381 19e5 9801     		.2byte	0x198
 4382 19e7 00       		.byte	0
 4383              		.section	.debug_abbrev,"",%progbits
 4384              	.Ldebug_abbrev0:
 4385 0000 01       		.uleb128 0x1
 4386 0001 11       		.uleb128 0x11
 4387 0002 01       		.byte	0x1
 4388 0003 25       		.uleb128 0x25
 4389 0004 0E       		.uleb128 0xe
 4390 0005 13       		.uleb128 0x13
 4391 0006 0B       		.uleb128 0xb
 4392 0007 03       		.uleb128 0x3
 4393 0008 0E       		.uleb128 0xe
 4394 0009 1B       		.uleb128 0x1b
 4395 000a 0E       		.uleb128 0xe
 4396 000b 55       		.uleb128 0x55
 4397 000c 17       		.uleb128 0x17
 4398 000d 11       		.uleb128 0x11
 4399 000e 01       		.uleb128 0x1
 4400 000f 10       		.uleb128 0x10
 4401 0010 17       		.uleb128 0x17
 4402 0011 00       		.byte	0
 4403 0012 00       		.byte	0
 4404 0013 02       		.uleb128 0x2
 4405 0014 24       		.uleb128 0x24
 4406 0015 00       		.byte	0
ARM GAS  C:\Users\Rolf\AppData\Local\Temp\ccUtnhQP.s 			page 136


 4407 0016 0B       		.uleb128 0xb
 4408 0017 0B       		.uleb128 0xb
 4409 0018 3E       		.uleb128 0x3e
 4410 0019 0B       		.uleb128 0xb
 4411 001a 03       		.uleb128 0x3
 4412 001b 0E       		.uleb128 0xe
 4413 001c 00       		.byte	0
 4414 001d 00       		.byte	0
 4415 001e 03       		.uleb128 0x3
 4416 001f 16       		.uleb128 0x16
 4417 0020 00       		.byte	0
 4418 0021 03       		.uleb128 0x3
 4419 0022 0E       		.uleb128 0xe
 4420 0023 3A       		.uleb128 0x3a
 4421 0024 0B       		.uleb128 0xb
 4422 0025 3B       		.uleb128 0x3b
 4423 0026 0B       		.uleb128 0xb
 4424 0027 49       		.uleb128 0x49
 4425 0028 13       		.uleb128 0x13
 4426 0029 00       		.byte	0
 4427 002a 00       		.byte	0
 4428 002b 04       		.uleb128 0x4
 4429 002c 24       		.uleb128 0x24
 4430 002d 00       		.byte	0
 4431 002e 0B       		.uleb128 0xb
 4432 002f 0B       		.uleb128 0xb
 4433 0030 3E       		.uleb128 0x3e
 4434 0031 0B       		.uleb128 0xb
 4435 0032 03       		.uleb128 0x3
 4436 0033 08       		.uleb128 0x8
 4437 0034 00       		.byte	0
 4438 0035 00       		.byte	0
 4439 0036 05       		.uleb128 0x5
 4440 0037 35       		.uleb128 0x35
 4441 0038 00       		.byte	0
 4442 0039 49       		.uleb128 0x49
 4443 003a 13       		.uleb128 0x13
 4444 003b 00       		.byte	0
 4445 003c 00       		.byte	0
 4446 003d 06       		.uleb128 0x6
 4447 003e 26       		.uleb128 0x26
 4448 003f 00       		.byte	0
 4449 0040 49       		.uleb128 0x49
 4450 0041 13       		.uleb128 0x13
 4451 0042 00       		.byte	0
 4452 0043 00       		.byte	0
 4453 0044 07       		.uleb128 0x7
 4454 0045 01       		.uleb128 0x1
 4455 0046 01       		.byte	0x1
 4456 0047 49       		.uleb128 0x49
 4457 0048 13       		.uleb128 0x13
 4458 0049 01       		.uleb128 0x1
 4459 004a 13       		.uleb128 0x13
 4460 004b 00       		.byte	0
 4461 004c 00       		.byte	0
 4462 004d 08       		.uleb128 0x8
 4463 004e 21       		.uleb128 0x21
ARM GAS  C:\Users\Rolf\AppData\Local\Temp\ccUtnhQP.s 			page 137


 4464 004f 00       		.byte	0
 4465 0050 49       		.uleb128 0x49
 4466 0051 13       		.uleb128 0x13
 4467 0052 2F       		.uleb128 0x2f
 4468 0053 0B       		.uleb128 0xb
 4469 0054 00       		.byte	0
 4470 0055 00       		.byte	0
 4471 0056 09       		.uleb128 0x9
 4472 0057 13       		.uleb128 0x13
 4473 0058 01       		.byte	0x1
 4474 0059 0B       		.uleb128 0xb
 4475 005a 0B       		.uleb128 0xb
 4476 005b 3A       		.uleb128 0x3a
 4477 005c 0B       		.uleb128 0xb
 4478 005d 3B       		.uleb128 0x3b
 4479 005e 0B       		.uleb128 0xb
 4480 005f 01       		.uleb128 0x1
 4481 0060 13       		.uleb128 0x13
 4482 0061 00       		.byte	0
 4483 0062 00       		.byte	0
 4484 0063 0A       		.uleb128 0xa
 4485 0064 0D       		.uleb128 0xd
 4486 0065 00       		.byte	0
 4487 0066 03       		.uleb128 0x3
 4488 0067 0E       		.uleb128 0xe
 4489 0068 3A       		.uleb128 0x3a
 4490 0069 0B       		.uleb128 0xb
 4491 006a 3B       		.uleb128 0x3b
 4492 006b 0B       		.uleb128 0xb
 4493 006c 49       		.uleb128 0x49
 4494 006d 13       		.uleb128 0x13
 4495 006e 38       		.uleb128 0x38
 4496 006f 0B       		.uleb128 0xb
 4497 0070 00       		.byte	0
 4498 0071 00       		.byte	0
 4499 0072 0B       		.uleb128 0xb
 4500 0073 13       		.uleb128 0x13
 4501 0074 01       		.byte	0x1
 4502 0075 0B       		.uleb128 0xb
 4503 0076 05       		.uleb128 0x5
 4504 0077 3A       		.uleb128 0x3a
 4505 0078 0B       		.uleb128 0xb
 4506 0079 3B       		.uleb128 0x3b
 4507 007a 0B       		.uleb128 0xb
 4508 007b 01       		.uleb128 0x1
 4509 007c 13       		.uleb128 0x13
 4510 007d 00       		.byte	0
 4511 007e 00       		.byte	0
 4512 007f 0C       		.uleb128 0xc
 4513 0080 0D       		.uleb128 0xd
 4514 0081 00       		.byte	0
 4515 0082 03       		.uleb128 0x3
 4516 0083 0E       		.uleb128 0xe
 4517 0084 3A       		.uleb128 0x3a
 4518 0085 0B       		.uleb128 0xb
 4519 0086 3B       		.uleb128 0x3b
 4520 0087 0B       		.uleb128 0xb
ARM GAS  C:\Users\Rolf\AppData\Local\Temp\ccUtnhQP.s 			page 138


 4521 0088 49       		.uleb128 0x49
 4522 0089 13       		.uleb128 0x13
 4523 008a 38       		.uleb128 0x38
 4524 008b 05       		.uleb128 0x5
 4525 008c 00       		.byte	0
 4526 008d 00       		.byte	0
 4527 008e 0D       		.uleb128 0xd
 4528 008f 21       		.uleb128 0x21
 4529 0090 00       		.byte	0
 4530 0091 49       		.uleb128 0x49
 4531 0092 13       		.uleb128 0x13
 4532 0093 2F       		.uleb128 0x2f
 4533 0094 05       		.uleb128 0x5
 4534 0095 00       		.byte	0
 4535 0096 00       		.byte	0
 4536 0097 0E       		.uleb128 0xe
 4537 0098 04       		.uleb128 0x4
 4538 0099 01       		.byte	0x1
 4539 009a 0B       		.uleb128 0xb
 4540 009b 0B       		.uleb128 0xb
 4541 009c 49       		.uleb128 0x49
 4542 009d 13       		.uleb128 0x13
 4543 009e 3A       		.uleb128 0x3a
 4544 009f 0B       		.uleb128 0xb
 4545 00a0 3B       		.uleb128 0x3b
 4546 00a1 0B       		.uleb128 0xb
 4547 00a2 01       		.uleb128 0x1
 4548 00a3 13       		.uleb128 0x13
 4549 00a4 00       		.byte	0
 4550 00a5 00       		.byte	0
 4551 00a6 0F       		.uleb128 0xf
 4552 00a7 28       		.uleb128 0x28
 4553 00a8 00       		.byte	0
 4554 00a9 03       		.uleb128 0x3
 4555 00aa 0E       		.uleb128 0xe
 4556 00ab 1C       		.uleb128 0x1c
 4557 00ac 0D       		.uleb128 0xd
 4558 00ad 00       		.byte	0
 4559 00ae 00       		.byte	0
 4560 00af 10       		.uleb128 0x10
 4561 00b0 28       		.uleb128 0x28
 4562 00b1 00       		.byte	0
 4563 00b2 03       		.uleb128 0x3
 4564 00b3 0E       		.uleb128 0xe
 4565 00b4 1C       		.uleb128 0x1c
 4566 00b5 0B       		.uleb128 0xb
 4567 00b6 00       		.byte	0
 4568 00b7 00       		.byte	0
 4569 00b8 11       		.uleb128 0x11
 4570 00b9 16       		.uleb128 0x16
 4571 00ba 00       		.byte	0
 4572 00bb 03       		.uleb128 0x3
 4573 00bc 0E       		.uleb128 0xe
 4574 00bd 3A       		.uleb128 0x3a
 4575 00be 0B       		.uleb128 0xb
 4576 00bf 3B       		.uleb128 0x3b
 4577 00c0 05       		.uleb128 0x5
ARM GAS  C:\Users\Rolf\AppData\Local\Temp\ccUtnhQP.s 			page 139


 4578 00c1 49       		.uleb128 0x49
 4579 00c2 13       		.uleb128 0x13
 4580 00c3 00       		.byte	0
 4581 00c4 00       		.byte	0
 4582 00c5 12       		.uleb128 0x12
 4583 00c6 13       		.uleb128 0x13
 4584 00c7 01       		.byte	0x1
 4585 00c8 0B       		.uleb128 0xb
 4586 00c9 05       		.uleb128 0x5
 4587 00ca 3A       		.uleb128 0x3a
 4588 00cb 0B       		.uleb128 0xb
 4589 00cc 3B       		.uleb128 0x3b
 4590 00cd 05       		.uleb128 0x5
 4591 00ce 01       		.uleb128 0x1
 4592 00cf 13       		.uleb128 0x13
 4593 00d0 00       		.byte	0
 4594 00d1 00       		.byte	0
 4595 00d2 13       		.uleb128 0x13
 4596 00d3 0D       		.uleb128 0xd
 4597 00d4 00       		.byte	0
 4598 00d5 03       		.uleb128 0x3
 4599 00d6 0E       		.uleb128 0xe
 4600 00d7 3A       		.uleb128 0x3a
 4601 00d8 0B       		.uleb128 0xb
 4602 00d9 3B       		.uleb128 0x3b
 4603 00da 05       		.uleb128 0x5
 4604 00db 49       		.uleb128 0x49
 4605 00dc 13       		.uleb128 0x13
 4606 00dd 38       		.uleb128 0x38
 4607 00de 0B       		.uleb128 0xb
 4608 00df 00       		.byte	0
 4609 00e0 00       		.byte	0
 4610 00e1 14       		.uleb128 0x14
 4611 00e2 0D       		.uleb128 0xd
 4612 00e3 00       		.byte	0
 4613 00e4 03       		.uleb128 0x3
 4614 00e5 0E       		.uleb128 0xe
 4615 00e6 3A       		.uleb128 0x3a
 4616 00e7 0B       		.uleb128 0xb
 4617 00e8 3B       		.uleb128 0x3b
 4618 00e9 05       		.uleb128 0x5
 4619 00ea 49       		.uleb128 0x49
 4620 00eb 13       		.uleb128 0x13
 4621 00ec 38       		.uleb128 0x38
 4622 00ed 05       		.uleb128 0x5
 4623 00ee 00       		.byte	0
 4624 00ef 00       		.byte	0
 4625 00f0 15       		.uleb128 0x15
 4626 00f1 0D       		.uleb128 0xd
 4627 00f2 00       		.byte	0
 4628 00f3 03       		.uleb128 0x3
 4629 00f4 08       		.uleb128 0x8
 4630 00f5 3A       		.uleb128 0x3a
 4631 00f6 0B       		.uleb128 0xb
 4632 00f7 3B       		.uleb128 0x3b
 4633 00f8 05       		.uleb128 0x5
 4634 00f9 49       		.uleb128 0x49
ARM GAS  C:\Users\Rolf\AppData\Local\Temp\ccUtnhQP.s 			page 140


 4635 00fa 13       		.uleb128 0x13
 4636 00fb 38       		.uleb128 0x38
 4637 00fc 05       		.uleb128 0x5
 4638 00fd 00       		.byte	0
 4639 00fe 00       		.byte	0
 4640 00ff 16       		.uleb128 0x16
 4641 0100 0F       		.uleb128 0xf
 4642 0101 00       		.byte	0
 4643 0102 0B       		.uleb128 0xb
 4644 0103 0B       		.uleb128 0xb
 4645 0104 49       		.uleb128 0x49
 4646 0105 13       		.uleb128 0x13
 4647 0106 00       		.byte	0
 4648 0107 00       		.byte	0
 4649 0108 17       		.uleb128 0x17
 4650 0109 15       		.uleb128 0x15
 4651 010a 00       		.byte	0
 4652 010b 27       		.uleb128 0x27
 4653 010c 19       		.uleb128 0x19
 4654 010d 00       		.byte	0
 4655 010e 00       		.byte	0
 4656 010f 18       		.uleb128 0x18
 4657 0110 04       		.uleb128 0x4
 4658 0111 01       		.byte	0x1
 4659 0112 0B       		.uleb128 0xb
 4660 0113 0B       		.uleb128 0xb
 4661 0114 49       		.uleb128 0x49
 4662 0115 13       		.uleb128 0x13
 4663 0116 3A       		.uleb128 0x3a
 4664 0117 0B       		.uleb128 0xb
 4665 0118 3B       		.uleb128 0x3b
 4666 0119 05       		.uleb128 0x5
 4667 011a 01       		.uleb128 0x1
 4668 011b 13       		.uleb128 0x13
 4669 011c 00       		.byte	0
 4670 011d 00       		.byte	0
 4671 011e 19       		.uleb128 0x19
 4672 011f 28       		.uleb128 0x28
 4673 0120 00       		.byte	0
 4674 0121 03       		.uleb128 0x3
 4675 0122 0E       		.uleb128 0xe
 4676 0123 1C       		.uleb128 0x1c
 4677 0124 06       		.uleb128 0x6
 4678 0125 00       		.byte	0
 4679 0126 00       		.byte	0
 4680 0127 1A       		.uleb128 0x1a
 4681 0128 13       		.uleb128 0x13
 4682 0129 01       		.byte	0x1
 4683 012a 0B       		.uleb128 0xb
 4684 012b 0B       		.uleb128 0xb
 4685 012c 3A       		.uleb128 0x3a
 4686 012d 0B       		.uleb128 0xb
 4687 012e 3B       		.uleb128 0x3b
 4688 012f 05       		.uleb128 0x5
 4689 0130 01       		.uleb128 0x1
 4690 0131 13       		.uleb128 0x13
 4691 0132 00       		.byte	0
ARM GAS  C:\Users\Rolf\AppData\Local\Temp\ccUtnhQP.s 			page 141


 4692 0133 00       		.byte	0
 4693 0134 1B       		.uleb128 0x1b
 4694 0135 15       		.uleb128 0x15
 4695 0136 01       		.byte	0x1
 4696 0137 27       		.uleb128 0x27
 4697 0138 19       		.uleb128 0x19
 4698 0139 01       		.uleb128 0x1
 4699 013a 13       		.uleb128 0x13
 4700 013b 00       		.byte	0
 4701 013c 00       		.byte	0
 4702 013d 1C       		.uleb128 0x1c
 4703 013e 05       		.uleb128 0x5
 4704 013f 00       		.byte	0
 4705 0140 49       		.uleb128 0x49
 4706 0141 13       		.uleb128 0x13
 4707 0142 00       		.byte	0
 4708 0143 00       		.byte	0
 4709 0144 1D       		.uleb128 0x1d
 4710 0145 2E       		.uleb128 0x2e
 4711 0146 00       		.byte	0
 4712 0147 03       		.uleb128 0x3
 4713 0148 0E       		.uleb128 0xe
 4714 0149 3A       		.uleb128 0x3a
 4715 014a 0B       		.uleb128 0xb
 4716 014b 3B       		.uleb128 0x3b
 4717 014c 05       		.uleb128 0x5
 4718 014d 27       		.uleb128 0x27
 4719 014e 19       		.uleb128 0x19
 4720 014f 20       		.uleb128 0x20
 4721 0150 0B       		.uleb128 0xb
 4722 0151 00       		.byte	0
 4723 0152 00       		.byte	0
 4724 0153 1E       		.uleb128 0x1e
 4725 0154 2E       		.uleb128 0x2e
 4726 0155 01       		.byte	0x1
 4727 0156 03       		.uleb128 0x3
 4728 0157 0E       		.uleb128 0xe
 4729 0158 3A       		.uleb128 0x3a
 4730 0159 0B       		.uleb128 0xb
 4731 015a 3B       		.uleb128 0x3b
 4732 015b 05       		.uleb128 0x5
 4733 015c 27       		.uleb128 0x27
 4734 015d 19       		.uleb128 0x19
 4735 015e 49       		.uleb128 0x49
 4736 015f 13       		.uleb128 0x13
 4737 0160 20       		.uleb128 0x20
 4738 0161 0B       		.uleb128 0xb
 4739 0162 01       		.uleb128 0x1
 4740 0163 13       		.uleb128 0x13
 4741 0164 00       		.byte	0
 4742 0165 00       		.byte	0
 4743 0166 1F       		.uleb128 0x1f
 4744 0167 05       		.uleb128 0x5
 4745 0168 00       		.byte	0
 4746 0169 03       		.uleb128 0x3
 4747 016a 0E       		.uleb128 0xe
 4748 016b 3A       		.uleb128 0x3a
ARM GAS  C:\Users\Rolf\AppData\Local\Temp\ccUtnhQP.s 			page 142


 4749 016c 0B       		.uleb128 0xb
 4750 016d 3B       		.uleb128 0x3b
 4751 016e 05       		.uleb128 0x5
 4752 016f 49       		.uleb128 0x49
 4753 0170 13       		.uleb128 0x13
 4754 0171 00       		.byte	0
 4755 0172 00       		.byte	0
 4756 0173 20       		.uleb128 0x20
 4757 0174 2E       		.uleb128 0x2e
 4758 0175 01       		.byte	0x1
 4759 0176 03       		.uleb128 0x3
 4760 0177 0E       		.uleb128 0xe
 4761 0178 3A       		.uleb128 0x3a
 4762 0179 0B       		.uleb128 0xb
 4763 017a 3B       		.uleb128 0x3b
 4764 017b 05       		.uleb128 0x5
 4765 017c 27       		.uleb128 0x27
 4766 017d 19       		.uleb128 0x19
 4767 017e 20       		.uleb128 0x20
 4768 017f 0B       		.uleb128 0xb
 4769 0180 01       		.uleb128 0x1
 4770 0181 13       		.uleb128 0x13
 4771 0182 00       		.byte	0
 4772 0183 00       		.byte	0
 4773 0184 21       		.uleb128 0x21
 4774 0185 0F       		.uleb128 0xf
 4775 0186 00       		.byte	0
 4776 0187 0B       		.uleb128 0xb
 4777 0188 0B       		.uleb128 0xb
 4778 0189 00       		.byte	0
 4779 018a 00       		.byte	0
 4780 018b 22       		.uleb128 0x22
 4781 018c 2E       		.uleb128 0x2e
 4782 018d 01       		.byte	0x1
 4783 018e 3F       		.uleb128 0x3f
 4784 018f 19       		.uleb128 0x19
 4785 0190 03       		.uleb128 0x3
 4786 0191 0E       		.uleb128 0xe
 4787 0192 3A       		.uleb128 0x3a
 4788 0193 0B       		.uleb128 0xb
 4789 0194 3B       		.uleb128 0x3b
 4790 0195 0B       		.uleb128 0xb
 4791 0196 27       		.uleb128 0x27
 4792 0197 19       		.uleb128 0x19
 4793 0198 11       		.uleb128 0x11
 4794 0199 01       		.uleb128 0x1
 4795 019a 12       		.uleb128 0x12
 4796 019b 06       		.uleb128 0x6
 4797 019c 40       		.uleb128 0x40
 4798 019d 18       		.uleb128 0x18
 4799 019e 9742     		.uleb128 0x2117
 4800 01a0 19       		.uleb128 0x19
 4801 01a1 01       		.uleb128 0x1
 4802 01a2 13       		.uleb128 0x13
 4803 01a3 00       		.byte	0
 4804 01a4 00       		.byte	0
 4805 01a5 23       		.uleb128 0x23
ARM GAS  C:\Users\Rolf\AppData\Local\Temp\ccUtnhQP.s 			page 143


 4806 01a6 05       		.uleb128 0x5
 4807 01a7 00       		.byte	0
 4808 01a8 03       		.uleb128 0x3
 4809 01a9 0E       		.uleb128 0xe
 4810 01aa 3A       		.uleb128 0x3a
 4811 01ab 0B       		.uleb128 0xb
 4812 01ac 3B       		.uleb128 0x3b
 4813 01ad 0B       		.uleb128 0xb
 4814 01ae 49       		.uleb128 0x49
 4815 01af 13       		.uleb128 0x13
 4816 01b0 02       		.uleb128 0x2
 4817 01b1 18       		.uleb128 0x18
 4818 01b2 00       		.byte	0
 4819 01b3 00       		.byte	0
 4820 01b4 24       		.uleb128 0x24
 4821 01b5 05       		.uleb128 0x5
 4822 01b6 00       		.byte	0
 4823 01b7 03       		.uleb128 0x3
 4824 01b8 0E       		.uleb128 0xe
 4825 01b9 3A       		.uleb128 0x3a
 4826 01ba 0B       		.uleb128 0xb
 4827 01bb 3B       		.uleb128 0x3b
 4828 01bc 0B       		.uleb128 0xb
 4829 01bd 49       		.uleb128 0x49
 4830 01be 13       		.uleb128 0x13
 4831 01bf 02       		.uleb128 0x2
 4832 01c0 17       		.uleb128 0x17
 4833 01c1 00       		.byte	0
 4834 01c2 00       		.byte	0
 4835 01c3 25       		.uleb128 0x25
 4836 01c4 34       		.uleb128 0x34
 4837 01c5 00       		.byte	0
 4838 01c6 03       		.uleb128 0x3
 4839 01c7 0E       		.uleb128 0xe
 4840 01c8 3A       		.uleb128 0x3a
 4841 01c9 0B       		.uleb128 0xb
 4842 01ca 3B       		.uleb128 0x3b
 4843 01cb 0B       		.uleb128 0xb
 4844 01cc 49       		.uleb128 0x49
 4845 01cd 13       		.uleb128 0x13
 4846 01ce 02       		.uleb128 0x2
 4847 01cf 17       		.uleb128 0x17
 4848 01d0 00       		.byte	0
 4849 01d1 00       		.byte	0
 4850 01d2 26       		.uleb128 0x26
 4851 01d3 1D       		.uleb128 0x1d
 4852 01d4 01       		.byte	0x1
 4853 01d5 31       		.uleb128 0x31
 4854 01d6 13       		.uleb128 0x13
 4855 01d7 11       		.uleb128 0x11
 4856 01d8 01       		.uleb128 0x1
 4857 01d9 12       		.uleb128 0x12
 4858 01da 06       		.uleb128 0x6
 4859 01db 58       		.uleb128 0x58
 4860 01dc 0B       		.uleb128 0xb
 4861 01dd 59       		.uleb128 0x59
 4862 01de 0B       		.uleb128 0xb
ARM GAS  C:\Users\Rolf\AppData\Local\Temp\ccUtnhQP.s 			page 144


 4863 01df 01       		.uleb128 0x1
 4864 01e0 13       		.uleb128 0x13
 4865 01e1 00       		.byte	0
 4866 01e2 00       		.byte	0
 4867 01e3 27       		.uleb128 0x27
 4868 01e4 05       		.uleb128 0x5
 4869 01e5 00       		.byte	0
 4870 01e6 31       		.uleb128 0x31
 4871 01e7 13       		.uleb128 0x13
 4872 01e8 02       		.uleb128 0x2
 4873 01e9 17       		.uleb128 0x17
 4874 01ea 00       		.byte	0
 4875 01eb 00       		.byte	0
 4876 01ec 28       		.uleb128 0x28
 4877 01ed 898201   		.uleb128 0x4109
 4878 01f0 01       		.byte	0x1
 4879 01f1 11       		.uleb128 0x11
 4880 01f2 01       		.uleb128 0x1
 4881 01f3 31       		.uleb128 0x31
 4882 01f4 13       		.uleb128 0x13
 4883 01f5 00       		.byte	0
 4884 01f6 00       		.byte	0
 4885 01f7 29       		.uleb128 0x29
 4886 01f8 8A8201   		.uleb128 0x410a
 4887 01fb 00       		.byte	0
 4888 01fc 02       		.uleb128 0x2
 4889 01fd 18       		.uleb128 0x18
 4890 01fe 9142     		.uleb128 0x2111
 4891 0200 18       		.uleb128 0x18
 4892 0201 00       		.byte	0
 4893 0202 00       		.byte	0
 4894 0203 2A       		.uleb128 0x2a
 4895 0204 898201   		.uleb128 0x4109
 4896 0207 01       		.byte	0x1
 4897 0208 11       		.uleb128 0x11
 4898 0209 01       		.uleb128 0x1
 4899 020a 31       		.uleb128 0x31
 4900 020b 13       		.uleb128 0x13
 4901 020c 01       		.uleb128 0x1
 4902 020d 13       		.uleb128 0x13
 4903 020e 00       		.byte	0
 4904 020f 00       		.byte	0
 4905 0210 2B       		.uleb128 0x2b
 4906 0211 34       		.uleb128 0x34
 4907 0212 00       		.byte	0
 4908 0213 03       		.uleb128 0x3
 4909 0214 0E       		.uleb128 0xe
 4910 0215 3A       		.uleb128 0x3a
 4911 0216 0B       		.uleb128 0xb
 4912 0217 3B       		.uleb128 0x3b
 4913 0218 0B       		.uleb128 0xb
 4914 0219 49       		.uleb128 0x49
 4915 021a 13       		.uleb128 0x13
 4916 021b 02       		.uleb128 0x2
 4917 021c 18       		.uleb128 0x18
 4918 021d 00       		.byte	0
 4919 021e 00       		.byte	0
ARM GAS  C:\Users\Rolf\AppData\Local\Temp\ccUtnhQP.s 			page 145


 4920 021f 2C       		.uleb128 0x2c
 4921 0220 2E       		.uleb128 0x2e
 4922 0221 01       		.byte	0x1
 4923 0222 3F       		.uleb128 0x3f
 4924 0223 19       		.uleb128 0x19
 4925 0224 03       		.uleb128 0x3
 4926 0225 0E       		.uleb128 0xe
 4927 0226 3A       		.uleb128 0x3a
 4928 0227 0B       		.uleb128 0xb
 4929 0228 3B       		.uleb128 0x3b
 4930 0229 0B       		.uleb128 0xb
 4931 022a 27       		.uleb128 0x27
 4932 022b 19       		.uleb128 0x19
 4933 022c 49       		.uleb128 0x49
 4934 022d 13       		.uleb128 0x13
 4935 022e 11       		.uleb128 0x11
 4936 022f 01       		.uleb128 0x1
 4937 0230 12       		.uleb128 0x12
 4938 0231 06       		.uleb128 0x6
 4939 0232 40       		.uleb128 0x40
 4940 0233 18       		.uleb128 0x18
 4941 0234 9742     		.uleb128 0x2117
 4942 0236 19       		.uleb128 0x19
 4943 0237 01       		.uleb128 0x1
 4944 0238 13       		.uleb128 0x13
 4945 0239 00       		.byte	0
 4946 023a 00       		.byte	0
 4947 023b 2D       		.uleb128 0x2d
 4948 023c 1D       		.uleb128 0x1d
 4949 023d 01       		.byte	0x1
 4950 023e 31       		.uleb128 0x31
 4951 023f 13       		.uleb128 0x13
 4952 0240 11       		.uleb128 0x11
 4953 0241 01       		.uleb128 0x1
 4954 0242 12       		.uleb128 0x12
 4955 0243 06       		.uleb128 0x6
 4956 0244 58       		.uleb128 0x58
 4957 0245 0B       		.uleb128 0xb
 4958 0246 59       		.uleb128 0x59
 4959 0247 05       		.uleb128 0x5
 4960 0248 01       		.uleb128 0x1
 4961 0249 13       		.uleb128 0x13
 4962 024a 00       		.byte	0
 4963 024b 00       		.byte	0
 4964 024c 2E       		.uleb128 0x2e
 4965 024d 2E       		.uleb128 0x2e
 4966 024e 01       		.byte	0x1
 4967 024f 3F       		.uleb128 0x3f
 4968 0250 19       		.uleb128 0x19
 4969 0251 03       		.uleb128 0x3
 4970 0252 0E       		.uleb128 0xe
 4971 0253 3A       		.uleb128 0x3a
 4972 0254 0B       		.uleb128 0xb
 4973 0255 3B       		.uleb128 0x3b
 4974 0256 05       		.uleb128 0x5
 4975 0257 27       		.uleb128 0x27
 4976 0258 19       		.uleb128 0x19
ARM GAS  C:\Users\Rolf\AppData\Local\Temp\ccUtnhQP.s 			page 146


 4977 0259 49       		.uleb128 0x49
 4978 025a 13       		.uleb128 0x13
 4979 025b 11       		.uleb128 0x11
 4980 025c 01       		.uleb128 0x1
 4981 025d 12       		.uleb128 0x12
 4982 025e 06       		.uleb128 0x6
 4983 025f 40       		.uleb128 0x40
 4984 0260 18       		.uleb128 0x18
 4985 0261 9742     		.uleb128 0x2117
 4986 0263 19       		.uleb128 0x19
 4987 0264 01       		.uleb128 0x1
 4988 0265 13       		.uleb128 0x13
 4989 0266 00       		.byte	0
 4990 0267 00       		.byte	0
 4991 0268 2F       		.uleb128 0x2f
 4992 0269 05       		.uleb128 0x5
 4993 026a 00       		.byte	0
 4994 026b 03       		.uleb128 0x3
 4995 026c 0E       		.uleb128 0xe
 4996 026d 3A       		.uleb128 0x3a
 4997 026e 0B       		.uleb128 0xb
 4998 026f 3B       		.uleb128 0x3b
 4999 0270 05       		.uleb128 0x5
 5000 0271 49       		.uleb128 0x49
 5001 0272 13       		.uleb128 0x13
 5002 0273 02       		.uleb128 0x2
 5003 0274 17       		.uleb128 0x17
 5004 0275 00       		.byte	0
 5005 0276 00       		.byte	0
 5006 0277 30       		.uleb128 0x30
 5007 0278 34       		.uleb128 0x34
 5008 0279 00       		.byte	0
 5009 027a 03       		.uleb128 0x3
 5010 027b 0E       		.uleb128 0xe
 5011 027c 3A       		.uleb128 0x3a
 5012 027d 0B       		.uleb128 0xb
 5013 027e 3B       		.uleb128 0x3b
 5014 027f 05       		.uleb128 0x5
 5015 0280 49       		.uleb128 0x49
 5016 0281 13       		.uleb128 0x13
 5017 0282 02       		.uleb128 0x2
 5018 0283 17       		.uleb128 0x17
 5019 0284 00       		.byte	0
 5020 0285 00       		.byte	0
 5021 0286 31       		.uleb128 0x31
 5022 0287 2E       		.uleb128 0x2e
 5023 0288 01       		.byte	0x1
 5024 0289 3F       		.uleb128 0x3f
 5025 028a 19       		.uleb128 0x19
 5026 028b 03       		.uleb128 0x3
 5027 028c 0E       		.uleb128 0xe
 5028 028d 3A       		.uleb128 0x3a
 5029 028e 0B       		.uleb128 0xb
 5030 028f 3B       		.uleb128 0x3b
 5031 0290 05       		.uleb128 0x5
 5032 0291 27       		.uleb128 0x27
 5033 0292 19       		.uleb128 0x19
ARM GAS  C:\Users\Rolf\AppData\Local\Temp\ccUtnhQP.s 			page 147


 5034 0293 11       		.uleb128 0x11
 5035 0294 01       		.uleb128 0x1
 5036 0295 12       		.uleb128 0x12
 5037 0296 06       		.uleb128 0x6
 5038 0297 40       		.uleb128 0x40
 5039 0298 18       		.uleb128 0x18
 5040 0299 9742     		.uleb128 0x2117
 5041 029b 19       		.uleb128 0x19
 5042 029c 01       		.uleb128 0x1
 5043 029d 13       		.uleb128 0x13
 5044 029e 00       		.byte	0
 5045 029f 00       		.byte	0
 5046 02a0 32       		.uleb128 0x32
 5047 02a1 34       		.uleb128 0x34
 5048 02a2 00       		.byte	0
 5049 02a3 03       		.uleb128 0x3
 5050 02a4 0E       		.uleb128 0xe
 5051 02a5 3A       		.uleb128 0x3a
 5052 02a6 0B       		.uleb128 0xb
 5053 02a7 3B       		.uleb128 0x3b
 5054 02a8 05       		.uleb128 0x5
 5055 02a9 49       		.uleb128 0x49
 5056 02aa 13       		.uleb128 0x13
 5057 02ab 02       		.uleb128 0x2
 5058 02ac 18       		.uleb128 0x18
 5059 02ad 00       		.byte	0
 5060 02ae 00       		.byte	0
 5061 02af 33       		.uleb128 0x33
 5062 02b0 2E       		.uleb128 0x2e
 5063 02b1 01       		.byte	0x1
 5064 02b2 3F       		.uleb128 0x3f
 5065 02b3 19       		.uleb128 0x19
 5066 02b4 03       		.uleb128 0x3
 5067 02b5 0E       		.uleb128 0xe
 5068 02b6 3A       		.uleb128 0x3a
 5069 02b7 0B       		.uleb128 0xb
 5070 02b8 3B       		.uleb128 0x3b
 5071 02b9 05       		.uleb128 0x5
 5072 02ba 27       		.uleb128 0x27
 5073 02bb 19       		.uleb128 0x19
 5074 02bc 11       		.uleb128 0x11
 5075 02bd 01       		.uleb128 0x1
 5076 02be 12       		.uleb128 0x12
 5077 02bf 06       		.uleb128 0x6
 5078 02c0 40       		.uleb128 0x40
 5079 02c1 18       		.uleb128 0x18
 5080 02c2 9642     		.uleb128 0x2116
 5081 02c4 19       		.uleb128 0x19
 5082 02c5 01       		.uleb128 0x1
 5083 02c6 13       		.uleb128 0x13
 5084 02c7 00       		.byte	0
 5085 02c8 00       		.byte	0
 5086 02c9 34       		.uleb128 0x34
 5087 02ca 34       		.uleb128 0x34
 5088 02cb 00       		.byte	0
 5089 02cc 03       		.uleb128 0x3
 5090 02cd 0E       		.uleb128 0xe
ARM GAS  C:\Users\Rolf\AppData\Local\Temp\ccUtnhQP.s 			page 148


 5091 02ce 3A       		.uleb128 0x3a
 5092 02cf 0B       		.uleb128 0xb
 5093 02d0 3B       		.uleb128 0x3b
 5094 02d1 05       		.uleb128 0x5
 5095 02d2 49       		.uleb128 0x49
 5096 02d3 13       		.uleb128 0x13
 5097 02d4 00       		.byte	0
 5098 02d5 00       		.byte	0
 5099 02d6 35       		.uleb128 0x35
 5100 02d7 05       		.uleb128 0x5
 5101 02d8 00       		.byte	0
 5102 02d9 31       		.uleb128 0x31
 5103 02da 13       		.uleb128 0x13
 5104 02db 00       		.byte	0
 5105 02dc 00       		.byte	0
 5106 02dd 36       		.uleb128 0x36
 5107 02de 898201   		.uleb128 0x4109
 5108 02e1 00       		.byte	0
 5109 02e2 11       		.uleb128 0x11
 5110 02e3 01       		.uleb128 0x1
 5111 02e4 31       		.uleb128 0x31
 5112 02e5 13       		.uleb128 0x13
 5113 02e6 00       		.byte	0
 5114 02e7 00       		.byte	0
 5115 02e8 37       		.uleb128 0x37
 5116 02e9 1D       		.uleb128 0x1d
 5117 02ea 00       		.byte	0
 5118 02eb 31       		.uleb128 0x31
 5119 02ec 13       		.uleb128 0x13
 5120 02ed 11       		.uleb128 0x11
 5121 02ee 01       		.uleb128 0x1
 5122 02ef 12       		.uleb128 0x12
 5123 02f0 06       		.uleb128 0x6
 5124 02f1 58       		.uleb128 0x58
 5125 02f2 0B       		.uleb128 0xb
 5126 02f3 59       		.uleb128 0x59
 5127 02f4 05       		.uleb128 0x5
 5128 02f5 00       		.byte	0
 5129 02f6 00       		.byte	0
 5130 02f7 38       		.uleb128 0x38
 5131 02f8 34       		.uleb128 0x34
 5132 02f9 00       		.byte	0
 5133 02fa 03       		.uleb128 0x3
 5134 02fb 0E       		.uleb128 0xe
 5135 02fc 3A       		.uleb128 0x3a
 5136 02fd 0B       		.uleb128 0xb
 5137 02fe 3B       		.uleb128 0x3b
 5138 02ff 0B       		.uleb128 0xb
 5139 0300 49       		.uleb128 0x49
 5140 0301 13       		.uleb128 0x13
 5141 0302 3F       		.uleb128 0x3f
 5142 0303 19       		.uleb128 0x19
 5143 0304 3C       		.uleb128 0x3c
 5144 0305 19       		.uleb128 0x19
 5145 0306 00       		.byte	0
 5146 0307 00       		.byte	0
 5147 0308 39       		.uleb128 0x39
ARM GAS  C:\Users\Rolf\AppData\Local\Temp\ccUtnhQP.s 			page 149


 5148 0309 2E       		.uleb128 0x2e
 5149 030a 00       		.byte	0
 5150 030b 3F       		.uleb128 0x3f
 5151 030c 19       		.uleb128 0x19
 5152 030d 3C       		.uleb128 0x3c
 5153 030e 19       		.uleb128 0x19
 5154 030f 6E       		.uleb128 0x6e
 5155 0310 0E       		.uleb128 0xe
 5156 0311 03       		.uleb128 0x3
 5157 0312 0E       		.uleb128 0xe
 5158 0313 3A       		.uleb128 0x3a
 5159 0314 0B       		.uleb128 0xb
 5160 0315 3B       		.uleb128 0x3b
 5161 0316 05       		.uleb128 0x5
 5162 0317 00       		.byte	0
 5163 0318 00       		.byte	0
 5164 0319 00       		.byte	0
 5165              		.section	.debug_loc,"",%progbits
 5166              	.Ldebug_loc0:
 5167              	.LLST0:
 5168 0000 00000000 		.4byte	.LVL1
 5169 0004 1A000000 		.4byte	.LVL4
 5170 0008 0100     		.2byte	0x1
 5171 000a 50       		.byte	0x50
 5172 000b 1A000000 		.4byte	.LVL4
 5173 000f 28000000 		.4byte	.LVL6
 5174 0013 0100     		.2byte	0x1
 5175 0015 54       		.byte	0x54
 5176 0016 28000000 		.4byte	.LVL6
 5177 001a D8000000 		.4byte	.LFE68
 5178 001e 0400     		.2byte	0x4
 5179 0020 F3       		.byte	0xf3
 5180 0021 01       		.uleb128 0x1
 5181 0022 50       		.byte	0x50
 5182 0023 9F       		.byte	0x9f
 5183 0024 00000000 		.4byte	0
 5184 0028 00000000 		.4byte	0
 5185              	.LLST1:
 5186 002c 00000000 		.4byte	.LVL1
 5187 0030 18000000 		.4byte	.LVL3
 5188 0034 0100     		.2byte	0x1
 5189 0036 51       		.byte	0x51
 5190 0037 18000000 		.4byte	.LVL3
 5191 003b BE000000 		.4byte	.LVL21
 5192 003f 0100     		.2byte	0x1
 5193 0041 57       		.byte	0x57
 5194 0042 BE000000 		.4byte	.LVL21
 5195 0046 D8000000 		.4byte	.LFE68
 5196 004a 0400     		.2byte	0x4
 5197 004c F3       		.byte	0xf3
 5198 004d 01       		.uleb128 0x1
 5199 004e 51       		.byte	0x51
 5200 004f 9F       		.byte	0x9f
 5201 0050 00000000 		.4byte	0
 5202 0054 00000000 		.4byte	0
 5203              	.LLST2:
 5204 0058 00000000 		.4byte	.LVL1
ARM GAS  C:\Users\Rolf\AppData\Local\Temp\ccUtnhQP.s 			page 150


 5205 005c 1D000000 		.4byte	.LVL5-1
 5206 0060 0100     		.2byte	0x1
 5207 0062 52       		.byte	0x52
 5208 0063 1D000000 		.4byte	.LVL5-1
 5209 0067 BE000000 		.4byte	.LVL22
 5210 006b 0100     		.2byte	0x1
 5211 006d 58       		.byte	0x58
 5212 006e BE000000 		.4byte	.LVL22
 5213 0072 D8000000 		.4byte	.LFE68
 5214 0076 0400     		.2byte	0x4
 5215 0078 F3       		.byte	0xf3
 5216 0079 01       		.uleb128 0x1
 5217 007a 52       		.byte	0x52
 5218 007b 9F       		.byte	0x9f
 5219 007c 00000000 		.4byte	0
 5220 0080 00000000 		.4byte	0
 5221              	.LLST3:
 5222 0084 00000000 		.4byte	.LVL1
 5223 0088 10000000 		.4byte	.LVL2
 5224 008c 0100     		.2byte	0x1
 5225 008e 53       		.byte	0x53
 5226 008f 10000000 		.4byte	.LVL2
 5227 0093 38000000 		.4byte	.LVL7
 5228 0097 0100     		.2byte	0x1
 5229 0099 56       		.byte	0x56
 5230 009a 38000000 		.4byte	.LVL7
 5231 009e D8000000 		.4byte	.LFE68
 5232 00a2 0400     		.2byte	0x4
 5233 00a4 F3       		.byte	0xf3
 5234 00a5 01       		.uleb128 0x1
 5235 00a6 53       		.byte	0x53
 5236 00a7 9F       		.byte	0x9f
 5237 00a8 00000000 		.4byte	0
 5238 00ac 00000000 		.4byte	0
 5239              	.LLST4:
 5240 00b0 28000000 		.4byte	.LVL6
 5241 00b4 BE000000 		.4byte	.LVL20
 5242 00b8 0100     		.2byte	0x1
 5243 00ba 54       		.byte	0x54
 5244 00bb 00000000 		.4byte	0
 5245 00bf 00000000 		.4byte	0
 5246              	.LLST5:
 5247 00c3 3A000000 		.4byte	.LVL8
 5248 00c7 60000000 		.4byte	.LVL10
 5249 00cb 0100     		.2byte	0x1
 5250 00cd 55       		.byte	0x55
 5251 00ce 00000000 		.4byte	0
 5252 00d2 00000000 		.4byte	0
 5253              	.LLST6:
 5254 00d6 64000000 		.4byte	.LVL11
 5255 00da 7E000000 		.4byte	.LVL13
 5256 00de 0100     		.2byte	0x1
 5257 00e0 56       		.byte	0x56
 5258 00e1 7E000000 		.4byte	.LVL13
 5259 00e5 80000000 		.4byte	.LVL14
 5260 00e9 0400     		.2byte	0x4
 5261 00eb 76       		.byte	0x76
ARM GAS  C:\Users\Rolf\AppData\Local\Temp\ccUtnhQP.s 			page 151


 5262 00ec 807F     		.sleb128 -128
 5263 00ee 9F       		.byte	0x9f
 5264 00ef 00000000 		.4byte	0
 5265 00f3 00000000 		.4byte	0
 5266              	.LLST7:
 5267 00f7 86000000 		.4byte	.LVL15
 5268 00fb A2000000 		.4byte	.LVL18
 5269 00ff 0100     		.2byte	0x1
 5270 0101 56       		.byte	0x56
 5271 0102 00000000 		.4byte	0
 5272 0106 00000000 		.4byte	0
 5273              	.LLST9:
 5274 010a 86000000 		.4byte	.LVL15
 5275 010e A8000000 		.4byte	.LVL19
 5276 0112 0100     		.2byte	0x1
 5277 0114 55       		.byte	0x55
 5278 0115 00000000 		.4byte	0
 5279 0119 00000000 		.4byte	0
 5280              	.LLST10:
 5281 011d 00000000 		.4byte	.LVL23
 5282 0121 0C000000 		.4byte	.LVL24
 5283 0125 0100     		.2byte	0x1
 5284 0127 50       		.byte	0x50
 5285 0128 0C000000 		.4byte	.LVL24
 5286 012c AE000000 		.4byte	.LVL35
 5287 0130 0100     		.2byte	0x1
 5288 0132 54       		.byte	0x54
 5289 0133 AE000000 		.4byte	.LVL35
 5290 0137 BC000000 		.4byte	.LFE67
 5291 013b 0400     		.2byte	0x4
 5292 013d F3       		.byte	0xf3
 5293 013e 01       		.uleb128 0x1
 5294 013f 50       		.byte	0x50
 5295 0140 9F       		.byte	0x9f
 5296 0141 00000000 		.4byte	0
 5297 0145 00000000 		.4byte	0
 5298              	.LLST11:
 5299 0149 9C000000 		.4byte	.LVL32
 5300 014d A4000000 		.4byte	.LVL33
 5301 0151 0100     		.2byte	0x1
 5302 0153 52       		.byte	0x52
 5303 0154 A4000000 		.4byte	.LVL33
 5304 0158 AC000000 		.4byte	.LVL34
 5305 015c 0200     		.2byte	0x2
 5306 015e 76       		.byte	0x76
 5307 015f 00       		.sleb128 0
 5308 0160 00000000 		.4byte	0
 5309 0164 00000000 		.4byte	0
 5310              	.LLST12:
 5311 0168 00000000 		.4byte	.LVL36
 5312 016c 12000000 		.4byte	.LVL38
 5313 0170 0100     		.2byte	0x1
 5314 0172 50       		.byte	0x50
 5315 0173 12000000 		.4byte	.LVL38
 5316 0177 3C000000 		.4byte	.LVL43
 5317 017b 0100     		.2byte	0x1
 5318 017d 55       		.byte	0x55
ARM GAS  C:\Users\Rolf\AppData\Local\Temp\ccUtnhQP.s 			page 152


 5319 017e 3C000000 		.4byte	.LVL43
 5320 0182 B8000000 		.4byte	.LFE69
 5321 0186 0400     		.2byte	0x4
 5322 0188 F3       		.byte	0xf3
 5323 0189 01       		.uleb128 0x1
 5324 018a 50       		.byte	0x50
 5325 018b 9F       		.byte	0x9f
 5326 018c 00000000 		.4byte	0
 5327 0190 00000000 		.4byte	0
 5328              	.LLST13:
 5329 0194 00000000 		.4byte	.LVL36
 5330 0198 10000000 		.4byte	.LVL37
 5331 019c 0100     		.2byte	0x1
 5332 019e 51       		.byte	0x51
 5333 019f 10000000 		.4byte	.LVL37
 5334 01a3 4E000000 		.4byte	.LVL48
 5335 01a7 0100     		.2byte	0x1
 5336 01a9 57       		.byte	0x57
 5337 01aa 4E000000 		.4byte	.LVL48
 5338 01ae 8E000000 		.4byte	.LVL61
 5339 01b2 0400     		.2byte	0x4
 5340 01b4 F3       		.byte	0xf3
 5341 01b5 01       		.uleb128 0x1
 5342 01b6 51       		.byte	0x51
 5343 01b7 9F       		.byte	0x9f
 5344 01b8 8E000000 		.4byte	.LVL61
 5345 01bc 92000000 		.4byte	.LVL63
 5346 01c0 0100     		.2byte	0x1
 5347 01c2 57       		.byte	0x57
 5348 01c3 92000000 		.4byte	.LVL63
 5349 01c7 B8000000 		.4byte	.LFE69
 5350 01cb 0400     		.2byte	0x4
 5351 01cd F3       		.byte	0xf3
 5352 01ce 01       		.uleb128 0x1
 5353 01cf 51       		.byte	0x51
 5354 01d0 9F       		.byte	0x9f
 5355 01d1 00000000 		.4byte	0
 5356 01d5 00000000 		.4byte	0
 5357              	.LLST14:
 5358 01d9 00000000 		.4byte	.LVL36
 5359 01dd 15000000 		.4byte	.LVL39-1
 5360 01e1 0100     		.2byte	0x1
 5361 01e3 52       		.byte	0x52
 5362 01e4 15000000 		.4byte	.LVL39-1
 5363 01e8 98000000 		.4byte	.LVL68
 5364 01ec 0100     		.2byte	0x1
 5365 01ee 56       		.byte	0x56
 5366 01ef 98000000 		.4byte	.LVL68
 5367 01f3 B8000000 		.4byte	.LFE69
 5368 01f7 0400     		.2byte	0x4
 5369 01f9 F3       		.byte	0xf3
 5370 01fa 01       		.uleb128 0x1
 5371 01fb 52       		.byte	0x52
 5372 01fc 9F       		.byte	0x9f
 5373 01fd 00000000 		.4byte	0
 5374 0201 00000000 		.4byte	0
 5375              	.LLST15:
ARM GAS  C:\Users\Rolf\AppData\Local\Temp\ccUtnhQP.s 			page 153


 5376 0205 00000000 		.4byte	.LVL36
 5377 0209 15000000 		.4byte	.LVL39-1
 5378 020d 0100     		.2byte	0x1
 5379 020f 53       		.byte	0x53
 5380 0210 15000000 		.4byte	.LVL39-1
 5381 0214 78000000 		.4byte	.LVL56
 5382 0218 0100     		.2byte	0x1
 5383 021a 54       		.byte	0x54
 5384 021b 78000000 		.4byte	.LVL56
 5385 021f 7E000000 		.4byte	.LVL57
 5386 0223 0200     		.2byte	0x2
 5387 0225 71       		.byte	0x71
 5388 0226 24       		.sleb128 36
 5389 0227 7E000000 		.4byte	.LVL57
 5390 022b 83000000 		.4byte	.LVL59-1
 5391 022f 0F00     		.2byte	0xf
 5392 0231 F3       		.byte	0xf3
 5393 0232 01       		.uleb128 0x1
 5394 0233 51       		.byte	0x51
 5395 0234 08       		.byte	0x8
 5396 0235 2C       		.byte	0x2c
 5397 0236 1E       		.byte	0x1e
 5398 0237 03       		.byte	0x3
 5399 0238 00000000 		.4byte	cy_ipc_pipe_epArray
 5400 023c 06       		.byte	0x6
 5401 023d 22       		.byte	0x22
 5402 023e 23       		.byte	0x23
 5403 023f 24       		.uleb128 0x24
 5404 0240 83000000 		.4byte	.LVL59-1
 5405 0244 8E000000 		.4byte	.LVL61
 5406 0248 0400     		.2byte	0x4
 5407 024a F3       		.byte	0xf3
 5408 024b 01       		.uleb128 0x1
 5409 024c 53       		.byte	0x53
 5410 024d 9F       		.byte	0x9f
 5411 024e 8E000000 		.4byte	.LVL61
 5412 0252 98000000 		.4byte	.LVL66
 5413 0256 0100     		.2byte	0x1
 5414 0258 54       		.byte	0x54
 5415 0259 98000000 		.4byte	.LVL66
 5416 025d B8000000 		.4byte	.LFE69
 5417 0261 0400     		.2byte	0x4
 5418 0263 F3       		.byte	0xf3
 5419 0264 01       		.uleb128 0x1
 5420 0265 53       		.byte	0x53
 5421 0266 9F       		.byte	0x9f
 5422 0267 00000000 		.4byte	0
 5423 026b 00000000 		.4byte	0
 5424              	.LLST16:
 5425 026f 8A000000 		.4byte	.LVL60
 5426 0273 8E000000 		.4byte	.LVL61
 5427 0277 0200     		.2byte	0x2
 5428 0279 30       		.byte	0x30
 5429 027a 9F       		.byte	0x9f
 5430 027b 98000000 		.4byte	.LVL66
 5431 027f B8000000 		.4byte	.LFE69
 5432 0283 0100     		.2byte	0x1
ARM GAS  C:\Users\Rolf\AppData\Local\Temp\ccUtnhQP.s 			page 154


 5433 0285 50       		.byte	0x50
 5434 0286 00000000 		.4byte	0
 5435 028a 00000000 		.4byte	0
 5436              	.LLST17:
 5437 028e 3E000000 		.4byte	.LVL44
 5438 0292 6A000000 		.4byte	.LVL52
 5439 0296 0100     		.2byte	0x1
 5440 0298 53       		.byte	0x53
 5441 0299 6A000000 		.4byte	.LVL52
 5442 029d 6C000000 		.4byte	.LVL53
 5443 02a1 0800     		.2byte	0x8
 5444 02a3 31       		.byte	0x31
 5445 02a4 71       		.byte	0x71
 5446 02a5 04       		.sleb128 4
 5447 02a6 06       		.byte	0x6
 5448 02a7 24       		.byte	0x24
 5449 02a8 40       		.byte	0x40
 5450 02a9 24       		.byte	0x24
 5451 02aa 9F       		.byte	0x9f
 5452 02ab 8E000000 		.4byte	.LVL61
 5453 02af 98000000 		.4byte	.LVL66
 5454 02b3 0100     		.2byte	0x1
 5455 02b5 53       		.byte	0x53
 5456 02b6 00000000 		.4byte	0
 5457 02ba 00000000 		.4byte	0
 5458              	.LLST18:
 5459 02be 46000000 		.4byte	.LVL46
 5460 02c2 48000000 		.4byte	.LVL47
 5461 02c6 0100     		.2byte	0x1
 5462 02c8 52       		.byte	0x52
 5463 02c9 48000000 		.4byte	.LVL47
 5464 02cd 98000000 		.4byte	.LVL67
 5465 02d1 0100     		.2byte	0x1
 5466 02d3 55       		.byte	0x55
 5467 02d4 00000000 		.4byte	0
 5468 02d8 00000000 		.4byte	0
 5469              	.LLST19:
 5470 02dc 36000000 		.4byte	.LVL42
 5471 02e0 7E000000 		.4byte	.LVL57
 5472 02e4 0100     		.2byte	0x1
 5473 02e6 51       		.byte	0x51
 5474 02e7 7E000000 		.4byte	.LVL57
 5475 02eb 83000000 		.4byte	.LVL59-1
 5476 02ef 0E00     		.2byte	0xe
 5477 02f1 F3       		.byte	0xf3
 5478 02f2 01       		.uleb128 0x1
 5479 02f3 51       		.byte	0x51
 5480 02f4 08       		.byte	0x8
 5481 02f5 2C       		.byte	0x2c
 5482 02f6 1E       		.byte	0x1e
 5483 02f7 03       		.byte	0x3
 5484 02f8 00000000 		.4byte	cy_ipc_pipe_epArray
 5485 02fc 06       		.byte	0x6
 5486 02fd 22       		.byte	0x22
 5487 02fe 9F       		.byte	0x9f
 5488 02ff 8E000000 		.4byte	.LVL61
 5489 0303 98000000 		.4byte	.LVL66
ARM GAS  C:\Users\Rolf\AppData\Local\Temp\ccUtnhQP.s 			page 155


 5490 0307 0100     		.2byte	0x1
 5491 0309 51       		.byte	0x51
 5492 030a 00000000 		.4byte	0
 5493 030e 00000000 		.4byte	0
 5494              	.LLST20:
 5495 0312 32000000 		.4byte	.LVL41
 5496 0316 80000000 		.4byte	.LVL58
 5497 031a 0100     		.2byte	0x1
 5498 031c 50       		.byte	0x50
 5499 031d 80000000 		.4byte	.LVL58
 5500 0321 83000000 		.4byte	.LVL59-1
 5501 0325 0E00     		.2byte	0xe
 5502 0327 F3       		.byte	0xf3
 5503 0328 01       		.uleb128 0x1
 5504 0329 50       		.byte	0x50
 5505 032a 08       		.byte	0x8
 5506 032b 2C       		.byte	0x2c
 5507 032c 1E       		.byte	0x1e
 5508 032d 03       		.byte	0x3
 5509 032e 00000000 		.4byte	cy_ipc_pipe_epArray
 5510 0332 06       		.byte	0x6
 5511 0333 22       		.byte	0x22
 5512 0334 9F       		.byte	0x9f
 5513 0335 8E000000 		.4byte	.LVL61
 5514 0339 90000000 		.4byte	.LVL62
 5515 033d 0100     		.2byte	0x1
 5516 033f 50       		.byte	0x50
 5517 0340 90000000 		.4byte	.LVL62
 5518 0344 92000000 		.4byte	.LVL63
 5519 0348 0E00     		.2byte	0xe
 5520 034a F3       		.byte	0xf3
 5521 034b 01       		.uleb128 0x1
 5522 034c 50       		.byte	0x50
 5523 034d 08       		.byte	0x8
 5524 034e 2C       		.byte	0x2c
 5525 034f 1E       		.byte	0x1e
 5526 0350 03       		.byte	0x3
 5527 0351 00000000 		.4byte	cy_ipc_pipe_epArray
 5528 0355 06       		.byte	0x6
 5529 0356 22       		.byte	0x22
 5530 0357 9F       		.byte	0x9f
 5531 0358 92000000 		.4byte	.LVL63
 5532 035c 94000000 		.4byte	.LVL64
 5533 0360 0100     		.2byte	0x1
 5534 0362 50       		.byte	0x50
 5535 0363 94000000 		.4byte	.LVL64
 5536 0367 96000000 		.4byte	.LVL65
 5537 036b 0E00     		.2byte	0xe
 5538 036d F3       		.byte	0xf3
 5539 036e 01       		.uleb128 0x1
 5540 036f 50       		.byte	0x50
 5541 0370 08       		.byte	0x8
 5542 0371 2C       		.byte	0x2c
 5543 0372 1E       		.byte	0x1e
 5544 0373 03       		.byte	0x3
 5545 0374 00000000 		.4byte	cy_ipc_pipe_epArray
 5546 0378 06       		.byte	0x6
ARM GAS  C:\Users\Rolf\AppData\Local\Temp\ccUtnhQP.s 			page 156


 5547 0379 22       		.byte	0x22
 5548 037a 9F       		.byte	0x9f
 5549 037b 96000000 		.4byte	.LVL65
 5550 037f 98000000 		.4byte	.LVL66
 5551 0383 0100     		.2byte	0x1
 5552 0385 50       		.byte	0x50
 5553 0386 00000000 		.4byte	0
 5554 038a 00000000 		.4byte	0
 5555              	.LLST21:
 5556 038e 52000000 		.4byte	.LVL49
 5557 0392 54000000 		.4byte	.LVL50
 5558 0396 0100     		.2byte	0x1
 5559 0398 52       		.byte	0x52
 5560 0399 54000000 		.4byte	.LVL50
 5561 039d 5E000000 		.4byte	.LVL51
 5562 03a1 0200     		.2byte	0x2
 5563 03a3 70       		.byte	0x70
 5564 03a4 10       		.sleb128 16
 5565 03a5 00000000 		.4byte	0
 5566 03a9 00000000 		.4byte	0
 5567              	.LLST22:
 5568 03ad 6E000000 		.4byte	.LVL54
 5569 03b1 70000000 		.4byte	.LVL55
 5570 03b5 0100     		.2byte	0x1
 5571 03b7 56       		.byte	0x56
 5572 03b8 00000000 		.4byte	0
 5573 03bc 00000000 		.4byte	0
 5574              	.LLST23:
 5575 03c0 6E000000 		.4byte	.LVL54
 5576 03c4 70000000 		.4byte	.LVL55
 5577 03c8 0100     		.2byte	0x1
 5578 03ca 53       		.byte	0x53
 5579 03cb 00000000 		.4byte	0
 5580 03cf 00000000 		.4byte	0
 5581              	.LLST24:
 5582 03d3 78000000 		.4byte	.LVL56
 5583 03d7 8A000000 		.4byte	.LVL60
 5584 03db 0100     		.2byte	0x1
 5585 03dd 55       		.byte	0x55
 5586 03de 00000000 		.4byte	0
 5587 03e2 00000000 		.4byte	0
 5588              	.LLST25:
 5589 03e6 78000000 		.4byte	.LVL56
 5590 03ea 8A000000 		.4byte	.LVL60
 5591 03ee 0100     		.2byte	0x1
 5592 03f0 54       		.byte	0x54
 5593 03f1 00000000 		.4byte	0
 5594 03f5 00000000 		.4byte	0
 5595              	.LLST26:
 5596 03f9 00000000 		.4byte	.LVL69
 5597 03fd 16000000 		.4byte	.LVL71
 5598 0401 0100     		.2byte	0x1
 5599 0403 50       		.byte	0x50
 5600 0404 16000000 		.4byte	.LVL71
 5601 0408 24000000 		.4byte	.LVL73
 5602 040c 0100     		.2byte	0x1
 5603 040e 54       		.byte	0x54
ARM GAS  C:\Users\Rolf\AppData\Local\Temp\ccUtnhQP.s 			page 157


 5604 040f 24000000 		.4byte	.LVL73
 5605 0413 54000000 		.4byte	.LFE70
 5606 0417 0400     		.2byte	0x4
 5607 0419 F3       		.byte	0xf3
 5608 041a 01       		.uleb128 0x1
 5609 041b 50       		.byte	0x50
 5610 041c 9F       		.byte	0x9f
 5611 041d 00000000 		.4byte	0
 5612 0421 00000000 		.4byte	0
 5613              	.LLST27:
 5614 0425 00000000 		.4byte	.LVL69
 5615 0429 12000000 		.4byte	.LVL70
 5616 042d 0100     		.2byte	0x1
 5617 042f 51       		.byte	0x51
 5618 0430 12000000 		.4byte	.LVL70
 5619 0434 46000000 		.4byte	.LVL80
 5620 0438 0100     		.2byte	0x1
 5621 043a 55       		.byte	0x55
 5622 043b 46000000 		.4byte	.LVL80
 5623 043f 54000000 		.4byte	.LFE70
 5624 0443 0400     		.2byte	0x4
 5625 0445 F3       		.byte	0xf3
 5626 0446 01       		.uleb128 0x1
 5627 0447 51       		.byte	0x51
 5628 0448 9F       		.byte	0x9f
 5629 0449 00000000 		.4byte	0
 5630 044d 00000000 		.4byte	0
 5631              	.LLST28:
 5632 0451 00000000 		.4byte	.LVL69
 5633 0455 19000000 		.4byte	.LVL72-1
 5634 0459 0100     		.2byte	0x1
 5635 045b 52       		.byte	0x52
 5636 045c 19000000 		.4byte	.LVL72-1
 5637 0460 3E000000 		.4byte	.LVL75
 5638 0464 0100     		.2byte	0x1
 5639 0466 56       		.byte	0x56
 5640 0467 3E000000 		.4byte	.LVL75
 5641 046b 44000000 		.4byte	.LVL77
 5642 046f 0400     		.2byte	0x4
 5643 0471 F3       		.byte	0xf3
 5644 0472 01       		.uleb128 0x1
 5645 0473 52       		.byte	0x52
 5646 0474 9F       		.byte	0x9f
 5647 0475 44000000 		.4byte	.LVL77
 5648 0479 46000000 		.4byte	.LVL78
 5649 047d 0100     		.2byte	0x1
 5650 047f 56       		.byte	0x56
 5651 0480 46000000 		.4byte	.LVL78
 5652 0484 54000000 		.4byte	.LFE70
 5653 0488 0400     		.2byte	0x4
 5654 048a F3       		.byte	0xf3
 5655 048b 01       		.uleb128 0x1
 5656 048c 52       		.byte	0x52
 5657 048d 9F       		.byte	0x9f
 5658 048e 00000000 		.4byte	0
 5659 0492 00000000 		.4byte	0
 5660              	.LLST29:
ARM GAS  C:\Users\Rolf\AppData\Local\Temp\ccUtnhQP.s 			page 158


 5661 0496 40000000 		.4byte	.LVL76
 5662 049a 44000000 		.4byte	.LVL77
 5663 049e 0200     		.2byte	0x2
 5664 04a0 30       		.byte	0x30
 5665 04a1 9F       		.byte	0x9f
 5666 04a2 46000000 		.4byte	.LVL78
 5667 04a6 54000000 		.4byte	.LFE70
 5668 04aa 0100     		.2byte	0x1
 5669 04ac 50       		.byte	0x50
 5670 04ad 00000000 		.4byte	0
 5671 04b1 00000000 		.4byte	0
 5672              	.LLST30:
 5673 04b5 24000000 		.4byte	.LVL73
 5674 04b9 46000000 		.4byte	.LVL79
 5675 04bd 0100     		.2byte	0x1
 5676 04bf 54       		.byte	0x54
 5677 04c0 00000000 		.4byte	0
 5678 04c4 00000000 		.4byte	0
 5679              	.LLST31:
 5680 04c8 00000000 		.4byte	.LVL81
 5681 04cc 14000000 		.4byte	.LVL83
 5682 04d0 0100     		.2byte	0x1
 5683 04d2 50       		.byte	0x50
 5684 04d3 14000000 		.4byte	.LVL83
 5685 04d7 24000000 		.4byte	.LVL87
 5686 04db 0100     		.2byte	0x1
 5687 04dd 55       		.byte	0x55
 5688 04de 24000000 		.4byte	.LVL87
 5689 04e2 30000000 		.4byte	.LFE71
 5690 04e6 0400     		.2byte	0x4
 5691 04e8 F3       		.byte	0xf3
 5692 04e9 01       		.uleb128 0x1
 5693 04ea 50       		.byte	0x50
 5694 04eb 9F       		.byte	0x9f
 5695 04ec 00000000 		.4byte	0
 5696 04f0 00000000 		.4byte	0
 5697              	.LLST32:
 5698 04f4 00000000 		.4byte	.LVL81
 5699 04f8 10000000 		.4byte	.LVL82
 5700 04fc 0100     		.2byte	0x1
 5701 04fe 51       		.byte	0x51
 5702 04ff 10000000 		.4byte	.LVL82
 5703 0503 24000000 		.4byte	.LVL86
 5704 0507 0100     		.2byte	0x1
 5705 0509 54       		.byte	0x54
 5706 050a 24000000 		.4byte	.LVL86
 5707 050e 30000000 		.4byte	.LFE71
 5708 0512 0200     		.2byte	0x2
 5709 0514 70       		.byte	0x70
 5710 0515 28       		.sleb128 40
 5711 0516 00000000 		.4byte	0
 5712 051a 00000000 		.4byte	0
 5713              	.LLST33:
 5714 051e 00000000 		.4byte	.LVL88
 5715 0522 14000000 		.4byte	.LVL90
 5716 0526 0100     		.2byte	0x1
 5717 0528 50       		.byte	0x50
ARM GAS  C:\Users\Rolf\AppData\Local\Temp\ccUtnhQP.s 			page 159


 5718 0529 14000000 		.4byte	.LVL90
 5719 052d C6000000 		.4byte	.LVL117
 5720 0531 0100     		.2byte	0x1
 5721 0533 54       		.byte	0x54
 5722 0534 C6000000 		.4byte	.LVL117
 5723 0538 D0000000 		.4byte	.LFE73
 5724 053c 0400     		.2byte	0x4
 5725 053e F3       		.byte	0xf3
 5726 053f 01       		.uleb128 0x1
 5727 0540 50       		.byte	0x50
 5728 0541 9F       		.byte	0x9f
 5729 0542 00000000 		.4byte	0
 5730 0546 00000000 		.4byte	0
 5731              	.LLST34:
 5732 054a 7C000000 		.4byte	.LVL103
 5733 054e 84000000 		.4byte	.LVL104
 5734 0552 0100     		.2byte	0x1
 5735 0554 53       		.byte	0x53
 5736 0555 84000000 		.4byte	.LVL104
 5737 0559 8D000000 		.4byte	.LVL106-1
 5738 055d 0700     		.2byte	0x7
 5739 055f 70       		.byte	0x70
 5740 0560 00       		.sleb128 0
 5741 0561 06       		.byte	0x6
 5742 0562 08       		.byte	0x8
 5743 0563 FF       		.byte	0xff
 5744 0564 1A       		.byte	0x1a
 5745 0565 9F       		.byte	0x9f
 5746 0566 00000000 		.4byte	0
 5747 056a 00000000 		.4byte	0
 5748              	.LLST35:
 5749 056e 0A000000 		.4byte	.LVL89
 5750 0572 78000000 		.4byte	.LVL102
 5751 0576 0200     		.2byte	0x2
 5752 0578 30       		.byte	0x30
 5753 0579 9F       		.byte	0x9f
 5754 057a 78000000 		.4byte	.LVL102
 5755 057e 90000000 		.4byte	.LVL107
 5756 0582 0100     		.2byte	0x1
 5757 0584 56       		.byte	0x56
 5758 0585 90000000 		.4byte	.LVL107
 5759 0589 92000000 		.4byte	.LVL108
 5760 058d 0200     		.2byte	0x2
 5761 058f 30       		.byte	0x30
 5762 0590 9F       		.byte	0x9f
 5763 0591 92000000 		.4byte	.LVL108
 5764 0595 9A000000 		.4byte	.LVL109
 5765 0599 0100     		.2byte	0x1
 5766 059b 56       		.byte	0x56
 5767 059c 00000000 		.4byte	0
 5768 05a0 00000000 		.4byte	0
 5769              	.LLST36:
 5770 05a4 88000000 		.4byte	.LVL105
 5771 05a8 8D000000 		.4byte	.LVL106-1
 5772 05ac 0100     		.2byte	0x1
 5773 05ae 53       		.byte	0x53
 5774 05af 00000000 		.4byte	0
ARM GAS  C:\Users\Rolf\AppData\Local\Temp\ccUtnhQP.s 			page 160


 5775 05b3 00000000 		.4byte	0
 5776              	.LLST37:
 5777 05b7 4A000000 		.4byte	.LVL95
 5778 05bb 4C000000 		.4byte	.LVL96
 5779 05bf 0100     		.2byte	0x1
 5780 05c1 52       		.byte	0x52
 5781 05c2 00000000 		.4byte	0
 5782 05c6 00000000 		.4byte	0
 5783              	.LLST38:
 5784 05ca 58000000 		.4byte	.LVL97
 5785 05ce 64000000 		.4byte	.LVL98
 5786 05d2 0100     		.2byte	0x1
 5787 05d4 50       		.byte	0x50
 5788 05d5 00000000 		.4byte	0
 5789 05d9 00000000 		.4byte	0
 5790              	.LLST39:
 5791 05dd 68000000 		.4byte	.LVL99
 5792 05e1 6A000000 		.4byte	.LVL100
 5793 05e5 0300     		.2byte	0x3
 5794 05e7 91       		.byte	0x91
 5795 05e8 6C       		.sleb128 -20
 5796 05e9 9F       		.byte	0x9f
 5797 05ea 6A000000 		.4byte	.LVL100
 5798 05ee 6D000000 		.4byte	.LVL101-1
 5799 05f2 0100     		.2byte	0x1
 5800 05f4 51       		.byte	0x51
 5801 05f5 6D000000 		.4byte	.LVL101-1
 5802 05f9 6E000000 		.4byte	.LVL101
 5803 05fd 0300     		.2byte	0x3
 5804 05ff 91       		.byte	0x91
 5805 0600 6C       		.sleb128 -20
 5806 0601 9F       		.byte	0x9f
 5807 0602 00000000 		.4byte	0
 5808 0606 00000000 		.4byte	0
 5809              	.LLST40:
 5810 060a 68000000 		.4byte	.LVL99
 5811 060e 6D000000 		.4byte	.LVL101-1
 5812 0612 0100     		.2byte	0x1
 5813 0614 50       		.byte	0x50
 5814 0615 00000000 		.4byte	0
 5815 0619 00000000 		.4byte	0
 5816              	.LLST41:
 5817 061d 9A000000 		.4byte	.LVL109
 5818 0621 9C000000 		.4byte	.LVL110
 5819 0625 0100     		.2byte	0x1
 5820 0627 55       		.byte	0x55
 5821 0628 00000000 		.4byte	0
 5822 062c 00000000 		.4byte	0
 5823              	.LLST42:
 5824 0630 A2000000 		.4byte	.LVL111
 5825 0634 A6000000 		.4byte	.LVL112
 5826 0638 0200     		.2byte	0x2
 5827 063a 30       		.byte	0x30
 5828 063b 9F       		.byte	0x9f
 5829 063c 00000000 		.4byte	0
 5830 0640 00000000 		.4byte	0
 5831              	.LLST43:
ARM GAS  C:\Users\Rolf\AppData\Local\Temp\ccUtnhQP.s 			page 161


 5832 0644 A2000000 		.4byte	.LVL111
 5833 0648 A6000000 		.4byte	.LVL112
 5834 064c 0100     		.2byte	0x1
 5835 064e 55       		.byte	0x55
 5836 064f 00000000 		.4byte	0
 5837 0653 00000000 		.4byte	0
 5838              	.LLST44:
 5839 0657 A2000000 		.4byte	.LVL111
 5840 065b A6000000 		.4byte	.LVL112
 5841 065f 0100     		.2byte	0x1
 5842 0661 53       		.byte	0x53
 5843 0662 00000000 		.4byte	0
 5844 0666 00000000 		.4byte	0
 5845              	.LLST45:
 5846 066a C2000000 		.4byte	.LVL115
 5847 066e C4000000 		.4byte	.LVL116
 5848 0672 0100     		.2byte	0x1
 5849 0674 53       		.byte	0x53
 5850 0675 00000000 		.4byte	0
 5851 0679 00000000 		.4byte	0
 5852              	.LLST46:
 5853 067d 00000000 		.4byte	.LVL118
 5854 0681 12000000 		.4byte	.LVL119
 5855 0685 0100     		.2byte	0x1
 5856 0687 50       		.byte	0x50
 5857 0688 12000000 		.4byte	.LVL119
 5858 068c 24000000 		.4byte	.LVL123
 5859 0690 0100     		.2byte	0x1
 5860 0692 54       		.byte	0x54
 5861 0693 24000000 		.4byte	.LVL123
 5862 0697 30000000 		.4byte	.LFE72
 5863 069b 0400     		.2byte	0x4
 5864 069d F3       		.byte	0xf3
 5865 069e 01       		.uleb128 0x1
 5866 069f 50       		.byte	0x50
 5867 06a0 9F       		.byte	0x9f
 5868 06a1 00000000 		.4byte	0
 5869 06a5 00000000 		.4byte	0
 5870              	.LLST47:
 5871 06a9 20000000 		.4byte	.LVL121
 5872 06ad 23000000 		.4byte	.LVL122-1
 5873 06b1 0100     		.2byte	0x1
 5874 06b3 50       		.byte	0x50
 5875 06b4 00000000 		.4byte	0
 5876 06b8 00000000 		.4byte	0
 5877              	.LLST48:
 5878 06bc 00000000 		.4byte	.LVL124
 5879 06c0 10000000 		.4byte	.LVL125
 5880 06c4 0100     		.2byte	0x1
 5881 06c6 50       		.byte	0x50
 5882 06c7 10000000 		.4byte	.LVL125
 5883 06cb 3E000000 		.4byte	.LVL132
 5884 06cf 0100     		.2byte	0x1
 5885 06d1 54       		.byte	0x54
 5886 06d2 3E000000 		.4byte	.LVL132
 5887 06d6 50000000 		.4byte	.LFE74
 5888 06da 0400     		.2byte	0x4
ARM GAS  C:\Users\Rolf\AppData\Local\Temp\ccUtnhQP.s 			page 162


 5889 06dc F3       		.byte	0xf3
 5890 06dd 01       		.uleb128 0x1
 5891 06de 50       		.byte	0x50
 5892 06df 9F       		.byte	0x9f
 5893 06e0 00000000 		.4byte	0
 5894 06e4 00000000 		.4byte	0
 5895              	.LLST49:
 5896 06e8 1E000000 		.4byte	.LVL127
 5897 06ec 3E000000 		.4byte	.LVL131
 5898 06f0 0100     		.2byte	0x1
 5899 06f2 50       		.byte	0x50
 5900 06f3 00000000 		.4byte	0
 5901 06f7 00000000 		.4byte	0
 5902              	.LLST50:
 5903 06fb 22000000 		.4byte	.LVL128
 5904 06ff 2A000000 		.4byte	.LVL129
 5905 0703 0100     		.2byte	0x1
 5906 0705 52       		.byte	0x52
 5907 0706 2A000000 		.4byte	.LVL129
 5908 070a 34000000 		.4byte	.LVL130
 5909 070e 0200     		.2byte	0x2
 5910 0710 70       		.byte	0x70
 5911 0711 0C       		.sleb128 12
 5912 0712 00000000 		.4byte	0
 5913 0716 00000000 		.4byte	0
 5914              	.LLST51:
 5915 071a 00000000 		.4byte	.LVL133
 5916 071e 10000000 		.4byte	.LVL134
 5917 0722 0100     		.2byte	0x1
 5918 0724 50       		.byte	0x50
 5919 0725 10000000 		.4byte	.LVL134
 5920 0729 34000000 		.4byte	.LVL141
 5921 072d 0100     		.2byte	0x1
 5922 072f 54       		.byte	0x54
 5923 0730 34000000 		.4byte	.LVL141
 5924 0734 48000000 		.4byte	.LFE75
 5925 0738 0400     		.2byte	0x4
 5926 073a F3       		.byte	0xf3
 5927 073b 01       		.uleb128 0x1
 5928 073c 50       		.byte	0x50
 5929 073d 9F       		.byte	0x9f
 5930 073e 00000000 		.4byte	0
 5931 0742 00000000 		.4byte	0
 5932              	.LLST52:
 5933 0746 1E000000 		.4byte	.LVL136
 5934 074a 34000000 		.4byte	.LVL140
 5935 074e 0100     		.2byte	0x1
 5936 0750 50       		.byte	0x50
 5937 0751 00000000 		.4byte	0
 5938 0755 00000000 		.4byte	0
 5939              	.LLST53:
 5940 0759 22000000 		.4byte	.LVL137
 5941 075d 2A000000 		.4byte	.LVL138
 5942 0761 0100     		.2byte	0x1
 5943 0763 52       		.byte	0x52
 5944 0764 2A000000 		.4byte	.LVL138
 5945 0768 32000000 		.4byte	.LVL139
ARM GAS  C:\Users\Rolf\AppData\Local\Temp\ccUtnhQP.s 			page 163


 5946 076c 0200     		.2byte	0x2
 5947 076e 70       		.byte	0x70
 5948 076f 0C       		.sleb128 12
 5949 0770 00000000 		.4byte	0
 5950 0774 00000000 		.4byte	0
 5951              		.section	.debug_aranges,"",%progbits
 5952 0000 64000000 		.4byte	0x64
 5953 0004 0200     		.2byte	0x2
 5954 0006 00000000 		.4byte	.Ldebug_info0
 5955 000a 04       		.byte	0x4
 5956 000b 00       		.byte	0
 5957 000c 0000     		.2byte	0
 5958 000e 0000     		.2byte	0
 5959 0010 00000000 		.4byte	.LFB66
 5960 0014 14000000 		.4byte	.LFE66-.LFB66
 5961 0018 00000000 		.4byte	.LFB68
 5962 001c D8000000 		.4byte	.LFE68-.LFB68
 5963 0020 00000000 		.4byte	.LFB67
 5964 0024 BC000000 		.4byte	.LFE67-.LFB67
 5965 0028 00000000 		.4byte	.LFB69
 5966 002c B8000000 		.4byte	.LFE69-.LFB69
 5967 0030 00000000 		.4byte	.LFB70
 5968 0034 54000000 		.4byte	.LFE70-.LFB70
 5969 0038 00000000 		.4byte	.LFB71
 5970 003c 30000000 		.4byte	.LFE71-.LFB71
 5971 0040 00000000 		.4byte	.LFB73
 5972 0044 D0000000 		.4byte	.LFE73-.LFB73
 5973 0048 00000000 		.4byte	.LFB72
 5974 004c 30000000 		.4byte	.LFE72-.LFB72
 5975 0050 00000000 		.4byte	.LFB74
 5976 0054 50000000 		.4byte	.LFE74-.LFB74
 5977 0058 00000000 		.4byte	.LFB75
 5978 005c 48000000 		.4byte	.LFE75-.LFB75
 5979 0060 00000000 		.4byte	0
 5980 0064 00000000 		.4byte	0
 5981              		.section	.debug_ranges,"",%progbits
 5982              	.Ldebug_ranges0:
 5983 0000 00000000 		.4byte	.LFB66
 5984 0004 14000000 		.4byte	.LFE66
 5985 0008 00000000 		.4byte	.LFB68
 5986 000c D8000000 		.4byte	.LFE68
 5987 0010 00000000 		.4byte	.LFB67
 5988 0014 BC000000 		.4byte	.LFE67
 5989 0018 00000000 		.4byte	.LFB69
 5990 001c B8000000 		.4byte	.LFE69
 5991 0020 00000000 		.4byte	.LFB70
 5992 0024 54000000 		.4byte	.LFE70
 5993 0028 00000000 		.4byte	.LFB71
 5994 002c 30000000 		.4byte	.LFE71
 5995 0030 00000000 		.4byte	.LFB73
 5996 0034 D0000000 		.4byte	.LFE73
 5997 0038 00000000 		.4byte	.LFB72
 5998 003c 30000000 		.4byte	.LFE72
 5999 0040 00000000 		.4byte	.LFB74
 6000 0044 50000000 		.4byte	.LFE74
 6001 0048 00000000 		.4byte	.LFB75
 6002 004c 48000000 		.4byte	.LFE75
ARM GAS  C:\Users\Rolf\AppData\Local\Temp\ccUtnhQP.s 			page 164


 6003 0050 00000000 		.4byte	0
 6004 0054 00000000 		.4byte	0
 6005              		.section	.debug_line,"",%progbits
 6006              	.Ldebug_line0:
 6007 0000 8F050000 		.section	.debug_str,"MS",%progbits,1
 6007      02003103 
 6007      00000201 
 6007      FB0E0D00 
 6007      01010101 
 6008              	.LASF79:
 6009 0000 666C6173 		.ascii	"flashCtlMainWs1Freq\000"
 6009      6843746C 
 6009      4D61696E 
 6009      57733146 
 6009      72657100 
 6010              	.LASF215:
 6011 0014 63707573 		.ascii	"cpuss_interrupts_dw0_2_IRQn\000"
 6011      735F696E 
 6011      74657272 
 6011      75707473 
 6011      5F647730 
 6012              	.LASF336:
 6013 0030 63795F73 		.ascii	"cy_stc_sysint_t\000"
 6013      74635F73 
 6013      7973696E 
 6013      745F7400 
 6014              	.LASF178:
 6015 0040 696F7373 		.ascii	"ioss_interrupt_gpio_IRQn\000"
 6015      5F696E74 
 6015      65727275 
 6015      70745F67 
 6015      70696F5F 
 6016              	.LASF381:
 6017 0059 43795F49 		.ascii	"Cy_IPC_Drv_LockAcquire\000"
 6017      50435F44 
 6017      72765F4C 
 6017      6F636B41 
 6017      63717569 
 6018              	.LASF276:
 6019 0070 74637077 		.ascii	"tcpwm_1_interrupts_15_IRQn\000"
 6019      6D5F315F 
 6019      696E7465 
 6019      72727570 
 6019      74735F31 
 6020              	.LASF157:
 6021 008b 4E766963 		.ascii	"NvicMux28_IRQn\000"
 6021      4D757832 
 6021      385F4952 
 6021      516E00
 6022              	.LASF445:
 6023 009a 63795F64 		.ascii	"cy_device\000"
 6023      65766963 
 6023      6500
 6024              	.LASF387:
 6025 00a4 64617461 		.ascii	"dataValue\000"
 6025      56616C75 
 6025      6500
ARM GAS  C:\Users\Rolf\AppData\Local\Temp\ccUtnhQP.s 			page 165


 6026              	.LASF295:
 6027 00ae 7564625F 		.ascii	"udb_interrupts_10_IRQn\000"
 6027      696E7465 
 6027      72727570 
 6027      74735F31 
 6027      305F4952 
 6028              	.LASF382:
 6029 00c5 62617365 		.ascii	"base\000"
 6029      00
 6030              	.LASF106:
 6031 00ca 63707573 		.ascii	"cpussCm0ClockCtlOffset\000"
 6031      73436D30 
 6031      436C6F63 
 6031      6B43746C 
 6031      4F666673 
 6032              	.LASF220:
 6033 00e1 63707573 		.ascii	"cpuss_interrupts_dw0_7_IRQn\000"
 6033      735F696E 
 6033      74657272 
 6033      75707473 
 6033      5F647730 
 6034              	.LASF327:
 6035 00fd 63686172 		.ascii	"char\000"
 6035      00
 6036              	.LASF318:
 6037 0102 49435052 		.ascii	"ICPR\000"
 6037      00
 6038              	.LASF189:
 6039 0107 63707573 		.ascii	"cpuss_interrupts_ipc_1_IRQn\000"
 6039      735F696E 
 6039      74657272 
 6039      75707473 
 6039      5F697063 
 6040              	.LASF419:
 6041 0123 72657475 		.ascii	"returnStatus\000"
 6041      726E5374 
 6041      61747573 
 6041      00
 6042              	.LASF384:
 6043 0130 43795F49 		.ascii	"Cy_IPC_Drv_AcquireNotify\000"
 6043      50435F44 
 6043      72765F41 
 6043      63717569 
 6043      72654E6F 
 6044              	.LASF443:
 6045 0149 5C5C4D61 		.ascii	"\\\\Mac\\Data\\VScode\\GIT\\Onethinx_Project_Exampl"
 6045      635C4461 
 6045      74615C56 
 6045      53636F64 
 6045      655C4749 
 6046 0176 65735C45 		.ascii	"es\\Example_LoRa\\Onethinx_Creator.cydsn\000"
 6046      78616D70 
 6046      6C655F4C 
 6046      6F52615C 
 6046      4F6E6574 
 6047              	.LASF275:
 6048 019d 74637077 		.ascii	"tcpwm_1_interrupts_14_IRQn\000"
ARM GAS  C:\Users\Rolf\AppData\Local\Temp\ccUtnhQP.s 			page 166


 6048      6D5F315F 
 6048      696E7465 
 6048      72727570 
 6048      74735F31 
 6049              	.LASF237:
 6050 01b8 63707573 		.ascii	"cpuss_interrupts_dw1_8_IRQn\000"
 6050      735F696E 
 6050      74657272 
 6050      75707473 
 6050      5F647731 
 6051              	.LASF243:
 6052 01d4 63707573 		.ascii	"cpuss_interrupts_dw1_14_IRQn\000"
 6052      735F696E 
 6052      74657272 
 6052      75707473 
 6052      5F647731 
 6053              	.LASF425:
 6054 01f1 43795F49 		.ascii	"Cy_IPC_Pipe_RegisterCallback\000"
 6054      50435F50 
 6054      6970655F 
 6054      52656769 
 6054      73746572 
 6055              	.LASF438:
 6056 020e 43795F53 		.ascii	"Cy_SysInt_Init\000"
 6056      7973496E 
 6056      745F496E 
 6056      697400
 6057              	.LASF380:
 6058 021d 43795F49 		.ascii	"Cy_IPC_Drv_GetIntrBaseAddr\000"
 6058      50435F44 
 6058      72765F47 
 6058      6574496E 
 6058      74724261 
 6059              	.LASF357:
 6060 0238 63795F73 		.ascii	"cy_stc_ipc_pipe_ep_config_t\000"
 6060      74635F69 
 6060      70635F70 
 6060      6970655F 
 6060      65705F63 
 6061              	.LASF114:
 6062 0254 63707573 		.ascii	"cpussCm0NmiCtlOffset\000"
 6062      73436D30 
 6062      4E6D6943 
 6062      746C4F66 
 6062      66736574 
 6063              	.LASF84:
 6064 0269 64774368 		.ascii	"dwChSize\000"
 6064      53697A65 
 6064      00
 6065              	.LASF417:
 6066 0272 66726F6D 		.ascii	"fromAddr\000"
 6066      41646472 
 6066      00
 6067              	.LASF347:
 6068 027b 636C6965 		.ascii	"clientCount\000"
 6068      6E74436F 
 6068      756E7400 
ARM GAS  C:\Users\Rolf\AppData\Local\Temp\ccUtnhQP.s 			page 167


 6069              	.LASF440:
 6070 0287 43795F49 		.ascii	"Cy_IPC_Drv_LockRelease\000"
 6070      50435F44 
 6070      72765F4C 
 6070      6F636B52 
 6070      656C6561 
 6071              	.LASF13:
 6072 029e 756E7369 		.ascii	"unsigned int\000"
 6072      676E6564 
 6072      20696E74 
 6072      00
 6073              	.LASF199:
 6074 02ab 63707573 		.ascii	"cpuss_interrupts_ipc_11_IRQn\000"
 6074      735F696E 
 6074      74657272 
 6074      75707473 
 6074      5F697063 
 6075              	.LASF66:
 6076 02c8 736D6966 		.ascii	"smifDeviceNr\000"
 6076      44657669 
 6076      63654E72 
 6076      00
 6077              	.LASF323:
 6078 02d5 4950435F 		.ascii	"IPC_INTR_STRUCT_Type\000"
 6078      494E5452 
 6078      5F535452 
 6078      5543545F 
 6078      54797065 
 6079              	.LASF96:
 6080 02ea 70657269 		.ascii	"periDivCmdPaTypeSelPos\000"
 6080      44697643 
 6080      6D645061 
 6080      54797065 
 6080      53656C50 
 6081              	.LASF268:
 6082 0301 74637077 		.ascii	"tcpwm_1_interrupts_7_IRQn\000"
 6082      6D5F315F 
 6082      696E7465 
 6082      72727570 
 6082      74735F37 
 6083              	.LASF330:
 6084 031b 43595F49 		.ascii	"CY_IPC_DRV_SUCCESS\000"
 6084      50435F44 
 6084      52565F53 
 6084      55434345 
 6084      535300
 6085              	.LASF148:
 6086 032e 4E766963 		.ascii	"NvicMux19_IRQn\000"
 6086      4D757831 
 6086      395F4952 
 6086      516E00
 6087              	.LASF418:
 6088 033d 63616C6C 		.ascii	"callBackPtr\000"
 6088      4261636B 
 6088      50747200 
 6089              	.LASF7:
 6090 0349 5F5F696E 		.ascii	"__int32_t\000"
ARM GAS  C:\Users\Rolf\AppData\Local\Temp\ccUtnhQP.s 			page 168


 6090      7433325F 
 6090      7400
 6091              	.LASF186:
 6092 0353 70617373 		.ascii	"pass_interrupt_ctbs_IRQn\000"
 6092      5F696E74 
 6092      65727275 
 6092      70745F63 
 6092      7462735F 
 6093              	.LASF62:
 6094 036c 73727373 		.ascii	"srssNumClkpath\000"
 6094      4E756D43 
 6094      6C6B7061 
 6094      746800
 6095              	.LASF36:
 6096 037b 63707573 		.ascii	"cpussBase\000"
 6096      73426173 
 6096      6500
 6097              	.LASF334:
 6098 0385 636D3070 		.ascii	"cm0pSrc\000"
 6098      53726300 
 6099              	.LASF143:
 6100 038d 4E766963 		.ascii	"NvicMux14_IRQn\000"
 6100      4D757831 
 6100      345F4952 
 6100      516E00
 6101              	.LASF60:
 6102 039c 63707573 		.ascii	"cpussFmIrq\000"
 6102      73466D49 
 6102      727100
 6103              	.LASF183:
 6104 03a7 73727373 		.ascii	"srss_interrupt_mcwdt_1_IRQn\000"
 6104      5F696E74 
 6104      65727275 
 6104      70745F6D 
 6104      63776474 
 6105              	.LASF376:
 6106 03c3 5F5F4953 		.ascii	"__ISB\000"
 6106      4200
 6107              	.LASF165:
 6108 03c9 696F7373 		.ascii	"ioss_interrupts_gpio_2_IRQn\000"
 6108      5F696E74 
 6108      65727275 
 6108      7074735F 
 6108      6770696F 
 6109              	.LASF61:
 6110 03e5 63707573 		.ascii	"cpussNotConnectedIrq\000"
 6110      734E6F74 
 6110      436F6E6E 
 6110      65637465 
 6110      64497271 
 6111              	.LASF378:
 6112 03fa 69706349 		.ascii	"ipcIntrIndex\000"
 6112      6E747249 
 6112      6E646578 
 6112      00
 6113              	.LASF4:
 6114 0407 73686F72 		.ascii	"short int\000"
ARM GAS  C:\Users\Rolf\AppData\Local\Temp\ccUtnhQP.s 			page 169


 6114      7420696E 
 6114      7400
 6115              	.LASF311:
 6116 0411 63795F65 		.ascii	"cy_en_intr_t\000"
 6116      6E5F696E 
 6116      74725F74 
 6116      00
 6117              	.LASF302:
 6118 041e 61756469 		.ascii	"audioss_interrupt_i2s_IRQn\000"
 6118      6F73735F 
 6118      696E7465 
 6118      72727570 
 6118      745F6932 
 6119              	.LASF400:
 6120 0439 43795F49 		.ascii	"Cy_IPC_Drv_SetInterruptMask\000"
 6120      50435F44 
 6120      72765F53 
 6120      6574496E 
 6120      74657272 
 6121              	.LASF355:
 6122 0455 65704164 		.ascii	"epAddress\000"
 6122      64726573 
 6122      7300
 6123              	.LASF299:
 6124 045f 7564625F 		.ascii	"udb_interrupts_14_IRQn\000"
 6124      696E7465 
 6124      72727570 
 6124      74735F31 
 6124      345F4952 
 6125              	.LASF92:
 6126 0476 70657269 		.ascii	"periTrGrSize\000"
 6126      54724772 
 6126      53697A65 
 6126      00
 6127              	.LASF260:
 6128 0483 74637077 		.ascii	"tcpwm_0_interrupts_7_IRQn\000"
 6128      6D5F305F 
 6128      696E7465 
 6128      72727570 
 6128      74735F37 
 6129              	.LASF377:
 6130 049d 5F5F4453 		.ascii	"__DSB\000"
 6130      4200
 6131              	.LASF395:
 6132 04a3 43795F49 		.ascii	"Cy_IPC_Drv_ExtractReleaseMask\000"
 6132      50435F44 
 6132      72765F45 
 6132      78747261 
 6132      63745265 
 6133              	.LASF95:
 6134 04c1 70657269 		.ascii	"periDivCmdPaDivSelPos\000"
 6134      44697643 
 6134      6D645061 
 6134      44697653 
 6134      656C506F 
 6135              	.LASF29:
 6136 04d7 494E5452 		.ascii	"INTR_SET\000"
ARM GAS  C:\Users\Rolf\AppData\Local\Temp\ccUtnhQP.s 			page 170


 6136      5F534554 
 6136      00
 6137              	.LASF72:
 6138 04e0 63727970 		.ascii	"cryptoMemSize\000"
 6138      746F4D65 
 6138      6D53697A 
 6138      6500
 6139              	.LASF134:
 6140 04ee 4E766963 		.ascii	"NvicMux5_IRQn\000"
 6140      4D757835 
 6140      5F495251 
 6140      6E00
 6141              	.LASF229:
 6142 04fc 63707573 		.ascii	"cpuss_interrupts_dw1_0_IRQn\000"
 6142      735F696E 
 6142      74657272 
 6142      75707473 
 6142      5F647731 
 6143              	.LASF398:
 6144 0518 43795F49 		.ascii	"Cy_IPC_Drv_GetIpcBaseAddress\000"
 6144      50435F44 
 6144      72765F47 
 6144      65744970 
 6144      63426173 
 6145              	.LASF255:
 6146 0535 74637077 		.ascii	"tcpwm_0_interrupts_2_IRQn\000"
 6146      6D5F305F 
 6146      696E7465 
 6146      72727570 
 6146      74735F32 
 6147              	.LASF127:
 6148 054f 50656E64 		.ascii	"PendSV_IRQn\000"
 6148      53565F49 
 6148      52516E00 
 6149              	.LASF24:
 6150 055b 44415441 		.ascii	"DATA\000"
 6150      00
 6151              	.LASF54:
 6152 0560 70726F74 		.ascii	"protVersion\000"
 6152      56657273 
 6152      696F6E00 
 6153              	.LASF26:
 6154 056c 52455345 		.ascii	"RESERVED\000"
 6154      52564544 
 6154      00
 6155              	.LASF129:
 6156 0575 4E766963 		.ascii	"NvicMux0_IRQn\000"
 6156      4D757830 
 6156      5F495251 
 6156      6E00
 6157              	.LASF15:
 6158 0583 696E7431 		.ascii	"int16_t\000"
 6158      365F7400 
 6159              	.LASF27:
 6160 058b 4950435F 		.ascii	"IPC_STRUCT_V1_Type\000"
 6160      53545255 
 6160      43545F56 
ARM GAS  C:\Users\Rolf\AppData\Local\Temp\ccUtnhQP.s 			page 171


 6160      315F5479 
 6160      706500
 6161              	.LASF94:
 6162 059e 70657269 		.ascii	"periDivCmdTypeSelPos\000"
 6162      44697643 
 6162      6D645479 
 6162      70655365 
 6162      6C506F73 
 6163              	.LASF111:
 6164 05b3 63707573 		.ascii	"cpussTrimRamCtlOffset\000"
 6164      73547269 
 6164      6D52616D 
 6164      43746C4F 
 6164      66667365 
 6165              	.LASF292:
 6166 05c9 7564625F 		.ascii	"udb_interrupts_7_IRQn\000"
 6166      696E7465 
 6166      72727570 
 6166      74735F37 
 6166      5F495251 
 6167              	.LASF196:
 6168 05df 63707573 		.ascii	"cpuss_interrupts_ipc_8_IRQn\000"
 6168      735F696E 
 6168      74657272 
 6168      75707473 
 6168      5F697063 
 6169              	.LASF393:
 6170 05fb 43795F49 		.ascii	"Cy_IPC_Drv_ReadMsgPtr\000"
 6170      50435F44 
 6170      72765F52 
 6170      6561644D 
 6170      73675074 
 6171              	.LASF181:
 6172 0611 7363625F 		.ascii	"scb_8_interrupt_IRQn\000"
 6172      385F696E 
 6172      74657272 
 6172      7570745F 
 6172      4952516E 
 6173              	.LASF346:
 6174 0626 62757379 		.ascii	"busy\000"
 6174      00
 6175              	.LASF361:
 6176 062b 656E6470 		.ascii	"endpointsCallbacksArray\000"
 6176      6F696E74 
 6176      7343616C 
 6176      6C626163 
 6176      6B734172 
 6177              	.LASF278:
 6178 0643 74637077 		.ascii	"tcpwm_1_interrupts_17_IRQn\000"
 6178      6D5F315F 
 6178      696E7465 
 6178      72727570 
 6178      74735F31 
 6179              	.LASF287:
 6180 065e 7564625F 		.ascii	"udb_interrupts_2_IRQn\000"
 6180      696E7465 
 6180      72727570 
ARM GAS  C:\Users\Rolf\AppData\Local\Temp\ccUtnhQP.s 			page 172


 6180      74735F32 
 6180      5F495251 
 6181              	.LASF225:
 6182 0674 63707573 		.ascii	"cpuss_interrupts_dw0_12_IRQn\000"
 6182      735F696E 
 6182      74657272 
 6182      75707473 
 6182      5F647730 
 6183              	.LASF18:
 6184 0691 75696E74 		.ascii	"uint32_t\000"
 6184      33325F74 
 6184      00
 6185              	.LASF367:
 6186 069a 43595F49 		.ascii	"CY_IPC_PIPE_ERROR_BAD_PRIORITY\000"
 6186      50435F50 
 6186      4950455F 
 6186      4552524F 
 6186      525F4241 
 6187              	.LASF332:
 6188 06b9 63795F65 		.ascii	"cy_en_ipcdrv_status_t\000"
 6188      6E5F6970 
 6188      63647276 
 6188      5F737461 
 6188      7475735F 
 6189              	.LASF273:
 6190 06cf 74637077 		.ascii	"tcpwm_1_interrupts_12_IRQn\000"
 6190      6D5F315F 
 6190      696E7465 
 6190      72727570 
 6190      74735F31 
 6191              	.LASF170:
 6192 06ea 696F7373 		.ascii	"ioss_interrupts_gpio_7_IRQn\000"
 6192      5F696E74 
 6192      65727275 
 6192      7074735F 
 6192      6770696F 
 6193              	.LASF176:
 6194 0706 696F7373 		.ascii	"ioss_interrupts_gpio_13_IRQn\000"
 6194      5F696E74 
 6194      65727275 
 6194      7074735F 
 6194      6770696F 
 6195              	.LASF154:
 6196 0723 4E766963 		.ascii	"NvicMux25_IRQn\000"
 6196      4D757832 
 6196      355F4952 
 6196      516E00
 6197              	.LASF104:
 6198 0732 6770696F 		.ascii	"gpioPrtCfgOutOffset\000"
 6198      50727443 
 6198      66674F75 
 6198      744F6666 
 6198      73657400 
 6199              	.LASF312:
 6200 0746 49534552 		.ascii	"ISER\000"
 6200      00
 6201              	.LASF250:
ARM GAS  C:\Users\Rolf\AppData\Local\Temp\ccUtnhQP.s 			page 173


 6202 074b 63707573 		.ascii	"cpuss_interrupts_cm0_cti_1_IRQn\000"
 6202      735F696E 
 6202      74657272 
 6202      75707473 
 6202      5F636D30 
 6203              	.LASF328:
 6204 076b 666C6F61 		.ascii	"float\000"
 6204      7400
 6205              	.LASF47:
 6206 0771 63727970 		.ascii	"cryptoVersion\000"
 6206      746F5665 
 6206      7273696F 
 6206      6E00
 6207              	.LASF76:
 6208 077f 666C6173 		.ascii	"flashProgramDelay\000"
 6208      6850726F 
 6208      6772616D 
 6208      44656C61 
 6208      7900
 6209              	.LASF208:
 6210 0791 7363625F 		.ascii	"scb_4_interrupt_IRQn\000"
 6210      345F696E 
 6210      74657272 
 6210      7570745F 
 6210      4952516E 
 6211              	.LASF315:
 6212 07a6 52534552 		.ascii	"RSERVED1\000"
 6212      56454431 
 6212      00
 6213              	.LASF37:
 6214 07af 666C6173 		.ascii	"flashcBase\000"
 6214      68634261 
 6214      736500
 6215              	.LASF234:
 6216 07ba 63707573 		.ascii	"cpuss_interrupts_dw1_5_IRQn\000"
 6216      735F696E 
 6216      74657272 
 6216      75707473 
 6216      5F647731 
 6217              	.LASF136:
 6218 07d6 4E766963 		.ascii	"NvicMux7_IRQn\000"
 6218      4D757837 
 6218      5F495251 
 6218      6E00
 6219              	.LASF103:
 6220 07e4 6770696F 		.ascii	"gpioPrtCfgInOffset\000"
 6220      50727443 
 6220      6667496E 
 6220      4F666673 
 6220      657400
 6221              	.LASF240:
 6222 07f7 63707573 		.ascii	"cpuss_interrupts_dw1_11_IRQn\000"
 6222      735F696E 
 6222      74657272 
 6222      75707473 
 6222      5F647731 
 6223              	.LASF307:
ARM GAS  C:\Users\Rolf\AppData\Local\Temp\ccUtnhQP.s 			page 174


 6224 0814 7573625F 		.ascii	"usb_interrupt_med_IRQn\000"
 6224      696E7465 
 6224      72727570 
 6224      745F6D65 
 6224      645F4952 
 6225              	.LASF75:
 6226 082b 666C6173 		.ascii	"flashWriteDelay\000"
 6226      68577269 
 6226      74654465 
 6226      6C617900 
 6227              	.LASF12:
 6228 083b 6C6F6E67 		.ascii	"long long unsigned int\000"
 6228      206C6F6E 
 6228      6720756E 
 6228      7369676E 
 6228      65642069 
 6229              	.LASF100:
 6230 0852 70657269 		.ascii	"periDiv24_5CtlOffset\000"
 6230      44697632 
 6230      345F3543 
 6230      746C4F66 
 6230      66736574 
 6231              	.LASF105:
 6232 0867 6770696F 		.ascii	"gpioPrtCfgSioOffset\000"
 6232      50727443 
 6232      66675369 
 6232      6F4F6666 
 6232      73657400 
 6233              	.LASF201:
 6234 087b 63707573 		.ascii	"cpuss_interrupts_ipc_13_IRQn\000"
 6234      735F696E 
 6234      74657272 
 6234      75707473 
 6234      5F697063 
 6235              	.LASF59:
 6236 0898 63707573 		.ascii	"cpussIpc0Irq\000"
 6236      73497063 
 6236      30497271 
 6236      00
 6237              	.LASF97:
 6238 08a5 70657269 		.ascii	"periDiv8CtlOffset\000"
 6238      44697638 
 6238      43746C4F 
 6238      66667365 
 6238      7400
 6239              	.LASF270:
 6240 08b7 74637077 		.ascii	"tcpwm_1_interrupts_9_IRQn\000"
 6240      6D5F315F 
 6240      696E7465 
 6240      72727570 
 6240      74735F39 
 6241              	.LASF68:
 6242 08d1 65704D6F 		.ascii	"epMonitorNr\000"
 6242      6E69746F 
 6242      724E7200 
 6243              	.LASF429:
 6244 08dd 43795F49 		.ascii	"Cy_IPC_Drv_ClearInterrupt\000"
ARM GAS  C:\Users\Rolf\AppData\Local\Temp\ccUtnhQP.s 			page 175


 6244      50435F44 
 6244      72765F43 
 6244      6C656172 
 6244      496E7465 
 6245              	.LASF5:
 6246 08f7 5F5F7569 		.ascii	"__uint16_t\000"
 6246      6E743136 
 6246      5F7400
 6247              	.LASF126:
 6248 0902 53564361 		.ascii	"SVCall_IRQn\000"
 6248      6C6C5F49 
 6248      52516E00 
 6249              	.LASF358:
 6250 090e 65703043 		.ascii	"ep0ConfigData\000"
 6250      6F6E6669 
 6250      67446174 
 6250      6100
 6251              	.LASF226:
 6252 091c 63707573 		.ascii	"cpuss_interrupts_dw0_13_IRQn\000"
 6252      735F696E 
 6252      74657272 
 6252      75707473 
 6252      5F647730 
 6253              	.LASF265:
 6254 0939 74637077 		.ascii	"tcpwm_1_interrupts_4_IRQn\000"
 6254      6D5F315F 
 6254      696E7465 
 6254      72727570 
 6254      74735F34 
 6255              	.LASF32:
 6256 0953 4950435F 		.ascii	"IPC_INTR_STRUCT_V1_Type\000"
 6256      494E5452 
 6256      5F535452 
 6256      5543545F 
 6256      56315F54 
 6257              	.LASF212:
 6258 096b 6373645F 		.ascii	"csd_interrupt_IRQn\000"
 6258      696E7465 
 6258      72727570 
 6258      745F4952 
 6258      516E00
 6259              	.LASF145:
 6260 097e 4E766963 		.ascii	"NvicMux16_IRQn\000"
 6260      4D757831 
 6260      365F4952 
 6260      516E00
 6261              	.LASF304:
 6262 098d 70726F66 		.ascii	"profile_interrupt_IRQn\000"
 6262      696C655F 
 6262      696E7465 
 6262      72727570 
 6262      745F4952 
 6263              	.LASF389:
 6264 09a4 696E744D 		.ascii	"intMask\000"
 6264      61736B00 
 6265              	.LASF174:
 6266 09ac 696F7373 		.ascii	"ioss_interrupts_gpio_11_IRQn\000"
ARM GAS  C:\Users\Rolf\AppData\Local\Temp\ccUtnhQP.s 			page 176


 6266      5F696E74 
 6266      65727275 
 6266      7074735F 
 6266      6770696F 
 6267              	.LASF385:
 6268 09c9 6E6F7469 		.ascii	"notifyEventIntr\000"
 6268      66794576 
 6268      656E7449 
 6268      6E747200 
 6269              	.LASF428:
 6270 09d9 43795F49 		.ascii	"Cy_IPC_Pipe_RegisterCallbackRel\000"
 6270      50435F50 
 6270      6970655F 
 6270      52656769 
 6270      73746572 
 6271              	.LASF394:
 6272 09f9 6D736750 		.ascii	"msgPtr\000"
 6272      747200
 6273              	.LASF140:
 6274 0a00 4E766963 		.ascii	"NvicMux11_IRQn\000"
 6274      4D757831 
 6274      315F4952 
 6274      516E00
 6275              	.LASF245:
 6276 0a0f 63707573 		.ascii	"cpuss_interrupts_fault_0_IRQn\000"
 6276      735F696E 
 6276      74657272 
 6276      75707473 
 6276      5F666175 
 6277              	.LASF249:
 6278 0a2d 63707573 		.ascii	"cpuss_interrupts_cm0_cti_0_IRQn\000"
 6278      735F696E 
 6278      74657272 
 6278      75707473 
 6278      5F636D30 
 6279              	.LASF81:
 6280 0a4d 666C6173 		.ascii	"flashCtlMainWs3Freq\000"
 6280      6843746C 
 6280      4D61696E 
 6280      57733346 
 6280      72657100 
 6281              	.LASF162:
 6282 0a61 4952516E 		.ascii	"IRQn_Type\000"
 6282      5F547970 
 6282      6500
 6283              	.LASF63:
 6284 0a6b 73727373 		.ascii	"srssNumPll\000"
 6284      4E756D50 
 6284      6C6C00
 6285              	.LASF352:
 6286 0a76 6970634E 		.ascii	"ipcNotifierNumber\000"
 6286      6F746966 
 6286      6965724E 
 6286      756D6265 
 6286      7200
 6287              	.LASF296:
 6288 0a88 7564625F 		.ascii	"udb_interrupts_11_IRQn\000"
ARM GAS  C:\Users\Rolf\AppData\Local\Temp\ccUtnhQP.s 			page 177


 6288      696E7465 
 6288      72727570 
 6288      74735F31 
 6288      315F4952 
 6289              	.LASF190:
 6290 0a9f 63707573 		.ascii	"cpuss_interrupts_ipc_2_IRQn\000"
 6290      735F696E 
 6290      74657272 
 6290      75707473 
 6290      5F697063 
 6291              	.LASF354:
 6292 0abb 6970634E 		.ascii	"ipcNotifierMuxNumber\000"
 6292      6F746966 
 6292      6965724D 
 6292      75784E75 
 6292      6D626572 
 6293              	.LASF25:
 6294 0ad0 4C4F434B 		.ascii	"LOCK_STATUS\000"
 6294      5F535441 
 6294      54555300 
 6295              	.LASF356:
 6296 0adc 6570436F 		.ascii	"epConfig\000"
 6296      6E666967 
 6296      00
 6297              	.LASF160:
 6298 0ae5 4E766963 		.ascii	"NvicMux31_IRQn\000"
 6298      4D757833 
 6298      315F4952 
 6298      516E00
 6299              	.LASF74:
 6300 0af4 666C6173 		.ascii	"flashPipeRequired\000"
 6300      68506970 
 6300      65526571 
 6300      75697265 
 6300      6400
 6301              	.LASF345:
 6302 0b06 69706349 		.ascii	"ipcIntrPtr\000"
 6302      6E747250 
 6302      747200
 6303              	.LASF131:
 6304 0b11 4E766963 		.ascii	"NvicMux2_IRQn\000"
 6304      4D757832 
 6304      5F495251 
 6304      6E00
 6305              	.LASF405:
 6306 0b1f 74686545 		.ascii	"theEpArray\000"
 6306      70417272 
 6306      617900
 6307              	.LASF392:
 6308 0b2a 5F426F6F 		.ascii	"_Bool\000"
 6308      6C00
 6309              	.LASF266:
 6310 0b30 74637077 		.ascii	"tcpwm_1_interrupts_5_IRQn\000"
 6310      6D5F315F 
 6310      696E7465 
 6310      72727570 
 6310      74735F35 
ARM GAS  C:\Users\Rolf\AppData\Local\Temp\ccUtnhQP.s 			page 178


 6311              	.LASF383:
 6312 0b4a 5F5F4E56 		.ascii	"__NVIC_EnableIRQ\000"
 6312      49435F45 
 6312      6E61626C 
 6312      65495251 
 6312      00
 6313              	.LASF78:
 6314 0b5b 666C6173 		.ascii	"flashCtlMainWs0Freq\000"
 6314      6843746C 
 6314      4D61696E 
 6314      57733046 
 6314      72657100 
 6315              	.LASF401:
 6316 0b6f 69706352 		.ascii	"ipcReleaseMask\000"
 6316      656C6561 
 6316      73654D61 
 6316      736B00
 6317              	.LASF426:
 6318 0b7e 636C6965 		.ascii	"clientId\000"
 6318      6E744964 
 6318      00
 6319              	.LASF42:
 6320 0b87 6770696F 		.ascii	"gpioBase\000"
 6320      42617365 
 6320      00
 6321              	.LASF309:
 6322 0b90 70617373 		.ascii	"pass_interrupt_dacs_IRQn\000"
 6322      5F696E74 
 6322      65727275 
 6322      70745F64 
 6322      6163735F 
 6323              	.LASF262:
 6324 0ba9 74637077 		.ascii	"tcpwm_1_interrupts_1_IRQn\000"
 6324      6D5F315F 
 6324      696E7465 
 6324      72727570 
 6324      74735F31 
 6325              	.LASF289:
 6326 0bc3 7564625F 		.ascii	"udb_interrupts_4_IRQn\000"
 6326      696E7465 
 6326      72727570 
 6326      74735F34 
 6326      5F495251 
 6327              	.LASF348:
 6328 0bd9 63616C6C 		.ascii	"callbackArray\000"
 6328      6261636B 
 6328      41727261 
 6328      7900
 6329              	.LASF303:
 6330 0be7 61756469 		.ascii	"audioss_interrupt_pdm_IRQn\000"
 6330      6F73735F 
 6330      696E7465 
 6330      72727570 
 6330      745F7064 
 6331              	.LASF282:
 6332 0c02 74637077 		.ascii	"tcpwm_1_interrupts_21_IRQn\000"
 6332      6D5F315F 
ARM GAS  C:\Users\Rolf\AppData\Local\Temp\ccUtnhQP.s 			page 179


 6332      696E7465 
 6332      72727570 
 6332      74735F32 
 6333              	.LASF223:
 6334 0c1d 63707573 		.ascii	"cpuss_interrupts_dw0_10_IRQn\000"
 6334      735F696E 
 6334      74657272 
 6334      75707473 
 6334      5F647730 
 6335              	.LASF121:
 6336 0c3a 6970634C 		.ascii	"ipcLockStatusOffset\000"
 6336      6F636B53 
 6336      74617475 
 6336      734F6666 
 6336      73657400 
 6337              	.LASF172:
 6338 0c4e 696F7373 		.ascii	"ioss_interrupts_gpio_9_IRQn\000"
 6338      5F696E74 
 6338      65727275 
 6338      7074735F 
 6338      6770696F 
 6339              	.LASF113:
 6340 0c6a 63707573 		.ascii	"cpussSysTickCtlOffset\000"
 6340      73537973 
 6340      5469636B 
 6340      43746C4F 
 6340      66667365 
 6341              	.LASF28:
 6342 0c80 494E5452 		.ascii	"INTR\000"
 6342      00
 6343              	.LASF87:
 6344 0c85 64775374 		.ascii	"dwStatusChIdxPos\000"
 6344      61747573 
 6344      43684964 
 6344      78506F73 
 6344      00
 6345              	.LASF30:
 6346 0c96 494E5452 		.ascii	"INTR_MASK\000"
 6346      5F4D4153 
 6346      4B00
 6347              	.LASF219:
 6348 0ca0 63707573 		.ascii	"cpuss_interrupts_dw0_6_IRQn\000"
 6348      735F696E 
 6348      74657272 
 6348      75707473 
 6348      5F647730 
 6349              	.LASF439:
 6350 0cbc 43795F49 		.ascii	"Cy_IPC_Drv_ReadMsgWord\000"
 6350      50435F44 
 6350      72765F52 
 6350      6561644D 
 6350      7367576F 
 6351              	.LASF167:
 6352 0cd3 696F7373 		.ascii	"ioss_interrupts_gpio_4_IRQn\000"
 6352      5F696E74 
 6352      65727275 
 6352      7074735F 
ARM GAS  C:\Users\Rolf\AppData\Local\Temp\ccUtnhQP.s 			page 180


 6352      6770696F 
 6353              	.LASF173:
 6354 0cef 696F7373 		.ascii	"ioss_interrupts_gpio_10_IRQn\000"
 6354      5F696E74 
 6354      65727275 
 6354      7074735F 
 6354      6770696F 
 6355              	.LASF151:
 6356 0d0c 4E766963 		.ascii	"NvicMux22_IRQn\000"
 6356      4D757832 
 6356      325F4952 
 6356      516E00
 6357              	.LASF228:
 6358 0d1b 63707573 		.ascii	"cpuss_interrupts_dw0_15_IRQn\000"
 6358      735F696E 
 6358      74657272 
 6358      75707473 
 6358      5F647730 
 6359              	.LASF185:
 6360 0d38 73727373 		.ascii	"srss_interrupt_IRQn\000"
 6360      5F696E74 
 6360      65727275 
 6360      70745F49 
 6360      52516E00 
 6361              	.LASF58:
 6362 0d4c 63707573 		.ascii	"cpussFlashPaSize\000"
 6362      73466C61 
 6362      73685061 
 6362      53697A65 
 6362      00
 6363              	.LASF236:
 6364 0d5d 63707573 		.ascii	"cpuss_interrupts_dw1_7_IRQn\000"
 6364      735F696E 
 6364      74657272 
 6364      75707473 
 6364      5F647731 
 6365              	.LASF242:
 6366 0d79 63707573 		.ascii	"cpuss_interrupts_dw1_13_IRQn\000"
 6366      735F696E 
 6366      74657272 
 6366      75707473 
 6366      5F647731 
 6367              	.LASF406:
 6368 0d96 65704164 		.ascii	"epAddr\000"
 6368      647200
 6369              	.LASF214:
 6370 0d9d 63707573 		.ascii	"cpuss_interrupts_dw0_1_IRQn\000"
 6370      735F696E 
 6370      74657272 
 6370      75707473 
 6370      5F647730 
 6371              	.LASF437:
 6372 0db9 43795F53 		.ascii	"Cy_SysLib_AssertFailed\000"
 6372      79734C69 
 6372      625F4173 
 6372      73657274 
 6372      4661696C 
ARM GAS  C:\Users\Rolf\AppData\Local\Temp\ccUtnhQP.s 			page 181


 6373              	.LASF247:
 6374 0dd0 63707573 		.ascii	"cpuss_interrupt_crypto_IRQn\000"
 6374      735F696E 
 6374      74657272 
 6374      7570745F 
 6374      63727970 
 6375              	.LASF99:
 6376 0dec 70657269 		.ascii	"periDiv16_5CtlOffset\000"
 6376      44697631 
 6376      365F3543 
 6376      746C4F66 
 6376      66736574 
 6377              	.LASF161:
 6378 0e01 756E636F 		.ascii	"unconnected_IRQn\000"
 6378      6E6E6563 
 6378      7465645F 
 6378      4952516E 
 6378      00
 6379              	.LASF298:
 6380 0e12 7564625F 		.ascii	"udb_interrupts_13_IRQn\000"
 6380      696E7465 
 6380      72727570 
 6380      74735F31 
 6380      335F4952 
 6381              	.LASF231:
 6382 0e29 63707573 		.ascii	"cpuss_interrupts_dw1_2_IRQn\000"
 6382      735F696E 
 6382      74657272 
 6382      75707473 
 6382      5F647731 
 6383              	.LASF434:
 6384 0e45 43795F49 		.ascii	"Cy_IPC_Pipe_EndpointPause\000"
 6384      50435F50 
 6384      6970655F 
 6384      456E6470 
 6384      6F696E74 
 6385              	.LASF38:
 6386 0e5f 70657269 		.ascii	"periBase\000"
 6386      42617365 
 6386      00
 6387              	.LASF70:
 6388 0e68 73797350 		.ascii	"sysPmSimoPresent\000"
 6388      6D53696D 
 6388      6F507265 
 6388      73656E74 
 6388      00
 6389              	.LASF308:
 6390 0e79 7573625F 		.ascii	"usb_interrupt_lo_IRQn\000"
 6390      696E7465 
 6390      72727570 
 6390      745F6C6F 
 6390      5F495251 
 6391              	.LASF198:
 6392 0e8f 63707573 		.ascii	"cpuss_interrupts_ipc_10_IRQn\000"
 6392      735F696E 
 6392      74657272 
 6392      75707473 
ARM GAS  C:\Users\Rolf\AppData\Local\Temp\ccUtnhQP.s 			page 182


 6392      5F697063 
 6393              	.LASF366:
 6394 0eac 43595F49 		.ascii	"CY_IPC_PIPE_ERROR_NO_INTR\000"
 6394      50435F50 
 6394      4950455F 
 6394      4552524F 
 6394      525F4E4F 
 6395              	.LASF371:
 6396 0ec6 43595F49 		.ascii	"CY_IPC_PIPE_ERROR_SEND_BUSY\000"
 6396      50435F50 
 6396      4950455F 
 6396      4552524F 
 6396      525F5345 
 6397              	.LASF149:
 6398 0ee2 4E766963 		.ascii	"NvicMux20_IRQn\000"
 6398      4D757832 
 6398      305F4952 
 6398      516E00
 6399              	.LASF267:
 6400 0ef1 74637077 		.ascii	"tcpwm_1_interrupts_6_IRQn\000"
 6400      6D5F315F 
 6400      696E7465 
 6400      72727570 
 6400      74735F36 
 6401              	.LASF294:
 6402 0f0b 7564625F 		.ascii	"udb_interrupts_9_IRQn\000"
 6402      696E7465 
 6402      72727570 
 6402      74735F39 
 6402      5F495251 
 6403              	.LASF88:
 6404 0f21 64775374 		.ascii	"dwStatusChIdxMsk\000"
 6404      61747573 
 6404      43684964 
 6404      784D736B 
 6404      00
 6405              	.LASF147:
 6406 0f32 4E766963 		.ascii	"NvicMux18_IRQn\000"
 6406      4D757831 
 6406      385F4952 
 6406      516E00
 6407              	.LASF14:
 6408 0f41 75696E74 		.ascii	"uint8_t\000"
 6408      385F7400 
 6409              	.LASF115:
 6410 0f49 63707573 		.ascii	"cpussCm4NmiCtlOffset\000"
 6410      73436D34 
 6410      4E6D6943 
 6410      746C4F66 
 6410      66736574 
 6411              	.LASF396:
 6412 0f5e 43795F49 		.ascii	"Cy_IPC_Drv_GetInterruptStatus\000"
 6412      50435F44 
 6412      72765F47 
 6412      6574496E 
 6412      74657272 
 6413              	.LASF280:
ARM GAS  C:\Users\Rolf\AppData\Local\Temp\ccUtnhQP.s 			page 183


 6414 0f7c 74637077 		.ascii	"tcpwm_1_interrupts_19_IRQn\000"
 6414      6D5F315F 
 6414      696E7465 
 6414      72727570 
 6414      74735F31 
 6415              	.LASF333:
 6416 0f97 696E7472 		.ascii	"intrSrc\000"
 6416      53726300 
 6417              	.LASF69:
 6418 0f9f 75646250 		.ascii	"udbPresent\000"
 6418      72657365 
 6418      6E7400
 6419              	.LASF93:
 6420 0faa 70657269 		.ascii	"periDivCmdDivSelMsk\000"
 6420      44697643 
 6420      6D644469 
 6420      7653656C 
 6420      4D736B00 
 6421              	.LASF142:
 6422 0fbe 4E766963 		.ascii	"NvicMux13_IRQn\000"
 6422      4D757831 
 6422      335F4952 
 6422      516E00
 6423              	.LASF182:
 6424 0fcd 73727373 		.ascii	"srss_interrupt_mcwdt_0_IRQn\000"
 6424      5F696E74 
 6424      65727275 
 6424      70745F6D 
 6424      63776474 
 6425              	.LASF351:
 6426 0fe9 63795F73 		.ascii	"cy_stc_ipc_pipe_ep_t\000"
 6426      74635F69 
 6426      70635F70 
 6426      6970655F 
 6426      65705F74 
 6427              	.LASF207:
 6428 0ffe 7363625F 		.ascii	"scb_3_interrupt_IRQn\000"
 6428      335F696E 
 6428      74657272 
 6428      7570745F 
 6428      4952516E 
 6429              	.LASF101:
 6430 1013 6770696F 		.ascii	"gpioPrtIntrCfgOffset\000"
 6430      50727449 
 6430      6E747243 
 6430      66674F66 
 6430      66736574 
 6431              	.LASF180:
 6432 1028 6C70636F 		.ascii	"lpcomp_interrupt_IRQn\000"
 6432      6D705F69 
 6432      6E746572 
 6432      72757074 
 6432      5F495251 
 6433              	.LASF193:
 6434 103e 63707573 		.ascii	"cpuss_interrupts_ipc_5_IRQn\000"
 6434      735F696E 
 6434      74657272 
ARM GAS  C:\Users\Rolf\AppData\Local\Temp\ccUtnhQP.s 			page 184


 6434      75707473 
 6434      5F697063 
 6435              	.LASF156:
 6436 105a 4E766963 		.ascii	"NvicMux27_IRQn\000"
 6436      4D757832 
 6436      375F4952 
 6436      516E00
 6437              	.LASF435:
 6438 1069 43795F49 		.ascii	"Cy_IPC_Pipe_EndpointResume\000"
 6438      50435F50 
 6438      6970655F 
 6438      456E6470 
 6438      6F696E74 
 6439              	.LASF409:
 6440 1084 6570496E 		.ascii	"epInterrupt\000"
 6440      74657272 
 6440      75707400 
 6441              	.LASF117:
 6442 1090 63707573 		.ascii	"cpussRam0Ctl0\000"
 6442      7352616D 
 6442      3043746C 
 6442      3000
 6443              	.LASF11:
 6444 109e 6C6F6E67 		.ascii	"long long int\000"
 6444      206C6F6E 
 6444      6720696E 
 6444      7400
 6445              	.LASF44:
 6446 10ac 69706342 		.ascii	"ipcBase\000"
 6446      61736500 
 6447              	.LASF85:
 6448 10b4 64774368 		.ascii	"dwChCtlPrioPos\000"
 6448      43746C50 
 6448      72696F50 
 6448      6F7300
 6449              	.LASF45:
 6450 10c3 63727970 		.ascii	"cryptoBase\000"
 6450      746F4261 
 6450      736500
 6451              	.LASF195:
 6452 10ce 63707573 		.ascii	"cpuss_interrupts_ipc_7_IRQn\000"
 6452      735F696E 
 6452      74657272 
 6452      75707473 
 6452      5F697063 
 6453              	.LASF365:
 6454 10ea 43595F49 		.ascii	"CY_IPC_PIPE_ERROR_NO_IPC\000"
 6454      50435F50 
 6454      4950455F 
 6454      4552524F 
 6454      525F4E4F 
 6455              	.LASF374:
 6456 1103 43595F49 		.ascii	"CY_IPC_PIPE_ERROR_BAD_CLIENT\000"
 6456      50435F50 
 6456      4950455F 
 6456      4552524F 
 6456      525F4241 
ARM GAS  C:\Users\Rolf\AppData\Local\Temp\ccUtnhQP.s 			page 185


 6457              	.LASF34:
 6458 1120 494E5452 		.ascii	"INTR_STRUCT\000"
 6458      5F535452 
 6458      55435400 
 6459              	.LASF21:
 6460 112c 41435155 		.ascii	"ACQUIRE\000"
 6460      49524500 
 6461              	.LASF254:
 6462 1134 74637077 		.ascii	"tcpwm_0_interrupts_1_IRQn\000"
 6462      6D5F305F 
 6462      696E7465 
 6462      72727570 
 6462      74735F31 
 6463              	.LASF441:
 6464 114e 474E5520 		.ascii	"GNU C11 5.4.1 20160609 (release) [ARM/embedded-5-br"
 6464      43313120 
 6464      352E342E 
 6464      31203230 
 6464      31363036 
 6465 1181 616E6368 		.ascii	"anch revision 237715] -mcpu=cortex-m0plus -mthumb -"
 6465      20726576 
 6465      6973696F 
 6465      6E203233 
 6465      37373135 
 6466 11b4 67202D4F 		.ascii	"g -Og -ffunction-sections -ffat-lto-objects\000"
 6466      67202D66 
 6466      66756E63 
 6466      74696F6E 
 6466      2D736563 
 6467              	.LASF209:
 6468 11e0 7363625F 		.ascii	"scb_5_interrupt_IRQn\000"
 6468      355F696E 
 6468      74657272 
 6468      7570745F 
 6468      4952516E 
 6469              	.LASF444:
 6470 11f5 73686164 		.ascii	"shadowIntr\000"
 6470      6F77496E 
 6470      747200
 6471              	.LASF203:
 6472 1200 63707573 		.ascii	"cpuss_interrupts_ipc_15_IRQn\000"
 6472      735F696E 
 6472      74657272 
 6472      75707473 
 6472      5F697063 
 6473              	.LASF3:
 6474 121d 5F5F696E 		.ascii	"__int16_t\000"
 6474      7431365F 
 6474      7400
 6475              	.LASF390:
 6476 1227 43795F49 		.ascii	"Cy_IPC_Drv_GetInterruptStatusMasked\000"
 6476      50435F44 
 6476      72765F47 
 6476      6574496E 
 6476      74657272 
 6477              	.LASF41:
 6478 124b 6873696F 		.ascii	"hsiomBase\000"
ARM GAS  C:\Users\Rolf\AppData\Local\Temp\ccUtnhQP.s 			page 186


 6478      6D426173 
 6478      6500
 6479              	.LASF422:
 6480 1255 66726F6D 		.ascii	"fromEp\000"
 6480      457000
 6481              	.LASF20:
 6482 125c 73697A65 		.ascii	"sizetype\000"
 6482      74797065 
 6482      00
 6483              	.LASF107:
 6484 1265 63707573 		.ascii	"cpussCm4ClockCtlOffset\000"
 6484      73436D34 
 6484      436C6F63 
 6484      6B43746C 
 6484      4F666673 
 6485              	.LASF118:
 6486 127c 63707573 		.ascii	"cpussRam1Ctl0\000"
 6486      7352616D 
 6486      3143746C 
 6486      3000
 6487              	.LASF91:
 6488 128a 70657269 		.ascii	"periTrGrOffset\000"
 6488      54724772 
 6488      4F666673 
 6488      657400
 6489              	.LASF342:
 6490 1299 70697065 		.ascii	"pipeIntMask\000"
 6490      496E744D 
 6490      61736B00 
 6491              	.LASF35:
 6492 12a5 4950435F 		.ascii	"IPC_V1_Type\000"
 6492      56315F54 
 6492      79706500 
 6493              	.LASF286:
 6494 12b1 7564625F 		.ascii	"udb_interrupts_1_IRQn\000"
 6494      696E7465 
 6494      72727570 
 6494      74735F31 
 6494      5F495251 
 6495              	.LASF414:
 6496 12c7 6570436F 		.ascii	"epConfigDataA\000"
 6496      6E666967 
 6496      44617461 
 6496      4100
 6497              	.LASF57:
 6498 12d5 63707573 		.ascii	"cpussDwChNr\000"
 6498      73447743 
 6498      684E7200 
 6499              	.LASF306:
 6500 12e1 7573625F 		.ascii	"usb_interrupt_hi_IRQn\000"
 6500      696E7465 
 6500      72727570 
 6500      745F6869 
 6500      5F495251 
 6501              	.LASF205:
 6502 12f7 7363625F 		.ascii	"scb_1_interrupt_IRQn\000"
 6502      315F696E 
ARM GAS  C:\Users\Rolf\AppData\Local\Temp\ccUtnhQP.s 			page 187


 6502      74657272 
 6502      7570745F 
 6502      4952516E 
 6503              	.LASF272:
 6504 130c 74637077 		.ascii	"tcpwm_1_interrupts_11_IRQn\000"
 6504      6D5F315F 
 6504      696E7465 
 6504      72727570 
 6504      74735F31 
 6505              	.LASF169:
 6506 1327 696F7373 		.ascii	"ioss_interrupts_gpio_6_IRQn\000"
 6506      5F696E74 
 6506      65727275 
 6506      7074735F 
 6506      6770696F 
 6507              	.LASF55:
 6508 1343 63707573 		.ascii	"cpussIpcNr\000"
 6508      73497063 
 6508      4E7200
 6509              	.LASF423:
 6510 134e 746F4570 		.ascii	"toEp\000"
 6510      00
 6511              	.LASF413:
 6512 1353 6970635F 		.ascii	"ipc_intr_cypipeConfig\000"
 6512      696E7472 
 6512      5F637970 
 6512      69706543 
 6512      6F6E6669 
 6513              	.LASF22:
 6514 1369 52454C45 		.ascii	"RELEASE\000"
 6514      41534500 
 6515              	.LASF353:
 6516 1371 6970634E 		.ascii	"ipcNotifierPriority\000"
 6516      6F746966 
 6516      69657250 
 6516      72696F72 
 6516      69747900 
 6517              	.LASF108:
 6518 1385 63707573 		.ascii	"cpussCm4StatusOffset\000"
 6518      73436D34 
 6518      53746174 
 6518      75734F66 
 6518      66736574 
 6519              	.LASF397:
 6520 139a 5F5F4E56 		.ascii	"__NVIC_DisableIRQ\000"
 6520      49435F44 
 6520      69736162 
 6520      6C654952 
 6520      5100
 6521              	.LASF238:
 6522 13ac 63707573 		.ascii	"cpuss_interrupts_dw1_9_IRQn\000"
 6522      735F696E 
 6522      74657272 
 6522      75707473 
 6522      5F647731 
 6523              	.LASF222:
 6524 13c8 63707573 		.ascii	"cpuss_interrupts_dw0_9_IRQn\000"
ARM GAS  C:\Users\Rolf\AppData\Local\Temp\ccUtnhQP.s 			page 188


 6524      735F696E 
 6524      74657272 
 6524      75707473 
 6524      5F647730 
 6525              	.LASF216:
 6526 13e4 63707573 		.ascii	"cpuss_interrupts_dw0_3_IRQn\000"
 6526      735F696E 
 6526      74657272 
 6526      75707473 
 6526      5F647730 
 6527              	.LASF119:
 6528 1400 63707573 		.ascii	"cpussRam2Ctl0\000"
 6528      7352616D 
 6528      3243746C 
 6528      3000
 6529              	.LASF164:
 6530 140e 696F7373 		.ascii	"ioss_interrupts_gpio_1_IRQn\000"
 6530      5F696E74 
 6530      65727275 
 6530      7074735F 
 6530      6770696F 
 6531              	.LASF424:
 6532 142a 43795F49 		.ascii	"Cy_IPC_Pipe_SendMessage\000"
 6532      50435F50 
 6532      6970655F 
 6532      53656E64 
 6532      4D657373 
 6533              	.LASF344:
 6534 1442 69706350 		.ascii	"ipcPtr\000"
 6534      747200
 6535              	.LASF138:
 6536 1449 4E766963 		.ascii	"NvicMux9_IRQn\000"
 6536      4D757839 
 6536      5F495251 
 6536      6E00
 6537              	.LASF233:
 6538 1457 63707573 		.ascii	"cpuss_interrupts_dw1_4_IRQn\000"
 6538      735F696E 
 6538      74657272 
 6538      75707473 
 6538      5F647731 
 6539              	.LASF239:
 6540 1473 63707573 		.ascii	"cpuss_interrupts_dw1_10_IRQn\000"
 6540      735F696E 
 6540      74657272 
 6540      75707473 
 6540      5F647731 
 6541              	.LASF259:
 6542 1490 74637077 		.ascii	"tcpwm_0_interrupts_6_IRQn\000"
 6542      6D5F305F 
 6542      696E7465 
 6542      72727570 
 6542      74735F36 
 6543              	.LASF98:
 6544 14aa 70657269 		.ascii	"periDiv16CtlOffset\000"
 6544      44697631 
 6544      3643746C 
ARM GAS  C:\Users\Rolf\AppData\Local\Temp\ccUtnhQP.s 			page 189


 6544      4F666673 
 6544      657400
 6545              	.LASF133:
 6546 14bd 4E766963 		.ascii	"NvicMux4_IRQn\000"
 6546      4D757834 
 6546      5F495251 
 6546      6E00
 6547              	.LASF322:
 6548 14cb 4950435F 		.ascii	"IPC_STRUCT_Type\000"
 6548      53545255 
 6548      43545F54 
 6548      79706500 
 6549              	.LASF188:
 6550 14db 63707573 		.ascii	"cpuss_interrupts_ipc_0_IRQn\000"
 6550      735F696E 
 6550      74657272 
 6550      75707473 
 6550      5F697063 
 6551              	.LASF269:
 6552 14f7 74637077 		.ascii	"tcpwm_1_interrupts_8_IRQn\000"
 6552      6D5F315F 
 6552      696E7465 
 6552      72727570 
 6552      74735F38 
 6553              	.LASF159:
 6554 1511 4E766963 		.ascii	"NvicMux30_IRQn\000"
 6554      4D757833 
 6554      305F4952 
 6554      516E00
 6555              	.LASF6:
 6556 1520 73686F72 		.ascii	"short unsigned int\000"
 6556      7420756E 
 6556      7369676E 
 6556      65642069 
 6556      6E7400
 6557              	.LASF19:
 6558 1533 6C6F6E67 		.ascii	"long double\000"
 6558      20646F75 
 6558      626C6500 
 6559              	.LASF402:
 6560 153f 69706341 		.ascii	"ipcAcquireMask\000"
 6560      63717569 
 6560      72654D61 
 6560      736B00
 6561              	.LASF16:
 6562 154e 75696E74 		.ascii	"uint16_t\000"
 6562      31365F74 
 6562      00
 6563              	.LASF379:
 6564 1557 4952516E 		.ascii	"IRQn\000"
 6564      00
 6565              	.LASF90:
 6566 155c 70657269 		.ascii	"periTrCmdGrSelMsk\000"
 6566      5472436D 
 6566      64477253 
 6566      656C4D73 
 6566      6B00
ARM GAS  C:\Users\Rolf\AppData\Local\Temp\ccUtnhQP.s 			page 190


 6567              	.LASF427:
 6568 156e 74686973 		.ascii	"thisEp\000"
 6568      457000
 6569              	.LASF252:
 6570 1575 63707573 		.ascii	"cpuss_interrupts_cm4_cti_1_IRQn\000"
 6570      735F696E 
 6570      74657272 
 6570      75707473 
 6570      5F636D34 
 6571              	.LASF264:
 6572 1595 74637077 		.ascii	"tcpwm_1_interrupts_3_IRQn\000"
 6572      6D5F315F 
 6572      696E7465 
 6572      72727570 
 6572      74735F33 
 6573              	.LASF291:
 6574 15af 7564625F 		.ascii	"udb_interrupts_6_IRQn\000"
 6574      696E7465 
 6574      72727570 
 6574      74735F36 
 6574      5F495251 
 6575              	.LASF144:
 6576 15c5 4E766963 		.ascii	"NvicMux15_IRQn\000"
 6576      4D757831 
 6576      355F4952 
 6576      516E00
 6577              	.LASF64:
 6578 15d4 73727373 		.ascii	"srssNumHfroot\000"
 6578      4E756D48 
 6578      66726F6F 
 6578      7400
 6579              	.LASF86:
 6580 15e2 64774368 		.ascii	"dwChCtlPreemptablePos\000"
 6580      43746C50 
 6580      7265656D 
 6580      70746162 
 6580      6C65506F 
 6581              	.LASF48:
 6582 15f8 64775665 		.ascii	"dwVersion\000"
 6582      7273696F 
 6582      6E00
 6583              	.LASF277:
 6584 1602 74637077 		.ascii	"tcpwm_1_interrupts_16_IRQn\000"
 6584      6D5F315F 
 6584      696E7465 
 6584      72727570 
 6584      74735F31 
 6585              	.LASF300:
 6586 161d 7564625F 		.ascii	"udb_interrupts_15_IRQn\000"
 6586      696E7465 
 6586      72727570 
 6586      74735F31 
 6586      355F4952 
 6587              	.LASF158:
 6588 1634 4E766963 		.ascii	"NvicMux29_IRQn\000"
 6588      4D757832 
 6588      395F4952 
ARM GAS  C:\Users\Rolf\AppData\Local\Temp\ccUtnhQP.s 			page 191


 6588      516E00
 6589              	.LASF411:
 6590 1643 636F6E66 		.ascii	"config\000"
 6590      696700
 6591              	.LASF364:
 6592 164a 43595F49 		.ascii	"CY_IPC_PIPE_SUCCESS\000"
 6592      50435F50 
 6592      4950455F 
 6592      53554343 
 6592      45535300 
 6593              	.LASF359:
 6594 165e 65703143 		.ascii	"ep1ConfigData\000"
 6594      6F6E6669 
 6594      67446174 
 6594      6100
 6595              	.LASF139:
 6596 166c 4E766963 		.ascii	"NvicMux10_IRQn\000"
 6596      4D757831 
 6596      305F4952 
 6596      516E00
 6597              	.LASF404:
 6598 167b 43795F49 		.ascii	"Cy_IPC_Pipe_EndpointInit\000"
 6598      50435F50 
 6598      6970655F 
 6598      456E6470 
 6598      6F696E74 
 6599              	.LASF408:
 6600 1694 6362436E 		.ascii	"cbCnt\000"
 6600      7400
 6601              	.LASF372:
 6602 169a 43595F49 		.ascii	"CY_IPC_PIPE_ERROR_NO_MESSAGE\000"
 6602      50435F50 
 6602      4950455F 
 6602      4552524F 
 6602      525F4E4F 
 6603              	.LASF313:
 6604 16b7 52455345 		.ascii	"RESERVED0\000"
 6604      52564544 
 6604      3000
 6605              	.LASF363:
 6606 16c1 63795F73 		.ascii	"cy_stc_ipc_pipe_config_t\000"
 6606      74635F69 
 6606      70635F70 
 6606      6970655F 
 6606      636F6E66 
 6607              	.LASF317:
 6608 16da 52455345 		.ascii	"RESERVED2\000"
 6608      52564544 
 6608      3200
 6609              	.LASF319:
 6610 16e4 52455345 		.ascii	"RESERVED3\000"
 6610      52564544 
 6610      3300
 6611              	.LASF320:
 6612 16ee 52455345 		.ascii	"RESERVED4\000"
 6612      52564544 
 6612      3400
ARM GAS  C:\Users\Rolf\AppData\Local\Temp\ccUtnhQP.s 			page 192


 6613              	.LASF175:
 6614 16f8 696F7373 		.ascii	"ioss_interrupts_gpio_12_IRQn\000"
 6614      5F696E74 
 6614      65727275 
 6614      7074735F 
 6614      6770696F 
 6615              	.LASF153:
 6616 1715 4E766963 		.ascii	"NvicMux24_IRQn\000"
 6616      4D757832 
 6616      345F4952 
 6616      516E00
 6617              	.LASF187:
 6618 1724 626C6573 		.ascii	"bless_interrupt_IRQn\000"
 6618      735F696E 
 6618      74657272 
 6618      7570745F 
 6618      4952516E 
 6619              	.LASF340:
 6620 1739 69706343 		.ascii	"ipcChan\000"
 6620      68616E00 
 6621              	.LASF416:
 6622 1741 746F4164 		.ascii	"toAddr\000"
 6622      647200
 6623              	.LASF8:
 6624 1748 6C6F6E67 		.ascii	"long int\000"
 6624      20696E74 
 6624      00
 6625              	.LASF244:
 6626 1751 63707573 		.ascii	"cpuss_interrupts_dw1_15_IRQn\000"
 6626      735F696E 
 6626      74657272 
 6626      75707473 
 6626      5F647731 
 6627              	.LASF46:
 6628 176e 63707573 		.ascii	"cpussVersion\000"
 6628      73566572 
 6628      73696F6E 
 6628      00
 6629              	.LASF50:
 6630 177b 6770696F 		.ascii	"gpioVersion\000"
 6630      56657273 
 6630      696F6E00 
 6631              	.LASF124:
 6632 1787 4E6F6E4D 		.ascii	"NonMaskableInt_IRQn\000"
 6632      61736B61 
 6632      626C6549 
 6632      6E745F49 
 6632      52516E00 
 6633              	.LASF281:
 6634 179b 74637077 		.ascii	"tcpwm_1_interrupts_20_IRQn\000"
 6634      6D5F315F 
 6634      696E7465 
 6634      72727570 
 6634      74735F32 
 6635              	.LASF49:
 6636 17b6 666C6173 		.ascii	"flashcVersion\000"
 6636      68635665 
ARM GAS  C:\Users\Rolf\AppData\Local\Temp\ccUtnhQP.s 			page 193


 6636      7273696F 
 6636      6E00
 6637              	.LASF71:
 6638 17c4 70726F74 		.ascii	"protBusMasterMask\000"
 6638      4275734D 
 6638      61737465 
 6638      724D6173 
 6638      6B00
 6639              	.LASF40:
 6640 17d6 70726F74 		.ascii	"protBase\000"
 6640      42617365 
 6640      00
 6641              	.LASF210:
 6642 17df 7363625F 		.ascii	"scb_6_interrupt_IRQn\000"
 6642      365F696E 
 6642      74657272 
 6642      7570745F 
 6642      4952516E 
 6643              	.LASF360:
 6644 17f4 656E6470 		.ascii	"endpointClientsCount\000"
 6644      6F696E74 
 6644      436C6965 
 6644      6E747343 
 6644      6F756E74 
 6645              	.LASF305:
 6646 1809 736D6966 		.ascii	"smif_interrupt_IRQn\000"
 6646      5F696E74 
 6646      65727275 
 6646      70745F49 
 6646      52516E00 
 6647              	.LASF388:
 6648 181d 43795F49 		.ascii	"Cy_IPC_Drv_ExtractAcquireMask\000"
 6648      50435F44 
 6648      72765F45 
 6648      78747261 
 6648      63744163 
 6649              	.LASF326:
 6650 183b 63686172 		.ascii	"char_t\000"
 6650      5F7400
 6651              	.LASF337:
 6652 1842 63795F69 		.ascii	"cy_ipc_pipe_callback_ptr_t\000"
 6652      70635F70 
 6652      6970655F 
 6652      63616C6C 
 6652      6261636B 
 6653              	.LASF200:
 6654 185d 63707573 		.ascii	"cpuss_interrupts_ipc_12_IRQn\000"
 6654      735F696E 
 6654      74657272 
 6654      75707473 
 6654      5F697063 
 6655              	.LASF177:
 6656 187a 696F7373 		.ascii	"ioss_interrupts_gpio_14_IRQn\000"
 6656      5F696E74 
 6656      65727275 
 6656      7074735F 
 6656      6770696F 
ARM GAS  C:\Users\Rolf\AppData\Local\Temp\ccUtnhQP.s 			page 194


 6657              	.LASF194:
 6658 1897 63707573 		.ascii	"cpuss_interrupts_ipc_6_IRQn\000"
 6658      735F696E 
 6658      74657272 
 6658      75707473 
 6658      5F697063 
 6659              	.LASF436:
 6660 18b3 63795F69 		.ascii	"cy_ipc_pipe_epArray\000"
 6660      70635F70 
 6660      6970655F 
 6660      65704172 
 6660      72617900 
 6661              	.LASF343:
 6662 18c7 70697065 		.ascii	"pipeIntrSrc\000"
 6662      496E7472 
 6662      53726300 
 6663              	.LASF433:
 6664 18d3 43795F49 		.ascii	"Cy_IPC_Pipe_ExecuteCallback\000"
 6664      50435F50 
 6664      6970655F 
 6664      45786563 
 6664      75746543 
 6665              	.LASF442:
 6666 18ef 47656E65 		.ascii	"Generated_Source\\PSoC6\\pdl\\drivers\\peripheral\\"
 6666      72617465 
 6666      645F536F 
 6666      75726365 
 6666      5C50536F 
 6667 191d 6970635C 		.ascii	"ipc\\cy_ipc_pipe.c\000"
 6667      63795F69 
 6667      70635F70 
 6667      6970652E 
 6667      6300
 6668              	.LASF171:
 6669 192f 696F7373 		.ascii	"ioss_interrupts_gpio_8_IRQn\000"
 6669      5F696E74 
 6669      65727275 
 6669      7074735F 
 6669      6770696F 
 6670              	.LASF110:
 6671 194b 63707573 		.ascii	"cpussCm4PwrCtlOffset\000"
 6671      73436D34 
 6671      50777243 
 6671      746C4F66 
 6671      66736574 
 6672              	.LASF420:
 6673 1960 72656C65 		.ascii	"releaseMask\000"
 6673      6173654D 
 6673      61736B00 
 6674              	.LASF206:
 6675 196c 7363625F 		.ascii	"scb_2_interrupt_IRQn\000"
 6675      325F696E 
 6675      74657272 
 6675      7570745F 
 6675      4952516E 
 6676              	.LASF321:
 6677 1981 4E564943 		.ascii	"NVIC_Type\000"
ARM GAS  C:\Users\Rolf\AppData\Local\Temp\ccUtnhQP.s 			page 195


 6677      5F547970 
 6677      6500
 6678              	.LASF410:
 6679 198b 43795F49 		.ascii	"Cy_IPC_Pipe_Init\000"
 6679      50435F50 
 6679      6970655F 
 6679      496E6974 
 6679      00
 6680              	.LASF166:
 6681 199c 696F7373 		.ascii	"ioss_interrupts_gpio_3_IRQn\000"
 6681      5F696E74 
 6681      65727275 
 6681      7074735F 
 6681      6770696F 
 6682              	.LASF227:
 6683 19b8 63707573 		.ascii	"cpuss_interrupts_dw0_14_IRQn\000"
 6683      735F696E 
 6683      74657272 
 6683      75707473 
 6683      5F647730 
 6684              	.LASF67:
 6685 19d5 70617373 		.ascii	"passSarChannels\000"
 6685      53617243 
 6685      68616E6E 
 6685      656C7300 
 6686              	.LASF23:
 6687 19e5 4E4F5449 		.ascii	"NOTIFY\000"
 6687      465900
 6688              	.LASF338:
 6689 19ec 63795F69 		.ascii	"cy_ipc_pipe_relcallback_ptr_t\000"
 6689      70635F70 
 6689      6970655F 
 6689      72656C63 
 6689      616C6C62 
 6690              	.LASF235:
 6691 1a0a 63707573 		.ascii	"cpuss_interrupts_dw1_6_IRQn\000"
 6691      735F696E 
 6691      74657272 
 6691      75707473 
 6691      5F647731 
 6692              	.LASF283:
 6693 1a26 74637077 		.ascii	"tcpwm_1_interrupts_22_IRQn\000"
 6693      6D5F315F 
 6693      696E7465 
 6693      72727570 
 6693      74735F32 
 6694              	.LASF31:
 6695 1a41 494E5452 		.ascii	"INTR_MASKED\000"
 6695      5F4D4153 
 6695      4B454400 
 6696              	.LASF213:
 6697 1a4d 63707573 		.ascii	"cpuss_interrupts_dw0_0_IRQn\000"
 6697      735F696E 
 6697      74657272 
 6697      75707473 
 6697      5F647730 
 6698              	.LASF112:
ARM GAS  C:\Users\Rolf\AppData\Local\Temp\ccUtnhQP.s 			page 196


 6699 1a69 63707573 		.ascii	"cpussTrimRomCtlOffset\000"
 6699      73547269 
 6699      6D526F6D 
 6699      43746C4F 
 6699      66667365 
 6700              	.LASF284:
 6701 1a7f 74637077 		.ascii	"tcpwm_1_interrupts_23_IRQn\000"
 6701      6D5F315F 
 6701      696E7465 
 6701      72727570 
 6701      74735F32 
 6702              	.LASF335:
 6703 1a9a 696E7472 		.ascii	"intrPriority\000"
 6703      5072696F 
 6703      72697479 
 6703      00
 6704              	.LASF297:
 6705 1aa7 7564625F 		.ascii	"udb_interrupts_12_IRQn\000"
 6705      696E7465 
 6705      72727570 
 6705      74735F31 
 6705      325F4952 
 6706              	.LASF128:
 6707 1abe 53797354 		.ascii	"SysTick_IRQn\000"
 6707      69636B5F 
 6707      4952516E 
 6707      00
 6708              	.LASF65:
 6709 1acb 70657269 		.ascii	"periClockNr\000"
 6709      436C6F63 
 6709      6B4E7200 
 6710              	.LASF135:
 6711 1ad7 4E766963 		.ascii	"NvicMux6_IRQn\000"
 6711      4D757836 
 6711      5F495251 
 6711      6E00
 6712              	.LASF51:
 6713 1ae5 6873696F 		.ascii	"hsiomVersion\000"
 6713      6D566572 
 6713      73696F6E 
 6713      00
 6714              	.LASF230:
 6715 1af2 63707573 		.ascii	"cpuss_interrupts_dw1_1_IRQn\000"
 6715      735F696E 
 6715      74657272 
 6715      75707473 
 6715      5F647731 
 6716              	.LASF120:
 6717 1b0e 69706353 		.ascii	"ipcStructSize\000"
 6717      74727563 
 6717      7453697A 
 6717      6500
 6718              	.LASF10:
 6719 1b1c 6C6F6E67 		.ascii	"long unsigned int\000"
 6719      20756E73 
 6719      69676E65 
 6719      6420696E 
ARM GAS  C:\Users\Rolf\AppData\Local\Temp\ccUtnhQP.s 			page 197


 6719      7400
 6720              	.LASF256:
 6721 1b2e 74637077 		.ascii	"tcpwm_0_interrupts_3_IRQn\000"
 6721      6D5F305F 
 6721      696E7465 
 6721      72727570 
 6721      74735F33 
 6722              	.LASF116:
 6723 1b48 63707573 		.ascii	"cpussRomCtl\000"
 6723      73526F6D 
 6723      43746C00 
 6724              	.LASF217:
 6725 1b54 63707573 		.ascii	"cpuss_interrupts_dw0_4_IRQn\000"
 6725      735F696E 
 6725      74657272 
 6725      75707473 
 6725      5F647730 
 6726              	.LASF17:
 6727 1b70 696E7433 		.ascii	"int32_t\000"
 6727      325F7400 
 6728              	.LASF122:
 6729 1b78 63795F73 		.ascii	"cy_stc_device_t\000"
 6729      74635F64 
 6729      65766963 
 6729      655F7400 
 6730              	.LASF331:
 6731 1b88 43595F49 		.ascii	"CY_IPC_DRV_ERROR\000"
 6731      50435F44 
 6731      52565F45 
 6731      52524F52 
 6731      00
 6732              	.LASF293:
 6733 1b99 7564625F 		.ascii	"udb_interrupts_8_IRQn\000"
 6733      696E7465 
 6733      72727570 
 6733      74735F38 
 6733      5F495251 
 6734              	.LASF39:
 6735 1baf 75646242 		.ascii	"udbBase\000"
 6735      61736500 
 6736              	.LASF83:
 6737 1bb7 64774368 		.ascii	"dwChOffset\000"
 6737      4F666673 
 6737      657400
 6738              	.LASF368:
 6739 1bc2 43595F49 		.ascii	"CY_IPC_PIPE_ERROR_BAD_HANDLE\000"
 6739      50435F50 
 6739      4950455F 
 6739      4552524F 
 6739      525F4241 
 6740              	.LASF349:
 6741 1bdf 72656C65 		.ascii	"releaseCallbackPtr\000"
 6741      61736543 
 6741      616C6C62 
 6741      61636B50 
 6741      747200
 6742              	.LASF341:
ARM GAS  C:\Users\Rolf\AppData\Local\Temp\ccUtnhQP.s 			page 198


 6743 1bf2 696E7472 		.ascii	"intrChan\000"
 6743      4368616E 
 6743      00
 6744              	.LASF184:
 6745 1bfb 73727373 		.ascii	"srss_interrupt_backup_IRQn\000"
 6745      5F696E74 
 6745      65727275 
 6745      70745F62 
 6745      61636B75 
 6746              	.LASF279:
 6747 1c16 74637077 		.ascii	"tcpwm_1_interrupts_18_IRQn\000"
 6747      6D5F315F 
 6747      696E7465 
 6747      72727570 
 6747      74735F31 
 6748              	.LASF407:
 6749 1c31 63624172 		.ascii	"cbArray\000"
 6749      72617900 
 6750              	.LASF261:
 6751 1c39 74637077 		.ascii	"tcpwm_1_interrupts_0_IRQn\000"
 6751      6D5F315F 
 6751      696E7465 
 6751      72727570 
 6751      74735F30 
 6752              	.LASF288:
 6753 1c53 7564625F 		.ascii	"udb_interrupts_3_IRQn\000"
 6753      696E7465 
 6753      72727570 
 6753      74735F33 
 6753      5F495251 
 6754              	.LASF1:
 6755 1c69 756E7369 		.ascii	"unsigned char\000"
 6755      676E6564 
 6755      20636861 
 6755      7200
 6756              	.LASF141:
 6757 1c77 4E766963 		.ascii	"NvicMux12_IRQn\000"
 6757      4D757831 
 6757      325F4952 
 6757      516E00
 6758              	.LASF9:
 6759 1c86 5F5F7569 		.ascii	"__uint32_t\000"
 6759      6E743332 
 6759      5F7400
 6760              	.LASF325:
 6761 1c91 63795F69 		.ascii	"cy_israddress\000"
 6761      73726164 
 6761      64726573 
 6761      7300
 6762              	.LASF362:
 6763 1c9f 75736572 		.ascii	"userPipeIsrHandler\000"
 6763      50697065 
 6763      49737248 
 6763      616E646C 
 6763      657200
 6764              	.LASF274:
 6765 1cb2 74637077 		.ascii	"tcpwm_1_interrupts_13_IRQn\000"
ARM GAS  C:\Users\Rolf\AppData\Local\Temp\ccUtnhQP.s 			page 199


 6765      6D5F315F 
 6765      696E7465 
 6765      72727570 
 6765      74735F31 
 6766              	.LASF204:
 6767 1ccd 7363625F 		.ascii	"scb_0_interrupt_IRQn\000"
 6767      305F696E 
 6767      74657272 
 6767      7570745F 
 6767      4952516E 
 6768              	.LASF192:
 6769 1ce2 63707573 		.ascii	"cpuss_interrupts_ipc_4_IRQn\000"
 6769      735F696E 
 6769      74657272 
 6769      75707473 
 6769      5F697063 
 6770              	.LASF155:
 6771 1cfe 4E766963 		.ascii	"NvicMux26_IRQn\000"
 6771      4D757832 
 6771      365F4952 
 6771      516E00
 6772              	.LASF399:
 6773 1d0d 69706349 		.ascii	"ipcIndex\000"
 6773      6E646578 
 6773      00
 6774              	.LASF386:
 6775 1d16 43795F49 		.ascii	"Cy_IPC_Drv_WriteDataValue\000"
 6775      50435F44 
 6775      72765F57 
 6775      72697465 
 6775      44617461 
 6776              	.LASF257:
 6777 1d30 74637077 		.ascii	"tcpwm_0_interrupts_4_IRQn\000"
 6777      6D5F305F 
 6777      696E7465 
 6777      72727570 
 6777      74735F34 
 6778              	.LASF77:
 6779 1d4a 666C6173 		.ascii	"flashEraseDelay\000"
 6779      68457261 
 6779      73654465 
 6779      6C617900 
 6780              	.LASF218:
 6781 1d5a 63707573 		.ascii	"cpuss_interrupts_dw0_5_IRQn\000"
 6781      735F696E 
 6781      74657272 
 6781      75707473 
 6781      5F647730 
 6782              	.LASF316:
 6783 1d76 49535052 		.ascii	"ISPR\000"
 6783      00
 6784              	.LASF150:
 6785 1d7b 4E766963 		.ascii	"NvicMux21_IRQn\000"
 6785      4D757832 
 6785      315F4952 
 6785      516E00
 6786              	.LASF339:
ARM GAS  C:\Users\Rolf\AppData\Local\Temp\ccUtnhQP.s 			page 200


 6787 1d8a 63795F69 		.ascii	"cy_ipc_pipe_callback_array_ptr_t\000"
 6787      70635F70 
 6787      6970655F 
 6787      63616C6C 
 6787      6261636B 
 6788              	.LASF314:
 6789 1dab 49434552 		.ascii	"ICER\000"
 6789      00
 6790              	.LASF130:
 6791 1db0 4E766963 		.ascii	"NvicMux1_IRQn\000"
 6791      4D757831 
 6791      5F495251 
 6791      6E00
 6792              	.LASF241:
 6793 1dbe 63707573 		.ascii	"cpuss_interrupts_dw1_12_IRQn\000"
 6793      735F696E 
 6793      74657272 
 6793      75707473 
 6793      5F647731 
 6794              	.LASF152:
 6795 1ddb 4E766963 		.ascii	"NvicMux23_IRQn\000"
 6795      4D757832 
 6795      335F4952 
 6795      516E00
 6796              	.LASF179:
 6797 1dea 696F7373 		.ascii	"ioss_interrupt_vdd_IRQn\000"
 6797      5F696E74 
 6797      65727275 
 6797      70745F76 
 6797      64645F49 
 6798              	.LASF2:
 6799 1e02 5F5F7569 		.ascii	"__uint8_t\000"
 6799      6E74385F 
 6799      7400
 6800              	.LASF202:
 6801 1e0c 63707573 		.ascii	"cpuss_interrupts_ipc_14_IRQn\000"
 6801      735F696E 
 6801      74657272 
 6801      75707473 
 6801      5F697063 
 6802              	.LASF123:
 6803 1e29 52657365 		.ascii	"Reset_IRQn\000"
 6803      745F4952 
 6803      516E00
 6804              	.LASF430:
 6805 1e34 43795F49 		.ascii	"Cy_IPC_Pipe_ExecCallback\000"
 6805      50435F50 
 6805      6970655F 
 6805      45786563 
 6805      43616C6C 
 6806              	.LASF73:
 6807 1e4d 666C6173 		.ascii	"flashRwwRequired\000"
 6807      68527777 
 6807      52657175 
 6807      69726564 
 6807      00
 6808              	.LASF248:
ARM GAS  C:\Users\Rolf\AppData\Local\Temp\ccUtnhQP.s 			page 201


 6809 1e5e 63707573 		.ascii	"cpuss_interrupt_fm_IRQn\000"
 6809      735F696E 
 6809      74657272 
 6809      7570745F 
 6809      666D5F49 
 6810              	.LASF102:
 6811 1e76 6770696F 		.ascii	"gpioPrtCfgOffset\000"
 6811      50727443 
 6811      66674F66 
 6811      66736574 
 6811      00
 6812              	.LASF369:
 6813 1e87 43595F49 		.ascii	"CY_IPC_PIPE_ERROR_BAD_ID\000"
 6813      50435F50 
 6813      4950455F 
 6813      4552524F 
 6813      525F4241 
 6814              	.LASF221:
 6815 1ea0 63707573 		.ascii	"cpuss_interrupts_dw0_8_IRQn\000"
 6815      735F696E 
 6815      74657272 
 6815      75707473 
 6815      5F647730 
 6816              	.LASF125:
 6817 1ebc 48617264 		.ascii	"HardFault_IRQn\000"
 6817      4661756C 
 6817      745F4952 
 6817      516E00
 6818              	.LASF0:
 6819 1ecb 7369676E 		.ascii	"signed char\000"
 6819      65642063 
 6819      68617200 
 6820              	.LASF301:
 6821 1ed7 70617373 		.ascii	"pass_interrupt_sar_IRQn\000"
 6821      5F696E74 
 6821      65727275 
 6821      70745F73 
 6821      61725F49 
 6822              	.LASF285:
 6823 1eef 7564625F 		.ascii	"udb_interrupts_0_IRQn\000"
 6823      696E7465 
 6823      72727570 
 6823      74735F30 
 6823      5F495251 
 6824              	.LASF370:
 6825 1f05 43595F49 		.ascii	"CY_IPC_PIPE_ERROR_DIR_ERROR\000"
 6825      50435F50 
 6825      4950455F 
 6825      4552524F 
 6825      525F4449 
 6826              	.LASF56:
 6827 1f21 63707573 		.ascii	"cpussIpcIrqNr\000"
 6827      73497063 
 6827      4972714E 
 6827      7200
 6828              	.LASF310:
 6829 1f2f 64697363 		.ascii	"disconnected_IRQn\000"
ARM GAS  C:\Users\Rolf\AppData\Local\Temp\ccUtnhQP.s 			page 202


 6829      6F6E6E65 
 6829      63746564 
 6829      5F495251 
 6829      6E00
 6830              	.LASF146:
 6831 1f41 4E766963 		.ascii	"NvicMux17_IRQn\000"
 6831      4D757831 
 6831      375F4952 
 6831      516E00
 6832              	.LASF375:
 6833 1f50 63795F65 		.ascii	"cy_en_ipc_pipe_status_t\000"
 6833      6E5F6970 
 6833      635F7069 
 6833      70655F73 
 6833      74617475 
 6834              	.LASF350:
 6835 1f68 64656661 		.ascii	"defaultReleaseCallbackPtr\000"
 6835      756C7452 
 6835      656C6561 
 6835      73654361 
 6835      6C6C6261 
 6836              	.LASF168:
 6837 1f82 696F7373 		.ascii	"ioss_interrupts_gpio_5_IRQn\000"
 6837      5F696E74 
 6837      65727275 
 6837      7074735F 
 6837      6770696F 
 6838              	.LASF197:
 6839 1f9e 63707573 		.ascii	"cpuss_interrupts_ipc_9_IRQn\000"
 6839      735F696E 
 6839      74657272 
 6839      75707473 
 6839      5F697063 
 6840              	.LASF432:
 6841 1fba 63616C6C 		.ascii	"callbackPtr\000"
 6841      6261636B 
 6841      50747200 
 6842              	.LASF53:
 6843 1fc6 70657269 		.ascii	"periVersion\000"
 6843      56657273 
 6843      696F6E00 
 6844              	.LASF246:
 6845 1fd2 63707573 		.ascii	"cpuss_interrupts_fault_1_IRQn\000"
 6845      735F696E 
 6845      74657272 
 6845      75707473 
 6845      5F666175 
 6846              	.LASF415:
 6847 1ff0 6570436F 		.ascii	"epConfigDataB\000"
 6847      6E666967 
 6847      44617461 
 6847      4200
 6848              	.LASF329:
 6849 1ffe 646F7562 		.ascii	"double\000"
 6849      6C6500
 6850              	.LASF43:
 6851 2005 70617373 		.ascii	"passBase\000"
ARM GAS  C:\Users\Rolf\AppData\Local\Temp\ccUtnhQP.s 			page 203


 6851      42617365 
 6851      00
 6852              	.LASF80:
 6853 200e 666C6173 		.ascii	"flashCtlMainWs2Freq\000"
 6853      6843746C 
 6853      4D61696E 
 6853      57733246 
 6853      72657100 
 6854              	.LASF163:
 6855 2022 696F7373 		.ascii	"ioss_interrupts_gpio_0_IRQn\000"
 6855      5F696E74 
 6855      65727275 
 6855      7074735F 
 6855      6770696F 
 6856              	.LASF431:
 6857 203e 636C6965 		.ascii	"clientID\000"
 6857      6E744944 
 6857      00
 6858              	.LASF224:
 6859 2047 63707573 		.ascii	"cpuss_interrupts_dw0_11_IRQn\000"
 6859      735F696E 
 6859      74657272 
 6859      75707473 
 6859      5F647730 
 6860              	.LASF137:
 6861 2064 4E766963 		.ascii	"NvicMux8_IRQn\000"
 6861      4D757838 
 6861      5F495251 
 6861      6E00
 6862              	.LASF403:
 6863 2072 43795F49 		.ascii	"Cy_IPC_Pipe_Config\000"
 6863      50435F50 
 6863      6970655F 
 6863      436F6E66 
 6863      696700
 6864              	.LASF82:
 6865 2085 666C6173 		.ascii	"flashCtlMainWs4Freq\000"
 6865      6843746C 
 6865      4D61696E 
 6865      57733446 
 6865      72657100 
 6866              	.LASF232:
 6867 2099 63707573 		.ascii	"cpuss_interrupts_dw1_3_IRQn\000"
 6867      735F696E 
 6867      74657272 
 6867      75707473 
 6867      5F647731 
 6868              	.LASF271:
 6869 20b5 74637077 		.ascii	"tcpwm_1_interrupts_10_IRQn\000"
 6869      6D5F315F 
 6869      696E7465 
 6869      72727570 
 6869      74735F31 
 6870              	.LASF258:
 6871 20d0 74637077 		.ascii	"tcpwm_0_interrupts_5_IRQn\000"
 6871      6D5F305F 
 6871      696E7465 
ARM GAS  C:\Users\Rolf\AppData\Local\Temp\ccUtnhQP.s 			page 204


 6871      72727570 
 6871      74735F35 
 6872              	.LASF373:
 6873 20ea 43595F49 		.ascii	"CY_IPC_PIPE_ERROR_BAD_CPU\000"
 6873      50435F50 
 6873      4950455F 
 6873      4552524F 
 6873      525F4241 
 6874              	.LASF412:
 6875 2104 656E6470 		.ascii	"endpoint\000"
 6875      6F696E74 
 6875      00
 6876              	.LASF290:
 6877 210d 7564625F 		.ascii	"udb_interrupts_5_IRQn\000"
 6877      696E7465 
 6877      72727570 
 6877      74735F35 
 6877      5F495251 
 6878              	.LASF132:
 6879 2123 4E766963 		.ascii	"NvicMux3_IRQn\000"
 6879      4D757833 
 6879      5F495251 
 6879      6E00
 6880              	.LASF391:
 6881 2131 43795F49 		.ascii	"Cy_IPC_Drv_IsLockAcquired\000"
 6881      50435F44 
 6881      72765F49 
 6881      734C6F63 
 6881      6B416371 
 6882              	.LASF324:
 6883 214b 4950435F 		.ascii	"IPC_Type\000"
 6883      54797065 
 6883      00
 6884              	.LASF109:
 6885 2154 63707573 		.ascii	"cpussCm0StatusOffset\000"
 6885      73436D30 
 6885      53746174 
 6885      75734F66 
 6885      66736574 
 6886              	.LASF33:
 6887 2169 53545255 		.ascii	"STRUCT\000"
 6887      435400
 6888              	.LASF421:
 6889 2170 6E6F7469 		.ascii	"notifyMask\000"
 6889      66794D61 
 6889      736B00
 6890              	.LASF253:
 6891 217b 74637077 		.ascii	"tcpwm_0_interrupts_0_IRQn\000"
 6891      6D5F305F 
 6891      696E7465 
 6891      72727570 
 6891      74735F30 
 6892              	.LASF52:
 6893 2195 69706356 		.ascii	"ipcVersion\000"
 6893      65727369 
 6893      6F6E00
 6894              	.LASF191:
ARM GAS  C:\Users\Rolf\AppData\Local\Temp\ccUtnhQP.s 			page 205


 6895 21a0 63707573 		.ascii	"cpuss_interrupts_ipc_3_IRQn\000"
 6895      735F696E 
 6895      74657272 
 6895      75707473 
 6895      5F697063 
 6896              	.LASF89:
 6897 21bc 70657269 		.ascii	"periTrCmdOffset\000"
 6897      5472436D 
 6897      644F6666 
 6897      73657400 
 6898              	.LASF211:
 6899 21cc 7363625F 		.ascii	"scb_7_interrupt_IRQn\000"
 6899      375F696E 
 6899      74657272 
 6899      7570745F 
 6899      4952516E 
 6900              	.LASF251:
 6901 21e1 63707573 		.ascii	"cpuss_interrupts_cm4_cti_0_IRQn\000"
 6901      735F696E 
 6901      74657272 
 6901      75707473 
 6901      5F636D34 
 6902              	.LASF263:
 6903 2201 74637077 		.ascii	"tcpwm_1_interrupts_2_IRQn\000"
 6903      6D5F315F 
 6903      696E7465 
 6903      72727570 
 6903      74735F32 
 6904              		.ident	"GCC: (GNU Tools for ARM Embedded Processors) 5.4.1 20160609 (release) [ARM/embedded-5-bran
