ARM GAS  C:\Users\Rolf\AppData\Local\Temp\ccDBBlzw.s 			page 1


   1              		.syntax unified
   2              		.cpu cortex-m0plus
   3              		.fpu softvfp
   4              		.eabi_attribute 20, 1
   5              		.eabi_attribute 21, 1
   6              		.eabi_attribute 23, 3
   7              		.eabi_attribute 24, 1
   8              		.eabi_attribute 25, 1
   9              		.eabi_attribute 26, 1
  10              		.eabi_attribute 30, 1
  11              		.eabi_attribute 34, 0
  12              		.eabi_attribute 18, 4
  13              		.thumb
  14              		.syntax unified
  15              		.file	"cy_ipc_drv.c"
  16              		.text
  17              	.Ltext0:
  18              		.cfi_sections	.debug_frame
  19              		.section	.text.Cy_IPC_Drv_LockRelease,"ax",%progbits
  20              		.align	2
  21              		.global	Cy_IPC_Drv_LockRelease
  22              		.code	16
  23              		.thumb_func
  24              		.type	Cy_IPC_Drv_LockRelease, %function
  25              	Cy_IPC_Drv_LockRelease:
  26              	.LFB64:
  27              		.file 1 "Generated_Source\\PSoC6\\pdl\\drivers\\peripheral\\ipc\\cy_ipc_drv.c"
   1:Generated_Source\PSoC6\pdl\drivers\peripheral\ipc/cy_ipc_drv.c **** /***************************************************************************//**
   2:Generated_Source\PSoC6\pdl\drivers\peripheral\ipc/cy_ipc_drv.c **** * \file cy_ipc_drv.c
   3:Generated_Source\PSoC6\pdl\drivers\peripheral\ipc/cy_ipc_drv.c **** * \version 1.30
   4:Generated_Source\PSoC6\pdl\drivers\peripheral\ipc/cy_ipc_drv.c **** *
   5:Generated_Source\PSoC6\pdl\drivers\peripheral\ipc/cy_ipc_drv.c **** *  \brief
   6:Generated_Source\PSoC6\pdl\drivers\peripheral\ipc/cy_ipc_drv.c **** *   IPC Driver - This source file contains the low-level driver code for
   7:Generated_Source\PSoC6\pdl\drivers\peripheral\ipc/cy_ipc_drv.c **** *   the IPC hardware.
   8:Generated_Source\PSoC6\pdl\drivers\peripheral\ipc/cy_ipc_drv.c **** *
   9:Generated_Source\PSoC6\pdl\drivers\peripheral\ipc/cy_ipc_drv.c **** ********************************************************************************
  10:Generated_Source\PSoC6\pdl\drivers\peripheral\ipc/cy_ipc_drv.c **** * Copyright 2016-2018, Cypress Semiconductor Corporation.  All rights reserved.
  11:Generated_Source\PSoC6\pdl\drivers\peripheral\ipc/cy_ipc_drv.c **** * You may use this file only in accordance with the license, terms, conditions,
  12:Generated_Source\PSoC6\pdl\drivers\peripheral\ipc/cy_ipc_drv.c **** * disclaimers, and limitations in the end user license agreement accompanying
  13:Generated_Source\PSoC6\pdl\drivers\peripheral\ipc/cy_ipc_drv.c **** * the software package with which this file was provided.
  14:Generated_Source\PSoC6\pdl\drivers\peripheral\ipc/cy_ipc_drv.c **** *******************************************************************************/
  15:Generated_Source\PSoC6\pdl\drivers\peripheral\ipc/cy_ipc_drv.c **** 
  16:Generated_Source\PSoC6\pdl\drivers\peripheral\ipc/cy_ipc_drv.c **** #include "cy_ipc_drv.h"
  17:Generated_Source\PSoC6\pdl\drivers\peripheral\ipc/cy_ipc_drv.c **** 
  18:Generated_Source\PSoC6\pdl\drivers\peripheral\ipc/cy_ipc_drv.c **** 
  19:Generated_Source\PSoC6\pdl\drivers\peripheral\ipc/cy_ipc_drv.c **** /*******************************************************************************
  20:Generated_Source\PSoC6\pdl\drivers\peripheral\ipc/cy_ipc_drv.c **** * Function Name: Cy_IPC_Drv_LockRelease
  21:Generated_Source\PSoC6\pdl\drivers\peripheral\ipc/cy_ipc_drv.c **** ****************************************************************************//**
  22:Generated_Source\PSoC6\pdl\drivers\peripheral\ipc/cy_ipc_drv.c **** *
  23:Generated_Source\PSoC6\pdl\drivers\peripheral\ipc/cy_ipc_drv.c **** * The function is used to release an IPC channel from the locked state.
  24:Generated_Source\PSoC6\pdl\drivers\peripheral\ipc/cy_ipc_drv.c **** * The function also has a way to specify through a parameter which IPC
  25:Generated_Source\PSoC6\pdl\drivers\peripheral\ipc/cy_ipc_drv.c **** * interrupts must be notified during the release event.
  26:Generated_Source\PSoC6\pdl\drivers\peripheral\ipc/cy_ipc_drv.c **** *
  27:Generated_Source\PSoC6\pdl\drivers\peripheral\ipc/cy_ipc_drv.c **** * \param base
  28:Generated_Source\PSoC6\pdl\drivers\peripheral\ipc/cy_ipc_drv.c **** * This parameter is a handle that represents the base address of the registers
  29:Generated_Source\PSoC6\pdl\drivers\peripheral\ipc/cy_ipc_drv.c **** * of the IPC channel.
  30:Generated_Source\PSoC6\pdl\drivers\peripheral\ipc/cy_ipc_drv.c **** * The parameter is generally returned from a call to the \ref
ARM GAS  C:\Users\Rolf\AppData\Local\Temp\ccDBBlzw.s 			page 2


  31:Generated_Source\PSoC6\pdl\drivers\peripheral\ipc/cy_ipc_drv.c **** * Cy_IPC_Drv_GetIpcBaseAddress.
  32:Generated_Source\PSoC6\pdl\drivers\peripheral\ipc/cy_ipc_drv.c **** *
  33:Generated_Source\PSoC6\pdl\drivers\peripheral\ipc/cy_ipc_drv.c **** * \param releaseEventIntr
  34:Generated_Source\PSoC6\pdl\drivers\peripheral\ipc/cy_ipc_drv.c **** * Bit encoded list of IPC interrupt lines that are triggered by a release event.
  35:Generated_Source\PSoC6\pdl\drivers\peripheral\ipc/cy_ipc_drv.c **** *
  36:Generated_Source\PSoC6\pdl\drivers\peripheral\ipc/cy_ipc_drv.c **** * \return   Status of the operation
  37:Generated_Source\PSoC6\pdl\drivers\peripheral\ipc/cy_ipc_drv.c **** *   \retval CY_IPC_DRV_SUCCESS: The function executed successfully and the IPC channel
  38:Generated_Source\PSoC6\pdl\drivers\peripheral\ipc/cy_ipc_drv.c **** *                       was released.
  39:Generated_Source\PSoC6\pdl\drivers\peripheral\ipc/cy_ipc_drv.c **** *   \retval CY_IPC_DRV_ERROR: The IPC channel was not acquired before the
  40:Generated_Source\PSoC6\pdl\drivers\peripheral\ipc/cy_ipc_drv.c **** *                       function call.
  41:Generated_Source\PSoC6\pdl\drivers\peripheral\ipc/cy_ipc_drv.c **** *
  42:Generated_Source\PSoC6\pdl\drivers\peripheral\ipc/cy_ipc_drv.c **** * \funcusage
  43:Generated_Source\PSoC6\pdl\drivers\peripheral\ipc/cy_ipc_drv.c **** * \snippet IPC_sut_01.cydsn/main_cm4.c snippet_Cy_IPC_Drv_ReadMsgPtr
  44:Generated_Source\PSoC6\pdl\drivers\peripheral\ipc/cy_ipc_drv.c **** *
  45:Generated_Source\PSoC6\pdl\drivers\peripheral\ipc/cy_ipc_drv.c **** *******************************************************************************/
  46:Generated_Source\PSoC6\pdl\drivers\peripheral\ipc/cy_ipc_drv.c **** cy_en_ipcdrv_status_t Cy_IPC_Drv_LockRelease (IPC_STRUCT_Type* base, uint32_t releaseEventIntr)
  47:Generated_Source\PSoC6\pdl\drivers\peripheral\ipc/cy_ipc_drv.c **** {
  28              		.loc 1 47 0
  29              		.cfi_startproc
  30              		@ args = 0, pretend = 0, frame = 0
  31              		@ frame_needed = 0, uses_anonymous_args = 0
  32              	.LVL0:
  33 0000 70B5     		push	{r4, r5, r6, lr}
  34              		.cfi_def_cfa_offset 16
  35              		.cfi_offset 4, -16
  36              		.cfi_offset 5, -12
  37              		.cfi_offset 6, -8
  38              		.cfi_offset 14, -4
  39 0002 0400     		movs	r4, r0
  40 0004 0D00     		movs	r5, r1
  41              	.LVL1:
  42              	.LBB16:
  43              	.LBB17:
  44              		.file 2 "Generated_Source\\PSoC6\\pdl\\drivers\\peripheral\\ipc\\cy_ipc_drv.h"
   1:Generated_Source\PSoC6\pdl\drivers\peripheral\ipc/cy_ipc_drv.h **** /***************************************************************************//**
   2:Generated_Source\PSoC6\pdl\drivers\peripheral\ipc/cy_ipc_drv.h **** * \file cy_ipc_drv.h
   3:Generated_Source\PSoC6\pdl\drivers\peripheral\ipc/cy_ipc_drv.h **** * \version 1.30
   4:Generated_Source\PSoC6\pdl\drivers\peripheral\ipc/cy_ipc_drv.h **** *
   5:Generated_Source\PSoC6\pdl\drivers\peripheral\ipc/cy_ipc_drv.h **** * Provides an API declaration of the IPC driver.
   6:Generated_Source\PSoC6\pdl\drivers\peripheral\ipc/cy_ipc_drv.h **** *
   7:Generated_Source\PSoC6\pdl\drivers\peripheral\ipc/cy_ipc_drv.h **** ********************************************************************************
   8:Generated_Source\PSoC6\pdl\drivers\peripheral\ipc/cy_ipc_drv.h **** * \copyright
   9:Generated_Source\PSoC6\pdl\drivers\peripheral\ipc/cy_ipc_drv.h **** * Copyright 2016-2018, Cypress Semiconductor Corporation. All rights reserved.
  10:Generated_Source\PSoC6\pdl\drivers\peripheral\ipc/cy_ipc_drv.h **** * You may use this file only in accordance with the license, terms, conditions,
  11:Generated_Source\PSoC6\pdl\drivers\peripheral\ipc/cy_ipc_drv.h **** * disclaimers, and limitations in the end user license agreement accompanying
  12:Generated_Source\PSoC6\pdl\drivers\peripheral\ipc/cy_ipc_drv.h **** * the software package with which this file was provided.
  13:Generated_Source\PSoC6\pdl\drivers\peripheral\ipc/cy_ipc_drv.h **** *******************************************************************************/
  14:Generated_Source\PSoC6\pdl\drivers\peripheral\ipc/cy_ipc_drv.h **** 
  15:Generated_Source\PSoC6\pdl\drivers\peripheral\ipc/cy_ipc_drv.h **** #ifndef CY_IPC_DRV_H
  16:Generated_Source\PSoC6\pdl\drivers\peripheral\ipc/cy_ipc_drv.h **** #define CY_IPC_DRV_H
  17:Generated_Source\PSoC6\pdl\drivers\peripheral\ipc/cy_ipc_drv.h **** 
  18:Generated_Source\PSoC6\pdl\drivers\peripheral\ipc/cy_ipc_drv.h **** 
  19:Generated_Source\PSoC6\pdl\drivers\peripheral\ipc/cy_ipc_drv.h **** /**
  20:Generated_Source\PSoC6\pdl\drivers\peripheral\ipc/cy_ipc_drv.h **** * \addtogroup group_ipc
  21:Generated_Source\PSoC6\pdl\drivers\peripheral\ipc/cy_ipc_drv.h **** * \{
  22:Generated_Source\PSoC6\pdl\drivers\peripheral\ipc/cy_ipc_drv.h **** * The inter-processor communication (IPC) driver provides a safe and reliable
  23:Generated_Source\PSoC6\pdl\drivers\peripheral\ipc/cy_ipc_drv.h **** * method to transfer data between CPUs. Hardware locking ensures that only one
ARM GAS  C:\Users\Rolf\AppData\Local\Temp\ccDBBlzw.s 			page 3


  24:Generated_Source\PSoC6\pdl\drivers\peripheral\ipc/cy_ipc_drv.h **** * device can acquire and transfer data at a time so no data is lost or
  25:Generated_Source\PSoC6\pdl\drivers\peripheral\ipc/cy_ipc_drv.h **** * overwritten by asynchronous processes or CPUs.
  26:Generated_Source\PSoC6\pdl\drivers\peripheral\ipc/cy_ipc_drv.h **** *
  27:Generated_Source\PSoC6\pdl\drivers\peripheral\ipc/cy_ipc_drv.h **** * Include either cy_ipc_pipe.h or cy_ipc_sema.h. Alternatively include cy_pdl.h 
  28:Generated_Source\PSoC6\pdl\drivers\peripheral\ipc/cy_ipc_drv.h **** * (ModusToolbox only) to get access to all functions and declarations in the PDL.
  29:Generated_Source\PSoC6\pdl\drivers\peripheral\ipc/cy_ipc_drv.h **** *
  30:Generated_Source\PSoC6\pdl\drivers\peripheral\ipc/cy_ipc_drv.h **** * There are three parts to the API:
  31:Generated_Source\PSoC6\pdl\drivers\peripheral\ipc/cy_ipc_drv.h **** *     - Driver-level (DRV) API - used internally by Semaphore and Pipe levels
  32:Generated_Source\PSoC6\pdl\drivers\peripheral\ipc/cy_ipc_drv.h **** *     - Pipe-level (PIPE) API - establishes a communication channel between
  33:Generated_Source\PSoC6\pdl\drivers\peripheral\ipc/cy_ipc_drv.h **** *       processors
  34:Generated_Source\PSoC6\pdl\drivers\peripheral\ipc/cy_ipc_drv.h **** *     - Semaphore-level (SEMA) API - enables users to set and clear flags to
  35:Generated_Source\PSoC6\pdl\drivers\peripheral\ipc/cy_ipc_drv.h **** *       synchronize operations.
  36:Generated_Source\PSoC6\pdl\drivers\peripheral\ipc/cy_ipc_drv.h **** *
  37:Generated_Source\PSoC6\pdl\drivers\peripheral\ipc/cy_ipc_drv.h **** * Firmware does not need to use the DRV API. It can implement IPC functionality
  38:Generated_Source\PSoC6\pdl\drivers\peripheral\ipc/cy_ipc_drv.h **** * entirely with the PIPE and SEMA APIs.
  39:Generated_Source\PSoC6\pdl\drivers\peripheral\ipc/cy_ipc_drv.h **** *
  40:Generated_Source\PSoC6\pdl\drivers\peripheral\ipc/cy_ipc_drv.h **** * \section group_ipc_background Background
  41:Generated_Source\PSoC6\pdl\drivers\peripheral\ipc/cy_ipc_drv.h **** *
  42:Generated_Source\PSoC6\pdl\drivers\peripheral\ipc/cy_ipc_drv.h **** * IPC is implemented in hardware as a collection of individual communication
  43:Generated_Source\PSoC6\pdl\drivers\peripheral\ipc/cy_ipc_drv.h **** * channels, each with a set of 32-bit registers. The IPC design implements a set
  44:Generated_Source\PSoC6\pdl\drivers\peripheral\ipc/cy_ipc_drv.h **** * of interrupts that enable each processor to notify the other that data is
  45:Generated_Source\PSoC6\pdl\drivers\peripheral\ipc/cy_ipc_drv.h **** * available, or has been processed. There is also a locking mechanism that
  46:Generated_Source\PSoC6\pdl\drivers\peripheral\ipc/cy_ipc_drv.h **** * allows only one CPU to gain access at a time.
  47:Generated_Source\PSoC6\pdl\drivers\peripheral\ipc/cy_ipc_drv.h **** *
  48:Generated_Source\PSoC6\pdl\drivers\peripheral\ipc/cy_ipc_drv.h **** * The Driver-level API manages each channel's registers to implement IPC
  49:Generated_Source\PSoC6\pdl\drivers\peripheral\ipc/cy_ipc_drv.h **** * functionality. For information on the IPC registers, see the IPC chapter of
  50:Generated_Source\PSoC6\pdl\drivers\peripheral\ipc/cy_ipc_drv.h **** * the Technical Reference Manual (TRM).
  51:Generated_Source\PSoC6\pdl\drivers\peripheral\ipc/cy_ipc_drv.h **** *
  52:Generated_Source\PSoC6\pdl\drivers\peripheral\ipc/cy_ipc_drv.h **** * At the hardware level, communication is a five-step process.
  53:Generated_Source\PSoC6\pdl\drivers\peripheral\ipc/cy_ipc_drv.h **** *     -#  The sending processor acquires a channel
  54:Generated_Source\PSoC6\pdl\drivers\peripheral\ipc/cy_ipc_drv.h **** *     -#  It puts data into the channel
  55:Generated_Source\PSoC6\pdl\drivers\peripheral\ipc/cy_ipc_drv.h **** *     -#  The sender generates a notify event (interrupt)
  56:Generated_Source\PSoC6\pdl\drivers\peripheral\ipc/cy_ipc_drv.h **** *     -#  The receiving processor identifies the sender and retrieves the data
  57:Generated_Source\PSoC6\pdl\drivers\peripheral\ipc/cy_ipc_drv.h **** *     -#  The receiving processor generates a release event (interrupt)
  58:Generated_Source\PSoC6\pdl\drivers\peripheral\ipc/cy_ipc_drv.h **** *
  59:Generated_Source\PSoC6\pdl\drivers\peripheral\ipc/cy_ipc_drv.h **** * \image html ipc_driver.png
  60:Generated_Source\PSoC6\pdl\drivers\peripheral\ipc/cy_ipc_drv.h **** *
  61:Generated_Source\PSoC6\pdl\drivers\peripheral\ipc/cy_ipc_drv.h **** * These transactions are handled transparently by the DRV-level API. Use the
  62:Generated_Source\PSoC6\pdl\drivers\peripheral\ipc/cy_ipc_drv.h **** * PIPE and SEMA layers of the API to implement communication in your application.
  63:Generated_Source\PSoC6\pdl\drivers\peripheral\ipc/cy_ipc_drv.h **** * The data transferred is limited to a single 32-bit value. As implemented by
  64:Generated_Source\PSoC6\pdl\drivers\peripheral\ipc/cy_ipc_drv.h **** * the PIPE API, that value is a pointer to a data structure of arbitrary size
  65:Generated_Source\PSoC6\pdl\drivers\peripheral\ipc/cy_ipc_drv.h **** * and complexity.
  66:Generated_Source\PSoC6\pdl\drivers\peripheral\ipc/cy_ipc_drv.h **** *
  67:Generated_Source\PSoC6\pdl\drivers\peripheral\ipc/cy_ipc_drv.h **** * \section group_ipc_overview Overview
  68:Generated_Source\PSoC6\pdl\drivers\peripheral\ipc/cy_ipc_drv.h **** *
  69:Generated_Source\PSoC6\pdl\drivers\peripheral\ipc/cy_ipc_drv.h **** * The Pipe is the key element in the PDL design. A pipe is typically a
  70:Generated_Source\PSoC6\pdl\drivers\peripheral\ipc/cy_ipc_drv.h **** * full-duplex communication channel between CPU cores. A pipe allows a single
  71:Generated_Source\PSoC6\pdl\drivers\peripheral\ipc/cy_ipc_drv.h **** * conduit to transfer messages or data to and from multiple processes or CPUs.
  72:Generated_Source\PSoC6\pdl\drivers\peripheral\ipc/cy_ipc_drv.h **** *
  73:Generated_Source\PSoC6\pdl\drivers\peripheral\ipc/cy_ipc_drv.h **** * A pipe has two endpoints, one on each core. Each endpoint contains a dedicated
  74:Generated_Source\PSoC6\pdl\drivers\peripheral\ipc/cy_ipc_drv.h **** * IPC channel and an interrupt. IPC channels 0-7 and IPC interrupts 0-7 are
  75:Generated_Source\PSoC6\pdl\drivers\peripheral\ipc/cy_ipc_drv.h **** * reserved for system use.
  76:Generated_Source\PSoC6\pdl\drivers\peripheral\ipc/cy_ipc_drv.h **** *
  77:Generated_Source\PSoC6\pdl\drivers\peripheral\ipc/cy_ipc_drv.h **** * The pipe also contains the number of clients it supports, and for each client
  78:Generated_Source\PSoC6\pdl\drivers\peripheral\ipc/cy_ipc_drv.h **** * a callback function. So the pipe can service a number of clients, each with a
  79:Generated_Source\PSoC6\pdl\drivers\peripheral\ipc/cy_ipc_drv.h **** * separate callback function, on either endpoint. The number of clients a pipe
  80:Generated_Source\PSoC6\pdl\drivers\peripheral\ipc/cy_ipc_drv.h **** * supports is the sum of each endpoint's clients.
ARM GAS  C:\Users\Rolf\AppData\Local\Temp\ccDBBlzw.s 			page 4


  81:Generated_Source\PSoC6\pdl\drivers\peripheral\ipc/cy_ipc_drv.h **** *
  82:Generated_Source\PSoC6\pdl\drivers\peripheral\ipc/cy_ipc_drv.h **** * This design enables any number of processes on the sending core to put
  83:Generated_Source\PSoC6\pdl\drivers\peripheral\ipc/cy_ipc_drv.h **** * arbitrary data into a single pipe. The first element of that data is the
  84:Generated_Source\PSoC6\pdl\drivers\peripheral\ipc/cy_ipc_drv.h **** * client ID of the client that should handle the data.
  85:Generated_Source\PSoC6\pdl\drivers\peripheral\ipc/cy_ipc_drv.h **** *
  86:Generated_Source\PSoC6\pdl\drivers\peripheral\ipc/cy_ipc_drv.h **** * An interrupt notifies the receiving core that data is available. The receiving
  87:Generated_Source\PSoC6\pdl\drivers\peripheral\ipc/cy_ipc_drv.h **** * core parses the data to identify the client, and then dispatches the event to
  88:Generated_Source\PSoC6\pdl\drivers\peripheral\ipc/cy_ipc_drv.h **** * the appropriate client via the client callback function. An interrupt notifies
  89:Generated_Source\PSoC6\pdl\drivers\peripheral\ipc/cy_ipc_drv.h **** * the sending core that the receiver is finished. In this way a single pipe can
  90:Generated_Source\PSoC6\pdl\drivers\peripheral\ipc/cy_ipc_drv.h **** * manage arbitrary data transfers between cores with data flowing in either
  91:Generated_Source\PSoC6\pdl\drivers\peripheral\ipc/cy_ipc_drv.h **** * direction.
  92:Generated_Source\PSoC6\pdl\drivers\peripheral\ipc/cy_ipc_drv.h **** *
  93:Generated_Source\PSoC6\pdl\drivers\peripheral\ipc/cy_ipc_drv.h **** * \image html ipc_ints.png
  94:Generated_Source\PSoC6\pdl\drivers\peripheral\ipc/cy_ipc_drv.h **** *
  95:Generated_Source\PSoC6\pdl\drivers\peripheral\ipc/cy_ipc_drv.h **** * The application can use semaphores to control access to shared resources, as
  96:Generated_Source\PSoC6\pdl\drivers\peripheral\ipc/cy_ipc_drv.h **** * required by the application's logic.
  97:Generated_Source\PSoC6\pdl\drivers\peripheral\ipc/cy_ipc_drv.h **** *
  98:Generated_Source\PSoC6\pdl\drivers\peripheral\ipc/cy_ipc_drv.h **** * The PDL provides specific files that set up default IPC functionality.
  99:Generated_Source\PSoC6\pdl\drivers\peripheral\ipc/cy_ipc_drv.h **** * They are system_psoc6.h, system_psoc6_cm0plus.c and system_psoc6_cm4.c. You 
 100:Generated_Source\PSoC6\pdl\drivers\peripheral\ipc/cy_ipc_drv.h **** * can modify these files based on the requirements of your design. 
 101:Generated_Source\PSoC6\pdl\drivers\peripheral\ipc/cy_ipc_drv.h **** * If you use PSoC Creator as a development environment, it will not overwrite 
 102:Generated_Source\PSoC6\pdl\drivers\peripheral\ipc/cy_ipc_drv.h **** * your changes when you generate the application or build your code.
 103:Generated_Source\PSoC6\pdl\drivers\peripheral\ipc/cy_ipc_drv.h **** *
 104:Generated_Source\PSoC6\pdl\drivers\peripheral\ipc/cy_ipc_drv.h **** * \section group_ipc_pipe_layer PIPE layer
 105:Generated_Source\PSoC6\pdl\drivers\peripheral\ipc/cy_ipc_drv.h **** *
 106:Generated_Source\PSoC6\pdl\drivers\peripheral\ipc/cy_ipc_drv.h **** * A pipe is a communication channel between two endpoints. PSoC 6 devices support
 107:Generated_Source\PSoC6\pdl\drivers\peripheral\ipc/cy_ipc_drv.h **** * 16 IPC channels, and 16 IPC interrupts, each numbered 0-15. IPC Channels 0-7
 108:Generated_Source\PSoC6\pdl\drivers\peripheral\ipc/cy_ipc_drv.h **** * and IPC interrupts 0-7 are reserved for system use. Channels 8-15 and
 109:Generated_Source\PSoC6\pdl\drivers\peripheral\ipc/cy_ipc_drv.h **** * interrupts 8-15 are available for application use.
 110:Generated_Source\PSoC6\pdl\drivers\peripheral\ipc/cy_ipc_drv.h **** *
 111:Generated_Source\PSoC6\pdl\drivers\peripheral\ipc/cy_ipc_drv.h **** * A full duplex pipe uses two IPC channels, one per endpoint. Each endpoint
 112:Generated_Source\PSoC6\pdl\drivers\peripheral\ipc/cy_ipc_drv.h **** * specifies all the information required to process a message (either sent or
 113:Generated_Source\PSoC6\pdl\drivers\peripheral\ipc/cy_ipc_drv.h **** * received). Each endpoint is configured to use an IPC channel, and an IPC
 114:Generated_Source\PSoC6\pdl\drivers\peripheral\ipc/cy_ipc_drv.h **** * interrupt. Common practice is to use the interrupt with the same number as
 115:Generated_Source\PSoC6\pdl\drivers\peripheral\ipc/cy_ipc_drv.h **** * the IPC channel. However, IPC Interrupts are not directly associated with the
 116:Generated_Source\PSoC6\pdl\drivers\peripheral\ipc/cy_ipc_drv.h **** * IPC channels, so any channel can use any interrupt.  Any IPC channel can
 117:Generated_Source\PSoC6\pdl\drivers\peripheral\ipc/cy_ipc_drv.h **** * trigger 0, 1 or all the IPC interrupts at once, depending on the Notify or
 118:Generated_Source\PSoC6\pdl\drivers\peripheral\ipc/cy_ipc_drv.h **** * Release masks used.
 119:Generated_Source\PSoC6\pdl\drivers\peripheral\ipc/cy_ipc_drv.h **** *
 120:Generated_Source\PSoC6\pdl\drivers\peripheral\ipc/cy_ipc_drv.h **** * It is also possible to set up a one-directional pipe, using a single IPC
 121:Generated_Source\PSoC6\pdl\drivers\peripheral\ipc/cy_ipc_drv.h **** * channel. In this design one processor is always the sender, and the other is
 122:Generated_Source\PSoC6\pdl\drivers\peripheral\ipc/cy_ipc_drv.h **** * always the receiver. However, there are still two endpoints.
 123:Generated_Source\PSoC6\pdl\drivers\peripheral\ipc/cy_ipc_drv.h **** *
 124:Generated_Source\PSoC6\pdl\drivers\peripheral\ipc/cy_ipc_drv.h **** * A pipe supports an arbitrary number of clients with an array of callback
 125:Generated_Source\PSoC6\pdl\drivers\peripheral\ipc/cy_ipc_drv.h **** * functions, one per client. The client ID is the index number into the array
 126:Generated_Source\PSoC6\pdl\drivers\peripheral\ipc/cy_ipc_drv.h **** * for the client. After a pipe is configured and initialized, the application
 127:Generated_Source\PSoC6\pdl\drivers\peripheral\ipc/cy_ipc_drv.h **** * calls Cy_IPC_Pipe_RegisterCallback() once per client to register each client's
 128:Generated_Source\PSoC6\pdl\drivers\peripheral\ipc/cy_ipc_drv.h **** * callback function. Multiple clients can use the same callback function. The
 129:Generated_Source\PSoC6\pdl\drivers\peripheral\ipc/cy_ipc_drv.h **** * endpoints in a pipe share the callback array.
 130:Generated_Source\PSoC6\pdl\drivers\peripheral\ipc/cy_ipc_drv.h **** *
 131:Generated_Source\PSoC6\pdl\drivers\peripheral\ipc/cy_ipc_drv.h **** * Use Cy_IPC_Pipe_SendMessage() to send data. You specify both the "to" and
 132:Generated_Source\PSoC6\pdl\drivers\peripheral\ipc/cy_ipc_drv.h **** * "from" endpoints, and a callback function to be used when the data transfer is
 133:Generated_Source\PSoC6\pdl\drivers\peripheral\ipc/cy_ipc_drv.h **** * complete. The data is a 32-bit void pointer. The data pointed to is arbitrary,
 134:Generated_Source\PSoC6\pdl\drivers\peripheral\ipc/cy_ipc_drv.h **** * and can be an array, a structure, or a location in memory. The only limitation
 135:Generated_Source\PSoC6\pdl\drivers\peripheral\ipc/cy_ipc_drv.h **** * is that the first element of the data must be a 32-bit unsigned word containing
 136:Generated_Source\PSoC6\pdl\drivers\peripheral\ipc/cy_ipc_drv.h **** * a client ID number. The ID number is the index into the callback array.
 137:Generated_Source\PSoC6\pdl\drivers\peripheral\ipc/cy_ipc_drv.h **** *
ARM GAS  C:\Users\Rolf\AppData\Local\Temp\ccDBBlzw.s 			page 5


 138:Generated_Source\PSoC6\pdl\drivers\peripheral\ipc/cy_ipc_drv.h **** * When a message is sent, the receiving endpoint's interrupt handler is called.
 139:Generated_Source\PSoC6\pdl\drivers\peripheral\ipc/cy_ipc_drv.h **** * The ISR can perform any task required by the design. However, as part of its
 140:Generated_Source\PSoC6\pdl\drivers\peripheral\ipc/cy_ipc_drv.h **** * function it calls \ref Cy_IPC_Pipe_ExecCallback. This function retrieves the
 141:Generated_Source\PSoC6\pdl\drivers\peripheral\ipc/cy_ipc_drv.h **** * client ID from the data and calls the associated callback function.
 142:Generated_Source\PSoC6\pdl\drivers\peripheral\ipc/cy_ipc_drv.h **** * The user-supplied callback function handles the data in whatever way is
 143:Generated_Source\PSoC6\pdl\drivers\peripheral\ipc/cy_ipc_drv.h **** * appropriate based on the application logic.
 144:Generated_Source\PSoC6\pdl\drivers\peripheral\ipc/cy_ipc_drv.h **** *
 145:Generated_Source\PSoC6\pdl\drivers\peripheral\ipc/cy_ipc_drv.h **** * After the callback function is returned by the receiver, it invokes the release
 146:Generated_Source\PSoC6\pdl\drivers\peripheral\ipc/cy_ipc_drv.h **** * callback function defined by the sender of the message.
 147:Generated_Source\PSoC6\pdl\drivers\peripheral\ipc/cy_ipc_drv.h **** *
 148:Generated_Source\PSoC6\pdl\drivers\peripheral\ipc/cy_ipc_drv.h **** * \section group_ipc_sema_layer SEMA Layer
 149:Generated_Source\PSoC6\pdl\drivers\peripheral\ipc/cy_ipc_drv.h **** *
 150:Generated_Source\PSoC6\pdl\drivers\peripheral\ipc/cy_ipc_drv.h **** * A semaphore is a flag the application uses to control access to a shared
 151:Generated_Source\PSoC6\pdl\drivers\peripheral\ipc/cy_ipc_drv.h **** * resource. The SEMA-level API uses an IPC channel to implement
 152:Generated_Source\PSoC6\pdl\drivers\peripheral\ipc/cy_ipc_drv.h **** * semaphores. Startup code sets up a default semaphore system. The
 153:Generated_Source\PSoC6\pdl\drivers\peripheral\ipc/cy_ipc_drv.h **** * default system creates an array of 128 semaphores (four 32-bit values).
 154:Generated_Source\PSoC6\pdl\drivers\peripheral\ipc/cy_ipc_drv.h **** * Semaphores 0-15 are reserved for system use. See
 155:Generated_Source\PSoC6\pdl\drivers\peripheral\ipc/cy_ipc_drv.h **** * Configuration Considerations - SEMA.
 156:Generated_Source\PSoC6\pdl\drivers\peripheral\ipc/cy_ipc_drv.h **** *
 157:Generated_Source\PSoC6\pdl\drivers\peripheral\ipc/cy_ipc_drv.h **** * Functions are available to initialize the semaphore system, to set or
 158:Generated_Source\PSoC6\pdl\drivers\peripheral\ipc/cy_ipc_drv.h **** * clear a semaphore, or to get the semaphore's current status. Application
 159:Generated_Source\PSoC6\pdl\drivers\peripheral\ipc/cy_ipc_drv.h **** * logic uses SEMA functions to relate a particular semaphore to a particular
 160:Generated_Source\PSoC6\pdl\drivers\peripheral\ipc/cy_ipc_drv.h **** * shared resource, and set, clear, or check the flag when accessing the
 161:Generated_Source\PSoC6\pdl\drivers\peripheral\ipc/cy_ipc_drv.h **** * shared resource.
 162:Generated_Source\PSoC6\pdl\drivers\peripheral\ipc/cy_ipc_drv.h **** *
 163:Generated_Source\PSoC6\pdl\drivers\peripheral\ipc/cy_ipc_drv.h **** * \section group_ipc_configuration_cypipe Configuration Considerations - CYPIPE
 164:Generated_Source\PSoC6\pdl\drivers\peripheral\ipc/cy_ipc_drv.h **** *
 165:Generated_Source\PSoC6\pdl\drivers\peripheral\ipc/cy_ipc_drv.h **** * There are none. The startup files set up the required CYPIPE for system
 166:Generated_Source\PSoC6\pdl\drivers\peripheral\ipc/cy_ipc_drv.h **** * use. Do not modify the CYPIPE. It uses IPC channels 5 and 6 to implement full
 167:Generated_Source\PSoC6\pdl\drivers\peripheral\ipc/cy_ipc_drv.h **** * duplex communication between cores. See System Interrupt (SysInt) for background.
 168:Generated_Source\PSoC6\pdl\drivers\peripheral\ipc/cy_ipc_drv.h **** *
 169:Generated_Source\PSoC6\pdl\drivers\peripheral\ipc/cy_ipc_drv.h **** * To create your own pipe (<b>USRPIPE</b>) you should edit startup files
 170:Generated_Source\PSoC6\pdl\drivers\peripheral\ipc/cy_ipc_drv.h **** * and take 4 steps:
 171:Generated_Source\PSoC6\pdl\drivers\peripheral\ipc/cy_ipc_drv.h **** *   -# Define a pipe callbacks processing interrupt handler
 172:Generated_Source\PSoC6\pdl\drivers\peripheral\ipc/cy_ipc_drv.h **** *      (similar to <b>Cy_SysIpcPipeIsrCm0</b> or <b>Cy_SysIpcPipeIsrCm4</b>)
 173:Generated_Source\PSoC6\pdl\drivers\peripheral\ipc/cy_ipc_drv.h **** *   -# Define a callbacks array (similar to <b>systemIpcPipeSysCbArray</b>)
 174:Generated_Source\PSoC6\pdl\drivers\peripheral\ipc/cy_ipc_drv.h **** *   -# Define your pipe configuration with a cy_stc_ipc_pipe_config_t type structure
 175:Generated_Source\PSoC6\pdl\drivers\peripheral\ipc/cy_ipc_drv.h **** *      (similar to <b>systemIpcPipeConfigCm0</b> and <b>systemIpcPipeConfigCm4</b>)
 176:Generated_Source\PSoC6\pdl\drivers\peripheral\ipc/cy_ipc_drv.h **** *   -# Call Cy_IPC_Pipe_Init() from each core to initialize your pipe (similar
 177:Generated_Source\PSoC6\pdl\drivers\peripheral\ipc/cy_ipc_drv.h **** *      to call in the <b>SystemInit</b>)
 178:Generated_Source\PSoC6\pdl\drivers\peripheral\ipc/cy_ipc_drv.h **** *
 179:Generated_Source\PSoC6\pdl\drivers\peripheral\ipc/cy_ipc_drv.h **** * \section group_ipc_configuration_sema Configuration Considerations - SEMA
 180:Generated_Source\PSoC6\pdl\drivers\peripheral\ipc/cy_ipc_drv.h **** *
 181:Generated_Source\PSoC6\pdl\drivers\peripheral\ipc/cy_ipc_drv.h **** * Startup code calls Cy_IPC_Sema_Init() with default values to set up semaphore 
 182:Generated_Source\PSoC6\pdl\drivers\peripheral\ipc/cy_ipc_drv.h **** * functionality. By default the semaphore system uses IPC channel 4, and 
 183:Generated_Source\PSoC6\pdl\drivers\peripheral\ipc/cy_ipc_drv.h **** * creates 128 semaphores. Do <b>not</b> change the IPC channel. 
 184:Generated_Source\PSoC6\pdl\drivers\peripheral\ipc/cy_ipc_drv.h **** * You can change the number of semaphores.
 185:Generated_Source\PSoC6\pdl\drivers\peripheral\ipc/cy_ipc_drv.h **** *
 186:Generated_Source\PSoC6\pdl\drivers\peripheral\ipc/cy_ipc_drv.h **** * To change the number of semaphores, modify this line of code in system_psoc6.h.
 187:Generated_Source\PSoC6\pdl\drivers\peripheral\ipc/cy_ipc_drv.h **** *
 188:Generated_Source\PSoC6\pdl\drivers\peripheral\ipc/cy_ipc_drv.h **** * \code
 189:Generated_Source\PSoC6\pdl\drivers\peripheral\ipc/cy_ipc_drv.h **** * #define CY_IPC_SEMA_COUNT               (uint32_t)(128u)
 190:Generated_Source\PSoC6\pdl\drivers\peripheral\ipc/cy_ipc_drv.h **** * \endcode
 191:Generated_Source\PSoC6\pdl\drivers\peripheral\ipc/cy_ipc_drv.h **** *
 192:Generated_Source\PSoC6\pdl\drivers\peripheral\ipc/cy_ipc_drv.h **** * Startup also declares array ipcSemaArray to hold the semaphore
 193:Generated_Source\PSoC6\pdl\drivers\peripheral\ipc/cy_ipc_drv.h **** * flags based on the size defined for this symbol. Use increments of 32. You
 194:Generated_Source\PSoC6\pdl\drivers\peripheral\ipc/cy_ipc_drv.h **** * must have at least 32 semaphores. Semaphores 0-15 are reserved for
ARM GAS  C:\Users\Rolf\AppData\Local\Temp\ccDBBlzw.s 			page 6


 195:Generated_Source\PSoC6\pdl\drivers\peripheral\ipc/cy_ipc_drv.h **** * system use. Your application can use semaphores greater than 15.
 196:Generated_Source\PSoC6\pdl\drivers\peripheral\ipc/cy_ipc_drv.h **** *
 197:Generated_Source\PSoC6\pdl\drivers\peripheral\ipc/cy_ipc_drv.h **** * \section group_ipc_more_information More Information
 198:Generated_Source\PSoC6\pdl\drivers\peripheral\ipc/cy_ipc_drv.h **** *
 199:Generated_Source\PSoC6\pdl\drivers\peripheral\ipc/cy_ipc_drv.h **** * If the default startup file is not used, or SystemInit() is not called in your 
 200:Generated_Source\PSoC6\pdl\drivers\peripheral\ipc/cy_ipc_drv.h **** * project, call the following three functions prior to executing any flash or 
 201:Generated_Source\PSoC6\pdl\drivers\peripheral\ipc/cy_ipc_drv.h **** * EmEEPROM write or erase operation:
 202:Generated_Source\PSoC6\pdl\drivers\peripheral\ipc/cy_ipc_drv.h **** *  -# Cy_IPC_Sema_Init()
 203:Generated_Source\PSoC6\pdl\drivers\peripheral\ipc/cy_ipc_drv.h **** *  -# Cy_IPC_Pipe_Config()
 204:Generated_Source\PSoC6\pdl\drivers\peripheral\ipc/cy_ipc_drv.h **** *  -# Cy_IPC_Pipe_Init()
 205:Generated_Source\PSoC6\pdl\drivers\peripheral\ipc/cy_ipc_drv.h **** *  -# Cy_Flash_Init()
 206:Generated_Source\PSoC6\pdl\drivers\peripheral\ipc/cy_ipc_drv.h **** *
 207:Generated_Source\PSoC6\pdl\drivers\peripheral\ipc/cy_ipc_drv.h **** * See the technical reference manual(TRM) for more information on the IPC.
 208:Generated_Source\PSoC6\pdl\drivers\peripheral\ipc/cy_ipc_drv.h **** *
 209:Generated_Source\PSoC6\pdl\drivers\peripheral\ipc/cy_ipc_drv.h **** * \section group_ipc_MISRA MISRA-C Compliance
 210:Generated_Source\PSoC6\pdl\drivers\peripheral\ipc/cy_ipc_drv.h **** *
 211:Generated_Source\PSoC6\pdl\drivers\peripheral\ipc/cy_ipc_drv.h **** * <table class="doxtable">
 212:Generated_Source\PSoC6\pdl\drivers\peripheral\ipc/cy_ipc_drv.h **** *   <tr>
 213:Generated_Source\PSoC6\pdl\drivers\peripheral\ipc/cy_ipc_drv.h **** *     <th>MISRA Rule</th>
 214:Generated_Source\PSoC6\pdl\drivers\peripheral\ipc/cy_ipc_drv.h **** *     <th>Rule Class (Required/Advisory)</th>
 215:Generated_Source\PSoC6\pdl\drivers\peripheral\ipc/cy_ipc_drv.h **** *     <th>Rule Description</th>
 216:Generated_Source\PSoC6\pdl\drivers\peripheral\ipc/cy_ipc_drv.h **** *     <th style="width: 50%;">Description of Deviation(s)</th>
 217:Generated_Source\PSoC6\pdl\drivers\peripheral\ipc/cy_ipc_drv.h **** *   </tr>
 218:Generated_Source\PSoC6\pdl\drivers\peripheral\ipc/cy_ipc_drv.h **** *   <tr>
 219:Generated_Source\PSoC6\pdl\drivers\peripheral\ipc/cy_ipc_drv.h **** *     <td>10.3</td>
 220:Generated_Source\PSoC6\pdl\drivers\peripheral\ipc/cy_ipc_drv.h **** *     <td>R</td>
 221:Generated_Source\PSoC6\pdl\drivers\peripheral\ipc/cy_ipc_drv.h **** *     <td>The value of a complex expression of integer type shall be cast
 222:Generated_Source\PSoC6\pdl\drivers\peripheral\ipc/cy_ipc_drv.h **** *         only to a type of the same signedness that is no wider than the underlying
 223:Generated_Source\PSoC6\pdl\drivers\peripheral\ipc/cy_ipc_drv.h **** *         type of the expression.</td>
 224:Generated_Source\PSoC6\pdl\drivers\peripheral\ipc/cy_ipc_drv.h **** *     <td>The cast from integer to enumeration value is used to calculate
 225:Generated_Source\PSoC6\pdl\drivers\peripheral\ipc/cy_ipc_drv.h **** *         the interrupt vector source from the integer number of the IPC interrupt
 226:Generated_Source\PSoC6\pdl\drivers\peripheral\ipc/cy_ipc_drv.h **** *         structure, so there is no way to avoid this cast.</td>
 227:Generated_Source\PSoC6\pdl\drivers\peripheral\ipc/cy_ipc_drv.h **** *   </tr>
 228:Generated_Source\PSoC6\pdl\drivers\peripheral\ipc/cy_ipc_drv.h **** *   <tr>
 229:Generated_Source\PSoC6\pdl\drivers\peripheral\ipc/cy_ipc_drv.h **** *     <td>11.4</td>
 230:Generated_Source\PSoC6\pdl\drivers\peripheral\ipc/cy_ipc_drv.h **** *     <td>A</td>
 231:Generated_Source\PSoC6\pdl\drivers\peripheral\ipc/cy_ipc_drv.h **** *     <td>A cast should not be performed between a pointer to the void to a
 232:Generated_Source\PSoC6\pdl\drivers\peripheral\ipc/cy_ipc_drv.h **** *         pointer to the object type.</td>
 233:Generated_Source\PSoC6\pdl\drivers\peripheral\ipc/cy_ipc_drv.h **** *     <td>The cast from the void to pointer and vice versa is used to transmit
 234:Generated_Source\PSoC6\pdl\drivers\peripheral\ipc/cy_ipc_drv.h **** *         data via the \ref group_ipc channel by exchanging the pointer. We
 235:Generated_Source\PSoC6\pdl\drivers\peripheral\ipc/cy_ipc_drv.h **** *         exchange only one pointer, so there is no way to avoid this cast.</td>
 236:Generated_Source\PSoC6\pdl\drivers\peripheral\ipc/cy_ipc_drv.h **** *   </tr>
 237:Generated_Source\PSoC6\pdl\drivers\peripheral\ipc/cy_ipc_drv.h **** * </table>
 238:Generated_Source\PSoC6\pdl\drivers\peripheral\ipc/cy_ipc_drv.h **** *
 239:Generated_Source\PSoC6\pdl\drivers\peripheral\ipc/cy_ipc_drv.h **** * \section group_ipc_changelog Changelog
 240:Generated_Source\PSoC6\pdl\drivers\peripheral\ipc/cy_ipc_drv.h **** *
 241:Generated_Source\PSoC6\pdl\drivers\peripheral\ipc/cy_ipc_drv.h **** * <table class="doxtable">
 242:Generated_Source\PSoC6\pdl\drivers\peripheral\ipc/cy_ipc_drv.h **** *   <tr><th>Version</th><th>Changes</th><th>Reason for Change</th></tr>
 243:Generated_Source\PSoC6\pdl\drivers\peripheral\ipc/cy_ipc_drv.h **** *   <tr>
 244:Generated_Source\PSoC6\pdl\drivers\peripheral\ipc/cy_ipc_drv.h **** *     <td rowspan="3">1.30</td>
 245:Generated_Source\PSoC6\pdl\drivers\peripheral\ipc/cy_ipc_drv.h **** *     <td>Flattened the organization of the driver source code into the single source directory and
 246:Generated_Source\PSoC6\pdl\drivers\peripheral\ipc/cy_ipc_drv.h **** *     <td>Driver library directory-structure simplification.</td>
 247:Generated_Source\PSoC6\pdl\drivers\peripheral\ipc/cy_ipc_drv.h **** *   </tr>
 248:Generated_Source\PSoC6\pdl\drivers\peripheral\ipc/cy_ipc_drv.h **** *   <tr>
 249:Generated_Source\PSoC6\pdl\drivers\peripheral\ipc/cy_ipc_drv.h **** *     <td>Moved the Cy_IPC_SystemSemaInit(), Cy_IPC_SystemPipeInit() functions implementation from 
 250:Generated_Source\PSoC6\pdl\drivers\peripheral\ipc/cy_ipc_drv.h **** *     <td>Changed IPC driver configuration method from compile time to run time.</td>
 251:Generated_Source\PSoC6\pdl\drivers\peripheral\ipc/cy_ipc_drv.h **** *   </tr>
ARM GAS  C:\Users\Rolf\AppData\Local\Temp\ccDBBlzw.s 			page 7


 252:Generated_Source\PSoC6\pdl\drivers\peripheral\ipc/cy_ipc_drv.h **** *   <tr>
 253:Generated_Source\PSoC6\pdl\drivers\peripheral\ipc/cy_ipc_drv.h **** *     <td>Added register access layer. Use register access macros instead
 254:Generated_Source\PSoC6\pdl\drivers\peripheral\ipc/cy_ipc_drv.h **** *         of direct register access using dereferenced pointers.</td>
 255:Generated_Source\PSoC6\pdl\drivers\peripheral\ipc/cy_ipc_drv.h **** *     <td>Makes register access device-independent, so that the PDL does 
 256:Generated_Source\PSoC6\pdl\drivers\peripheral\ipc/cy_ipc_drv.h **** *         not need to be recompiled for each supported part number.</td>
 257:Generated_Source\PSoC6\pdl\drivers\peripheral\ipc/cy_ipc_drv.h **** *   </tr>
 258:Generated_Source\PSoC6\pdl\drivers\peripheral\ipc/cy_ipc_drv.h **** *   <tr>
 259:Generated_Source\PSoC6\pdl\drivers\peripheral\ipc/cy_ipc_drv.h **** *     <td>1.20</td>
 260:Generated_Source\PSoC6\pdl\drivers\peripheral\ipc/cy_ipc_drv.h **** *     <td>Added \ref Cy_IPC_Pipe_ExecuteCallback function.
 261:Generated_Source\PSoC6\pdl\drivers\peripheral\ipc/cy_ipc_drv.h **** *         Updated documentation about user pipe initialization.
 262:Generated_Source\PSoC6\pdl\drivers\peripheral\ipc/cy_ipc_drv.h **** *     </td>
 263:Generated_Source\PSoC6\pdl\drivers\peripheral\ipc/cy_ipc_drv.h **** *     <td>Interface improvement, documentation update</td>
 264:Generated_Source\PSoC6\pdl\drivers\peripheral\ipc/cy_ipc_drv.h **** *   </tr>
 265:Generated_Source\PSoC6\pdl\drivers\peripheral\ipc/cy_ipc_drv.h **** *   <tr>
 266:Generated_Source\PSoC6\pdl\drivers\peripheral\ipc/cy_ipc_drv.h **** *     <td>1.10.1</td>
 267:Generated_Source\PSoC6\pdl\drivers\peripheral\ipc/cy_ipc_drv.h **** *     <td>Updated description of the \ref Cy_IPC_Pipe_Init,
 268:Generated_Source\PSoC6\pdl\drivers\peripheral\ipc/cy_ipc_drv.h **** *         \ref Cy_IPC_Pipe_EndpointInit, \ref Cy_IPC_Sema_Set functions.
 269:Generated_Source\PSoC6\pdl\drivers\peripheral\ipc/cy_ipc_drv.h **** *         Added / updated code snippets.
 270:Generated_Source\PSoC6\pdl\drivers\peripheral\ipc/cy_ipc_drv.h **** *     </td>
 271:Generated_Source\PSoC6\pdl\drivers\peripheral\ipc/cy_ipc_drv.h **** *     <td>Documentation update and clarification</td>
 272:Generated_Source\PSoC6\pdl\drivers\peripheral\ipc/cy_ipc_drv.h **** *   </tr>
 273:Generated_Source\PSoC6\pdl\drivers\peripheral\ipc/cy_ipc_drv.h **** *   <tr>
 274:Generated_Source\PSoC6\pdl\drivers\peripheral\ipc/cy_ipc_drv.h **** *     <td>1.10</td>
 275:Generated_Source\PSoC6\pdl\drivers\peripheral\ipc/cy_ipc_drv.h **** *     <td>Added support for more IPC structures</td>
 276:Generated_Source\PSoC6\pdl\drivers\peripheral\ipc/cy_ipc_drv.h **** *     <td>New device support</td>
 277:Generated_Source\PSoC6\pdl\drivers\peripheral\ipc/cy_ipc_drv.h **** *   </tr>
 278:Generated_Source\PSoC6\pdl\drivers\peripheral\ipc/cy_ipc_drv.h **** *   <tr>
 279:Generated_Source\PSoC6\pdl\drivers\peripheral\ipc/cy_ipc_drv.h **** *     <td>1.0</td>
 280:Generated_Source\PSoC6\pdl\drivers\peripheral\ipc/cy_ipc_drv.h **** *     <td>Initial version</td>
 281:Generated_Source\PSoC6\pdl\drivers\peripheral\ipc/cy_ipc_drv.h **** *     <td></td>
 282:Generated_Source\PSoC6\pdl\drivers\peripheral\ipc/cy_ipc_drv.h **** *   </tr>
 283:Generated_Source\PSoC6\pdl\drivers\peripheral\ipc/cy_ipc_drv.h **** * </table>
 284:Generated_Source\PSoC6\pdl\drivers\peripheral\ipc/cy_ipc_drv.h **** *
 285:Generated_Source\PSoC6\pdl\drivers\peripheral\ipc/cy_ipc_drv.h **** * \defgroup group_ipc_drv IPC driver layer (IPC_DRV)
 286:Generated_Source\PSoC6\pdl\drivers\peripheral\ipc/cy_ipc_drv.h **** * \{
 287:Generated_Source\PSoC6\pdl\drivers\peripheral\ipc/cy_ipc_drv.h **** *   The functions of this layer are used in the higher IPC levels
 288:Generated_Source\PSoC6\pdl\drivers\peripheral\ipc/cy_ipc_drv.h **** *   (Semaphores and Pipes).
 289:Generated_Source\PSoC6\pdl\drivers\peripheral\ipc/cy_ipc_drv.h **** *   Users are not expected to call any of these IPC functions directly (cy_ipc_drv.h). 
 290:Generated_Source\PSoC6\pdl\drivers\peripheral\ipc/cy_ipc_drv.h **** *   Instead include either of cy_ipc_sema.h or cy_ipc_pipe.h. 
 291:Generated_Source\PSoC6\pdl\drivers\peripheral\ipc/cy_ipc_drv.h **** *   Alternatively include cy_pdl.h to get access to all functions and declarations in the PDL.
 292:Generated_Source\PSoC6\pdl\drivers\peripheral\ipc/cy_ipc_drv.h **** *
 293:Generated_Source\PSoC6\pdl\drivers\peripheral\ipc/cy_ipc_drv.h **** *   \defgroup group_ipc_macros Macros
 294:Generated_Source\PSoC6\pdl\drivers\peripheral\ipc/cy_ipc_drv.h **** *       Macro definitions are used in the driver
 295:Generated_Source\PSoC6\pdl\drivers\peripheral\ipc/cy_ipc_drv.h **** *
 296:Generated_Source\PSoC6\pdl\drivers\peripheral\ipc/cy_ipc_drv.h **** *   \defgroup group_ipc_functions Functions
 297:Generated_Source\PSoC6\pdl\drivers\peripheral\ipc/cy_ipc_drv.h **** *       Functions are used in the driver
 298:Generated_Source\PSoC6\pdl\drivers\peripheral\ipc/cy_ipc_drv.h **** *
 299:Generated_Source\PSoC6\pdl\drivers\peripheral\ipc/cy_ipc_drv.h **** *   \defgroup group_ipc_data_structures Data Structures
 300:Generated_Source\PSoC6\pdl\drivers\peripheral\ipc/cy_ipc_drv.h **** *       Data structures are used in the driver
 301:Generated_Source\PSoC6\pdl\drivers\peripheral\ipc/cy_ipc_drv.h **** *
 302:Generated_Source\PSoC6\pdl\drivers\peripheral\ipc/cy_ipc_drv.h **** *   \defgroup group_ipc_enums Enumerated Types
 303:Generated_Source\PSoC6\pdl\drivers\peripheral\ipc/cy_ipc_drv.h **** *       Enumerations are used in the driver
 304:Generated_Source\PSoC6\pdl\drivers\peripheral\ipc/cy_ipc_drv.h **** * \}
 305:Generated_Source\PSoC6\pdl\drivers\peripheral\ipc/cy_ipc_drv.h **** *
 306:Generated_Source\PSoC6\pdl\drivers\peripheral\ipc/cy_ipc_drv.h **** * \defgroup group_ipc_sema IPC semaphores layer (IPC_SEMA)
 307:Generated_Source\PSoC6\pdl\drivers\peripheral\ipc/cy_ipc_drv.h **** * \defgroup group_ipc_pipe IPC pipes layer (IPC_PIPE)
 308:Generated_Source\PSoC6\pdl\drivers\peripheral\ipc/cy_ipc_drv.h **** *
ARM GAS  C:\Users\Rolf\AppData\Local\Temp\ccDBBlzw.s 			page 8


 309:Generated_Source\PSoC6\pdl\drivers\peripheral\ipc/cy_ipc_drv.h **** */
 310:Generated_Source\PSoC6\pdl\drivers\peripheral\ipc/cy_ipc_drv.h **** 
 311:Generated_Source\PSoC6\pdl\drivers\peripheral\ipc/cy_ipc_drv.h **** 
 312:Generated_Source\PSoC6\pdl\drivers\peripheral\ipc/cy_ipc_drv.h **** /******************************************************************************/
 313:Generated_Source\PSoC6\pdl\drivers\peripheral\ipc/cy_ipc_drv.h **** /* Include files                                                              */
 314:Generated_Source\PSoC6\pdl\drivers\peripheral\ipc/cy_ipc_drv.h **** /******************************************************************************/
 315:Generated_Source\PSoC6\pdl\drivers\peripheral\ipc/cy_ipc_drv.h **** 
 316:Generated_Source\PSoC6\pdl\drivers\peripheral\ipc/cy_ipc_drv.h **** #include "cy_device.h"
 317:Generated_Source\PSoC6\pdl\drivers\peripheral\ipc/cy_ipc_drv.h **** #include "cy_device_headers.h"
 318:Generated_Source\PSoC6\pdl\drivers\peripheral\ipc/cy_ipc_drv.h **** #include "cy_syslib.h"
 319:Generated_Source\PSoC6\pdl\drivers\peripheral\ipc/cy_ipc_drv.h **** #include <stddef.h>
 320:Generated_Source\PSoC6\pdl\drivers\peripheral\ipc/cy_ipc_drv.h **** 
 321:Generated_Source\PSoC6\pdl\drivers\peripheral\ipc/cy_ipc_drv.h **** 
 322:Generated_Source\PSoC6\pdl\drivers\peripheral\ipc/cy_ipc_drv.h **** /**
 323:Generated_Source\PSoC6\pdl\drivers\peripheral\ipc/cy_ipc_drv.h **** * \addtogroup group_ipc_macros
 324:Generated_Source\PSoC6\pdl\drivers\peripheral\ipc/cy_ipc_drv.h **** * \{
 325:Generated_Source\PSoC6\pdl\drivers\peripheral\ipc/cy_ipc_drv.h **** */
 326:Generated_Source\PSoC6\pdl\drivers\peripheral\ipc/cy_ipc_drv.h **** 
 327:Generated_Source\PSoC6\pdl\drivers\peripheral\ipc/cy_ipc_drv.h **** /** Driver major version */
 328:Generated_Source\PSoC6\pdl\drivers\peripheral\ipc/cy_ipc_drv.h **** #define CY_IPC_DRV_VERSION_MAJOR       1
 329:Generated_Source\PSoC6\pdl\drivers\peripheral\ipc/cy_ipc_drv.h **** 
 330:Generated_Source\PSoC6\pdl\drivers\peripheral\ipc/cy_ipc_drv.h **** /** Driver minor version */
 331:Generated_Source\PSoC6\pdl\drivers\peripheral\ipc/cy_ipc_drv.h **** #define CY_IPC_DRV_VERSION_MINOR       30
 332:Generated_Source\PSoC6\pdl\drivers\peripheral\ipc/cy_ipc_drv.h **** 
 333:Generated_Source\PSoC6\pdl\drivers\peripheral\ipc/cy_ipc_drv.h **** /** Defines a value to indicate that no notification events are needed */
 334:Generated_Source\PSoC6\pdl\drivers\peripheral\ipc/cy_ipc_drv.h **** #define CY_IPC_NO_NOTIFICATION         (uint32_t)(0x00000000ul)
 335:Generated_Source\PSoC6\pdl\drivers\peripheral\ipc/cy_ipc_drv.h **** 
 336:Generated_Source\PSoC6\pdl\drivers\peripheral\ipc/cy_ipc_drv.h **** /* Error Code constants */
 337:Generated_Source\PSoC6\pdl\drivers\peripheral\ipc/cy_ipc_drv.h **** #define CY_IPC_ID CY_PDL_DRV_ID(0x22u)  /**< Software PDL driver ID for IPC */
 338:Generated_Source\PSoC6\pdl\drivers\peripheral\ipc/cy_ipc_drv.h **** 
 339:Generated_Source\PSoC6\pdl\drivers\peripheral\ipc/cy_ipc_drv.h **** /** Return prefix for IPC driver function status codes */
 340:Generated_Source\PSoC6\pdl\drivers\peripheral\ipc/cy_ipc_drv.h **** #define CY_IPC_ID_INFO    (uint32_t)( CY_IPC_ID | CY_PDL_STATUS_INFO )
 341:Generated_Source\PSoC6\pdl\drivers\peripheral\ipc/cy_ipc_drv.h **** /** Return prefix for IPC driver function warning return values */
 342:Generated_Source\PSoC6\pdl\drivers\peripheral\ipc/cy_ipc_drv.h **** #define CY_IPC_ID_WARNING (uint32_t)( CY_IPC_ID | CY_PDL_STATUS_WARNING)
 343:Generated_Source\PSoC6\pdl\drivers\peripheral\ipc/cy_ipc_drv.h **** /** Return prefix for IPC driver function error return values */
 344:Generated_Source\PSoC6\pdl\drivers\peripheral\ipc/cy_ipc_drv.h **** #define CY_IPC_ID_ERROR   (uint32_t)( CY_IPC_ID | CY_PDL_STATUS_ERROR)
 345:Generated_Source\PSoC6\pdl\drivers\peripheral\ipc/cy_ipc_drv.h **** 
 346:Generated_Source\PSoC6\pdl\drivers\peripheral\ipc/cy_ipc_drv.h **** /** Converts the IPC interrupt channel number to interrupt vector */
 347:Generated_Source\PSoC6\pdl\drivers\peripheral\ipc/cy_ipc_drv.h **** #define CY_IPC_INTR_NUM_TO_VECT(x)         ((int32_t) cy_device->cpussIpc0Irq + (x))
 348:Generated_Source\PSoC6\pdl\drivers\peripheral\ipc/cy_ipc_drv.h **** 
 349:Generated_Source\PSoC6\pdl\drivers\peripheral\ipc/cy_ipc_drv.h **** /** \} group_ipc_macros */
 350:Generated_Source\PSoC6\pdl\drivers\peripheral\ipc/cy_ipc_drv.h **** 
 351:Generated_Source\PSoC6\pdl\drivers\peripheral\ipc/cy_ipc_drv.h **** /* end of definition in device.h */
 352:Generated_Source\PSoC6\pdl\drivers\peripheral\ipc/cy_ipc_drv.h **** 
 353:Generated_Source\PSoC6\pdl\drivers\peripheral\ipc/cy_ipc_drv.h **** /** \cond INTERNAL */
 354:Generated_Source\PSoC6\pdl\drivers\peripheral\ipc/cy_ipc_drv.h **** #if (CY_CPU_CORTEX_M0P)
 355:Generated_Source\PSoC6\pdl\drivers\peripheral\ipc/cy_ipc_drv.h ****     #define CY_IPC_CHAN_SYSCALL         CY_IPC_CHAN_SYSCALL_CM0
 356:Generated_Source\PSoC6\pdl\drivers\peripheral\ipc/cy_ipc_drv.h **** #else
 357:Generated_Source\PSoC6\pdl\drivers\peripheral\ipc/cy_ipc_drv.h ****     #define CY_IPC_CHAN_SYSCALL         CY_IPC_CHAN_SYSCALL_CM4
 358:Generated_Source\PSoC6\pdl\drivers\peripheral\ipc/cy_ipc_drv.h **** #endif  /* (CY_CPU_CORTEX_M0P) */
 359:Generated_Source\PSoC6\pdl\drivers\peripheral\ipc/cy_ipc_drv.h **** /** \endcond */
 360:Generated_Source\PSoC6\pdl\drivers\peripheral\ipc/cy_ipc_drv.h **** 
 361:Generated_Source\PSoC6\pdl\drivers\peripheral\ipc/cy_ipc_drv.h **** /**
 362:Generated_Source\PSoC6\pdl\drivers\peripheral\ipc/cy_ipc_drv.h **** * \addtogroup group_ipc_enums
 363:Generated_Source\PSoC6\pdl\drivers\peripheral\ipc/cy_ipc_drv.h **** * \{
 364:Generated_Source\PSoC6\pdl\drivers\peripheral\ipc/cy_ipc_drv.h **** */
 365:Generated_Source\PSoC6\pdl\drivers\peripheral\ipc/cy_ipc_drv.h **** 
ARM GAS  C:\Users\Rolf\AppData\Local\Temp\ccDBBlzw.s 			page 9


 366:Generated_Source\PSoC6\pdl\drivers\peripheral\ipc/cy_ipc_drv.h **** /**
 367:Generated_Source\PSoC6\pdl\drivers\peripheral\ipc/cy_ipc_drv.h **** * This is a list of ENUMs used for function return status.
 368:Generated_Source\PSoC6\pdl\drivers\peripheral\ipc/cy_ipc_drv.h **** */
 369:Generated_Source\PSoC6\pdl\drivers\peripheral\ipc/cy_ipc_drv.h **** typedef enum
 370:Generated_Source\PSoC6\pdl\drivers\peripheral\ipc/cy_ipc_drv.h **** {
 371:Generated_Source\PSoC6\pdl\drivers\peripheral\ipc/cy_ipc_drv.h ****     /** Function was successfully executed */
 372:Generated_Source\PSoC6\pdl\drivers\peripheral\ipc/cy_ipc_drv.h ****     CY_IPC_DRV_SUCCESS      = (0x00u),
 373:Generated_Source\PSoC6\pdl\drivers\peripheral\ipc/cy_ipc_drv.h ****     /** Function was not executed due to an error.
 374:Generated_Source\PSoC6\pdl\drivers\peripheral\ipc/cy_ipc_drv.h ****         Typical conditions for the error explained
 375:Generated_Source\PSoC6\pdl\drivers\peripheral\ipc/cy_ipc_drv.h ****         in the function description */
 376:Generated_Source\PSoC6\pdl\drivers\peripheral\ipc/cy_ipc_drv.h ****     CY_IPC_DRV_ERROR        = ( CY_IPC_ID_ERROR + 1ul),
 377:Generated_Source\PSoC6\pdl\drivers\peripheral\ipc/cy_ipc_drv.h **** } cy_en_ipcdrv_status_t;
 378:Generated_Source\PSoC6\pdl\drivers\peripheral\ipc/cy_ipc_drv.h **** 
 379:Generated_Source\PSoC6\pdl\drivers\peripheral\ipc/cy_ipc_drv.h **** /** \} group_ipc_enums */
 380:Generated_Source\PSoC6\pdl\drivers\peripheral\ipc/cy_ipc_drv.h **** 
 381:Generated_Source\PSoC6\pdl\drivers\peripheral\ipc/cy_ipc_drv.h **** 
 382:Generated_Source\PSoC6\pdl\drivers\peripheral\ipc/cy_ipc_drv.h **** #ifdef __cplusplus
 383:Generated_Source\PSoC6\pdl\drivers\peripheral\ipc/cy_ipc_drv.h **** extern "C" {
 384:Generated_Source\PSoC6\pdl\drivers\peripheral\ipc/cy_ipc_drv.h **** #endif
 385:Generated_Source\PSoC6\pdl\drivers\peripheral\ipc/cy_ipc_drv.h **** 
 386:Generated_Source\PSoC6\pdl\drivers\peripheral\ipc/cy_ipc_drv.h **** /** \cond INTERNAL */
 387:Generated_Source\PSoC6\pdl\drivers\peripheral\ipc/cy_ipc_drv.h **** 
 388:Generated_Source\PSoC6\pdl\drivers\peripheral\ipc/cy_ipc_drv.h **** __STATIC_INLINE void     Cy_IPC_Drv_WriteDataValue (IPC_STRUCT_Type* base, uint32_t dataValue);
 389:Generated_Source\PSoC6\pdl\drivers\peripheral\ipc/cy_ipc_drv.h **** __STATIC_INLINE uint32_t Cy_IPC_Drv_ReadDataValue (IPC_STRUCT_Type const * base);
 390:Generated_Source\PSoC6\pdl\drivers\peripheral\ipc/cy_ipc_drv.h **** 
 391:Generated_Source\PSoC6\pdl\drivers\peripheral\ipc/cy_ipc_drv.h **** __STATIC_INLINE uint32_t Cy_IPC_Drv_ExtractAcquireMask (uint32_t intMask);
 392:Generated_Source\PSoC6\pdl\drivers\peripheral\ipc/cy_ipc_drv.h **** __STATIC_INLINE uint32_t Cy_IPC_Drv_ExtractReleaseMask (uint32_t intMask);
 393:Generated_Source\PSoC6\pdl\drivers\peripheral\ipc/cy_ipc_drv.h **** 
 394:Generated_Source\PSoC6\pdl\drivers\peripheral\ipc/cy_ipc_drv.h **** /** \endcond */
 395:Generated_Source\PSoC6\pdl\drivers\peripheral\ipc/cy_ipc_drv.h **** 
 396:Generated_Source\PSoC6\pdl\drivers\peripheral\ipc/cy_ipc_drv.h **** /**
 397:Generated_Source\PSoC6\pdl\drivers\peripheral\ipc/cy_ipc_drv.h **** * \addtogroup group_ipc_functions
 398:Generated_Source\PSoC6\pdl\drivers\peripheral\ipc/cy_ipc_drv.h **** * \{
 399:Generated_Source\PSoC6\pdl\drivers\peripheral\ipc/cy_ipc_drv.h **** */
 400:Generated_Source\PSoC6\pdl\drivers\peripheral\ipc/cy_ipc_drv.h **** 
 401:Generated_Source\PSoC6\pdl\drivers\peripheral\ipc/cy_ipc_drv.h **** __STATIC_INLINE IPC_STRUCT_Type*       Cy_IPC_Drv_GetIpcBaseAddress (uint32_t ipcIndex);
 402:Generated_Source\PSoC6\pdl\drivers\peripheral\ipc/cy_ipc_drv.h **** __STATIC_INLINE IPC_INTR_STRUCT_Type*  Cy_IPC_Drv_GetIntrBaseAddr (uint32_t ipcIntrIndex);
 403:Generated_Source\PSoC6\pdl\drivers\peripheral\ipc/cy_ipc_drv.h **** 
 404:Generated_Source\PSoC6\pdl\drivers\peripheral\ipc/cy_ipc_drv.h **** __STATIC_INLINE void     Cy_IPC_Drv_AcquireNotify (IPC_STRUCT_Type * base, uint32_t notifyEventIntr
 405:Generated_Source\PSoC6\pdl\drivers\peripheral\ipc/cy_ipc_drv.h **** __STATIC_INLINE void     Cy_IPC_Drv_ReleaseNotify (IPC_STRUCT_Type * base, uint32_t notifyEventIntr
 406:Generated_Source\PSoC6\pdl\drivers\peripheral\ipc/cy_ipc_drv.h **** 
 407:Generated_Source\PSoC6\pdl\drivers\peripheral\ipc/cy_ipc_drv.h **** __STATIC_INLINE  cy_en_ipcdrv_status_t Cy_IPC_Drv_LockAcquire (IPC_STRUCT_Type const * base);
 408:Generated_Source\PSoC6\pdl\drivers\peripheral\ipc/cy_ipc_drv.h **** cy_en_ipcdrv_status_t    Cy_IPC_Drv_LockRelease (IPC_STRUCT_Type * base, uint32_t releaseEventIntr)
 409:Generated_Source\PSoC6\pdl\drivers\peripheral\ipc/cy_ipc_drv.h **** __STATIC_INLINE bool     Cy_IPC_Drv_IsLockAcquired (IPC_STRUCT_Type const * base);
 410:Generated_Source\PSoC6\pdl\drivers\peripheral\ipc/cy_ipc_drv.h **** __STATIC_INLINE uint32_t Cy_IPC_Drv_GetLockStatus (IPC_STRUCT_Type const * base);
 411:Generated_Source\PSoC6\pdl\drivers\peripheral\ipc/cy_ipc_drv.h **** 
 412:Generated_Source\PSoC6\pdl\drivers\peripheral\ipc/cy_ipc_drv.h **** cy_en_ipcdrv_status_t    Cy_IPC_Drv_SendMsgWord (IPC_STRUCT_Type * base, uint32_t notifyEventIntr, 
 413:Generated_Source\PSoC6\pdl\drivers\peripheral\ipc/cy_ipc_drv.h **** cy_en_ipcdrv_status_t    Cy_IPC_Drv_ReadMsgWord (IPC_STRUCT_Type const * base, uint32_t * message);
 414:Generated_Source\PSoC6\pdl\drivers\peripheral\ipc/cy_ipc_drv.h **** __STATIC_INLINE cy_en_ipcdrv_status_t Cy_IPC_Drv_SendMsgPtr (IPC_STRUCT_Type* base, uint32_t notify
 415:Generated_Source\PSoC6\pdl\drivers\peripheral\ipc/cy_ipc_drv.h **** __STATIC_INLINE cy_en_ipcdrv_status_t Cy_IPC_Drv_ReadMsgPtr (IPC_STRUCT_Type const * base, void ** 
 416:Generated_Source\PSoC6\pdl\drivers\peripheral\ipc/cy_ipc_drv.h **** 
 417:Generated_Source\PSoC6\pdl\drivers\peripheral\ipc/cy_ipc_drv.h **** __STATIC_INLINE void     Cy_IPC_Drv_SetInterruptMask (IPC_INTR_STRUCT_Type * base,
 418:Generated_Source\PSoC6\pdl\drivers\peripheral\ipc/cy_ipc_drv.h ****                                                       uint32_t ipcReleaseMask, uint32_t ipcAcquireM
 419:Generated_Source\PSoC6\pdl\drivers\peripheral\ipc/cy_ipc_drv.h **** __STATIC_INLINE uint32_t Cy_IPC_Drv_GetInterruptMask (IPC_INTR_STRUCT_Type const * base);
 420:Generated_Source\PSoC6\pdl\drivers\peripheral\ipc/cy_ipc_drv.h **** __STATIC_INLINE uint32_t Cy_IPC_Drv_GetInterruptStatusMasked (IPC_INTR_STRUCT_Type const * base);
 421:Generated_Source\PSoC6\pdl\drivers\peripheral\ipc/cy_ipc_drv.h **** __STATIC_INLINE uint32_t Cy_IPC_Drv_GetInterruptStatus (IPC_INTR_STRUCT_Type const * base);
 422:Generated_Source\PSoC6\pdl\drivers\peripheral\ipc/cy_ipc_drv.h **** __STATIC_INLINE void     Cy_IPC_Drv_SetInterrupt (IPC_INTR_STRUCT_Type * base,
ARM GAS  C:\Users\Rolf\AppData\Local\Temp\ccDBBlzw.s 			page 10


 423:Generated_Source\PSoC6\pdl\drivers\peripheral\ipc/cy_ipc_drv.h ****                                                       uint32_t ipcReleaseMask, uint32_t ipcAcquireM
 424:Generated_Source\PSoC6\pdl\drivers\peripheral\ipc/cy_ipc_drv.h **** __STATIC_INLINE void     Cy_IPC_Drv_ClearInterrupt (IPC_INTR_STRUCT_Type * base,
 425:Generated_Source\PSoC6\pdl\drivers\peripheral\ipc/cy_ipc_drv.h ****                                                       uint32_t ipcReleaseMask, uint32_t ipcAcquireM
 426:Generated_Source\PSoC6\pdl\drivers\peripheral\ipc/cy_ipc_drv.h **** 
 427:Generated_Source\PSoC6\pdl\drivers\peripheral\ipc/cy_ipc_drv.h **** 
 428:Generated_Source\PSoC6\pdl\drivers\peripheral\ipc/cy_ipc_drv.h **** /*******************************************************************************
 429:Generated_Source\PSoC6\pdl\drivers\peripheral\ipc/cy_ipc_drv.h **** * Function Name: Cy_IPC_Drv_GetIpcBaseAddress
 430:Generated_Source\PSoC6\pdl\drivers\peripheral\ipc/cy_ipc_drv.h **** ****************************************************************************//**
 431:Generated_Source\PSoC6\pdl\drivers\peripheral\ipc/cy_ipc_drv.h **** *
 432:Generated_Source\PSoC6\pdl\drivers\peripheral\ipc/cy_ipc_drv.h **** * This function takes an IPC channel index as a parameter and returns the base
 433:Generated_Source\PSoC6\pdl\drivers\peripheral\ipc/cy_ipc_drv.h **** * address the IPC registers corresponding to the IPC channel.
 434:Generated_Source\PSoC6\pdl\drivers\peripheral\ipc/cy_ipc_drv.h **** *
 435:Generated_Source\PSoC6\pdl\drivers\peripheral\ipc/cy_ipc_drv.h **** * \note The user is responsible for ensuring that ipcIndex does not exceed the
 436:Generated_Source\PSoC6\pdl\drivers\peripheral\ipc/cy_ipc_drv.h **** * limits.
 437:Generated_Source\PSoC6\pdl\drivers\peripheral\ipc/cy_ipc_drv.h **** *
 438:Generated_Source\PSoC6\pdl\drivers\peripheral\ipc/cy_ipc_drv.h **** * \param ipcIndex
 439:Generated_Source\PSoC6\pdl\drivers\peripheral\ipc/cy_ipc_drv.h **** * Represents the number of IPC structure. This is converted to the base address of
 440:Generated_Source\PSoC6\pdl\drivers\peripheral\ipc/cy_ipc_drv.h **** * the IPC channel registers.
 441:Generated_Source\PSoC6\pdl\drivers\peripheral\ipc/cy_ipc_drv.h **** *
 442:Generated_Source\PSoC6\pdl\drivers\peripheral\ipc/cy_ipc_drv.h **** * \return
 443:Generated_Source\PSoC6\pdl\drivers\peripheral\ipc/cy_ipc_drv.h **** * Returns a pointer to the base of the IPC registers.
 444:Generated_Source\PSoC6\pdl\drivers\peripheral\ipc/cy_ipc_drv.h **** *
 445:Generated_Source\PSoC6\pdl\drivers\peripheral\ipc/cy_ipc_drv.h **** * \funcusage
 446:Generated_Source\PSoC6\pdl\drivers\peripheral\ipc/cy_ipc_drv.h **** * \snippet IPC_sut_01.cydsn/main_cm4.c snippet_Cy_IPC_Drv_SendMsgWord
 447:Generated_Source\PSoC6\pdl\drivers\peripheral\ipc/cy_ipc_drv.h **** *
 448:Generated_Source\PSoC6\pdl\drivers\peripheral\ipc/cy_ipc_drv.h **** *******************************************************************************/
 449:Generated_Source\PSoC6\pdl\drivers\peripheral\ipc/cy_ipc_drv.h **** __STATIC_INLINE IPC_STRUCT_Type* Cy_IPC_Drv_GetIpcBaseAddress (uint32_t ipcIndex)
 450:Generated_Source\PSoC6\pdl\drivers\peripheral\ipc/cy_ipc_drv.h **** {
 451:Generated_Source\PSoC6\pdl\drivers\peripheral\ipc/cy_ipc_drv.h ****     CY_ASSERT_L1(CY_IPC_CHANNELS > ipcIndex);
 452:Generated_Source\PSoC6\pdl\drivers\peripheral\ipc/cy_ipc_drv.h ****     return ( (IPC_STRUCT_Type*) CY_IPC_STRUCT_PTR(ipcIndex));
 453:Generated_Source\PSoC6\pdl\drivers\peripheral\ipc/cy_ipc_drv.h **** }
 454:Generated_Source\PSoC6\pdl\drivers\peripheral\ipc/cy_ipc_drv.h **** 
 455:Generated_Source\PSoC6\pdl\drivers\peripheral\ipc/cy_ipc_drv.h **** 
 456:Generated_Source\PSoC6\pdl\drivers\peripheral\ipc/cy_ipc_drv.h **** /*******************************************************************************
 457:Generated_Source\PSoC6\pdl\drivers\peripheral\ipc/cy_ipc_drv.h **** * Function Name: Cy_IPC_Drv_GetIntrBaseAddr
 458:Generated_Source\PSoC6\pdl\drivers\peripheral\ipc/cy_ipc_drv.h **** ****************************************************************************//**
 459:Generated_Source\PSoC6\pdl\drivers\peripheral\ipc/cy_ipc_drv.h **** *
 460:Generated_Source\PSoC6\pdl\drivers\peripheral\ipc/cy_ipc_drv.h **** * This function takes an IPC interrupt structure index and returns the base
 461:Generated_Source\PSoC6\pdl\drivers\peripheral\ipc/cy_ipc_drv.h **** * address of the IPC interrupt registers corresponding to the IPC Interrupt.
 462:Generated_Source\PSoC6\pdl\drivers\peripheral\ipc/cy_ipc_drv.h **** *
 463:Generated_Source\PSoC6\pdl\drivers\peripheral\ipc/cy_ipc_drv.h **** * \note The user is responsible for ensuring that ipcIntrIndex does not exceed the
 464:Generated_Source\PSoC6\pdl\drivers\peripheral\ipc/cy_ipc_drv.h **** * limits.
 465:Generated_Source\PSoC6\pdl\drivers\peripheral\ipc/cy_ipc_drv.h **** *
 466:Generated_Source\PSoC6\pdl\drivers\peripheral\ipc/cy_ipc_drv.h **** * \param ipcIntrIndex
 467:Generated_Source\PSoC6\pdl\drivers\peripheral\ipc/cy_ipc_drv.h **** * Represents the number of IPC interrupt structure. This is converted to the
 468:Generated_Source\PSoC6\pdl\drivers\peripheral\ipc/cy_ipc_drv.h **** * base address of the IPC interrupt registers.
 469:Generated_Source\PSoC6\pdl\drivers\peripheral\ipc/cy_ipc_drv.h **** *
 470:Generated_Source\PSoC6\pdl\drivers\peripheral\ipc/cy_ipc_drv.h **** * \return
 471:Generated_Source\PSoC6\pdl\drivers\peripheral\ipc/cy_ipc_drv.h **** * Returns a pointer to the base of the IPC interrupt registers.
 472:Generated_Source\PSoC6\pdl\drivers\peripheral\ipc/cy_ipc_drv.h **** *
 473:Generated_Source\PSoC6\pdl\drivers\peripheral\ipc/cy_ipc_drv.h **** * \funcusage
 474:Generated_Source\PSoC6\pdl\drivers\peripheral\ipc/cy_ipc_drv.h **** * \snippet IPC_sut_01.cydsn/main_cm4.c snippet_Cy_IPC_Drv_GetInterruptStatus
 475:Generated_Source\PSoC6\pdl\drivers\peripheral\ipc/cy_ipc_drv.h **** *
 476:Generated_Source\PSoC6\pdl\drivers\peripheral\ipc/cy_ipc_drv.h **** *******************************************************************************/
 477:Generated_Source\PSoC6\pdl\drivers\peripheral\ipc/cy_ipc_drv.h **** __STATIC_INLINE IPC_INTR_STRUCT_Type* Cy_IPC_Drv_GetIntrBaseAddr (uint32_t ipcIntrIndex)
 478:Generated_Source\PSoC6\pdl\drivers\peripheral\ipc/cy_ipc_drv.h **** {
 479:Generated_Source\PSoC6\pdl\drivers\peripheral\ipc/cy_ipc_drv.h ****     CY_ASSERT_L1(CY_IPC_INTERRUPTS > ipcIntrIndex);
ARM GAS  C:\Users\Rolf\AppData\Local\Temp\ccDBBlzw.s 			page 11


 480:Generated_Source\PSoC6\pdl\drivers\peripheral\ipc/cy_ipc_drv.h ****     return ( (IPC_INTR_STRUCT_Type*) &(((IPC_Type *)cy_device->ipcBase)->INTR_STRUCT[ipcIntrIndex])
 481:Generated_Source\PSoC6\pdl\drivers\peripheral\ipc/cy_ipc_drv.h **** }
 482:Generated_Source\PSoC6\pdl\drivers\peripheral\ipc/cy_ipc_drv.h **** 
 483:Generated_Source\PSoC6\pdl\drivers\peripheral\ipc/cy_ipc_drv.h **** 
 484:Generated_Source\PSoC6\pdl\drivers\peripheral\ipc/cy_ipc_drv.h **** /*******************************************************************************
 485:Generated_Source\PSoC6\pdl\drivers\peripheral\ipc/cy_ipc_drv.h **** * Function Name: Cy_IPC_Drv_SetInterruptMask
 486:Generated_Source\PSoC6\pdl\drivers\peripheral\ipc/cy_ipc_drv.h **** ****************************************************************************//**
 487:Generated_Source\PSoC6\pdl\drivers\peripheral\ipc/cy_ipc_drv.h **** *
 488:Generated_Source\PSoC6\pdl\drivers\peripheral\ipc/cy_ipc_drv.h **** * This function is used to set the interrupt mask for an IPC Interrupt.
 489:Generated_Source\PSoC6\pdl\drivers\peripheral\ipc/cy_ipc_drv.h **** * The mask sets release or acquire notification events for all IPC channels.
 490:Generated_Source\PSoC6\pdl\drivers\peripheral\ipc/cy_ipc_drv.h **** *
 491:Generated_Source\PSoC6\pdl\drivers\peripheral\ipc/cy_ipc_drv.h **** * \param base
 492:Generated_Source\PSoC6\pdl\drivers\peripheral\ipc/cy_ipc_drv.h **** * This is a handle to the IPC interrupt. This handle can be calculated from the
 493:Generated_Source\PSoC6\pdl\drivers\peripheral\ipc/cy_ipc_drv.h **** * IPC interrupt number using \ref Cy_IPC_Drv_GetIntrBaseAddr.
 494:Generated_Source\PSoC6\pdl\drivers\peripheral\ipc/cy_ipc_drv.h **** *
 495:Generated_Source\PSoC6\pdl\drivers\peripheral\ipc/cy_ipc_drv.h **** * \param ipcReleaseMask
 496:Generated_Source\PSoC6\pdl\drivers\peripheral\ipc/cy_ipc_drv.h **** * An encoded list of all IPC channels that can trigger the interrupt on a
 497:Generated_Source\PSoC6\pdl\drivers\peripheral\ipc/cy_ipc_drv.h **** * release event.
 498:Generated_Source\PSoC6\pdl\drivers\peripheral\ipc/cy_ipc_drv.h **** *
 499:Generated_Source\PSoC6\pdl\drivers\peripheral\ipc/cy_ipc_drv.h **** * \param ipcAcquireMask
 500:Generated_Source\PSoC6\pdl\drivers\peripheral\ipc/cy_ipc_drv.h **** * An encoded list of all IPC channels that can trigger the interrupt on a
 501:Generated_Source\PSoC6\pdl\drivers\peripheral\ipc/cy_ipc_drv.h **** * notify event.
 502:Generated_Source\PSoC6\pdl\drivers\peripheral\ipc/cy_ipc_drv.h **** *
 503:Generated_Source\PSoC6\pdl\drivers\peripheral\ipc/cy_ipc_drv.h **** * \funcusage
 504:Generated_Source\PSoC6\pdl\drivers\peripheral\ipc/cy_ipc_drv.h **** * \snippet IPC_sut_01.cydsn/main_cm4.c snippet_Cy_IPC_Drv_GetInterruptStatusMasked
 505:Generated_Source\PSoC6\pdl\drivers\peripheral\ipc/cy_ipc_drv.h **** *
 506:Generated_Source\PSoC6\pdl\drivers\peripheral\ipc/cy_ipc_drv.h **** *******************************************************************************/
 507:Generated_Source\PSoC6\pdl\drivers\peripheral\ipc/cy_ipc_drv.h **** __STATIC_INLINE void  Cy_IPC_Drv_SetInterruptMask (IPC_INTR_STRUCT_Type* base,
 508:Generated_Source\PSoC6\pdl\drivers\peripheral\ipc/cy_ipc_drv.h ****                                               uint32_t ipcReleaseMask, uint32_t ipcAcquireMask)
 509:Generated_Source\PSoC6\pdl\drivers\peripheral\ipc/cy_ipc_drv.h **** {
 510:Generated_Source\PSoC6\pdl\drivers\peripheral\ipc/cy_ipc_drv.h ****     CY_ASSERT_L1(0ul == (ipcAcquireMask & ~(uint32_t)(IPC_STRUCT_NOTIFY_INTR_NOTIFY_Msk)));
 511:Generated_Source\PSoC6\pdl\drivers\peripheral\ipc/cy_ipc_drv.h ****     CY_ASSERT_L1(0ul == (ipcReleaseMask & ~(uint32_t)(IPC_STRUCT_RELEASE_INTR_RELEASE_Msk)));
 512:Generated_Source\PSoC6\pdl\drivers\peripheral\ipc/cy_ipc_drv.h ****     REG_IPC_INTR_STRUCT_INTR_MASK(base) = _VAL2FLD( IPC_INTR_STRUCT_INTR_MASK_NOTIFY,  ipcAcquireMa
 513:Generated_Source\PSoC6\pdl\drivers\peripheral\ipc/cy_ipc_drv.h ****                       _VAL2FLD( IPC_INTR_STRUCT_INTR_MASK_RELEASE, ipcReleaseMask);
 514:Generated_Source\PSoC6\pdl\drivers\peripheral\ipc/cy_ipc_drv.h **** }
 515:Generated_Source\PSoC6\pdl\drivers\peripheral\ipc/cy_ipc_drv.h **** 
 516:Generated_Source\PSoC6\pdl\drivers\peripheral\ipc/cy_ipc_drv.h **** 
 517:Generated_Source\PSoC6\pdl\drivers\peripheral\ipc/cy_ipc_drv.h **** /*******************************************************************************
 518:Generated_Source\PSoC6\pdl\drivers\peripheral\ipc/cy_ipc_drv.h **** * Function Name: Cy_IPC_Drv_GetInterruptMask
 519:Generated_Source\PSoC6\pdl\drivers\peripheral\ipc/cy_ipc_drv.h **** ****************************************************************************//**
 520:Generated_Source\PSoC6\pdl\drivers\peripheral\ipc/cy_ipc_drv.h **** *
 521:Generated_Source\PSoC6\pdl\drivers\peripheral\ipc/cy_ipc_drv.h **** * This function is used to read the interrupt mask.
 522:Generated_Source\PSoC6\pdl\drivers\peripheral\ipc/cy_ipc_drv.h **** *
 523:Generated_Source\PSoC6\pdl\drivers\peripheral\ipc/cy_ipc_drv.h **** * \param base
 524:Generated_Source\PSoC6\pdl\drivers\peripheral\ipc/cy_ipc_drv.h **** * This is a handle to the IPC interrupt. This handle can be calculated from
 525:Generated_Source\PSoC6\pdl\drivers\peripheral\ipc/cy_ipc_drv.h **** * the IPC interrupt number using \ref Cy_IPC_Drv_GetIntrBaseAddr.
 526:Generated_Source\PSoC6\pdl\drivers\peripheral\ipc/cy_ipc_drv.h **** *
 527:Generated_Source\PSoC6\pdl\drivers\peripheral\ipc/cy_ipc_drv.h **** * \return
 528:Generated_Source\PSoC6\pdl\drivers\peripheral\ipc/cy_ipc_drv.h **** *   The return value is encoded as follows
 529:Generated_Source\PSoC6\pdl\drivers\peripheral\ipc/cy_ipc_drv.h **** *   <table>
 530:Generated_Source\PSoC6\pdl\drivers\peripheral\ipc/cy_ipc_drv.h **** *   <tr><th>Interrupt sources   <th>Value
 531:Generated_Source\PSoC6\pdl\drivers\peripheral\ipc/cy_ipc_drv.h **** *   <tr><td>Ipc_PORTX_RELEASE   <td>Xth bit set
 532:Generated_Source\PSoC6\pdl\drivers\peripheral\ipc/cy_ipc_drv.h **** *   <tr><td>Ipc_PORTX_NOTIFY    <td>X+16th bit set
 533:Generated_Source\PSoC6\pdl\drivers\peripheral\ipc/cy_ipc_drv.h **** *   </table>
 534:Generated_Source\PSoC6\pdl\drivers\peripheral\ipc/cy_ipc_drv.h **** *
 535:Generated_Source\PSoC6\pdl\drivers\peripheral\ipc/cy_ipc_drv.h **** * \funcusage
 536:Generated_Source\PSoC6\pdl\drivers\peripheral\ipc/cy_ipc_drv.h **** * \snippet IPC_sut_01.cydsn/main_cm4.c snippet_Cy_IPC_Drv_GetInterruptStatusMasked
ARM GAS  C:\Users\Rolf\AppData\Local\Temp\ccDBBlzw.s 			page 12


 537:Generated_Source\PSoC6\pdl\drivers\peripheral\ipc/cy_ipc_drv.h **** *
 538:Generated_Source\PSoC6\pdl\drivers\peripheral\ipc/cy_ipc_drv.h **** *******************************************************************************/
 539:Generated_Source\PSoC6\pdl\drivers\peripheral\ipc/cy_ipc_drv.h **** __STATIC_INLINE uint32_t Cy_IPC_Drv_GetInterruptMask(IPC_INTR_STRUCT_Type const * base)
 540:Generated_Source\PSoC6\pdl\drivers\peripheral\ipc/cy_ipc_drv.h **** {
 541:Generated_Source\PSoC6\pdl\drivers\peripheral\ipc/cy_ipc_drv.h ****     return REG_IPC_INTR_STRUCT_INTR_MASK(base);
 542:Generated_Source\PSoC6\pdl\drivers\peripheral\ipc/cy_ipc_drv.h **** }
 543:Generated_Source\PSoC6\pdl\drivers\peripheral\ipc/cy_ipc_drv.h **** 
 544:Generated_Source\PSoC6\pdl\drivers\peripheral\ipc/cy_ipc_drv.h **** 
 545:Generated_Source\PSoC6\pdl\drivers\peripheral\ipc/cy_ipc_drv.h **** /*******************************************************************************
 546:Generated_Source\PSoC6\pdl\drivers\peripheral\ipc/cy_ipc_drv.h **** * Function Name: Cy_IPC_Drv_GetInterruptStatusMasked
 547:Generated_Source\PSoC6\pdl\drivers\peripheral\ipc/cy_ipc_drv.h **** ****************************************************************************//**
 548:Generated_Source\PSoC6\pdl\drivers\peripheral\ipc/cy_ipc_drv.h **** *
 549:Generated_Source\PSoC6\pdl\drivers\peripheral\ipc/cy_ipc_drv.h **** * This function is used to read the active unmasked interrupt. This function
 550:Generated_Source\PSoC6\pdl\drivers\peripheral\ipc/cy_ipc_drv.h **** * can be used in the interrupt service routine to find which source triggered
 551:Generated_Source\PSoC6\pdl\drivers\peripheral\ipc/cy_ipc_drv.h **** * the interrupt.
 552:Generated_Source\PSoC6\pdl\drivers\peripheral\ipc/cy_ipc_drv.h **** *
 553:Generated_Source\PSoC6\pdl\drivers\peripheral\ipc/cy_ipc_drv.h **** * \param base
 554:Generated_Source\PSoC6\pdl\drivers\peripheral\ipc/cy_ipc_drv.h **** * This is a handle to the IPC interrupt. This handle can be calculated from the
 555:Generated_Source\PSoC6\pdl\drivers\peripheral\ipc/cy_ipc_drv.h **** * IPC interrupt number using \ref Cy_IPC_Drv_GetIntrBaseAddr.
 556:Generated_Source\PSoC6\pdl\drivers\peripheral\ipc/cy_ipc_drv.h **** *
 557:Generated_Source\PSoC6\pdl\drivers\peripheral\ipc/cy_ipc_drv.h **** * \return
 558:Generated_Source\PSoC6\pdl\drivers\peripheral\ipc/cy_ipc_drv.h **** *   The return value is encoded as follows
 559:Generated_Source\PSoC6\pdl\drivers\peripheral\ipc/cy_ipc_drv.h **** *   <table>
 560:Generated_Source\PSoC6\pdl\drivers\peripheral\ipc/cy_ipc_drv.h **** *   <tr><th>Interrupt sources   <th>Value
 561:Generated_Source\PSoC6\pdl\drivers\peripheral\ipc/cy_ipc_drv.h **** *   <tr><td>Ipc_PORTX_RELEASE   <td>Xth bit set
 562:Generated_Source\PSoC6\pdl\drivers\peripheral\ipc/cy_ipc_drv.h **** *   <tr><td>Ipc_PORTX_NOTIFY    <td>X+16th bit set
 563:Generated_Source\PSoC6\pdl\drivers\peripheral\ipc/cy_ipc_drv.h **** *   </table>
 564:Generated_Source\PSoC6\pdl\drivers\peripheral\ipc/cy_ipc_drv.h **** *
 565:Generated_Source\PSoC6\pdl\drivers\peripheral\ipc/cy_ipc_drv.h **** * \funcusage
 566:Generated_Source\PSoC6\pdl\drivers\peripheral\ipc/cy_ipc_drv.h **** * \snippet IPC_sut_01.cydsn/main_cm4.c snippet_Cy_IPC_Drv_GetInterruptStatusMasked
 567:Generated_Source\PSoC6\pdl\drivers\peripheral\ipc/cy_ipc_drv.h **** *
 568:Generated_Source\PSoC6\pdl\drivers\peripheral\ipc/cy_ipc_drv.h **** *******************************************************************************/
 569:Generated_Source\PSoC6\pdl\drivers\peripheral\ipc/cy_ipc_drv.h **** __STATIC_INLINE uint32_t Cy_IPC_Drv_GetInterruptStatusMasked (IPC_INTR_STRUCT_Type const * base)
 570:Generated_Source\PSoC6\pdl\drivers\peripheral\ipc/cy_ipc_drv.h **** {
 571:Generated_Source\PSoC6\pdl\drivers\peripheral\ipc/cy_ipc_drv.h ****     return REG_IPC_INTR_STRUCT_INTR_MASKED(base);
 572:Generated_Source\PSoC6\pdl\drivers\peripheral\ipc/cy_ipc_drv.h **** }
 573:Generated_Source\PSoC6\pdl\drivers\peripheral\ipc/cy_ipc_drv.h **** 
 574:Generated_Source\PSoC6\pdl\drivers\peripheral\ipc/cy_ipc_drv.h **** 
 575:Generated_Source\PSoC6\pdl\drivers\peripheral\ipc/cy_ipc_drv.h **** /*******************************************************************************
 576:Generated_Source\PSoC6\pdl\drivers\peripheral\ipc/cy_ipc_drv.h **** * Function Name: Cy_IPC_Drv_GetInterruptStatus
 577:Generated_Source\PSoC6\pdl\drivers\peripheral\ipc/cy_ipc_drv.h **** ****************************************************************************//**
 578:Generated_Source\PSoC6\pdl\drivers\peripheral\ipc/cy_ipc_drv.h **** *
 579:Generated_Source\PSoC6\pdl\drivers\peripheral\ipc/cy_ipc_drv.h **** * This function is used to read the pending interrupts. Note that this read is
 580:Generated_Source\PSoC6\pdl\drivers\peripheral\ipc/cy_ipc_drv.h **** * an unmasked read of the interrupt status. Interrupt sources read as active by
 581:Generated_Source\PSoC6\pdl\drivers\peripheral\ipc/cy_ipc_drv.h **** * this function would generate interrupts only if they were not masked.
 582:Generated_Source\PSoC6\pdl\drivers\peripheral\ipc/cy_ipc_drv.h **** *
 583:Generated_Source\PSoC6\pdl\drivers\peripheral\ipc/cy_ipc_drv.h **** * \param base
 584:Generated_Source\PSoC6\pdl\drivers\peripheral\ipc/cy_ipc_drv.h **** * This is a handle to the IPC interrupt. This handle can be calculated from the
 585:Generated_Source\PSoC6\pdl\drivers\peripheral\ipc/cy_ipc_drv.h **** * IPC interrupt number using \ref Cy_IPC_Drv_GetIntrBaseAddr.
 586:Generated_Source\PSoC6\pdl\drivers\peripheral\ipc/cy_ipc_drv.h **** *
 587:Generated_Source\PSoC6\pdl\drivers\peripheral\ipc/cy_ipc_drv.h **** * \return
 588:Generated_Source\PSoC6\pdl\drivers\peripheral\ipc/cy_ipc_drv.h **** *   The return value is encoded as follows
 589:Generated_Source\PSoC6\pdl\drivers\peripheral\ipc/cy_ipc_drv.h **** *   <table>
 590:Generated_Source\PSoC6\pdl\drivers\peripheral\ipc/cy_ipc_drv.h **** *   <tr><th>Interrupt sources   <th>Value
 591:Generated_Source\PSoC6\pdl\drivers\peripheral\ipc/cy_ipc_drv.h **** *   <tr><td>Ipc_PORTX_RELEASE   <td>Xth bit set
 592:Generated_Source\PSoC6\pdl\drivers\peripheral\ipc/cy_ipc_drv.h **** *   <tr><td>Ipc_PORTX_NOTIFY    <td>X+16th bit set
 593:Generated_Source\PSoC6\pdl\drivers\peripheral\ipc/cy_ipc_drv.h **** *   </table>
ARM GAS  C:\Users\Rolf\AppData\Local\Temp\ccDBBlzw.s 			page 13


 594:Generated_Source\PSoC6\pdl\drivers\peripheral\ipc/cy_ipc_drv.h **** *
 595:Generated_Source\PSoC6\pdl\drivers\peripheral\ipc/cy_ipc_drv.h **** * \funcusage
 596:Generated_Source\PSoC6\pdl\drivers\peripheral\ipc/cy_ipc_drv.h **** * \snippet IPC_sut_01.cydsn/main_cm4.c snippet_Cy_IPC_Drv_GetInterruptStatus
 597:Generated_Source\PSoC6\pdl\drivers\peripheral\ipc/cy_ipc_drv.h **** *
 598:Generated_Source\PSoC6\pdl\drivers\peripheral\ipc/cy_ipc_drv.h **** *******************************************************************************/
 599:Generated_Source\PSoC6\pdl\drivers\peripheral\ipc/cy_ipc_drv.h **** __STATIC_INLINE uint32_t Cy_IPC_Drv_GetInterruptStatus(IPC_INTR_STRUCT_Type const * base)
 600:Generated_Source\PSoC6\pdl\drivers\peripheral\ipc/cy_ipc_drv.h **** {
 601:Generated_Source\PSoC6\pdl\drivers\peripheral\ipc/cy_ipc_drv.h ****     return REG_IPC_INTR_STRUCT_INTR(base);
 602:Generated_Source\PSoC6\pdl\drivers\peripheral\ipc/cy_ipc_drv.h **** }
 603:Generated_Source\PSoC6\pdl\drivers\peripheral\ipc/cy_ipc_drv.h **** 
 604:Generated_Source\PSoC6\pdl\drivers\peripheral\ipc/cy_ipc_drv.h **** 
 605:Generated_Source\PSoC6\pdl\drivers\peripheral\ipc/cy_ipc_drv.h **** /*******************************************************************************
 606:Generated_Source\PSoC6\pdl\drivers\peripheral\ipc/cy_ipc_drv.h **** * Function Name: Cy_IPC_Drv_SetInterrupt
 607:Generated_Source\PSoC6\pdl\drivers\peripheral\ipc/cy_ipc_drv.h **** ****************************************************************************//**
 608:Generated_Source\PSoC6\pdl\drivers\peripheral\ipc/cy_ipc_drv.h **** *
 609:Generated_Source\PSoC6\pdl\drivers\peripheral\ipc/cy_ipc_drv.h **** * This function is used to set the interrupt source. This function can be used
 610:Generated_Source\PSoC6\pdl\drivers\peripheral\ipc/cy_ipc_drv.h **** * to activate interrupts through software.
 611:Generated_Source\PSoC6\pdl\drivers\peripheral\ipc/cy_ipc_drv.h **** * \note That interrupt sources set using this interrupt would generate interrupts
 612:Generated_Source\PSoC6\pdl\drivers\peripheral\ipc/cy_ipc_drv.h **** * only if they are not masked.
 613:Generated_Source\PSoC6\pdl\drivers\peripheral\ipc/cy_ipc_drv.h **** *
 614:Generated_Source\PSoC6\pdl\drivers\peripheral\ipc/cy_ipc_drv.h **** * \param base
 615:Generated_Source\PSoC6\pdl\drivers\peripheral\ipc/cy_ipc_drv.h **** * This is a handle to the IPC interrupt. This handle can be calculated from the
 616:Generated_Source\PSoC6\pdl\drivers\peripheral\ipc/cy_ipc_drv.h **** * IPC interrupt number using \ref Cy_IPC_Drv_GetIntrBaseAddr.
 617:Generated_Source\PSoC6\pdl\drivers\peripheral\ipc/cy_ipc_drv.h **** *
 618:Generated_Source\PSoC6\pdl\drivers\peripheral\ipc/cy_ipc_drv.h **** * \param ipcReleaseMask
 619:Generated_Source\PSoC6\pdl\drivers\peripheral\ipc/cy_ipc_drv.h **** * An encoded list of all IPC channels that can trigger the interrupt on a
 620:Generated_Source\PSoC6\pdl\drivers\peripheral\ipc/cy_ipc_drv.h **** * release event.
 621:Generated_Source\PSoC6\pdl\drivers\peripheral\ipc/cy_ipc_drv.h **** *
 622:Generated_Source\PSoC6\pdl\drivers\peripheral\ipc/cy_ipc_drv.h **** * \param ipcAcquireMask
 623:Generated_Source\PSoC6\pdl\drivers\peripheral\ipc/cy_ipc_drv.h **** * An encoded list of all IPC channels that can trigger the interrupt on a
 624:Generated_Source\PSoC6\pdl\drivers\peripheral\ipc/cy_ipc_drv.h **** * notify event.
 625:Generated_Source\PSoC6\pdl\drivers\peripheral\ipc/cy_ipc_drv.h **** *
 626:Generated_Source\PSoC6\pdl\drivers\peripheral\ipc/cy_ipc_drv.h **** * \funcusage
 627:Generated_Source\PSoC6\pdl\drivers\peripheral\ipc/cy_ipc_drv.h **** * \snippet IPC_sut_01.cydsn/main_cm4.c snippet_Cy_IPC_Drv_SetInterrupt
 628:Generated_Source\PSoC6\pdl\drivers\peripheral\ipc/cy_ipc_drv.h **** *
 629:Generated_Source\PSoC6\pdl\drivers\peripheral\ipc/cy_ipc_drv.h **** *******************************************************************************/
 630:Generated_Source\PSoC6\pdl\drivers\peripheral\ipc/cy_ipc_drv.h **** __STATIC_INLINE void  Cy_IPC_Drv_SetInterrupt(IPC_INTR_STRUCT_Type* base, uint32_t ipcReleaseMask, 
 631:Generated_Source\PSoC6\pdl\drivers\peripheral\ipc/cy_ipc_drv.h **** {
 632:Generated_Source\PSoC6\pdl\drivers\peripheral\ipc/cy_ipc_drv.h ****     CY_ASSERT_L1(0ul == (ipcAcquireMask  & ~(uint32_t)(IPC_STRUCT_NOTIFY_INTR_NOTIFY_Msk)));
 633:Generated_Source\PSoC6\pdl\drivers\peripheral\ipc/cy_ipc_drv.h ****     CY_ASSERT_L1(0ul == (ipcReleaseMask & ~(uint32_t)(IPC_STRUCT_RELEASE_INTR_RELEASE_Msk)));
 634:Generated_Source\PSoC6\pdl\drivers\peripheral\ipc/cy_ipc_drv.h ****     REG_IPC_INTR_STRUCT_INTR_SET(base) =  _VAL2FLD( IPC_INTR_STRUCT_INTR_NOTIFY,  ipcAcquireMask ) 
 635:Generated_Source\PSoC6\pdl\drivers\peripheral\ipc/cy_ipc_drv.h ****                       _VAL2FLD( IPC_INTR_STRUCT_INTR_RELEASE, ipcReleaseMask );
 636:Generated_Source\PSoC6\pdl\drivers\peripheral\ipc/cy_ipc_drv.h **** }
 637:Generated_Source\PSoC6\pdl\drivers\peripheral\ipc/cy_ipc_drv.h **** 
 638:Generated_Source\PSoC6\pdl\drivers\peripheral\ipc/cy_ipc_drv.h **** 
 639:Generated_Source\PSoC6\pdl\drivers\peripheral\ipc/cy_ipc_drv.h **** /*******************************************************************************
 640:Generated_Source\PSoC6\pdl\drivers\peripheral\ipc/cy_ipc_drv.h **** * Function Name: Cy_IPC_Drv_ClearInterrupt
 641:Generated_Source\PSoC6\pdl\drivers\peripheral\ipc/cy_ipc_drv.h **** ****************************************************************************//**
 642:Generated_Source\PSoC6\pdl\drivers\peripheral\ipc/cy_ipc_drv.h **** *
 643:Generated_Source\PSoC6\pdl\drivers\peripheral\ipc/cy_ipc_drv.h **** * This function is used to clear the interrupt source. Use this function to clear
 644:Generated_Source\PSoC6\pdl\drivers\peripheral\ipc/cy_ipc_drv.h **** * a pending interrupt source in the interrupt status.
 645:Generated_Source\PSoC6\pdl\drivers\peripheral\ipc/cy_ipc_drv.h **** *
 646:Generated_Source\PSoC6\pdl\drivers\peripheral\ipc/cy_ipc_drv.h **** * \param base
 647:Generated_Source\PSoC6\pdl\drivers\peripheral\ipc/cy_ipc_drv.h **** * This is a handle to the IPC interrupt. This handle can be calculated from the
 648:Generated_Source\PSoC6\pdl\drivers\peripheral\ipc/cy_ipc_drv.h **** * IPC interrupt number using \ref Cy_IPC_Drv_GetIntrBaseAddr.
 649:Generated_Source\PSoC6\pdl\drivers\peripheral\ipc/cy_ipc_drv.h **** *
 650:Generated_Source\PSoC6\pdl\drivers\peripheral\ipc/cy_ipc_drv.h **** * \param ipcReleaseMask
ARM GAS  C:\Users\Rolf\AppData\Local\Temp\ccDBBlzw.s 			page 14


 651:Generated_Source\PSoC6\pdl\drivers\peripheral\ipc/cy_ipc_drv.h **** * An encoded list of all IPC channels that can trigger the interrupt on a
 652:Generated_Source\PSoC6\pdl\drivers\peripheral\ipc/cy_ipc_drv.h **** * release event.
 653:Generated_Source\PSoC6\pdl\drivers\peripheral\ipc/cy_ipc_drv.h **** *
 654:Generated_Source\PSoC6\pdl\drivers\peripheral\ipc/cy_ipc_drv.h **** * \param ipcAcquireMask
 655:Generated_Source\PSoC6\pdl\drivers\peripheral\ipc/cy_ipc_drv.h **** * An encoded list of all IPC channels that can trigger the interrupt on a
 656:Generated_Source\PSoC6\pdl\drivers\peripheral\ipc/cy_ipc_drv.h **** * notify event.
 657:Generated_Source\PSoC6\pdl\drivers\peripheral\ipc/cy_ipc_drv.h **** *
 658:Generated_Source\PSoC6\pdl\drivers\peripheral\ipc/cy_ipc_drv.h **** * \funcusage
 659:Generated_Source\PSoC6\pdl\drivers\peripheral\ipc/cy_ipc_drv.h **** * \snippet IPC_sut_01.cydsn/main_cm4.c snippet_Cy_IPC_Drv_GetInterruptStatusMasked
 660:Generated_Source\PSoC6\pdl\drivers\peripheral\ipc/cy_ipc_drv.h **** *
 661:Generated_Source\PSoC6\pdl\drivers\peripheral\ipc/cy_ipc_drv.h **** *******************************************************************************/
 662:Generated_Source\PSoC6\pdl\drivers\peripheral\ipc/cy_ipc_drv.h **** __STATIC_INLINE void  Cy_IPC_Drv_ClearInterrupt(IPC_INTR_STRUCT_Type* base, uint32_t ipcReleaseMask
 663:Generated_Source\PSoC6\pdl\drivers\peripheral\ipc/cy_ipc_drv.h **** {
 664:Generated_Source\PSoC6\pdl\drivers\peripheral\ipc/cy_ipc_drv.h ****     CY_ASSERT_L1(0ul == (ipcAcquireMask  & ~(uint32_t)(IPC_STRUCT_NOTIFY_INTR_NOTIFY_Msk)));
 665:Generated_Source\PSoC6\pdl\drivers\peripheral\ipc/cy_ipc_drv.h ****     CY_ASSERT_L1(0ul == (ipcReleaseMask & ~(uint32_t)(IPC_STRUCT_RELEASE_INTR_RELEASE_Msk)));
 666:Generated_Source\PSoC6\pdl\drivers\peripheral\ipc/cy_ipc_drv.h ****     REG_IPC_INTR_STRUCT_INTR(base) =  _VAL2FLD(IPC_INTR_STRUCT_INTR_NOTIFY,  ipcAcquireMask) |
 667:Generated_Source\PSoC6\pdl\drivers\peripheral\ipc/cy_ipc_drv.h ****                   _VAL2FLD(IPC_INTR_STRUCT_INTR_RELEASE, ipcReleaseMask);
 668:Generated_Source\PSoC6\pdl\drivers\peripheral\ipc/cy_ipc_drv.h ****     (void)REG_IPC_INTR_STRUCT_INTR(base);  /* Read the register to flush the cache */
 669:Generated_Source\PSoC6\pdl\drivers\peripheral\ipc/cy_ipc_drv.h **** }
 670:Generated_Source\PSoC6\pdl\drivers\peripheral\ipc/cy_ipc_drv.h **** 
 671:Generated_Source\PSoC6\pdl\drivers\peripheral\ipc/cy_ipc_drv.h **** /** \} group_ipc_functions */
 672:Generated_Source\PSoC6\pdl\drivers\peripheral\ipc/cy_ipc_drv.h **** 
 673:Generated_Source\PSoC6\pdl\drivers\peripheral\ipc/cy_ipc_drv.h **** /** \} group_ipc */
 674:Generated_Source\PSoC6\pdl\drivers\peripheral\ipc/cy_ipc_drv.h **** 
 675:Generated_Source\PSoC6\pdl\drivers\peripheral\ipc/cy_ipc_drv.h **** 
 676:Generated_Source\PSoC6\pdl\drivers\peripheral\ipc/cy_ipc_drv.h **** /*******************************************************************************
 677:Generated_Source\PSoC6\pdl\drivers\peripheral\ipc/cy_ipc_drv.h **** * Function Name: Cy_IPC_Drv_AcquireNotify
 678:Generated_Source\PSoC6\pdl\drivers\peripheral\ipc/cy_ipc_drv.h **** ****************************************************************************//**
 679:Generated_Source\PSoC6\pdl\drivers\peripheral\ipc/cy_ipc_drv.h **** *
 680:Generated_Source\PSoC6\pdl\drivers\peripheral\ipc/cy_ipc_drv.h **** * The function generates a acquire notification event by IPC interrupt structure.
 681:Generated_Source\PSoC6\pdl\drivers\peripheral\ipc/cy_ipc_drv.h **** *
 682:Generated_Source\PSoC6\pdl\drivers\peripheral\ipc/cy_ipc_drv.h **** * \param base
 683:Generated_Source\PSoC6\pdl\drivers\peripheral\ipc/cy_ipc_drv.h **** * This parameter is a handle that represents the base address of the registers
 684:Generated_Source\PSoC6\pdl\drivers\peripheral\ipc/cy_ipc_drv.h **** * of the IPC channel.
 685:Generated_Source\PSoC6\pdl\drivers\peripheral\ipc/cy_ipc_drv.h **** * The parameter is generally returned from a call to the \ref
 686:Generated_Source\PSoC6\pdl\drivers\peripheral\ipc/cy_ipc_drv.h **** * Cy_IPC_Drv_GetIpcBaseAddress.
 687:Generated_Source\PSoC6\pdl\drivers\peripheral\ipc/cy_ipc_drv.h **** *
 688:Generated_Source\PSoC6\pdl\drivers\peripheral\ipc/cy_ipc_drv.h **** * \param notifyEventIntr
 689:Generated_Source\PSoC6\pdl\drivers\peripheral\ipc/cy_ipc_drv.h **** * Bit encoded list of IPC interrupt structures that are triggered
 690:Generated_Source\PSoC6\pdl\drivers\peripheral\ipc/cy_ipc_drv.h **** * by a notification. Bit number correspond to number of the IPC interrupt
 691:Generated_Source\PSoC6\pdl\drivers\peripheral\ipc/cy_ipc_drv.h **** * structure.
 692:Generated_Source\PSoC6\pdl\drivers\peripheral\ipc/cy_ipc_drv.h **** *
 693:Generated_Source\PSoC6\pdl\drivers\peripheral\ipc/cy_ipc_drv.h **** * \funcusage
 694:Generated_Source\PSoC6\pdl\drivers\peripheral\ipc/cy_ipc_drv.h **** * \snippet IPC_sut_01.cydsn/main_cm4.c snippet_Cy_IPC_Drv_LockAcquire
 695:Generated_Source\PSoC6\pdl\drivers\peripheral\ipc/cy_ipc_drv.h **** *
 696:Generated_Source\PSoC6\pdl\drivers\peripheral\ipc/cy_ipc_drv.h **** *******************************************************************************/
 697:Generated_Source\PSoC6\pdl\drivers\peripheral\ipc/cy_ipc_drv.h **** __STATIC_INLINE void  Cy_IPC_Drv_AcquireNotify (IPC_STRUCT_Type* base, uint32_t notifyEventIntr)
 698:Generated_Source\PSoC6\pdl\drivers\peripheral\ipc/cy_ipc_drv.h **** {
 699:Generated_Source\PSoC6\pdl\drivers\peripheral\ipc/cy_ipc_drv.h ****     CY_ASSERT_L1(0ul == (notifyEventIntr  & ~(uint32_t)(IPC_STRUCT_NOTIFY_INTR_NOTIFY_Msk)));
 700:Generated_Source\PSoC6\pdl\drivers\peripheral\ipc/cy_ipc_drv.h ****     REG_IPC_STRUCT_NOTIFY(base) = _VAL2FLD(IPC_STRUCT_NOTIFY_INTR_NOTIFY, notifyEventIntr);
 701:Generated_Source\PSoC6\pdl\drivers\peripheral\ipc/cy_ipc_drv.h **** }
 702:Generated_Source\PSoC6\pdl\drivers\peripheral\ipc/cy_ipc_drv.h **** 
 703:Generated_Source\PSoC6\pdl\drivers\peripheral\ipc/cy_ipc_drv.h **** 
 704:Generated_Source\PSoC6\pdl\drivers\peripheral\ipc/cy_ipc_drv.h **** /*******************************************************************************
 705:Generated_Source\PSoC6\pdl\drivers\peripheral\ipc/cy_ipc_drv.h **** * Function Name: Cy_IPC_Drv_ReleaseNotify
 706:Generated_Source\PSoC6\pdl\drivers\peripheral\ipc/cy_ipc_drv.h **** ****************************************************************************//**
 707:Generated_Source\PSoC6\pdl\drivers\peripheral\ipc/cy_ipc_drv.h **** *
ARM GAS  C:\Users\Rolf\AppData\Local\Temp\ccDBBlzw.s 			page 15


 708:Generated_Source\PSoC6\pdl\drivers\peripheral\ipc/cy_ipc_drv.h **** * The function generates a release notification event by IPC interrupt structure.
 709:Generated_Source\PSoC6\pdl\drivers\peripheral\ipc/cy_ipc_drv.h **** *
 710:Generated_Source\PSoC6\pdl\drivers\peripheral\ipc/cy_ipc_drv.h **** * \param base
 711:Generated_Source\PSoC6\pdl\drivers\peripheral\ipc/cy_ipc_drv.h **** * This parameter is a handle that represents the base address of the registers
 712:Generated_Source\PSoC6\pdl\drivers\peripheral\ipc/cy_ipc_drv.h **** * of the IPC channel.
 713:Generated_Source\PSoC6\pdl\drivers\peripheral\ipc/cy_ipc_drv.h **** * The parameter is generally returned from a call to the \ref
 714:Generated_Source\PSoC6\pdl\drivers\peripheral\ipc/cy_ipc_drv.h **** * Cy_IPC_Drv_GetIpcBaseAddress.
 715:Generated_Source\PSoC6\pdl\drivers\peripheral\ipc/cy_ipc_drv.h **** *
 716:Generated_Source\PSoC6\pdl\drivers\peripheral\ipc/cy_ipc_drv.h **** * \param notifyEventIntr
 717:Generated_Source\PSoC6\pdl\drivers\peripheral\ipc/cy_ipc_drv.h **** * Bit encoded list of IPC interrupt lines that are triggered by a notification.
 718:Generated_Source\PSoC6\pdl\drivers\peripheral\ipc/cy_ipc_drv.h **** *
 719:Generated_Source\PSoC6\pdl\drivers\peripheral\ipc/cy_ipc_drv.h **** * \funcusage
 720:Generated_Source\PSoC6\pdl\drivers\peripheral\ipc/cy_ipc_drv.h **** * \snippet IPC_sut_01.cydsn/main_cm4.c snippet_Cy_IPC_Drv_ReadMsgWord
 721:Generated_Source\PSoC6\pdl\drivers\peripheral\ipc/cy_ipc_drv.h **** *
 722:Generated_Source\PSoC6\pdl\drivers\peripheral\ipc/cy_ipc_drv.h **** *******************************************************************************/
 723:Generated_Source\PSoC6\pdl\drivers\peripheral\ipc/cy_ipc_drv.h **** __STATIC_INLINE void  Cy_IPC_Drv_ReleaseNotify (IPC_STRUCT_Type* base, uint32_t notifyEventIntr)
 724:Generated_Source\PSoC6\pdl\drivers\peripheral\ipc/cy_ipc_drv.h **** {
 725:Generated_Source\PSoC6\pdl\drivers\peripheral\ipc/cy_ipc_drv.h ****     CY_ASSERT_L1(0ul == (notifyEventIntr  & ~(uint32_t)(IPC_INTR_STRUCT_INTR_RELEASE_Msk)));
 726:Generated_Source\PSoC6\pdl\drivers\peripheral\ipc/cy_ipc_drv.h ****     REG_IPC_STRUCT_RELEASE(base) = _VAL2FLD(IPC_INTR_STRUCT_INTR_RELEASE, notifyEventIntr);
 727:Generated_Source\PSoC6\pdl\drivers\peripheral\ipc/cy_ipc_drv.h **** }
 728:Generated_Source\PSoC6\pdl\drivers\peripheral\ipc/cy_ipc_drv.h **** 
 729:Generated_Source\PSoC6\pdl\drivers\peripheral\ipc/cy_ipc_drv.h **** 
 730:Generated_Source\PSoC6\pdl\drivers\peripheral\ipc/cy_ipc_drv.h **** /*******************************************************************************
 731:Generated_Source\PSoC6\pdl\drivers\peripheral\ipc/cy_ipc_drv.h **** * Function Name: Cy_IPC_Drv_WriteDataValue
 732:Generated_Source\PSoC6\pdl\drivers\peripheral\ipc/cy_ipc_drv.h **** ****************************************************************************//**
 733:Generated_Source\PSoC6\pdl\drivers\peripheral\ipc/cy_ipc_drv.h **** *
 734:Generated_Source\PSoC6\pdl\drivers\peripheral\ipc/cy_ipc_drv.h **** * The function writes a value to the DATA register of the IPC channel.
 735:Generated_Source\PSoC6\pdl\drivers\peripheral\ipc/cy_ipc_drv.h **** *
 736:Generated_Source\PSoC6\pdl\drivers\peripheral\ipc/cy_ipc_drv.h **** * This function is internal and should not be called directly by user
 737:Generated_Source\PSoC6\pdl\drivers\peripheral\ipc/cy_ipc_drv.h **** * software.
 738:Generated_Source\PSoC6\pdl\drivers\peripheral\ipc/cy_ipc_drv.h **** *
 739:Generated_Source\PSoC6\pdl\drivers\peripheral\ipc/cy_ipc_drv.h **** * \param base
 740:Generated_Source\PSoC6\pdl\drivers\peripheral\ipc/cy_ipc_drv.h **** * This parameter is a handle that represents the base address of the registers
 741:Generated_Source\PSoC6\pdl\drivers\peripheral\ipc/cy_ipc_drv.h **** * of the IPC channel.
 742:Generated_Source\PSoC6\pdl\drivers\peripheral\ipc/cy_ipc_drv.h **** * The parameter is generally returned from a call to the \ref
 743:Generated_Source\PSoC6\pdl\drivers\peripheral\ipc/cy_ipc_drv.h **** * Cy_IPC_Drv_GetIpcBaseAddress.
 744:Generated_Source\PSoC6\pdl\drivers\peripheral\ipc/cy_ipc_drv.h **** *
 745:Generated_Source\PSoC6\pdl\drivers\peripheral\ipc/cy_ipc_drv.h **** * \param dataValue
 746:Generated_Source\PSoC6\pdl\drivers\peripheral\ipc/cy_ipc_drv.h **** * Value to be written.
 747:Generated_Source\PSoC6\pdl\drivers\peripheral\ipc/cy_ipc_drv.h **** *
 748:Generated_Source\PSoC6\pdl\drivers\peripheral\ipc/cy_ipc_drv.h **** *******************************************************************************/
 749:Generated_Source\PSoC6\pdl\drivers\peripheral\ipc/cy_ipc_drv.h **** __STATIC_INLINE void     Cy_IPC_Drv_WriteDataValue (IPC_STRUCT_Type* base, uint32_t dataValue)
 750:Generated_Source\PSoC6\pdl\drivers\peripheral\ipc/cy_ipc_drv.h **** {
 751:Generated_Source\PSoC6\pdl\drivers\peripheral\ipc/cy_ipc_drv.h ****     REG_IPC_STRUCT_DATA(base) = dataValue;
 752:Generated_Source\PSoC6\pdl\drivers\peripheral\ipc/cy_ipc_drv.h **** }
 753:Generated_Source\PSoC6\pdl\drivers\peripheral\ipc/cy_ipc_drv.h **** 
 754:Generated_Source\PSoC6\pdl\drivers\peripheral\ipc/cy_ipc_drv.h **** 
 755:Generated_Source\PSoC6\pdl\drivers\peripheral\ipc/cy_ipc_drv.h **** /*******************************************************************************
 756:Generated_Source\PSoC6\pdl\drivers\peripheral\ipc/cy_ipc_drv.h **** * Function Name: Cy_IPC_Drv_ReadDataValue
 757:Generated_Source\PSoC6\pdl\drivers\peripheral\ipc/cy_ipc_drv.h **** ****************************************************************************//**
 758:Generated_Source\PSoC6\pdl\drivers\peripheral\ipc/cy_ipc_drv.h **** *
 759:Generated_Source\PSoC6\pdl\drivers\peripheral\ipc/cy_ipc_drv.h **** * The function reads a value from the DATA register of the IPC channel.
 760:Generated_Source\PSoC6\pdl\drivers\peripheral\ipc/cy_ipc_drv.h **** *
 761:Generated_Source\PSoC6\pdl\drivers\peripheral\ipc/cy_ipc_drv.h **** * This function is internal and should not be called directly by user
 762:Generated_Source\PSoC6\pdl\drivers\peripheral\ipc/cy_ipc_drv.h **** * software.
 763:Generated_Source\PSoC6\pdl\drivers\peripheral\ipc/cy_ipc_drv.h **** *
 764:Generated_Source\PSoC6\pdl\drivers\peripheral\ipc/cy_ipc_drv.h **** * \param base
ARM GAS  C:\Users\Rolf\AppData\Local\Temp\ccDBBlzw.s 			page 16


 765:Generated_Source\PSoC6\pdl\drivers\peripheral\ipc/cy_ipc_drv.h **** * This parameter is a handle that represents the base address of the registers
 766:Generated_Source\PSoC6\pdl\drivers\peripheral\ipc/cy_ipc_drv.h **** * of the IPC channel.
 767:Generated_Source\PSoC6\pdl\drivers\peripheral\ipc/cy_ipc_drv.h **** * The parameter is generally returned from a call to the \ref
 768:Generated_Source\PSoC6\pdl\drivers\peripheral\ipc/cy_ipc_drv.h **** * Cy_IPC_Drv_GetIpcBaseAddress.
 769:Generated_Source\PSoC6\pdl\drivers\peripheral\ipc/cy_ipc_drv.h **** *
 770:Generated_Source\PSoC6\pdl\drivers\peripheral\ipc/cy_ipc_drv.h **** * \return
 771:Generated_Source\PSoC6\pdl\drivers\peripheral\ipc/cy_ipc_drv.h **** * Value from DATA register.
 772:Generated_Source\PSoC6\pdl\drivers\peripheral\ipc/cy_ipc_drv.h **** *
 773:Generated_Source\PSoC6\pdl\drivers\peripheral\ipc/cy_ipc_drv.h **** *******************************************************************************/
 774:Generated_Source\PSoC6\pdl\drivers\peripheral\ipc/cy_ipc_drv.h **** __STATIC_INLINE uint32_t Cy_IPC_Drv_ReadDataValue (IPC_STRUCT_Type const * base)
 775:Generated_Source\PSoC6\pdl\drivers\peripheral\ipc/cy_ipc_drv.h **** {
 776:Generated_Source\PSoC6\pdl\drivers\peripheral\ipc/cy_ipc_drv.h ****     return REG_IPC_STRUCT_DATA(base);
 777:Generated_Source\PSoC6\pdl\drivers\peripheral\ipc/cy_ipc_drv.h **** }
 778:Generated_Source\PSoC6\pdl\drivers\peripheral\ipc/cy_ipc_drv.h **** 
 779:Generated_Source\PSoC6\pdl\drivers\peripheral\ipc/cy_ipc_drv.h **** 
 780:Generated_Source\PSoC6\pdl\drivers\peripheral\ipc/cy_ipc_drv.h **** /*******************************************************************************
 781:Generated_Source\PSoC6\pdl\drivers\peripheral\ipc/cy_ipc_drv.h **** * Function Name: Cy_IPC_Drv_IsLockAcquired
 782:Generated_Source\PSoC6\pdl\drivers\peripheral\ipc/cy_ipc_drv.h **** ****************************************************************************//**
 783:Generated_Source\PSoC6\pdl\drivers\peripheral\ipc/cy_ipc_drv.h **** *
 784:Generated_Source\PSoC6\pdl\drivers\peripheral\ipc/cy_ipc_drv.h **** * The function is used to test the status of an IPC channel. The function
 785:Generated_Source\PSoC6\pdl\drivers\peripheral\ipc/cy_ipc_drv.h **** * tells the reader if the IPC channel was in the locked or released state.
 786:Generated_Source\PSoC6\pdl\drivers\peripheral\ipc/cy_ipc_drv.h **** *
 787:Generated_Source\PSoC6\pdl\drivers\peripheral\ipc/cy_ipc_drv.h **** * \param base
 788:Generated_Source\PSoC6\pdl\drivers\peripheral\ipc/cy_ipc_drv.h **** * This parameter is a handle that represents the base address of the registers
 789:Generated_Source\PSoC6\pdl\drivers\peripheral\ipc/cy_ipc_drv.h **** * of the IPC channel.
 790:Generated_Source\PSoC6\pdl\drivers\peripheral\ipc/cy_ipc_drv.h **** * The parameter is generally returned from a call to the \ref
 791:Generated_Source\PSoC6\pdl\drivers\peripheral\ipc/cy_ipc_drv.h **** * Cy_IPC_Drv_GetIpcBaseAddress.
 792:Generated_Source\PSoC6\pdl\drivers\peripheral\ipc/cy_ipc_drv.h **** *
 793:Generated_Source\PSoC6\pdl\drivers\peripheral\ipc/cy_ipc_drv.h **** * \return
 794:Generated_Source\PSoC6\pdl\drivers\peripheral\ipc/cy_ipc_drv.h **** *   Status for the function:
 795:Generated_Source\PSoC6\pdl\drivers\peripheral\ipc/cy_ipc_drv.h **** *   true:  The IPC channel is in the Locked state.
 796:Generated_Source\PSoC6\pdl\drivers\peripheral\ipc/cy_ipc_drv.h **** *   false: The IPC channel is in the Released state.
 797:Generated_Source\PSoC6\pdl\drivers\peripheral\ipc/cy_ipc_drv.h **** *
 798:Generated_Source\PSoC6\pdl\drivers\peripheral\ipc/cy_ipc_drv.h **** * \funcusage
 799:Generated_Source\PSoC6\pdl\drivers\peripheral\ipc/cy_ipc_drv.h **** * \snippet IPC_sut_01.cydsn/main_cm4.c snippet_Cy_IPC_Drv_LockAcquire
 800:Generated_Source\PSoC6\pdl\drivers\peripheral\ipc/cy_ipc_drv.h **** *
 801:Generated_Source\PSoC6\pdl\drivers\peripheral\ipc/cy_ipc_drv.h **** *******************************************************************************/
 802:Generated_Source\PSoC6\pdl\drivers\peripheral\ipc/cy_ipc_drv.h **** __STATIC_INLINE bool Cy_IPC_Drv_IsLockAcquired (IPC_STRUCT_Type const * base)
 803:Generated_Source\PSoC6\pdl\drivers\peripheral\ipc/cy_ipc_drv.h **** {
 804:Generated_Source\PSoC6\pdl\drivers\peripheral\ipc/cy_ipc_drv.h ****     return ( 0u != _FLD2VAL(IPC_STRUCT_ACQUIRE_SUCCESS, REG_IPC_STRUCT_LOCK_STATUS(base)) );
  45              		.loc 2 804 0
  46 0006 0A4B     		ldr	r3, .L5
  47 0008 1A68     		ldr	r2, [r3]
  48 000a B423     		movs	r3, #180
  49 000c D358     		ldr	r3, [r2, r3]
  50 000e 1B18     		adds	r3, r3, r0
  51 0010 1B68     		ldr	r3, [r3]
  52              	.LVL2:
  53              	.LBE17:
  54              	.LBE16:
  48:Generated_Source\PSoC6\pdl\drivers\peripheral\ipc/cy_ipc_drv.c ****     cy_en_ipcdrv_status_t retStatus;
  49:Generated_Source\PSoC6\pdl\drivers\peripheral\ipc/cy_ipc_drv.c **** 
  50:Generated_Source\PSoC6\pdl\drivers\peripheral\ipc/cy_ipc_drv.c ****     /* Check to make sure the IPC is Acquired */
  51:Generated_Source\PSoC6\pdl\drivers\peripheral\ipc/cy_ipc_drv.c ****     if( Cy_IPC_Drv_IsLockAcquired(base) )
  55              		.loc 1 51 0
  56 0012 002B     		cmp	r3, #0
  57 0014 0ADA     		bge	.L4
ARM GAS  C:\Users\Rolf\AppData\Local\Temp\ccDBBlzw.s 			page 17


  58              	.LVL3:
  59              	.LBB18:
  60              	.LBB19:
 725:Generated_Source\PSoC6\pdl\drivers\peripheral\ipc/cy_ipc_drv.h ****     REG_IPC_STRUCT_RELEASE(base) = _VAL2FLD(IPC_INTR_STRUCT_INTR_RELEASE, notifyEventIntr);
  61              		.loc 2 725 0
  62 0016 0B0C     		lsrs	r3, r1, #16
  63 0018 03D0     		beq	.L3
  64 001a 0649     		ldr	r1, .L5+4
  65              	.LVL4:
  66 001c 0648     		ldr	r0, .L5+8
  67              	.LVL5:
  68 001e FFF7FEFF 		bl	Cy_SysLib_AssertFailed
  69              	.LVL6:
  70              	.L3:
 726:Generated_Source\PSoC6\pdl\drivers\peripheral\ipc/cy_ipc_drv.h **** }
  71              		.loc 2 726 0
  72 0022 2D04     		lsls	r5, r5, #16
  73              	.LVL7:
  74 0024 2D0C     		lsrs	r5, r5, #16
  75 0026 6560     		str	r5, [r4, #4]
  76              	.LVL8:
  77              	.LBE19:
  78              	.LBE18:
  52:Generated_Source\PSoC6\pdl\drivers\peripheral\ipc/cy_ipc_drv.c ****     {
  53:Generated_Source\PSoC6\pdl\drivers\peripheral\ipc/cy_ipc_drv.c ****         /* The IPC was acquired, release the IPC channel */
  54:Generated_Source\PSoC6\pdl\drivers\peripheral\ipc/cy_ipc_drv.c ****         Cy_IPC_Drv_ReleaseNotify(base, releaseEventIntr);
  55:Generated_Source\PSoC6\pdl\drivers\peripheral\ipc/cy_ipc_drv.c **** 
  56:Generated_Source\PSoC6\pdl\drivers\peripheral\ipc/cy_ipc_drv.c ****         retStatus = CY_IPC_DRV_SUCCESS;
  79              		.loc 1 56 0
  80 0028 0020     		movs	r0, #0
  81 002a 00E0     		b	.L2
  82              	.LVL9:
  83              	.L4:
  57:Generated_Source\PSoC6\pdl\drivers\peripheral\ipc/cy_ipc_drv.c ****     }
  58:Generated_Source\PSoC6\pdl\drivers\peripheral\ipc/cy_ipc_drv.c ****     else   /* The IPC channel was already released (not acquired) */
  59:Generated_Source\PSoC6\pdl\drivers\peripheral\ipc/cy_ipc_drv.c ****     {
  60:Generated_Source\PSoC6\pdl\drivers\peripheral\ipc/cy_ipc_drv.c ****         retStatus = CY_IPC_DRV_ERROR;
  84              		.loc 1 60 0
  85 002c 0348     		ldr	r0, .L5+12
  86              	.LVL10:
  87              	.L2:
  61:Generated_Source\PSoC6\pdl\drivers\peripheral\ipc/cy_ipc_drv.c ****     }
  62:Generated_Source\PSoC6\pdl\drivers\peripheral\ipc/cy_ipc_drv.c **** 
  63:Generated_Source\PSoC6\pdl\drivers\peripheral\ipc/cy_ipc_drv.c ****     return (retStatus);
  64:Generated_Source\PSoC6\pdl\drivers\peripheral\ipc/cy_ipc_drv.c **** }
  88              		.loc 1 64 0
  89              		@ sp needed
  90              	.LVL11:
  91 002e 70BD     		pop	{r4, r5, r6, pc}
  92              	.L6:
  93              		.align	2
  94              	.L5:
  95 0030 00000000 		.word	cy_device
  96 0034 D5020000 		.word	725
  97 0038 00000000 		.word	.LC1
  98 003c 01008A00 		.word	9043969
  99              		.cfi_endproc
ARM GAS  C:\Users\Rolf\AppData\Local\Temp\ccDBBlzw.s 			page 18


 100              	.LFE64:
 101              		.size	Cy_IPC_Drv_LockRelease, .-Cy_IPC_Drv_LockRelease
 102              		.section	.text.Cy_IPC_Drv_SendMsgWord,"ax",%progbits
 103              		.align	2
 104              		.global	Cy_IPC_Drv_SendMsgWord
 105              		.code	16
 106              		.thumb_func
 107              		.type	Cy_IPC_Drv_SendMsgWord, %function
 108              	Cy_IPC_Drv_SendMsgWord:
 109              	.LFB65:
  65:Generated_Source\PSoC6\pdl\drivers\peripheral\ipc/cy_ipc_drv.c **** 
  66:Generated_Source\PSoC6\pdl\drivers\peripheral\ipc/cy_ipc_drv.c **** 
  67:Generated_Source\PSoC6\pdl\drivers\peripheral\ipc/cy_ipc_drv.c **** /*******************************************************************************
  68:Generated_Source\PSoC6\pdl\drivers\peripheral\ipc/cy_ipc_drv.c **** * Function Name: Cy_IPC_Drv_SendMsgWord
  69:Generated_Source\PSoC6\pdl\drivers\peripheral\ipc/cy_ipc_drv.c **** ****************************************************************************//**
  70:Generated_Source\PSoC6\pdl\drivers\peripheral\ipc/cy_ipc_drv.c **** *
  71:Generated_Source\PSoC6\pdl\drivers\peripheral\ipc/cy_ipc_drv.c **** * This function is used to send a 32-bit word message through an IPC channel.
  72:Generated_Source\PSoC6\pdl\drivers\peripheral\ipc/cy_ipc_drv.c **** * The function also has an associated notification field that will let the
  73:Generated_Source\PSoC6\pdl\drivers\peripheral\ipc/cy_ipc_drv.c **** * message notify one or multiple IPC interrupts. The IPC channel is locked and
  74:Generated_Source\PSoC6\pdl\drivers\peripheral\ipc/cy_ipc_drv.c **** * remains locked after the function returns.  The receiver of the message should
  75:Generated_Source\PSoC6\pdl\drivers\peripheral\ipc/cy_ipc_drv.c **** * release the channel.
  76:Generated_Source\PSoC6\pdl\drivers\peripheral\ipc/cy_ipc_drv.c **** *
  77:Generated_Source\PSoC6\pdl\drivers\peripheral\ipc/cy_ipc_drv.c **** * \param base
  78:Generated_Source\PSoC6\pdl\drivers\peripheral\ipc/cy_ipc_drv.c **** * This parameter is a handle that represents the base address of the registers
  79:Generated_Source\PSoC6\pdl\drivers\peripheral\ipc/cy_ipc_drv.c **** * of the IPC channel.
  80:Generated_Source\PSoC6\pdl\drivers\peripheral\ipc/cy_ipc_drv.c **** * The parameter is generally returned from a call to the \ref
  81:Generated_Source\PSoC6\pdl\drivers\peripheral\ipc/cy_ipc_drv.c **** * Cy_IPC_Drv_GetIpcBaseAddress.
  82:Generated_Source\PSoC6\pdl\drivers\peripheral\ipc/cy_ipc_drv.c **** *
  83:Generated_Source\PSoC6\pdl\drivers\peripheral\ipc/cy_ipc_drv.c **** * \param notifyEventIntr
  84:Generated_Source\PSoC6\pdl\drivers\peripheral\ipc/cy_ipc_drv.c **** * Bit encoded list of IPC interrupt lines that are triggered by a notification.
  85:Generated_Source\PSoC6\pdl\drivers\peripheral\ipc/cy_ipc_drv.c **** *
  86:Generated_Source\PSoC6\pdl\drivers\peripheral\ipc/cy_ipc_drv.c **** * \param message
  87:Generated_Source\PSoC6\pdl\drivers\peripheral\ipc/cy_ipc_drv.c **** * The message word that is the data placed in the IPC data register.
  88:Generated_Source\PSoC6\pdl\drivers\peripheral\ipc/cy_ipc_drv.c **** *
  89:Generated_Source\PSoC6\pdl\drivers\peripheral\ipc/cy_ipc_drv.c **** * \return   Status of the operation:
  90:Generated_Source\PSoC6\pdl\drivers\peripheral\ipc/cy_ipc_drv.c **** *   \retval CY_IPC_DRV_SUCCESS: The send operation was successful.
  91:Generated_Source\PSoC6\pdl\drivers\peripheral\ipc/cy_ipc_drv.c **** *   \retval CY_IPC_DRV_ERROR: The IPC channel is unavailable because it is already locked.
  92:Generated_Source\PSoC6\pdl\drivers\peripheral\ipc/cy_ipc_drv.c **** *
  93:Generated_Source\PSoC6\pdl\drivers\peripheral\ipc/cy_ipc_drv.c **** * \funcusage
  94:Generated_Source\PSoC6\pdl\drivers\peripheral\ipc/cy_ipc_drv.c **** * \snippet IPC_sut_01.cydsn/main_cm4.c snippet_Cy_IPC_Drv_SendMsgWord
  95:Generated_Source\PSoC6\pdl\drivers\peripheral\ipc/cy_ipc_drv.c **** *
  96:Generated_Source\PSoC6\pdl\drivers\peripheral\ipc/cy_ipc_drv.c **** *******************************************************************************/
  97:Generated_Source\PSoC6\pdl\drivers\peripheral\ipc/cy_ipc_drv.c **** cy_en_ipcdrv_status_t  Cy_IPC_Drv_SendMsgWord (IPC_STRUCT_Type* base, uint32_t notifyEventIntr, uin
  98:Generated_Source\PSoC6\pdl\drivers\peripheral\ipc/cy_ipc_drv.c **** {
 110              		.loc 1 98 0
 111              		.cfi_startproc
 112              		@ args = 0, pretend = 0, frame = 0
 113              		@ frame_needed = 0, uses_anonymous_args = 0
 114              	.LVL12:
 115 0000 70B5     		push	{r4, r5, r6, lr}
 116              		.cfi_def_cfa_offset 16
 117              		.cfi_offset 4, -16
 118              		.cfi_offset 5, -12
 119              		.cfi_offset 6, -8
 120              		.cfi_offset 14, -4
 121 0002 0500     		movs	r5, r0
 122 0004 0C00     		movs	r4, r1
ARM GAS  C:\Users\Rolf\AppData\Local\Temp\ccDBBlzw.s 			page 19


 123              	.LVL13:
 124              	.LBB20:
 125              	.LBB21:
 805:Generated_Source\PSoC6\pdl\drivers\peripheral\ipc/cy_ipc_drv.h **** }
 806:Generated_Source\PSoC6\pdl\drivers\peripheral\ipc/cy_ipc_drv.h **** 
 807:Generated_Source\PSoC6\pdl\drivers\peripheral\ipc/cy_ipc_drv.h **** 
 808:Generated_Source\PSoC6\pdl\drivers\peripheral\ipc/cy_ipc_drv.h **** /*******************************************************************************
 809:Generated_Source\PSoC6\pdl\drivers\peripheral\ipc/cy_ipc_drv.h **** * Function Name: Cy_IPC_Drv_GetLockStatus
 810:Generated_Source\PSoC6\pdl\drivers\peripheral\ipc/cy_ipc_drv.h **** ****************************************************************************//**
 811:Generated_Source\PSoC6\pdl\drivers\peripheral\ipc/cy_ipc_drv.h **** *
 812:Generated_Source\PSoC6\pdl\drivers\peripheral\ipc/cy_ipc_drv.h **** * The function is used to get the status of an IPC channel.
 813:Generated_Source\PSoC6\pdl\drivers\peripheral\ipc/cy_ipc_drv.h **** *
 814:Generated_Source\PSoC6\pdl\drivers\peripheral\ipc/cy_ipc_drv.h **** * \param base
 815:Generated_Source\PSoC6\pdl\drivers\peripheral\ipc/cy_ipc_drv.h **** * This parameter is a handle that represents the base address of the registers
 816:Generated_Source\PSoC6\pdl\drivers\peripheral\ipc/cy_ipc_drv.h **** * of the IPC channel.
 817:Generated_Source\PSoC6\pdl\drivers\peripheral\ipc/cy_ipc_drv.h **** * The parameter is generally returned from a call to the \ref
 818:Generated_Source\PSoC6\pdl\drivers\peripheral\ipc/cy_ipc_drv.h **** * Cy_IPC_Drv_GetIpcBaseAddress.
 819:Generated_Source\PSoC6\pdl\drivers\peripheral\ipc/cy_ipc_drv.h **** *
 820:Generated_Source\PSoC6\pdl\drivers\peripheral\ipc/cy_ipc_drv.h **** * \return
 821:Generated_Source\PSoC6\pdl\drivers\peripheral\ipc/cy_ipc_drv.h **** * Value from LOCK_STATUS register.
 822:Generated_Source\PSoC6\pdl\drivers\peripheral\ipc/cy_ipc_drv.h **** *
 823:Generated_Source\PSoC6\pdl\drivers\peripheral\ipc/cy_ipc_drv.h **** * \funcusage
 824:Generated_Source\PSoC6\pdl\drivers\peripheral\ipc/cy_ipc_drv.h **** * \snippet IPC_sut_01.cydsn/main_cm4.c snippet_Cy_IPC_Drv_GetLockStatus
 825:Generated_Source\PSoC6\pdl\drivers\peripheral\ipc/cy_ipc_drv.h **** *
 826:Generated_Source\PSoC6\pdl\drivers\peripheral\ipc/cy_ipc_drv.h **** *******************************************************************************/
 827:Generated_Source\PSoC6\pdl\drivers\peripheral\ipc/cy_ipc_drv.h **** __STATIC_INLINE uint32_t Cy_IPC_Drv_GetLockStatus (IPC_STRUCT_Type const * base)
 828:Generated_Source\PSoC6\pdl\drivers\peripheral\ipc/cy_ipc_drv.h **** {
 829:Generated_Source\PSoC6\pdl\drivers\peripheral\ipc/cy_ipc_drv.h ****     return REG_IPC_STRUCT_LOCK_STATUS(base);
 830:Generated_Source\PSoC6\pdl\drivers\peripheral\ipc/cy_ipc_drv.h **** }
 831:Generated_Source\PSoC6\pdl\drivers\peripheral\ipc/cy_ipc_drv.h **** 
 832:Generated_Source\PSoC6\pdl\drivers\peripheral\ipc/cy_ipc_drv.h **** 
 833:Generated_Source\PSoC6\pdl\drivers\peripheral\ipc/cy_ipc_drv.h **** /*******************************************************************************
 834:Generated_Source\PSoC6\pdl\drivers\peripheral\ipc/cy_ipc_drv.h **** * Function Name: Cy_IPC_Drv_ExtractAcquireMask
 835:Generated_Source\PSoC6\pdl\drivers\peripheral\ipc/cy_ipc_drv.h **** ****************************************************************************//**
 836:Generated_Source\PSoC6\pdl\drivers\peripheral\ipc/cy_ipc_drv.h **** *
 837:Generated_Source\PSoC6\pdl\drivers\peripheral\ipc/cy_ipc_drv.h **** * The function extracts an Acquire mask part from full interrupt mask value.
 838:Generated_Source\PSoC6\pdl\drivers\peripheral\ipc/cy_ipc_drv.h **** *
 839:Generated_Source\PSoC6\pdl\drivers\peripheral\ipc/cy_ipc_drv.h **** * This function is internal and should not be called directly by user
 840:Generated_Source\PSoC6\pdl\drivers\peripheral\ipc/cy_ipc_drv.h **** * software.
 841:Generated_Source\PSoC6\pdl\drivers\peripheral\ipc/cy_ipc_drv.h **** *
 842:Generated_Source\PSoC6\pdl\drivers\peripheral\ipc/cy_ipc_drv.h **** * \param intMask
 843:Generated_Source\PSoC6\pdl\drivers\peripheral\ipc/cy_ipc_drv.h **** * Interrupt mask value to be processed.
 844:Generated_Source\PSoC6\pdl\drivers\peripheral\ipc/cy_ipc_drv.h **** *
 845:Generated_Source\PSoC6\pdl\drivers\peripheral\ipc/cy_ipc_drv.h **** * \return
 846:Generated_Source\PSoC6\pdl\drivers\peripheral\ipc/cy_ipc_drv.h **** * Acquire mask value.
 847:Generated_Source\PSoC6\pdl\drivers\peripheral\ipc/cy_ipc_drv.h **** *
 848:Generated_Source\PSoC6\pdl\drivers\peripheral\ipc/cy_ipc_drv.h **** *******************************************************************************/
 849:Generated_Source\PSoC6\pdl\drivers\peripheral\ipc/cy_ipc_drv.h **** __STATIC_INLINE uint32_t Cy_IPC_Drv_ExtractAcquireMask (uint32_t intMask)
 850:Generated_Source\PSoC6\pdl\drivers\peripheral\ipc/cy_ipc_drv.h **** {
 851:Generated_Source\PSoC6\pdl\drivers\peripheral\ipc/cy_ipc_drv.h ****     return _FLD2VAL(IPC_INTR_STRUCT_INTR_MASK_NOTIFY, intMask);
 852:Generated_Source\PSoC6\pdl\drivers\peripheral\ipc/cy_ipc_drv.h **** }
 853:Generated_Source\PSoC6\pdl\drivers\peripheral\ipc/cy_ipc_drv.h **** 
 854:Generated_Source\PSoC6\pdl\drivers\peripheral\ipc/cy_ipc_drv.h **** 
 855:Generated_Source\PSoC6\pdl\drivers\peripheral\ipc/cy_ipc_drv.h **** /*******************************************************************************
 856:Generated_Source\PSoC6\pdl\drivers\peripheral\ipc/cy_ipc_drv.h **** * Function Name: Cy_IPC_Drv_ExtractReleaseMask
 857:Generated_Source\PSoC6\pdl\drivers\peripheral\ipc/cy_ipc_drv.h **** ****************************************************************************//**
 858:Generated_Source\PSoC6\pdl\drivers\peripheral\ipc/cy_ipc_drv.h **** *
ARM GAS  C:\Users\Rolf\AppData\Local\Temp\ccDBBlzw.s 			page 20


 859:Generated_Source\PSoC6\pdl\drivers\peripheral\ipc/cy_ipc_drv.h **** * The function extracts a Release mask part from full interrupt mask value.
 860:Generated_Source\PSoC6\pdl\drivers\peripheral\ipc/cy_ipc_drv.h **** *
 861:Generated_Source\PSoC6\pdl\drivers\peripheral\ipc/cy_ipc_drv.h **** * This function is internal and should not be called directly by user
 862:Generated_Source\PSoC6\pdl\drivers\peripheral\ipc/cy_ipc_drv.h **** * software.
 863:Generated_Source\PSoC6\pdl\drivers\peripheral\ipc/cy_ipc_drv.h **** *
 864:Generated_Source\PSoC6\pdl\drivers\peripheral\ipc/cy_ipc_drv.h **** * \param intMask
 865:Generated_Source\PSoC6\pdl\drivers\peripheral\ipc/cy_ipc_drv.h **** * Interrupt mask value to be processed.
 866:Generated_Source\PSoC6\pdl\drivers\peripheral\ipc/cy_ipc_drv.h **** *
 867:Generated_Source\PSoC6\pdl\drivers\peripheral\ipc/cy_ipc_drv.h **** * \return
 868:Generated_Source\PSoC6\pdl\drivers\peripheral\ipc/cy_ipc_drv.h **** * Release mask value.
 869:Generated_Source\PSoC6\pdl\drivers\peripheral\ipc/cy_ipc_drv.h **** *
 870:Generated_Source\PSoC6\pdl\drivers\peripheral\ipc/cy_ipc_drv.h **** *******************************************************************************/
 871:Generated_Source\PSoC6\pdl\drivers\peripheral\ipc/cy_ipc_drv.h **** __STATIC_INLINE uint32_t Cy_IPC_Drv_ExtractReleaseMask (uint32_t intMask)
 872:Generated_Source\PSoC6\pdl\drivers\peripheral\ipc/cy_ipc_drv.h **** {
 873:Generated_Source\PSoC6\pdl\drivers\peripheral\ipc/cy_ipc_drv.h ****     return _FLD2VAL(IPC_INTR_STRUCT_INTR_MASK_RELEASE, intMask);
 874:Generated_Source\PSoC6\pdl\drivers\peripheral\ipc/cy_ipc_drv.h **** }
 875:Generated_Source\PSoC6\pdl\drivers\peripheral\ipc/cy_ipc_drv.h **** 
 876:Generated_Source\PSoC6\pdl\drivers\peripheral\ipc/cy_ipc_drv.h **** 
 877:Generated_Source\PSoC6\pdl\drivers\peripheral\ipc/cy_ipc_drv.h **** /*******************************************************************************
 878:Generated_Source\PSoC6\pdl\drivers\peripheral\ipc/cy_ipc_drv.h **** * Function Name: Cy_IPC_Drv_SendMsgPtr
 879:Generated_Source\PSoC6\pdl\drivers\peripheral\ipc/cy_ipc_drv.h **** ****************************************************************************//**
 880:Generated_Source\PSoC6\pdl\drivers\peripheral\ipc/cy_ipc_drv.h **** *
 881:Generated_Source\PSoC6\pdl\drivers\peripheral\ipc/cy_ipc_drv.h **** * This function is used to send a message pointer through an IPC channel.
 882:Generated_Source\PSoC6\pdl\drivers\peripheral\ipc/cy_ipc_drv.h **** * The message structure may hold a generic pointer that may contain the address
 883:Generated_Source\PSoC6\pdl\drivers\peripheral\ipc/cy_ipc_drv.h **** * of any user data type or structure. This parameter could be a pointer to a 32-bit
 884:Generated_Source\PSoC6\pdl\drivers\peripheral\ipc/cy_ipc_drv.h **** * integer, an array, or even a data structure defined in the user code. This
 885:Generated_Source\PSoC6\pdl\drivers\peripheral\ipc/cy_ipc_drv.h **** * function acts as a transfer engine for sending the pointer. Any memory
 886:Generated_Source\PSoC6\pdl\drivers\peripheral\ipc/cy_ipc_drv.h **** * management of the pointer allocation and deallocation is up to the application
 887:Generated_Source\PSoC6\pdl\drivers\peripheral\ipc/cy_ipc_drv.h **** * code.
 888:Generated_Source\PSoC6\pdl\drivers\peripheral\ipc/cy_ipc_drv.h **** * The function also has an associated notification field that will let the
 889:Generated_Source\PSoC6\pdl\drivers\peripheral\ipc/cy_ipc_drv.h **** * message notify one or multiple interrupts.
 890:Generated_Source\PSoC6\pdl\drivers\peripheral\ipc/cy_ipc_drv.h **** *
 891:Generated_Source\PSoC6\pdl\drivers\peripheral\ipc/cy_ipc_drv.h **** * \param base
 892:Generated_Source\PSoC6\pdl\drivers\peripheral\ipc/cy_ipc_drv.h **** * This parameter is a handle that represents the base address of the registers
 893:Generated_Source\PSoC6\pdl\drivers\peripheral\ipc/cy_ipc_drv.h **** * of the IPC channel.
 894:Generated_Source\PSoC6\pdl\drivers\peripheral\ipc/cy_ipc_drv.h **** * The parameter is generally returned from a call to the \ref
 895:Generated_Source\PSoC6\pdl\drivers\peripheral\ipc/cy_ipc_drv.h **** * Cy_IPC_Drv_GetIpcBaseAddress.
 896:Generated_Source\PSoC6\pdl\drivers\peripheral\ipc/cy_ipc_drv.h **** *
 897:Generated_Source\PSoC6\pdl\drivers\peripheral\ipc/cy_ipc_drv.h **** * \param notifyEventIntr
 898:Generated_Source\PSoC6\pdl\drivers\peripheral\ipc/cy_ipc_drv.h **** * Bit encoded list of IPC interrupt lines that are triggered during the release
 899:Generated_Source\PSoC6\pdl\drivers\peripheral\ipc/cy_ipc_drv.h **** * action.
 900:Generated_Source\PSoC6\pdl\drivers\peripheral\ipc/cy_ipc_drv.h **** *
 901:Generated_Source\PSoC6\pdl\drivers\peripheral\ipc/cy_ipc_drv.h **** * \param msgPtr
 902:Generated_Source\PSoC6\pdl\drivers\peripheral\ipc/cy_ipc_drv.h **** * The message pointer that is being sent over the IPC channel.
 903:Generated_Source\PSoC6\pdl\drivers\peripheral\ipc/cy_ipc_drv.h **** *
 904:Generated_Source\PSoC6\pdl\drivers\peripheral\ipc/cy_ipc_drv.h **** * \return   Status of the operation:
 905:Generated_Source\PSoC6\pdl\drivers\peripheral\ipc/cy_ipc_drv.h **** *   \retval CY_IPC_DRV_SUCCESS: The send operation was successful.
 906:Generated_Source\PSoC6\pdl\drivers\peripheral\ipc/cy_ipc_drv.h **** *   \retval CY_IPC_DRV_ERROR:   The IPC channel is unavailable because
 907:Generated_Source\PSoC6\pdl\drivers\peripheral\ipc/cy_ipc_drv.h **** *                               it is already locked.
 908:Generated_Source\PSoC6\pdl\drivers\peripheral\ipc/cy_ipc_drv.h **** *
 909:Generated_Source\PSoC6\pdl\drivers\peripheral\ipc/cy_ipc_drv.h **** * \funcusage
 910:Generated_Source\PSoC6\pdl\drivers\peripheral\ipc/cy_ipc_drv.h **** * \snippet IPC_sut_01.cydsn/main_cm4.c snippet_Cy_IPC_Drv_SendMsgPtr
 911:Generated_Source\PSoC6\pdl\drivers\peripheral\ipc/cy_ipc_drv.h **** *
 912:Generated_Source\PSoC6\pdl\drivers\peripheral\ipc/cy_ipc_drv.h **** *******************************************************************************/
 913:Generated_Source\PSoC6\pdl\drivers\peripheral\ipc/cy_ipc_drv.h **** __STATIC_INLINE cy_en_ipcdrv_status_t  Cy_IPC_Drv_SendMsgPtr(IPC_STRUCT_Type* base, uint32_t notify
 914:Generated_Source\PSoC6\pdl\drivers\peripheral\ipc/cy_ipc_drv.h **** {
 915:Generated_Source\PSoC6\pdl\drivers\peripheral\ipc/cy_ipc_drv.h ****     CY_ASSERT_L1(NULL != msgPtr);
ARM GAS  C:\Users\Rolf\AppData\Local\Temp\ccDBBlzw.s 			page 21


 916:Generated_Source\PSoC6\pdl\drivers\peripheral\ipc/cy_ipc_drv.h ****     return Cy_IPC_Drv_SendMsgWord(base, notifyEventIntr, (uint32_t)msgPtr);
 917:Generated_Source\PSoC6\pdl\drivers\peripheral\ipc/cy_ipc_drv.h **** }
 918:Generated_Source\PSoC6\pdl\drivers\peripheral\ipc/cy_ipc_drv.h **** 
 919:Generated_Source\PSoC6\pdl\drivers\peripheral\ipc/cy_ipc_drv.h **** 
 920:Generated_Source\PSoC6\pdl\drivers\peripheral\ipc/cy_ipc_drv.h **** /*******************************************************************************
 921:Generated_Source\PSoC6\pdl\drivers\peripheral\ipc/cy_ipc_drv.h **** * Function Name: Cy_IPC_Drv_ReadMsgPtr
 922:Generated_Source\PSoC6\pdl\drivers\peripheral\ipc/cy_ipc_drv.h **** ****************************************************************************//**
 923:Generated_Source\PSoC6\pdl\drivers\peripheral\ipc/cy_ipc_drv.h **** *
 924:Generated_Source\PSoC6\pdl\drivers\peripheral\ipc/cy_ipc_drv.h **** * This function is used to read a 32-bit pointer message through an IPC channel.
 925:Generated_Source\PSoC6\pdl\drivers\peripheral\ipc/cy_ipc_drv.h **** *
 926:Generated_Source\PSoC6\pdl\drivers\peripheral\ipc/cy_ipc_drv.h **** * \param base
 927:Generated_Source\PSoC6\pdl\drivers\peripheral\ipc/cy_ipc_drv.h **** * This parameter is a handle that represents the base address of the registers
 928:Generated_Source\PSoC6\pdl\drivers\peripheral\ipc/cy_ipc_drv.h **** * of the IPC channel.
 929:Generated_Source\PSoC6\pdl\drivers\peripheral\ipc/cy_ipc_drv.h **** * The parameter is generally returned from a call to the \ref
 930:Generated_Source\PSoC6\pdl\drivers\peripheral\ipc/cy_ipc_drv.h **** * Cy_IPC_Drv_GetIpcBaseAddress.
 931:Generated_Source\PSoC6\pdl\drivers\peripheral\ipc/cy_ipc_drv.h **** *
 932:Generated_Source\PSoC6\pdl\drivers\peripheral\ipc/cy_ipc_drv.h **** * \param msgPtr
 933:Generated_Source\PSoC6\pdl\drivers\peripheral\ipc/cy_ipc_drv.h **** * Pointer variable to hold the data pointer that is being read from the IPC
 934:Generated_Source\PSoC6\pdl\drivers\peripheral\ipc/cy_ipc_drv.h **** * channel.
 935:Generated_Source\PSoC6\pdl\drivers\peripheral\ipc/cy_ipc_drv.h **** *
 936:Generated_Source\PSoC6\pdl\drivers\peripheral\ipc/cy_ipc_drv.h **** *
 937:Generated_Source\PSoC6\pdl\drivers\peripheral\ipc/cy_ipc_drv.h **** * \return Status of the operation
 938:Generated_Source\PSoC6\pdl\drivers\peripheral\ipc/cy_ipc_drv.h **** *   \retval CY_IPC_DRV_SUCCESS: The function executed successfully and the IPC
 939:Generated_Source\PSoC6\pdl\drivers\peripheral\ipc/cy_ipc_drv.h **** *                       was acquired.
 940:Generated_Source\PSoC6\pdl\drivers\peripheral\ipc/cy_ipc_drv.h **** *   \retval CY_IPC_DRV_ERROR:   The function encountered an error because the IPC
 941:Generated_Source\PSoC6\pdl\drivers\peripheral\ipc/cy_ipc_drv.h **** *                       channel was already in a released state meaning the data
 942:Generated_Source\PSoC6\pdl\drivers\peripheral\ipc/cy_ipc_drv.h **** *                       in it is invalid.
 943:Generated_Source\PSoC6\pdl\drivers\peripheral\ipc/cy_ipc_drv.h **** *
 944:Generated_Source\PSoC6\pdl\drivers\peripheral\ipc/cy_ipc_drv.h **** * \funcusage
 945:Generated_Source\PSoC6\pdl\drivers\peripheral\ipc/cy_ipc_drv.h **** * \snippet IPC_sut_01.cydsn/main_cm4.c snippet_Cy_IPC_Drv_ReadMsgPtr
 946:Generated_Source\PSoC6\pdl\drivers\peripheral\ipc/cy_ipc_drv.h **** *
 947:Generated_Source\PSoC6\pdl\drivers\peripheral\ipc/cy_ipc_drv.h **** *******************************************************************************/
 948:Generated_Source\PSoC6\pdl\drivers\peripheral\ipc/cy_ipc_drv.h **** __STATIC_INLINE  cy_en_ipcdrv_status_t  Cy_IPC_Drv_ReadMsgPtr (IPC_STRUCT_Type const * base, void *
 949:Generated_Source\PSoC6\pdl\drivers\peripheral\ipc/cy_ipc_drv.h **** {
 950:Generated_Source\PSoC6\pdl\drivers\peripheral\ipc/cy_ipc_drv.h ****     CY_ASSERT_L1(NULL != msgPtr);
 951:Generated_Source\PSoC6\pdl\drivers\peripheral\ipc/cy_ipc_drv.h ****     return Cy_IPC_Drv_ReadMsgWord(base, (uint32_t *)msgPtr);
 952:Generated_Source\PSoC6\pdl\drivers\peripheral\ipc/cy_ipc_drv.h **** }
 953:Generated_Source\PSoC6\pdl\drivers\peripheral\ipc/cy_ipc_drv.h **** 
 954:Generated_Source\PSoC6\pdl\drivers\peripheral\ipc/cy_ipc_drv.h **** 
 955:Generated_Source\PSoC6\pdl\drivers\peripheral\ipc/cy_ipc_drv.h **** /*******************************************************************************
 956:Generated_Source\PSoC6\pdl\drivers\peripheral\ipc/cy_ipc_drv.h **** * Function Name: Cy_IPC_Drv_LockAcquire
 957:Generated_Source\PSoC6\pdl\drivers\peripheral\ipc/cy_ipc_drv.h **** ****************************************************************************//**
 958:Generated_Source\PSoC6\pdl\drivers\peripheral\ipc/cy_ipc_drv.h **** *
 959:Generated_Source\PSoC6\pdl\drivers\peripheral\ipc/cy_ipc_drv.h **** * This function is used to acquire the IPC channel.
 960:Generated_Source\PSoC6\pdl\drivers\peripheral\ipc/cy_ipc_drv.h **** *
 961:Generated_Source\PSoC6\pdl\drivers\peripheral\ipc/cy_ipc_drv.h **** * \param base
 962:Generated_Source\PSoC6\pdl\drivers\peripheral\ipc/cy_ipc_drv.h **** * This parameter is a handle that represents the base address of the registers
 963:Generated_Source\PSoC6\pdl\drivers\peripheral\ipc/cy_ipc_drv.h **** * of the IPC channel.
 964:Generated_Source\PSoC6\pdl\drivers\peripheral\ipc/cy_ipc_drv.h **** * The parameter is generally returned from a call to the \ref
 965:Generated_Source\PSoC6\pdl\drivers\peripheral\ipc/cy_ipc_drv.h **** * Cy_IPC_Drv_GetIpcBaseAddress
 966:Generated_Source\PSoC6\pdl\drivers\peripheral\ipc/cy_ipc_drv.h **** *
 967:Generated_Source\PSoC6\pdl\drivers\peripheral\ipc/cy_ipc_drv.h **** * \return   Status of the operation
 968:Generated_Source\PSoC6\pdl\drivers\peripheral\ipc/cy_ipc_drv.h **** *   \retval CY_IPC_DRV_SUCCESS: The IPC was successfully acquired
 969:Generated_Source\PSoC6\pdl\drivers\peripheral\ipc/cy_ipc_drv.h **** *   \retval CY_IPC_DRV_ERROR:   The IPC was not acquired because it was already acquired
 970:Generated_Source\PSoC6\pdl\drivers\peripheral\ipc/cy_ipc_drv.h **** *                       by another master
 971:Generated_Source\PSoC6\pdl\drivers\peripheral\ipc/cy_ipc_drv.h **** *
 972:Generated_Source\PSoC6\pdl\drivers\peripheral\ipc/cy_ipc_drv.h **** * \funcusage
ARM GAS  C:\Users\Rolf\AppData\Local\Temp\ccDBBlzw.s 			page 22


 973:Generated_Source\PSoC6\pdl\drivers\peripheral\ipc/cy_ipc_drv.h **** * \snippet IPC_sut_01.cydsn/main_cm4.c snippet_Cy_IPC_Drv_LockAcquire
 974:Generated_Source\PSoC6\pdl\drivers\peripheral\ipc/cy_ipc_drv.h **** *
 975:Generated_Source\PSoC6\pdl\drivers\peripheral\ipc/cy_ipc_drv.h **** *******************************************************************************/
 976:Generated_Source\PSoC6\pdl\drivers\peripheral\ipc/cy_ipc_drv.h **** __STATIC_INLINE cy_en_ipcdrv_status_t Cy_IPC_Drv_LockAcquire (IPC_STRUCT_Type const * base)
 977:Generated_Source\PSoC6\pdl\drivers\peripheral\ipc/cy_ipc_drv.h **** {
 978:Generated_Source\PSoC6\pdl\drivers\peripheral\ipc/cy_ipc_drv.h ****     return ( 0ul != _FLD2VAL(IPC_STRUCT_ACQUIRE_SUCCESS, REG_IPC_STRUCT_ACQUIRE(base))) ? CY_IPC_DR
 126              		.loc 2 978 0
 127 0006 0368     		ldr	r3, [r0]
 128 0008 002B     		cmp	r3, #0
 129 000a 01DA     		bge	.L11
 130 000c 0023     		movs	r3, #0
 131 000e 00E0     		b	.L8
 132              	.L11:
 133 0010 084B     		ldr	r3, .L13
 134              	.L8:
 135              	.LVL14:
 136              	.LBE21:
 137              	.LBE20:
  99:Generated_Source\PSoC6\pdl\drivers\peripheral\ipc/cy_ipc_drv.c ****     cy_en_ipcdrv_status_t retStatus;
 100:Generated_Source\PSoC6\pdl\drivers\peripheral\ipc/cy_ipc_drv.c **** 
 101:Generated_Source\PSoC6\pdl\drivers\peripheral\ipc/cy_ipc_drv.c ****     if( CY_IPC_DRV_SUCCESS == Cy_IPC_Drv_LockAcquire(base) )
 138              		.loc 1 101 0
 139 0012 002B     		cmp	r3, #0
 140 0014 0BD1     		bne	.L12
 141              	.LVL15:
 142              	.LBB22:
 143              	.LBB23:
 751:Generated_Source\PSoC6\pdl\drivers\peripheral\ipc/cy_ipc_drv.h **** }
 144              		.loc 2 751 0
 145 0016 EA60     		str	r2, [r5, #12]
 146              	.LVL16:
 147              	.LBE23:
 148              	.LBE22:
 149              	.LBB24:
 150              	.LBB25:
 699:Generated_Source\PSoC6\pdl\drivers\peripheral\ipc/cy_ipc_drv.h ****     REG_IPC_STRUCT_NOTIFY(base) = _VAL2FLD(IPC_STRUCT_NOTIFY_INTR_NOTIFY, notifyEventIntr);
 151              		.loc 2 699 0
 152 0018 230C     		lsrs	r3, r4, #16
 153 001a 03D0     		beq	.L10
 154 001c 0649     		ldr	r1, .L13+4
 155              	.LVL17:
 156 001e 0748     		ldr	r0, .L13+8
 157              	.LVL18:
 158 0020 FFF7FEFF 		bl	Cy_SysLib_AssertFailed
 159              	.LVL19:
 160              	.L10:
 700:Generated_Source\PSoC6\pdl\drivers\peripheral\ipc/cy_ipc_drv.h **** }
 161              		.loc 2 700 0
 162 0024 2404     		lsls	r4, r4, #16
 163              	.LVL20:
 164 0026 240C     		lsrs	r4, r4, #16
 165 0028 AC60     		str	r4, [r5, #8]
 166              	.LVL21:
 167              	.LBE25:
 168              	.LBE24:
 102:Generated_Source\PSoC6\pdl\drivers\peripheral\ipc/cy_ipc_drv.c ****     {
 103:Generated_Source\PSoC6\pdl\drivers\peripheral\ipc/cy_ipc_drv.c ****         /* If the channel was acquired, send the message. */
ARM GAS  C:\Users\Rolf\AppData\Local\Temp\ccDBBlzw.s 			page 23


 104:Generated_Source\PSoC6\pdl\drivers\peripheral\ipc/cy_ipc_drv.c ****         Cy_IPC_Drv_WriteDataValue(base, message);
 105:Generated_Source\PSoC6\pdl\drivers\peripheral\ipc/cy_ipc_drv.c **** 
 106:Generated_Source\PSoC6\pdl\drivers\peripheral\ipc/cy_ipc_drv.c ****         Cy_IPC_Drv_AcquireNotify(base, notifyEventIntr);
 107:Generated_Source\PSoC6\pdl\drivers\peripheral\ipc/cy_ipc_drv.c **** 
 108:Generated_Source\PSoC6\pdl\drivers\peripheral\ipc/cy_ipc_drv.c ****         retStatus = CY_IPC_DRV_SUCCESS;
 169              		.loc 1 108 0
 170 002a 0020     		movs	r0, #0
 171 002c 00E0     		b	.L9
 172              	.LVL22:
 173              	.L12:
 109:Generated_Source\PSoC6\pdl\drivers\peripheral\ipc/cy_ipc_drv.c ****     }
 110:Generated_Source\PSoC6\pdl\drivers\peripheral\ipc/cy_ipc_drv.c ****     else
 111:Generated_Source\PSoC6\pdl\drivers\peripheral\ipc/cy_ipc_drv.c ****     {
 112:Generated_Source\PSoC6\pdl\drivers\peripheral\ipc/cy_ipc_drv.c ****         /* Channel was already acquired, return Error */
 113:Generated_Source\PSoC6\pdl\drivers\peripheral\ipc/cy_ipc_drv.c ****         retStatus = CY_IPC_DRV_ERROR;
 174              		.loc 1 113 0
 175 002e 0148     		ldr	r0, .L13
 176              	.LVL23:
 177              	.L9:
 114:Generated_Source\PSoC6\pdl\drivers\peripheral\ipc/cy_ipc_drv.c ****     }
 115:Generated_Source\PSoC6\pdl\drivers\peripheral\ipc/cy_ipc_drv.c ****     return (retStatus);
 116:Generated_Source\PSoC6\pdl\drivers\peripheral\ipc/cy_ipc_drv.c **** }
 178              		.loc 1 116 0
 179              		@ sp needed
 180              	.LVL24:
 181 0030 70BD     		pop	{r4, r5, r6, pc}
 182              	.L14:
 183 0032 C046     		.align	2
 184              	.L13:
 185 0034 01008A00 		.word	9043969
 186 0038 BB020000 		.word	699
 187 003c 00000000 		.word	.LC1
 188              		.cfi_endproc
 189              	.LFE65:
 190              		.size	Cy_IPC_Drv_SendMsgWord, .-Cy_IPC_Drv_SendMsgWord
 191              		.section	.text.Cy_IPC_Drv_ReadMsgWord,"ax",%progbits
 192              		.align	2
 193              		.global	Cy_IPC_Drv_ReadMsgWord
 194              		.code	16
 195              		.thumb_func
 196              		.type	Cy_IPC_Drv_ReadMsgWord, %function
 197              	Cy_IPC_Drv_ReadMsgWord:
 198              	.LFB66:
 117:Generated_Source\PSoC6\pdl\drivers\peripheral\ipc/cy_ipc_drv.c **** 
 118:Generated_Source\PSoC6\pdl\drivers\peripheral\ipc/cy_ipc_drv.c **** 
 119:Generated_Source\PSoC6\pdl\drivers\peripheral\ipc/cy_ipc_drv.c **** /*******************************************************************************
 120:Generated_Source\PSoC6\pdl\drivers\peripheral\ipc/cy_ipc_drv.c **** * Function Name: Cy_IPC_Drv_ReadMsgWord
 121:Generated_Source\PSoC6\pdl\drivers\peripheral\ipc/cy_ipc_drv.c **** ****************************************************************************//**
 122:Generated_Source\PSoC6\pdl\drivers\peripheral\ipc/cy_ipc_drv.c **** *
 123:Generated_Source\PSoC6\pdl\drivers\peripheral\ipc/cy_ipc_drv.c **** * This function is used to read a 32-bit word message through an IPC channel.
 124:Generated_Source\PSoC6\pdl\drivers\peripheral\ipc/cy_ipc_drv.c **** * This function assumes that the channel is locked (for a valid message).
 125:Generated_Source\PSoC6\pdl\drivers\peripheral\ipc/cy_ipc_drv.c **** * If the channel is not locked, the message is invalid.  The user must call
 126:Generated_Source\PSoC6\pdl\drivers\peripheral\ipc/cy_ipc_drv.c **** * Cy_IPC_Drv_Release() function after reading the message to release the
 127:Generated_Source\PSoC6\pdl\drivers\peripheral\ipc/cy_ipc_drv.c **** * IPC channel.
 128:Generated_Source\PSoC6\pdl\drivers\peripheral\ipc/cy_ipc_drv.c **** *
 129:Generated_Source\PSoC6\pdl\drivers\peripheral\ipc/cy_ipc_drv.c **** * \param base
 130:Generated_Source\PSoC6\pdl\drivers\peripheral\ipc/cy_ipc_drv.c **** * This parameter is a handle that represents the base address of the registers
ARM GAS  C:\Users\Rolf\AppData\Local\Temp\ccDBBlzw.s 			page 24


 131:Generated_Source\PSoC6\pdl\drivers\peripheral\ipc/cy_ipc_drv.c **** * of the IPC channel.
 132:Generated_Source\PSoC6\pdl\drivers\peripheral\ipc/cy_ipc_drv.c **** * The parameter is generally returned from a call to the \ref
 133:Generated_Source\PSoC6\pdl\drivers\peripheral\ipc/cy_ipc_drv.c **** * Cy_IPC_Drv_GetIpcBaseAddress.
 134:Generated_Source\PSoC6\pdl\drivers\peripheral\ipc/cy_ipc_drv.c **** *
 135:Generated_Source\PSoC6\pdl\drivers\peripheral\ipc/cy_ipc_drv.c **** * \param message
 136:Generated_Source\PSoC6\pdl\drivers\peripheral\ipc/cy_ipc_drv.c **** *  A variable where the read data is copied.
 137:Generated_Source\PSoC6\pdl\drivers\peripheral\ipc/cy_ipc_drv.c **** *
 138:Generated_Source\PSoC6\pdl\drivers\peripheral\ipc/cy_ipc_drv.c **** * \return  Status of the operation
 139:Generated_Source\PSoC6\pdl\drivers\peripheral\ipc/cy_ipc_drv.c **** *   \retval CY_IPC_DRV_SUCCESS: The function executed successfully and the IPC
 140:Generated_Source\PSoC6\pdl\drivers\peripheral\ipc/cy_ipc_drv.c **** *                       was acquired.
 141:Generated_Source\PSoC6\pdl\drivers\peripheral\ipc/cy_ipc_drv.c **** *   \retval CY_IPC_DRV_ERROR:   The function encountered an error because the IPC
 142:Generated_Source\PSoC6\pdl\drivers\peripheral\ipc/cy_ipc_drv.c **** *                       channel was already in a released state, meaning the data
 143:Generated_Source\PSoC6\pdl\drivers\peripheral\ipc/cy_ipc_drv.c **** *                       may be invalid.
 144:Generated_Source\PSoC6\pdl\drivers\peripheral\ipc/cy_ipc_drv.c **** *
 145:Generated_Source\PSoC6\pdl\drivers\peripheral\ipc/cy_ipc_drv.c **** * \funcusage
 146:Generated_Source\PSoC6\pdl\drivers\peripheral\ipc/cy_ipc_drv.c **** * \snippet IPC_sut_01.cydsn/main_cm4.c snippet_Cy_IPC_Drv_ReadMsgWord
 147:Generated_Source\PSoC6\pdl\drivers\peripheral\ipc/cy_ipc_drv.c **** *
 148:Generated_Source\PSoC6\pdl\drivers\peripheral\ipc/cy_ipc_drv.c **** *******************************************************************************/
 149:Generated_Source\PSoC6\pdl\drivers\peripheral\ipc/cy_ipc_drv.c **** cy_en_ipcdrv_status_t  Cy_IPC_Drv_ReadMsgWord (IPC_STRUCT_Type const * base, uint32_t * message)
 150:Generated_Source\PSoC6\pdl\drivers\peripheral\ipc/cy_ipc_drv.c **** {
 199              		.loc 1 150 0
 200              		.cfi_startproc
 201              		@ args = 0, pretend = 0, frame = 0
 202              		@ frame_needed = 0, uses_anonymous_args = 0
 203              	.LVL25:
 204 0000 70B5     		push	{r4, r5, r6, lr}
 205              		.cfi_def_cfa_offset 16
 206              		.cfi_offset 4, -16
 207              		.cfi_offset 5, -12
 208              		.cfi_offset 6, -8
 209              		.cfi_offset 14, -4
 210 0002 0500     		movs	r5, r0
 211 0004 0C1E     		subs	r4, r1, #0
 151:Generated_Source\PSoC6\pdl\drivers\peripheral\ipc/cy_ipc_drv.c ****     cy_en_ipcdrv_status_t retStatus;
 152:Generated_Source\PSoC6\pdl\drivers\peripheral\ipc/cy_ipc_drv.c **** 
 153:Generated_Source\PSoC6\pdl\drivers\peripheral\ipc/cy_ipc_drv.c ****     CY_ASSERT_L1(NULL != message);
 212              		.loc 1 153 0
 213 0006 03D1     		bne	.L16
 214              		.loc 1 153 0 is_stmt 0 discriminator 1
 215 0008 9921     		movs	r1, #153
 216              	.LVL26:
 217 000a 0848     		ldr	r0, .L19
 218              	.LVL27:
 219 000c FFF7FEFF 		bl	Cy_SysLib_AssertFailed
 220              	.LVL28:
 221              	.L16:
 222              	.LBB26:
 223              	.LBB27:
 804:Generated_Source\PSoC6\pdl\drivers\peripheral\ipc/cy_ipc_drv.h **** }
 224              		.loc 2 804 0 is_stmt 1
 225 0010 074B     		ldr	r3, .L19+4
 226 0012 1A68     		ldr	r2, [r3]
 227 0014 B423     		movs	r3, #180
 228 0016 D358     		ldr	r3, [r2, r3]
 229 0018 5B19     		adds	r3, r3, r5
 230 001a 1B68     		ldr	r3, [r3]
 231              	.LVL29:
ARM GAS  C:\Users\Rolf\AppData\Local\Temp\ccDBBlzw.s 			page 25


 232              	.LBE27:
 233              	.LBE26:
 154:Generated_Source\PSoC6\pdl\drivers\peripheral\ipc/cy_ipc_drv.c **** 
 155:Generated_Source\PSoC6\pdl\drivers\peripheral\ipc/cy_ipc_drv.c ****     if ( Cy_IPC_Drv_IsLockAcquired(base) )
 234              		.loc 1 155 0
 235 001c 002B     		cmp	r3, #0
 236 001e 03DA     		bge	.L18
 237              	.LVL30:
 238              	.LBB28:
 239              	.LBB29:
 776:Generated_Source\PSoC6\pdl\drivers\peripheral\ipc/cy_ipc_drv.h **** }
 240              		.loc 2 776 0
 241 0020 EB68     		ldr	r3, [r5, #12]
 242              	.LVL31:
 243              	.LBE29:
 244              	.LBE28:
 156:Generated_Source\PSoC6\pdl\drivers\peripheral\ipc/cy_ipc_drv.c ****     {
 157:Generated_Source\PSoC6\pdl\drivers\peripheral\ipc/cy_ipc_drv.c ****         /* The channel is locked; message is valid. */
 158:Generated_Source\PSoC6\pdl\drivers\peripheral\ipc/cy_ipc_drv.c ****         *message = Cy_IPC_Drv_ReadDataValue(base);
 245              		.loc 1 158 0
 246 0022 2360     		str	r3, [r4]
 247              	.LVL32:
 159:Generated_Source\PSoC6\pdl\drivers\peripheral\ipc/cy_ipc_drv.c **** 
 160:Generated_Source\PSoC6\pdl\drivers\peripheral\ipc/cy_ipc_drv.c ****         retStatus = CY_IPC_DRV_SUCCESS;
 248              		.loc 1 160 0
 249 0024 0020     		movs	r0, #0
 250 0026 00E0     		b	.L17
 251              	.LVL33:
 252              	.L18:
 161:Generated_Source\PSoC6\pdl\drivers\peripheral\ipc/cy_ipc_drv.c ****     }
 162:Generated_Source\PSoC6\pdl\drivers\peripheral\ipc/cy_ipc_drv.c ****     else
 163:Generated_Source\PSoC6\pdl\drivers\peripheral\ipc/cy_ipc_drv.c ****     {
 164:Generated_Source\PSoC6\pdl\drivers\peripheral\ipc/cy_ipc_drv.c ****         /* The channel is not locked so channel is invalid. */
 165:Generated_Source\PSoC6\pdl\drivers\peripheral\ipc/cy_ipc_drv.c ****         retStatus = CY_IPC_DRV_ERROR;
 253              		.loc 1 165 0
 254 0028 0248     		ldr	r0, .L19+8
 255              	.L17:
 256              	.LVL34:
 166:Generated_Source\PSoC6\pdl\drivers\peripheral\ipc/cy_ipc_drv.c ****     }
 167:Generated_Source\PSoC6\pdl\drivers\peripheral\ipc/cy_ipc_drv.c ****     return(retStatus);
 168:Generated_Source\PSoC6\pdl\drivers\peripheral\ipc/cy_ipc_drv.c **** }
 257              		.loc 1 168 0
 258              		@ sp needed
 259              	.LVL35:
 260              	.LVL36:
 261 002a 70BD     		pop	{r4, r5, r6, pc}
 262              	.L20:
 263              		.align	2
 264              	.L19:
 265 002c 40000000 		.word	.LC4
 266 0030 00000000 		.word	cy_device
 267 0034 01008A00 		.word	9043969
 268              		.cfi_endproc
 269              	.LFE66:
 270              		.size	Cy_IPC_Drv_ReadMsgWord, .-Cy_IPC_Drv_ReadMsgWord
 271              		.section	.rodata.str1.4,"aMS",%progbits,1
 272              		.align	2
ARM GAS  C:\Users\Rolf\AppData\Local\Temp\ccDBBlzw.s 			page 26


 273              	.LC1:
 274 0000 47656E65 		.ascii	"Generated_Source\\PSoC6\\pdl\\drivers\\peripheral\\"
 274      72617465 
 274      645F536F 
 274      75726365 
 274      5C50536F 
 275 002e 6970635C 		.ascii	"ipc\\cy_ipc_drv.h\000"
 275      63795F69 
 275      70635F64 
 275      72762E68 
 275      00
 276 003f 00       		.space	1
 277              	.LC4:
 278 0040 47656E65 		.ascii	"Generated_Source\\PSoC6\\pdl\\drivers\\peripheral\\"
 278      72617465 
 278      645F536F 
 278      75726365 
 278      5C50536F 
 279 006e 6970635C 		.ascii	"ipc\\cy_ipc_drv.c\000"
 279      63795F69 
 279      70635F64 
 279      72762E63 
 279      00
 280              		.text
 281              	.Letext0:
 282              		.file 3 "c:\\program files (x86)\\cypress\\psoc creator\\4.4\\4.4\\psoc creator\\import\\gnu\\arm\
 283              		.file 4 "c:\\program files (x86)\\cypress\\psoc creator\\4.4\\4.4\\psoc creator\\import\\gnu\\arm\
 284              		.file 5 "Generated_Source\\PSoC6\\pdl\\devices/psoc6/include/ip/cyip_ipc.h"
 285              		.file 6 "Generated_Source\\PSoC6\\pdl\\drivers/peripheral/device/cy_device.h"
 286              		.file 7 "Generated_Source\\PSoC6\\pdl\\devices/psoc6/include/psoc6_01_config.h"
 287              		.file 8 "Generated_Source\\PSoC6\\pdl\\drivers/peripheral/syslib/cy_syslib.h"