ARM GAS  C:\Users\Rolf\AppData\Local\Temp\ccnrOcKk.s 			page 1


   1              		.syntax unified
   2              		.cpu cortex-m0plus
   3              		.fpu softvfp
   4              		.eabi_attribute 20, 1
   5              		.eabi_attribute 21, 1
   6              		.eabi_attribute 23, 3
   7              		.eabi_attribute 24, 1
   8              		.eabi_attribute 25, 1
   9              		.eabi_attribute 26, 1
  10              		.eabi_attribute 30, 1
  11              		.eabi_attribute 34, 0
  12              		.eabi_attribute 18, 4
  13              		.thumb
  14              		.syntax unified
  15              		.file	"cy_trigmux.c"
  16              		.text
  17              	.Ltext0:
  18              		.cfi_sections	.debug_frame
  19              		.section	.text.Cy_TrigMux_Connect,"ax",%progbits
  20              		.align	2
  21              		.global	Cy_TrigMux_Connect
  22              		.code	16
  23              		.thumb_func
  24              		.type	Cy_TrigMux_Connect, %function
  25              	Cy_TrigMux_Connect:
  26              	.LFB45:
  27              		.file 1 "Generated_Source\\PSoC6\\pdl\\drivers\\peripheral\\trigmux\\cy_trigmux.c"
   1:Generated_Source\PSoC6\pdl\drivers\peripheral\trigmux/cy_trigmux.c **** /***************************************************************************//**
   2:Generated_Source\PSoC6\pdl\drivers\peripheral\trigmux/cy_trigmux.c **** * \file cy_trigmux.c
   3:Generated_Source\PSoC6\pdl\drivers\peripheral\trigmux/cy_trigmux.c **** * \version 1.20
   4:Generated_Source\PSoC6\pdl\drivers\peripheral\trigmux/cy_trigmux.c **** *
   5:Generated_Source\PSoC6\pdl\drivers\peripheral\trigmux/cy_trigmux.c **** * \brief Trigger mux API.
   6:Generated_Source\PSoC6\pdl\drivers\peripheral\trigmux/cy_trigmux.c **** *
   7:Generated_Source\PSoC6\pdl\drivers\peripheral\trigmux/cy_trigmux.c **** ********************************************************************************
   8:Generated_Source\PSoC6\pdl\drivers\peripheral\trigmux/cy_trigmux.c **** * \copyright
   9:Generated_Source\PSoC6\pdl\drivers\peripheral\trigmux/cy_trigmux.c **** * Copyright 2016-2018, Cypress Semiconductor Corporation.  All rights reserved.
  10:Generated_Source\PSoC6\pdl\drivers\peripheral\trigmux/cy_trigmux.c **** * You may use this file only in accordance with the license, terms, conditions,
  11:Generated_Source\PSoC6\pdl\drivers\peripheral\trigmux/cy_trigmux.c **** * disclaimers, and limitations in the end user license agreement accompanying
  12:Generated_Source\PSoC6\pdl\drivers\peripheral\trigmux/cy_trigmux.c **** * the software package with which this file was provided.
  13:Generated_Source\PSoC6\pdl\drivers\peripheral\trigmux/cy_trigmux.c **** *******************************************************************************/
  14:Generated_Source\PSoC6\pdl\drivers\peripheral\trigmux/cy_trigmux.c **** 
  15:Generated_Source\PSoC6\pdl\drivers\peripheral\trigmux/cy_trigmux.c **** #include "cy_trigmux.h"
  16:Generated_Source\PSoC6\pdl\drivers\peripheral\trigmux/cy_trigmux.c **** #include "cy_device.h"
  17:Generated_Source\PSoC6\pdl\drivers\peripheral\trigmux/cy_trigmux.c **** 
  18:Generated_Source\PSoC6\pdl\drivers\peripheral\trigmux/cy_trigmux.c **** 
  19:Generated_Source\PSoC6\pdl\drivers\peripheral\trigmux/cy_trigmux.c **** #define CY_TRIGMUX_IS_TRIGTYPE_VALID(trigType)  (((trigType) == TRIGGER_TYPE_EDGE) || \
  20:Generated_Source\PSoC6\pdl\drivers\peripheral\trigmux/cy_trigmux.c ****                                                  ((trigType) == TRIGGER_TYPE_LEVEL))
  21:Generated_Source\PSoC6\pdl\drivers\peripheral\trigmux/cy_trigmux.c **** 
  22:Generated_Source\PSoC6\pdl\drivers\peripheral\trigmux/cy_trigmux.c **** #define CY_TRIGMUX_V1_IS_CYCLES_VALID(cycles)   (CY_TRIGGER_INFINITE >= (cycles))
  23:Generated_Source\PSoC6\pdl\drivers\peripheral\trigmux/cy_trigmux.c **** #define CY_TRIGMUX_V2_IS_CYCLES_VALID(cycles)   ((CY_TRIGGER_DEACTIVATE == (cycles)) || \
  24:Generated_Source\PSoC6\pdl\drivers\peripheral\trigmux/cy_trigmux.c ****                                                  (CY_TRIGGER_TWO_CYCLES == (cycles)) || \
  25:Generated_Source\PSoC6\pdl\drivers\peripheral\trigmux/cy_trigmux.c ****                                                  (CY_TRIGGER_INFINITE   == (cycles)))
  26:Generated_Source\PSoC6\pdl\drivers\peripheral\trigmux/cy_trigmux.c **** #define CY_TRIGMUX_IS_CYCLES_VALID(cycles)      ((CY_PERI_V1 && CY_TRIGMUX_V1_IS_CYCLES_VALID(cycle
  27:Generated_Source\PSoC6\pdl\drivers\peripheral\trigmux/cy_trigmux.c ****                                                                 CY_TRIGMUX_V2_IS_CYCLES_VALID(cycle
  28:Generated_Source\PSoC6\pdl\drivers\peripheral\trigmux/cy_trigmux.c **** 
  29:Generated_Source\PSoC6\pdl\drivers\peripheral\trigmux/cy_trigmux.c **** #define CY_TRIGMUX_INTRIG_MASK                  (PERI_TR_CMD_GROUP_SEL_Msk | PERI_TR_GR_TR_OUT_CTL_
  30:Generated_Source\PSoC6\pdl\drivers\peripheral\trigmux/cy_trigmux.c **** #define CY_TRIGMUX_IS_INTRIG_VALID(inTrg)       (0UL == ((inTrg) & (uint32_t)~CY_TRIGMUX_INTRIG_MAS
ARM GAS  C:\Users\Rolf\AppData\Local\Temp\ccnrOcKk.s 			page 2


  31:Generated_Source\PSoC6\pdl\drivers\peripheral\trigmux/cy_trigmux.c **** 
  32:Generated_Source\PSoC6\pdl\drivers\peripheral\trigmux/cy_trigmux.c **** #define CY_TRIGMUX_OUTTRIG_MASK                 (PERI_TR_CMD_OUT_SEL_Msk | PERI_TR_CMD_GROUP_SEL_Ms
  33:Generated_Source\PSoC6\pdl\drivers\peripheral\trigmux/cy_trigmux.c **** #define CY_TRIGMUX_IS_OUTTRIG_VALID(outTrg)     ((0UL == ((outTrg) & (uint32_t)~CY_TRIGMUX_OUTTRIG_
  34:Generated_Source\PSoC6\pdl\drivers\peripheral\trigmux/cy_trigmux.c ****                                                  (0UL != ((outTrg) & PERI_TR_CMD_OUT_SEL_Msk)))
  35:Generated_Source\PSoC6\pdl\drivers\peripheral\trigmux/cy_trigmux.c **** 
  36:Generated_Source\PSoC6\pdl\drivers\peripheral\trigmux/cy_trigmux.c **** #define CY_TRIGMUX_ONETRIG_MASK                 (PERI_V2_TR_CMD_OUT_SEL_Msk | PERI_V2_TR_CMD_GROUP_
  37:Generated_Source\PSoC6\pdl\drivers\peripheral\trigmux/cy_trigmux.c **** #define CY_TRIGMUX_IS_ONETRIG_VALID(oneTrg)     ((0UL == ((oneTrg) & (uint32_t)~CY_TRIGMUX_ONETRIG_
  38:Generated_Source\PSoC6\pdl\drivers\peripheral\trigmux/cy_trigmux.c ****                                                  (0UL != ((oneTrg) & PERI_V2_TR_CMD_OUT_SEL_Msk)) &
  39:Generated_Source\PSoC6\pdl\drivers\peripheral\trigmux/cy_trigmux.c ****                                                  (0UL != ((oneTrg) & (PERI_V2_TR_CMD_GROUP_SEL_Msk 
  40:Generated_Source\PSoC6\pdl\drivers\peripheral\trigmux/cy_trigmux.c **** 
  41:Generated_Source\PSoC6\pdl\drivers\peripheral\trigmux/cy_trigmux.c **** #define CY_TRIGMUX_TRIGLINE_MASK                (PERI_TR_CMD_OUT_SEL_Msk | CY_PERI_TR_CMD_GROUP_SEL
  42:Generated_Source\PSoC6\pdl\drivers\peripheral\trigmux/cy_trigmux.c **** #define CY_TRIGMUX_IS_TRIGLINE_VALID(trgLn)     (0U == ((trgLn) & (uint32_t)~CY_TRIGMUX_TRIGLINE_MA
  43:Generated_Source\PSoC6\pdl\drivers\peripheral\trigmux/cy_trigmux.c **** 
  44:Generated_Source\PSoC6\pdl\drivers\peripheral\trigmux/cy_trigmux.c **** #define CY_TRIGMUX_TR_CTL(outTrig)              (PERI_TR_GR_TR_CTL(_FLD2VAL(CY_PERI_TR_CMD_GROUP_SE
  45:Generated_Source\PSoC6\pdl\drivers\peripheral\trigmux/cy_trigmux.c ****                                                                    _FLD2VAL(CY_PERI_TR_CTL_SEL,    
  46:Generated_Source\PSoC6\pdl\drivers\peripheral\trigmux/cy_trigmux.c **** 
  47:Generated_Source\PSoC6\pdl\drivers\peripheral\trigmux/cy_trigmux.c **** 
  48:Generated_Source\PSoC6\pdl\drivers\peripheral\trigmux/cy_trigmux.c **** /*******************************************************************************
  49:Generated_Source\PSoC6\pdl\drivers\peripheral\trigmux/cy_trigmux.c **** * Function Name: Cy_TrigMux_Connect
  50:Generated_Source\PSoC6\pdl\drivers\peripheral\trigmux/cy_trigmux.c **** ****************************************************************************//**
  51:Generated_Source\PSoC6\pdl\drivers\peripheral\trigmux/cy_trigmux.c **** *
  52:Generated_Source\PSoC6\pdl\drivers\peripheral\trigmux/cy_trigmux.c **** * Connects an input trigger source and output trigger.
  53:Generated_Source\PSoC6\pdl\drivers\peripheral\trigmux/cy_trigmux.c **** *
  54:Generated_Source\PSoC6\pdl\drivers\peripheral\trigmux/cy_trigmux.c **** * \param inTrig
  55:Generated_Source\PSoC6\pdl\drivers\peripheral\trigmux/cy_trigmux.c **** * An input selection for the trigger mux.
  56:Generated_Source\PSoC6\pdl\drivers\peripheral\trigmux/cy_trigmux.c **** * - Bit 30 should be cleared.
  57:Generated_Source\PSoC6\pdl\drivers\peripheral\trigmux/cy_trigmux.c **** * - Bit 12 should be cleared.
  58:Generated_Source\PSoC6\pdl\drivers\peripheral\trigmux/cy_trigmux.c **** * - Bits 11:8 represent the trigger group selection.
  59:Generated_Source\PSoC6\pdl\drivers\peripheral\trigmux/cy_trigmux.c **** * - Bits 7:0 select the input trigger signal for the specified trigger multiplexer.
  60:Generated_Source\PSoC6\pdl\drivers\peripheral\trigmux/cy_trigmux.c **** *
  61:Generated_Source\PSoC6\pdl\drivers\peripheral\trigmux/cy_trigmux.c **** * \param outTrig
  62:Generated_Source\PSoC6\pdl\drivers\peripheral\trigmux/cy_trigmux.c **** * The output of the trigger mux. This refers to the consumer of the trigger mux.
  63:Generated_Source\PSoC6\pdl\drivers\peripheral\trigmux/cy_trigmux.c **** * - Bit 30 should be set.
  64:Generated_Source\PSoC6\pdl\drivers\peripheral\trigmux/cy_trigmux.c **** * - Bit 12 should be cleared.
  65:Generated_Source\PSoC6\pdl\drivers\peripheral\trigmux/cy_trigmux.c **** * - Bits 11:8 represent the trigger group selection.<br>
  66:Generated_Source\PSoC6\pdl\drivers\peripheral\trigmux/cy_trigmux.c **** *  For PERI_ver1:
  67:Generated_Source\PSoC6\pdl\drivers\peripheral\trigmux/cy_trigmux.c **** * - Bits 6:0 select the output trigger number in the trigger group.<br>
  68:Generated_Source\PSoC6\pdl\drivers\peripheral\trigmux/cy_trigmux.c **** *  For PERI_ver2:
  69:Generated_Source\PSoC6\pdl\drivers\peripheral\trigmux/cy_trigmux.c **** * - Bits 7:0 select the output trigger number in the trigger group.
  70:Generated_Source\PSoC6\pdl\drivers\peripheral\trigmux/cy_trigmux.c **** *
  71:Generated_Source\PSoC6\pdl\drivers\peripheral\trigmux/cy_trigmux.c **** * \param invert
  72:Generated_Source\PSoC6\pdl\drivers\peripheral\trigmux/cy_trigmux.c **** * - true: The output trigger is inverted.
  73:Generated_Source\PSoC6\pdl\drivers\peripheral\trigmux/cy_trigmux.c **** * - false: The output trigger is not inverted.
  74:Generated_Source\PSoC6\pdl\drivers\peripheral\trigmux/cy_trigmux.c **** *
  75:Generated_Source\PSoC6\pdl\drivers\peripheral\trigmux/cy_trigmux.c **** * \param trigType The trigger signal type.
  76:Generated_Source\PSoC6\pdl\drivers\peripheral\trigmux/cy_trigmux.c **** * - TRIGGER_TYPE_EDGE: The trigger is synchronized to the consumer blocks clock
  77:Generated_Source\PSoC6\pdl\drivers\peripheral\trigmux/cy_trigmux.c **** *   and a two-cycle pulse is generated on this clock.
  78:Generated_Source\PSoC6\pdl\drivers\peripheral\trigmux/cy_trigmux.c **** * - TRIGGER_TYPE_LEVEL: The trigger is a simple level output.
  79:Generated_Source\PSoC6\pdl\drivers\peripheral\trigmux/cy_trigmux.c **** *
  80:Generated_Source\PSoC6\pdl\drivers\peripheral\trigmux/cy_trigmux.c **** * \return status:
  81:Generated_Source\PSoC6\pdl\drivers\peripheral\trigmux/cy_trigmux.c **** * - CY_TRIGMUX_SUCCESS: The connection is made successfully.
  82:Generated_Source\PSoC6\pdl\drivers\peripheral\trigmux/cy_trigmux.c **** * - CY_TRIGMUX_BAD_PARAM: Some parameter is invalid.
  83:Generated_Source\PSoC6\pdl\drivers\peripheral\trigmux/cy_trigmux.c **** *
  84:Generated_Source\PSoC6\pdl\drivers\peripheral\trigmux/cy_trigmux.c **** * \funcusage
  85:Generated_Source\PSoC6\pdl\drivers\peripheral\trigmux/cy_trigmux.c **** * \snippet trigmux\1.20\snippet\main.c snippet_Cy_TrigMux_Connect
  86:Generated_Source\PSoC6\pdl\drivers\peripheral\trigmux/cy_trigmux.c **** *  
  87:Generated_Source\PSoC6\pdl\drivers\peripheral\trigmux/cy_trigmux.c **** *******************************************************************************/
ARM GAS  C:\Users\Rolf\AppData\Local\Temp\ccnrOcKk.s 			page 3


  88:Generated_Source\PSoC6\pdl\drivers\peripheral\trigmux/cy_trigmux.c **** cy_en_trigmux_status_t Cy_TrigMux_Connect(uint32_t inTrig, uint32_t outTrig, bool invert, en_trig_t
  89:Generated_Source\PSoC6\pdl\drivers\peripheral\trigmux/cy_trigmux.c **** {
  28              		.loc 1 89 0
  29              		.cfi_startproc
  30              		@ args = 0, pretend = 0, frame = 8
  31              		@ frame_needed = 0, uses_anonymous_args = 0
  32              	.LVL0:
  33 0000 F0B5     		push	{r4, r5, r6, r7, lr}
  34              		.cfi_def_cfa_offset 20
  35              		.cfi_offset 4, -20
  36              		.cfi_offset 5, -16
  37              		.cfi_offset 6, -12
  38              		.cfi_offset 7, -8
  39              		.cfi_offset 14, -4
  40 0002 4F46     		mov	r7, r9
  41 0004 4646     		mov	r6, r8
  42 0006 C0B4     		push	{r6, r7}
  43              		.cfi_def_cfa_offset 28
  44              		.cfi_offset 8, -28
  45              		.cfi_offset 9, -24
  46 0008 83B0     		sub	sp, sp, #12
  47              		.cfi_def_cfa_offset 40
  48 000a 0600     		movs	r6, r0
  49 000c 0D00     		movs	r5, r1
  50 000e 0092     		str	r2, [sp]
  51 0010 1F00     		movs	r7, r3
  52              	.LVL1:
  90:Generated_Source\PSoC6\pdl\drivers\peripheral\trigmux/cy_trigmux.c ****     cy_en_trigmux_status_t retVal = CY_TRIGMUX_BAD_PARAM;
  91:Generated_Source\PSoC6\pdl\drivers\peripheral\trigmux/cy_trigmux.c ****     CY_ASSERT_L3(CY_TRIGMUX_IS_TRIGTYPE_VALID(trigType));
  53              		.loc 1 91 0
  54 0012 012B     		cmp	r3, #1
  55 0014 03D9     		bls	.L2
  56              		.loc 1 91 0 is_stmt 0 discriminator 1
  57 0016 5B21     		movs	r1, #91
  58              	.LVL2:
  59 0018 2B48     		ldr	r0, .L9
  60              	.LVL3:
  61 001a FFF7FEFF 		bl	Cy_SysLib_AssertFailed
  62              	.LVL4:
  63              	.L2:
  92:Generated_Source\PSoC6\pdl\drivers\peripheral\trigmux/cy_trigmux.c ****     CY_ASSERT_L2(CY_TRIGMUX_IS_INTRIG_VALID(inTrig));
  64              		.loc 1 92 0 is_stmt 1
  65 001e 330B     		lsrs	r3, r6, #12
  66 0020 03D0     		beq	.L3
  67              		.loc 1 92 0 is_stmt 0 discriminator 1
  68 0022 5C21     		movs	r1, #92
  69 0024 2848     		ldr	r0, .L9
  70 0026 FFF7FEFF 		bl	Cy_SysLib_AssertFailed
  71              	.LVL5:
  72              	.L3:
  93:Generated_Source\PSoC6\pdl\drivers\peripheral\trigmux/cy_trigmux.c ****     CY_ASSERT_L2(CY_TRIGMUX_IS_OUTTRIG_VALID(outTrig));
  73              		.loc 1 93 0 is_stmt 1
  74 002a 284B     		ldr	r3, .L9+4
  75 002c 1A68     		ldr	r2, [r3]
  76 002e 6E23     		movs	r3, #110
  77 0030 D35A     		ldrh	r3, [r2, r3]
  78 0032 9B08     		lsrs	r3, r3, #2
ARM GAS  C:\Users\Rolf\AppData\Local\Temp\ccnrOcKk.s 			page 4


  79 0034 013B     		subs	r3, r3, #1
  80 0036 264A     		ldr	r2, .L9+8
  81 0038 1343     		orrs	r3, r2
  82 003a 2A00     		movs	r2, r5
  83 003c 9A43     		bics	r2, r3
  84 003e 01D1     		bne	.L4
  85              		.loc 1 93 0 is_stmt 0 discriminator 2
  86 0040 6B00     		lsls	r3, r5, #1
  87 0042 03D4     		bmi	.L5
  88              	.L4:
  89              		.loc 1 93 0 discriminator 3
  90 0044 5D21     		movs	r1, #93
  91 0046 2048     		ldr	r0, .L9
  92 0048 FFF7FEFF 		bl	Cy_SysLib_AssertFailed
  93              	.LVL6:
  94              	.L5:
  94:Generated_Source\PSoC6\pdl\drivers\peripheral\trigmux/cy_trigmux.c **** 
  95:Generated_Source\PSoC6\pdl\drivers\peripheral\trigmux/cy_trigmux.c ****     /* inTrig and outTrig should be in the same group */
  96:Generated_Source\PSoC6\pdl\drivers\peripheral\trigmux/cy_trigmux.c ****     if ((inTrig & PERI_TR_CMD_GROUP_SEL_Msk) == (outTrig & PERI_TR_CMD_GROUP_SEL_Msk))
  95              		.loc 1 96 0 is_stmt 1
  96 004c 3200     		movs	r2, r6
  97 004e 6A40     		eors	r2, r5
  98 0050 F023     		movs	r3, #240
  99 0052 1B01     		lsls	r3, r3, #4
 100 0054 1A40     		ands	r2, r3
 101 0056 141E     		subs	r4, r2, #0
 102 0058 2FD1     		bne	.L8
 103              	.LBB2:
  97:Generated_Source\PSoC6\pdl\drivers\peripheral\trigmux/cy_trigmux.c ****     {
  98:Generated_Source\PSoC6\pdl\drivers\peripheral\trigmux/cy_trigmux.c ****         uint32_t interruptState = Cy_SysLib_EnterCriticalSection();
 104              		.loc 1 98 0
 105 005a FFF7FEFF 		bl	Cy_SysLib_EnterCriticalSection
 106              	.LVL7:
 107 005e 0190     		str	r0, [sp, #4]
 108              	.LVL8:
  99:Generated_Source\PSoC6\pdl\drivers\peripheral\trigmux/cy_trigmux.c **** 
 100:Generated_Source\PSoC6\pdl\drivers\peripheral\trigmux/cy_trigmux.c ****         CY_TRIGMUX_TR_CTL(outTrig) = (CY_TRIGMUX_TR_CTL(outTrig) &
 109              		.loc 1 100 0
 110 0060 1A4B     		ldr	r3, .L9+4
 111 0062 1868     		ldr	r0, [r3]
 112              	.LVL9:
 113 0064 6C23     		movs	r3, #108
 114 0066 C15A     		ldrh	r1, [r0, r3]
 115 0068 8368     		ldr	r3, [r0, #8]
 116 006a 9C46     		mov	ip, r3
 117 006c 6144     		add	r1, r1, ip
 118 006e 6E23     		movs	r3, #110
 119 0070 C35A     		ldrh	r3, [r0, r3]
 120 0072 9A08     		lsrs	r2, r3, #2
 121 0074 013A     		subs	r2, r2, #1
 122 0076 2A40     		ands	r2, r5
 123 0078 9200     		lsls	r2, r2, #2
 124 007a 9046     		mov	r8, r2
 125 007c 6A22     		movs	r2, #106
 126 007e 825A     		ldrh	r2, [r0, r2]
 127 0080 1540     		ands	r5, r2
 128              	.LVL10:
ARM GAS  C:\Users\Rolf\AppData\Local\Temp\ccnrOcKk.s 			page 5


 129 0082 2D0A     		lsrs	r5, r5, #8
 130 0084 5D43     		muls	r5, r3
 131 0086 2A00     		movs	r2, r5
 132 0088 4244     		add	r2, r2, r8
 133 008a 5518     		adds	r5, r2, r1
 134 008c 2A68     		ldr	r2, [r5]
 135 008e 920A     		lsrs	r2, r2, #10
 136 0090 9202     		lsls	r2, r2, #10
 101:Generated_Source\PSoC6\pdl\drivers\peripheral\trigmux/cy_trigmux.c ****                                       (uint32_t)~(PERI_TR_GR_TR_OUT_CTL_TR_SEL_Msk |
 102:Generated_Source\PSoC6\pdl\drivers\peripheral\trigmux/cy_trigmux.c ****                                                   PERI_TR_GR_TR_OUT_CTL_TR_INV_Msk |
 103:Generated_Source\PSoC6\pdl\drivers\peripheral\trigmux/cy_trigmux.c ****                                                   PERI_TR_GR_TR_OUT_CTL_TR_EDGE_Msk)) |
 104:Generated_Source\PSoC6\pdl\drivers\peripheral\trigmux/cy_trigmux.c ****                                         (_VAL2FLD(PERI_TR_GR_TR_OUT_CTL_TR_SEL, inTrig) |
 137              		.loc 1 104 0
 138 0092 FF23     		movs	r3, #255
 139 0094 1E40     		ands	r6, r3
 140              	.LVL11:
 105:Generated_Source\PSoC6\pdl\drivers\peripheral\trigmux/cy_trigmux.c ****                                         _BOOL2FLD(PERI_TR_GR_TR_OUT_CTL_TR_INV, invert) |
 141              		.loc 1 105 0
 142 0096 009B     		ldr	r3, [sp]
 143 0098 002B     		cmp	r3, #0
 144 009a 01D0     		beq	.L7
 145 009c 0134     		adds	r4, r4, #1
 146 009e FF34     		adds	r4, r4, #255
 147              	.L7:
 104:Generated_Source\PSoC6\pdl\drivers\peripheral\trigmux/cy_trigmux.c ****                                         _BOOL2FLD(PERI_TR_GR_TR_OUT_CTL_TR_INV, invert) |
 148              		.loc 1 104 0
 149 00a0 2643     		orrs	r6, r4
 106:Generated_Source\PSoC6\pdl\drivers\peripheral\trigmux/cy_trigmux.c ****                                          _VAL2FLD(PERI_TR_GR_TR_OUT_CTL_TR_EDGE, trigType));
 150              		.loc 1 106 0
 151 00a2 7F02     		lsls	r7, r7, #9
 152 00a4 8023     		movs	r3, #128
 153 00a6 9B00     		lsls	r3, r3, #2
 154 00a8 1F40     		ands	r7, r3
 105:Generated_Source\PSoC6\pdl\drivers\peripheral\trigmux/cy_trigmux.c ****                                         _BOOL2FLD(PERI_TR_GR_TR_OUT_CTL_TR_INV, invert) |
 155              		.loc 1 105 0
 156 00aa 3E43     		orrs	r6, r7
 103:Generated_Source\PSoC6\pdl\drivers\peripheral\trigmux/cy_trigmux.c ****                                         (_VAL2FLD(PERI_TR_GR_TR_OUT_CTL_TR_SEL, inTrig) |
 157              		.loc 1 103 0
 158 00ac 1643     		orrs	r6, r2
 100:Generated_Source\PSoC6\pdl\drivers\peripheral\trigmux/cy_trigmux.c ****                                       (uint32_t)~(PERI_TR_GR_TR_OUT_CTL_TR_SEL_Msk |
 159              		.loc 1 100 0
 160 00ae 2E60     		str	r6, [r5]
 107:Generated_Source\PSoC6\pdl\drivers\peripheral\trigmux/cy_trigmux.c **** 
 108:Generated_Source\PSoC6\pdl\drivers\peripheral\trigmux/cy_trigmux.c ****         Cy_SysLib_ExitCriticalSection(interruptState);
 161              		.loc 1 108 0
 162 00b0 0198     		ldr	r0, [sp, #4]
 163 00b2 FFF7FEFF 		bl	Cy_SysLib_ExitCriticalSection
 164              	.LVL12:
 109:Generated_Source\PSoC6\pdl\drivers\peripheral\trigmux/cy_trigmux.c **** 
 110:Generated_Source\PSoC6\pdl\drivers\peripheral\trigmux/cy_trigmux.c ****         retVal = CY_TRIGMUX_SUCCESS;
 165              		.loc 1 110 0
 166 00b6 0020     		movs	r0, #0
 167 00b8 00E0     		b	.L6
 168              	.LVL13:
 169              	.L8:
 170              	.LBE2:
  90:Generated_Source\PSoC6\pdl\drivers\peripheral\trigmux/cy_trigmux.c ****     CY_ASSERT_L3(CY_TRIGMUX_IS_TRIGTYPE_VALID(trigType));
ARM GAS  C:\Users\Rolf\AppData\Local\Temp\ccnrOcKk.s 			page 6


 171              		.loc 1 90 0
 172 00ba 0648     		ldr	r0, .L9+12
 173              	.LVL14:
 174              	.L6:
 111:Generated_Source\PSoC6\pdl\drivers\peripheral\trigmux/cy_trigmux.c ****     }
 112:Generated_Source\PSoC6\pdl\drivers\peripheral\trigmux/cy_trigmux.c **** 
 113:Generated_Source\PSoC6\pdl\drivers\peripheral\trigmux/cy_trigmux.c ****     return retVal;
 114:Generated_Source\PSoC6\pdl\drivers\peripheral\trigmux/cy_trigmux.c **** }
 175              		.loc 1 114 0
 176 00bc 03B0     		add	sp, sp, #12
 177              		@ sp needed
 178 00be 0CBC     		pop	{r2, r3}
 179 00c0 9046     		mov	r8, r2
 180 00c2 9946     		mov	r9, r3
 181 00c4 F0BD     		pop	{r4, r5, r6, r7, pc}
 182              	.L10:
 183 00c6 C046     		.align	2
 184              	.L9:
 185 00c8 00000000 		.word	.LC0
 186 00cc 00000000 		.word	cy_device
 187 00d0 000F0040 		.word	1073745664
 188 00d4 0100CE00 		.word	13500417
 189              		.cfi_endproc
 190              	.LFE45:
 191              		.size	Cy_TrigMux_Connect, .-Cy_TrigMux_Connect
 192              		.section	.text.Cy_TrigMux_Select,"ax",%progbits
 193              		.align	2
 194              		.global	Cy_TrigMux_Select
 195              		.code	16
 196              		.thumb_func
 197              		.type	Cy_TrigMux_Select, %function
 198              	Cy_TrigMux_Select:
 199              	.LFB46:
 115:Generated_Source\PSoC6\pdl\drivers\peripheral\trigmux/cy_trigmux.c **** 
 116:Generated_Source\PSoC6\pdl\drivers\peripheral\trigmux/cy_trigmux.c **** 
 117:Generated_Source\PSoC6\pdl\drivers\peripheral\trigmux/cy_trigmux.c **** /*******************************************************************************
 118:Generated_Source\PSoC6\pdl\drivers\peripheral\trigmux/cy_trigmux.c **** * Function Name: Cy_TrigMux_Select
 119:Generated_Source\PSoC6\pdl\drivers\peripheral\trigmux/cy_trigmux.c **** ****************************************************************************//**
 120:Generated_Source\PSoC6\pdl\drivers\peripheral\trigmux/cy_trigmux.c **** *
 121:Generated_Source\PSoC6\pdl\drivers\peripheral\trigmux/cy_trigmux.c **** * Enables and configures the specified 1-to-1 trigger line. For PERI_ver2 only.
 122:Generated_Source\PSoC6\pdl\drivers\peripheral\trigmux/cy_trigmux.c **** *
 123:Generated_Source\PSoC6\pdl\drivers\peripheral\trigmux/cy_trigmux.c **** * \param outTrig
 124:Generated_Source\PSoC6\pdl\drivers\peripheral\trigmux/cy_trigmux.c **** * The 1to1 trigger line.
 125:Generated_Source\PSoC6\pdl\drivers\peripheral\trigmux/cy_trigmux.c **** * - Bit 30 should be set.
 126:Generated_Source\PSoC6\pdl\drivers\peripheral\trigmux/cy_trigmux.c **** * - Bit 12 should be set.
 127:Generated_Source\PSoC6\pdl\drivers\peripheral\trigmux/cy_trigmux.c **** * - Bits 11:8 represent the 1-to-1 trigger group selection.
 128:Generated_Source\PSoC6\pdl\drivers\peripheral\trigmux/cy_trigmux.c **** * - Bits 7:0 select the trigger line number in the trigger group.
 129:Generated_Source\PSoC6\pdl\drivers\peripheral\trigmux/cy_trigmux.c **** *
 130:Generated_Source\PSoC6\pdl\drivers\peripheral\trigmux/cy_trigmux.c **** * \param invert
 131:Generated_Source\PSoC6\pdl\drivers\peripheral\trigmux/cy_trigmux.c **** * - true: The trigger signal is inverted.
 132:Generated_Source\PSoC6\pdl\drivers\peripheral\trigmux/cy_trigmux.c **** * - false: The trigger signal is not inverted.
 133:Generated_Source\PSoC6\pdl\drivers\peripheral\trigmux/cy_trigmux.c **** *
 134:Generated_Source\PSoC6\pdl\drivers\peripheral\trigmux/cy_trigmux.c **** * \param trigType The trigger signal type.
 135:Generated_Source\PSoC6\pdl\drivers\peripheral\trigmux/cy_trigmux.c **** * - TRIGGER_TYPE_EDGE: The trigger is synchronized to the consumer blocks clock
 136:Generated_Source\PSoC6\pdl\drivers\peripheral\trigmux/cy_trigmux.c **** *   and a two-cycle pulse is generated on this clock.
 137:Generated_Source\PSoC6\pdl\drivers\peripheral\trigmux/cy_trigmux.c **** * - TRIGGER_TYPE_LEVEL: The trigger is a simple level output.
 138:Generated_Source\PSoC6\pdl\drivers\peripheral\trigmux/cy_trigmux.c **** *
ARM GAS  C:\Users\Rolf\AppData\Local\Temp\ccnrOcKk.s 			page 7


 139:Generated_Source\PSoC6\pdl\drivers\peripheral\trigmux/cy_trigmux.c **** * \return status:
 140:Generated_Source\PSoC6\pdl\drivers\peripheral\trigmux/cy_trigmux.c **** * - CY_TRIGMUX_SUCCESS: The selection is made successfully.
 141:Generated_Source\PSoC6\pdl\drivers\peripheral\trigmux/cy_trigmux.c **** * - CY_TRIGMUX_BAD_PARAM: Some parameter is invalid.
 142:Generated_Source\PSoC6\pdl\drivers\peripheral\trigmux/cy_trigmux.c **** *
 143:Generated_Source\PSoC6\pdl\drivers\peripheral\trigmux/cy_trigmux.c **** * \funcusage
 144:Generated_Source\PSoC6\pdl\drivers\peripheral\trigmux/cy_trigmux.c **** * \snippet trigmux\1.20\snippet\main.c snippet_Cy_TrigMux_Select
 145:Generated_Source\PSoC6\pdl\drivers\peripheral\trigmux/cy_trigmux.c **** *  
 146:Generated_Source\PSoC6\pdl\drivers\peripheral\trigmux/cy_trigmux.c **** *******************************************************************************/
 147:Generated_Source\PSoC6\pdl\drivers\peripheral\trigmux/cy_trigmux.c **** cy_en_trigmux_status_t Cy_TrigMux_Select(uint32_t outTrig, bool invert, en_trig_type_t trigType)
 148:Generated_Source\PSoC6\pdl\drivers\peripheral\trigmux/cy_trigmux.c **** {
 200              		.loc 1 148 0
 201              		.cfi_startproc
 202              		@ args = 0, pretend = 0, frame = 0
 203              		@ frame_needed = 0, uses_anonymous_args = 0
 204              	.LVL15:
 205 0000 F0B5     		push	{r4, r5, r6, r7, lr}
 206              		.cfi_def_cfa_offset 20
 207              		.cfi_offset 4, -20
 208              		.cfi_offset 5, -16
 209              		.cfi_offset 6, -12
 210              		.cfi_offset 7, -8
 211              		.cfi_offset 14, -4
 212 0002 4746     		mov	r7, r8
 213 0004 80B4     		push	{r7}
 214              		.cfi_def_cfa_offset 24
 215              		.cfi_offset 8, -24
 216 0006 0500     		movs	r5, r0
 217 0008 0C00     		movs	r4, r1
 218 000a 1600     		movs	r6, r2
 219              	.LVL16:
 149:Generated_Source\PSoC6\pdl\drivers\peripheral\trigmux/cy_trigmux.c ****     cy_en_trigmux_status_t retVal = CY_TRIGMUX_BAD_PARAM;
 150:Generated_Source\PSoC6\pdl\drivers\peripheral\trigmux/cy_trigmux.c ****     
 151:Generated_Source\PSoC6\pdl\drivers\peripheral\trigmux/cy_trigmux.c ****     CY_ASSERT_L3(CY_TRIGMUX_IS_TRIGTYPE_VALID(trigType));
 220              		.loc 1 151 0
 221 000c 012A     		cmp	r2, #1
 222 000e 03D9     		bls	.L12
 223              		.loc 1 151 0 is_stmt 0 discriminator 1
 224 0010 9721     		movs	r1, #151
 225              	.LVL17:
 226 0012 2648     		ldr	r0, .L19
 227              	.LVL18:
 228 0014 FFF7FEFF 		bl	Cy_SysLib_AssertFailed
 229              	.LVL19:
 230              	.L12:
 152:Generated_Source\PSoC6\pdl\drivers\peripheral\trigmux/cy_trigmux.c ****     CY_ASSERT_L2(CY_TRIGMUX_IS_ONETRIG_VALID(outTrig));
 231              		.loc 1 152 0 is_stmt 1
 232 0018 254B     		ldr	r3, .L19+4
 233 001a 1A68     		ldr	r2, [r3]
 234 001c 6E23     		movs	r3, #110
 235 001e D35A     		ldrh	r3, [r2, r3]
 236 0020 9B08     		lsrs	r3, r3, #2
 237 0022 013B     		subs	r3, r3, #1
 238 0024 234A     		ldr	r2, .L19+8
 239 0026 1343     		orrs	r3, r2
 240 0028 2A00     		movs	r2, r5
 241 002a 9A43     		bics	r2, r3
 242 002c 04D1     		bne	.L13
ARM GAS  C:\Users\Rolf\AppData\Local\Temp\ccnrOcKk.s 			page 8


 243              		.loc 1 152 0 is_stmt 0 discriminator 2
 244 002e 224B     		ldr	r3, .L19+12
 245 0030 2A00     		movs	r2, r5
 246 0032 1A40     		ands	r2, r3
 247 0034 9A42     		cmp	r2, r3
 248 0036 03D0     		beq	.L14
 249              	.L13:
 250              		.loc 1 152 0 discriminator 3
 251 0038 9821     		movs	r1, #152
 252 003a 1C48     		ldr	r0, .L19
 253 003c FFF7FEFF 		bl	Cy_SysLib_AssertFailed
 254              	.LVL20:
 255              	.L14:
 153:Generated_Source\PSoC6\pdl\drivers\peripheral\trigmux/cy_trigmux.c **** 
 154:Generated_Source\PSoC6\pdl\drivers\peripheral\trigmux/cy_trigmux.c ****     if (!CY_PERI_V1)
 256              		.loc 1 154 0 is_stmt 1
 257 0040 1B4B     		ldr	r3, .L19+4
 258 0042 1A68     		ldr	r2, [r3]
 259 0044 2F23     		movs	r3, #47
 260 0046 D35C     		ldrb	r3, [r2, r3]
 261 0048 012B     		cmp	r3, #1
 262 004a 2BD0     		beq	.L17
 263              	.LBB3:
 155:Generated_Source\PSoC6\pdl\drivers\peripheral\trigmux/cy_trigmux.c ****     {
 156:Generated_Source\PSoC6\pdl\drivers\peripheral\trigmux/cy_trigmux.c ****         uint32_t interruptState;
 157:Generated_Source\PSoC6\pdl\drivers\peripheral\trigmux/cy_trigmux.c **** 
 158:Generated_Source\PSoC6\pdl\drivers\peripheral\trigmux/cy_trigmux.c ****         interruptState = Cy_SysLib_EnterCriticalSection();
 264              		.loc 1 158 0
 265 004c FFF7FEFF 		bl	Cy_SysLib_EnterCriticalSection
 266              	.LVL21:
 159:Generated_Source\PSoC6\pdl\drivers\peripheral\trigmux/cy_trigmux.c **** 
 160:Generated_Source\PSoC6\pdl\drivers\peripheral\trigmux/cy_trigmux.c ****         CY_TRIGMUX_TR_CTL(outTrig) = (CY_TRIGMUX_TR_CTL(outTrig) &
 267              		.loc 1 160 0
 268 0050 174B     		ldr	r3, .L19+4
 269 0052 1F68     		ldr	r7, [r3]
 270 0054 6C23     		movs	r3, #108
 271 0056 FA5A     		ldrh	r2, [r7, r3]
 272 0058 BB68     		ldr	r3, [r7, #8]
 273 005a 9C46     		mov	ip, r3
 274 005c 6244     		add	r2, r2, ip
 275 005e 6E23     		movs	r3, #110
 276 0060 F95A     		ldrh	r1, [r7, r3]
 277 0062 8B08     		lsrs	r3, r1, #2
 278 0064 013B     		subs	r3, r3, #1
 279 0066 2B40     		ands	r3, r5
 280 0068 9B00     		lsls	r3, r3, #2
 281 006a 9846     		mov	r8, r3
 282 006c 6A23     		movs	r3, #106
 283 006e FF5A     		ldrh	r7, [r7, r3]
 284 0070 3D40     		ands	r5, r7
 285              	.LVL22:
 286 0072 2D0A     		lsrs	r5, r5, #8
 287 0074 4D43     		muls	r5, r1
 288 0076 2B00     		movs	r3, r5
 289 0078 4344     		add	r3, r3, r8
 290 007a 9A18     		adds	r2, r3, r2
 291 007c 1168     		ldr	r1, [r2]
ARM GAS  C:\Users\Rolf\AppData\Local\Temp\ccnrOcKk.s 			page 9


 292 007e 0F4B     		ldr	r3, .L19+16
 293 0080 1940     		ands	r1, r3
 161:Generated_Source\PSoC6\pdl\drivers\peripheral\trigmux/cy_trigmux.c ****                           (uint32_t)~(PERI_TR_1TO1_GR_V2_TR_CTL_TR_INV_Msk |
 162:Generated_Source\PSoC6\pdl\drivers\peripheral\trigmux/cy_trigmux.c ****                                       PERI_TR_1TO1_GR_V2_TR_CTL_TR_EDGE_Msk)) |
 163:Generated_Source\PSoC6\pdl\drivers\peripheral\trigmux/cy_trigmux.c ****                                      (PERI_TR_1TO1_GR_V2_TR_CTL_TR_SEL_Msk      |
 294              		.loc 1 163 0
 295 0082 002C     		cmp	r4, #0
 296 0084 02D0     		beq	.L18
 297 0086 0224     		movs	r4, #2
 298 0088 FF34     		adds	r4, r4, #255
 299 008a 00E0     		b	.L16
 300              	.L18:
 301 008c 0124     		movs	r4, #1
 302              	.L16:
 164:Generated_Source\PSoC6\pdl\drivers\peripheral\trigmux/cy_trigmux.c ****                             _BOOL2FLD(PERI_TR_1TO1_GR_V2_TR_CTL_TR_INV, invert) |
 165:Generated_Source\PSoC6\pdl\drivers\peripheral\trigmux/cy_trigmux.c ****                              _VAL2FLD(PERI_TR_1TO1_GR_V2_TR_CTL_TR_EDGE, trigType));
 303              		.loc 1 165 0
 304 008e 7602     		lsls	r6, r6, #9
 305 0090 8023     		movs	r3, #128
 306 0092 9B00     		lsls	r3, r3, #2
 307 0094 1E40     		ands	r6, r3
 164:Generated_Source\PSoC6\pdl\drivers\peripheral\trigmux/cy_trigmux.c ****                             _BOOL2FLD(PERI_TR_1TO1_GR_V2_TR_CTL_TR_INV, invert) |
 308              		.loc 1 164 0
 309 0096 2643     		orrs	r6, r4
 162:Generated_Source\PSoC6\pdl\drivers\peripheral\trigmux/cy_trigmux.c ****                                      (PERI_TR_1TO1_GR_V2_TR_CTL_TR_SEL_Msk      |
 310              		.loc 1 162 0
 311 0098 0E43     		orrs	r6, r1
 160:Generated_Source\PSoC6\pdl\drivers\peripheral\trigmux/cy_trigmux.c ****                           (uint32_t)~(PERI_TR_1TO1_GR_V2_TR_CTL_TR_INV_Msk |
 312              		.loc 1 160 0
 313 009a 1660     		str	r6, [r2]
 166:Generated_Source\PSoC6\pdl\drivers\peripheral\trigmux/cy_trigmux.c **** 
 167:Generated_Source\PSoC6\pdl\drivers\peripheral\trigmux/cy_trigmux.c ****         Cy_SysLib_ExitCriticalSection(interruptState);
 314              		.loc 1 167 0
 315 009c FFF7FEFF 		bl	Cy_SysLib_ExitCriticalSection
 316              	.LVL23:
 168:Generated_Source\PSoC6\pdl\drivers\peripheral\trigmux/cy_trigmux.c **** 
 169:Generated_Source\PSoC6\pdl\drivers\peripheral\trigmux/cy_trigmux.c ****         retVal = CY_TRIGMUX_SUCCESS;
 317              		.loc 1 169 0
 318 00a0 0020     		movs	r0, #0
 319 00a2 00E0     		b	.L15
 320              	.LVL24:
 321              	.L17:
 322              	.LBE3:
 149:Generated_Source\PSoC6\pdl\drivers\peripheral\trigmux/cy_trigmux.c ****     
 323              		.loc 1 149 0
 324 00a4 0648     		ldr	r0, .L19+20
 325              	.LVL25:
 326              	.L15:
 170:Generated_Source\PSoC6\pdl\drivers\peripheral\trigmux/cy_trigmux.c ****     }
 171:Generated_Source\PSoC6\pdl\drivers\peripheral\trigmux/cy_trigmux.c **** 
 172:Generated_Source\PSoC6\pdl\drivers\peripheral\trigmux/cy_trigmux.c ****     return retVal;
 173:Generated_Source\PSoC6\pdl\drivers\peripheral\trigmux/cy_trigmux.c **** }
 327              		.loc 1 173 0
 328              		@ sp needed
 329 00a6 04BC     		pop	{r2}
 330 00a8 9046     		mov	r8, r2
 331 00aa F0BD     		pop	{r4, r5, r6, r7, pc}
ARM GAS  C:\Users\Rolf\AppData\Local\Temp\ccnrOcKk.s 			page 10


 332              	.L20:
 333              		.align	2
 334              	.L19:
 335 00ac 00000000 		.word	.LC0
 336 00b0 00000000 		.word	cy_device
 337 00b4 001F0040 		.word	1073749760
 338 00b8 00100040 		.word	1073745920
 339 00bc FFFCFFFF 		.word	-769
 340 00c0 0100CE00 		.word	13500417
 341              		.cfi_endproc
 342              	.LFE46:
 343              		.size	Cy_TrigMux_Select, .-Cy_TrigMux_Select
 344              		.section	.text.Cy_TrigMux_Deselect,"ax",%progbits
 345              		.align	2
 346              		.global	Cy_TrigMux_Deselect
 347              		.code	16
 348              		.thumb_func
 349              		.type	Cy_TrigMux_Deselect, %function
 350              	Cy_TrigMux_Deselect:
 351              	.LFB47:
 174:Generated_Source\PSoC6\pdl\drivers\peripheral\trigmux/cy_trigmux.c **** 
 175:Generated_Source\PSoC6\pdl\drivers\peripheral\trigmux/cy_trigmux.c **** 
 176:Generated_Source\PSoC6\pdl\drivers\peripheral\trigmux/cy_trigmux.c **** /*******************************************************************************
 177:Generated_Source\PSoC6\pdl\drivers\peripheral\trigmux/cy_trigmux.c **** * Function Name: Cy_TrigMux_Deselect
 178:Generated_Source\PSoC6\pdl\drivers\peripheral\trigmux/cy_trigmux.c **** ****************************************************************************//**
 179:Generated_Source\PSoC6\pdl\drivers\peripheral\trigmux/cy_trigmux.c **** *
 180:Generated_Source\PSoC6\pdl\drivers\peripheral\trigmux/cy_trigmux.c **** * Disables the specified 1-to-1 trigger line. For PERI_ver2 only.
 181:Generated_Source\PSoC6\pdl\drivers\peripheral\trigmux/cy_trigmux.c **** *
 182:Generated_Source\PSoC6\pdl\drivers\peripheral\trigmux/cy_trigmux.c **** * \param outTrig
 183:Generated_Source\PSoC6\pdl\drivers\peripheral\trigmux/cy_trigmux.c **** * The 1to1 trigger line.
 184:Generated_Source\PSoC6\pdl\drivers\peripheral\trigmux/cy_trigmux.c **** * - Bit 30 should be set.
 185:Generated_Source\PSoC6\pdl\drivers\peripheral\trigmux/cy_trigmux.c **** * - Bit 12 should be set.
 186:Generated_Source\PSoC6\pdl\drivers\peripheral\trigmux/cy_trigmux.c **** * - Bits 11:8 represent the 1-to-1 trigger group selection.
 187:Generated_Source\PSoC6\pdl\drivers\peripheral\trigmux/cy_trigmux.c **** * - Bits 7:0 select the trigger line number in the trigger group.
 188:Generated_Source\PSoC6\pdl\drivers\peripheral\trigmux/cy_trigmux.c **** *
 189:Generated_Source\PSoC6\pdl\drivers\peripheral\trigmux/cy_trigmux.c **** * \return status:
 190:Generated_Source\PSoC6\pdl\drivers\peripheral\trigmux/cy_trigmux.c **** * - CY_TRIGMUX_SUCCESS: The deselection is made successfully.
 191:Generated_Source\PSoC6\pdl\drivers\peripheral\trigmux/cy_trigmux.c **** * - CY_TRIGMUX_BAD_PARAM: Some parameter is invalid.
 192:Generated_Source\PSoC6\pdl\drivers\peripheral\trigmux/cy_trigmux.c **** *
 193:Generated_Source\PSoC6\pdl\drivers\peripheral\trigmux/cy_trigmux.c **** * \funcusage
 194:Generated_Source\PSoC6\pdl\drivers\peripheral\trigmux/cy_trigmux.c **** * \snippet trigmux\1.20\snippet\main.c snippet_Cy_TrigMux_Deselect
 195:Generated_Source\PSoC6\pdl\drivers\peripheral\trigmux/cy_trigmux.c **** *  
 196:Generated_Source\PSoC6\pdl\drivers\peripheral\trigmux/cy_trigmux.c **** *******************************************************************************/
 197:Generated_Source\PSoC6\pdl\drivers\peripheral\trigmux/cy_trigmux.c **** cy_en_trigmux_status_t Cy_TrigMux_Deselect(uint32_t outTrig)
 198:Generated_Source\PSoC6\pdl\drivers\peripheral\trigmux/cy_trigmux.c **** {
 352              		.loc 1 198 0
 353              		.cfi_startproc
 354              		@ args = 0, pretend = 0, frame = 0
 355              		@ frame_needed = 0, uses_anonymous_args = 0
 356              	.LVL26:
 357 0000 70B5     		push	{r4, r5, r6, lr}
 358              		.cfi_def_cfa_offset 16
 359              		.cfi_offset 4, -16
 360              		.cfi_offset 5, -12
 361              		.cfi_offset 6, -8
 362              		.cfi_offset 14, -4
 363 0002 0400     		movs	r4, r0
ARM GAS  C:\Users\Rolf\AppData\Local\Temp\ccnrOcKk.s 			page 11


 364              	.LVL27:
 199:Generated_Source\PSoC6\pdl\drivers\peripheral\trigmux/cy_trigmux.c ****     cy_en_trigmux_status_t retVal = CY_TRIGMUX_BAD_PARAM;
 200:Generated_Source\PSoC6\pdl\drivers\peripheral\trigmux/cy_trigmux.c **** 
 201:Generated_Source\PSoC6\pdl\drivers\peripheral\trigmux/cy_trigmux.c ****     CY_ASSERT_L2(CY_TRIGMUX_IS_ONETRIG_VALID(outTrig));
 365              		.loc 1 201 0
 366 0004 1C4B     		ldr	r3, .L26
 367 0006 1A68     		ldr	r2, [r3]
 368 0008 6E23     		movs	r3, #110
 369 000a D35A     		ldrh	r3, [r2, r3]
 370 000c 9B08     		lsrs	r3, r3, #2
 371 000e 013B     		subs	r3, r3, #1
 372 0010 1A4A     		ldr	r2, .L26+4
 373 0012 1343     		orrs	r3, r2
 374 0014 0200     		movs	r2, r0
 375 0016 9A43     		bics	r2, r3
 376 0018 04D1     		bne	.L22
 377              		.loc 1 201 0 is_stmt 0 discriminator 2
 378 001a 194B     		ldr	r3, .L26+8
 379 001c 0200     		movs	r2, r0
 380 001e 1A40     		ands	r2, r3
 381 0020 9A42     		cmp	r2, r3
 382 0022 03D0     		beq	.L23
 383              	.L22:
 384              		.loc 1 201 0 discriminator 3
 385 0024 C921     		movs	r1, #201
 386 0026 1748     		ldr	r0, .L26+12
 387              	.LVL28:
 388 0028 FFF7FEFF 		bl	Cy_SysLib_AssertFailed
 389              	.LVL29:
 390              	.L23:
 202:Generated_Source\PSoC6\pdl\drivers\peripheral\trigmux/cy_trigmux.c **** 
 203:Generated_Source\PSoC6\pdl\drivers\peripheral\trigmux/cy_trigmux.c ****     if (!CY_PERI_V1)
 391              		.loc 1 203 0 is_stmt 1
 392 002c 124B     		ldr	r3, .L26
 393 002e 1A68     		ldr	r2, [r3]
 394 0030 2F23     		movs	r3, #47
 395 0032 D35C     		ldrb	r3, [r2, r3]
 396 0034 012B     		cmp	r3, #1
 397 0036 1DD0     		beq	.L25
 398              	.LBB4:
 204:Generated_Source\PSoC6\pdl\drivers\peripheral\trigmux/cy_trigmux.c ****     {
 205:Generated_Source\PSoC6\pdl\drivers\peripheral\trigmux/cy_trigmux.c ****         uint32_t interruptState;
 206:Generated_Source\PSoC6\pdl\drivers\peripheral\trigmux/cy_trigmux.c **** 
 207:Generated_Source\PSoC6\pdl\drivers\peripheral\trigmux/cy_trigmux.c ****         interruptState = Cy_SysLib_EnterCriticalSection();
 399              		.loc 1 207 0
 400 0038 FFF7FEFF 		bl	Cy_SysLib_EnterCriticalSection
 401              	.LVL30:
 208:Generated_Source\PSoC6\pdl\drivers\peripheral\trigmux/cy_trigmux.c **** 
 209:Generated_Source\PSoC6\pdl\drivers\peripheral\trigmux/cy_trigmux.c ****         CY_TRIGMUX_TR_CTL(outTrig) &= (uint32_t)~(PERI_TR_1TO1_GR_V2_TR_CTL_TR_SEL_Msk |
 402              		.loc 1 209 0
 403 003c 0E4B     		ldr	r3, .L26
 404 003e 1A68     		ldr	r2, [r3]
 405 0040 6C23     		movs	r3, #108
 406 0042 D15A     		ldrh	r1, [r2, r3]
 407 0044 9368     		ldr	r3, [r2, #8]
 408 0046 9C46     		mov	ip, r3
 409 0048 6144     		add	r1, r1, ip
ARM GAS  C:\Users\Rolf\AppData\Local\Temp\ccnrOcKk.s 			page 12


 410 004a 6E23     		movs	r3, #110
 411 004c D55A     		ldrh	r5, [r2, r3]
 412 004e AB08     		lsrs	r3, r5, #2
 413 0050 013B     		subs	r3, r3, #1
 414 0052 6A26     		movs	r6, #106
 415 0054 925B     		ldrh	r2, [r2, r6]
 416 0056 2240     		ands	r2, r4
 417 0058 120A     		lsrs	r2, r2, #8
 418 005a 6A43     		muls	r2, r5
 419 005c 1C40     		ands	r4, r3
 420              	.LVL31:
 421 005e A300     		lsls	r3, r4, #2
 422 0060 D418     		adds	r4, r2, r3
 423 0062 6418     		adds	r4, r4, r1
 424 0064 2268     		ldr	r2, [r4]
 425 0066 084B     		ldr	r3, .L26+16
 426 0068 1340     		ands	r3, r2
 427 006a 2360     		str	r3, [r4]
 210:Generated_Source\PSoC6\pdl\drivers\peripheral\trigmux/cy_trigmux.c ****                                                   PERI_TR_1TO1_GR_V2_TR_CTL_TR_INV_Msk |
 211:Generated_Source\PSoC6\pdl\drivers\peripheral\trigmux/cy_trigmux.c ****                                                   PERI_TR_1TO1_GR_V2_TR_CTL_TR_EDGE_Msk);
 212:Generated_Source\PSoC6\pdl\drivers\peripheral\trigmux/cy_trigmux.c **** 
 213:Generated_Source\PSoC6\pdl\drivers\peripheral\trigmux/cy_trigmux.c ****         Cy_SysLib_ExitCriticalSection(interruptState);
 428              		.loc 1 213 0
 429 006c FFF7FEFF 		bl	Cy_SysLib_ExitCriticalSection
 430              	.LVL32:
 214:Generated_Source\PSoC6\pdl\drivers\peripheral\trigmux/cy_trigmux.c **** 
 215:Generated_Source\PSoC6\pdl\drivers\peripheral\trigmux/cy_trigmux.c ****         retVal = CY_TRIGMUX_SUCCESS;
 431              		.loc 1 215 0
 432 0070 0020     		movs	r0, #0
 433 0072 00E0     		b	.L24
 434              	.LVL33:
 435              	.L25:
 436              	.LBE4:
 199:Generated_Source\PSoC6\pdl\drivers\peripheral\trigmux/cy_trigmux.c **** 
 437              		.loc 1 199 0
 438 0074 0548     		ldr	r0, .L26+20
 439              	.LVL34:
 440              	.L24:
 216:Generated_Source\PSoC6\pdl\drivers\peripheral\trigmux/cy_trigmux.c ****     }
 217:Generated_Source\PSoC6\pdl\drivers\peripheral\trigmux/cy_trigmux.c **** 
 218:Generated_Source\PSoC6\pdl\drivers\peripheral\trigmux/cy_trigmux.c ****     return retVal;
 219:Generated_Source\PSoC6\pdl\drivers\peripheral\trigmux/cy_trigmux.c **** }
 441              		.loc 1 219 0
 442              		@ sp needed
 443 0076 70BD     		pop	{r4, r5, r6, pc}
 444              	.L27:
 445              		.align	2
 446              	.L26:
 447 0078 00000000 		.word	cy_device
 448 007c 001F0040 		.word	1073749760
 449 0080 00100040 		.word	1073745920
 450 0084 00000000 		.word	.LC0
 451 0088 FEFCFFFF 		.word	-770
 452 008c 0100CE00 		.word	13500417
 453              		.cfi_endproc
 454              	.LFE47:
 455              		.size	Cy_TrigMux_Deselect, .-Cy_TrigMux_Deselect
ARM GAS  C:\Users\Rolf\AppData\Local\Temp\ccnrOcKk.s 			page 13


 456              		.section	.text.Cy_TrigMux_SetDebugFreeze,"ax",%progbits
 457              		.align	2
 458              		.global	Cy_TrigMux_SetDebugFreeze
 459              		.code	16
 460              		.thumb_func
 461              		.type	Cy_TrigMux_SetDebugFreeze, %function
 462              	Cy_TrigMux_SetDebugFreeze:
 463              	.LFB48:
 220:Generated_Source\PSoC6\pdl\drivers\peripheral\trigmux/cy_trigmux.c **** 
 221:Generated_Source\PSoC6\pdl\drivers\peripheral\trigmux/cy_trigmux.c **** 
 222:Generated_Source\PSoC6\pdl\drivers\peripheral\trigmux/cy_trigmux.c **** /*******************************************************************************
 223:Generated_Source\PSoC6\pdl\drivers\peripheral\trigmux/cy_trigmux.c **** * Function Name: Cy_TrigMux_SetDebugFreeze
 224:Generated_Source\PSoC6\pdl\drivers\peripheral\trigmux/cy_trigmux.c **** ****************************************************************************//**
 225:Generated_Source\PSoC6\pdl\drivers\peripheral\trigmux/cy_trigmux.c **** *
 226:Generated_Source\PSoC6\pdl\drivers\peripheral\trigmux/cy_trigmux.c **** * Enables/disables the Debug Freeze feature for the specified trigger 
 227:Generated_Source\PSoC6\pdl\drivers\peripheral\trigmux/cy_trigmux.c **** * multiplexer or 1-to-1 trigger line. For PERI_ver2 only.
 228:Generated_Source\PSoC6\pdl\drivers\peripheral\trigmux/cy_trigmux.c **** *
 229:Generated_Source\PSoC6\pdl\drivers\peripheral\trigmux/cy_trigmux.c **** * \param outTrig
 230:Generated_Source\PSoC6\pdl\drivers\peripheral\trigmux/cy_trigmux.c **** * The output of the trigger mux or dedicated 1-to-1 trigger line.
 231:Generated_Source\PSoC6\pdl\drivers\peripheral\trigmux/cy_trigmux.c **** * - Bit 30 should be set.
 232:Generated_Source\PSoC6\pdl\drivers\peripheral\trigmux/cy_trigmux.c **** * - Bits 12:8 represent the trigger group selection.
 233:Generated_Source\PSoC6\pdl\drivers\peripheral\trigmux/cy_trigmux.c **** * - Bits 7:0 select the output trigger number in the trigger group.
 234:Generated_Source\PSoC6\pdl\drivers\peripheral\trigmux/cy_trigmux.c **** *
 235:Generated_Source\PSoC6\pdl\drivers\peripheral\trigmux/cy_trigmux.c **** * \param enable
 236:Generated_Source\PSoC6\pdl\drivers\peripheral\trigmux/cy_trigmux.c **** * - true: The Debug Freeze feature is enabled.
 237:Generated_Source\PSoC6\pdl\drivers\peripheral\trigmux/cy_trigmux.c **** * - false: The Debug Freeze feature is disabled.
 238:Generated_Source\PSoC6\pdl\drivers\peripheral\trigmux/cy_trigmux.c **** *
 239:Generated_Source\PSoC6\pdl\drivers\peripheral\trigmux/cy_trigmux.c **** * \return status:
 240:Generated_Source\PSoC6\pdl\drivers\peripheral\trigmux/cy_trigmux.c **** * - CY_TRIGMUX_SUCCESS: The operation is made successfully.
 241:Generated_Source\PSoC6\pdl\drivers\peripheral\trigmux/cy_trigmux.c **** * - CY_TRIGMUX_BAD_PARAM: The outTrig parameter is invalid.
 242:Generated_Source\PSoC6\pdl\drivers\peripheral\trigmux/cy_trigmux.c **** *
 243:Generated_Source\PSoC6\pdl\drivers\peripheral\trigmux/cy_trigmux.c **** * \funcusage
 244:Generated_Source\PSoC6\pdl\drivers\peripheral\trigmux/cy_trigmux.c **** * \snippet trigmux\1.20\snippet\main.c snippet_Cy_TrigMux_SetDebugFreeze
 245:Generated_Source\PSoC6\pdl\drivers\peripheral\trigmux/cy_trigmux.c **** *  
 246:Generated_Source\PSoC6\pdl\drivers\peripheral\trigmux/cy_trigmux.c **** *******************************************************************************/
 247:Generated_Source\PSoC6\pdl\drivers\peripheral\trigmux/cy_trigmux.c **** cy_en_trigmux_status_t Cy_TrigMux_SetDebugFreeze(uint32_t outTrig, bool enable)
 248:Generated_Source\PSoC6\pdl\drivers\peripheral\trigmux/cy_trigmux.c **** {    
 464              		.loc 1 248 0
 465              		.cfi_startproc
 466              		@ args = 0, pretend = 0, frame = 0
 467              		@ frame_needed = 0, uses_anonymous_args = 0
 468              	.LVL35:
 469 0000 70B5     		push	{r4, r5, r6, lr}
 470              		.cfi_def_cfa_offset 16
 471              		.cfi_offset 4, -16
 472              		.cfi_offset 5, -12
 473              		.cfi_offset 6, -8
 474              		.cfi_offset 14, -4
 475 0002 0400     		movs	r4, r0
 476 0004 0D00     		movs	r5, r1
 477              	.LVL36:
 249:Generated_Source\PSoC6\pdl\drivers\peripheral\trigmux/cy_trigmux.c ****     cy_en_trigmux_status_t retVal = CY_TRIGMUX_BAD_PARAM;
 250:Generated_Source\PSoC6\pdl\drivers\peripheral\trigmux/cy_trigmux.c **** 
 251:Generated_Source\PSoC6\pdl\drivers\peripheral\trigmux/cy_trigmux.c ****     if (!CY_PERI_V1)
 478              		.loc 1 251 0
 479 0006 214B     		ldr	r3, .L33
 480 0008 1A68     		ldr	r2, [r3]
ARM GAS  C:\Users\Rolf\AppData\Local\Temp\ccnrOcKk.s 			page 14


 481 000a 2F23     		movs	r3, #47
 482 000c D35C     		ldrb	r3, [r2, r3]
 483 000e 012B     		cmp	r3, #1
 484 0010 39D0     		beq	.L32
 485              	.LBB5:
 252:Generated_Source\PSoC6\pdl\drivers\peripheral\trigmux/cy_trigmux.c ****     {
 253:Generated_Source\PSoC6\pdl\drivers\peripheral\trigmux/cy_trigmux.c ****         uint32_t interruptState;
 254:Generated_Source\PSoC6\pdl\drivers\peripheral\trigmux/cy_trigmux.c **** 
 255:Generated_Source\PSoC6\pdl\drivers\peripheral\trigmux/cy_trigmux.c ****         interruptState = Cy_SysLib_EnterCriticalSection();
 486              		.loc 1 255 0
 487 0012 FFF7FEFF 		bl	Cy_SysLib_EnterCriticalSection
 488              	.LVL37:
 256:Generated_Source\PSoC6\pdl\drivers\peripheral\trigmux/cy_trigmux.c **** 
 257:Generated_Source\PSoC6\pdl\drivers\peripheral\trigmux/cy_trigmux.c ****         if (enable)
 489              		.loc 1 257 0
 490 0016 002D     		cmp	r5, #0
 491 0018 19D0     		beq	.L30
 258:Generated_Source\PSoC6\pdl\drivers\peripheral\trigmux/cy_trigmux.c ****         {
 259:Generated_Source\PSoC6\pdl\drivers\peripheral\trigmux/cy_trigmux.c ****             CY_TRIGMUX_TR_CTL(outTrig) |= PERI_TR_GR_V2_TR_CTL_DBG_FREEZE_EN_Msk;
 492              		.loc 1 259 0
 493 001a 1C4B     		ldr	r3, .L33
 494 001c 1A68     		ldr	r2, [r3]
 495 001e 6C23     		movs	r3, #108
 496 0020 D15A     		ldrh	r1, [r2, r3]
 497 0022 9368     		ldr	r3, [r2, #8]
 498 0024 9C46     		mov	ip, r3
 499 0026 6144     		add	r1, r1, ip
 500 0028 6E23     		movs	r3, #110
 501 002a D55A     		ldrh	r5, [r2, r3]
 502 002c AB08     		lsrs	r3, r5, #2
 503 002e 013B     		subs	r3, r3, #1
 504 0030 6A26     		movs	r6, #106
 505 0032 925B     		ldrh	r2, [r2, r6]
 506 0034 2240     		ands	r2, r4
 507 0036 120A     		lsrs	r2, r2, #8
 508 0038 6A43     		muls	r2, r5
 509 003a 1C40     		ands	r4, r3
 510              	.LVL38:
 511 003c A300     		lsls	r3, r4, #2
 512 003e D418     		adds	r4, r2, r3
 513 0040 6418     		adds	r4, r4, r1
 514 0042 2368     		ldr	r3, [r4]
 515 0044 8022     		movs	r2, #128
 516 0046 5201     		lsls	r2, r2, #5
 517 0048 1343     		orrs	r3, r2
 518 004a 2360     		str	r3, [r4]
 519 004c 17E0     		b	.L31
 520              	.LVL39:
 521              	.L30:
 260:Generated_Source\PSoC6\pdl\drivers\peripheral\trigmux/cy_trigmux.c ****         }
 261:Generated_Source\PSoC6\pdl\drivers\peripheral\trigmux/cy_trigmux.c ****         else
 262:Generated_Source\PSoC6\pdl\drivers\peripheral\trigmux/cy_trigmux.c ****         {
 263:Generated_Source\PSoC6\pdl\drivers\peripheral\trigmux/cy_trigmux.c ****             CY_TRIGMUX_TR_CTL(outTrig) &= (uint32_t)~PERI_TR_GR_V2_TR_CTL_DBG_FREEZE_EN_Msk;
 522              		.loc 1 263 0
 523 004e 0F4B     		ldr	r3, .L33
 524 0050 1A68     		ldr	r2, [r3]
 525 0052 6C23     		movs	r3, #108
ARM GAS  C:\Users\Rolf\AppData\Local\Temp\ccnrOcKk.s 			page 15


 526 0054 D15A     		ldrh	r1, [r2, r3]
 527 0056 9368     		ldr	r3, [r2, #8]
 528 0058 9C46     		mov	ip, r3
 529 005a 6144     		add	r1, r1, ip
 530 005c 6E23     		movs	r3, #110
 531 005e D55A     		ldrh	r5, [r2, r3]
 532 0060 AB08     		lsrs	r3, r5, #2
 533 0062 013B     		subs	r3, r3, #1
 534 0064 6A26     		movs	r6, #106
 535 0066 925B     		ldrh	r2, [r2, r6]
 536 0068 2240     		ands	r2, r4
 537 006a 120A     		lsrs	r2, r2, #8
 538 006c 6A43     		muls	r2, r5
 539 006e 1C40     		ands	r4, r3
 540              	.LVL40:
 541 0070 A300     		lsls	r3, r4, #2
 542 0072 D418     		adds	r4, r2, r3
 543 0074 6418     		adds	r4, r4, r1
 544 0076 2268     		ldr	r2, [r4]
 545 0078 054B     		ldr	r3, .L33+4
 546 007a 1340     		ands	r3, r2
 547 007c 2360     		str	r3, [r4]
 548              	.L31:
 264:Generated_Source\PSoC6\pdl\drivers\peripheral\trigmux/cy_trigmux.c ****         }
 265:Generated_Source\PSoC6\pdl\drivers\peripheral\trigmux/cy_trigmux.c **** 
 266:Generated_Source\PSoC6\pdl\drivers\peripheral\trigmux/cy_trigmux.c ****         Cy_SysLib_ExitCriticalSection(interruptState);
 549              		.loc 1 266 0
 550 007e FFF7FEFF 		bl	Cy_SysLib_ExitCriticalSection
 551              	.LVL41:
 267:Generated_Source\PSoC6\pdl\drivers\peripheral\trigmux/cy_trigmux.c **** 
 268:Generated_Source\PSoC6\pdl\drivers\peripheral\trigmux/cy_trigmux.c ****         retVal = CY_TRIGMUX_SUCCESS;
 552              		.loc 1 268 0
 553 0082 0020     		movs	r0, #0
 554 0084 00E0     		b	.L29
 555              	.LVL42:
 556              	.L32:
 557              	.LBE5:
 249:Generated_Source\PSoC6\pdl\drivers\peripheral\trigmux/cy_trigmux.c **** 
 558              		.loc 1 249 0
 559 0086 0348     		ldr	r0, .L33+8
 560              	.LVL43:
 561              	.L29:
 269:Generated_Source\PSoC6\pdl\drivers\peripheral\trigmux/cy_trigmux.c ****     }
 270:Generated_Source\PSoC6\pdl\drivers\peripheral\trigmux/cy_trigmux.c **** 
 271:Generated_Source\PSoC6\pdl\drivers\peripheral\trigmux/cy_trigmux.c ****     return retVal;
 272:Generated_Source\PSoC6\pdl\drivers\peripheral\trigmux/cy_trigmux.c **** }
 562              		.loc 1 272 0
 563              		@ sp needed
 564 0088 70BD     		pop	{r4, r5, r6, pc}
 565              	.L34:
 566 008a C046     		.align	2
 567              	.L33:
 568 008c 00000000 		.word	cy_device
 569 0090 FFEFFFFF 		.word	-4097
 570 0094 0100CE00 		.word	13500417
 571              		.cfi_endproc
 572              	.LFE48:
ARM GAS  C:\Users\Rolf\AppData\Local\Temp\ccnrOcKk.s 			page 16


 573              		.size	Cy_TrigMux_SetDebugFreeze, .-Cy_TrigMux_SetDebugFreeze
 574              		.section	.text.Cy_TrigMux_SwTrigger,"ax",%progbits
 575              		.align	2
 576              		.global	Cy_TrigMux_SwTrigger
 577              		.code	16
 578              		.thumb_func
 579              		.type	Cy_TrigMux_SwTrigger, %function
 580              	Cy_TrigMux_SwTrigger:
 581              	.LFB49:
 273:Generated_Source\PSoC6\pdl\drivers\peripheral\trigmux/cy_trigmux.c **** 
 274:Generated_Source\PSoC6\pdl\drivers\peripheral\trigmux/cy_trigmux.c **** 
 275:Generated_Source\PSoC6\pdl\drivers\peripheral\trigmux/cy_trigmux.c **** /*******************************************************************************
 276:Generated_Source\PSoC6\pdl\drivers\peripheral\trigmux/cy_trigmux.c **** * Function Name: Cy_TrigMux_SwTrigger
 277:Generated_Source\PSoC6\pdl\drivers\peripheral\trigmux/cy_trigmux.c **** ****************************************************************************//**
 278:Generated_Source\PSoC6\pdl\drivers\peripheral\trigmux/cy_trigmux.c **** *
 279:Generated_Source\PSoC6\pdl\drivers\peripheral\trigmux/cy_trigmux.c **** * This function generates a software trigger on an input trigger line. 
 280:Generated_Source\PSoC6\pdl\drivers\peripheral\trigmux/cy_trigmux.c **** * All output triggers connected to this input trigger will be triggered. 
 281:Generated_Source\PSoC6\pdl\drivers\peripheral\trigmux/cy_trigmux.c **** * The function also verifies that there is no activated trigger before 
 282:Generated_Source\PSoC6\pdl\drivers\peripheral\trigmux/cy_trigmux.c **** * generating another activation. 
 283:Generated_Source\PSoC6\pdl\drivers\peripheral\trigmux/cy_trigmux.c **** *
 284:Generated_Source\PSoC6\pdl\drivers\peripheral\trigmux/cy_trigmux.c **** * \param trigLine
 285:Generated_Source\PSoC6\pdl\drivers\peripheral\trigmux/cy_trigmux.c **** * The input of the trigger mux.
 286:Generated_Source\PSoC6\pdl\drivers\peripheral\trigmux/cy_trigmux.c **** * - Bit 30 represents if the signal is an input/output. When this bit is set, 
 287:Generated_Source\PSoC6\pdl\drivers\peripheral\trigmux/cy_trigmux.c **** *   the trigger activation is for an output trigger from the trigger multiplexer.
 288:Generated_Source\PSoC6\pdl\drivers\peripheral\trigmux/cy_trigmux.c **** *   When this bit is reset, the trigger activation is for an input trigger to 
 289:Generated_Source\PSoC6\pdl\drivers\peripheral\trigmux/cy_trigmux.c **** *   the trigger multiplexer.
 290:Generated_Source\PSoC6\pdl\drivers\peripheral\trigmux/cy_trigmux.c **** * - Bits 12:8 represent the trigger group selection.<br>
 291:Generated_Source\PSoC6\pdl\drivers\peripheral\trigmux/cy_trigmux.c **** * In case of output trigger line (bit 30 is set):
 292:Generated_Source\PSoC6\pdl\drivers\peripheral\trigmux/cy_trigmux.c **** *  For PERI_ver1:
 293:Generated_Source\PSoC6\pdl\drivers\peripheral\trigmux/cy_trigmux.c **** * - Bits 6:0 select the output trigger number in the trigger group.<br>
 294:Generated_Source\PSoC6\pdl\drivers\peripheral\trigmux/cy_trigmux.c **** *  For PERI_ver2:
 295:Generated_Source\PSoC6\pdl\drivers\peripheral\trigmux/cy_trigmux.c **** * - Bits 7:0 select the output trigger number in the trigger group.
 296:Generated_Source\PSoC6\pdl\drivers\peripheral\trigmux/cy_trigmux.c **** * In case of input trigger line (bit 30 is unset):
 297:Generated_Source\PSoC6\pdl\drivers\peripheral\trigmux/cy_trigmux.c **** * - Bits 7:0 select the input trigger signal for the trigger multiplexer.
 298:Generated_Source\PSoC6\pdl\drivers\peripheral\trigmux/cy_trigmux.c **** *
 299:Generated_Source\PSoC6\pdl\drivers\peripheral\trigmux/cy_trigmux.c **** * \param cycles
 300:Generated_Source\PSoC6\pdl\drivers\peripheral\trigmux/cy_trigmux.c **** *  The number of "Clk_Peri" cycles during which the trigger remains activated.<br>
 301:Generated_Source\PSoC6\pdl\drivers\peripheral\trigmux/cy_trigmux.c **** *  For PERI_ver1: The valid range of cycles is 1 ... 254.<br>
 302:Generated_Source\PSoC6\pdl\drivers\peripheral\trigmux/cy_trigmux.c **** *  For PERI_ver2: The only valid value of cycles is 2 (\ref CY_TRIGGER_TWO_CYCLES).<br>
 303:Generated_Source\PSoC6\pdl\drivers\peripheral\trigmux/cy_trigmux.c **** *  Also there are special values (supported with both PERI_ver1 and PERI_ver2):
 304:Generated_Source\PSoC6\pdl\drivers\peripheral\trigmux/cy_trigmux.c **** *   - CY_TRIGGER_INFINITE - trigger remains activated until the user deactivates it by
 305:Generated_Source\PSoC6\pdl\drivers\peripheral\trigmux/cy_trigmux.c **** *   calling this function with CY_TRIGGER_DEACTIVATE parameter.
 306:Generated_Source\PSoC6\pdl\drivers\peripheral\trigmux/cy_trigmux.c **** *   - CY_TRIGGER_DEACTIVATE - this is used to deactivate the trigger activated by
 307:Generated_Source\PSoC6\pdl\drivers\peripheral\trigmux/cy_trigmux.c **** *   calling this function with CY_TRIGGER_INFINITE parameter.
 308:Generated_Source\PSoC6\pdl\drivers\peripheral\trigmux/cy_trigmux.c **** * 
 309:Generated_Source\PSoC6\pdl\drivers\peripheral\trigmux/cy_trigmux.c **** * \return status:
 310:Generated_Source\PSoC6\pdl\drivers\peripheral\trigmux/cy_trigmux.c **** * - CY_TRIGMUX_SUCCESS: The trigger is successfully activated/deactivated.
 311:Generated_Source\PSoC6\pdl\drivers\peripheral\trigmux/cy_trigmux.c **** * - CY_TRIGMUX_INVALID_STATE: The trigger is already activated/not active.
 312:Generated_Source\PSoC6\pdl\drivers\peripheral\trigmux/cy_trigmux.c **** * - CY_TRIGMUX_BAD_PARAM: Some parameter is invalid.
 313:Generated_Source\PSoC6\pdl\drivers\peripheral\trigmux/cy_trigmux.c **** *
 314:Generated_Source\PSoC6\pdl\drivers\peripheral\trigmux/cy_trigmux.c **** * \funcusage
 315:Generated_Source\PSoC6\pdl\drivers\peripheral\trigmux/cy_trigmux.c **** * \snippet trigmux\1.20\snippet\main.c snippet_Cy_TrigMux_SwTrigger
 316:Generated_Source\PSoC6\pdl\drivers\peripheral\trigmux/cy_trigmux.c **** *
 317:Generated_Source\PSoC6\pdl\drivers\peripheral\trigmux/cy_trigmux.c **** *******************************************************************************/
 318:Generated_Source\PSoC6\pdl\drivers\peripheral\trigmux/cy_trigmux.c **** cy_en_trigmux_status_t Cy_TrigMux_SwTrigger(uint32_t trigLine, uint32_t cycles)
 319:Generated_Source\PSoC6\pdl\drivers\peripheral\trigmux/cy_trigmux.c **** {
 582              		.loc 1 319 0
ARM GAS  C:\Users\Rolf\AppData\Local\Temp\ccnrOcKk.s 			page 17


 583              		.cfi_startproc
 584              		@ args = 0, pretend = 0, frame = 0
 585              		@ frame_needed = 0, uses_anonymous_args = 0
 586              	.LVL44:
 587 0000 70B5     		push	{r4, r5, r6, lr}
 588              		.cfi_def_cfa_offset 16
 589              		.cfi_offset 4, -16
 590              		.cfi_offset 5, -12
 591              		.cfi_offset 6, -8
 592              		.cfi_offset 14, -4
 593 0002 0500     		movs	r5, r0
 594 0004 0C00     		movs	r4, r1
 595              	.LVL45:
 320:Generated_Source\PSoC6\pdl\drivers\peripheral\trigmux/cy_trigmux.c ****     cy_en_trigmux_status_t retVal = CY_TRIGMUX_INVALID_STATE;
 321:Generated_Source\PSoC6\pdl\drivers\peripheral\trigmux/cy_trigmux.c **** 
 322:Generated_Source\PSoC6\pdl\drivers\peripheral\trigmux/cy_trigmux.c ****     CY_ASSERT_L2(CY_TRIGMUX_IS_TRIGLINE_VALID(trigLine));
 596              		.loc 1 322 0
 597 0006 334B     		ldr	r3, .L46
 598 0008 1A68     		ldr	r2, [r3]
 599 000a 6A23     		movs	r3, #106
 600 000c D15A     		ldrh	r1, [r2, r3]
 601              	.LVL46:
 602 000e 0433     		adds	r3, r3, #4
 603 0010 D35A     		ldrh	r3, [r2, r3]
 604 0012 9B08     		lsrs	r3, r3, #2
 605 0014 013B     		subs	r3, r3, #1
 606 0016 0B43     		orrs	r3, r1
 607 0018 8022     		movs	r2, #128
 608 001a D205     		lsls	r2, r2, #23
 609 001c 1343     		orrs	r3, r2
 610 001e 0200     		movs	r2, r0
 611 0020 9A43     		bics	r2, r3
 612 0022 04D0     		beq	.L36
 613              		.loc 1 322 0 is_stmt 0 discriminator 1
 614 0024 A121     		movs	r1, #161
 615 0026 4900     		lsls	r1, r1, #1
 616 0028 2B48     		ldr	r0, .L46+4
 617              	.LVL47:
 618 002a FFF7FEFF 		bl	Cy_SysLib_AssertFailed
 619              	.LVL48:
 620              	.L36:
 323:Generated_Source\PSoC6\pdl\drivers\peripheral\trigmux/cy_trigmux.c ****     CY_ASSERT_L2(CY_TRIGMUX_IS_CYCLES_VALID(cycles));
 621              		.loc 1 323 0 is_stmt 1
 622 002e 294B     		ldr	r3, .L46
 623 0030 1A68     		ldr	r2, [r3]
 624 0032 2F23     		movs	r3, #47
 625 0034 D35C     		ldrb	r3, [r2, r3]
 626 0036 012B     		cmp	r3, #1
 627 0038 01D1     		bne	.L37
 628              		.loc 1 323 0 is_stmt 0 discriminator 2
 629 003a FF2C     		cmp	r4, #255
 630 003c 0AD9     		bls	.L38
 631              	.L37:
 632              		.loc 1 323 0 discriminator 3
 633 003e 002C     		cmp	r4, #0
 634 0040 08D0     		beq	.L38
 635              		.loc 1 323 0 discriminator 4
ARM GAS  C:\Users\Rolf\AppData\Local\Temp\ccnrOcKk.s 			page 18


 636 0042 022C     		cmp	r4, #2
 637 0044 06D0     		beq	.L38
 638              		.loc 1 323 0 discriminator 5
 639 0046 FF2C     		cmp	r4, #255
 640 0048 04D0     		beq	.L38
 641              		.loc 1 323 0 discriminator 6
 642 004a 4421     		movs	r1, #68
 643 004c FF31     		adds	r1, r1, #255
 644 004e 2248     		ldr	r0, .L46+4
 645 0050 FFF7FEFF 		bl	Cy_SysLib_AssertFailed
 646              	.LVL49:
 647              	.L38:
 324:Generated_Source\PSoC6\pdl\drivers\peripheral\trigmux/cy_trigmux.c **** 
 325:Generated_Source\PSoC6\pdl\drivers\peripheral\trigmux/cy_trigmux.c ****     if (CY_TRIGGER_DEACTIVATE != cycles)
 648              		.loc 1 325 0 is_stmt 1
 649 0054 002C     		cmp	r4, #0
 650 0056 2AD0     		beq	.L39
 326:Generated_Source\PSoC6\pdl\drivers\peripheral\trigmux/cy_trigmux.c ****     {
 327:Generated_Source\PSoC6\pdl\drivers\peripheral\trigmux/cy_trigmux.c ****         /* Activate the trigger if it is not in the active state. */
 328:Generated_Source\PSoC6\pdl\drivers\peripheral\trigmux/cy_trigmux.c ****         if (PERI_TR_CMD_ACTIVATE_Msk != (PERI_TR_CMD & PERI_TR_CMD_ACTIVATE_Msk))
 651              		.loc 1 328 0
 652 0058 1E4B     		ldr	r3, .L46
 653 005a 1968     		ldr	r1, [r3]
 654 005c 6823     		movs	r3, #104
 655 005e CB5A     		ldrh	r3, [r1, r3]
 656 0060 8A68     		ldr	r2, [r1, #8]
 657 0062 9446     		mov	ip, r2
 658 0064 6344     		add	r3, r3, ip
 659 0066 1A68     		ldr	r2, [r3]
 660 0068 002A     		cmp	r2, #0
 661 006a 2DDB     		blt	.L43
 662              	.LBB6:
 329:Generated_Source\PSoC6\pdl\drivers\peripheral\trigmux/cy_trigmux.c ****         {
 330:Generated_Source\PSoC6\pdl\drivers\peripheral\trigmux/cy_trigmux.c **** 
 331:Generated_Source\PSoC6\pdl\drivers\peripheral\trigmux/cy_trigmux.c ****             uint32_t trCmd = (trigLine & (PERI_TR_CMD_TR_SEL_Msk |
 332:Generated_Source\PSoC6\pdl\drivers\peripheral\trigmux/cy_trigmux.c ****                                           PERI_TR_CMD_OUT_SEL_Msk |
 333:Generated_Source\PSoC6\pdl\drivers\peripheral\trigmux/cy_trigmux.c ****                                        CY_PERI_TR_CMD_GROUP_SEL_Msk)) |
 663              		.loc 1 333 0
 664 006c 6A22     		movs	r2, #106
 665 006e 8A5A     		ldrh	r2, [r1, r2]
 332:Generated_Source\PSoC6\pdl\drivers\peripheral\trigmux/cy_trigmux.c ****                                        CY_PERI_TR_CMD_GROUP_SEL_Msk)) |
 666              		.loc 1 332 0
 667 0070 1A48     		ldr	r0, .L46+8
 668 0072 0243     		orrs	r2, r0
 331:Generated_Source\PSoC6\pdl\drivers\peripheral\trigmux/cy_trigmux.c ****                                           PERI_TR_CMD_OUT_SEL_Msk |
 669              		.loc 1 331 0
 670 0074 1540     		ands	r5, r2
 671              	.LVL50:
 672 0076 8022     		movs	r2, #128
 673 0078 1206     		lsls	r2, r2, #24
 674 007a 2A43     		orrs	r2, r5
 675              	.LVL51:
 334:Generated_Source\PSoC6\pdl\drivers\peripheral\trigmux/cy_trigmux.c ****                                           PERI_TR_CMD_ACTIVATE_Msk;
 335:Generated_Source\PSoC6\pdl\drivers\peripheral\trigmux/cy_trigmux.c ****             
 336:Generated_Source\PSoC6\pdl\drivers\peripheral\trigmux/cy_trigmux.c ****             retVal = CY_TRIGMUX_SUCCESS;
 337:Generated_Source\PSoC6\pdl\drivers\peripheral\trigmux/cy_trigmux.c ****             
 338:Generated_Source\PSoC6\pdl\drivers\peripheral\trigmux/cy_trigmux.c ****             if (CY_PERI_V1) /* mxperi_v1 */
ARM GAS  C:\Users\Rolf\AppData\Local\Temp\ccnrOcKk.s 			page 19


 676              		.loc 1 338 0
 677 007c 2F20     		movs	r0, #47
 678 007e 095C     		ldrb	r1, [r1, r0]
 679 0080 0129     		cmp	r1, #1
 680 0082 07D1     		bne	.L41
 339:Generated_Source\PSoC6\pdl\drivers\peripheral\trigmux/cy_trigmux.c ****             {
 340:Generated_Source\PSoC6\pdl\drivers\peripheral\trigmux/cy_trigmux.c ****                 PERI_TR_CMD = trCmd | _VAL2FLD(PERI_TR_CMD_COUNT, cycles);
 681              		.loc 1 340 0
 682 0084 2404     		lsls	r4, r4, #16
 683              	.LVL52:
 684 0086 FF21     		movs	r1, #255
 685 0088 0904     		lsls	r1, r1, #16
 686 008a 0C40     		ands	r4, r1
 687 008c 2243     		orrs	r2, r4
 688              	.LVL53:
 689 008e 1A60     		str	r2, [r3]
 336:Generated_Source\PSoC6\pdl\drivers\peripheral\trigmux/cy_trigmux.c ****             
 690              		.loc 1 336 0
 691 0090 0020     		movs	r0, #0
 692 0092 1EE0     		b	.L40
 693              	.LVL54:
 694              	.L41:
 341:Generated_Source\PSoC6\pdl\drivers\peripheral\trigmux/cy_trigmux.c ****             }
 342:Generated_Source\PSoC6\pdl\drivers\peripheral\trigmux/cy_trigmux.c ****             else if (CY_TRIGGER_TWO_CYCLES == cycles) /* mxperi_v2 or later, 2 cycles pulse */
 695              		.loc 1 342 0
 696 0094 022C     		cmp	r4, #2
 697 0096 05D1     		bne	.L42
 343:Generated_Source\PSoC6\pdl\drivers\peripheral\trigmux/cy_trigmux.c ****             {
 344:Generated_Source\PSoC6\pdl\drivers\peripheral\trigmux/cy_trigmux.c ****                 PERI_TR_CMD = trCmd | PERI_V2_TR_CMD_TR_EDGE_Msk;
 698              		.loc 1 344 0
 699 0098 A022     		movs	r2, #160
 700              	.LVL55:
 701 009a 1206     		lsls	r2, r2, #24
 702 009c 1543     		orrs	r5, r2
 703              	.LVL56:
 704 009e 1D60     		str	r5, [r3]
 705              	.LVL57:
 336:Generated_Source\PSoC6\pdl\drivers\peripheral\trigmux/cy_trigmux.c ****             
 706              		.loc 1 336 0
 707 00a0 0020     		movs	r0, #0
 708 00a2 16E0     		b	.L40
 709              	.LVL58:
 710              	.L42:
 345:Generated_Source\PSoC6\pdl\drivers\peripheral\trigmux/cy_trigmux.c ****             }
 346:Generated_Source\PSoC6\pdl\drivers\peripheral\trigmux/cy_trigmux.c ****             else if (CY_TRIGGER_INFINITE == cycles) /* mxperi_v2 or later, infinite activating */
 711              		.loc 1 346 0
 712 00a4 FF2C     		cmp	r4, #255
 713 00a6 11D1     		bne	.L44
 347:Generated_Source\PSoC6\pdl\drivers\peripheral\trigmux/cy_trigmux.c ****             {
 348:Generated_Source\PSoC6\pdl\drivers\peripheral\trigmux/cy_trigmux.c ****                 PERI_TR_CMD = trCmd;
 714              		.loc 1 348 0
 715 00a8 1A60     		str	r2, [r3]
 336:Generated_Source\PSoC6\pdl\drivers\peripheral\trigmux/cy_trigmux.c ****             
 716              		.loc 1 336 0
 717 00aa 0020     		movs	r0, #0
 718 00ac 11E0     		b	.L40
 719              	.LVL59:
ARM GAS  C:\Users\Rolf\AppData\Local\Temp\ccnrOcKk.s 			page 20


 720              	.L39:
 721              	.LBE6:
 349:Generated_Source\PSoC6\pdl\drivers\peripheral\trigmux/cy_trigmux.c ****             }
 350:Generated_Source\PSoC6\pdl\drivers\peripheral\trigmux/cy_trigmux.c ****             else /* mxperi_v2 or later, invalid cycles value */
 351:Generated_Source\PSoC6\pdl\drivers\peripheral\trigmux/cy_trigmux.c ****             {
 352:Generated_Source\PSoC6\pdl\drivers\peripheral\trigmux/cy_trigmux.c ****                 retVal = CY_TRIGMUX_BAD_PARAM;
 353:Generated_Source\PSoC6\pdl\drivers\peripheral\trigmux/cy_trigmux.c ****             }
 354:Generated_Source\PSoC6\pdl\drivers\peripheral\trigmux/cy_trigmux.c ****         }
 355:Generated_Source\PSoC6\pdl\drivers\peripheral\trigmux/cy_trigmux.c ****     }
 356:Generated_Source\PSoC6\pdl\drivers\peripheral\trigmux/cy_trigmux.c ****     else
 357:Generated_Source\PSoC6\pdl\drivers\peripheral\trigmux/cy_trigmux.c ****     {
 358:Generated_Source\PSoC6\pdl\drivers\peripheral\trigmux/cy_trigmux.c ****         /* Forcibly deactivate the trigger if it is in the active state. */
 359:Generated_Source\PSoC6\pdl\drivers\peripheral\trigmux/cy_trigmux.c ****         if (PERI_TR_CMD_ACTIVATE_Msk == (PERI_TR_CMD & PERI_TR_CMD_ACTIVATE_Msk))
 722              		.loc 1 359 0
 723 00ae 094B     		ldr	r3, .L46
 724 00b0 1A68     		ldr	r2, [r3]
 725 00b2 9168     		ldr	r1, [r2, #8]
 726 00b4 6823     		movs	r3, #104
 727 00b6 D35A     		ldrh	r3, [r2, r3]
 728 00b8 CB18     		adds	r3, r1, r3
 729 00ba 1A68     		ldr	r2, [r3]
 730 00bc 002A     		cmp	r2, #0
 731 00be 07DA     		bge	.L45
 360:Generated_Source\PSoC6\pdl\drivers\peripheral\trigmux/cy_trigmux.c ****         {
 361:Generated_Source\PSoC6\pdl\drivers\peripheral\trigmux/cy_trigmux.c ****             PERI_TR_CMD = 0UL;
 732              		.loc 1 361 0
 733 00c0 0022     		movs	r2, #0
 734 00c2 1A60     		str	r2, [r3]
 735              	.LVL60:
 362:Generated_Source\PSoC6\pdl\drivers\peripheral\trigmux/cy_trigmux.c **** 
 363:Generated_Source\PSoC6\pdl\drivers\peripheral\trigmux/cy_trigmux.c ****             retVal = CY_TRIGMUX_SUCCESS;
 736              		.loc 1 363 0
 737 00c4 0020     		movs	r0, #0
 738 00c6 04E0     		b	.L40
 739              	.LVL61:
 740              	.L43:
 320:Generated_Source\PSoC6\pdl\drivers\peripheral\trigmux/cy_trigmux.c **** 
 741              		.loc 1 320 0
 742 00c8 0548     		ldr	r0, .L46+12
 743 00ca 02E0     		b	.L40
 744              	.LVL62:
 745              	.L44:
 746              	.LBB7:
 352:Generated_Source\PSoC6\pdl\drivers\peripheral\trigmux/cy_trigmux.c ****             }
 747              		.loc 1 352 0
 748 00cc 0548     		ldr	r0, .L46+16
 749 00ce 00E0     		b	.L40
 750              	.LVL63:
 751              	.L45:
 752              	.LBE7:
 320:Generated_Source\PSoC6\pdl\drivers\peripheral\trigmux/cy_trigmux.c **** 
 753              		.loc 1 320 0
 754 00d0 0348     		ldr	r0, .L46+12
 755              	.LVL64:
 756              	.L40:
 364:Generated_Source\PSoC6\pdl\drivers\peripheral\trigmux/cy_trigmux.c ****         }
 365:Generated_Source\PSoC6\pdl\drivers\peripheral\trigmux/cy_trigmux.c ****     }
ARM GAS  C:\Users\Rolf\AppData\Local\Temp\ccnrOcKk.s 			page 21


 366:Generated_Source\PSoC6\pdl\drivers\peripheral\trigmux/cy_trigmux.c **** 
 367:Generated_Source\PSoC6\pdl\drivers\peripheral\trigmux/cy_trigmux.c ****     return retVal;
 368:Generated_Source\PSoC6\pdl\drivers\peripheral\trigmux/cy_trigmux.c **** }
 757              		.loc 1 368 0
 758              		@ sp needed
 759 00d2 70BD     		pop	{r4, r5, r6, pc}
 760              	.L47:
 761              		.align	2
 762              	.L46:
 763 00d4 00000000 		.word	cy_device
 764 00d8 00000000 		.word	.LC0
 765 00dc FF000040 		.word	1073742079
 766 00e0 0200CE00 		.word	13500418
 767 00e4 0100CE00 		.word	13500417
 768              		.cfi_endproc
 769              	.LFE49:
 770              		.size	Cy_TrigMux_SwTrigger, .-Cy_TrigMux_SwTrigger
 771              		.section	.rodata.str1.4,"aMS",%progbits,1
 772              		.align	2
 773              	.LC0:
 774 0000 47656E65 		.ascii	"Generated_Source\\PSoC6\\pdl\\drivers\\peripheral\\"
 774      72617465 
 774      645F536F 
 774      75726365 
 774      5C50536F 
 775 002e 74726967 		.ascii	"trigmux\\cy_trigmux.c\000"
 775      6D75785C 
 775      63795F74 
 775      7269676D 
 775      75782E63 
 776              		.text
 777              	.Letext0:
 778              		.file 2 "c:\\program files (x86)\\cypress\\psoc creator\\4.4\\4.4\\psoc creator\\import\\gnu\\arm\
 779              		.file 3 "c:\\program files (x86)\\cypress\\psoc creator\\4.4\\4.4\\psoc creator\\import\\gnu\\arm\
 780              		.file 4 "Generated_Source\\PSoC6\\pdl\\drivers/peripheral/device/cy_device.h"
 781              		.file 5 "Generated_Source\\PSoC6\\pdl\\devices/psoc6/include/psoc6_01_config.h"
 782              		.file 6 "Generated_Source\\PSoC6\\pdl\\drivers/peripheral/syslib/cy_syslib.h"
 783              		.file 7 "Generated_Source\\PSoC6\\pdl\\drivers\\peripheral\\trigmux\\cy_trigmux.h"