ARM GAS  C:\Users\Rolf\AppData\Local\Temp\ccafVfle.s 			page 1


   1              		.syntax unified
   2              		.cpu cortex-m0plus
   3              		.fpu softvfp
   4              		.eabi_attribute 20, 1
   5              		.eabi_attribute 21, 1
   6              		.eabi_attribute 23, 3
   7              		.eabi_attribute 24, 1
   8              		.eabi_attribute 25, 1
   9              		.eabi_attribute 26, 1
  10              		.eabi_attribute 30, 1
  11              		.eabi_attribute 34, 0
  12              		.eabi_attribute 18, 4
  13              		.thumb
  14              		.syntax unified
  15              		.file	"system_psoc6_cm0plus.c"
  16              		.text
  17              	.Ltext0:
  18              		.cfi_sections	.debug_frame
  19              		.section	.text.Cy_SysIpcPipeIsrCm0,"ax",%progbits
  20              		.align	2
  21              		.global	Cy_SysIpcPipeIsrCm0
  22              		.code	16
  23              		.thumb_func
  24              		.type	Cy_SysIpcPipeIsrCm0, %function
  25              	Cy_SysIpcPipeIsrCm0:
  26              	.LFB81:
  27              		.file 1 "system_psoc6_cm0plus.c"
   1:system_psoc6_cm0plus.c **** /***************************************************************************//**
   2:system_psoc6_cm0plus.c **** * \file system_psoc6_cm0plus.c
   3:system_psoc6_cm0plus.c **** * \version 2.20.1
   4:system_psoc6_cm0plus.c **** *
   5:system_psoc6_cm0plus.c **** * The device system-source file.
   6:system_psoc6_cm0plus.c **** *
   7:system_psoc6_cm0plus.c **** ********************************************************************************
   8:system_psoc6_cm0plus.c **** * \copyright
   9:system_psoc6_cm0plus.c **** * Copyright 2016-2020, Cypress Semiconductor Corporation.  All rights reserved.
  10:system_psoc6_cm0plus.c **** * You may use this file only in accordance with the license, terms, conditions,
  11:system_psoc6_cm0plus.c **** * disclaimers, and limitations in the end user license agreement accompanying
  12:system_psoc6_cm0plus.c **** * the software package with which this file was provided.
  13:system_psoc6_cm0plus.c **** *******************************************************************************/
  14:system_psoc6_cm0plus.c **** 
  15:system_psoc6_cm0plus.c **** #include <stdbool.h>
  16:system_psoc6_cm0plus.c **** #include "system_psoc6.h"
  17:system_psoc6_cm0plus.c **** #include "cy_device.h"
  18:system_psoc6_cm0plus.c **** #include "cy_device_headers.h"
  19:system_psoc6_cm0plus.c **** #include "cy_syslib.h"
  20:system_psoc6_cm0plus.c **** #include "cy_wdt.h"
  21:system_psoc6_cm0plus.c **** 
  22:system_psoc6_cm0plus.c **** #if !defined(CY_IPC_DEFAULT_CFG_DISABLE)
  23:system_psoc6_cm0plus.c ****     #include "cy_ipc_sema.h"
  24:system_psoc6_cm0plus.c ****     #include "cy_ipc_pipe.h"
  25:system_psoc6_cm0plus.c ****     #include "cy_ipc_drv.h"
  26:system_psoc6_cm0plus.c **** 
  27:system_psoc6_cm0plus.c ****     #if defined(CY_DEVICE_PSOC6ABLE2)
  28:system_psoc6_cm0plus.c ****         #include "cy_flash.h"
  29:system_psoc6_cm0plus.c ****     #endif /* defined(CY_DEVICE_PSOC6ABLE2) */
  30:system_psoc6_cm0plus.c **** 
ARM GAS  C:\Users\Rolf\AppData\Local\Temp\ccafVfle.s 			page 2


  31:system_psoc6_cm0plus.c **** #endif /* !defined(CY_IPC_DEFAULT_CFG_DISABLE) */
  32:system_psoc6_cm0plus.c **** 
  33:system_psoc6_cm0plus.c **** 
  34:system_psoc6_cm0plus.c **** /*******************************************************************************
  35:system_psoc6_cm0plus.c **** * SystemCoreClockUpdate()
  36:system_psoc6_cm0plus.c **** *******************************************************************************/
  37:system_psoc6_cm0plus.c **** 
  38:system_psoc6_cm0plus.c **** /** Default HFClk frequency in Hz */
  39:system_psoc6_cm0plus.c **** #define CY_CLK_HFCLK0_FREQ_HZ_DEFAULT       (8000000UL)
  40:system_psoc6_cm0plus.c **** 
  41:system_psoc6_cm0plus.c **** /** Default PeriClk frequency in Hz */
  42:system_psoc6_cm0plus.c **** #define CY_CLK_PERICLK_FREQ_HZ_DEFAULT      (4000000UL)
  43:system_psoc6_cm0plus.c **** 
  44:system_psoc6_cm0plus.c **** /** Default SlowClk system core frequency in Hz */
  45:system_psoc6_cm0plus.c **** #define CY_CLK_SYSTEM_FREQ_HZ_DEFAULT       (4000000UL)
  46:system_psoc6_cm0plus.c **** 
  47:system_psoc6_cm0plus.c **** /** IMO frequency in Hz */
  48:system_psoc6_cm0plus.c **** #define CY_CLK_IMO_FREQ_HZ                  (8000000UL)
  49:system_psoc6_cm0plus.c **** 
  50:system_psoc6_cm0plus.c **** /** HVILO frequency in Hz */
  51:system_psoc6_cm0plus.c **** #define CY_CLK_HVILO_FREQ_HZ                (32000UL)
  52:system_psoc6_cm0plus.c **** 
  53:system_psoc6_cm0plus.c **** /** PILO frequency in Hz */
  54:system_psoc6_cm0plus.c **** #define CY_CLK_PILO_FREQ_HZ                 (32768UL)
  55:system_psoc6_cm0plus.c **** 
  56:system_psoc6_cm0plus.c **** /** WCO frequency in Hz */
  57:system_psoc6_cm0plus.c **** #define CY_CLK_WCO_FREQ_HZ                  (32768UL)
  58:system_psoc6_cm0plus.c **** 
  59:system_psoc6_cm0plus.c **** /** ALTLF frequency in Hz */
  60:system_psoc6_cm0plus.c **** #define CY_CLK_ALTLF_FREQ_HZ                (32768UL)
  61:system_psoc6_cm0plus.c **** 
  62:system_psoc6_cm0plus.c **** 
  63:system_psoc6_cm0plus.c **** /**
  64:system_psoc6_cm0plus.c **** * Holds the SlowClk (Cortex-M0+) or FastClk (Cortex-M4) system core clock,
  65:system_psoc6_cm0plus.c **** * which is the system clock frequency supplied to the SysTick timer and the
  66:system_psoc6_cm0plus.c **** * processor core clock.
  67:system_psoc6_cm0plus.c **** * This variable implements CMSIS Core global variable.
  68:system_psoc6_cm0plus.c **** * Refer to the [CMSIS documentation]
  69:system_psoc6_cm0plus.c **** * (http://www.keil.com/pack/doc/CMSIS/Core/html/group__system__init__gr.html "System and Clock Conf
  70:system_psoc6_cm0plus.c **** * for more details.
  71:system_psoc6_cm0plus.c **** * This variable can be used by debuggers to query the frequency
  72:system_psoc6_cm0plus.c **** * of the debug timer or to configure the trace clock speed.
  73:system_psoc6_cm0plus.c **** *
  74:system_psoc6_cm0plus.c **** * \attention Compilers must be configured to avoid removing this variable in case
  75:system_psoc6_cm0plus.c **** * the application program is not using it. Debugging systems require the variable
  76:system_psoc6_cm0plus.c **** * to be physically present in memory so that it can be examined to configure the debugger. */
  77:system_psoc6_cm0plus.c **** uint32_t SystemCoreClock = CY_CLK_SYSTEM_FREQ_HZ_DEFAULT;
  78:system_psoc6_cm0plus.c **** 
  79:system_psoc6_cm0plus.c **** /** Holds the HFClk0 clock frequency. Updated by \ref SystemCoreClockUpdate(). */
  80:system_psoc6_cm0plus.c **** uint32_t cy_Hfclk0FreqHz  = CY_CLK_HFCLK0_FREQ_HZ_DEFAULT;
  81:system_psoc6_cm0plus.c **** 
  82:system_psoc6_cm0plus.c **** /** Holds the PeriClk clock frequency. Updated by \ref SystemCoreClockUpdate(). */
  83:system_psoc6_cm0plus.c **** uint32_t cy_PeriClkFreqHz = CY_CLK_PERICLK_FREQ_HZ_DEFAULT;
  84:system_psoc6_cm0plus.c **** 
  85:system_psoc6_cm0plus.c **** /** Holds the Alternate high frequency clock in Hz. Updated by \ref SystemCoreClockUpdate(). */
  86:system_psoc6_cm0plus.c **** #if (defined (CY_IP_MXBLESS) && (CY_IP_MXBLESS == 1UL)) || defined (CY_DOXYGEN)
  87:system_psoc6_cm0plus.c ****     uint32_t cy_BleEcoClockFreqHz = CY_CLK_ALTHF_FREQ_HZ;
ARM GAS  C:\Users\Rolf\AppData\Local\Temp\ccafVfle.s 			page 3


  88:system_psoc6_cm0plus.c **** #endif /* (defined (CY_IP_MXBLESS) && (CY_IP_MXBLESS == 1UL)) || defined (CY_DOXYGEN) */
  89:system_psoc6_cm0plus.c **** 
  90:system_psoc6_cm0plus.c **** 
  91:system_psoc6_cm0plus.c **** /*******************************************************************************
  92:system_psoc6_cm0plus.c **** * SystemInit()
  93:system_psoc6_cm0plus.c **** *******************************************************************************/
  94:system_psoc6_cm0plus.c **** 
  95:system_psoc6_cm0plus.c **** /* CLK_FLL_CONFIG default values */
  96:system_psoc6_cm0plus.c **** #define CY_FB_CLK_FLL_CONFIG_VALUE      (0x01000000u)
  97:system_psoc6_cm0plus.c **** #define CY_FB_CLK_FLL_CONFIG2_VALUE     (0x00020001u)
  98:system_psoc6_cm0plus.c **** #define CY_FB_CLK_FLL_CONFIG3_VALUE     (0x00002800u)
  99:system_psoc6_cm0plus.c **** #define CY_FB_CLK_FLL_CONFIG4_VALUE     (0x000000FFu)
 100:system_psoc6_cm0plus.c **** 
 101:system_psoc6_cm0plus.c **** 
 102:system_psoc6_cm0plus.c **** /*******************************************************************************
 103:system_psoc6_cm0plus.c **** * SystemCoreClockUpdate (void)
 104:system_psoc6_cm0plus.c **** *******************************************************************************/
 105:system_psoc6_cm0plus.c **** 
 106:system_psoc6_cm0plus.c **** /* Do not use these definitions directly in your application */
 107:system_psoc6_cm0plus.c **** #define CY_DELAY_MS_OVERFLOW_THRESHOLD  (0x8000u)
 108:system_psoc6_cm0plus.c **** #define CY_DELAY_1K_THRESHOLD           (1000u)
 109:system_psoc6_cm0plus.c **** #define CY_DELAY_1K_MINUS_1_THRESHOLD   (CY_DELAY_1K_THRESHOLD - 1u)
 110:system_psoc6_cm0plus.c **** #define CY_DELAY_1M_THRESHOLD           (1000000u)
 111:system_psoc6_cm0plus.c **** #define CY_DELAY_1M_MINUS_1_THRESHOLD   (CY_DELAY_1M_THRESHOLD - 1u)
 112:system_psoc6_cm0plus.c **** uint32_t cy_delayFreqHz   = CY_CLK_SYSTEM_FREQ_HZ_DEFAULT;
 113:system_psoc6_cm0plus.c **** 
 114:system_psoc6_cm0plus.c **** uint32_t cy_delayFreqKhz  = (CY_CLK_SYSTEM_FREQ_HZ_DEFAULT + CY_DELAY_1K_MINUS_1_THRESHOLD) /
 115:system_psoc6_cm0plus.c ****                             CY_DELAY_1K_THRESHOLD;
 116:system_psoc6_cm0plus.c **** 
 117:system_psoc6_cm0plus.c **** uint8_t cy_delayFreqMhz  = (uint8_t)((CY_CLK_SYSTEM_FREQ_HZ_DEFAULT + CY_DELAY_1M_MINUS_1_THRESHOLD
 118:system_psoc6_cm0plus.c ****                             CY_DELAY_1M_THRESHOLD);
 119:system_psoc6_cm0plus.c **** 
 120:system_psoc6_cm0plus.c **** uint32_t cy_delay32kMs    = CY_DELAY_MS_OVERFLOW_THRESHOLD *
 121:system_psoc6_cm0plus.c ****                             ((CY_CLK_SYSTEM_FREQ_HZ_DEFAULT + CY_DELAY_1K_MINUS_1_THRESHOLD) / CY_D
 122:system_psoc6_cm0plus.c **** 
 123:system_psoc6_cm0plus.c **** #define CY_ROOT_PATH_SRC_IMO                (0UL)
 124:system_psoc6_cm0plus.c **** #define CY_ROOT_PATH_SRC_EXT                (1UL)
 125:system_psoc6_cm0plus.c **** #if (SRSS_ECO_PRESENT == 1U)
 126:system_psoc6_cm0plus.c ****     #define CY_ROOT_PATH_SRC_ECO            (2UL)
 127:system_psoc6_cm0plus.c **** #endif /* (SRSS_ECO_PRESENT == 1U) */
 128:system_psoc6_cm0plus.c **** #if (SRSS_ALTHF_PRESENT == 1U)
 129:system_psoc6_cm0plus.c ****     #define CY_ROOT_PATH_SRC_ALTHF          (3UL)
 130:system_psoc6_cm0plus.c **** #endif /* (SRSS_ALTHF_PRESENT == 1U) */
 131:system_psoc6_cm0plus.c **** #define CY_ROOT_PATH_SRC_DSI_MUX            (4UL)
 132:system_psoc6_cm0plus.c **** #define CY_ROOT_PATH_SRC_DSI_MUX_HVILO      (16UL)
 133:system_psoc6_cm0plus.c **** #define CY_ROOT_PATH_SRC_DSI_MUX_WCO        (17UL)
 134:system_psoc6_cm0plus.c **** #if (SRSS_ALTLF_PRESENT == 1U)
 135:system_psoc6_cm0plus.c ****     #define CY_ROOT_PATH_SRC_DSI_MUX_ALTLF  (18UL)
 136:system_psoc6_cm0plus.c **** #endif /* (SRSS_ALTLF_PRESENT == 1U) */
 137:system_psoc6_cm0plus.c **** #if (SRSS_PILO_PRESENT == 1U)
 138:system_psoc6_cm0plus.c ****     #define CY_ROOT_PATH_SRC_DSI_MUX_PILO   (19UL)
 139:system_psoc6_cm0plus.c **** #endif /* (SRSS_PILO_PRESENT == 1U) */
 140:system_psoc6_cm0plus.c **** 
 141:system_psoc6_cm0plus.c **** 
 142:system_psoc6_cm0plus.c **** /*******************************************************************************
 143:system_psoc6_cm0plus.c **** * Cy_SysEnableCM4(), Cy_SysRetainCM4(), and Cy_SysResetCM4()
 144:system_psoc6_cm0plus.c **** *******************************************************************************/
ARM GAS  C:\Users\Rolf\AppData\Local\Temp\ccafVfle.s 			page 4


 145:system_psoc6_cm0plus.c **** #define CY_SYS_CM4_PWR_CTL_KEY_OPEN  (0x05FAUL)
 146:system_psoc6_cm0plus.c **** #define CY_SYS_CM4_PWR_CTL_KEY_CLOSE (0xFA05UL)
 147:system_psoc6_cm0plus.c **** #define CY_SYS_CM4_VECTOR_TABLE_VALID_ADDR  (0x000003FFUL)
 148:system_psoc6_cm0plus.c **** 
 149:system_psoc6_cm0plus.c **** 
 150:system_psoc6_cm0plus.c **** /*******************************************************************************
 151:system_psoc6_cm0plus.c **** * Function Name: SystemInit
 152:system_psoc6_cm0plus.c **** ****************************************************************************//**
 153:system_psoc6_cm0plus.c **** *
 154:system_psoc6_cm0plus.c **** * Initializes the system:
 155:system_psoc6_cm0plus.c **** * - Restores FLL registers to the default state.
 156:system_psoc6_cm0plus.c **** * - Unlocks and disables WDT.
 157:system_psoc6_cm0plus.c **** * - Calls Cy_PDL_Init() function to define the driver library.
 158:system_psoc6_cm0plus.c **** * - Calls the Cy_SystemInit() function, if compiled from PSoC Creator.
 159:system_psoc6_cm0plus.c **** * - Calls \ref SystemCoreClockUpdate().
 160:system_psoc6_cm0plus.c **** *
 161:system_psoc6_cm0plus.c **** *******************************************************************************/
 162:system_psoc6_cm0plus.c **** void SystemInit(void)
 163:system_psoc6_cm0plus.c **** {
 164:system_psoc6_cm0plus.c ****     Cy_PDL_Init(CY_DEVICE_CFG);
 165:system_psoc6_cm0plus.c **** 
 166:system_psoc6_cm0plus.c ****     /* Restore FLL registers to the default state as they are not restored by the ROM code */
 167:system_psoc6_cm0plus.c ****     uint32_t copy = SRSS->CLK_FLL_CONFIG;
 168:system_psoc6_cm0plus.c ****     copy &= ~SRSS_CLK_FLL_CONFIG_FLL_ENABLE_Msk;
 169:system_psoc6_cm0plus.c ****     SRSS->CLK_FLL_CONFIG = copy;
 170:system_psoc6_cm0plus.c **** 
 171:system_psoc6_cm0plus.c ****     copy = SRSS->CLK_ROOT_SELECT[0u];
 172:system_psoc6_cm0plus.c ****     copy &= ~SRSS_CLK_ROOT_SELECT_ROOT_DIV_Msk; /* Set ROOT_DIV = 0*/
 173:system_psoc6_cm0plus.c ****     SRSS->CLK_ROOT_SELECT[0u] = copy;
 174:system_psoc6_cm0plus.c **** 
 175:system_psoc6_cm0plus.c ****     SRSS->CLK_FLL_CONFIG  = CY_FB_CLK_FLL_CONFIG_VALUE;
 176:system_psoc6_cm0plus.c ****     SRSS->CLK_FLL_CONFIG2 = CY_FB_CLK_FLL_CONFIG2_VALUE;
 177:system_psoc6_cm0plus.c ****     SRSS->CLK_FLL_CONFIG3 = CY_FB_CLK_FLL_CONFIG3_VALUE;
 178:system_psoc6_cm0plus.c ****     SRSS->CLK_FLL_CONFIG4 = CY_FB_CLK_FLL_CONFIG4_VALUE;
 179:system_psoc6_cm0plus.c **** 
 180:system_psoc6_cm0plus.c ****     /* Unlock and disable WDT */
 181:system_psoc6_cm0plus.c ****     Cy_WDT_Unlock();
 182:system_psoc6_cm0plus.c ****     Cy_WDT_Disable();
 183:system_psoc6_cm0plus.c **** 
 184:system_psoc6_cm0plus.c ****     Cy_SystemInit();
 185:system_psoc6_cm0plus.c ****     SystemCoreClockUpdate();
 186:system_psoc6_cm0plus.c **** 
 187:system_psoc6_cm0plus.c **** #if defined(CY_DEVICE_PSOC6ABLE2) && !defined(CY_PSOC6ABLE2_REV_0A_SUPPORT_DISABLE)
 188:system_psoc6_cm0plus.c ****     if (CY_SYSLIB_DEVICE_REV_0A == Cy_SysLib_GetDeviceRevision())
 189:system_psoc6_cm0plus.c ****     {
 190:system_psoc6_cm0plus.c ****         /* Clear data register of IPC structure #7, reserved for the Deep-Sleep operations. */
 191:system_psoc6_cm0plus.c ****         IPC_STRUCT7->DATA = 0UL;
 192:system_psoc6_cm0plus.c ****         /* Release IPC structure #7 to avoid deadlocks in case of SW or WDT reset during Deep-Sleep
 193:system_psoc6_cm0plus.c ****         IPC_STRUCT7->RELEASE = 0UL;
 194:system_psoc6_cm0plus.c ****     }
 195:system_psoc6_cm0plus.c **** #endif /* defined(CY_DEVICE_PSOC6ABLE2) && !defined(CY_PSOC6ABLE2_REV_0A_SUPPORT_DISABLE) */
 196:system_psoc6_cm0plus.c **** 
 197:system_psoc6_cm0plus.c **** #if !defined(CY_IPC_DEFAULT_CFG_DISABLE)
 198:system_psoc6_cm0plus.c ****     /* Allocate and initialize semaphores for the system operations. */
 199:system_psoc6_cm0plus.c ****     static uint32_t ipcSemaArray[CY_IPC_SEMA_COUNT / CY_IPC_SEMA_PER_WORD];
 200:system_psoc6_cm0plus.c **** 
 201:system_psoc6_cm0plus.c ****     (void) Cy_IPC_Sema_Init(CY_IPC_CHAN_SEMA, CY_IPC_SEMA_COUNT, ipcSemaArray);
ARM GAS  C:\Users\Rolf\AppData\Local\Temp\ccafVfle.s 			page 5


 202:system_psoc6_cm0plus.c **** 
 203:system_psoc6_cm0plus.c **** 
 204:system_psoc6_cm0plus.c ****     /********************************************************************************
 205:system_psoc6_cm0plus.c ****     *
 206:system_psoc6_cm0plus.c ****     * Initializes the system pipes. The system pipes are used by BLE and Flash.
 207:system_psoc6_cm0plus.c ****     *
 208:system_psoc6_cm0plus.c ****     * If the default startup file is not used, or SystemInit() is not called in your 
 209:system_psoc6_cm0plus.c ****     * project, call the following three functions prior to executing any flash or 
 210:system_psoc6_cm0plus.c ****     * EmEEPROM write or erase operation:
 211:system_psoc6_cm0plus.c ****     *  -# Cy_IPC_Sema_Init()
 212:system_psoc6_cm0plus.c ****     *  -# Cy_IPC_Pipe_Config()
 213:system_psoc6_cm0plus.c ****     *  -# Cy_IPC_Pipe_Init()
 214:system_psoc6_cm0plus.c ****     *  -# Cy_Flash_Init()
 215:system_psoc6_cm0plus.c ****     *
 216:system_psoc6_cm0plus.c ****     *******************************************************************************/
 217:system_psoc6_cm0plus.c ****     
 218:system_psoc6_cm0plus.c ****     /* Create an array of endpoint structures */
 219:system_psoc6_cm0plus.c ****     static cy_stc_ipc_pipe_ep_t systemIpcPipeEpArray[CY_IPC_MAX_ENDPOINTS];
 220:system_psoc6_cm0plus.c **** 
 221:system_psoc6_cm0plus.c ****     Cy_IPC_Pipe_Config(systemIpcPipeEpArray);
 222:system_psoc6_cm0plus.c **** 
 223:system_psoc6_cm0plus.c ****     static cy_ipc_pipe_callback_ptr_t systemIpcPipeSysCbArray[CY_SYS_CYPIPE_CLIENT_CNT];
 224:system_psoc6_cm0plus.c **** 
 225:system_psoc6_cm0plus.c ****     static const cy_stc_ipc_pipe_config_t systemIpcPipeConfigCm0 =
 226:system_psoc6_cm0plus.c ****     {
 227:system_psoc6_cm0plus.c ****     /* .ep0ConfigData */
 228:system_psoc6_cm0plus.c ****         {
 229:system_psoc6_cm0plus.c ****             /* .ipcNotifierNumber    */  CY_IPC_INTR_CYPIPE_EP0,
 230:system_psoc6_cm0plus.c ****             /* .ipcNotifierPriority  */  CY_SYS_INTR_CYPIPE_PRIOR_EP0,
 231:system_psoc6_cm0plus.c ****             /* .ipcNotifierMuxNumber */  CY_SYS_INTR_CYPIPE_MUX_EP0,
 232:system_psoc6_cm0plus.c ****             /* .epAddress            */  CY_IPC_EP_CYPIPE_CM0_ADDR,
 233:system_psoc6_cm0plus.c ****             /* .epConfig             */  CY_SYS_CYPIPE_CONFIG_EP0
 234:system_psoc6_cm0plus.c ****         },
 235:system_psoc6_cm0plus.c ****     /* .ep1ConfigData */
 236:system_psoc6_cm0plus.c ****         {
 237:system_psoc6_cm0plus.c ****             /* .ipcNotifierNumber    */  CY_IPC_INTR_CYPIPE_EP1,
 238:system_psoc6_cm0plus.c ****             /* .ipcNotifierPriority  */  CY_SYS_INTR_CYPIPE_PRIOR_EP1,
 239:system_psoc6_cm0plus.c ****             /* .ipcNotifierMuxNumber */  0u,
 240:system_psoc6_cm0plus.c ****             /* .epAddress            */  CY_IPC_EP_CYPIPE_CM4_ADDR,
 241:system_psoc6_cm0plus.c ****             /* .epConfig             */  CY_SYS_CYPIPE_CONFIG_EP1
 242:system_psoc6_cm0plus.c ****         },
 243:system_psoc6_cm0plus.c ****     /* .endpointClientsCount     */  CY_SYS_CYPIPE_CLIENT_CNT,
 244:system_psoc6_cm0plus.c ****     /* .endpointsCallbacksArray  */  systemIpcPipeSysCbArray,
 245:system_psoc6_cm0plus.c ****     /* .userPipeIsrHandler       */  &Cy_SysIpcPipeIsrCm0
 246:system_psoc6_cm0plus.c ****     };
 247:system_psoc6_cm0plus.c **** 
 248:system_psoc6_cm0plus.c ****     if (cy_device->flashPipeRequired != 0u)
 249:system_psoc6_cm0plus.c ****     {
 250:system_psoc6_cm0plus.c ****         Cy_IPC_Pipe_Init(&systemIpcPipeConfigCm0);
 251:system_psoc6_cm0plus.c ****     }
 252:system_psoc6_cm0plus.c **** 
 253:system_psoc6_cm0plus.c **** #if defined(CY_DEVICE_PSOC6ABLE2)
 254:system_psoc6_cm0plus.c ****     Cy_Flash_Init();
 255:system_psoc6_cm0plus.c **** #endif /* defined(CY_DEVICE_PSOC6ABLE2) */
 256:system_psoc6_cm0plus.c **** 
 257:system_psoc6_cm0plus.c **** #endif /* !defined(CY_IPC_DEFAULT_CFG_DISABLE) */
 258:system_psoc6_cm0plus.c **** }
ARM GAS  C:\Users\Rolf\AppData\Local\Temp\ccafVfle.s 			page 6


 259:system_psoc6_cm0plus.c **** 
 260:system_psoc6_cm0plus.c **** 
 261:system_psoc6_cm0plus.c **** /*******************************************************************************
 262:system_psoc6_cm0plus.c **** * Function Name: Cy_SystemInit
 263:system_psoc6_cm0plus.c **** ****************************************************************************//**
 264:system_psoc6_cm0plus.c **** *
 265:system_psoc6_cm0plus.c **** * The function is called during device startup. Once project compiled as part of
 266:system_psoc6_cm0plus.c **** * the PSoC Creator project, the Cy_SystemInit() function is generated by the
 267:system_psoc6_cm0plus.c **** * PSoC Creator.
 268:system_psoc6_cm0plus.c **** *
 269:system_psoc6_cm0plus.c **** * The function generated by PSoC Creator performs all of the necessary device
 270:system_psoc6_cm0plus.c **** * configuration based on the design settings.  This includes settings from the
 271:system_psoc6_cm0plus.c **** * Design Wide Resources (DWR) such as Clocks and Pins as well as any component
 272:system_psoc6_cm0plus.c **** * configuration that is necessary.
 273:system_psoc6_cm0plus.c **** *
 274:system_psoc6_cm0plus.c **** *******************************************************************************/
 275:system_psoc6_cm0plus.c **** __WEAK void Cy_SystemInit(void)
 276:system_psoc6_cm0plus.c **** {
 277:system_psoc6_cm0plus.c ****      /* Empty weak function. The actual implementation to be in the PSoC Creator
 278:system_psoc6_cm0plus.c ****       * generated strong function.
 279:system_psoc6_cm0plus.c ****      */
 280:system_psoc6_cm0plus.c **** }
 281:system_psoc6_cm0plus.c **** 
 282:system_psoc6_cm0plus.c **** 
 283:system_psoc6_cm0plus.c **** /*******************************************************************************
 284:system_psoc6_cm0plus.c **** * Function Name: SystemCoreClockUpdate
 285:system_psoc6_cm0plus.c **** ****************************************************************************//**
 286:system_psoc6_cm0plus.c **** *
 287:system_psoc6_cm0plus.c **** * Gets core clock frequency and updates \ref SystemCoreClock, \ref
 288:system_psoc6_cm0plus.c **** * cy_Hfclk0FreqHz, and \ref cy_PeriClkFreqHz.
 289:system_psoc6_cm0plus.c **** *
 290:system_psoc6_cm0plus.c **** * Updates global variables used by the \ref Cy_SysLib_Delay(), \ref
 291:system_psoc6_cm0plus.c **** * Cy_SysLib_DelayUs(), and \ref Cy_SysLib_DelayCycles().
 292:system_psoc6_cm0plus.c **** *
 293:system_psoc6_cm0plus.c **** *******************************************************************************/
 294:system_psoc6_cm0plus.c **** void SystemCoreClockUpdate (void)
 295:system_psoc6_cm0plus.c **** {
 296:system_psoc6_cm0plus.c ****     uint32_t srcFreqHz;
 297:system_psoc6_cm0plus.c ****     uint32_t pathFreqHz;
 298:system_psoc6_cm0plus.c ****     uint32_t slowClkDiv;
 299:system_psoc6_cm0plus.c ****     uint32_t periClkDiv;
 300:system_psoc6_cm0plus.c ****     uint32_t rootPath;
 301:system_psoc6_cm0plus.c ****     uint32_t srcClk;
 302:system_psoc6_cm0plus.c **** 
 303:system_psoc6_cm0plus.c ****     /* Get root path clock for the high-frequency clock # 0 */
 304:system_psoc6_cm0plus.c ****     rootPath = _FLD2VAL(SRSS_CLK_ROOT_SELECT_ROOT_MUX, SRSS->CLK_ROOT_SELECT[0u]);
 305:system_psoc6_cm0plus.c **** 
 306:system_psoc6_cm0plus.c ****     /* Get source of the root path clock */
 307:system_psoc6_cm0plus.c ****     srcClk = _FLD2VAL(SRSS_CLK_PATH_SELECT_PATH_MUX, SRSS->CLK_PATH_SELECT[rootPath]);
 308:system_psoc6_cm0plus.c **** 
 309:system_psoc6_cm0plus.c ****     /* Get frequency of the source */
 310:system_psoc6_cm0plus.c ****     switch (srcClk)
 311:system_psoc6_cm0plus.c ****     {
 312:system_psoc6_cm0plus.c ****     case CY_ROOT_PATH_SRC_IMO:
 313:system_psoc6_cm0plus.c ****         srcFreqHz = CY_CLK_IMO_FREQ_HZ;
 314:system_psoc6_cm0plus.c ****     break;
 315:system_psoc6_cm0plus.c **** 
ARM GAS  C:\Users\Rolf\AppData\Local\Temp\ccafVfle.s 			page 7


 316:system_psoc6_cm0plus.c ****     case CY_ROOT_PATH_SRC_EXT:
 317:system_psoc6_cm0plus.c ****         srcFreqHz = CY_CLK_EXT_FREQ_HZ;
 318:system_psoc6_cm0plus.c ****     break;
 319:system_psoc6_cm0plus.c **** 
 320:system_psoc6_cm0plus.c ****     #if (SRSS_ECO_PRESENT == 1U)
 321:system_psoc6_cm0plus.c ****         case CY_ROOT_PATH_SRC_ECO:
 322:system_psoc6_cm0plus.c ****             srcFreqHz = CY_CLK_ECO_FREQ_HZ;
 323:system_psoc6_cm0plus.c ****         break;
 324:system_psoc6_cm0plus.c ****     #endif /* (SRSS_ECO_PRESENT == 1U) */
 325:system_psoc6_cm0plus.c **** 
 326:system_psoc6_cm0plus.c **** #if defined (CY_IP_MXBLESS) && (CY_IP_MXBLESS == 1UL) && (SRSS_ALTHF_PRESENT == 1U)
 327:system_psoc6_cm0plus.c ****     case CY_ROOT_PATH_SRC_ALTHF:
 328:system_psoc6_cm0plus.c ****         srcFreqHz = cy_BleEcoClockFreqHz;
 329:system_psoc6_cm0plus.c ****     break;
 330:system_psoc6_cm0plus.c **** #endif /* defined (CY_IP_MXBLESS) && (CY_IP_MXBLESS == 1UL) && (SRSS_ALTHF_PRESENT == 1U) */
 331:system_psoc6_cm0plus.c **** 
 332:system_psoc6_cm0plus.c ****     case CY_ROOT_PATH_SRC_DSI_MUX:
 333:system_psoc6_cm0plus.c ****     {
 334:system_psoc6_cm0plus.c ****         uint32_t dsi_src;
 335:system_psoc6_cm0plus.c ****         dsi_src = _FLD2VAL(SRSS_CLK_DSI_SELECT_DSI_MUX,  SRSS->CLK_DSI_SELECT[rootPath]);
 336:system_psoc6_cm0plus.c ****         switch (dsi_src)
 337:system_psoc6_cm0plus.c ****         {
 338:system_psoc6_cm0plus.c ****         case CY_ROOT_PATH_SRC_DSI_MUX_HVILO:
 339:system_psoc6_cm0plus.c ****             srcFreqHz = CY_CLK_HVILO_FREQ_HZ;
 340:system_psoc6_cm0plus.c ****         break;
 341:system_psoc6_cm0plus.c **** 
 342:system_psoc6_cm0plus.c ****         case CY_ROOT_PATH_SRC_DSI_MUX_WCO:
 343:system_psoc6_cm0plus.c ****             srcFreqHz = CY_CLK_WCO_FREQ_HZ;
 344:system_psoc6_cm0plus.c ****         break;
 345:system_psoc6_cm0plus.c **** 
 346:system_psoc6_cm0plus.c ****         #if (SRSS_ALTLF_PRESENT == 1U)
 347:system_psoc6_cm0plus.c ****             case CY_ROOT_PATH_SRC_DSI_MUX_ALTLF:
 348:system_psoc6_cm0plus.c ****                 srcFreqHz = CY_CLK_ALTLF_FREQ_HZ;
 349:system_psoc6_cm0plus.c ****             break;
 350:system_psoc6_cm0plus.c ****         #endif /* (SRSS_ALTLF_PRESENT == 1U) */
 351:system_psoc6_cm0plus.c **** 
 352:system_psoc6_cm0plus.c ****         #if (SRSS_PILO_PRESENT == 1U)
 353:system_psoc6_cm0plus.c ****             case CY_ROOT_PATH_SRC_DSI_MUX_PILO:
 354:system_psoc6_cm0plus.c ****                 srcFreqHz = CY_CLK_PILO_FREQ_HZ;
 355:system_psoc6_cm0plus.c ****             break;
 356:system_psoc6_cm0plus.c ****         #endif /* (SRSS_PILO_PRESENT == 1U) */
 357:system_psoc6_cm0plus.c **** 
 358:system_psoc6_cm0plus.c ****         default:
 359:system_psoc6_cm0plus.c ****             srcFreqHz = CY_CLK_HVILO_FREQ_HZ;
 360:system_psoc6_cm0plus.c ****         break;
 361:system_psoc6_cm0plus.c ****         }
 362:system_psoc6_cm0plus.c ****     }
 363:system_psoc6_cm0plus.c ****     break;
 364:system_psoc6_cm0plus.c **** 
 365:system_psoc6_cm0plus.c ****     default:
 366:system_psoc6_cm0plus.c ****         srcFreqHz = CY_CLK_EXT_FREQ_HZ;
 367:system_psoc6_cm0plus.c ****     break;
 368:system_psoc6_cm0plus.c ****     }
 369:system_psoc6_cm0plus.c **** 
 370:system_psoc6_cm0plus.c ****     if (rootPath == 0UL)
 371:system_psoc6_cm0plus.c ****     {
 372:system_psoc6_cm0plus.c ****         /* FLL */
ARM GAS  C:\Users\Rolf\AppData\Local\Temp\ccafVfle.s 			page 8


 373:system_psoc6_cm0plus.c ****         bool fllLocked       = ( 0UL != _FLD2VAL(SRSS_CLK_FLL_STATUS_LOCKED, SRSS->CLK_FLL_STATUS))
 374:system_psoc6_cm0plus.c ****         bool fllOutputOutput = ( 3UL == _FLD2VAL(SRSS_CLK_FLL_CONFIG3_BYPASS_SEL, SRSS->CLK_FLL_CON
 375:system_psoc6_cm0plus.c ****         bool fllOutputAuto   = ((0UL == _FLD2VAL(SRSS_CLK_FLL_CONFIG3_BYPASS_SEL, SRSS->CLK_FLL_CON
 376:system_psoc6_cm0plus.c ****                                 (1UL == _FLD2VAL(SRSS_CLK_FLL_CONFIG3_BYPASS_SEL, SRSS->CLK_FLL_CON
 377:system_psoc6_cm0plus.c ****         if ((fllOutputAuto && fllLocked) || fllOutputOutput)
 378:system_psoc6_cm0plus.c ****         {
 379:system_psoc6_cm0plus.c ****             uint32_t fllMult;
 380:system_psoc6_cm0plus.c ****             uint32_t refDiv;
 381:system_psoc6_cm0plus.c ****             uint32_t outputDiv;
 382:system_psoc6_cm0plus.c **** 
 383:system_psoc6_cm0plus.c ****             fllMult = _FLD2VAL(SRSS_CLK_FLL_CONFIG_FLL_MULT, SRSS->CLK_FLL_CONFIG);
 384:system_psoc6_cm0plus.c ****             refDiv  = _FLD2VAL(SRSS_CLK_FLL_CONFIG2_FLL_REF_DIV, SRSS->CLK_FLL_CONFIG2);
 385:system_psoc6_cm0plus.c ****             outputDiv = _FLD2VAL(SRSS_CLK_FLL_CONFIG_FLL_OUTPUT_DIV, SRSS->CLK_FLL_CONFIG) + 1UL;
 386:system_psoc6_cm0plus.c **** 
 387:system_psoc6_cm0plus.c ****             pathFreqHz = ((srcFreqHz / refDiv) * fllMult) / outputDiv;
 388:system_psoc6_cm0plus.c ****         }
 389:system_psoc6_cm0plus.c ****         else
 390:system_psoc6_cm0plus.c ****         {
 391:system_psoc6_cm0plus.c ****             pathFreqHz = srcFreqHz;
 392:system_psoc6_cm0plus.c ****         }
 393:system_psoc6_cm0plus.c ****     }
 394:system_psoc6_cm0plus.c ****     else if (rootPath == 1UL)
 395:system_psoc6_cm0plus.c ****     {
 396:system_psoc6_cm0plus.c ****         /* PLL */
 397:system_psoc6_cm0plus.c ****         bool pllLocked       = ( 0UL != _FLD2VAL(SRSS_CLK_PLL_STATUS_LOCKED,     SRSS->CLK_PLL_STAT
 398:system_psoc6_cm0plus.c ****         bool pllOutputOutput = ( 3UL == _FLD2VAL(SRSS_CLK_PLL_CONFIG_BYPASS_SEL, SRSS->CLK_PLL_CONF
 399:system_psoc6_cm0plus.c ****         bool pllOutputAuto   = ((0UL == _FLD2VAL(SRSS_CLK_PLL_CONFIG_BYPASS_SEL, SRSS->CLK_PLL_CONF
 400:system_psoc6_cm0plus.c ****                                 (1UL == _FLD2VAL(SRSS_CLK_PLL_CONFIG_BYPASS_SEL, SRSS->CLK_PLL_CONF
 401:system_psoc6_cm0plus.c ****         if ((pllOutputAuto && pllLocked) || pllOutputOutput)
 402:system_psoc6_cm0plus.c ****         {
 403:system_psoc6_cm0plus.c ****             uint32_t feedbackDiv;
 404:system_psoc6_cm0plus.c ****             uint32_t referenceDiv;
 405:system_psoc6_cm0plus.c ****             uint32_t outputDiv;
 406:system_psoc6_cm0plus.c **** 
 407:system_psoc6_cm0plus.c ****             feedbackDiv  = _FLD2VAL(SRSS_CLK_PLL_CONFIG_FEEDBACK_DIV,  SRSS->CLK_PLL_CONFIG[0UL]);
 408:system_psoc6_cm0plus.c ****             referenceDiv = _FLD2VAL(SRSS_CLK_PLL_CONFIG_REFERENCE_DIV, SRSS->CLK_PLL_CONFIG[0UL]);
 409:system_psoc6_cm0plus.c ****             outputDiv    = _FLD2VAL(SRSS_CLK_PLL_CONFIG_OUTPUT_DIV,    SRSS->CLK_PLL_CONFIG[0UL]);
 410:system_psoc6_cm0plus.c **** 
 411:system_psoc6_cm0plus.c ****             pathFreqHz = ((srcFreqHz * feedbackDiv) / referenceDiv) / outputDiv;
 412:system_psoc6_cm0plus.c **** 
 413:system_psoc6_cm0plus.c ****         }
 414:system_psoc6_cm0plus.c ****         else
 415:system_psoc6_cm0plus.c ****         {
 416:system_psoc6_cm0plus.c ****             pathFreqHz = srcFreqHz;
 417:system_psoc6_cm0plus.c ****         }
 418:system_psoc6_cm0plus.c ****     }
 419:system_psoc6_cm0plus.c ****     else
 420:system_psoc6_cm0plus.c ****     {
 421:system_psoc6_cm0plus.c ****         /* Direct */
 422:system_psoc6_cm0plus.c ****         pathFreqHz = srcFreqHz;
 423:system_psoc6_cm0plus.c ****     }
 424:system_psoc6_cm0plus.c **** 
 425:system_psoc6_cm0plus.c ****     /* Get frequency after hf_clk pre-divider */
 426:system_psoc6_cm0plus.c ****     pathFreqHz = pathFreqHz >> _FLD2VAL(SRSS_CLK_ROOT_SELECT_ROOT_DIV, SRSS->CLK_ROOT_SELECT[0u]);
 427:system_psoc6_cm0plus.c ****     cy_Hfclk0FreqHz = pathFreqHz;
 428:system_psoc6_cm0plus.c **** 
 429:system_psoc6_cm0plus.c ****     /* Slow Clock Divider */
ARM GAS  C:\Users\Rolf\AppData\Local\Temp\ccafVfle.s 			page 9


 430:system_psoc6_cm0plus.c ****     slowClkDiv = 1u + _FLD2VAL(CPUSS_CM0_CLOCK_CTL_SLOW_INT_DIV, CPUSS->CM0_CLOCK_CTL);
 431:system_psoc6_cm0plus.c **** 
 432:system_psoc6_cm0plus.c ****     /* Peripheral Clock Divider */
 433:system_psoc6_cm0plus.c ****     periClkDiv = 1u + _FLD2VAL(CPUSS_CM0_CLOCK_CTL_PERI_INT_DIV, CPUSS->CM0_CLOCK_CTL);
 434:system_psoc6_cm0plus.c **** 
 435:system_psoc6_cm0plus.c ****     pathFreqHz = pathFreqHz / periClkDiv;
 436:system_psoc6_cm0plus.c ****     cy_PeriClkFreqHz = pathFreqHz;
 437:system_psoc6_cm0plus.c ****     pathFreqHz = pathFreqHz / slowClkDiv;
 438:system_psoc6_cm0plus.c ****     SystemCoreClock = pathFreqHz;
 439:system_psoc6_cm0plus.c **** 
 440:system_psoc6_cm0plus.c ****     /* Sets clock frequency for Delay API */
 441:system_psoc6_cm0plus.c ****     cy_delayFreqHz = SystemCoreClock;
 442:system_psoc6_cm0plus.c ****     cy_delayFreqMhz = (uint8_t)((cy_delayFreqHz + CY_DELAY_1M_MINUS_1_THRESHOLD) / CY_DELAY_1M_THRE
 443:system_psoc6_cm0plus.c ****     cy_delayFreqKhz = (cy_delayFreqHz + CY_DELAY_1K_MINUS_1_THRESHOLD) / CY_DELAY_1K_THRESHOLD;
 444:system_psoc6_cm0plus.c ****     cy_delay32kMs   = CY_DELAY_MS_OVERFLOW_THRESHOLD * cy_delayFreqKhz;
 445:system_psoc6_cm0plus.c **** }
 446:system_psoc6_cm0plus.c **** 
 447:system_psoc6_cm0plus.c **** 
 448:system_psoc6_cm0plus.c **** #if (CY_SYSTEM_CPU_CM0P == 1UL) || defined(CY_DOXYGEN)
 449:system_psoc6_cm0plus.c **** /*******************************************************************************
 450:system_psoc6_cm0plus.c **** * Function Name: Cy_SysGetCM4Status
 451:system_psoc6_cm0plus.c **** ****************************************************************************//**
 452:system_psoc6_cm0plus.c **** *
 453:system_psoc6_cm0plus.c **** * Returns the Cortex-M4 core power mode.
 454:system_psoc6_cm0plus.c **** *
 455:system_psoc6_cm0plus.c **** * \return \ref group_system_config_cm4_status_macro
 456:system_psoc6_cm0plus.c **** *
 457:system_psoc6_cm0plus.c **** *******************************************************************************/
 458:system_psoc6_cm0plus.c **** uint32_t Cy_SysGetCM4Status(void)
 459:system_psoc6_cm0plus.c **** {
 460:system_psoc6_cm0plus.c ****     uint32_t regValue;
 461:system_psoc6_cm0plus.c **** 
 462:system_psoc6_cm0plus.c ****     /* Get current power mode */
 463:system_psoc6_cm0plus.c ****     regValue = CPUSS->CM4_PWR_CTL & CPUSS_CM4_PWR_CTL_PWR_MODE_Msk;
 464:system_psoc6_cm0plus.c **** 
 465:system_psoc6_cm0plus.c ****     return (regValue);
 466:system_psoc6_cm0plus.c **** }
 467:system_psoc6_cm0plus.c **** 
 468:system_psoc6_cm0plus.c **** 
 469:system_psoc6_cm0plus.c **** /*******************************************************************************
 470:system_psoc6_cm0plus.c **** * Function Name: Cy_SysEnableCM4
 471:system_psoc6_cm0plus.c **** ****************************************************************************//**
 472:system_psoc6_cm0plus.c **** *
 473:system_psoc6_cm0plus.c **** * Sets vector table base address and enables the Cortex-M4 core.
 474:system_psoc6_cm0plus.c **** *
 475:system_psoc6_cm0plus.c **** * \note If the CPU is already enabled, it is reset and then enabled.
 476:system_psoc6_cm0plus.c **** *
 477:system_psoc6_cm0plus.c **** * \param vectorTableOffset The offset of the vector table base address from
 478:system_psoc6_cm0plus.c **** * memory address 0x00000000. The offset should be multiple to 1024 bytes.
 479:system_psoc6_cm0plus.c **** *
 480:system_psoc6_cm0plus.c **** *******************************************************************************/
 481:system_psoc6_cm0plus.c **** void Cy_SysEnableCM4(uint32_t vectorTableOffset)
 482:system_psoc6_cm0plus.c **** {
 483:system_psoc6_cm0plus.c ****     uint32_t regValue;
 484:system_psoc6_cm0plus.c ****     uint32_t interruptState;
 485:system_psoc6_cm0plus.c ****     uint32_t cpuState;
 486:system_psoc6_cm0plus.c **** 
ARM GAS  C:\Users\Rolf\AppData\Local\Temp\ccafVfle.s 			page 10


 487:system_psoc6_cm0plus.c ****     CY_ASSERT_L2((vectorTableOffset & CY_SYS_CM4_VECTOR_TABLE_VALID_ADDR) == 0UL);
 488:system_psoc6_cm0plus.c **** 
 489:system_psoc6_cm0plus.c ****     interruptState = Cy_SysLib_EnterCriticalSection();
 490:system_psoc6_cm0plus.c **** 
 491:system_psoc6_cm0plus.c ****     cpuState = Cy_SysGetCM4Status();
 492:system_psoc6_cm0plus.c ****     if (CY_SYS_CM4_STATUS_ENABLED == cpuState)
 493:system_psoc6_cm0plus.c ****     {
 494:system_psoc6_cm0plus.c ****         Cy_SysResetCM4();
 495:system_psoc6_cm0plus.c ****     }
 496:system_psoc6_cm0plus.c **** 
 497:system_psoc6_cm0plus.c ****     CPUSS->CM4_VECTOR_TABLE_BASE = vectorTableOffset;
 498:system_psoc6_cm0plus.c **** 
 499:system_psoc6_cm0plus.c ****     regValue = CPUSS->CM4_PWR_CTL & ~(CPUSS_CM4_PWR_CTL_VECTKEYSTAT_Msk | CPUSS_CM4_PWR_CTL_PWR_MOD
 500:system_psoc6_cm0plus.c ****     regValue |= _VAL2FLD(CPUSS_CM4_PWR_CTL_VECTKEYSTAT, CY_SYS_CM4_PWR_CTL_KEY_OPEN);
 501:system_psoc6_cm0plus.c ****     regValue |= CY_SYS_CM4_STATUS_ENABLED;
 502:system_psoc6_cm0plus.c ****     CPUSS->CM4_PWR_CTL = regValue;
 503:system_psoc6_cm0plus.c **** 
 504:system_psoc6_cm0plus.c ****     while((CPUSS->CM4_STATUS & CPUSS_CM4_STATUS_PWR_DONE_Msk) == 0UL)
 505:system_psoc6_cm0plus.c ****     {
 506:system_psoc6_cm0plus.c ****         /* Wait for the power mode to take effect */
 507:system_psoc6_cm0plus.c ****     }
 508:system_psoc6_cm0plus.c **** 
 509:system_psoc6_cm0plus.c ****     Cy_SysLib_ExitCriticalSection(interruptState);
 510:system_psoc6_cm0plus.c **** }
 511:system_psoc6_cm0plus.c **** 
 512:system_psoc6_cm0plus.c **** 
 513:system_psoc6_cm0plus.c **** /*******************************************************************************
 514:system_psoc6_cm0plus.c **** * Function Name: Cy_SysDisableCM4
 515:system_psoc6_cm0plus.c **** ****************************************************************************//**
 516:system_psoc6_cm0plus.c **** *
 517:system_psoc6_cm0plus.c **** * Disables the Cortex-M4 core and waits for the mode to take the effect.
 518:system_psoc6_cm0plus.c **** *
 519:system_psoc6_cm0plus.c **** * \warning Do not call the function while the Cortex-M4 is executing because
 520:system_psoc6_cm0plus.c **** * such a call may corrupt/abort a pending bus-transaction by the CPU and cause
 521:system_psoc6_cm0plus.c **** * unexpected behavior in the system including a deadlock. Call the function
 522:system_psoc6_cm0plus.c **** * while the Cortex-M4 core is in the Sleep or Deep Sleep low-power mode. Use
 523:system_psoc6_cm0plus.c **** * the \ref group_syspm Power Management (syspm) API to put the CPU into the
 524:system_psoc6_cm0plus.c **** * low-power modes. Use the \ref Cy_SysPm_ReadStatus() to get a status of the
 525:system_psoc6_cm0plus.c **** * CPU.
 526:system_psoc6_cm0plus.c **** *
 527:system_psoc6_cm0plus.c **** *******************************************************************************/
 528:system_psoc6_cm0plus.c **** void Cy_SysDisableCM4(void)
 529:system_psoc6_cm0plus.c **** {
 530:system_psoc6_cm0plus.c ****     uint32_t interruptState;
 531:system_psoc6_cm0plus.c ****     uint32_t regValue;
 532:system_psoc6_cm0plus.c **** 
 533:system_psoc6_cm0plus.c ****     interruptState = Cy_SysLib_EnterCriticalSection();
 534:system_psoc6_cm0plus.c **** 
 535:system_psoc6_cm0plus.c ****     regValue = CPUSS->CM4_PWR_CTL & ~(CPUSS_CM4_PWR_CTL_VECTKEYSTAT_Msk | CPUSS_CM4_PWR_CTL_PWR_MOD
 536:system_psoc6_cm0plus.c ****     regValue |= _VAL2FLD(CPUSS_CM4_PWR_CTL_VECTKEYSTAT, CY_SYS_CM4_PWR_CTL_KEY_OPEN);
 537:system_psoc6_cm0plus.c ****     regValue |= CY_SYS_CM4_STATUS_DISABLED;
 538:system_psoc6_cm0plus.c ****     CPUSS->CM4_PWR_CTL = regValue;
 539:system_psoc6_cm0plus.c **** 
 540:system_psoc6_cm0plus.c ****     while((CPUSS->CM4_STATUS & CPUSS_CM4_STATUS_PWR_DONE_Msk) == 0UL)
 541:system_psoc6_cm0plus.c ****     {
 542:system_psoc6_cm0plus.c ****         /* Wait for the power mode to take effect */
 543:system_psoc6_cm0plus.c ****     }
ARM GAS  C:\Users\Rolf\AppData\Local\Temp\ccafVfle.s 			page 11


 544:system_psoc6_cm0plus.c **** 
 545:system_psoc6_cm0plus.c ****     Cy_SysLib_ExitCriticalSection(interruptState);
 546:system_psoc6_cm0plus.c **** }
 547:system_psoc6_cm0plus.c **** 
 548:system_psoc6_cm0plus.c **** 
 549:system_psoc6_cm0plus.c **** /*******************************************************************************
 550:system_psoc6_cm0plus.c **** * Function Name: Cy_SysRetainCM4
 551:system_psoc6_cm0plus.c **** ****************************************************************************//**
 552:system_psoc6_cm0plus.c **** *
 553:system_psoc6_cm0plus.c **** * Retains the Cortex-M4 core and exists without waiting for the mode to take
 554:system_psoc6_cm0plus.c **** * effect.
 555:system_psoc6_cm0plus.c **** *
 556:system_psoc6_cm0plus.c **** * \note The retained mode can be entered only from the enabled mode.
 557:system_psoc6_cm0plus.c **** *
 558:system_psoc6_cm0plus.c **** * \warning Do not call the function while the Cortex-M4 is executing because
 559:system_psoc6_cm0plus.c **** * such a call may corrupt/abort a pending bus-transaction by the CPU and cause
 560:system_psoc6_cm0plus.c **** * unexpected behavior in the system including a deadlock. Call the function
 561:system_psoc6_cm0plus.c **** * while the Cortex-M4 core is in the Sleep or Deep Sleep low-power mode. Use
 562:system_psoc6_cm0plus.c **** * the \ref group_syspm Power Management (syspm) API to put the CPU into the
 563:system_psoc6_cm0plus.c **** * low-power modes. Use the \ref Cy_SysPm_ReadStatus() to get a status of the CPU.
 564:system_psoc6_cm0plus.c **** *
 565:system_psoc6_cm0plus.c **** *******************************************************************************/
 566:system_psoc6_cm0plus.c **** void Cy_SysRetainCM4(void)
 567:system_psoc6_cm0plus.c **** {
 568:system_psoc6_cm0plus.c ****     uint32_t interruptState;
 569:system_psoc6_cm0plus.c ****     uint32_t regValue;
 570:system_psoc6_cm0plus.c **** 
 571:system_psoc6_cm0plus.c ****     interruptState = Cy_SysLib_EnterCriticalSection();
 572:system_psoc6_cm0plus.c **** 
 573:system_psoc6_cm0plus.c ****     regValue = CPUSS->CM4_PWR_CTL & ~(CPUSS_CM4_PWR_CTL_VECTKEYSTAT_Msk | CPUSS_CM4_PWR_CTL_PWR_MOD
 574:system_psoc6_cm0plus.c ****     regValue |= _VAL2FLD(CPUSS_CM4_PWR_CTL_VECTKEYSTAT, CY_SYS_CM4_PWR_CTL_KEY_OPEN);
 575:system_psoc6_cm0plus.c ****     regValue |= CY_SYS_CM4_STATUS_RETAINED;
 576:system_psoc6_cm0plus.c ****     CPUSS->CM4_PWR_CTL = regValue;
 577:system_psoc6_cm0plus.c **** 
 578:system_psoc6_cm0plus.c ****     Cy_SysLib_ExitCriticalSection(interruptState);
 579:system_psoc6_cm0plus.c **** }
 580:system_psoc6_cm0plus.c **** 
 581:system_psoc6_cm0plus.c **** 
 582:system_psoc6_cm0plus.c **** /*******************************************************************************
 583:system_psoc6_cm0plus.c **** * Function Name: Cy_SysResetCM4
 584:system_psoc6_cm0plus.c **** ****************************************************************************//**
 585:system_psoc6_cm0plus.c **** *
 586:system_psoc6_cm0plus.c **** * Resets the Cortex-M4 core and waits for the mode to take the effect.
 587:system_psoc6_cm0plus.c **** *
 588:system_psoc6_cm0plus.c **** * \note The reset mode can not be entered from the retained mode.
 589:system_psoc6_cm0plus.c **** *
 590:system_psoc6_cm0plus.c **** * \warning Do not call the function while the Cortex-M4 is executing because
 591:system_psoc6_cm0plus.c **** * such a call may corrupt/abort a pending bus-transaction by the CPU and cause
 592:system_psoc6_cm0plus.c **** * unexpected behavior in the system including a deadlock. Call the function
 593:system_psoc6_cm0plus.c **** * while the Cortex-M4 core is in the Sleep or Deep Sleep low-power mode. Use
 594:system_psoc6_cm0plus.c **** * the \ref group_syspm Power Management (syspm) API to put the CPU into the
 595:system_psoc6_cm0plus.c **** * low-power modes. Use the \ref Cy_SysPm_ReadStatus() to get a status of the CPU.
 596:system_psoc6_cm0plus.c **** *
 597:system_psoc6_cm0plus.c **** *******************************************************************************/
 598:system_psoc6_cm0plus.c **** void Cy_SysResetCM4(void)
 599:system_psoc6_cm0plus.c **** {
 600:system_psoc6_cm0plus.c ****     uint32_t interruptState;
ARM GAS  C:\Users\Rolf\AppData\Local\Temp\ccafVfle.s 			page 12


 601:system_psoc6_cm0plus.c ****     uint32_t regValue;
 602:system_psoc6_cm0plus.c **** 
 603:system_psoc6_cm0plus.c ****     interruptState = Cy_SysLib_EnterCriticalSection();
 604:system_psoc6_cm0plus.c **** 
 605:system_psoc6_cm0plus.c ****     regValue = CPUSS->CM4_PWR_CTL & ~(CPUSS_CM4_PWR_CTL_VECTKEYSTAT_Msk | CPUSS_CM4_PWR_CTL_PWR_MOD
 606:system_psoc6_cm0plus.c ****     regValue |= _VAL2FLD(CPUSS_CM4_PWR_CTL_VECTKEYSTAT, CY_SYS_CM4_PWR_CTL_KEY_OPEN);
 607:system_psoc6_cm0plus.c ****     regValue |= CY_SYS_CM4_STATUS_RESET;
 608:system_psoc6_cm0plus.c ****     CPUSS->CM4_PWR_CTL = regValue;
 609:system_psoc6_cm0plus.c **** 
 610:system_psoc6_cm0plus.c ****     while((CPUSS->CM4_STATUS & CPUSS_CM4_STATUS_PWR_DONE_Msk) == 0UL)
 611:system_psoc6_cm0plus.c ****     {
 612:system_psoc6_cm0plus.c ****         /* Wait for the power mode to take effect */
 613:system_psoc6_cm0plus.c ****     }
 614:system_psoc6_cm0plus.c **** 
 615:system_psoc6_cm0plus.c ****     Cy_SysLib_ExitCriticalSection(interruptState);
 616:system_psoc6_cm0plus.c **** }
 617:system_psoc6_cm0plus.c **** #endif /* #if (CY_SYSTEM_CPU_CM0P == 1UL) || defined(CY_DOXYGEN) */
 618:system_psoc6_cm0plus.c **** 
 619:system_psoc6_cm0plus.c **** #if !defined(CY_IPC_DEFAULT_CFG_DISABLE)
 620:system_psoc6_cm0plus.c **** /*******************************************************************************
 621:system_psoc6_cm0plus.c **** * Function Name: Cy_SysIpcPipeIsrCm0
 622:system_psoc6_cm0plus.c **** ****************************************************************************//**
 623:system_psoc6_cm0plus.c **** *
 624:system_psoc6_cm0plus.c **** * This is the interrupt service routine for the system pipe.
 625:system_psoc6_cm0plus.c **** *
 626:system_psoc6_cm0plus.c **** *******************************************************************************/
 627:system_psoc6_cm0plus.c **** void Cy_SysIpcPipeIsrCm0(void)
 628:system_psoc6_cm0plus.c **** {
  28              		.loc 1 628 0
  29              		.cfi_startproc
  30              		@ args = 0, pretend = 0, frame = 0
  31              		@ frame_needed = 0, uses_anonymous_args = 0
  32 0000 10B5     		push	{r4, lr}
  33              		.cfi_def_cfa_offset 8
  34              		.cfi_offset 4, -8
  35              		.cfi_offset 14, -4
 629:system_psoc6_cm0plus.c ****     Cy_IPC_Pipe_ExecuteCallback(CY_IPC_EP_CYPIPE_CM0_ADDR);
  36              		.loc 1 629 0
  37 0002 0020     		movs	r0, #0
  38 0004 FFF7FEFF 		bl	Cy_IPC_Pipe_ExecuteCallback
  39              	.LVL0:
 630:system_psoc6_cm0plus.c **** }
  40              		.loc 1 630 0
  41              		@ sp needed
  42 0008 10BD     		pop	{r4, pc}
  43              		.cfi_endproc
  44              	.LFE81:
  45              		.size	Cy_SysIpcPipeIsrCm0, .-Cy_SysIpcPipeIsrCm0
  46 000a C046     		.section	.text.Cy_SystemInit,"ax",%progbits
  47              		.align	2
  48              		.weak	Cy_SystemInit
  49              		.code	16
  50              		.thumb_func
  51              		.type	Cy_SystemInit, %function
  52              	Cy_SystemInit:
  53              	.LFB74:
 276:system_psoc6_cm0plus.c ****      /* Empty weak function. The actual implementation to be in the PSoC Creator
ARM GAS  C:\Users\Rolf\AppData\Local\Temp\ccafVfle.s 			page 13


  54              		.loc 1 276 0
  55              		.cfi_startproc
  56              		@ args = 0, pretend = 0, frame = 0
  57              		@ frame_needed = 0, uses_anonymous_args = 0
  58              		@ link register save eliminated.
 280:system_psoc6_cm0plus.c **** 
  59              		.loc 1 280 0
  60              		@ sp needed
  61 0000 7047     		bx	lr
  62              		.cfi_endproc
  63              	.LFE74:
  64              		.size	Cy_SystemInit, .-Cy_SystemInit
  65              		.global	__aeabi_uidiv
  66 0002 C046     		.section	.text.SystemCoreClockUpdate,"ax",%progbits
  67              		.align	2
  68              		.global	SystemCoreClockUpdate
  69              		.code	16
  70              		.thumb_func
  71              		.type	SystemCoreClockUpdate, %function
  72              	SystemCoreClockUpdate:
  73              	.LFB75:
 295:system_psoc6_cm0plus.c ****     uint32_t srcFreqHz;
  74              		.loc 1 295 0
  75              		.cfi_startproc
  76              		@ args = 0, pretend = 0, frame = 0
  77              		@ frame_needed = 0, uses_anonymous_args = 0
  78 0000 70B5     		push	{r4, r5, r6, lr}
  79              		.cfi_def_cfa_offset 16
  80              		.cfi_offset 4, -16
  81              		.cfi_offset 5, -12
  82              		.cfi_offset 6, -8
  83              		.cfi_offset 14, -4
 304:system_psoc6_cm0plus.c **** 
  84              		.loc 1 304 0
  85 0002 6249     		ldr	r1, .L24
  86 0004 E023     		movs	r3, #224
  87 0006 9B00     		lsls	r3, r3, #2
  88 0008 CB58     		ldr	r3, [r1, r3]
  89 000a 0F22     		movs	r2, #15
  90 000c 1340     		ands	r3, r2
  91              	.LVL1:
 307:system_psoc6_cm0plus.c **** 
  92              		.loc 1 307 0
  93 000e 1A00     		movs	r2, r3
  94 0010 D032     		adds	r2, r2, #208
  95 0012 9200     		lsls	r2, r2, #2
  96 0014 5258     		ldr	r2, [r2, r1]
  97 0016 0721     		movs	r1, #7
  98 0018 0A40     		ands	r2, r1
  99              	.LVL2:
 310:system_psoc6_cm0plus.c ****     {
 100              		.loc 1 310 0
 101 001a 032A     		cmp	r2, #3
 102 001c 05D0     		beq	.L5
 103 001e 042A     		cmp	r2, #4
 104 0020 06D0     		beq	.L6
 105 0022 002A     		cmp	r2, #0
ARM GAS  C:\Users\Rolf\AppData\Local\Temp\ccafVfle.s 			page 14


 106 0024 12D1     		bne	.L23
 313:system_psoc6_cm0plus.c ****     break;
 107              		.loc 1 313 0
 108 0026 5A48     		ldr	r0, .L24+4
 109 0028 14E0     		b	.L4
 110              	.L5:
 328:system_psoc6_cm0plus.c ****     break;
 111              		.loc 1 328 0
 112 002a 5A4A     		ldr	r2, .L24+8
 113              	.LVL3:
 114 002c 1068     		ldr	r0, [r2]
 115              	.LVL4:
 329:system_psoc6_cm0plus.c **** #endif /* defined (CY_IP_MXBLESS) && (CY_IP_MXBLESS == 1UL) && (SRSS_ALTHF_PRESENT == 1U) */
 116              		.loc 1 329 0
 117 002e 11E0     		b	.L4
 118              	.LVL5:
 119              	.L6:
 120              	.LBB6:
 335:system_psoc6_cm0plus.c ****         switch (dsi_src)
 121              		.loc 1 335 0
 122 0030 1A00     		movs	r2, r3
 123              	.LVL6:
 124 0032 C032     		adds	r2, r2, #192
 125 0034 9200     		lsls	r2, r2, #2
 126 0036 5549     		ldr	r1, .L24
 127 0038 5258     		ldr	r2, [r2, r1]
 128 003a 1F21     		movs	r1, #31
 129 003c 0A40     		ands	r2, r1
 130              	.LVL7:
 336:system_psoc6_cm0plus.c ****         {
 131              		.loc 1 336 0
 132 003e 112A     		cmp	r2, #17
 133 0040 06D0     		beq	.L18
 134 0042 132A     		cmp	r2, #19
 135 0044 04D0     		beq	.L18
 339:system_psoc6_cm0plus.c ****         break;
 136              		.loc 1 339 0
 137 0046 FA20     		movs	r0, #250
 138 0048 C001     		lsls	r0, r0, #7
 139 004a 03E0     		b	.L4
 140              	.LVL8:
 141              	.L23:
 142              	.LBE6:
 317:system_psoc6_cm0plus.c ****     break;
 143              		.loc 1 317 0
 144 004c 5248     		ldr	r0, .L24+12
 145 004e 01E0     		b	.L4
 146              	.LVL9:
 147              	.L18:
 148              	.LBB7:
 343:system_psoc6_cm0plus.c ****         break;
 149              		.loc 1 343 0
 150 0050 8020     		movs	r0, #128
 151 0052 0002     		lsls	r0, r0, #8
 152              	.LVL10:
 153              	.L4:
 154              	.LBE7:
ARM GAS  C:\Users\Rolf\AppData\Local\Temp\ccafVfle.s 			page 15


 370:system_psoc6_cm0plus.c ****     {
 155              		.loc 1 370 0
 156 0054 002B     		cmp	r3, #0
 157 0056 36D1     		bne	.L9
 158              	.LBB8:
 373:system_psoc6_cm0plus.c ****         bool fllOutputOutput = ( 3UL == _FLD2VAL(SRSS_CLK_FLL_CONFIG3_BYPASS_SEL, SRSS->CLK_FLL_CON
 159              		.loc 1 373 0
 160 0058 4C4B     		ldr	r3, .L24
 161              	.LVL11:
 162 005a B222     		movs	r2, #178
 163 005c D200     		lsls	r2, r2, #3
 164 005e 9A58     		ldr	r2, [r3, r2]
 165 0060 0121     		movs	r1, #1
 166 0062 1140     		ands	r1, r2
 167              	.LVL12:
 374:system_psoc6_cm0plus.c ****         bool fllOutputAuto   = ((0UL == _FLD2VAL(SRSS_CLK_FLL_CONFIG3_BYPASS_SEL, SRSS->CLK_FLL_CON
 168              		.loc 1 374 0
 169 0064 B125     		movs	r5, #177
 170 0066 ED00     		lsls	r5, r5, #3
 171 0068 5A59     		ldr	r2, [r3, r5]
 172 006a 120F     		lsrs	r2, r2, #28
 173 006c 0324     		movs	r4, #3
 174 006e 2240     		ands	r2, r4
 175              	.LVL13:
 375:system_psoc6_cm0plus.c ****                                 (1UL == _FLD2VAL(SRSS_CLK_FLL_CONFIG3_BYPASS_SEL, SRSS->CLK_FLL_CON
 176              		.loc 1 375 0
 177 0070 5B59     		ldr	r3, [r3, r5]
 178 0072 1B0F     		lsrs	r3, r3, #28
 179 0074 1C42     		tst	r4, r3
 180 0076 07D0     		beq	.L19
 376:system_psoc6_cm0plus.c ****         if ((fllOutputAuto && fllLocked) || fllOutputOutput)
 181              		.loc 1 376 0 discriminator 2
 182 0078 444C     		ldr	r4, .L24
 183 007a 6359     		ldr	r3, [r4, r5]
 184 007c 1B0F     		lsrs	r3, r3, #28
 185 007e 0324     		movs	r4, #3
 186 0080 2340     		ands	r3, r4
 375:system_psoc6_cm0plus.c ****                                 (1UL == _FLD2VAL(SRSS_CLK_FLL_CONFIG3_BYPASS_SEL, SRSS->CLK_FLL_CON
 187              		.loc 1 375 0 discriminator 2
 188 0082 012B     		cmp	r3, #1
 189 0084 02D1     		bne	.L20
 190 0086 02E0     		b	.L10
 191              	.L19:
 375:system_psoc6_cm0plus.c ****                                 (1UL == _FLD2VAL(SRSS_CLK_FLL_CONFIG3_BYPASS_SEL, SRSS->CLK_FLL_CON
 192              		.loc 1 375 0 is_stmt 0
 193 0088 0123     		movs	r3, #1
 194 008a 00E0     		b	.L10
 195              	.L20:
 196 008c 0023     		movs	r3, #0
 197              	.L10:
 198              	.LVL14:
 377:system_psoc6_cm0plus.c ****         {
 199              		.loc 1 377 0 is_stmt 1 discriminator 6
 200 008e 002B     		cmp	r3, #0
 201 0090 01D0     		beq	.L11
 377:system_psoc6_cm0plus.c ****         {
 202              		.loc 1 377 0 is_stmt 0 discriminator 1
ARM GAS  C:\Users\Rolf\AppData\Local\Temp\ccafVfle.s 			page 16


 203 0092 0029     		cmp	r1, #0
 204 0094 01D1     		bne	.L12
 205              	.L11:
 377:system_psoc6_cm0plus.c ****         {
 206              		.loc 1 377 0 discriminator 3
 207 0096 032A     		cmp	r2, #3
 208 0098 4BD1     		bne	.L13
 209              	.L12:
 210              	.LBB9:
 383:system_psoc6_cm0plus.c ****             refDiv  = _FLD2VAL(SRSS_CLK_FLL_CONFIG2_FLL_REF_DIV, SRSS->CLK_FLL_CONFIG2);
 211              		.loc 1 383 0 is_stmt 1
 212 009a 3C4B     		ldr	r3, .L24
 213              	.LVL15:
 214 009c B022     		movs	r2, #176
 215              	.LVL16:
 216 009e D200     		lsls	r2, r2, #3
 217 00a0 9D58     		ldr	r5, [r3, r2]
 218 00a2 AD03     		lsls	r5, r5, #14
 219 00a4 AD0B     		lsrs	r5, r5, #14
 220              	.LVL17:
 384:system_psoc6_cm0plus.c ****             outputDiv = _FLD2VAL(SRSS_CLK_FLL_CONFIG_FLL_OUTPUT_DIV, SRSS->CLK_FLL_CONFIG) + 1UL;
 221              		.loc 1 384 0
 222 00a6 3D49     		ldr	r1, .L24+16
 223              	.LVL18:
 224 00a8 5958     		ldr	r1, [r3, r1]
 225 00aa C904     		lsls	r1, r1, #19
 226 00ac C90C     		lsrs	r1, r1, #19
 227              	.LVL19:
 385:system_psoc6_cm0plus.c **** 
 228              		.loc 1 385 0
 229 00ae 9C58     		ldr	r4, [r3, r2]
 230 00b0 240E     		lsrs	r4, r4, #24
 231 00b2 0123     		movs	r3, #1
 232 00b4 1C40     		ands	r4, r3
 233 00b6 0134     		adds	r4, r4, #1
 234              	.LVL20:
 387:system_psoc6_cm0plus.c ****         }
 235              		.loc 1 387 0
 236 00b8 FFF7FEFF 		bl	__aeabi_uidiv
 237              	.LVL21:
 238 00bc 6843     		muls	r0, r5
 239 00be 2100     		movs	r1, r4
 240 00c0 FFF7FEFF 		bl	__aeabi_uidiv
 241              	.LVL22:
 242              	.LBE9:
 378:system_psoc6_cm0plus.c ****             uint32_t fllMult;
 243              		.loc 1 378 0
 244 00c4 35E0     		b	.L13
 245              	.LVL23:
 246              	.L9:
 247              	.LBE8:
 394:system_psoc6_cm0plus.c ****     {
 248              		.loc 1 394 0
 249 00c6 012B     		cmp	r3, #1
 250 00c8 33D1     		bne	.L13
 251              	.LBB10:
 397:system_psoc6_cm0plus.c ****         bool pllOutputOutput = ( 3UL == _FLD2VAL(SRSS_CLK_PLL_CONFIG_BYPASS_SEL, SRSS->CLK_PLL_CONF
ARM GAS  C:\Users\Rolf\AppData\Local\Temp\ccafVfle.s 			page 17


 252              		.loc 1 397 0
 253 00ca 304B     		ldr	r3, .L24
 254              	.LVL24:
 255 00cc C822     		movs	r2, #200
 256 00ce D200     		lsls	r2, r2, #3
 257 00d0 9A58     		ldr	r2, [r3, r2]
 258 00d2 0125     		movs	r5, #1
 259 00d4 1540     		ands	r5, r2
 260              	.LVL25:
 398:system_psoc6_cm0plus.c ****         bool pllOutputAuto   = ((0UL == _FLD2VAL(SRSS_CLK_PLL_CONFIG_BYPASS_SEL, SRSS->CLK_PLL_CONF
 261              		.loc 1 398 0
 262 00d6 C024     		movs	r4, #192
 263 00d8 E400     		lsls	r4, r4, #3
 264 00da 1A59     		ldr	r2, [r3, r4]
 265 00dc 120F     		lsrs	r2, r2, #28
 266 00de 0321     		movs	r1, #3
 267 00e0 0A40     		ands	r2, r1
 268              	.LVL26:
 399:system_psoc6_cm0plus.c ****                                 (1UL == _FLD2VAL(SRSS_CLK_PLL_CONFIG_BYPASS_SEL, SRSS->CLK_PLL_CONF
 269              		.loc 1 399 0
 270 00e2 1B59     		ldr	r3, [r3, r4]
 271 00e4 1B0F     		lsrs	r3, r3, #28
 272 00e6 1942     		tst	r1, r3
 273 00e8 07D0     		beq	.L21
 400:system_psoc6_cm0plus.c ****         if ((pllOutputAuto && pllLocked) || pllOutputOutput)
 274              		.loc 1 400 0 discriminator 2
 275 00ea 2849     		ldr	r1, .L24
 276 00ec 0B59     		ldr	r3, [r1, r4]
 277 00ee 1B0F     		lsrs	r3, r3, #28
 278 00f0 0321     		movs	r1, #3
 279 00f2 0B40     		ands	r3, r1
 399:system_psoc6_cm0plus.c ****                                 (1UL == _FLD2VAL(SRSS_CLK_PLL_CONFIG_BYPASS_SEL, SRSS->CLK_PLL_CONF
 280              		.loc 1 399 0 discriminator 2
 281 00f4 012B     		cmp	r3, #1
 282 00f6 02D1     		bne	.L22
 283 00f8 02E0     		b	.L14
 284              	.L21:
 399:system_psoc6_cm0plus.c ****                                 (1UL == _FLD2VAL(SRSS_CLK_PLL_CONFIG_BYPASS_SEL, SRSS->CLK_PLL_CONF
 285              		.loc 1 399 0 is_stmt 0
 286 00fa 0123     		movs	r3, #1
 287 00fc 00E0     		b	.L14
 288              	.L22:
 289 00fe 0023     		movs	r3, #0
 290              	.L14:
 291              	.LVL27:
 401:system_psoc6_cm0plus.c ****         {
 292              		.loc 1 401 0 is_stmt 1 discriminator 6
 293 0100 002B     		cmp	r3, #0
 294 0102 01D0     		beq	.L15
 401:system_psoc6_cm0plus.c ****         {
 295              		.loc 1 401 0 is_stmt 0 discriminator 1
 296 0104 002D     		cmp	r5, #0
 297 0106 01D1     		bne	.L16
 298              	.L15:
 401:system_psoc6_cm0plus.c ****         {
 299              		.loc 1 401 0 discriminator 3
 300 0108 032A     		cmp	r2, #3
ARM GAS  C:\Users\Rolf\AppData\Local\Temp\ccafVfle.s 			page 18


 301 010a 12D1     		bne	.L13
 302              	.L16:
 303              	.LBB11:
 407:system_psoc6_cm0plus.c ****             referenceDiv = _FLD2VAL(SRSS_CLK_PLL_CONFIG_REFERENCE_DIV, SRSS->CLK_PLL_CONFIG[0UL]);
 304              		.loc 1 407 0 is_stmt 1
 305 010c 1F4D     		ldr	r5, .L24
 306              	.LVL28:
 307 010e C022     		movs	r2, #192
 308              	.LVL29:
 309 0110 D200     		lsls	r2, r2, #3
 310 0112 AB58     		ldr	r3, [r5, r2]
 311              	.LVL30:
 312 0114 7F21     		movs	r1, #127
 313 0116 0B40     		ands	r3, r1
 314              	.LVL31:
 408:system_psoc6_cm0plus.c ****             outputDiv    = _FLD2VAL(SRSS_CLK_PLL_CONFIG_OUTPUT_DIV,    SRSS->CLK_PLL_CONFIG[0UL]);
 315              		.loc 1 408 0
 316 0118 A958     		ldr	r1, [r5, r2]
 317 011a 090A     		lsrs	r1, r1, #8
 318 011c 1F26     		movs	r6, #31
 319 011e 3140     		ands	r1, r6
 320              	.LVL32:
 409:system_psoc6_cm0plus.c **** 
 321              		.loc 1 409 0
 322 0120 AC58     		ldr	r4, [r5, r2]
 323 0122 240C     		lsrs	r4, r4, #16
 324 0124 3440     		ands	r4, r6
 325              	.LVL33:
 411:system_psoc6_cm0plus.c **** 
 326              		.loc 1 411 0
 327 0126 5843     		muls	r0, r3
 328              	.LVL34:
 329 0128 FFF7FEFF 		bl	__aeabi_uidiv
 330              	.LVL35:
 331 012c 2100     		movs	r1, r4
 332 012e FFF7FEFF 		bl	__aeabi_uidiv
 333              	.LVL36:
 334              	.L13:
 335              	.LBE11:
 336              	.LBE10:
 426:system_psoc6_cm0plus.c ****     cy_Hfclk0FreqHz = pathFreqHz;
 337              		.loc 1 426 0
 338 0132 E023     		movs	r3, #224
 339 0134 9B00     		lsls	r3, r3, #2
 340 0136 154A     		ldr	r2, .L24
 341 0138 D358     		ldr	r3, [r2, r3]
 342 013a 1B09     		lsrs	r3, r3, #4
 343 013c 0322     		movs	r2, #3
 344 013e 1340     		ands	r3, r2
 345 0140 D840     		lsrs	r0, r0, r3
 346              	.LVL37:
 427:system_psoc6_cm0plus.c **** 
 347              		.loc 1 427 0
 348 0142 144C     		ldr	r4, .L24+8
 349 0144 6060     		str	r0, [r4, #4]
 430:system_psoc6_cm0plus.c **** 
 350              		.loc 1 430 0
ARM GAS  C:\Users\Rolf\AppData\Local\Temp\ccafVfle.s 			page 19


 351 0146 164B     		ldr	r3, .L24+20
 352 0148 1D69     		ldr	r5, [r3, #16]
 353 014a 2D0A     		lsrs	r5, r5, #8
 354 014c FC32     		adds	r2, r2, #252
 355 014e 1540     		ands	r5, r2
 356 0150 0135     		adds	r5, r5, #1
 357              	.LVL38:
 433:system_psoc6_cm0plus.c **** 
 358              		.loc 1 433 0
 359 0152 1969     		ldr	r1, [r3, #16]
 360 0154 090E     		lsrs	r1, r1, #24
 361 0156 0131     		adds	r1, r1, #1
 362              	.LVL39:
 435:system_psoc6_cm0plus.c ****     cy_PeriClkFreqHz = pathFreqHz;
 363              		.loc 1 435 0
 364 0158 FFF7FEFF 		bl	__aeabi_uidiv
 365              	.LVL40:
 436:system_psoc6_cm0plus.c ****     pathFreqHz = pathFreqHz / slowClkDiv;
 366              		.loc 1 436 0
 367 015c A060     		str	r0, [r4, #8]
 437:system_psoc6_cm0plus.c ****     SystemCoreClock = pathFreqHz;
 368              		.loc 1 437 0
 369 015e 2900     		movs	r1, r5
 370 0160 FFF7FEFF 		bl	__aeabi_uidiv
 371              	.LVL41:
 372 0164 0500     		movs	r5, r0
 373              	.LVL42:
 438:system_psoc6_cm0plus.c **** 
 374              		.loc 1 438 0
 375 0166 E060     		str	r0, [r4, #12]
 441:system_psoc6_cm0plus.c ****     cy_delayFreqMhz = (uint8_t)((cy_delayFreqHz + CY_DELAY_1M_MINUS_1_THRESHOLD) / CY_DELAY_1M_THRE
 376              		.loc 1 441 0
 377 0168 2061     		str	r0, [r4, #16]
 442:system_psoc6_cm0plus.c ****     cy_delayFreqKhz = (cy_delayFreqHz + CY_DELAY_1K_MINUS_1_THRESHOLD) / CY_DELAY_1K_THRESHOLD;
 378              		.loc 1 442 0
 379 016a 0E4B     		ldr	r3, .L24+24
 380 016c C018     		adds	r0, r0, r3
 381              	.LVL43:
 382 016e 0E49     		ldr	r1, .L24+28
 383 0170 FFF7FEFF 		bl	__aeabi_uidiv
 384              	.LVL44:
 385 0174 2075     		strb	r0, [r4, #20]
 443:system_psoc6_cm0plus.c ****     cy_delay32kMs   = CY_DELAY_MS_OVERFLOW_THRESHOLD * cy_delayFreqKhz;
 386              		.loc 1 443 0
 387 0176 0D4B     		ldr	r3, .L24+32
 388 0178 E818     		adds	r0, r5, r3
 389 017a FA21     		movs	r1, #250
 390 017c 8900     		lsls	r1, r1, #2
 391 017e FFF7FEFF 		bl	__aeabi_uidiv
 392              	.LVL45:
 393 0182 A061     		str	r0, [r4, #24]
 444:system_psoc6_cm0plus.c **** }
 394              		.loc 1 444 0
 395 0184 C003     		lsls	r0, r0, #15
 396 0186 E061     		str	r0, [r4, #28]
 445:system_psoc6_cm0plus.c **** 
 397              		.loc 1 445 0
ARM GAS  C:\Users\Rolf\AppData\Local\Temp\ccafVfle.s 			page 20


 398              		@ sp needed
 399              	.LVL46:
 400 0188 70BD     		pop	{r4, r5, r6, pc}
 401              	.L25:
 402 018a C046     		.align	2
 403              	.L24:
 404 018c 00002640 		.word	1076232192
 405 0190 00127A00 		.word	8000000
 406 0194 00000000 		.word	.LANCHOR0
 407 0198 00366E01 		.word	24000000
 408 019c 84050000 		.word	1412
 409 01a0 00002140 		.word	1075904512
 410 01a4 3F420F00 		.word	999999
 411 01a8 40420F00 		.word	1000000
 412 01ac E7030000 		.word	999
 413              		.cfi_endproc
 414              	.LFE75:
 415              		.size	SystemCoreClockUpdate, .-SystemCoreClockUpdate
 416              		.section	.text.SystemInit,"ax",%progbits
 417              		.align	2
 418              		.global	SystemInit
 419              		.code	16
 420              		.thumb_func
 421              		.type	SystemInit, %function
 422              	SystemInit:
 423              	.LFB73:
 163:system_psoc6_cm0plus.c ****     Cy_PDL_Init(CY_DEVICE_CFG);
 424              		.loc 1 163 0
 425              		.cfi_startproc
 426              		@ args = 0, pretend = 0, frame = 0
 427              		@ frame_needed = 0, uses_anonymous_args = 0
 428 0000 10B5     		push	{r4, lr}
 429              		.cfi_def_cfa_offset 8
 430              		.cfi_offset 4, -8
 431              		.cfi_offset 14, -4
 164:system_psoc6_cm0plus.c **** 
 432              		.loc 1 164 0
 433 0002 2848     		ldr	r0, .L31
 434 0004 FFF7FEFF 		bl	Cy_PDL_Init
 435              	.LVL47:
 167:system_psoc6_cm0plus.c ****     copy &= ~SRSS_CLK_FLL_CONFIG_FLL_ENABLE_Msk;
 436              		.loc 1 167 0
 437 0008 274C     		ldr	r4, .L31+4
 438 000a B022     		movs	r2, #176
 439 000c D200     		lsls	r2, r2, #3
 440 000e A358     		ldr	r3, [r4, r2]
 441              	.LVL48:
 168:system_psoc6_cm0plus.c ****     SRSS->CLK_FLL_CONFIG = copy;
 442              		.loc 1 168 0
 443 0010 5B00     		lsls	r3, r3, #1
 444              	.LVL49:
 445 0012 5B08     		lsrs	r3, r3, #1
 446              	.LVL50:
 169:system_psoc6_cm0plus.c **** 
 447              		.loc 1 169 0
 448 0014 A350     		str	r3, [r4, r2]
 171:system_psoc6_cm0plus.c ****     copy &= ~SRSS_CLK_ROOT_SELECT_ROOT_DIV_Msk; /* Set ROOT_DIV = 0*/
ARM GAS  C:\Users\Rolf\AppData\Local\Temp\ccafVfle.s 			page 21


 449              		.loc 1 171 0
 450 0016 E021     		movs	r1, #224
 451 0018 8900     		lsls	r1, r1, #2
 452 001a 6358     		ldr	r3, [r4, r1]
 453              	.LVL51:
 172:system_psoc6_cm0plus.c ****     SRSS->CLK_ROOT_SELECT[0u] = copy;
 454              		.loc 1 172 0
 455 001c 3020     		movs	r0, #48
 456 001e 8343     		bics	r3, r0
 457              	.LVL52:
 173:system_psoc6_cm0plus.c **** 
 458              		.loc 1 173 0
 459 0020 6350     		str	r3, [r4, r1]
 175:system_psoc6_cm0plus.c ****     SRSS->CLK_FLL_CONFIG2 = CY_FB_CLK_FLL_CONFIG2_VALUE;
 460              		.loc 1 175 0
 461 0022 8023     		movs	r3, #128
 462              	.LVL53:
 463 0024 5B04     		lsls	r3, r3, #17
 464 0026 A350     		str	r3, [r4, r2]
 465              	.LVL54:
 176:system_psoc6_cm0plus.c ****     SRSS->CLK_FLL_CONFIG3 = CY_FB_CLK_FLL_CONFIG3_VALUE;
 466              		.loc 1 176 0
 467 0028 204A     		ldr	r2, .L31+8
 468 002a 214B     		ldr	r3, .L31+12
 469 002c E250     		str	r2, [r4, r3]
 177:system_psoc6_cm0plus.c ****     SRSS->CLK_FLL_CONFIG4 = CY_FB_CLK_FLL_CONFIG4_VALUE;
 470              		.loc 1 177 0
 471 002e A022     		movs	r2, #160
 472 0030 9201     		lsls	r2, r2, #6
 473 0032 0433     		adds	r3, r3, #4
 474 0034 E250     		str	r2, [r4, r3]
 178:system_psoc6_cm0plus.c **** 
 475              		.loc 1 178 0
 476 0036 FF22     		movs	r2, #255
 477 0038 1E4B     		ldr	r3, .L31+16
 478 003a E250     		str	r2, [r4, r3]
 181:system_psoc6_cm0plus.c ****     Cy_WDT_Disable();
 479              		.loc 1 181 0
 480 003c FFF7FEFF 		bl	Cy_WDT_Unlock
 481              	.LVL55:
 482              	.LBB12:
 483              	.LBB13:
 484              		.file 2 "Generated_Source\\PSoC6\\pdl\\drivers/peripheral/wdt/cy_wdt.h"
   1:Generated_Source\PSoC6\pdl\drivers/peripheral/wdt/cy_wdt.h **** /***************************************************************************//**
   2:Generated_Source\PSoC6\pdl\drivers/peripheral/wdt/cy_wdt.h **** * \file cy_wdt.h
   3:Generated_Source\PSoC6\pdl\drivers/peripheral/wdt/cy_wdt.h **** * \version 1.10
   4:Generated_Source\PSoC6\pdl\drivers/peripheral/wdt/cy_wdt.h **** *
   5:Generated_Source\PSoC6\pdl\drivers/peripheral/wdt/cy_wdt.h **** *  This file provides constants and parameter values for the WDT driver.
   6:Generated_Source\PSoC6\pdl\drivers/peripheral/wdt/cy_wdt.h **** *
   7:Generated_Source\PSoC6\pdl\drivers/peripheral/wdt/cy_wdt.h **** ********************************************************************************
   8:Generated_Source\PSoC6\pdl\drivers/peripheral/wdt/cy_wdt.h **** * \copyright
   9:Generated_Source\PSoC6\pdl\drivers/peripheral/wdt/cy_wdt.h **** * Copyright 2016-2018, Cypress Semiconductor Corporation.  All rights reserved.
  10:Generated_Source\PSoC6\pdl\drivers/peripheral/wdt/cy_wdt.h **** * You may use this file only in accordance with the license, terms, conditions,
  11:Generated_Source\PSoC6\pdl\drivers/peripheral/wdt/cy_wdt.h **** * disclaimers, and limitations in the end user license agreement accompanying
  12:Generated_Source\PSoC6\pdl\drivers/peripheral/wdt/cy_wdt.h **** * the software package with which this file was provided.
  13:Generated_Source\PSoC6\pdl\drivers/peripheral/wdt/cy_wdt.h **** *
  14:Generated_Source\PSoC6\pdl\drivers/peripheral/wdt/cy_wdt.h **** *******************************************************************************/
ARM GAS  C:\Users\Rolf\AppData\Local\Temp\ccafVfle.s 			page 22


  15:Generated_Source\PSoC6\pdl\drivers/peripheral/wdt/cy_wdt.h **** 
  16:Generated_Source\PSoC6\pdl\drivers/peripheral/wdt/cy_wdt.h **** /**
  17:Generated_Source\PSoC6\pdl\drivers/peripheral/wdt/cy_wdt.h **** * \addtogroup group_wdt
  18:Generated_Source\PSoC6\pdl\drivers/peripheral/wdt/cy_wdt.h **** * \{
  19:Generated_Source\PSoC6\pdl\drivers/peripheral/wdt/cy_wdt.h **** *
  20:Generated_Source\PSoC6\pdl\drivers/peripheral/wdt/cy_wdt.h **** * The Watchdog timer (WDT) has a 16-bit free-running up-counter. 
  21:Generated_Source\PSoC6\pdl\drivers/peripheral/wdt/cy_wdt.h **** *
  22:Generated_Source\PSoC6\pdl\drivers/peripheral/wdt/cy_wdt.h **** * The functions and other declarations used in this driver are in cy_wdt.h. 
  23:Generated_Source\PSoC6\pdl\drivers/peripheral/wdt/cy_wdt.h **** * You can include cy_pdl.h (ModusToolbox only) to get access to all functions 
  24:Generated_Source\PSoC6\pdl\drivers/peripheral/wdt/cy_wdt.h **** * and declarations in the PDL. 
  25:Generated_Source\PSoC6\pdl\drivers/peripheral/wdt/cy_wdt.h **** *
  26:Generated_Source\PSoC6\pdl\drivers/peripheral/wdt/cy_wdt.h **** * The WDT can issue counter match interrupts, and a device reset if its interrupts are not 
  27:Generated_Source\PSoC6\pdl\drivers/peripheral/wdt/cy_wdt.h **** * handled. Use the Watchdog timer for two main purposes:
  28:Generated_Source\PSoC6\pdl\drivers/peripheral/wdt/cy_wdt.h **** *
  29:Generated_Source\PSoC6\pdl\drivers/peripheral/wdt/cy_wdt.h **** * The <b> First use case </b> is recovering from a CPU or firmware failure.
  30:Generated_Source\PSoC6\pdl\drivers/peripheral/wdt/cy_wdt.h **** * A timeout period is set up in the Watchdog timer, and if a timeout occurs, the
  31:Generated_Source\PSoC6\pdl\drivers/peripheral/wdt/cy_wdt.h **** * device is reset (WRES). <br>
  32:Generated_Source\PSoC6\pdl\drivers/peripheral/wdt/cy_wdt.h **** * The <b>Second use case</b> is to generate periodic interrupts.
  33:Generated_Source\PSoC6\pdl\drivers/peripheral/wdt/cy_wdt.h **** * It is strongly recommended not to use the WDT for periodic interrupt
  34:Generated_Source\PSoC6\pdl\drivers/peripheral/wdt/cy_wdt.h **** * generation. However, if absolutely required, see information below.
  35:Generated_Source\PSoC6\pdl\drivers/peripheral/wdt/cy_wdt.h **** *
  36:Generated_Source\PSoC6\pdl\drivers/peripheral/wdt/cy_wdt.h **** * A "reset cause" register exists, and the firmware should check this register 
  37:Generated_Source\PSoC6\pdl\drivers/peripheral/wdt/cy_wdt.h **** * at a start-up. An appropriate action can be taken if a WRES reset is detected.
  38:Generated_Source\PSoC6\pdl\drivers/peripheral/wdt/cy_wdt.h **** *
  39:Generated_Source\PSoC6\pdl\drivers/peripheral/wdt/cy_wdt.h **** * The user's firmware periodically resets the timeout period (clears or "feeds" 
  40:Generated_Source\PSoC6\pdl\drivers/peripheral/wdt/cy_wdt.h **** * the watchdog) before a timeout occurs. If the firmware fails to do so, that is
  41:Generated_Source\PSoC6\pdl\drivers/peripheral/wdt/cy_wdt.h **** * considered to be a CPU crash or a firmware failure, and the reason for a 
  42:Generated_Source\PSoC6\pdl\drivers/peripheral/wdt/cy_wdt.h **** * device reset.
  43:Generated_Source\PSoC6\pdl\drivers/peripheral/wdt/cy_wdt.h **** * The WDT can generate an interrupt instead of a device reset. The Interrupt 
  44:Generated_Source\PSoC6\pdl\drivers/peripheral/wdt/cy_wdt.h **** * Service Routine (ISR) can handle the interrupt either as a periodic interrupt,
  45:Generated_Source\PSoC6\pdl\drivers/peripheral/wdt/cy_wdt.h **** * or as an early indication of a firmware failure and respond accordingly.
  46:Generated_Source\PSoC6\pdl\drivers/peripheral/wdt/cy_wdt.h **** * However, it is not recommended to use the WDT for periodic interrupt 
  47:Generated_Source\PSoC6\pdl\drivers/peripheral/wdt/cy_wdt.h **** * generation. The Multi-counter Watchdog Timers (MCWDT) can be used to generate 
  48:Generated_Source\PSoC6\pdl\drivers/peripheral/wdt/cy_wdt.h **** * periodic interrupts if such are presented in the device.
  49:Generated_Source\PSoC6\pdl\drivers/peripheral/wdt/cy_wdt.h **** *
  50:Generated_Source\PSoC6\pdl\drivers/peripheral/wdt/cy_wdt.h **** * <b> Functional Description </b>
  51:Generated_Source\PSoC6\pdl\drivers/peripheral/wdt/cy_wdt.h **** *
  52:Generated_Source\PSoC6\pdl\drivers/peripheral/wdt/cy_wdt.h **** * The WDT generates an interrupt when the count value in the counter equals the 
  53:Generated_Source\PSoC6\pdl\drivers/peripheral/wdt/cy_wdt.h **** * configured match value.
  54:Generated_Source\PSoC6\pdl\drivers/peripheral/wdt/cy_wdt.h **** *
  55:Generated_Source\PSoC6\pdl\drivers/peripheral/wdt/cy_wdt.h **** * Note that the counter is not reset on a match. In such case the WDT
  56:Generated_Source\PSoC6\pdl\drivers/peripheral/wdt/cy_wdt.h **** * reset period is:
  57:Generated_Source\PSoC6\pdl\drivers/peripheral/wdt/cy_wdt.h **** * WDT_Reset_Period = ILO_Period * (2*2^(16-IgnoreBits) + MatchValue);
  58:Generated_Source\PSoC6\pdl\drivers/peripheral/wdt/cy_wdt.h **** * When the counter reaches a match value, it generates an interrupt and then 
  59:Generated_Source\PSoC6\pdl\drivers/peripheral/wdt/cy_wdt.h **** * keeps counting up until it overflows and rolls back to zero and reaches the 
  60:Generated_Source\PSoC6\pdl\drivers/peripheral/wdt/cy_wdt.h **** * match value again, at which point another interrupt is generated.
  61:Generated_Source\PSoC6\pdl\drivers/peripheral/wdt/cy_wdt.h **** *
  62:Generated_Source\PSoC6\pdl\drivers/peripheral/wdt/cy_wdt.h **** * To use a WDT to generate a periodic interrupt, the match value should be 
  63:Generated_Source\PSoC6\pdl\drivers/peripheral/wdt/cy_wdt.h **** * incremented in the ISR. As a result, the next WDT interrupt is generated when 
  64:Generated_Source\PSoC6\pdl\drivers/peripheral/wdt/cy_wdt.h **** * the counter reaches a new match value.
  65:Generated_Source\PSoC6\pdl\drivers/peripheral/wdt/cy_wdt.h **** *
  66:Generated_Source\PSoC6\pdl\drivers/peripheral/wdt/cy_wdt.h **** * You can also reduce the entire WDT counter period by 
  67:Generated_Source\PSoC6\pdl\drivers/peripheral/wdt/cy_wdt.h **** * specifying the number of most significant bits that are ignored in the WDT 
  68:Generated_Source\PSoC6\pdl\drivers/peripheral/wdt/cy_wdt.h **** * counter. For example, if the Cy_WDT_SetIgnoreBits() function is called with
  69:Generated_Source\PSoC6\pdl\drivers/peripheral/wdt/cy_wdt.h **** * parameter 3, the WDT counter becomes a 13-bit free-running up-counter.
  70:Generated_Source\PSoC6\pdl\drivers/peripheral/wdt/cy_wdt.h **** *
  71:Generated_Source\PSoC6\pdl\drivers/peripheral/wdt/cy_wdt.h **** * <b> Power Modes </b> 
ARM GAS  C:\Users\Rolf\AppData\Local\Temp\ccafVfle.s 			page 23


  72:Generated_Source\PSoC6\pdl\drivers/peripheral/wdt/cy_wdt.h **** *
  73:Generated_Source\PSoC6\pdl\drivers/peripheral/wdt/cy_wdt.h **** * WDT can operate in all possible low power modes. 
  74:Generated_Source\PSoC6\pdl\drivers/peripheral/wdt/cy_wdt.h **** * Operation during Hibernate mode is possible because the logic and 
  75:Generated_Source\PSoC6\pdl\drivers/peripheral/wdt/cy_wdt.h **** * high-voltage internal low oscillator (ILO) are supplied by the external 
  76:Generated_Source\PSoC6\pdl\drivers/peripheral/wdt/cy_wdt.h **** * high-voltage supply (Vddd). The WDT can be configured to wake the device from 
  77:Generated_Source\PSoC6\pdl\drivers/peripheral/wdt/cy_wdt.h **** * Hibernate mode.
  78:Generated_Source\PSoC6\pdl\drivers/peripheral/wdt/cy_wdt.h **** *
  79:Generated_Source\PSoC6\pdl\drivers/peripheral/wdt/cy_wdt.h **** * In CPU Active mode, an interrupt request from the WDT is sent to the 
  80:Generated_Source\PSoC6\pdl\drivers/peripheral/wdt/cy_wdt.h **** * CPU. In CPU Sleep, CPU Deep Sleep mode, the CPU subsystem 
  81:Generated_Source\PSoC6\pdl\drivers/peripheral/wdt/cy_wdt.h **** * is powered down, so the interrupt request from the WDT is sent directly to the
  82:Generated_Source\PSoC6\pdl\drivers/peripheral/wdt/cy_wdt.h **** * WakeUp Interrupt Controller (WIC) which will then wake up the CPU. The 
  83:Generated_Source\PSoC6\pdl\drivers/peripheral/wdt/cy_wdt.h **** * CPU then acknowledges the interrupt request and executes the ISR.
  84:Generated_Source\PSoC6\pdl\drivers/peripheral/wdt/cy_wdt.h **** *
  85:Generated_Source\PSoC6\pdl\drivers/peripheral/wdt/cy_wdt.h **** * <b> Clock Source </b>
  86:Generated_Source\PSoC6\pdl\drivers/peripheral/wdt/cy_wdt.h **** *
  87:Generated_Source\PSoC6\pdl\drivers/peripheral/wdt/cy_wdt.h **** * The WDT is clocked by the ILO. The WDT must be disabled before disabling 
  88:Generated_Source\PSoC6\pdl\drivers/peripheral/wdt/cy_wdt.h **** * the ILO. According to the device datasheet, the ILO accuracy is +/-30% over 
  89:Generated_Source\PSoC6\pdl\drivers/peripheral/wdt/cy_wdt.h **** * voltage and temperature. This means that the timeout period may vary by 30% 
  90:Generated_Source\PSoC6\pdl\drivers/peripheral/wdt/cy_wdt.h **** * from the configured value. Appropriate margins should be added while 
  91:Generated_Source\PSoC6\pdl\drivers/peripheral/wdt/cy_wdt.h **** * configuring WDT intervals to make sure that unwanted device resets do not 
  92:Generated_Source\PSoC6\pdl\drivers/peripheral/wdt/cy_wdt.h **** * occur on some devices.
  93:Generated_Source\PSoC6\pdl\drivers/peripheral/wdt/cy_wdt.h **** * 
  94:Generated_Source\PSoC6\pdl\drivers/peripheral/wdt/cy_wdt.h **** * Refer to the device datasheet for more information on the oscillator accuracy.
  95:Generated_Source\PSoC6\pdl\drivers/peripheral/wdt/cy_wdt.h **** *
  96:Generated_Source\PSoC6\pdl\drivers/peripheral/wdt/cy_wdt.h **** * <b> Register Locking </b>
  97:Generated_Source\PSoC6\pdl\drivers/peripheral/wdt/cy_wdt.h **** *
  98:Generated_Source\PSoC6\pdl\drivers/peripheral/wdt/cy_wdt.h **** * You can prevent accidental corruption of the WDT configuration by calling 
  99:Generated_Source\PSoC6\pdl\drivers/peripheral/wdt/cy_wdt.h **** * the Cy_WDT_Lock() function. When the WDT is locked, any writing to the WDT_*, 
 100:Generated_Source\PSoC6\pdl\drivers/peripheral/wdt/cy_wdt.h **** * CLK_ILO_CONFIG, CLK_SELECT.LFCLK_SEL, and CLK_TRIM_ILO_CTL registers is 
 101:Generated_Source\PSoC6\pdl\drivers/peripheral/wdt/cy_wdt.h **** * ignored.
 102:Generated_Source\PSoC6\pdl\drivers/peripheral/wdt/cy_wdt.h **** * Call the Cy_WDT_Unlock() function to allow WDT registers modification.
 103:Generated_Source\PSoC6\pdl\drivers/peripheral/wdt/cy_wdt.h **** *
 104:Generated_Source\PSoC6\pdl\drivers/peripheral/wdt/cy_wdt.h **** * <b> Clearing WDT </b>
 105:Generated_Source\PSoC6\pdl\drivers/peripheral/wdt/cy_wdt.h **** *
 106:Generated_Source\PSoC6\pdl\drivers/peripheral/wdt/cy_wdt.h **** * The ILO clock is asynchronous to the SysClk. Therefore it generally 
 107:Generated_Source\PSoC6\pdl\drivers/peripheral/wdt/cy_wdt.h **** * takes three ILO cycles for WDT register changes to come into effect. It is 
 108:Generated_Source\PSoC6\pdl\drivers/peripheral/wdt/cy_wdt.h **** * important to remember that a WDT should be cleared at least four cycles 
 109:Generated_Source\PSoC6\pdl\drivers/peripheral/wdt/cy_wdt.h **** * (3 + 1 for sure) before a timeout occurs, especially when small 
 110:Generated_Source\PSoC6\pdl\drivers/peripheral/wdt/cy_wdt.h **** * match values / low-toggle bit numbers are used.
 111:Generated_Source\PSoC6\pdl\drivers/peripheral/wdt/cy_wdt.h **** *
 112:Generated_Source\PSoC6\pdl\drivers/peripheral/wdt/cy_wdt.h **** * \warning It may happen that a WDT reset can be generated 
 113:Generated_Source\PSoC6\pdl\drivers/peripheral/wdt/cy_wdt.h **** * faster than a device start-up. To prevent this, calculate the 
 114:Generated_Source\PSoC6\pdl\drivers/peripheral/wdt/cy_wdt.h **** * start-up time and WDT reset time. The WDT reset time should be always greater
 115:Generated_Source\PSoC6\pdl\drivers/peripheral/wdt/cy_wdt.h **** * than device start-up time.
 116:Generated_Source\PSoC6\pdl\drivers/peripheral/wdt/cy_wdt.h **** *
 117:Generated_Source\PSoC6\pdl\drivers/peripheral/wdt/cy_wdt.h **** * <b> Reset Detection </b> 
 118:Generated_Source\PSoC6\pdl\drivers/peripheral/wdt/cy_wdt.h **** *
 119:Generated_Source\PSoC6\pdl\drivers/peripheral/wdt/cy_wdt.h **** * Use the Cy_SysLib_GetResetReason() function to detect whether the WDT has 
 120:Generated_Source\PSoC6\pdl\drivers/peripheral/wdt/cy_wdt.h **** * triggered a device reset.
 121:Generated_Source\PSoC6\pdl\drivers/peripheral/wdt/cy_wdt.h **** *
 122:Generated_Source\PSoC6\pdl\drivers/peripheral/wdt/cy_wdt.h **** * <b> Interrupt Configuration </b>
 123:Generated_Source\PSoC6\pdl\drivers/peripheral/wdt/cy_wdt.h **** *
 124:Generated_Source\PSoC6\pdl\drivers/peripheral/wdt/cy_wdt.h **** * If the WDT is configured to generate an interrupt, pending 
 125:Generated_Source\PSoC6\pdl\drivers/peripheral/wdt/cy_wdt.h **** * interrupts must be cleared within the ISR (otherwise, the interrupt will be 
 126:Generated_Source\PSoC6\pdl\drivers/peripheral/wdt/cy_wdt.h **** * generated continuously).
 127:Generated_Source\PSoC6\pdl\drivers/peripheral/wdt/cy_wdt.h **** * A pending interrupt to the WDT block must be cleared by calling the 
 128:Generated_Source\PSoC6\pdl\drivers/peripheral/wdt/cy_wdt.h **** * Cy_WDT_ClearInterrupt() function. The call to the function will clear the 
ARM GAS  C:\Users\Rolf\AppData\Local\Temp\ccafVfle.s 			page 24


 129:Generated_Source\PSoC6\pdl\drivers/peripheral/wdt/cy_wdt.h **** * unhandled WDT interrupt counter.
 130:Generated_Source\PSoC6\pdl\drivers/peripheral/wdt/cy_wdt.h **** *
 131:Generated_Source\PSoC6\pdl\drivers/peripheral/wdt/cy_wdt.h **** * Use the WDT ISR as a timer to trigger certain actions 
 132:Generated_Source\PSoC6\pdl\drivers/peripheral/wdt/cy_wdt.h **** * and to change a next WDT match value.
 133:Generated_Source\PSoC6\pdl\drivers/peripheral/wdt/cy_wdt.h **** *
 134:Generated_Source\PSoC6\pdl\drivers/peripheral/wdt/cy_wdt.h **** * Ensure that the interrupts from the WDT are passed to the CPU to avoid 
 135:Generated_Source\PSoC6\pdl\drivers/peripheral/wdt/cy_wdt.h **** * unregistered interrupts. Unregistered WDT interrupts result in a continuous 
 136:Generated_Source\PSoC6\pdl\drivers/peripheral/wdt/cy_wdt.h **** * device reset. To avoid this, call Cy_WDT_UnmaskInterrupt().
 137:Generated_Source\PSoC6\pdl\drivers/peripheral/wdt/cy_wdt.h **** * After that, call the WDT API functions for interrupt
 138:Generated_Source\PSoC6\pdl\drivers/peripheral/wdt/cy_wdt.h **** * handling/clearing.
 139:Generated_Source\PSoC6\pdl\drivers/peripheral/wdt/cy_wdt.h **** *
 140:Generated_Source\PSoC6\pdl\drivers/peripheral/wdt/cy_wdt.h **** * \section group_wdt_configuration Configuration Considerations
 141:Generated_Source\PSoC6\pdl\drivers/peripheral/wdt/cy_wdt.h **** *
 142:Generated_Source\PSoC6\pdl\drivers/peripheral/wdt/cy_wdt.h **** * To start the WDT, make sure that ILO is enabled.
 143:Generated_Source\PSoC6\pdl\drivers/peripheral/wdt/cy_wdt.h **** * After the ILO is enabled, ensure that the WDT is unlocked and disabled by 
 144:Generated_Source\PSoC6\pdl\drivers/peripheral/wdt/cy_wdt.h **** * calling the Cy_WDT_Unlock() and Cy_WDT_Disable() functions. Set the WDT match 
 145:Generated_Source\PSoC6\pdl\drivers/peripheral/wdt/cy_wdt.h **** * value by calling Cy_WDT_SetMatch() with the required match value. If needed, 
 146:Generated_Source\PSoC6\pdl\drivers/peripheral/wdt/cy_wdt.h **** * set the ignore bits for reducing the WDT counter period by calling 
 147:Generated_Source\PSoC6\pdl\drivers/peripheral/wdt/cy_wdt.h **** * Cy_WDT_SetIgnoreBits() function. After the WDT configuration is set, 
 148:Generated_Source\PSoC6\pdl\drivers/peripheral/wdt/cy_wdt.h **** * call Cy_WDT_Enable().
 149:Generated_Source\PSoC6\pdl\drivers/peripheral/wdt/cy_wdt.h **** *
 150:Generated_Source\PSoC6\pdl\drivers/peripheral/wdt/cy_wdt.h **** * \note Enable a WDT if the power supply can produce
 151:Generated_Source\PSoC6\pdl\drivers/peripheral/wdt/cy_wdt.h **** * sudden brownout events that may compromise the CPU functionality. This 
 152:Generated_Source\PSoC6\pdl\drivers/peripheral/wdt/cy_wdt.h **** * ensures that the system can recover after a brownout.
 153:Generated_Source\PSoC6\pdl\drivers/peripheral/wdt/cy_wdt.h **** *
 154:Generated_Source\PSoC6\pdl\drivers/peripheral/wdt/cy_wdt.h **** * When the WDT is used to protect against system crashes, the 
 155:Generated_Source\PSoC6\pdl\drivers/peripheral/wdt/cy_wdt.h **** * WDT interrupt should be cleared by a portion of the code that is not directly 
 156:Generated_Source\PSoC6\pdl\drivers/peripheral/wdt/cy_wdt.h **** * associated with the WDT interrupt.
 157:Generated_Source\PSoC6\pdl\drivers/peripheral/wdt/cy_wdt.h **** * Otherwise, it is possible that the main firmware loop has crashed or is in an 
 158:Generated_Source\PSoC6\pdl\drivers/peripheral/wdt/cy_wdt.h **** * endless loop, but the WDT interrupt vector continues to operate and service 
 159:Generated_Source\PSoC6\pdl\drivers/peripheral/wdt/cy_wdt.h **** * the WDT. The user should:
 160:Generated_Source\PSoC6\pdl\drivers/peripheral/wdt/cy_wdt.h **** * * Feed the watchdog by clearing the interrupt bit regularly in the main body 
 161:Generated_Source\PSoC6\pdl\drivers/peripheral/wdt/cy_wdt.h **** * of the firmware code.
 162:Generated_Source\PSoC6\pdl\drivers/peripheral/wdt/cy_wdt.h **** *
 163:Generated_Source\PSoC6\pdl\drivers/peripheral/wdt/cy_wdt.h **** * * Guarantee that the interrupt is cleared at least once every WDT period.
 164:Generated_Source\PSoC6\pdl\drivers/peripheral/wdt/cy_wdt.h **** *
 165:Generated_Source\PSoC6\pdl\drivers/peripheral/wdt/cy_wdt.h **** * * Use the WDT ISR only as a timer to trigger certain actions and to change the
 166:Generated_Source\PSoC6\pdl\drivers/peripheral/wdt/cy_wdt.h **** * next match value.
 167:Generated_Source\PSoC6\pdl\drivers/peripheral/wdt/cy_wdt.h **** *
 168:Generated_Source\PSoC6\pdl\drivers/peripheral/wdt/cy_wdt.h **** * \section group_wdt_section_more_information More Information
 169:Generated_Source\PSoC6\pdl\drivers/peripheral/wdt/cy_wdt.h **** *
 170:Generated_Source\PSoC6\pdl\drivers/peripheral/wdt/cy_wdt.h **** * For more information on the WDT peripheral, refer to the technical reference
 171:Generated_Source\PSoC6\pdl\drivers/peripheral/wdt/cy_wdt.h **** * manual (TRM).
 172:Generated_Source\PSoC6\pdl\drivers/peripheral/wdt/cy_wdt.h **** *
 173:Generated_Source\PSoC6\pdl\drivers/peripheral/wdt/cy_wdt.h **** * \section group_wdt_MISRA MISRA-C Compliance
 174:Generated_Source\PSoC6\pdl\drivers/peripheral/wdt/cy_wdt.h **** * The WDT driver does not have any specific deviations.
 175:Generated_Source\PSoC6\pdl\drivers/peripheral/wdt/cy_wdt.h **** *
 176:Generated_Source\PSoC6\pdl\drivers/peripheral/wdt/cy_wdt.h **** * \section group_wdt_changelog Changelog
 177:Generated_Source\PSoC6\pdl\drivers/peripheral/wdt/cy_wdt.h **** * <table class="doxtable">
 178:Generated_Source\PSoC6\pdl\drivers/peripheral/wdt/cy_wdt.h **** *   <tr><th>Version</th><th>Changes</th><th>Reason for Change</th></tr>
 179:Generated_Source\PSoC6\pdl\drivers/peripheral/wdt/cy_wdt.h **** *   <tr>
 180:Generated_Source\PSoC6\pdl\drivers/peripheral/wdt/cy_wdt.h **** *     <td rowspan="4">1.10</td>
 181:Generated_Source\PSoC6\pdl\drivers/peripheral/wdt/cy_wdt.h **** *     <td>Flattened the organization of the driver source code into the single 
 182:Generated_Source\PSoC6\pdl\drivers/peripheral/wdt/cy_wdt.h **** *         source directory and the single include directory.
 183:Generated_Source\PSoC6\pdl\drivers/peripheral/wdt/cy_wdt.h **** *     </td>
 184:Generated_Source\PSoC6\pdl\drivers/peripheral/wdt/cy_wdt.h **** *     <td>Driver library directory-structure simplification.</td>
 185:Generated_Source\PSoC6\pdl\drivers/peripheral/wdt/cy_wdt.h **** *   </tr>
ARM GAS  C:\Users\Rolf\AppData\Local\Temp\ccafVfle.s 			page 25


 186:Generated_Source\PSoC6\pdl\drivers/peripheral/wdt/cy_wdt.h **** *   <tr>
 187:Generated_Source\PSoC6\pdl\drivers/peripheral/wdt/cy_wdt.h **** *     <td> Removed critical section usage in the following functions:
 188:Generated_Source\PSoC6\pdl\drivers/peripheral/wdt/cy_wdt.h **** *           - \ref Cy_WDT_Init()
 189:Generated_Source\PSoC6\pdl\drivers/peripheral/wdt/cy_wdt.h **** *           - \ref Cy_WDT_Lock()
 190:Generated_Source\PSoC6\pdl\drivers/peripheral/wdt/cy_wdt.h **** *           - \ref Cy_WDT_Unlock()
 191:Generated_Source\PSoC6\pdl\drivers/peripheral/wdt/cy_wdt.h **** *     </td>
 192:Generated_Source\PSoC6\pdl\drivers/peripheral/wdt/cy_wdt.h **** *   <td>Driver functions simplification</td>
 193:Generated_Source\PSoC6\pdl\drivers/peripheral/wdt/cy_wdt.h **** *   </tr>
 194:Generated_Source\PSoC6\pdl\drivers/peripheral/wdt/cy_wdt.h **** *   <tr>
 195:Generated_Source\PSoC6\pdl\drivers/peripheral/wdt/cy_wdt.h **** *     <td>Updated the \ref Cy_WDT_Init(), \ref Cy_WDT_Enable() to clear WDT interrupt.</td>
 196:Generated_Source\PSoC6\pdl\drivers/peripheral/wdt/cy_wdt.h **** *     <td>Corner case reliability improvements</td>
 197:Generated_Source\PSoC6\pdl\drivers/peripheral/wdt/cy_wdt.h **** *   </tr>
 198:Generated_Source\PSoC6\pdl\drivers/peripheral/wdt/cy_wdt.h **** *   <tr>
 199:Generated_Source\PSoC6\pdl\drivers/peripheral/wdt/cy_wdt.h **** *     <td>Added register access layer. Use register access macros instead
 200:Generated_Source\PSoC6\pdl\drivers/peripheral/wdt/cy_wdt.h **** *         of direct register access using dereferenced pointers.</td>
 201:Generated_Source\PSoC6\pdl\drivers/peripheral/wdt/cy_wdt.h **** *     <td>Makes register access device-independent, so that the PDL does 
 202:Generated_Source\PSoC6\pdl\drivers/peripheral/wdt/cy_wdt.h **** *         not need to be recompiled for each supported part number.</td>
 203:Generated_Source\PSoC6\pdl\drivers/peripheral/wdt/cy_wdt.h **** *   </tr>
 204:Generated_Source\PSoC6\pdl\drivers/peripheral/wdt/cy_wdt.h **** *   <tr>
 205:Generated_Source\PSoC6\pdl\drivers/peripheral/wdt/cy_wdt.h **** *     <td>1.0.2</td>
 206:Generated_Source\PSoC6\pdl\drivers/peripheral/wdt/cy_wdt.h **** *     <td>Minor documentation updates</td>
 207:Generated_Source\PSoC6\pdl\drivers/peripheral/wdt/cy_wdt.h **** *     <td>Corrected info about a reset generation</td>
 208:Generated_Source\PSoC6\pdl\drivers/peripheral/wdt/cy_wdt.h **** *   </tr>
 209:Generated_Source\PSoC6\pdl\drivers/peripheral/wdt/cy_wdt.h **** *   <tr>
 210:Generated_Source\PSoC6\pdl\drivers/peripheral/wdt/cy_wdt.h **** *     <td>1.0.1</td>
 211:Generated_Source\PSoC6\pdl\drivers/peripheral/wdt/cy_wdt.h **** *     <td>General documentation updates</td>
 212:Generated_Source\PSoC6\pdl\drivers/peripheral/wdt/cy_wdt.h **** *     <td>Added info about periodic interrupt generation use case</td>
 213:Generated_Source\PSoC6\pdl\drivers/peripheral/wdt/cy_wdt.h **** *   </tr>
 214:Generated_Source\PSoC6\pdl\drivers/peripheral/wdt/cy_wdt.h **** *   <tr>
 215:Generated_Source\PSoC6\pdl\drivers/peripheral/wdt/cy_wdt.h **** *     <td>1.0</td>
 216:Generated_Source\PSoC6\pdl\drivers/peripheral/wdt/cy_wdt.h **** *     <td>Initial version</td>
 217:Generated_Source\PSoC6\pdl\drivers/peripheral/wdt/cy_wdt.h **** *     <td></td>
 218:Generated_Source\PSoC6\pdl\drivers/peripheral/wdt/cy_wdt.h **** *   </tr>
 219:Generated_Source\PSoC6\pdl\drivers/peripheral/wdt/cy_wdt.h **** * </table>
 220:Generated_Source\PSoC6\pdl\drivers/peripheral/wdt/cy_wdt.h **** *
 221:Generated_Source\PSoC6\pdl\drivers/peripheral/wdt/cy_wdt.h **** * \defgroup group_wdt_macros Macros
 222:Generated_Source\PSoC6\pdl\drivers/peripheral/wdt/cy_wdt.h **** * \defgroup group_wdt_functions Functions
 223:Generated_Source\PSoC6\pdl\drivers/peripheral/wdt/cy_wdt.h **** *
 224:Generated_Source\PSoC6\pdl\drivers/peripheral/wdt/cy_wdt.h **** */
 225:Generated_Source\PSoC6\pdl\drivers/peripheral/wdt/cy_wdt.h **** 
 226:Generated_Source\PSoC6\pdl\drivers/peripheral/wdt/cy_wdt.h **** #if !defined(CY_WDT_H)
 227:Generated_Source\PSoC6\pdl\drivers/peripheral/wdt/cy_wdt.h **** #define CY_WDT_H
 228:Generated_Source\PSoC6\pdl\drivers/peripheral/wdt/cy_wdt.h **** 
 229:Generated_Source\PSoC6\pdl\drivers/peripheral/wdt/cy_wdt.h **** #include <stdint.h>
 230:Generated_Source\PSoC6\pdl\drivers/peripheral/wdt/cy_wdt.h **** #include <stdbool.h>
 231:Generated_Source\PSoC6\pdl\drivers/peripheral/wdt/cy_wdt.h **** #include "cy_device_headers.h"
 232:Generated_Source\PSoC6\pdl\drivers/peripheral/wdt/cy_wdt.h **** #include "cy_device.h"
 233:Generated_Source\PSoC6\pdl\drivers/peripheral/wdt/cy_wdt.h **** 
 234:Generated_Source\PSoC6\pdl\drivers/peripheral/wdt/cy_wdt.h **** #if defined(__cplusplus)
 235:Generated_Source\PSoC6\pdl\drivers/peripheral/wdt/cy_wdt.h **** extern "C" {
 236:Generated_Source\PSoC6\pdl\drivers/peripheral/wdt/cy_wdt.h **** #endif
 237:Generated_Source\PSoC6\pdl\drivers/peripheral/wdt/cy_wdt.h **** 
 238:Generated_Source\PSoC6\pdl\drivers/peripheral/wdt/cy_wdt.h **** 
 239:Generated_Source\PSoC6\pdl\drivers/peripheral/wdt/cy_wdt.h **** /*******************************************************************************
 240:Generated_Source\PSoC6\pdl\drivers/peripheral/wdt/cy_wdt.h **** *       Function Constants
 241:Generated_Source\PSoC6\pdl\drivers/peripheral/wdt/cy_wdt.h **** *******************************************************************************/
 242:Generated_Source\PSoC6\pdl\drivers/peripheral/wdt/cy_wdt.h **** 
ARM GAS  C:\Users\Rolf\AppData\Local\Temp\ccafVfle.s 			page 26


 243:Generated_Source\PSoC6\pdl\drivers/peripheral/wdt/cy_wdt.h **** /**
 244:Generated_Source\PSoC6\pdl\drivers/peripheral/wdt/cy_wdt.h **** * \addtogroup group_wdt_macros
 245:Generated_Source\PSoC6\pdl\drivers/peripheral/wdt/cy_wdt.h **** * \{
 246:Generated_Source\PSoC6\pdl\drivers/peripheral/wdt/cy_wdt.h **** */
 247:Generated_Source\PSoC6\pdl\drivers/peripheral/wdt/cy_wdt.h **** 
 248:Generated_Source\PSoC6\pdl\drivers/peripheral/wdt/cy_wdt.h **** /** The driver major version */
 249:Generated_Source\PSoC6\pdl\drivers/peripheral/wdt/cy_wdt.h **** #define CY_WDT_DRV_VERSION_MAJOR                       1
 250:Generated_Source\PSoC6\pdl\drivers/peripheral/wdt/cy_wdt.h **** 
 251:Generated_Source\PSoC6\pdl\drivers/peripheral/wdt/cy_wdt.h **** /** The driver minor version */
 252:Generated_Source\PSoC6\pdl\drivers/peripheral/wdt/cy_wdt.h **** #define CY_WDT_DRV_VERSION_MINOR                       10
 253:Generated_Source\PSoC6\pdl\drivers/peripheral/wdt/cy_wdt.h **** 
 254:Generated_Source\PSoC6\pdl\drivers/peripheral/wdt/cy_wdt.h **** /** The internal define for the first iteration of WDT unlocking */
 255:Generated_Source\PSoC6\pdl\drivers/peripheral/wdt/cy_wdt.h **** #define CY_SRSS_WDT_LOCK_BIT0                           ((uint32_t)0x01U << 30U)
 256:Generated_Source\PSoC6\pdl\drivers/peripheral/wdt/cy_wdt.h **** 
 257:Generated_Source\PSoC6\pdl\drivers/peripheral/wdt/cy_wdt.h **** /** The internal define for the second iteration of WDT unlocking */
 258:Generated_Source\PSoC6\pdl\drivers/peripheral/wdt/cy_wdt.h **** #define CY_SRSS_WDT_LOCK_BIT1                           ((uint32_t)0x01U << 31U)
 259:Generated_Source\PSoC6\pdl\drivers/peripheral/wdt/cy_wdt.h **** 
 260:Generated_Source\PSoC6\pdl\drivers/peripheral/wdt/cy_wdt.h **** /** The WDT default match value */
 261:Generated_Source\PSoC6\pdl\drivers/peripheral/wdt/cy_wdt.h **** #define CY_SRSS_WDT_DEFAULT_MATCH_VALUE                 ((uint32_t) 4096U)
 262:Generated_Source\PSoC6\pdl\drivers/peripheral/wdt/cy_wdt.h **** 
 263:Generated_Source\PSoC6\pdl\drivers/peripheral/wdt/cy_wdt.h **** /** The default match value of the WDT ignore bits */
 264:Generated_Source\PSoC6\pdl\drivers/peripheral/wdt/cy_wdt.h **** #define CY_SRSS_WDT_DEFAULT_IGNORE_BITS                 (0U)
 265:Generated_Source\PSoC6\pdl\drivers/peripheral/wdt/cy_wdt.h **** 
 266:Generated_Source\PSoC6\pdl\drivers/peripheral/wdt/cy_wdt.h **** /** The default match value of the WDT ignore bits */
 267:Generated_Source\PSoC6\pdl\drivers/peripheral/wdt/cy_wdt.h **** #define CY_SRSS_WDT_LOCK_BITS                           (3U)
 268:Generated_Source\PSoC6\pdl\drivers/peripheral/wdt/cy_wdt.h **** 
 269:Generated_Source\PSoC6\pdl\drivers/peripheral/wdt/cy_wdt.h **** /** The WDT driver identifier */
 270:Generated_Source\PSoC6\pdl\drivers/peripheral/wdt/cy_wdt.h **** #define CY_WDT_ID                                       CY_PDL_DRV_ID(0x34U)
 271:Generated_Source\PSoC6\pdl\drivers/peripheral/wdt/cy_wdt.h **** 
 272:Generated_Source\PSoC6\pdl\drivers/peripheral/wdt/cy_wdt.h **** /** \} group_wdt_macros */
 273:Generated_Source\PSoC6\pdl\drivers/peripheral/wdt/cy_wdt.h **** 
 274:Generated_Source\PSoC6\pdl\drivers/peripheral/wdt/cy_wdt.h **** /** \cond Internal */
 275:Generated_Source\PSoC6\pdl\drivers/peripheral/wdt/cy_wdt.h **** 
 276:Generated_Source\PSoC6\pdl\drivers/peripheral/wdt/cy_wdt.h **** /** The WDT maximum match value */
 277:Generated_Source\PSoC6\pdl\drivers/peripheral/wdt/cy_wdt.h **** #define WDT_MAX_MATCH_VALUE                      (0xFFFFuL)
 278:Generated_Source\PSoC6\pdl\drivers/peripheral/wdt/cy_wdt.h **** 
 279:Generated_Source\PSoC6\pdl\drivers/peripheral/wdt/cy_wdt.h **** /** The WDT maximum match value */
 280:Generated_Source\PSoC6\pdl\drivers/peripheral/wdt/cy_wdt.h **** #define WDT_MAX_IGNORE_BITS                      (0xFuL)
 281:Generated_Source\PSoC6\pdl\drivers/peripheral/wdt/cy_wdt.h **** 
 282:Generated_Source\PSoC6\pdl\drivers/peripheral/wdt/cy_wdt.h **** /* Internal macro to validate match value */
 283:Generated_Source\PSoC6\pdl\drivers/peripheral/wdt/cy_wdt.h **** #define CY_WDT_IS_MATCH_VAL_VALID(match)         ((match) <= WDT_MAX_MATCH_VALUE)
 284:Generated_Source\PSoC6\pdl\drivers/peripheral/wdt/cy_wdt.h **** 
 285:Generated_Source\PSoC6\pdl\drivers/peripheral/wdt/cy_wdt.h **** /* Internal macro to validate match value */
 286:Generated_Source\PSoC6\pdl\drivers/peripheral/wdt/cy_wdt.h **** #define CY_WDT_IS_IGNORE_BITS_VALID(bitsNum)     ((bitsNum) <= WDT_MAX_IGNORE_BITS)
 287:Generated_Source\PSoC6\pdl\drivers/peripheral/wdt/cy_wdt.h **** 
 288:Generated_Source\PSoC6\pdl\drivers/peripheral/wdt/cy_wdt.h **** /** \endcond */
 289:Generated_Source\PSoC6\pdl\drivers/peripheral/wdt/cy_wdt.h **** 
 290:Generated_Source\PSoC6\pdl\drivers/peripheral/wdt/cy_wdt.h **** 
 291:Generated_Source\PSoC6\pdl\drivers/peripheral/wdt/cy_wdt.h **** /*******************************************************************************
 292:Generated_Source\PSoC6\pdl\drivers/peripheral/wdt/cy_wdt.h **** *        Function Prototypes
 293:Generated_Source\PSoC6\pdl\drivers/peripheral/wdt/cy_wdt.h **** *******************************************************************************/
 294:Generated_Source\PSoC6\pdl\drivers/peripheral/wdt/cy_wdt.h **** /**
 295:Generated_Source\PSoC6\pdl\drivers/peripheral/wdt/cy_wdt.h **** * \addtogroup group_wdt_functions
 296:Generated_Source\PSoC6\pdl\drivers/peripheral/wdt/cy_wdt.h **** * @{
 297:Generated_Source\PSoC6\pdl\drivers/peripheral/wdt/cy_wdt.h **** */
 298:Generated_Source\PSoC6\pdl\drivers/peripheral/wdt/cy_wdt.h **** /* WDT API */
 299:Generated_Source\PSoC6\pdl\drivers/peripheral/wdt/cy_wdt.h **** void Cy_WDT_Init(void);
ARM GAS  C:\Users\Rolf\AppData\Local\Temp\ccafVfle.s 			page 27


 300:Generated_Source\PSoC6\pdl\drivers/peripheral/wdt/cy_wdt.h **** __STATIC_INLINE void Cy_WDT_Enable(void);
 301:Generated_Source\PSoC6\pdl\drivers/peripheral/wdt/cy_wdt.h **** __STATIC_INLINE void Cy_WDT_Disable(void);
 302:Generated_Source\PSoC6\pdl\drivers/peripheral/wdt/cy_wdt.h **** void Cy_WDT_Lock(void);
 303:Generated_Source\PSoC6\pdl\drivers/peripheral/wdt/cy_wdt.h **** void Cy_WDT_Unlock(void);
 304:Generated_Source\PSoC6\pdl\drivers/peripheral/wdt/cy_wdt.h **** __STATIC_INLINE uint32_t Cy_WDT_GetCount(void);
 305:Generated_Source\PSoC6\pdl\drivers/peripheral/wdt/cy_wdt.h **** void Cy_WDT_SetMatch(uint32_t match);
 306:Generated_Source\PSoC6\pdl\drivers/peripheral/wdt/cy_wdt.h **** __STATIC_INLINE uint32_t Cy_WDT_GetMatch(void);
 307:Generated_Source\PSoC6\pdl\drivers/peripheral/wdt/cy_wdt.h **** void Cy_WDT_SetIgnoreBits(uint32_t bitsNum);
 308:Generated_Source\PSoC6\pdl\drivers/peripheral/wdt/cy_wdt.h **** __STATIC_INLINE uint32_t Cy_WDT_GetIgnoreBits(void);
 309:Generated_Source\PSoC6\pdl\drivers/peripheral/wdt/cy_wdt.h **** __STATIC_INLINE void Cy_WDT_MaskInterrupt(void);
 310:Generated_Source\PSoC6\pdl\drivers/peripheral/wdt/cy_wdt.h **** __STATIC_INLINE void Cy_WDT_UnmaskInterrupt(void);
 311:Generated_Source\PSoC6\pdl\drivers/peripheral/wdt/cy_wdt.h **** void Cy_WDT_ClearInterrupt(void);
 312:Generated_Source\PSoC6\pdl\drivers/peripheral/wdt/cy_wdt.h **** void Cy_WDT_ClearWatchdog(void);
 313:Generated_Source\PSoC6\pdl\drivers/peripheral/wdt/cy_wdt.h **** 
 314:Generated_Source\PSoC6\pdl\drivers/peripheral/wdt/cy_wdt.h **** 
 315:Generated_Source\PSoC6\pdl\drivers/peripheral/wdt/cy_wdt.h **** /*******************************************************************************
 316:Generated_Source\PSoC6\pdl\drivers/peripheral/wdt/cy_wdt.h **** * Function Name: Cy_WDT_Enable
 317:Generated_Source\PSoC6\pdl\drivers/peripheral/wdt/cy_wdt.h **** ****************************************************************************//**
 318:Generated_Source\PSoC6\pdl\drivers/peripheral/wdt/cy_wdt.h **** *
 319:Generated_Source\PSoC6\pdl\drivers/peripheral/wdt/cy_wdt.h **** * Enables the Watchdog timer.
 320:Generated_Source\PSoC6\pdl\drivers/peripheral/wdt/cy_wdt.h **** *
 321:Generated_Source\PSoC6\pdl\drivers/peripheral/wdt/cy_wdt.h **** * \sideeffect
 322:Generated_Source\PSoC6\pdl\drivers/peripheral/wdt/cy_wdt.h **** * This function clears the WDT interrupt.
 323:Generated_Source\PSoC6\pdl\drivers/peripheral/wdt/cy_wdt.h **** *
 324:Generated_Source\PSoC6\pdl\drivers/peripheral/wdt/cy_wdt.h **** *******************************************************************************/
 325:Generated_Source\PSoC6\pdl\drivers/peripheral/wdt/cy_wdt.h **** __STATIC_INLINE void Cy_WDT_Enable(void)
 326:Generated_Source\PSoC6\pdl\drivers/peripheral/wdt/cy_wdt.h **** {
 327:Generated_Source\PSoC6\pdl\drivers/peripheral/wdt/cy_wdt.h ****     SRSS_WDT_CTL |= _VAL2FLD(SRSS_WDT_CTL_WDT_EN, 1U);
 328:Generated_Source\PSoC6\pdl\drivers/peripheral/wdt/cy_wdt.h ****     Cy_WDT_ClearInterrupt();
 329:Generated_Source\PSoC6\pdl\drivers/peripheral/wdt/cy_wdt.h **** }
 330:Generated_Source\PSoC6\pdl\drivers/peripheral/wdt/cy_wdt.h **** 
 331:Generated_Source\PSoC6\pdl\drivers/peripheral/wdt/cy_wdt.h **** 
 332:Generated_Source\PSoC6\pdl\drivers/peripheral/wdt/cy_wdt.h **** /*******************************************************************************
 333:Generated_Source\PSoC6\pdl\drivers/peripheral/wdt/cy_wdt.h **** * Function Name: Cy_WDT_Disable
 334:Generated_Source\PSoC6\pdl\drivers/peripheral/wdt/cy_wdt.h **** ****************************************************************************//**
 335:Generated_Source\PSoC6\pdl\drivers/peripheral/wdt/cy_wdt.h **** *
 336:Generated_Source\PSoC6\pdl\drivers/peripheral/wdt/cy_wdt.h **** * Disables the Watchdog timer. The Watchdog timer should be unlocked before being
 337:Generated_Source\PSoC6\pdl\drivers/peripheral/wdt/cy_wdt.h **** * disabled. Call the Cy_WDT_Unlock() API to unlock the WDT.
 338:Generated_Source\PSoC6\pdl\drivers/peripheral/wdt/cy_wdt.h **** *
 339:Generated_Source\PSoC6\pdl\drivers/peripheral/wdt/cy_wdt.h **** *******************************************************************************/
 340:Generated_Source\PSoC6\pdl\drivers/peripheral/wdt/cy_wdt.h **** __STATIC_INLINE void Cy_WDT_Disable(void)
 341:Generated_Source\PSoC6\pdl\drivers/peripheral/wdt/cy_wdt.h **** {
 342:Generated_Source\PSoC6\pdl\drivers/peripheral/wdt/cy_wdt.h ****     SRSS_WDT_CTL &= ((uint32_t) ~(_VAL2FLD(SRSS_WDT_CTL_WDT_EN, 1U)));
 485              		.loc 2 342 0
 486 0040 C022     		movs	r2, #192
 487 0042 5200     		lsls	r2, r2, #1
 488 0044 A358     		ldr	r3, [r4, r2]
 489 0046 0121     		movs	r1, #1
 490 0048 8B43     		bics	r3, r1
 491 004a A350     		str	r3, [r4, r2]
 492              	.LBE13:
 493              	.LBE12:
 184:system_psoc6_cm0plus.c ****     SystemCoreClockUpdate();
 494              		.loc 1 184 0
 495 004c FFF7FEFF 		bl	Cy_SystemInit
 496              	.LVL56:
 185:system_psoc6_cm0plus.c **** 
ARM GAS  C:\Users\Rolf\AppData\Local\Temp\ccafVfle.s 			page 28


 497              		.loc 1 185 0
 498 0050 FFF7FEFF 		bl	SystemCoreClockUpdate
 499              	.LVL57:
 500              	.LBB14:
 501              	.LBB15:
 502              		.file 3 "Generated_Source\\PSoC6\\pdl\\drivers/peripheral/syslib/cy_syslib.h"
   1:Generated_Source\PSoC6\pdl\drivers/peripheral/syslib/cy_syslib.h **** /***************************************************************************//**
   2:Generated_Source\PSoC6\pdl\drivers/peripheral/syslib/cy_syslib.h **** * \file cy_syslib.h
   3:Generated_Source\PSoC6\pdl\drivers/peripheral/syslib/cy_syslib.h **** * \version 2.10
   4:Generated_Source\PSoC6\pdl\drivers/peripheral/syslib/cy_syslib.h **** *
   5:Generated_Source\PSoC6\pdl\drivers/peripheral/syslib/cy_syslib.h **** * Provides an API declaration of the SysLib driver.
   6:Generated_Source\PSoC6\pdl\drivers/peripheral/syslib/cy_syslib.h **** *
   7:Generated_Source\PSoC6\pdl\drivers/peripheral/syslib/cy_syslib.h **** ********************************************************************************
   8:Generated_Source\PSoC6\pdl\drivers/peripheral/syslib/cy_syslib.h **** * \copyright
   9:Generated_Source\PSoC6\pdl\drivers/peripheral/syslib/cy_syslib.h **** * Copyright 2016-2018, Cypress Semiconductor Corporation. All rights reserved.
  10:Generated_Source\PSoC6\pdl\drivers/peripheral/syslib/cy_syslib.h **** * You may use this file only in accordance with the license, terms, conditions,
  11:Generated_Source\PSoC6\pdl\drivers/peripheral/syslib/cy_syslib.h **** * disclaimers, and limitations in the end user license agreement accompanying
  12:Generated_Source\PSoC6\pdl\drivers/peripheral/syslib/cy_syslib.h **** * the software package with which this file was provided.
  13:Generated_Source\PSoC6\pdl\drivers/peripheral/syslib/cy_syslib.h **** *******************************************************************************/
  14:Generated_Source\PSoC6\pdl\drivers/peripheral/syslib/cy_syslib.h **** 
  15:Generated_Source\PSoC6\pdl\drivers/peripheral/syslib/cy_syslib.h **** /**
  16:Generated_Source\PSoC6\pdl\drivers/peripheral/syslib/cy_syslib.h **** * \addtogroup group_syslib
  17:Generated_Source\PSoC6\pdl\drivers/peripheral/syslib/cy_syslib.h **** * \{
  18:Generated_Source\PSoC6\pdl\drivers/peripheral/syslib/cy_syslib.h **** * The system libraries provide APIs that can be called in the user application
  19:Generated_Source\PSoC6\pdl\drivers/peripheral/syslib/cy_syslib.h **** * to handle the timing, logical checking or register.
  20:Generated_Source\PSoC6\pdl\drivers/peripheral/syslib/cy_syslib.h **** *
  21:Generated_Source\PSoC6\pdl\drivers/peripheral/syslib/cy_syslib.h **** * The functions and other declarations used in this driver are in cy_syslib.h. 
  22:Generated_Source\PSoC6\pdl\drivers/peripheral/syslib/cy_syslib.h **** * You can include cy_pdl.h (ModusToolbox only) to get access to all functions 
  23:Generated_Source\PSoC6\pdl\drivers/peripheral/syslib/cy_syslib.h **** * and declarations in the PDL. 
  24:Generated_Source\PSoC6\pdl\drivers/peripheral/syslib/cy_syslib.h **** *
  25:Generated_Source\PSoC6\pdl\drivers/peripheral/syslib/cy_syslib.h **** * The SysLib driver contains a set of different system functions. These functions
  26:Generated_Source\PSoC6\pdl\drivers/peripheral/syslib/cy_syslib.h **** * can be called in the application routine. Major features of the system library:
  27:Generated_Source\PSoC6\pdl\drivers/peripheral/syslib/cy_syslib.h **** * * Delay functions
  28:Generated_Source\PSoC6\pdl\drivers/peripheral/syslib/cy_syslib.h **** * * The register Read/Write macro
  29:Generated_Source\PSoC6\pdl\drivers/peripheral/syslib/cy_syslib.h **** * * Assert and Halt
  30:Generated_Source\PSoC6\pdl\drivers/peripheral/syslib/cy_syslib.h **** * * Assert Classes and Levels
  31:Generated_Source\PSoC6\pdl\drivers/peripheral/syslib/cy_syslib.h **** * * A software reset
  32:Generated_Source\PSoC6\pdl\drivers/peripheral/syslib/cy_syslib.h **** * * Reading the reset cause
  33:Generated_Source\PSoC6\pdl\drivers/peripheral/syslib/cy_syslib.h **** * * An API to invalidate the flash cache and buffer
  34:Generated_Source\PSoC6\pdl\drivers/peripheral/syslib/cy_syslib.h **** * * Data manipulation macro
  35:Generated_Source\PSoC6\pdl\drivers/peripheral/syslib/cy_syslib.h **** * * A variable type definition from MISRA-C which specifies signedness
  36:Generated_Source\PSoC6\pdl\drivers/peripheral/syslib/cy_syslib.h **** * * Cross compiler compatible attributes
  37:Generated_Source\PSoC6\pdl\drivers/peripheral/syslib/cy_syslib.h **** * * Getting a silicon-unique ID API
  38:Generated_Source\PSoC6\pdl\drivers/peripheral/syslib/cy_syslib.h **** * * Setting wait states API
  39:Generated_Source\PSoC6\pdl\drivers/peripheral/syslib/cy_syslib.h **** * * Resetting the backup domain API
  40:Generated_Source\PSoC6\pdl\drivers/peripheral/syslib/cy_syslib.h **** * * APIs to serve Fault handler
  41:Generated_Source\PSoC6\pdl\drivers/peripheral/syslib/cy_syslib.h **** *
  42:Generated_Source\PSoC6\pdl\drivers/peripheral/syslib/cy_syslib.h **** * \section group_syslib_configuration Configuration Considerations
  43:Generated_Source\PSoC6\pdl\drivers/peripheral/syslib/cy_syslib.h **** * <b> Assertion Usage </b> <br />
  44:Generated_Source\PSoC6\pdl\drivers/peripheral/syslib/cy_syslib.h **** * Use the CY_ASSERT() macro to check expressions that must be true as long as the
  45:Generated_Source\PSoC6\pdl\drivers/peripheral/syslib/cy_syslib.h **** * program is running correctly. It is a convenient way to insert sanity checks.
  46:Generated_Source\PSoC6\pdl\drivers/peripheral/syslib/cy_syslib.h **** * The CY_ASSERT() macro is defined in the cy_syslib.h file which is part of
  47:Generated_Source\PSoC6\pdl\drivers/peripheral/syslib/cy_syslib.h **** * the PDL library. The behavior of the macro is as follows: if the expression
  48:Generated_Source\PSoC6\pdl\drivers/peripheral/syslib/cy_syslib.h **** * passed to the macro is false, output an error message that includes the file
  49:Generated_Source\PSoC6\pdl\drivers/peripheral/syslib/cy_syslib.h **** * name and line number, and then halts the CPU. \n
  50:Generated_Source\PSoC6\pdl\drivers/peripheral/syslib/cy_syslib.h **** * In case of fault, the CY_ASSERT() macro calls the Cy_SysLib_AssertFailed() function.
  51:Generated_Source\PSoC6\pdl\drivers/peripheral/syslib/cy_syslib.h **** * This is a weakly linked function. The default implementation stores the file
ARM GAS  C:\Users\Rolf\AppData\Local\Temp\ccafVfle.s 			page 29


  52:Generated_Source\PSoC6\pdl\drivers/peripheral/syslib/cy_syslib.h **** * name and line number of the ASSERT into global variables, cy_assertFileName
  53:Generated_Source\PSoC6\pdl\drivers/peripheral/syslib/cy_syslib.h **** * and cy_assertLine . It then calls the Cy_SysLib_Halt() function.
  54:Generated_Source\PSoC6\pdl\drivers/peripheral/syslib/cy_syslib.h **** * \note Firmware can redefine the Cy_SysLib_AssertFailed() function for custom processing.
  55:Generated_Source\PSoC6\pdl\drivers/peripheral/syslib/cy_syslib.h **** * 
  56:Generated_Source\PSoC6\pdl\drivers/peripheral/syslib/cy_syslib.h **** * The PDL source code uses this assert mechanism extensively. It is recommended
  57:Generated_Source\PSoC6\pdl\drivers/peripheral/syslib/cy_syslib.h **** * that you enable asserts when debugging firmware. \n
  58:Generated_Source\PSoC6\pdl\drivers/peripheral/syslib/cy_syslib.h **** * <b> Assertion Classes and Levels </b> <br />
  59:Generated_Source\PSoC6\pdl\drivers/peripheral/syslib/cy_syslib.h **** * The PDL defines three assert classes, which correspond to different kinds
  60:Generated_Source\PSoC6\pdl\drivers/peripheral/syslib/cy_syslib.h **** * of parameters. There is a corresponding assert "level" for each class.
  61:Generated_Source\PSoC6\pdl\drivers/peripheral/syslib/cy_syslib.h **** * <table class="doxtable">
  62:Generated_Source\PSoC6\pdl\drivers/peripheral/syslib/cy_syslib.h **** *   <tr><th>Class Macro</th><th>Level Macro</th><th>Type of check</th></tr>
  63:Generated_Source\PSoC6\pdl\drivers/peripheral/syslib/cy_syslib.h **** *   <tr>
  64:Generated_Source\PSoC6\pdl\drivers/peripheral/syslib/cy_syslib.h **** *     <td>CY_ASSERT_CLASS_1</td>
  65:Generated_Source\PSoC6\pdl\drivers/peripheral/syslib/cy_syslib.h **** *     <td>CY_ASSERT_L1</td>
  66:Generated_Source\PSoC6\pdl\drivers/peripheral/syslib/cy_syslib.h **** *     <td>A parameter that could change between different PSoC devices
  67:Generated_Source\PSoC6\pdl\drivers/peripheral/syslib/cy_syslib.h **** *         (e.g. the number of clock paths)</td>
  68:Generated_Source\PSoC6\pdl\drivers/peripheral/syslib/cy_syslib.h **** *   </tr>
  69:Generated_Source\PSoC6\pdl\drivers/peripheral/syslib/cy_syslib.h **** *   <tr>
  70:Generated_Source\PSoC6\pdl\drivers/peripheral/syslib/cy_syslib.h **** *     <td>CY_ASSERT_CLASS_2</td>
  71:Generated_Source\PSoC6\pdl\drivers/peripheral/syslib/cy_syslib.h **** *     <td>CY_ASSERT_L2</td>
  72:Generated_Source\PSoC6\pdl\drivers/peripheral/syslib/cy_syslib.h **** *     <td>A parameter that has fixed limits such as a counter period</td>
  73:Generated_Source\PSoC6\pdl\drivers/peripheral/syslib/cy_syslib.h **** *   </tr>
  74:Generated_Source\PSoC6\pdl\drivers/peripheral/syslib/cy_syslib.h **** *   <tr>
  75:Generated_Source\PSoC6\pdl\drivers/peripheral/syslib/cy_syslib.h **** *     <td>CY_ASSERT_CLASS_3</td>
  76:Generated_Source\PSoC6\pdl\drivers/peripheral/syslib/cy_syslib.h **** *     <td>CY_ASSERT_L3</td>
  77:Generated_Source\PSoC6\pdl\drivers/peripheral/syslib/cy_syslib.h **** *     <td>A parameter that is an enum constant</td>
  78:Generated_Source\PSoC6\pdl\drivers/peripheral/syslib/cy_syslib.h **** *   </tr>
  79:Generated_Source\PSoC6\pdl\drivers/peripheral/syslib/cy_syslib.h **** * </table>
  80:Generated_Source\PSoC6\pdl\drivers/peripheral/syslib/cy_syslib.h **** * Firmware defines which ASSERT class is enabled by defining CY_ASSERT_LEVEL.
  81:Generated_Source\PSoC6\pdl\drivers/peripheral/syslib/cy_syslib.h **** * This is a compiler command line argument, similar to how the DEBUG / NDEBUG
  82:Generated_Source\PSoC6\pdl\drivers/peripheral/syslib/cy_syslib.h **** * macro is passed. \n 
  83:Generated_Source\PSoC6\pdl\drivers/peripheral/syslib/cy_syslib.h **** * Enabling any class also enables any lower-numbered class.
  84:Generated_Source\PSoC6\pdl\drivers/peripheral/syslib/cy_syslib.h **** * CY_ASSERT_CLASS_3 is the default level, and it enables asserts for all three
  85:Generated_Source\PSoC6\pdl\drivers/peripheral/syslib/cy_syslib.h **** * classes. The following example shows the command-line option to enable all
  86:Generated_Source\PSoC6\pdl\drivers/peripheral/syslib/cy_syslib.h **** * the assert levels:
  87:Generated_Source\PSoC6\pdl\drivers/peripheral/syslib/cy_syslib.h **** * \code -D CY_ASSERT_LEVEL=CY_ASSERT_CLASS_3 \endcode
  88:Generated_Source\PSoC6\pdl\drivers/peripheral/syslib/cy_syslib.h **** * \note The use of special characters, such as spaces, parenthesis, etc. must
  89:Generated_Source\PSoC6\pdl\drivers/peripheral/syslib/cy_syslib.h **** * be protected with quotes. 
  90:Generated_Source\PSoC6\pdl\drivers/peripheral/syslib/cy_syslib.h **** * 
  91:Generated_Source\PSoC6\pdl\drivers/peripheral/syslib/cy_syslib.h **** * After CY_ASSERT_LEVEL is defined, firmware can use
  92:Generated_Source\PSoC6\pdl\drivers/peripheral/syslib/cy_syslib.h **** * one of the three level macros to make an assertion. For example, if the
  93:Generated_Source\PSoC6\pdl\drivers/peripheral/syslib/cy_syslib.h **** * parameter can vary between devices, firmware uses the L1 macro.
  94:Generated_Source\PSoC6\pdl\drivers/peripheral/syslib/cy_syslib.h **** * \code CY_ASSERT_L1(clkPath < SRSS_NUM_CLKPATH); \endcode
  95:Generated_Source\PSoC6\pdl\drivers/peripheral/syslib/cy_syslib.h **** * If the parameter has bounds, firmware uses L2.
  96:Generated_Source\PSoC6\pdl\drivers/peripheral/syslib/cy_syslib.h **** * \code CY_ASSERT_L2(trim <= CY_CTB_TRIM_VALUE_MAX); \endcode
  97:Generated_Source\PSoC6\pdl\drivers/peripheral/syslib/cy_syslib.h **** * If the parameter is an enum, firmware uses L3.
  98:Generated_Source\PSoC6\pdl\drivers/peripheral/syslib/cy_syslib.h **** * \code CY_ASSERT_L3(config->LossAction <= CY_SYSCLK_CSV_ERROR_FAULT_RESET); \endcode
  99:Generated_Source\PSoC6\pdl\drivers/peripheral/syslib/cy_syslib.h **** * Each check uses the appropriate level macro for the kind of parameter being checked.
 100:Generated_Source\PSoC6\pdl\drivers/peripheral/syslib/cy_syslib.h **** * If a particular assert class/level is not enabled, then the assert does nothing.
 101:Generated_Source\PSoC6\pdl\drivers/peripheral/syslib/cy_syslib.h **** *
 102:Generated_Source\PSoC6\pdl\drivers/peripheral/syslib/cy_syslib.h **** * \section group_syslib_more_information More Information
 103:Generated_Source\PSoC6\pdl\drivers/peripheral/syslib/cy_syslib.h **** * Refer to the technical reference manual (TRM).
 104:Generated_Source\PSoC6\pdl\drivers/peripheral/syslib/cy_syslib.h **** *
 105:Generated_Source\PSoC6\pdl\drivers/peripheral/syslib/cy_syslib.h **** * \section group_syslib_MISRA MISRA-C Compliance
 106:Generated_Source\PSoC6\pdl\drivers/peripheral/syslib/cy_syslib.h **** * <table class="doxtable">
 107:Generated_Source\PSoC6\pdl\drivers/peripheral/syslib/cy_syslib.h **** *   <tr>
 108:Generated_Source\PSoC6\pdl\drivers/peripheral/syslib/cy_syslib.h **** *     <th>MISRA Rule</th>
ARM GAS  C:\Users\Rolf\AppData\Local\Temp\ccafVfle.s 			page 30


 109:Generated_Source\PSoC6\pdl\drivers/peripheral/syslib/cy_syslib.h **** *     <th>Rule Class (Required/Advisory)</th>
 110:Generated_Source\PSoC6\pdl\drivers/peripheral/syslib/cy_syslib.h **** *     <th>Rule Description</th>
 111:Generated_Source\PSoC6\pdl\drivers/peripheral/syslib/cy_syslib.h **** *     <th>Description of Deviation(s)</th>
 112:Generated_Source\PSoC6\pdl\drivers/peripheral/syslib/cy_syslib.h **** *   </tr>
 113:Generated_Source\PSoC6\pdl\drivers/peripheral/syslib/cy_syslib.h **** *   <tr>
 114:Generated_Source\PSoC6\pdl\drivers/peripheral/syslib/cy_syslib.h **** *     <td>1.2</td>
 115:Generated_Source\PSoC6\pdl\drivers/peripheral/syslib/cy_syslib.h **** *     <td>R</td>
 116:Generated_Source\PSoC6\pdl\drivers/peripheral/syslib/cy_syslib.h **** *     <td>No reliance shall be placed on undefined or unspecified behaviour.</td>
 117:Generated_Source\PSoC6\pdl\drivers/peripheral/syslib/cy_syslib.h **** *     <td>This specific behavior is explicitly covered in rule 20.1.</td>
 118:Generated_Source\PSoC6\pdl\drivers/peripheral/syslib/cy_syslib.h **** *   </tr>
 119:Generated_Source\PSoC6\pdl\drivers/peripheral/syslib/cy_syslib.h **** *   <tr>
 120:Generated_Source\PSoC6\pdl\drivers/peripheral/syslib/cy_syslib.h **** *     <td>2.1</td>
 121:Generated_Source\PSoC6\pdl\drivers/peripheral/syslib/cy_syslib.h **** *     <td>R</td>
 122:Generated_Source\PSoC6\pdl\drivers/peripheral/syslib/cy_syslib.h **** *     <td>This function contains a mixture of in-line assembler statements and C statements.</td>
 123:Generated_Source\PSoC6\pdl\drivers/peripheral/syslib/cy_syslib.h **** *     <td>This si required by design of the Cy_SysLib_Halt function.</td>
 124:Generated_Source\PSoC6\pdl\drivers/peripheral/syslib/cy_syslib.h **** *   </tr>
 125:Generated_Source\PSoC6\pdl\drivers/peripheral/syslib/cy_syslib.h **** *   <tr>
 126:Generated_Source\PSoC6\pdl\drivers/peripheral/syslib/cy_syslib.h **** *     <td>18.4</td>
 127:Generated_Source\PSoC6\pdl\drivers/peripheral/syslib/cy_syslib.h **** *     <td>R</td>
 128:Generated_Source\PSoC6\pdl\drivers/peripheral/syslib/cy_syslib.h **** *     <td>Unions shall not be used.</td>
 129:Generated_Source\PSoC6\pdl\drivers/peripheral/syslib/cy_syslib.h **** *     <td>The unions are used for CFSR, HFSR and SHCSR Fault Status Registers
 130:Generated_Source\PSoC6\pdl\drivers/peripheral/syslib/cy_syslib.h **** *         content access as a word in code and as a structure during debug.</td>
 131:Generated_Source\PSoC6\pdl\drivers/peripheral/syslib/cy_syslib.h **** *   </tr>
 132:Generated_Source\PSoC6\pdl\drivers/peripheral/syslib/cy_syslib.h **** *   <tr>
 133:Generated_Source\PSoC6\pdl\drivers/peripheral/syslib/cy_syslib.h **** *     <td>19.13</td>
 134:Generated_Source\PSoC6\pdl\drivers/peripheral/syslib/cy_syslib.h **** *     <td>A</td>
 135:Generated_Source\PSoC6\pdl\drivers/peripheral/syslib/cy_syslib.h **** *     <td>The # and ## operators should not be used.</td>
 136:Generated_Source\PSoC6\pdl\drivers/peripheral/syslib/cy_syslib.h **** *     <td>The ## preprocessor operator is used in macros to form the field mask.</td>
 137:Generated_Source\PSoC6\pdl\drivers/peripheral/syslib/cy_syslib.h **** *   </tr>
 138:Generated_Source\PSoC6\pdl\drivers/peripheral/syslib/cy_syslib.h **** *   <tr>
 139:Generated_Source\PSoC6\pdl\drivers/peripheral/syslib/cy_syslib.h **** *     <td>20.1</td>
 140:Generated_Source\PSoC6\pdl\drivers/peripheral/syslib/cy_syslib.h **** *     <td>R</td>
 141:Generated_Source\PSoC6\pdl\drivers/peripheral/syslib/cy_syslib.h **** *     <td>Reserved identifiers, macros and functions in the standard library, shall not be 
 142:Generated_Source\PSoC6\pdl\drivers/peripheral/syslib/cy_syslib.h **** *         defined, redefined or undefined.</td>
 143:Generated_Source\PSoC6\pdl\drivers/peripheral/syslib/cy_syslib.h **** *     <td>The driver defines the macros with leading underscores 
 144:Generated_Source\PSoC6\pdl\drivers/peripheral/syslib/cy_syslib.h **** *         (_CLR_SET_FLD/_BOOL2FLD/_FLD2BOOL) and therefore generates this MISRA violation.</td>
 145:Generated_Source\PSoC6\pdl\drivers/peripheral/syslib/cy_syslib.h **** *   </tr>
 146:Generated_Source\PSoC6\pdl\drivers/peripheral/syslib/cy_syslib.h **** * </table>
 147:Generated_Source\PSoC6\pdl\drivers/peripheral/syslib/cy_syslib.h **** *
 148:Generated_Source\PSoC6\pdl\drivers/peripheral/syslib/cy_syslib.h **** * \section group_syslib_changelog Changelog
 149:Generated_Source\PSoC6\pdl\drivers/peripheral/syslib/cy_syslib.h **** * <table class="doxtable">
 150:Generated_Source\PSoC6\pdl\drivers/peripheral/syslib/cy_syslib.h **** *   <tr><th>Version</th><th>Changes</th><th>Reason for Change</th></tr>
 151:Generated_Source\PSoC6\pdl\drivers/peripheral/syslib/cy_syslib.h **** *   <tr>
 152:Generated_Source\PSoC6\pdl\drivers/peripheral/syslib/cy_syslib.h **** *     <td rowspan="4">2.10</td>
 153:Generated_Source\PSoC6\pdl\drivers/peripheral/syslib/cy_syslib.h **** *     <td>Flattened the organization of the driver source code into the single source directory and
 154:Generated_Source\PSoC6\pdl\drivers/peripheral/syslib/cy_syslib.h **** *     <td>Driver library directory-structure simplification.</td>
 155:Generated_Source\PSoC6\pdl\drivers/peripheral/syslib/cy_syslib.h **** *   </tr>
 156:Generated_Source\PSoC6\pdl\drivers/peripheral/syslib/cy_syslib.h **** *   <tr>
 157:Generated_Source\PSoC6\pdl\drivers/peripheral/syslib/cy_syslib.h **** *     <td>Added the following macros: \ref CY_REG32_CLR_SET, \ref _CLR_SET_FLD16U, \ref CY_REG16_CL
 158:Generated_Source\PSoC6\pdl\drivers/peripheral/syslib/cy_syslib.h **** *     <td>Register access simplification.</td>
 159:Generated_Source\PSoC6\pdl\drivers/peripheral/syslib/cy_syslib.h **** *   </tr>
 160:Generated_Source\PSoC6\pdl\drivers/peripheral/syslib/cy_syslib.h **** *   <tr>
 161:Generated_Source\PSoC6\pdl\drivers/peripheral/syslib/cy_syslib.h **** *     <td>Removed the Cy_SysLib_GetNumHfclkResetCause API function.</td>
 162:Generated_Source\PSoC6\pdl\drivers/peripheral/syslib/cy_syslib.h **** *     <td>This feature is not supported by SRSS_ver1.</td>
 163:Generated_Source\PSoC6\pdl\drivers/peripheral/syslib/cy_syslib.h **** *   </tr>
 164:Generated_Source\PSoC6\pdl\drivers/peripheral/syslib/cy_syslib.h **** *   <tr>
 165:Generated_Source\PSoC6\pdl\drivers/peripheral/syslib/cy_syslib.h **** *     <td>Added register access layer. Use register access macros instead
ARM GAS  C:\Users\Rolf\AppData\Local\Temp\ccafVfle.s 			page 31


 166:Generated_Source\PSoC6\pdl\drivers/peripheral/syslib/cy_syslib.h **** *         of direct register access using dereferenced pointers.</td>
 167:Generated_Source\PSoC6\pdl\drivers/peripheral/syslib/cy_syslib.h **** *     <td>Makes register access device-independent, so that the PDL does 
 168:Generated_Source\PSoC6\pdl\drivers/peripheral/syslib/cy_syslib.h **** *         not need to be recompiled for each supported part number.</td>
 169:Generated_Source\PSoC6\pdl\drivers/peripheral/syslib/cy_syslib.h **** *   </tr>
 170:Generated_Source\PSoC6\pdl\drivers/peripheral/syslib/cy_syslib.h **** *   <tr>
 171:Generated_Source\PSoC6\pdl\drivers/peripheral/syslib/cy_syslib.h **** *     <td>2.0.1</td>
 172:Generated_Source\PSoC6\pdl\drivers/peripheral/syslib/cy_syslib.h **** *     <td>Minor documentation edits</td>
 173:Generated_Source\PSoC6\pdl\drivers/peripheral/syslib/cy_syslib.h **** *     <td>Documentation update and clarification</td>
 174:Generated_Source\PSoC6\pdl\drivers/peripheral/syslib/cy_syslib.h **** *   </tr>
 175:Generated_Source\PSoC6\pdl\drivers/peripheral/syslib/cy_syslib.h **** *   <tr>
 176:Generated_Source\PSoC6\pdl\drivers/peripheral/syslib/cy_syslib.h **** *     <td rowspan="4"> 2.0</td>
 177:Generated_Source\PSoC6\pdl\drivers/peripheral/syslib/cy_syslib.h **** *     <td>
 178:Generated_Source\PSoC6\pdl\drivers/peripheral/syslib/cy_syslib.h **** * Added Cy_SysLib_ResetBackupDomain() API implementation. \n
 179:Generated_Source\PSoC6\pdl\drivers/peripheral/syslib/cy_syslib.h **** * Added CY_NOINLINE attribute implementation. \n
 180:Generated_Source\PSoC6\pdl\drivers/peripheral/syslib/cy_syslib.h **** * Added DIE_YEAR field to 64-bit unique ID return value of Cy_SysLib_GetUniqueId() API. \n
 181:Generated_Source\PSoC6\pdl\drivers/peripheral/syslib/cy_syslib.h **** * Added storing of SCB->HFSR, SCB->SHCSR registers and SCB->MMFAR, SCB->BFAR addresses to Fault Han
 182:Generated_Source\PSoC6\pdl\drivers/peripheral/syslib/cy_syslib.h **** * Optimized Cy_SysLib_SetWaitStates() API implementation.
 183:Generated_Source\PSoC6\pdl\drivers/peripheral/syslib/cy_syslib.h **** *     </td>
 184:Generated_Source\PSoC6\pdl\drivers/peripheral/syslib/cy_syslib.h **** *     <td>Improvements made based on usability feedback.</td>
 185:Generated_Source\PSoC6\pdl\drivers/peripheral/syslib/cy_syslib.h **** *   </tr>
 186:Generated_Source\PSoC6\pdl\drivers/peripheral/syslib/cy_syslib.h **** *   <tr>
 187:Generated_Source\PSoC6\pdl\drivers/peripheral/syslib/cy_syslib.h **** *     <td>Added Assertion Classes and Levels.</td>
 188:Generated_Source\PSoC6\pdl\drivers/peripheral/syslib/cy_syslib.h **** *     <td>For error checking, parameter validation and status returns in the PDL API.</td>
 189:Generated_Source\PSoC6\pdl\drivers/peripheral/syslib/cy_syslib.h **** *   </tr>
 190:Generated_Source\PSoC6\pdl\drivers/peripheral/syslib/cy_syslib.h **** *   <tr>
 191:Generated_Source\PSoC6\pdl\drivers/peripheral/syslib/cy_syslib.h **** *     <td>Applied CY_NOINIT attribute to cy_assertFileName, cy_assertLine, and cy_faultFrame global
 192:Generated_Source\PSoC6\pdl\drivers/peripheral/syslib/cy_syslib.h **** *     <td>To store debug information into a non-zero init area for future analysis.</td>
 193:Generated_Source\PSoC6\pdl\drivers/peripheral/syslib/cy_syslib.h **** *   </tr>
 194:Generated_Source\PSoC6\pdl\drivers/peripheral/syslib/cy_syslib.h **** *   <tr>
 195:Generated_Source\PSoC6\pdl\drivers/peripheral/syslib/cy_syslib.h **** *     <td>Removed CY_WEAK attribute implementation.</td>
 196:Generated_Source\PSoC6\pdl\drivers/peripheral/syslib/cy_syslib.h **** *     <td>CMSIS __WEAK attribute should be used instead.</td>
 197:Generated_Source\PSoC6\pdl\drivers/peripheral/syslib/cy_syslib.h **** *   </tr>
 198:Generated_Source\PSoC6\pdl\drivers/peripheral/syslib/cy_syslib.h **** *   <tr>
 199:Generated_Source\PSoC6\pdl\drivers/peripheral/syslib/cy_syslib.h **** *     <td>1.0</td>
 200:Generated_Source\PSoC6\pdl\drivers/peripheral/syslib/cy_syslib.h **** *     <td>Initial version</td>
 201:Generated_Source\PSoC6\pdl\drivers/peripheral/syslib/cy_syslib.h **** *     <td></td>
 202:Generated_Source\PSoC6\pdl\drivers/peripheral/syslib/cy_syslib.h **** *   </tr>
 203:Generated_Source\PSoC6\pdl\drivers/peripheral/syslib/cy_syslib.h **** * </table>
 204:Generated_Source\PSoC6\pdl\drivers/peripheral/syslib/cy_syslib.h **** *
 205:Generated_Source\PSoC6\pdl\drivers/peripheral/syslib/cy_syslib.h **** * \defgroup group_syslib_macros Macros
 206:Generated_Source\PSoC6\pdl\drivers/peripheral/syslib/cy_syslib.h **** * \defgroup group_syslib_functions Functions
 207:Generated_Source\PSoC6\pdl\drivers/peripheral/syslib/cy_syslib.h **** * \defgroup group_syslib_data_structures Data Structures
 208:Generated_Source\PSoC6\pdl\drivers/peripheral/syslib/cy_syslib.h **** * \defgroup group_syslib_enumerated_types Enumerated Types
 209:Generated_Source\PSoC6\pdl\drivers/peripheral/syslib/cy_syslib.h **** *
 210:Generated_Source\PSoC6\pdl\drivers/peripheral/syslib/cy_syslib.h **** */
 211:Generated_Source\PSoC6\pdl\drivers/peripheral/syslib/cy_syslib.h **** 
 212:Generated_Source\PSoC6\pdl\drivers/peripheral/syslib/cy_syslib.h **** #if !defined(CY_SYSLIB_H)
 213:Generated_Source\PSoC6\pdl\drivers/peripheral/syslib/cy_syslib.h **** #define CY_SYSLIB_H
 214:Generated_Source\PSoC6\pdl\drivers/peripheral/syslib/cy_syslib.h **** 
 215:Generated_Source\PSoC6\pdl\drivers/peripheral/syslib/cy_syslib.h **** #include <stdint.h>
 216:Generated_Source\PSoC6\pdl\drivers/peripheral/syslib/cy_syslib.h **** #include <stdbool.h>
 217:Generated_Source\PSoC6\pdl\drivers/peripheral/syslib/cy_syslib.h **** #include "cy_device.h"
 218:Generated_Source\PSoC6\pdl\drivers/peripheral/syslib/cy_syslib.h **** #include "cy_device_headers.h"
 219:Generated_Source\PSoC6\pdl\drivers/peripheral/syslib/cy_syslib.h **** 
 220:Generated_Source\PSoC6\pdl\drivers/peripheral/syslib/cy_syslib.h **** #if defined(__cplusplus)
 221:Generated_Source\PSoC6\pdl\drivers/peripheral/syslib/cy_syslib.h **** extern "C" {
 222:Generated_Source\PSoC6\pdl\drivers/peripheral/syslib/cy_syslib.h **** #endif /* defined(__cplusplus) */
ARM GAS  C:\Users\Rolf\AppData\Local\Temp\ccafVfle.s 			page 32


 223:Generated_Source\PSoC6\pdl\drivers/peripheral/syslib/cy_syslib.h **** 
 224:Generated_Source\PSoC6\pdl\drivers/peripheral/syslib/cy_syslib.h **** #if defined( __ICCARM__ )
 225:Generated_Source\PSoC6\pdl\drivers/peripheral/syslib/cy_syslib.h ****     /* Suppress the warning for multiple volatile variables in an expression. */
 226:Generated_Source\PSoC6\pdl\drivers/peripheral/syslib/cy_syslib.h ****     /* This is common for driver's code and the usage is not order-dependent. */
 227:Generated_Source\PSoC6\pdl\drivers/peripheral/syslib/cy_syslib.h ****     #pragma diag_suppress=Pa082
 228:Generated_Source\PSoC6\pdl\drivers/peripheral/syslib/cy_syslib.h **** #endif  /* defined( __ICCARM__ ) */
 229:Generated_Source\PSoC6\pdl\drivers/peripheral/syslib/cy_syslib.h **** 
 230:Generated_Source\PSoC6\pdl\drivers/peripheral/syslib/cy_syslib.h **** /**
 231:Generated_Source\PSoC6\pdl\drivers/peripheral/syslib/cy_syslib.h **** * \addtogroup group_syslib_macros
 232:Generated_Source\PSoC6\pdl\drivers/peripheral/syslib/cy_syslib.h **** * \{
 233:Generated_Source\PSoC6\pdl\drivers/peripheral/syslib/cy_syslib.h **** */
 234:Generated_Source\PSoC6\pdl\drivers/peripheral/syslib/cy_syslib.h **** 
 235:Generated_Source\PSoC6\pdl\drivers/peripheral/syslib/cy_syslib.h **** /******************************************************************************
 236:Generated_Source\PSoC6\pdl\drivers/peripheral/syslib/cy_syslib.h **** * Macros
 237:Generated_Source\PSoC6\pdl\drivers/peripheral/syslib/cy_syslib.h **** *****************************************************************************/
 238:Generated_Source\PSoC6\pdl\drivers/peripheral/syslib/cy_syslib.h **** 
 239:Generated_Source\PSoC6\pdl\drivers/peripheral/syslib/cy_syslib.h **** #define CY_CPU_CORTEX_M0P   (__CORTEX_M == 0)    /**< CM0+ core CPU Code */
 240:Generated_Source\PSoC6\pdl\drivers/peripheral/syslib/cy_syslib.h **** #define CY_CPU_CORTEX_M4    (__CORTEX_M == 4)    /**< CM4  core CPU Code */
 241:Generated_Source\PSoC6\pdl\drivers/peripheral/syslib/cy_syslib.h **** 
 242:Generated_Source\PSoC6\pdl\drivers/peripheral/syslib/cy_syslib.h **** /** The macro to disable the Fault Handler */
 243:Generated_Source\PSoC6\pdl\drivers/peripheral/syslib/cy_syslib.h **** #define CY_ARM_FAULT_DEBUG_DISABLED    (0U)
 244:Generated_Source\PSoC6\pdl\drivers/peripheral/syslib/cy_syslib.h **** /** The macro to enable the Fault Handler */
 245:Generated_Source\PSoC6\pdl\drivers/peripheral/syslib/cy_syslib.h **** #define CY_ARM_FAULT_DEBUG_ENABLED     (1U)
 246:Generated_Source\PSoC6\pdl\drivers/peripheral/syslib/cy_syslib.h **** 
 247:Generated_Source\PSoC6\pdl\drivers/peripheral/syslib/cy_syslib.h **** #if !defined(CY_ARM_FAULT_DEBUG)
 248:Generated_Source\PSoC6\pdl\drivers/peripheral/syslib/cy_syslib.h ****     /** The macro defines if the Fault Handler is enabled. Enabled by default. */
 249:Generated_Source\PSoC6\pdl\drivers/peripheral/syslib/cy_syslib.h ****     #define CY_ARM_FAULT_DEBUG         (CY_ARM_FAULT_DEBUG_ENABLED)
 250:Generated_Source\PSoC6\pdl\drivers/peripheral/syslib/cy_syslib.h **** #endif /* CY_ARM_FAULT_DEBUG */
 251:Generated_Source\PSoC6\pdl\drivers/peripheral/syslib/cy_syslib.h **** 
 252:Generated_Source\PSoC6\pdl\drivers/peripheral/syslib/cy_syslib.h **** /**
 253:Generated_Source\PSoC6\pdl\drivers/peripheral/syslib/cy_syslib.h **** * \defgroup group_syslib_macros_status_codes Status codes
 254:Generated_Source\PSoC6\pdl\drivers/peripheral/syslib/cy_syslib.h **** * \{
 255:Generated_Source\PSoC6\pdl\drivers/peripheral/syslib/cy_syslib.h **** * Function status type codes
 256:Generated_Source\PSoC6\pdl\drivers/peripheral/syslib/cy_syslib.h **** */
 257:Generated_Source\PSoC6\pdl\drivers/peripheral/syslib/cy_syslib.h **** #define CY_PDL_STATUS_CODE_Pos  (0U)        /**< The module status code position in the status code
 258:Generated_Source\PSoC6\pdl\drivers/peripheral/syslib/cy_syslib.h **** #define CY_PDL_STATUS_TYPE_Pos  (16U)       /**< The status type position in the status code */
 259:Generated_Source\PSoC6\pdl\drivers/peripheral/syslib/cy_syslib.h **** #define CY_PDL_MODULE_ID_Pos    (18U)       /**< The software module ID position in the status code
 260:Generated_Source\PSoC6\pdl\drivers/peripheral/syslib/cy_syslib.h **** #define CY_PDL_STATUS_INFO      (0UL << CY_PDL_STATUS_TYPE_Pos)    /**< The information status type
 261:Generated_Source\PSoC6\pdl\drivers/peripheral/syslib/cy_syslib.h **** #define CY_PDL_STATUS_WARNING   (1UL << CY_PDL_STATUS_TYPE_Pos)    /**< The warning status type */
 262:Generated_Source\PSoC6\pdl\drivers/peripheral/syslib/cy_syslib.h **** #define CY_PDL_STATUS_ERROR     (2UL << CY_PDL_STATUS_TYPE_Pos)    /**< The error status type */
 263:Generated_Source\PSoC6\pdl\drivers/peripheral/syslib/cy_syslib.h **** #define CY_PDL_MODULE_ID_Msk    (0x3FFFU)   /**< The software module ID mask */
 264:Generated_Source\PSoC6\pdl\drivers/peripheral/syslib/cy_syslib.h **** /** Get the software PDL module ID */
 265:Generated_Source\PSoC6\pdl\drivers/peripheral/syslib/cy_syslib.h **** #define CY_PDL_DRV_ID(id)       ((uint32_t)((uint32_t)((id) & CY_PDL_MODULE_ID_Msk) << CY_PDL_MODUL
 266:Generated_Source\PSoC6\pdl\drivers/peripheral/syslib/cy_syslib.h **** #define CY_SYSLIB_ID            CY_PDL_DRV_ID(0x11U)     /**< SYSLIB PDL ID */
 267:Generated_Source\PSoC6\pdl\drivers/peripheral/syslib/cy_syslib.h **** /** \} group_syslib_macros_status_codes */
 268:Generated_Source\PSoC6\pdl\drivers/peripheral/syslib/cy_syslib.h **** 
 269:Generated_Source\PSoC6\pdl\drivers/peripheral/syslib/cy_syslib.h **** /** \} group_syslib_macros */
 270:Generated_Source\PSoC6\pdl\drivers/peripheral/syslib/cy_syslib.h **** 
 271:Generated_Source\PSoC6\pdl\drivers/peripheral/syslib/cy_syslib.h **** /**
 272:Generated_Source\PSoC6\pdl\drivers/peripheral/syslib/cy_syslib.h **** * \addtogroup group_syslib_enumerated_types
 273:Generated_Source\PSoC6\pdl\drivers/peripheral/syslib/cy_syslib.h **** * \{
 274:Generated_Source\PSoC6\pdl\drivers/peripheral/syslib/cy_syslib.h **** */
 275:Generated_Source\PSoC6\pdl\drivers/peripheral/syslib/cy_syslib.h **** 
 276:Generated_Source\PSoC6\pdl\drivers/peripheral/syslib/cy_syslib.h **** /** The SysLib status code structure. */
 277:Generated_Source\PSoC6\pdl\drivers/peripheral/syslib/cy_syslib.h **** typedef enum
 278:Generated_Source\PSoC6\pdl\drivers/peripheral/syslib/cy_syslib.h **** {
 279:Generated_Source\PSoC6\pdl\drivers/peripheral/syslib/cy_syslib.h ****     CY_SYSLIB_SUCCESS       = 0x00UL,    /**< The success status code */
ARM GAS  C:\Users\Rolf\AppData\Local\Temp\ccafVfle.s 			page 33


 280:Generated_Source\PSoC6\pdl\drivers/peripheral/syslib/cy_syslib.h ****     CY_SYSLIB_BAD_PARAM     = CY_SYSLIB_ID | CY_PDL_STATUS_ERROR | 0x01UL,    /**< The bad paramete
 281:Generated_Source\PSoC6\pdl\drivers/peripheral/syslib/cy_syslib.h ****     CY_SYSLIB_TIMEOUT       = CY_SYSLIB_ID | CY_PDL_STATUS_ERROR | 0x02UL,    /**< The time out sta
 282:Generated_Source\PSoC6\pdl\drivers/peripheral/syslib/cy_syslib.h ****     CY_SYSLIB_INVALID_STATE = CY_SYSLIB_ID | CY_PDL_STATUS_ERROR | 0x03UL,    /**< The invalid stat
 283:Generated_Source\PSoC6\pdl\drivers/peripheral/syslib/cy_syslib.h ****     CY_SYSLIB_UNKNOWN       = CY_SYSLIB_ID | CY_PDL_STATUS_ERROR | 0xFFUL     /**< Unknown status c
 284:Generated_Source\PSoC6\pdl\drivers/peripheral/syslib/cy_syslib.h **** } cy_en_syslib_status_t;
 285:Generated_Source\PSoC6\pdl\drivers/peripheral/syslib/cy_syslib.h **** 
 286:Generated_Source\PSoC6\pdl\drivers/peripheral/syslib/cy_syslib.h **** /** \} group_syslib_enumerated_types */
 287:Generated_Source\PSoC6\pdl\drivers/peripheral/syslib/cy_syslib.h **** /**
 288:Generated_Source\PSoC6\pdl\drivers/peripheral/syslib/cy_syslib.h **** * \addtogroup group_syslib_data_structures
 289:Generated_Source\PSoC6\pdl\drivers/peripheral/syslib/cy_syslib.h **** * \{
 290:Generated_Source\PSoC6\pdl\drivers/peripheral/syslib/cy_syslib.h **** */
 291:Generated_Source\PSoC6\pdl\drivers/peripheral/syslib/cy_syslib.h **** 
 292:Generated_Source\PSoC6\pdl\drivers/peripheral/syslib/cy_syslib.h **** #if (CY_ARM_FAULT_DEBUG == CY_ARM_FAULT_DEBUG_ENABLED)
 293:Generated_Source\PSoC6\pdl\drivers/peripheral/syslib/cy_syslib.h ****     #if (CY_CPU_CORTEX_M4)
 294:Generated_Source\PSoC6\pdl\drivers/peripheral/syslib/cy_syslib.h ****         /** Configurable Fault Status Register - CFSR */
 295:Generated_Source\PSoC6\pdl\drivers/peripheral/syslib/cy_syslib.h ****         typedef struct
 296:Generated_Source\PSoC6\pdl\drivers/peripheral/syslib/cy_syslib.h ****         {
 297:Generated_Source\PSoC6\pdl\drivers/peripheral/syslib/cy_syslib.h ****             /** MemManage Fault Status Sub-register - MMFSR */
 298:Generated_Source\PSoC6\pdl\drivers/peripheral/syslib/cy_syslib.h ****             uint32_t iaccViol    : 1;  /**< MemManage Fault - The instruction access violation flag
 299:Generated_Source\PSoC6\pdl\drivers/peripheral/syslib/cy_syslib.h ****             uint32_t daccViol    : 1;  /**< MemManage Fault - The data access violation flag */
 300:Generated_Source\PSoC6\pdl\drivers/peripheral/syslib/cy_syslib.h ****             uint32_t reserved1   : 1;  /**< Reserved */
 301:Generated_Source\PSoC6\pdl\drivers/peripheral/syslib/cy_syslib.h ****             uint32_t mUnstkErr   : 1;  /**< MemManage Fault - Unstacking for a return from exceptio
 302:Generated_Source\PSoC6\pdl\drivers/peripheral/syslib/cy_syslib.h ****             uint32_t mStkErr     : 1;  /**< MemManage Fault - MemManage fault on stacking for excep
 303:Generated_Source\PSoC6\pdl\drivers/peripheral/syslib/cy_syslib.h ****             uint32_t mlspErr     : 1;  /**< MemManage Fault - MemManage fault occurred during float
 304:Generated_Source\PSoC6\pdl\drivers/peripheral/syslib/cy_syslib.h ****             uint32_t reserved2   : 1;  /**< Reserved */
 305:Generated_Source\PSoC6\pdl\drivers/peripheral/syslib/cy_syslib.h ****             uint32_t mmarValid   : 1;  /**< MemManage Fault - The MemManage Address register valid 
 306:Generated_Source\PSoC6\pdl\drivers/peripheral/syslib/cy_syslib.h ****             /** Bus Fault Status Sub-register - UFSR */
 307:Generated_Source\PSoC6\pdl\drivers/peripheral/syslib/cy_syslib.h ****             uint32_t iBusErr     : 1;  /**< Bus Fault - The instruction bus error */
 308:Generated_Source\PSoC6\pdl\drivers/peripheral/syslib/cy_syslib.h ****             uint32_t precisErr   : 1;  /**< Bus Fault - The precise Data bus error */
 309:Generated_Source\PSoC6\pdl\drivers/peripheral/syslib/cy_syslib.h ****             uint32_t imprecisErr : 1;  /**< Bus Fault - The imprecise data bus error */
 310:Generated_Source\PSoC6\pdl\drivers/peripheral/syslib/cy_syslib.h ****             uint32_t unstkErr    : 1;  /**< Bus Fault - Unstacking for an exception return has caus
 311:Generated_Source\PSoC6\pdl\drivers/peripheral/syslib/cy_syslib.h ****             uint32_t stkErr      : 1;  /**< Bus Fault - Stacking for an exception entry has caused 
 312:Generated_Source\PSoC6\pdl\drivers/peripheral/syslib/cy_syslib.h ****             uint32_t lspErr      : 1;  /**< Bus Fault - A bus fault occurred during the floating-po
 313:Generated_Source\PSoC6\pdl\drivers/peripheral/syslib/cy_syslib.h ****             uint32_t reserved3   : 1;  /**< Reserved */
 314:Generated_Source\PSoC6\pdl\drivers/peripheral/syslib/cy_syslib.h ****             uint32_t bfarValid   : 1;  /**< Bus Fault - The bus fault address register valid flag *
 315:Generated_Source\PSoC6\pdl\drivers/peripheral/syslib/cy_syslib.h ****             /** Usage Fault Status Sub-register - UFSR */
 316:Generated_Source\PSoC6\pdl\drivers/peripheral/syslib/cy_syslib.h ****             uint32_t undefInstr  : 1;  /**< Usage Fault - An undefined instruction */
 317:Generated_Source\PSoC6\pdl\drivers/peripheral/syslib/cy_syslib.h ****             uint32_t invState    : 1;  /**< Usage Fault - The invalid state */
 318:Generated_Source\PSoC6\pdl\drivers/peripheral/syslib/cy_syslib.h ****             uint32_t invPC       : 1;  /**< Usage Fault - An invalid PC */
 319:Generated_Source\PSoC6\pdl\drivers/peripheral/syslib/cy_syslib.h ****             uint32_t noCP        : 1;  /**< Usage Fault - No coprocessor */
 320:Generated_Source\PSoC6\pdl\drivers/peripheral/syslib/cy_syslib.h ****             uint32_t reserved4   : 4;  /**< Reserved */
 321:Generated_Source\PSoC6\pdl\drivers/peripheral/syslib/cy_syslib.h ****             uint32_t unaligned   : 1;  /**< Usage Fault - Unaligned access */
 322:Generated_Source\PSoC6\pdl\drivers/peripheral/syslib/cy_syslib.h ****             uint32_t divByZero   : 1;  /**< Usage Fault - Divide by zero */
 323:Generated_Source\PSoC6\pdl\drivers/peripheral/syslib/cy_syslib.h ****             uint32_t reserved5   : 6;  /**< Reserved */
 324:Generated_Source\PSoC6\pdl\drivers/peripheral/syslib/cy_syslib.h ****         } cy_stc_fault_cfsr_t;
 325:Generated_Source\PSoC6\pdl\drivers/peripheral/syslib/cy_syslib.h **** 
 326:Generated_Source\PSoC6\pdl\drivers/peripheral/syslib/cy_syslib.h ****         /** Hard Fault Status Register - HFSR */
 327:Generated_Source\PSoC6\pdl\drivers/peripheral/syslib/cy_syslib.h ****         typedef struct
 328:Generated_Source\PSoC6\pdl\drivers/peripheral/syslib/cy_syslib.h ****         {
 329:Generated_Source\PSoC6\pdl\drivers/peripheral/syslib/cy_syslib.h ****             uint32_t reserved1   :  1;   /**< Reserved. */
 330:Generated_Source\PSoC6\pdl\drivers/peripheral/syslib/cy_syslib.h ****             uint32_t vectTbl     :  1;   /**< HFSR - Indicates a bus fault on a vector table read d
 331:Generated_Source\PSoC6\pdl\drivers/peripheral/syslib/cy_syslib.h ****             uint32_t reserved2   : 28;   /**< Reserved. */
 332:Generated_Source\PSoC6\pdl\drivers/peripheral/syslib/cy_syslib.h ****             uint32_t forced      :  1;   /**< HFSR - Indicates a forced hard fault */
 333:Generated_Source\PSoC6\pdl\drivers/peripheral/syslib/cy_syslib.h ****             uint32_t debugEvt    :  1;   /**< HFSR - Reserved for the debug use.  */
 334:Generated_Source\PSoC6\pdl\drivers/peripheral/syslib/cy_syslib.h ****         } cy_stc_fault_hfsr_t;
 335:Generated_Source\PSoC6\pdl\drivers/peripheral/syslib/cy_syslib.h **** 
 336:Generated_Source\PSoC6\pdl\drivers/peripheral/syslib/cy_syslib.h ****         /** System Handler Control and State Register - SHCSR */
ARM GAS  C:\Users\Rolf\AppData\Local\Temp\ccafVfle.s 			page 34


 337:Generated_Source\PSoC6\pdl\drivers/peripheral/syslib/cy_syslib.h ****         typedef struct
 338:Generated_Source\PSoC6\pdl\drivers/peripheral/syslib/cy_syslib.h ****         {
 339:Generated_Source\PSoC6\pdl\drivers/peripheral/syslib/cy_syslib.h ****             uint32_t memFaultAct    :  1;   /**< SHCSR - The MemManage exception active bit, reads 
 340:Generated_Source\PSoC6\pdl\drivers/peripheral/syslib/cy_syslib.h ****             uint32_t busFaultAct    :  1;   /**< SHCSR - The BusFault exception active bit, reads a
 341:Generated_Source\PSoC6\pdl\drivers/peripheral/syslib/cy_syslib.h ****             uint32_t reserved1      :  1;   /**< Reserved. */
 342:Generated_Source\PSoC6\pdl\drivers/peripheral/syslib/cy_syslib.h ****             uint32_t usgFaultAct    :  1;   /**< SHCSR - The UsageFault exception active bit, reads
 343:Generated_Source\PSoC6\pdl\drivers/peripheral/syslib/cy_syslib.h ****             uint32_t reserved2      :  3;   /**< Reserved. */
 344:Generated_Source\PSoC6\pdl\drivers/peripheral/syslib/cy_syslib.h ****             uint32_t svCallAct      :  1;   /**< SHCSR - The SVCall active bit, reads as 1 if the S
 345:Generated_Source\PSoC6\pdl\drivers/peripheral/syslib/cy_syslib.h ****             uint32_t monitorAct     :  1;   /**< SHCSR - The debug monitor active bit, reads as 1 i
 346:Generated_Source\PSoC6\pdl\drivers/peripheral/syslib/cy_syslib.h ****             uint32_t reserved3      :  1;   /**< Reserved. */
 347:Generated_Source\PSoC6\pdl\drivers/peripheral/syslib/cy_syslib.h ****             uint32_t pendSVAct      :  1;   /**< SHCSR - The PendSV exception active bit, reads as 
 348:Generated_Source\PSoC6\pdl\drivers/peripheral/syslib/cy_syslib.h ****             uint32_t sysTickAct     :  1;   /**< SHCSR - The SysTick exception active bit, reads as
 349:Generated_Source\PSoC6\pdl\drivers/peripheral/syslib/cy_syslib.h ****             uint32_t usgFaultPended :  1;   /**< SHCSR - The UsageFault exception pending bit, read
 350:Generated_Source\PSoC6\pdl\drivers/peripheral/syslib/cy_syslib.h ****             uint32_t memFaultPended :  1;   /**< SHCSR - The MemManage exception pending bit, reads
 351:Generated_Source\PSoC6\pdl\drivers/peripheral/syslib/cy_syslib.h ****             uint32_t busFaultPended :  1;   /**< SHCSR - The BusFault exception pending bit, reads 
 352:Generated_Source\PSoC6\pdl\drivers/peripheral/syslib/cy_syslib.h ****             uint32_t svCallPended   :  1;   /**< SHCSR - The SVCall pending bit, reads as 1 if the 
 353:Generated_Source\PSoC6\pdl\drivers/peripheral/syslib/cy_syslib.h ****             uint32_t memFaultEna    :  1;   /**< SHCSR - The MemManage enable bit, set to 1 to enab
 354:Generated_Source\PSoC6\pdl\drivers/peripheral/syslib/cy_syslib.h ****             uint32_t busFaultEna    :  1;   /**< SHCSR - The BusFault enable bit, set to 1 to enabl
 355:Generated_Source\PSoC6\pdl\drivers/peripheral/syslib/cy_syslib.h ****             uint32_t usgFaultEna    :  1;   /**< SHCSR - The UsageFault enable bit, set to 1 to ena
 356:Generated_Source\PSoC6\pdl\drivers/peripheral/syslib/cy_syslib.h ****             uint32_t reserved4      : 13;   /**< Reserved */
 357:Generated_Source\PSoC6\pdl\drivers/peripheral/syslib/cy_syslib.h ****         } cy_stc_fault_shcsr_t;
 358:Generated_Source\PSoC6\pdl\drivers/peripheral/syslib/cy_syslib.h ****     #endif /* CY_CPU_CORTEX_M4 */
 359:Generated_Source\PSoC6\pdl\drivers/peripheral/syslib/cy_syslib.h **** 
 360:Generated_Source\PSoC6\pdl\drivers/peripheral/syslib/cy_syslib.h ****     /** The fault configuration structure. */
 361:Generated_Source\PSoC6\pdl\drivers/peripheral/syslib/cy_syslib.h ****     typedef struct
 362:Generated_Source\PSoC6\pdl\drivers/peripheral/syslib/cy_syslib.h ****     {
 363:Generated_Source\PSoC6\pdl\drivers/peripheral/syslib/cy_syslib.h ****         uint32_t r0;       /**< R0 register content */
 364:Generated_Source\PSoC6\pdl\drivers/peripheral/syslib/cy_syslib.h ****         uint32_t r1;       /**< R1 register content */
 365:Generated_Source\PSoC6\pdl\drivers/peripheral/syslib/cy_syslib.h ****         uint32_t r2;       /**< R2 register content */
 366:Generated_Source\PSoC6\pdl\drivers/peripheral/syslib/cy_syslib.h ****         uint32_t r3;       /**< R3 register content */
 367:Generated_Source\PSoC6\pdl\drivers/peripheral/syslib/cy_syslib.h ****         uint32_t r12;      /**< R12 register content */
 368:Generated_Source\PSoC6\pdl\drivers/peripheral/syslib/cy_syslib.h ****         uint32_t lr;       /**< LR register content */
 369:Generated_Source\PSoC6\pdl\drivers/peripheral/syslib/cy_syslib.h ****         uint32_t pc;       /**< PC register content */
 370:Generated_Source\PSoC6\pdl\drivers/peripheral/syslib/cy_syslib.h ****         uint32_t psr;      /**< PSR register content */
 371:Generated_Source\PSoC6\pdl\drivers/peripheral/syslib/cy_syslib.h ****         #if (CY_CPU_CORTEX_M4)
 372:Generated_Source\PSoC6\pdl\drivers/peripheral/syslib/cy_syslib.h ****             union
 373:Generated_Source\PSoC6\pdl\drivers/peripheral/syslib/cy_syslib.h ****             {
 374:Generated_Source\PSoC6\pdl\drivers/peripheral/syslib/cy_syslib.h ****                 uint32_t cfsrReg;              /**< CFSR register content as a word */
 375:Generated_Source\PSoC6\pdl\drivers/peripheral/syslib/cy_syslib.h ****                 cy_stc_fault_cfsr_t cfsrBits;  /**< CFSR register content as a structure */
 376:Generated_Source\PSoC6\pdl\drivers/peripheral/syslib/cy_syslib.h ****             } cfsr;
 377:Generated_Source\PSoC6\pdl\drivers/peripheral/syslib/cy_syslib.h ****             union
 378:Generated_Source\PSoC6\pdl\drivers/peripheral/syslib/cy_syslib.h ****             {
 379:Generated_Source\PSoC6\pdl\drivers/peripheral/syslib/cy_syslib.h ****                 uint32_t hfsrReg;              /**< HFSR register content as a word */
 380:Generated_Source\PSoC6\pdl\drivers/peripheral/syslib/cy_syslib.h ****                 cy_stc_fault_hfsr_t hfsrBits;  /**< HFSR register content as a structure */
 381:Generated_Source\PSoC6\pdl\drivers/peripheral/syslib/cy_syslib.h ****             } hfsr;
 382:Generated_Source\PSoC6\pdl\drivers/peripheral/syslib/cy_syslib.h ****             union
 383:Generated_Source\PSoC6\pdl\drivers/peripheral/syslib/cy_syslib.h ****             {
 384:Generated_Source\PSoC6\pdl\drivers/peripheral/syslib/cy_syslib.h ****                 uint32_t shcsrReg;              /**< SHCSR register content as a word */
 385:Generated_Source\PSoC6\pdl\drivers/peripheral/syslib/cy_syslib.h ****                 cy_stc_fault_shcsr_t shcsrBits; /**< SHCSR register content as a structure */
 386:Generated_Source\PSoC6\pdl\drivers/peripheral/syslib/cy_syslib.h ****             } shcsr;
 387:Generated_Source\PSoC6\pdl\drivers/peripheral/syslib/cy_syslib.h ****             uint32_t mmfar;                /**< MMFAR register content */
 388:Generated_Source\PSoC6\pdl\drivers/peripheral/syslib/cy_syslib.h ****             uint32_t bfar;                 /**< BFAR register content */
 389:Generated_Source\PSoC6\pdl\drivers/peripheral/syslib/cy_syslib.h ****             #if ((defined (__FPU_PRESENT) && (__FPU_PRESENT == 1U)) && \
 390:Generated_Source\PSoC6\pdl\drivers/peripheral/syslib/cy_syslib.h ****                  (defined (__FPU_USED   ) && (__FPU_USED    == 1U)))
 391:Generated_Source\PSoC6\pdl\drivers/peripheral/syslib/cy_syslib.h ****                 uint32_t s0;       /**< FPU S0 register content */
 392:Generated_Source\PSoC6\pdl\drivers/peripheral/syslib/cy_syslib.h ****                 uint32_t s1;       /**< FPU S1 register content */
 393:Generated_Source\PSoC6\pdl\drivers/peripheral/syslib/cy_syslib.h ****                 uint32_t s2;       /**< FPU S2 register content */
ARM GAS  C:\Users\Rolf\AppData\Local\Temp\ccafVfle.s 			page 35


 394:Generated_Source\PSoC6\pdl\drivers/peripheral/syslib/cy_syslib.h ****                 uint32_t s3;       /**< FPU S3 register content */
 395:Generated_Source\PSoC6\pdl\drivers/peripheral/syslib/cy_syslib.h ****                 uint32_t s4;       /**< FPU S4 register content */
 396:Generated_Source\PSoC6\pdl\drivers/peripheral/syslib/cy_syslib.h ****                 uint32_t s5;       /**< FPU S5 register content */
 397:Generated_Source\PSoC6\pdl\drivers/peripheral/syslib/cy_syslib.h ****                 uint32_t s6;       /**< FPU S6 register content */
 398:Generated_Source\PSoC6\pdl\drivers/peripheral/syslib/cy_syslib.h ****                 uint32_t s7;       /**< FPU S7 register content */
 399:Generated_Source\PSoC6\pdl\drivers/peripheral/syslib/cy_syslib.h ****                 uint32_t s8;       /**< FPU S8 register content */
 400:Generated_Source\PSoC6\pdl\drivers/peripheral/syslib/cy_syslib.h ****                 uint32_t s9;       /**< FPU S9 register content */
 401:Generated_Source\PSoC6\pdl\drivers/peripheral/syslib/cy_syslib.h ****                 uint32_t s10;      /**< FPU S10 register content */
 402:Generated_Source\PSoC6\pdl\drivers/peripheral/syslib/cy_syslib.h ****                 uint32_t s11;      /**< FPU S11 register content */
 403:Generated_Source\PSoC6\pdl\drivers/peripheral/syslib/cy_syslib.h ****                 uint32_t s12;      /**< FPU S12 register content */
 404:Generated_Source\PSoC6\pdl\drivers/peripheral/syslib/cy_syslib.h ****                 uint32_t s13;      /**< FPU S13 register content */
 405:Generated_Source\PSoC6\pdl\drivers/peripheral/syslib/cy_syslib.h ****                 uint32_t s14;      /**< FPU S14 register content */
 406:Generated_Source\PSoC6\pdl\drivers/peripheral/syslib/cy_syslib.h ****                 uint32_t s15;      /**< FPU S15 register content */
 407:Generated_Source\PSoC6\pdl\drivers/peripheral/syslib/cy_syslib.h ****                 uint32_t fpscr;    /**< FPU FPSCR register content */
 408:Generated_Source\PSoC6\pdl\drivers/peripheral/syslib/cy_syslib.h ****             #endif /* __FPU_PRESENT */
 409:Generated_Source\PSoC6\pdl\drivers/peripheral/syslib/cy_syslib.h ****         #endif /* CY_CPU_CORTEX_M4 */
 410:Generated_Source\PSoC6\pdl\drivers/peripheral/syslib/cy_syslib.h ****     } cy_stc_fault_frame_t;
 411:Generated_Source\PSoC6\pdl\drivers/peripheral/syslib/cy_syslib.h **** #endif /* (CY_ARM_FAULT_DEBUG == CY_ARM_FAULT_DEBUG_ENABLED) */
 412:Generated_Source\PSoC6\pdl\drivers/peripheral/syslib/cy_syslib.h **** 
 413:Generated_Source\PSoC6\pdl\drivers/peripheral/syslib/cy_syslib.h **** /** \} group_syslib_data_structures */
 414:Generated_Source\PSoC6\pdl\drivers/peripheral/syslib/cy_syslib.h **** 
 415:Generated_Source\PSoC6\pdl\drivers/peripheral/syslib/cy_syslib.h **** /**
 416:Generated_Source\PSoC6\pdl\drivers/peripheral/syslib/cy_syslib.h **** * \addtogroup group_syslib_macros
 417:Generated_Source\PSoC6\pdl\drivers/peripheral/syslib/cy_syslib.h **** * \{
 418:Generated_Source\PSoC6\pdl\drivers/peripheral/syslib/cy_syslib.h **** */
 419:Generated_Source\PSoC6\pdl\drivers/peripheral/syslib/cy_syslib.h **** 
 420:Generated_Source\PSoC6\pdl\drivers/peripheral/syslib/cy_syslib.h **** /** The driver major version */
 421:Generated_Source\PSoC6\pdl\drivers/peripheral/syslib/cy_syslib.h **** #define CY_SYSLIB_DRV_VERSION_MAJOR    2
 422:Generated_Source\PSoC6\pdl\drivers/peripheral/syslib/cy_syslib.h **** 
 423:Generated_Source\PSoC6\pdl\drivers/peripheral/syslib/cy_syslib.h **** /** The driver minor version */
 424:Generated_Source\PSoC6\pdl\drivers/peripheral/syslib/cy_syslib.h **** #define CY_SYSLIB_DRV_VERSION_MINOR    10
 425:Generated_Source\PSoC6\pdl\drivers/peripheral/syslib/cy_syslib.h **** 
 426:Generated_Source\PSoC6\pdl\drivers/peripheral/syslib/cy_syslib.h **** 
 427:Generated_Source\PSoC6\pdl\drivers/peripheral/syslib/cy_syslib.h **** /*******************************************************************************
 428:Generated_Source\PSoC6\pdl\drivers/peripheral/syslib/cy_syslib.h **** *  Data manipulation defines
 429:Generated_Source\PSoC6\pdl\drivers/peripheral/syslib/cy_syslib.h **** *******************************************************************************/
 430:Generated_Source\PSoC6\pdl\drivers/peripheral/syslib/cy_syslib.h **** 
 431:Generated_Source\PSoC6\pdl\drivers/peripheral/syslib/cy_syslib.h **** /** Get the lower 8 bits of a 16-bit value. */
 432:Generated_Source\PSoC6\pdl\drivers/peripheral/syslib/cy_syslib.h **** #define CY_LO8(x)               ((uint8_t) ((x) & 0xFFU))
 433:Generated_Source\PSoC6\pdl\drivers/peripheral/syslib/cy_syslib.h **** /** Get the upper 8 bits of a 16-bit value. */
 434:Generated_Source\PSoC6\pdl\drivers/peripheral/syslib/cy_syslib.h **** #define CY_HI8(x)               ((uint8_t) ((uint16_t)(x) >> 8U))
 435:Generated_Source\PSoC6\pdl\drivers/peripheral/syslib/cy_syslib.h **** 
 436:Generated_Source\PSoC6\pdl\drivers/peripheral/syslib/cy_syslib.h **** /** Get the lower 16 bits of a 32-bit value. */
 437:Generated_Source\PSoC6\pdl\drivers/peripheral/syslib/cy_syslib.h **** #define CY_LO16(x)              ((uint16_t) ((x) & 0xFFFFU))
 438:Generated_Source\PSoC6\pdl\drivers/peripheral/syslib/cy_syslib.h **** /** Get the upper 16 bits of a 32-bit value. */
 439:Generated_Source\PSoC6\pdl\drivers/peripheral/syslib/cy_syslib.h **** #define CY_HI16(x)              ((uint16_t) ((uint32_t)(x) >> 16U))
 440:Generated_Source\PSoC6\pdl\drivers/peripheral/syslib/cy_syslib.h **** 
 441:Generated_Source\PSoC6\pdl\drivers/peripheral/syslib/cy_syslib.h **** /** Swap the byte ordering of a 16-bit value */
 442:Generated_Source\PSoC6\pdl\drivers/peripheral/syslib/cy_syslib.h **** #define CY_SWAP_ENDIAN16(x)     ((uint16_t)(((x) << 8U) | (((x) >> 8U) & 0x00FFU)))
 443:Generated_Source\PSoC6\pdl\drivers/peripheral/syslib/cy_syslib.h **** 
 444:Generated_Source\PSoC6\pdl\drivers/peripheral/syslib/cy_syslib.h **** /** Swap the byte ordering of a 32-bit value */
 445:Generated_Source\PSoC6\pdl\drivers/peripheral/syslib/cy_syslib.h **** #define CY_SWAP_ENDIAN32(x)     ((uint32_t)((((x) >> 24U) & 0x000000FFU) | (((x) & 0x00FF0000U) >> 
 446:Generated_Source\PSoC6\pdl\drivers/peripheral/syslib/cy_syslib.h ****                                 (((x) & 0x0000FF00U) << 8U) | ((x) << 24U)))
 447:Generated_Source\PSoC6\pdl\drivers/peripheral/syslib/cy_syslib.h **** 
 448:Generated_Source\PSoC6\pdl\drivers/peripheral/syslib/cy_syslib.h **** /** Swap the byte ordering of a 64-bit value */
 449:Generated_Source\PSoC6\pdl\drivers/peripheral/syslib/cy_syslib.h **** #define CY_SWAP_ENDIAN64(x)     ((uint64_t) (((uint64_t) CY_SWAP_ENDIAN32((uint32_t)(x)) << 32U) | 
 450:Generated_Source\PSoC6\pdl\drivers/peripheral/syslib/cy_syslib.h ****                                 CY_SWAP_ENDIAN32((uint32_t)((x) >> 32U))))
ARM GAS  C:\Users\Rolf\AppData\Local\Temp\ccafVfle.s 			page 36


 451:Generated_Source\PSoC6\pdl\drivers/peripheral/syslib/cy_syslib.h **** 
 452:Generated_Source\PSoC6\pdl\drivers/peripheral/syslib/cy_syslib.h **** 
 453:Generated_Source\PSoC6\pdl\drivers/peripheral/syslib/cy_syslib.h **** /*******************************************************************************
 454:Generated_Source\PSoC6\pdl\drivers/peripheral/syslib/cy_syslib.h **** *   Memory model definitions
 455:Generated_Source\PSoC6\pdl\drivers/peripheral/syslib/cy_syslib.h **** *******************************************************************************/
 456:Generated_Source\PSoC6\pdl\drivers/peripheral/syslib/cy_syslib.h **** #if defined(__ARMCC_VERSION)
 457:Generated_Source\PSoC6\pdl\drivers/peripheral/syslib/cy_syslib.h ****     /** To create cross compiler compatible code, use the CY_NOINIT, CY_SECTION, CY_UNUSED, CY_ALIG
 458:Generated_Source\PSoC6\pdl\drivers/peripheral/syslib/cy_syslib.h ****      * attributes at the first place of declaration/definition.
 459:Generated_Source\PSoC6\pdl\drivers/peripheral/syslib/cy_syslib.h ****      * For example: CY_NOINIT uint32_t noinitVar;
 460:Generated_Source\PSoC6\pdl\drivers/peripheral/syslib/cy_syslib.h ****      */
 461:Generated_Source\PSoC6\pdl\drivers/peripheral/syslib/cy_syslib.h ****     #define CY_NOINIT           __attribute__ ((section(".noinit"), zero_init))
 462:Generated_Source\PSoC6\pdl\drivers/peripheral/syslib/cy_syslib.h ****     #define CY_SECTION(name)    __attribute__ ((section(name)))
 463:Generated_Source\PSoC6\pdl\drivers/peripheral/syslib/cy_syslib.h ****     #define CY_UNUSED           __attribute__ ((unused))
 464:Generated_Source\PSoC6\pdl\drivers/peripheral/syslib/cy_syslib.h ****     #define CY_NOINLINE         __attribute__ ((noinline))
 465:Generated_Source\PSoC6\pdl\drivers/peripheral/syslib/cy_syslib.h ****     /* Specifies the minimum alignment (in bytes) for variables of the specified type. */
 466:Generated_Source\PSoC6\pdl\drivers/peripheral/syslib/cy_syslib.h ****     #define CY_ALIGN(align)     __ALIGNED(align)
 467:Generated_Source\PSoC6\pdl\drivers/peripheral/syslib/cy_syslib.h **** #elif defined (__GNUC__)
 468:Generated_Source\PSoC6\pdl\drivers/peripheral/syslib/cy_syslib.h ****     #if defined (__clang__)
 469:Generated_Source\PSoC6\pdl\drivers/peripheral/syslib/cy_syslib.h ****         #define CY_NOINIT           __attribute__ ((section("__DATA, __noinit")))
 470:Generated_Source\PSoC6\pdl\drivers/peripheral/syslib/cy_syslib.h ****         #define CY_SECTION(name)    __attribute__ ((section("__DATA, "name)))
 471:Generated_Source\PSoC6\pdl\drivers/peripheral/syslib/cy_syslib.h ****     #else
 472:Generated_Source\PSoC6\pdl\drivers/peripheral/syslib/cy_syslib.h ****         #define CY_NOINIT           __attribute__ ((section(".noinit")))
 473:Generated_Source\PSoC6\pdl\drivers/peripheral/syslib/cy_syslib.h ****         #define CY_SECTION(name)    __attribute__ ((section(name)))
 474:Generated_Source\PSoC6\pdl\drivers/peripheral/syslib/cy_syslib.h ****     #endif
 475:Generated_Source\PSoC6\pdl\drivers/peripheral/syslib/cy_syslib.h ****     
 476:Generated_Source\PSoC6\pdl\drivers/peripheral/syslib/cy_syslib.h ****     #define CY_UNUSED           __attribute__ ((unused))
 477:Generated_Source\PSoC6\pdl\drivers/peripheral/syslib/cy_syslib.h ****     #define CY_NOINLINE         __attribute__ ((noinline))
 478:Generated_Source\PSoC6\pdl\drivers/peripheral/syslib/cy_syslib.h ****     #define CY_ALIGN(align)     __ALIGNED(align)
 479:Generated_Source\PSoC6\pdl\drivers/peripheral/syslib/cy_syslib.h **** #elif defined (__ICCARM__)
 480:Generated_Source\PSoC6\pdl\drivers/peripheral/syslib/cy_syslib.h ****     #define CY_PRAGMA(x)        _Pragma(#x)
 481:Generated_Source\PSoC6\pdl\drivers/peripheral/syslib/cy_syslib.h ****     #define CY_NOINIT           __no_init
 482:Generated_Source\PSoC6\pdl\drivers/peripheral/syslib/cy_syslib.h ****     #define CY_SECTION(name)    CY_PRAGMA(location = name)
 483:Generated_Source\PSoC6\pdl\drivers/peripheral/syslib/cy_syslib.h ****     #define CY_UNUSED
 484:Generated_Source\PSoC6\pdl\drivers/peripheral/syslib/cy_syslib.h ****     #define CY_NOINLINE         CY_PRAGMA(optimize = no_inline)
 485:Generated_Source\PSoC6\pdl\drivers/peripheral/syslib/cy_syslib.h ****     #if (__VER__ < 8010001)
 486:Generated_Source\PSoC6\pdl\drivers/peripheral/syslib/cy_syslib.h ****         #define CY_ALIGN(align) CY_PRAGMA(data_alignment = align)
 487:Generated_Source\PSoC6\pdl\drivers/peripheral/syslib/cy_syslib.h ****     #else
 488:Generated_Source\PSoC6\pdl\drivers/peripheral/syslib/cy_syslib.h ****         #define CY_ALIGN(align) __ALIGNED(align)
 489:Generated_Source\PSoC6\pdl\drivers/peripheral/syslib/cy_syslib.h ****     #endif /* (__VER__ < 8010001) */
 490:Generated_Source\PSoC6\pdl\drivers/peripheral/syslib/cy_syslib.h **** #else
 491:Generated_Source\PSoC6\pdl\drivers/peripheral/syslib/cy_syslib.h ****     #error "An unsupported toolchain"
 492:Generated_Source\PSoC6\pdl\drivers/peripheral/syslib/cy_syslib.h **** #endif  /* (__ARMCC_VERSION) */
 493:Generated_Source\PSoC6\pdl\drivers/peripheral/syslib/cy_syslib.h **** 
 494:Generated_Source\PSoC6\pdl\drivers/peripheral/syslib/cy_syslib.h **** typedef void (* cy_israddress)(void);   /**< Type of ISR callbacks */
 495:Generated_Source\PSoC6\pdl\drivers/peripheral/syslib/cy_syslib.h **** #if defined (__ICCARM__)
 496:Generated_Source\PSoC6\pdl\drivers/peripheral/syslib/cy_syslib.h ****     typedef union { cy_israddress __fun; void * __ptr; } cy_intvec_elem;
 497:Generated_Source\PSoC6\pdl\drivers/peripheral/syslib/cy_syslib.h **** #endif  /* defined (__ICCARM__) */
 498:Generated_Source\PSoC6\pdl\drivers/peripheral/syslib/cy_syslib.h **** 
 499:Generated_Source\PSoC6\pdl\drivers/peripheral/syslib/cy_syslib.h **** /* MISRA rule 6.3 recommends using specific-length typedef for the basic
 500:Generated_Source\PSoC6\pdl\drivers/peripheral/syslib/cy_syslib.h ****  * numerical types of signed and unsigned variants of char, float, and double.
 501:Generated_Source\PSoC6\pdl\drivers/peripheral/syslib/cy_syslib.h ****  */
 502:Generated_Source\PSoC6\pdl\drivers/peripheral/syslib/cy_syslib.h **** typedef char     char_t;    /**< Specific-length typedef for the basic numerical types of char */
 503:Generated_Source\PSoC6\pdl\drivers/peripheral/syslib/cy_syslib.h **** typedef float    float32_t; /**< Specific-length typedef for the basic numerical types of float */
 504:Generated_Source\PSoC6\pdl\drivers/peripheral/syslib/cy_syslib.h **** typedef double   float64_t; /**< Specific-length typedef for the basic numerical types of double */
 505:Generated_Source\PSoC6\pdl\drivers/peripheral/syslib/cy_syslib.h **** 
 506:Generated_Source\PSoC6\pdl\drivers/peripheral/syslib/cy_syslib.h **** #if !defined(NDEBUG)
 507:Generated_Source\PSoC6\pdl\drivers/peripheral/syslib/cy_syslib.h ****     /** The max size of the file name which stores the ASSERT location */
ARM GAS  C:\Users\Rolf\AppData\Local\Temp\ccafVfle.s 			page 37


 508:Generated_Source\PSoC6\pdl\drivers/peripheral/syslib/cy_syslib.h ****     #define CY_MAX_FILE_NAME_SIZE  (24U)
 509:Generated_Source\PSoC6\pdl\drivers/peripheral/syslib/cy_syslib.h ****     extern CY_NOINIT char_t cy_assertFileName[CY_MAX_FILE_NAME_SIZE];  /**< The assert buffer */
 510:Generated_Source\PSoC6\pdl\drivers/peripheral/syslib/cy_syslib.h ****     extern CY_NOINIT uint32_t cy_assertLine;                           /**< The assert line value *
 511:Generated_Source\PSoC6\pdl\drivers/peripheral/syslib/cy_syslib.h **** #endif /* NDEBUG */
 512:Generated_Source\PSoC6\pdl\drivers/peripheral/syslib/cy_syslib.h **** 
 513:Generated_Source\PSoC6\pdl\drivers/peripheral/syslib/cy_syslib.h **** #if (CY_ARM_FAULT_DEBUG == CY_ARM_FAULT_DEBUG_ENABLED)
 514:Generated_Source\PSoC6\pdl\drivers/peripheral/syslib/cy_syslib.h ****     #define CY_R0_Pos             (0U)     /**< The position of the R0  content in a fault structur
 515:Generated_Source\PSoC6\pdl\drivers/peripheral/syslib/cy_syslib.h ****     #define CY_R1_Pos             (1U)     /**< The position of the R1  content in a fault structur
 516:Generated_Source\PSoC6\pdl\drivers/peripheral/syslib/cy_syslib.h ****     #define CY_R2_Pos             (2U)     /**< The position of the R2  content in a fault structur
 517:Generated_Source\PSoC6\pdl\drivers/peripheral/syslib/cy_syslib.h ****     #define CY_R3_Pos             (3U)     /**< The position of the R3  content in a fault structur
 518:Generated_Source\PSoC6\pdl\drivers/peripheral/syslib/cy_syslib.h ****     #define CY_R12_Pos            (4U)     /**< The position of the R12 content in a fault structur
 519:Generated_Source\PSoC6\pdl\drivers/peripheral/syslib/cy_syslib.h ****     #define CY_LR_Pos             (5U)     /**< The position of the LR  content in a fault structur
 520:Generated_Source\PSoC6\pdl\drivers/peripheral/syslib/cy_syslib.h ****     #define CY_PC_Pos             (6U)     /**< The position of the PC  content in a fault structur
 521:Generated_Source\PSoC6\pdl\drivers/peripheral/syslib/cy_syslib.h ****     #define CY_PSR_Pos            (7U)     /**< The position of the PSR content in a fault structur
 522:Generated_Source\PSoC6\pdl\drivers/peripheral/syslib/cy_syslib.h ****     #if (CY_CPU_CORTEX_M4) && ((defined (__FPU_PRESENT) && (__FPU_PRESENT == 1U)) && \
 523:Generated_Source\PSoC6\pdl\drivers/peripheral/syslib/cy_syslib.h ****                                (defined (__FPU_USED   ) && (__FPU_USED    == 1U)))
 524:Generated_Source\PSoC6\pdl\drivers/peripheral/syslib/cy_syslib.h ****         #define CY_FPSCR_IXC_Msk  (0x00000010U)    /**< The cumulative exception bit for floating-p
 525:Generated_Source\PSoC6\pdl\drivers/peripheral/syslib/cy_syslib.h ****         #define CY_FPSCR_IDC_Msk  (0x00000080U)    /**< The cumulative exception bit for floating-p
 526:Generated_Source\PSoC6\pdl\drivers/peripheral/syslib/cy_syslib.h ****         #define CY_S0_Pos         (8U)     /**< The position of the FPU S0 content in a fault struc
 527:Generated_Source\PSoC6\pdl\drivers/peripheral/syslib/cy_syslib.h ****         #define CY_S1_Pos         (9U)     /**< The position of the FPU S1 content in a fault struc
 528:Generated_Source\PSoC6\pdl\drivers/peripheral/syslib/cy_syslib.h ****         #define CY_S2_Pos         (10U)    /**< The position of the FPU S2 content in a fault struc
 529:Generated_Source\PSoC6\pdl\drivers/peripheral/syslib/cy_syslib.h ****         #define CY_S3_Pos         (11U)    /**< The position of the FPU S3 content in a fault struc
 530:Generated_Source\PSoC6\pdl\drivers/peripheral/syslib/cy_syslib.h ****         #define CY_S4_Pos         (12U)    /**< The position of the FPU S4 content in a fault struc
 531:Generated_Source\PSoC6\pdl\drivers/peripheral/syslib/cy_syslib.h ****         #define CY_S5_Pos         (13U)    /**< The position of the FPU S5 content in a fault struc
 532:Generated_Source\PSoC6\pdl\drivers/peripheral/syslib/cy_syslib.h ****         #define CY_S6_Pos         (14U)    /**< The position of the FPU S6 content in a fault struc
 533:Generated_Source\PSoC6\pdl\drivers/peripheral/syslib/cy_syslib.h ****         #define CY_S7_Pos         (15U)    /**< The position of the FPU S7 content in a fault struc
 534:Generated_Source\PSoC6\pdl\drivers/peripheral/syslib/cy_syslib.h ****         #define CY_S8_Pos         (16U)    /**< The position of the FPU S8 content in a fault struc
 535:Generated_Source\PSoC6\pdl\drivers/peripheral/syslib/cy_syslib.h ****         #define CY_S9_Pos         (17U)    /**< The position of the FPU S9 content in a fault struc
 536:Generated_Source\PSoC6\pdl\drivers/peripheral/syslib/cy_syslib.h ****         #define CY_S10_Pos        (18U)    /**< The position of the FPU S10 content in a fault stru
 537:Generated_Source\PSoC6\pdl\drivers/peripheral/syslib/cy_syslib.h ****         #define CY_S11_Pos        (19U)    /**< The position of the FPU S11 content in a fault stru
 538:Generated_Source\PSoC6\pdl\drivers/peripheral/syslib/cy_syslib.h ****         #define CY_S12_Pos        (20U)    /**< The position of the FPU S12 content in a fault stru
 539:Generated_Source\PSoC6\pdl\drivers/peripheral/syslib/cy_syslib.h ****         #define CY_S13_Pos        (21U)    /**< The position of the FPU S13 content in a fault stru
 540:Generated_Source\PSoC6\pdl\drivers/peripheral/syslib/cy_syslib.h ****         #define CY_S14_Pos        (22U)    /**< The position of the FPU S14 content in a fault stru
 541:Generated_Source\PSoC6\pdl\drivers/peripheral/syslib/cy_syslib.h ****         #define CY_S15_Pos        (23U)    /**< The position of the FPU S15 content in a fault stru
 542:Generated_Source\PSoC6\pdl\drivers/peripheral/syslib/cy_syslib.h ****         #define CY_FPSCR_Pos      (24U)    /**< The position of the FPU FPSCR content in a fault st
 543:Generated_Source\PSoC6\pdl\drivers/peripheral/syslib/cy_syslib.h ****     #endif /* CY_CPU_CORTEX_M4 && __FPU_PRESENT */
 544:Generated_Source\PSoC6\pdl\drivers/peripheral/syslib/cy_syslib.h **** 
 545:Generated_Source\PSoC6\pdl\drivers/peripheral/syslib/cy_syslib.h ****     extern CY_NOINIT cy_stc_fault_frame_t cy_faultFrame;    /**< Fault frame structure */
 546:Generated_Source\PSoC6\pdl\drivers/peripheral/syslib/cy_syslib.h **** #endif /* (CY_ARM_FAULT_DEBUG == CY_ARM_FAULT_DEBUG_ENABLED) */
 547:Generated_Source\PSoC6\pdl\drivers/peripheral/syslib/cy_syslib.h **** 
 548:Generated_Source\PSoC6\pdl\drivers/peripheral/syslib/cy_syslib.h **** 
 549:Generated_Source\PSoC6\pdl\drivers/peripheral/syslib/cy_syslib.h **** /*******************************************************************************
 550:Generated_Source\PSoC6\pdl\drivers/peripheral/syslib/cy_syslib.h **** * Macro Name: CY_GET_REG8(addr)
 551:Generated_Source\PSoC6\pdl\drivers/peripheral/syslib/cy_syslib.h **** ****************************************************************************//**
 552:Generated_Source\PSoC6\pdl\drivers/peripheral/syslib/cy_syslib.h **** *
 553:Generated_Source\PSoC6\pdl\drivers/peripheral/syslib/cy_syslib.h **** * Reads the 8-bit value from the specified address. This function can't be
 554:Generated_Source\PSoC6\pdl\drivers/peripheral/syslib/cy_syslib.h **** * used to access the Core register, otherwise a fault occurs.
 555:Generated_Source\PSoC6\pdl\drivers/peripheral/syslib/cy_syslib.h **** *
 556:Generated_Source\PSoC6\pdl\drivers/peripheral/syslib/cy_syslib.h **** * \param addr  The register address.
 557:Generated_Source\PSoC6\pdl\drivers/peripheral/syslib/cy_syslib.h **** *
 558:Generated_Source\PSoC6\pdl\drivers/peripheral/syslib/cy_syslib.h **** * \return The read value.
 559:Generated_Source\PSoC6\pdl\drivers/peripheral/syslib/cy_syslib.h **** *
 560:Generated_Source\PSoC6\pdl\drivers/peripheral/syslib/cy_syslib.h **** *******************************************************************************/
 561:Generated_Source\PSoC6\pdl\drivers/peripheral/syslib/cy_syslib.h **** #define CY_GET_REG8(addr)           (*((const volatile uint8_t *)(addr)))
 562:Generated_Source\PSoC6\pdl\drivers/peripheral/syslib/cy_syslib.h **** 
 563:Generated_Source\PSoC6\pdl\drivers/peripheral/syslib/cy_syslib.h **** 
 564:Generated_Source\PSoC6\pdl\drivers/peripheral/syslib/cy_syslib.h **** /*******************************************************************************
ARM GAS  C:\Users\Rolf\AppData\Local\Temp\ccafVfle.s 			page 38


 565:Generated_Source\PSoC6\pdl\drivers/peripheral/syslib/cy_syslib.h **** * Macro Name: CY_SET_REG8(addr, value)
 566:Generated_Source\PSoC6\pdl\drivers/peripheral/syslib/cy_syslib.h **** ****************************************************************************//**
 567:Generated_Source\PSoC6\pdl\drivers/peripheral/syslib/cy_syslib.h **** *
 568:Generated_Source\PSoC6\pdl\drivers/peripheral/syslib/cy_syslib.h **** * Writes an 8-bit value to the specified address. This function can't be
 569:Generated_Source\PSoC6\pdl\drivers/peripheral/syslib/cy_syslib.h **** * used to access the Core register, otherwise a fault occurs.
 570:Generated_Source\PSoC6\pdl\drivers/peripheral/syslib/cy_syslib.h **** *
 571:Generated_Source\PSoC6\pdl\drivers/peripheral/syslib/cy_syslib.h **** * \param addr  The register address.
 572:Generated_Source\PSoC6\pdl\drivers/peripheral/syslib/cy_syslib.h **** *
 573:Generated_Source\PSoC6\pdl\drivers/peripheral/syslib/cy_syslib.h **** * \param value The value to write.
 574:Generated_Source\PSoC6\pdl\drivers/peripheral/syslib/cy_syslib.h **** *
 575:Generated_Source\PSoC6\pdl\drivers/peripheral/syslib/cy_syslib.h **** *******************************************************************************/
 576:Generated_Source\PSoC6\pdl\drivers/peripheral/syslib/cy_syslib.h **** #define CY_SET_REG8(addr, value)    (*((volatile uint8_t *)(addr)) = (uint8_t)(value))
 577:Generated_Source\PSoC6\pdl\drivers/peripheral/syslib/cy_syslib.h **** 
 578:Generated_Source\PSoC6\pdl\drivers/peripheral/syslib/cy_syslib.h **** 
 579:Generated_Source\PSoC6\pdl\drivers/peripheral/syslib/cy_syslib.h **** /*******************************************************************************
 580:Generated_Source\PSoC6\pdl\drivers/peripheral/syslib/cy_syslib.h **** * Macro Name: CY_GET_REG16(addr)
 581:Generated_Source\PSoC6\pdl\drivers/peripheral/syslib/cy_syslib.h **** ****************************************************************************//**
 582:Generated_Source\PSoC6\pdl\drivers/peripheral/syslib/cy_syslib.h **** *
 583:Generated_Source\PSoC6\pdl\drivers/peripheral/syslib/cy_syslib.h **** * Reads the 16-bit value from the specified address.
 584:Generated_Source\PSoC6\pdl\drivers/peripheral/syslib/cy_syslib.h **** *
 585:Generated_Source\PSoC6\pdl\drivers/peripheral/syslib/cy_syslib.h **** * \param addr  The register address.
 586:Generated_Source\PSoC6\pdl\drivers/peripheral/syslib/cy_syslib.h **** *
 587:Generated_Source\PSoC6\pdl\drivers/peripheral/syslib/cy_syslib.h **** * \return The read value.
 588:Generated_Source\PSoC6\pdl\drivers/peripheral/syslib/cy_syslib.h **** *
 589:Generated_Source\PSoC6\pdl\drivers/peripheral/syslib/cy_syslib.h **** *******************************************************************************/
 590:Generated_Source\PSoC6\pdl\drivers/peripheral/syslib/cy_syslib.h **** #define CY_GET_REG16(addr)          (*((const volatile uint16_t *)(addr)))
 591:Generated_Source\PSoC6\pdl\drivers/peripheral/syslib/cy_syslib.h **** 
 592:Generated_Source\PSoC6\pdl\drivers/peripheral/syslib/cy_syslib.h **** 
 593:Generated_Source\PSoC6\pdl\drivers/peripheral/syslib/cy_syslib.h **** /*******************************************************************************
 594:Generated_Source\PSoC6\pdl\drivers/peripheral/syslib/cy_syslib.h **** * Macro Name: CY_SET_REG16(addr, value)
 595:Generated_Source\PSoC6\pdl\drivers/peripheral/syslib/cy_syslib.h **** ****************************************************************************//**
 596:Generated_Source\PSoC6\pdl\drivers/peripheral/syslib/cy_syslib.h **** *
 597:Generated_Source\PSoC6\pdl\drivers/peripheral/syslib/cy_syslib.h **** * Writes the 16-bit value to the specified address.
 598:Generated_Source\PSoC6\pdl\drivers/peripheral/syslib/cy_syslib.h **** *
 599:Generated_Source\PSoC6\pdl\drivers/peripheral/syslib/cy_syslib.h **** * \param addr  The register address.
 600:Generated_Source\PSoC6\pdl\drivers/peripheral/syslib/cy_syslib.h **** *
 601:Generated_Source\PSoC6\pdl\drivers/peripheral/syslib/cy_syslib.h **** * \param value The value to write.
 602:Generated_Source\PSoC6\pdl\drivers/peripheral/syslib/cy_syslib.h **** *
 603:Generated_Source\PSoC6\pdl\drivers/peripheral/syslib/cy_syslib.h **** *******************************************************************************/
 604:Generated_Source\PSoC6\pdl\drivers/peripheral/syslib/cy_syslib.h **** #define CY_SET_REG16(addr, value)   (*((volatile uint16_t *)(addr)) = (uint16_t)(value))
 605:Generated_Source\PSoC6\pdl\drivers/peripheral/syslib/cy_syslib.h **** 
 606:Generated_Source\PSoC6\pdl\drivers/peripheral/syslib/cy_syslib.h **** 
 607:Generated_Source\PSoC6\pdl\drivers/peripheral/syslib/cy_syslib.h **** /*******************************************************************************
 608:Generated_Source\PSoC6\pdl\drivers/peripheral/syslib/cy_syslib.h **** * Macro Name: CY_GET_REG24(addr)
 609:Generated_Source\PSoC6\pdl\drivers/peripheral/syslib/cy_syslib.h **** ****************************************************************************//**
 610:Generated_Source\PSoC6\pdl\drivers/peripheral/syslib/cy_syslib.h **** *
 611:Generated_Source\PSoC6\pdl\drivers/peripheral/syslib/cy_syslib.h **** * Reads the 24-bit value from the specified address.
 612:Generated_Source\PSoC6\pdl\drivers/peripheral/syslib/cy_syslib.h **** *
 613:Generated_Source\PSoC6\pdl\drivers/peripheral/syslib/cy_syslib.h **** * \param addr  The register address.
 614:Generated_Source\PSoC6\pdl\drivers/peripheral/syslib/cy_syslib.h **** *
 615:Generated_Source\PSoC6\pdl\drivers/peripheral/syslib/cy_syslib.h **** * \return The read value.
 616:Generated_Source\PSoC6\pdl\drivers/peripheral/syslib/cy_syslib.h **** *
 617:Generated_Source\PSoC6\pdl\drivers/peripheral/syslib/cy_syslib.h **** *******************************************************************************/
 618:Generated_Source\PSoC6\pdl\drivers/peripheral/syslib/cy_syslib.h **** #define CY_GET_REG24(addr)          (((uint32_t) (*((const volatile uint8_t *)(addr)))) | \
 619:Generated_Source\PSoC6\pdl\drivers/peripheral/syslib/cy_syslib.h ****                                     (((uint32_t) (*((const volatile uint8_t *)(addr) + 1))) << 8U) 
 620:Generated_Source\PSoC6\pdl\drivers/peripheral/syslib/cy_syslib.h ****                                     (((uint32_t) (*((const volatile uint8_t *)(addr) + 2))) << 16U)
 621:Generated_Source\PSoC6\pdl\drivers/peripheral/syslib/cy_syslib.h **** 
ARM GAS  C:\Users\Rolf\AppData\Local\Temp\ccafVfle.s 			page 39


 622:Generated_Source\PSoC6\pdl\drivers/peripheral/syslib/cy_syslib.h **** 
 623:Generated_Source\PSoC6\pdl\drivers/peripheral/syslib/cy_syslib.h **** /*******************************************************************************
 624:Generated_Source\PSoC6\pdl\drivers/peripheral/syslib/cy_syslib.h **** * Macro Name: CY_SET_REG24(addr, value)
 625:Generated_Source\PSoC6\pdl\drivers/peripheral/syslib/cy_syslib.h **** ****************************************************************************//**
 626:Generated_Source\PSoC6\pdl\drivers/peripheral/syslib/cy_syslib.h **** *
 627:Generated_Source\PSoC6\pdl\drivers/peripheral/syslib/cy_syslib.h **** * Writes the 24-bit value to the specified address.
 628:Generated_Source\PSoC6\pdl\drivers/peripheral/syslib/cy_syslib.h **** *
 629:Generated_Source\PSoC6\pdl\drivers/peripheral/syslib/cy_syslib.h **** * \param addr  The register address.
 630:Generated_Source\PSoC6\pdl\drivers/peripheral/syslib/cy_syslib.h **** *
 631:Generated_Source\PSoC6\pdl\drivers/peripheral/syslib/cy_syslib.h **** * \param value The value to write.
 632:Generated_Source\PSoC6\pdl\drivers/peripheral/syslib/cy_syslib.h **** *
 633:Generated_Source\PSoC6\pdl\drivers/peripheral/syslib/cy_syslib.h **** *******************************************************************************/
 634:Generated_Source\PSoC6\pdl\drivers/peripheral/syslib/cy_syslib.h **** #define CY_SET_REG24(addr, value)   do  \
 635:Generated_Source\PSoC6\pdl\drivers/peripheral/syslib/cy_syslib.h ****                                     {   \
 636:Generated_Source\PSoC6\pdl\drivers/peripheral/syslib/cy_syslib.h ****                                         (*((volatile uint8_t *) (addr))) = (uint8_t)(value);       
 637:Generated_Source\PSoC6\pdl\drivers/peripheral/syslib/cy_syslib.h ****                                         (*((volatile uint8_t *) (addr) + 1)) = (uint8_t)((value) >>
 638:Generated_Source\PSoC6\pdl\drivers/peripheral/syslib/cy_syslib.h ****                                         (*((volatile uint8_t *) (addr) + 2)) = (uint8_t)((value) >>
 639:Generated_Source\PSoC6\pdl\drivers/peripheral/syslib/cy_syslib.h ****                                     }   \
 640:Generated_Source\PSoC6\pdl\drivers/peripheral/syslib/cy_syslib.h ****                                     while(0)
 641:Generated_Source\PSoC6\pdl\drivers/peripheral/syslib/cy_syslib.h **** 
 642:Generated_Source\PSoC6\pdl\drivers/peripheral/syslib/cy_syslib.h **** 
 643:Generated_Source\PSoC6\pdl\drivers/peripheral/syslib/cy_syslib.h **** /*******************************************************************************
 644:Generated_Source\PSoC6\pdl\drivers/peripheral/syslib/cy_syslib.h **** * Macro Name: CY_GET_REG32(addr)
 645:Generated_Source\PSoC6\pdl\drivers/peripheral/syslib/cy_syslib.h **** ****************************************************************************//**
 646:Generated_Source\PSoC6\pdl\drivers/peripheral/syslib/cy_syslib.h **** *
 647:Generated_Source\PSoC6\pdl\drivers/peripheral/syslib/cy_syslib.h **** * Reads the 32-bit value from the specified register. The address is the little
 648:Generated_Source\PSoC6\pdl\drivers/peripheral/syslib/cy_syslib.h **** * endian order (LSB in lowest address).
 649:Generated_Source\PSoC6\pdl\drivers/peripheral/syslib/cy_syslib.h **** *
 650:Generated_Source\PSoC6\pdl\drivers/peripheral/syslib/cy_syslib.h **** * \param addr  The register address.
 651:Generated_Source\PSoC6\pdl\drivers/peripheral/syslib/cy_syslib.h **** *
 652:Generated_Source\PSoC6\pdl\drivers/peripheral/syslib/cy_syslib.h **** * \return The read value.
 653:Generated_Source\PSoC6\pdl\drivers/peripheral/syslib/cy_syslib.h **** *
 654:Generated_Source\PSoC6\pdl\drivers/peripheral/syslib/cy_syslib.h **** *******************************************************************************/
 655:Generated_Source\PSoC6\pdl\drivers/peripheral/syslib/cy_syslib.h **** #define CY_GET_REG32(addr)          (*((const volatile uint32_t *)(addr)))
 656:Generated_Source\PSoC6\pdl\drivers/peripheral/syslib/cy_syslib.h **** 
 657:Generated_Source\PSoC6\pdl\drivers/peripheral/syslib/cy_syslib.h **** 
 658:Generated_Source\PSoC6\pdl\drivers/peripheral/syslib/cy_syslib.h **** /*******************************************************************************
 659:Generated_Source\PSoC6\pdl\drivers/peripheral/syslib/cy_syslib.h **** * Macro Name: CY_SET_REG32(addr, value)
 660:Generated_Source\PSoC6\pdl\drivers/peripheral/syslib/cy_syslib.h **** ****************************************************************************//**
 661:Generated_Source\PSoC6\pdl\drivers/peripheral/syslib/cy_syslib.h **** *
 662:Generated_Source\PSoC6\pdl\drivers/peripheral/syslib/cy_syslib.h **** * Writes the 32-bit value to the specified register. The address is the little
 663:Generated_Source\PSoC6\pdl\drivers/peripheral/syslib/cy_syslib.h **** * endian order (LSB in lowest address).
 664:Generated_Source\PSoC6\pdl\drivers/peripheral/syslib/cy_syslib.h **** *
 665:Generated_Source\PSoC6\pdl\drivers/peripheral/syslib/cy_syslib.h **** * \param addr  The register address.
 666:Generated_Source\PSoC6\pdl\drivers/peripheral/syslib/cy_syslib.h **** *
 667:Generated_Source\PSoC6\pdl\drivers/peripheral/syslib/cy_syslib.h **** * \param value The value to write.
 668:Generated_Source\PSoC6\pdl\drivers/peripheral/syslib/cy_syslib.h **** *
 669:Generated_Source\PSoC6\pdl\drivers/peripheral/syslib/cy_syslib.h **** *******************************************************************************/
 670:Generated_Source\PSoC6\pdl\drivers/peripheral/syslib/cy_syslib.h **** #define CY_SET_REG32(addr, value)   (*((volatile uint32_t *)(addr)) = (uint32_t)(value))
 671:Generated_Source\PSoC6\pdl\drivers/peripheral/syslib/cy_syslib.h **** 
 672:Generated_Source\PSoC6\pdl\drivers/peripheral/syslib/cy_syslib.h **** 
 673:Generated_Source\PSoC6\pdl\drivers/peripheral/syslib/cy_syslib.h **** /**
 674:Generated_Source\PSoC6\pdl\drivers/peripheral/syslib/cy_syslib.h **** * \defgroup group_syslib_macros_assert Assert Classes and Levels
 675:Generated_Source\PSoC6\pdl\drivers/peripheral/syslib/cy_syslib.h **** * \{
 676:Generated_Source\PSoC6\pdl\drivers/peripheral/syslib/cy_syslib.h **** * Defines for the Assert Classes and Levels
 677:Generated_Source\PSoC6\pdl\drivers/peripheral/syslib/cy_syslib.h **** */
 678:Generated_Source\PSoC6\pdl\drivers/peripheral/syslib/cy_syslib.h **** 
ARM GAS  C:\Users\Rolf\AppData\Local\Temp\ccafVfle.s 			page 40


 679:Generated_Source\PSoC6\pdl\drivers/peripheral/syslib/cy_syslib.h **** /** 
 680:Generated_Source\PSoC6\pdl\drivers/peripheral/syslib/cy_syslib.h **** * Class 1 - The highest class, safety-critical functions which rely on parameters that could be
 681:Generated_Source\PSoC6\pdl\drivers/peripheral/syslib/cy_syslib.h **** * changed between different PSoC devices
 682:Generated_Source\PSoC6\pdl\drivers/peripheral/syslib/cy_syslib.h **** */
 683:Generated_Source\PSoC6\pdl\drivers/peripheral/syslib/cy_syslib.h **** #define CY_ASSERT_CLASS_1           (1U)
 684:Generated_Source\PSoC6\pdl\drivers/peripheral/syslib/cy_syslib.h **** 
 685:Generated_Source\PSoC6\pdl\drivers/peripheral/syslib/cy_syslib.h **** /** Class 2 - Functions that have fixed limits such as counter periods (16-bits/32-bits etc.) */
 686:Generated_Source\PSoC6\pdl\drivers/peripheral/syslib/cy_syslib.h **** #define CY_ASSERT_CLASS_2           (2U)
 687:Generated_Source\PSoC6\pdl\drivers/peripheral/syslib/cy_syslib.h **** 
 688:Generated_Source\PSoC6\pdl\drivers/peripheral/syslib/cy_syslib.h **** /** Class 3 - Functions that accept enums as constant parameters */
 689:Generated_Source\PSoC6\pdl\drivers/peripheral/syslib/cy_syslib.h **** #define CY_ASSERT_CLASS_3           (3U)
 690:Generated_Source\PSoC6\pdl\drivers/peripheral/syslib/cy_syslib.h **** 
 691:Generated_Source\PSoC6\pdl\drivers/peripheral/syslib/cy_syslib.h **** #ifndef CY_ASSERT_LEVEL
 692:Generated_Source\PSoC6\pdl\drivers/peripheral/syslib/cy_syslib.h ****     /** The user-definable assert level from compiler command-line argument (similarly to DEBUG / N
 693:Generated_Source\PSoC6\pdl\drivers/peripheral/syslib/cy_syslib.h ****     #define CY_ASSERT_LEVEL         CY_ASSERT_CLASS_3
 694:Generated_Source\PSoC6\pdl\drivers/peripheral/syslib/cy_syslib.h **** #endif /* CY_ASSERT_LEVEL */
 695:Generated_Source\PSoC6\pdl\drivers/peripheral/syslib/cy_syslib.h **** 
 696:Generated_Source\PSoC6\pdl\drivers/peripheral/syslib/cy_syslib.h **** #if (CY_ASSERT_LEVEL == CY_ASSERT_CLASS_1)
 697:Generated_Source\PSoC6\pdl\drivers/peripheral/syslib/cy_syslib.h ****     #define CY_ASSERT_L1(x)         CY_ASSERT(x)     /**< Assert Level 1 */
 698:Generated_Source\PSoC6\pdl\drivers/peripheral/syslib/cy_syslib.h ****     #define CY_ASSERT_L2(x)         do{} while(0)    /**< Assert Level 2 */
 699:Generated_Source\PSoC6\pdl\drivers/peripheral/syslib/cy_syslib.h ****     #define CY_ASSERT_L3(x)         do{} while(0)    /**< Assert Level 3 */
 700:Generated_Source\PSoC6\pdl\drivers/peripheral/syslib/cy_syslib.h **** #elif (CY_ASSERT_LEVEL == CY_ASSERT_CLASS_2)
 701:Generated_Source\PSoC6\pdl\drivers/peripheral/syslib/cy_syslib.h ****     #define CY_ASSERT_L1(x)         CY_ASSERT(x)     /**< Assert Level 1 */
 702:Generated_Source\PSoC6\pdl\drivers/peripheral/syslib/cy_syslib.h ****     #define CY_ASSERT_L2(x)         CY_ASSERT(x)     /**< Assert Level 2 */
 703:Generated_Source\PSoC6\pdl\drivers/peripheral/syslib/cy_syslib.h ****     #define CY_ASSERT_L3(x)         do{} while(0)    /**< Assert Level 3 */
 704:Generated_Source\PSoC6\pdl\drivers/peripheral/syslib/cy_syslib.h **** #else /* Default is Level 3 */
 705:Generated_Source\PSoC6\pdl\drivers/peripheral/syslib/cy_syslib.h ****     #define CY_ASSERT_L1(x)         CY_ASSERT(x)     /**< Assert Level 1 */
 706:Generated_Source\PSoC6\pdl\drivers/peripheral/syslib/cy_syslib.h ****     #define CY_ASSERT_L2(x)         CY_ASSERT(x)     /**< Assert Level 2 */
 707:Generated_Source\PSoC6\pdl\drivers/peripheral/syslib/cy_syslib.h ****     #define CY_ASSERT_L3(x)         CY_ASSERT(x)     /**< Assert Level 3 */
 708:Generated_Source\PSoC6\pdl\drivers/peripheral/syslib/cy_syslib.h **** #endif /* CY_ASSERT_LEVEL == CY_ASSERT_CLASS_1 */
 709:Generated_Source\PSoC6\pdl\drivers/peripheral/syslib/cy_syslib.h **** 
 710:Generated_Source\PSoC6\pdl\drivers/peripheral/syslib/cy_syslib.h **** /** \} group_syslib_macros_assert */
 711:Generated_Source\PSoC6\pdl\drivers/peripheral/syslib/cy_syslib.h **** 
 712:Generated_Source\PSoC6\pdl\drivers/peripheral/syslib/cy_syslib.h **** 
 713:Generated_Source\PSoC6\pdl\drivers/peripheral/syslib/cy_syslib.h **** /*******************************************************************************
 714:Generated_Source\PSoC6\pdl\drivers/peripheral/syslib/cy_syslib.h **** * Macro Name: CY_ASSERT
 715:Generated_Source\PSoC6\pdl\drivers/peripheral/syslib/cy_syslib.h **** ****************************************************************************//**
 716:Generated_Source\PSoC6\pdl\drivers/peripheral/syslib/cy_syslib.h **** *
 717:Generated_Source\PSoC6\pdl\drivers/peripheral/syslib/cy_syslib.h **** *  The macro that evaluates the expression and, if it is false (evaluates to 0),
 718:Generated_Source\PSoC6\pdl\drivers/peripheral/syslib/cy_syslib.h **** *  the processor is halted. Cy_SysLib_AssertFailed() is called when the logical
 719:Generated_Source\PSoC6\pdl\drivers/peripheral/syslib/cy_syslib.h **** *  expression is false to store the ASSERT location and halt the processor.
 720:Generated_Source\PSoC6\pdl\drivers/peripheral/syslib/cy_syslib.h **** *
 721:Generated_Source\PSoC6\pdl\drivers/peripheral/syslib/cy_syslib.h **** * \param x  The logical expression. Asserts if false.
 722:Generated_Source\PSoC6\pdl\drivers/peripheral/syslib/cy_syslib.h **** * \note This macro is evaluated unless NDEBUG is not defined.
 723:Generated_Source\PSoC6\pdl\drivers/peripheral/syslib/cy_syslib.h **** *       If NDEBUG is defined, just empty do while cycle is generated for this
 724:Generated_Source\PSoC6\pdl\drivers/peripheral/syslib/cy_syslib.h **** *       macro for the sake of consistency and to avoid MISRA violation.
 725:Generated_Source\PSoC6\pdl\drivers/peripheral/syslib/cy_syslib.h **** *       NDEBUG is defined by default for a Release build setting and not defined
 726:Generated_Source\PSoC6\pdl\drivers/peripheral/syslib/cy_syslib.h **** *       for a Debug build setting.
 727:Generated_Source\PSoC6\pdl\drivers/peripheral/syslib/cy_syslib.h **** *
 728:Generated_Source\PSoC6\pdl\drivers/peripheral/syslib/cy_syslib.h **** *******************************************************************************/
 729:Generated_Source\PSoC6\pdl\drivers/peripheral/syslib/cy_syslib.h **** #if !defined(NDEBUG)
 730:Generated_Source\PSoC6\pdl\drivers/peripheral/syslib/cy_syslib.h ****     #define CY_ASSERT(x)    do  \
 731:Generated_Source\PSoC6\pdl\drivers/peripheral/syslib/cy_syslib.h ****                             {   \
 732:Generated_Source\PSoC6\pdl\drivers/peripheral/syslib/cy_syslib.h ****                                 if(!(x)) \
 733:Generated_Source\PSoC6\pdl\drivers/peripheral/syslib/cy_syslib.h ****                                 { \
 734:Generated_Source\PSoC6\pdl\drivers/peripheral/syslib/cy_syslib.h ****                                     Cy_SysLib_AssertFailed((char_t *) __FILE__, (uint32_t) __LINE__
 735:Generated_Source\PSoC6\pdl\drivers/peripheral/syslib/cy_syslib.h ****                                 } \
ARM GAS  C:\Users\Rolf\AppData\Local\Temp\ccafVfle.s 			page 41


 736:Generated_Source\PSoC6\pdl\drivers/peripheral/syslib/cy_syslib.h ****                             } while(0)
 737:Generated_Source\PSoC6\pdl\drivers/peripheral/syslib/cy_syslib.h **** #else
 738:Generated_Source\PSoC6\pdl\drivers/peripheral/syslib/cy_syslib.h ****     #define CY_ASSERT(x)    do  \
 739:Generated_Source\PSoC6\pdl\drivers/peripheral/syslib/cy_syslib.h ****                             {   \
 740:Generated_Source\PSoC6\pdl\drivers/peripheral/syslib/cy_syslib.h ****                             } while(0)
 741:Generated_Source\PSoC6\pdl\drivers/peripheral/syslib/cy_syslib.h **** #endif  /* !defined(NDEBUG) */
 742:Generated_Source\PSoC6\pdl\drivers/peripheral/syslib/cy_syslib.h **** 
 743:Generated_Source\PSoC6\pdl\drivers/peripheral/syslib/cy_syslib.h **** 
 744:Generated_Source\PSoC6\pdl\drivers/peripheral/syslib/cy_syslib.h **** /*******************************************************************************
 745:Generated_Source\PSoC6\pdl\drivers/peripheral/syslib/cy_syslib.h **** * Macro Name: _CLR_SET_FLD32U
 746:Generated_Source\PSoC6\pdl\drivers/peripheral/syslib/cy_syslib.h **** ****************************************************************************//**
 747:Generated_Source\PSoC6\pdl\drivers/peripheral/syslib/cy_syslib.h **** *
 748:Generated_Source\PSoC6\pdl\drivers/peripheral/syslib/cy_syslib.h **** *  The macro for setting a register with a name field and value for providing
 749:Generated_Source\PSoC6\pdl\drivers/peripheral/syslib/cy_syslib.h **** *  get-clear-modify-write operations.
 750:Generated_Source\PSoC6\pdl\drivers/peripheral/syslib/cy_syslib.h **** *  Returns a resulting value to be assigned to the register.
 751:Generated_Source\PSoC6\pdl\drivers/peripheral/syslib/cy_syslib.h **** *
 752:Generated_Source\PSoC6\pdl\drivers/peripheral/syslib/cy_syslib.h **** *******************************************************************************/
 753:Generated_Source\PSoC6\pdl\drivers/peripheral/syslib/cy_syslib.h **** #define _CLR_SET_FLD32U(reg, field, value) (((reg) & ((uint32_t)(~(field ## _Msk)))) | (_VAL2FLD(fi
 754:Generated_Source\PSoC6\pdl\drivers/peripheral/syslib/cy_syslib.h **** 
 755:Generated_Source\PSoC6\pdl\drivers/peripheral/syslib/cy_syslib.h **** 
 756:Generated_Source\PSoC6\pdl\drivers/peripheral/syslib/cy_syslib.h **** /*******************************************************************************
 757:Generated_Source\PSoC6\pdl\drivers/peripheral/syslib/cy_syslib.h **** * Macro Name: CY_REG32_CLR_SET
 758:Generated_Source\PSoC6\pdl\drivers/peripheral/syslib/cy_syslib.h **** ****************************************************************************//**
 759:Generated_Source\PSoC6\pdl\drivers/peripheral/syslib/cy_syslib.h **** *
 760:Generated_Source\PSoC6\pdl\drivers/peripheral/syslib/cy_syslib.h **** *  Uses _CLR_SET_FLD32U macro for providing get-clear-modify-write 
 761:Generated_Source\PSoC6\pdl\drivers/peripheral/syslib/cy_syslib.h **** *  operations with a name field and value and writes a resulting value 
 762:Generated_Source\PSoC6\pdl\drivers/peripheral/syslib/cy_syslib.h **** *  to the 32-bit register.
 763:Generated_Source\PSoC6\pdl\drivers/peripheral/syslib/cy_syslib.h **** *
 764:Generated_Source\PSoC6\pdl\drivers/peripheral/syslib/cy_syslib.h **** *******************************************************************************/
 765:Generated_Source\PSoC6\pdl\drivers/peripheral/syslib/cy_syslib.h **** #define CY_REG32_CLR_SET(reg, field, value) ((reg) = _CLR_SET_FLD32U((reg), field, (value)))
 766:Generated_Source\PSoC6\pdl\drivers/peripheral/syslib/cy_syslib.h **** 
 767:Generated_Source\PSoC6\pdl\drivers/peripheral/syslib/cy_syslib.h **** 
 768:Generated_Source\PSoC6\pdl\drivers/peripheral/syslib/cy_syslib.h **** /*******************************************************************************
 769:Generated_Source\PSoC6\pdl\drivers/peripheral/syslib/cy_syslib.h **** * Macro Name: _CLR_SET_FLD16U
 770:Generated_Source\PSoC6\pdl\drivers/peripheral/syslib/cy_syslib.h **** ****************************************************************************//**
 771:Generated_Source\PSoC6\pdl\drivers/peripheral/syslib/cy_syslib.h **** *
 772:Generated_Source\PSoC6\pdl\drivers/peripheral/syslib/cy_syslib.h **** *  The macro for setting a 16-bit register with a name field and value for providing
 773:Generated_Source\PSoC6\pdl\drivers/peripheral/syslib/cy_syslib.h **** *  get-clear-modify-write operations.
 774:Generated_Source\PSoC6\pdl\drivers/peripheral/syslib/cy_syslib.h **** *  Returns a resulting value to be assigned to the 16-bit register.
 775:Generated_Source\PSoC6\pdl\drivers/peripheral/syslib/cy_syslib.h **** *
 776:Generated_Source\PSoC6\pdl\drivers/peripheral/syslib/cy_syslib.h **** *******************************************************************************/
 777:Generated_Source\PSoC6\pdl\drivers/peripheral/syslib/cy_syslib.h **** #define _CLR_SET_FLD16U(reg, field, value) ((uint16_t)(((reg) & ((uint16_t)(~(field ## _Msk)))) |  
 778:Generated_Source\PSoC6\pdl\drivers/peripheral/syslib/cy_syslib.h ****                                                        ((uint16_t)_VAL2FLD(field, value))))
 779:Generated_Source\PSoC6\pdl\drivers/peripheral/syslib/cy_syslib.h ****                                                        
 780:Generated_Source\PSoC6\pdl\drivers/peripheral/syslib/cy_syslib.h ****                                                        
 781:Generated_Source\PSoC6\pdl\drivers/peripheral/syslib/cy_syslib.h **** /*******************************************************************************
 782:Generated_Source\PSoC6\pdl\drivers/peripheral/syslib/cy_syslib.h **** * Macro Name: CY_REG16_CLR_SET
 783:Generated_Source\PSoC6\pdl\drivers/peripheral/syslib/cy_syslib.h **** ****************************************************************************//**
 784:Generated_Source\PSoC6\pdl\drivers/peripheral/syslib/cy_syslib.h **** *
 785:Generated_Source\PSoC6\pdl\drivers/peripheral/syslib/cy_syslib.h **** *  Uses _CLR_SET_FLD16U macro for providing get-clear-modify-write 
 786:Generated_Source\PSoC6\pdl\drivers/peripheral/syslib/cy_syslib.h **** *  operations with a name field and value and writes a resulting value 
 787:Generated_Source\PSoC6\pdl\drivers/peripheral/syslib/cy_syslib.h **** *  to the 16-bit register.
 788:Generated_Source\PSoC6\pdl\drivers/peripheral/syslib/cy_syslib.h **** *
 789:Generated_Source\PSoC6\pdl\drivers/peripheral/syslib/cy_syslib.h **** *******************************************************************************/
 790:Generated_Source\PSoC6\pdl\drivers/peripheral/syslib/cy_syslib.h **** #define CY_REG16_CLR_SET(reg, field, value) ((reg) = _CLR_SET_FLD16U((reg), field, (value)))
 791:Generated_Source\PSoC6\pdl\drivers/peripheral/syslib/cy_syslib.h **** 
 792:Generated_Source\PSoC6\pdl\drivers/peripheral/syslib/cy_syslib.h **** 
ARM GAS  C:\Users\Rolf\AppData\Local\Temp\ccafVfle.s 			page 42


 793:Generated_Source\PSoC6\pdl\drivers/peripheral/syslib/cy_syslib.h **** /*******************************************************************************
 794:Generated_Source\PSoC6\pdl\drivers/peripheral/syslib/cy_syslib.h **** * Macro Name: _CLR_SET_FLD8U
 795:Generated_Source\PSoC6\pdl\drivers/peripheral/syslib/cy_syslib.h **** ****************************************************************************//**
 796:Generated_Source\PSoC6\pdl\drivers/peripheral/syslib/cy_syslib.h **** *
 797:Generated_Source\PSoC6\pdl\drivers/peripheral/syslib/cy_syslib.h **** *  The macro for setting a 8-bit register with a name field and value for providing
 798:Generated_Source\PSoC6\pdl\drivers/peripheral/syslib/cy_syslib.h **** *  get-clear-modify-write operations.
 799:Generated_Source\PSoC6\pdl\drivers/peripheral/syslib/cy_syslib.h **** *  Returns a resulting value to be assigned to the 8-bit register.
 800:Generated_Source\PSoC6\pdl\drivers/peripheral/syslib/cy_syslib.h **** *
 801:Generated_Source\PSoC6\pdl\drivers/peripheral/syslib/cy_syslib.h **** *******************************************************************************/
 802:Generated_Source\PSoC6\pdl\drivers/peripheral/syslib/cy_syslib.h **** #define _CLR_SET_FLD8U(reg, field, value) ((uint8_t)(((reg) & ((uint8_t)(~(field ## _Msk)))) |  \
 803:Generated_Source\PSoC6\pdl\drivers/peripheral/syslib/cy_syslib.h ****                                                      ((uint8_t)_VAL2FLD(field, value))))
 804:Generated_Source\PSoC6\pdl\drivers/peripheral/syslib/cy_syslib.h ****                                                      
 805:Generated_Source\PSoC6\pdl\drivers/peripheral/syslib/cy_syslib.h ****                                                      
 806:Generated_Source\PSoC6\pdl\drivers/peripheral/syslib/cy_syslib.h **** /*******************************************************************************
 807:Generated_Source\PSoC6\pdl\drivers/peripheral/syslib/cy_syslib.h **** * Macro Name: CY_REG8_CLR_SET
 808:Generated_Source\PSoC6\pdl\drivers/peripheral/syslib/cy_syslib.h **** ****************************************************************************//**
 809:Generated_Source\PSoC6\pdl\drivers/peripheral/syslib/cy_syslib.h **** *
 810:Generated_Source\PSoC6\pdl\drivers/peripheral/syslib/cy_syslib.h **** *  Uses _CLR_SET_FLD8U macro for providing get-clear-modify-write 
 811:Generated_Source\PSoC6\pdl\drivers/peripheral/syslib/cy_syslib.h **** *  operations with a name field and value and writes a resulting value 
 812:Generated_Source\PSoC6\pdl\drivers/peripheral/syslib/cy_syslib.h **** *  to the 8-bit register.
 813:Generated_Source\PSoC6\pdl\drivers/peripheral/syslib/cy_syslib.h **** *
 814:Generated_Source\PSoC6\pdl\drivers/peripheral/syslib/cy_syslib.h **** *******************************************************************************/
 815:Generated_Source\PSoC6\pdl\drivers/peripheral/syslib/cy_syslib.h **** #define CY_REG8_CLR_SET(reg, field, value) ((reg) = _CLR_SET_FLD8U((reg), field, (value)))
 816:Generated_Source\PSoC6\pdl\drivers/peripheral/syslib/cy_syslib.h **** 
 817:Generated_Source\PSoC6\pdl\drivers/peripheral/syslib/cy_syslib.h **** 
 818:Generated_Source\PSoC6\pdl\drivers/peripheral/syslib/cy_syslib.h **** /*******************************************************************************
 819:Generated_Source\PSoC6\pdl\drivers/peripheral/syslib/cy_syslib.h **** * Macro Name: _BOOL2FLD
 820:Generated_Source\PSoC6\pdl\drivers/peripheral/syslib/cy_syslib.h **** ****************************************************************************//**
 821:Generated_Source\PSoC6\pdl\drivers/peripheral/syslib/cy_syslib.h **** *
 822:Generated_Source\PSoC6\pdl\drivers/peripheral/syslib/cy_syslib.h **** *  Returns a field mask if the value is not false.
 823:Generated_Source\PSoC6\pdl\drivers/peripheral/syslib/cy_syslib.h **** *  Returns 0, if the value is false.
 824:Generated_Source\PSoC6\pdl\drivers/peripheral/syslib/cy_syslib.h **** *
 825:Generated_Source\PSoC6\pdl\drivers/peripheral/syslib/cy_syslib.h **** *******************************************************************************/
 826:Generated_Source\PSoC6\pdl\drivers/peripheral/syslib/cy_syslib.h **** #define _BOOL2FLD(field, value) (((value) != false) ? (field ## _Msk) : 0UL)
 827:Generated_Source\PSoC6\pdl\drivers/peripheral/syslib/cy_syslib.h **** 
 828:Generated_Source\PSoC6\pdl\drivers/peripheral/syslib/cy_syslib.h **** 
 829:Generated_Source\PSoC6\pdl\drivers/peripheral/syslib/cy_syslib.h **** /*******************************************************************************
 830:Generated_Source\PSoC6\pdl\drivers/peripheral/syslib/cy_syslib.h **** * Macro Name: _FLD2BOOL
 831:Generated_Source\PSoC6\pdl\drivers/peripheral/syslib/cy_syslib.h **** ****************************************************************************//**
 832:Generated_Source\PSoC6\pdl\drivers/peripheral/syslib/cy_syslib.h **** *
 833:Generated_Source\PSoC6\pdl\drivers/peripheral/syslib/cy_syslib.h **** *  Returns true, if the value includes the field mask.
 834:Generated_Source\PSoC6\pdl\drivers/peripheral/syslib/cy_syslib.h **** *  Returns false, if the value doesn't include the field mask.
 835:Generated_Source\PSoC6\pdl\drivers/peripheral/syslib/cy_syslib.h **** *
 836:Generated_Source\PSoC6\pdl\drivers/peripheral/syslib/cy_syslib.h **** *******************************************************************************/
 837:Generated_Source\PSoC6\pdl\drivers/peripheral/syslib/cy_syslib.h **** #define _FLD2BOOL(field, value) (((value) & (field ## _Msk)) != 0UL)
 838:Generated_Source\PSoC6\pdl\drivers/peripheral/syslib/cy_syslib.h **** 
 839:Generated_Source\PSoC6\pdl\drivers/peripheral/syslib/cy_syslib.h **** 
 840:Generated_Source\PSoC6\pdl\drivers/peripheral/syslib/cy_syslib.h **** /******************************************************************************
 841:Generated_Source\PSoC6\pdl\drivers/peripheral/syslib/cy_syslib.h **** * Constants
 842:Generated_Source\PSoC6\pdl\drivers/peripheral/syslib/cy_syslib.h **** *****************************************************************************/
 843:Generated_Source\PSoC6\pdl\drivers/peripheral/syslib/cy_syslib.h **** /** Defines a 32-kHz clock delay */
 844:Generated_Source\PSoC6\pdl\drivers/peripheral/syslib/cy_syslib.h **** #define CY_DELAY_MS_OVERFLOW            (0x8000U)
 845:Generated_Source\PSoC6\pdl\drivers/peripheral/syslib/cy_syslib.h **** 
 846:Generated_Source\PSoC6\pdl\drivers/peripheral/syslib/cy_syslib.h **** /**
 847:Generated_Source\PSoC6\pdl\drivers/peripheral/syslib/cy_syslib.h **** * \defgroup group_syslib_macros_reset_cause Reset cause
 848:Generated_Source\PSoC6\pdl\drivers/peripheral/syslib/cy_syslib.h **** * \{
 849:Generated_Source\PSoC6\pdl\drivers/peripheral/syslib/cy_syslib.h **** * Define RESET_CAUSE mask values
ARM GAS  C:\Users\Rolf\AppData\Local\Temp\ccafVfle.s 			page 43


 850:Generated_Source\PSoC6\pdl\drivers/peripheral/syslib/cy_syslib.h **** */
 851:Generated_Source\PSoC6\pdl\drivers/peripheral/syslib/cy_syslib.h **** /** A basic WatchDog Timer (WDT) reset has occurred since the last power cycle. */
 852:Generated_Source\PSoC6\pdl\drivers/peripheral/syslib/cy_syslib.h **** #define CY_SYSLIB_RESET_HWWDT           (0x0001U)
 853:Generated_Source\PSoC6\pdl\drivers/peripheral/syslib/cy_syslib.h **** /** The fault logging system requested a reset from its Active logic. */
 854:Generated_Source\PSoC6\pdl\drivers/peripheral/syslib/cy_syslib.h **** #define CY_SYSLIB_RESET_ACT_FAULT       (0x0002U)
 855:Generated_Source\PSoC6\pdl\drivers/peripheral/syslib/cy_syslib.h **** /** The fault logging system requested a reset from its Deep-Sleep logic. */
 856:Generated_Source\PSoC6\pdl\drivers/peripheral/syslib/cy_syslib.h **** #define CY_SYSLIB_RESET_DPSLP_FAULT     (0x0004U)
 857:Generated_Source\PSoC6\pdl\drivers/peripheral/syslib/cy_syslib.h **** /** The CPU requested a system reset through it's SYSRESETREQ. This can be done via a debugger prob
 858:Generated_Source\PSoC6\pdl\drivers/peripheral/syslib/cy_syslib.h **** #define CY_SYSLIB_RESET_SOFT            (0x0010U)
 859:Generated_Source\PSoC6\pdl\drivers/peripheral/syslib/cy_syslib.h **** /** The Multi-Counter Watchdog timer #0 reset has occurred since the last power cycle. */
 860:Generated_Source\PSoC6\pdl\drivers/peripheral/syslib/cy_syslib.h **** #define CY_SYSLIB_RESET_SWWDT0          (0x0020U)
 861:Generated_Source\PSoC6\pdl\drivers/peripheral/syslib/cy_syslib.h **** /** The Multi-Counter Watchdog timer #1 reset has occurred since the last power cycle. */
 862:Generated_Source\PSoC6\pdl\drivers/peripheral/syslib/cy_syslib.h **** #define CY_SYSLIB_RESET_SWWDT1          (0x0040U)
 863:Generated_Source\PSoC6\pdl\drivers/peripheral/syslib/cy_syslib.h **** /** The Multi-Counter Watchdog timer #2 reset has occurred since the last power cycle. */
 864:Generated_Source\PSoC6\pdl\drivers/peripheral/syslib/cy_syslib.h **** #define CY_SYSLIB_RESET_SWWDT2          (0x0080U)
 865:Generated_Source\PSoC6\pdl\drivers/peripheral/syslib/cy_syslib.h **** /** The Multi-Counter Watchdog timer #3 reset has occurred since the last power cycle. */
 866:Generated_Source\PSoC6\pdl\drivers/peripheral/syslib/cy_syslib.h **** #define CY_SYSLIB_RESET_SWWDT3          (0x0100U)
 867:Generated_Source\PSoC6\pdl\drivers/peripheral/syslib/cy_syslib.h **** /** The reset has occurred on a wakeup from Hibernate power mode. */
 868:Generated_Source\PSoC6\pdl\drivers/peripheral/syslib/cy_syslib.h **** #define CY_SYSLIB_RESET_HIB_WAKEUP      (0x40000UL)
 869:Generated_Source\PSoC6\pdl\drivers/peripheral/syslib/cy_syslib.h **** 
 870:Generated_Source\PSoC6\pdl\drivers/peripheral/syslib/cy_syslib.h **** /** \} group_syslib_macros_reset_cause */
 871:Generated_Source\PSoC6\pdl\drivers/peripheral/syslib/cy_syslib.h **** 
 872:Generated_Source\PSoC6\pdl\drivers/peripheral/syslib/cy_syslib.h **** /** Bit[31:24] Opcode = 0x1B (SoftReset)
 873:Generated_Source\PSoC6\pdl\drivers/peripheral/syslib/cy_syslib.h ****  *  Bit[7:1]   Type   = 1    (Only CM4 reset)
 874:Generated_Source\PSoC6\pdl\drivers/peripheral/syslib/cy_syslib.h ****  */
 875:Generated_Source\PSoC6\pdl\drivers/peripheral/syslib/cy_syslib.h **** #define CY_IPC_DATA_FOR_CM4_SOFT_RESET  (0x1B000002UL)
 876:Generated_Source\PSoC6\pdl\drivers/peripheral/syslib/cy_syslib.h **** 
 877:Generated_Source\PSoC6\pdl\drivers/peripheral/syslib/cy_syslib.h **** /**
 878:Generated_Source\PSoC6\pdl\drivers/peripheral/syslib/cy_syslib.h **** * \defgroup group_syslib_macros_unique_id Unique ID
 879:Generated_Source\PSoC6\pdl\drivers/peripheral/syslib/cy_syslib.h **** * \{
 880:Generated_Source\PSoC6\pdl\drivers/peripheral/syslib/cy_syslib.h **** * Unique ID fields positions
 881:Generated_Source\PSoC6\pdl\drivers/peripheral/syslib/cy_syslib.h **** */
 882:Generated_Source\PSoC6\pdl\drivers/peripheral/syslib/cy_syslib.h **** #define CY_UNIQUE_ID_DIE_YEAR_Pos       (57U)    /**< The position of the DIE_YEAR  field in the si
 883:Generated_Source\PSoC6\pdl\drivers/peripheral/syslib/cy_syslib.h **** #define CY_UNIQUE_ID_DIE_MINOR_Pos      (56U)    /**< The position of the DIE_MINOR field in the si
 884:Generated_Source\PSoC6\pdl\drivers/peripheral/syslib/cy_syslib.h **** #define CY_UNIQUE_ID_DIE_SORT_Pos       (48U)    /**< The position of the DIE_SORT  field in the si
 885:Generated_Source\PSoC6\pdl\drivers/peripheral/syslib/cy_syslib.h **** #define CY_UNIQUE_ID_DIE_Y_Pos          (40U)    /**< The position of the DIE_Y     field in the si
 886:Generated_Source\PSoC6\pdl\drivers/peripheral/syslib/cy_syslib.h **** #define CY_UNIQUE_ID_DIE_X_Pos          (32U)    /**< The position of the DIE_X     field in the si
 887:Generated_Source\PSoC6\pdl\drivers/peripheral/syslib/cy_syslib.h **** #define CY_UNIQUE_ID_DIE_WAFER_Pos      (24U)    /**< The position of the DIE_WAFER field in the si
 888:Generated_Source\PSoC6\pdl\drivers/peripheral/syslib/cy_syslib.h **** #define CY_UNIQUE_ID_DIE_LOT_2_Pos      (16U)    /**< The position of the DIE_LOT_2 field in the si
 889:Generated_Source\PSoC6\pdl\drivers/peripheral/syslib/cy_syslib.h **** #define CY_UNIQUE_ID_DIE_LOT_1_Pos      (8U)     /**< The position of the DIE_LOT_1 field in the si
 890:Generated_Source\PSoC6\pdl\drivers/peripheral/syslib/cy_syslib.h **** #define CY_UNIQUE_ID_DIE_LOT_0_Pos      (0U)     /**< The position of the DIE_LOT_0 field in the si
 891:Generated_Source\PSoC6\pdl\drivers/peripheral/syslib/cy_syslib.h **** 
 892:Generated_Source\PSoC6\pdl\drivers/peripheral/syslib/cy_syslib.h **** /** \} group_syslib_macros_unique_id */
 893:Generated_Source\PSoC6\pdl\drivers/peripheral/syslib/cy_syslib.h **** 
 894:Generated_Source\PSoC6\pdl\drivers/peripheral/syslib/cy_syslib.h **** /** \} group_syslib_macros */
 895:Generated_Source\PSoC6\pdl\drivers/peripheral/syslib/cy_syslib.h **** 
 896:Generated_Source\PSoC6\pdl\drivers/peripheral/syslib/cy_syslib.h **** /******************************************************************************
 897:Generated_Source\PSoC6\pdl\drivers/peripheral/syslib/cy_syslib.h **** * Function prototypes
 898:Generated_Source\PSoC6\pdl\drivers/peripheral/syslib/cy_syslib.h **** ******************************************************************************/
 899:Generated_Source\PSoC6\pdl\drivers/peripheral/syslib/cy_syslib.h **** 
 900:Generated_Source\PSoC6\pdl\drivers/peripheral/syslib/cy_syslib.h **** /**
 901:Generated_Source\PSoC6\pdl\drivers/peripheral/syslib/cy_syslib.h **** * \addtogroup group_syslib_functions
 902:Generated_Source\PSoC6\pdl\drivers/peripheral/syslib/cy_syslib.h **** * \{
 903:Generated_Source\PSoC6\pdl\drivers/peripheral/syslib/cy_syslib.h **** */
 904:Generated_Source\PSoC6\pdl\drivers/peripheral/syslib/cy_syslib.h **** 
 905:Generated_Source\PSoC6\pdl\drivers/peripheral/syslib/cy_syslib.h **** void Cy_SysLib_Delay(uint32_t milliseconds);
 906:Generated_Source\PSoC6\pdl\drivers/peripheral/syslib/cy_syslib.h **** void Cy_SysLib_DelayUs(uint16_t microseconds);
ARM GAS  C:\Users\Rolf\AppData\Local\Temp\ccafVfle.s 			page 44


 907:Generated_Source\PSoC6\pdl\drivers/peripheral/syslib/cy_syslib.h **** /** Delays for the specified number of cycles.
 908:Generated_Source\PSoC6\pdl\drivers/peripheral/syslib/cy_syslib.h ****  *  The function is implemented in the assembler for each supported compiler.
 909:Generated_Source\PSoC6\pdl\drivers/peripheral/syslib/cy_syslib.h ****  *  \param cycles  The number of cycles to delay.
 910:Generated_Source\PSoC6\pdl\drivers/peripheral/syslib/cy_syslib.h ****  */
 911:Generated_Source\PSoC6\pdl\drivers/peripheral/syslib/cy_syslib.h **** void Cy_SysLib_DelayCycles(uint32_t cycles);
 912:Generated_Source\PSoC6\pdl\drivers/peripheral/syslib/cy_syslib.h **** __NO_RETURN void Cy_SysLib_Halt(uint32_t reason);
 913:Generated_Source\PSoC6\pdl\drivers/peripheral/syslib/cy_syslib.h **** #if !defined(NDEBUG) || defined(CY_DOXYGEN)
 914:Generated_Source\PSoC6\pdl\drivers/peripheral/syslib/cy_syslib.h ****     void Cy_SysLib_AssertFailed(const char_t * file, uint32_t line);
 915:Generated_Source\PSoC6\pdl\drivers/peripheral/syslib/cy_syslib.h **** #endif  /* !defined(NDEBUG) || defined(CY_DOXYGEN) */
 916:Generated_Source\PSoC6\pdl\drivers/peripheral/syslib/cy_syslib.h **** void Cy_SysLib_ClearFlashCacheAndBuffer(void);
 917:Generated_Source\PSoC6\pdl\drivers/peripheral/syslib/cy_syslib.h **** cy_en_syslib_status_t Cy_SysLib_ResetBackupDomain(void);
 918:Generated_Source\PSoC6\pdl\drivers/peripheral/syslib/cy_syslib.h **** uint32_t Cy_SysLib_GetResetReason(void);
 919:Generated_Source\PSoC6\pdl\drivers/peripheral/syslib/cy_syslib.h **** void Cy_SysLib_ClearResetReason(void);
 920:Generated_Source\PSoC6\pdl\drivers/peripheral/syslib/cy_syslib.h **** uint64_t Cy_SysLib_GetUniqueId(void);
 921:Generated_Source\PSoC6\pdl\drivers/peripheral/syslib/cy_syslib.h **** #if (CY_CPU_CORTEX_M0P)
 922:Generated_Source\PSoC6\pdl\drivers/peripheral/syslib/cy_syslib.h ****     void Cy_SysLib_SoftResetCM4(void);
 923:Generated_Source\PSoC6\pdl\drivers/peripheral/syslib/cy_syslib.h **** #endif /* CY_CPU_CORTEX_M0P */
 924:Generated_Source\PSoC6\pdl\drivers/peripheral/syslib/cy_syslib.h **** #if (CY_ARM_FAULT_DEBUG == CY_ARM_FAULT_DEBUG_ENABLED) || defined(CY_DOXYGEN)
 925:Generated_Source\PSoC6\pdl\drivers/peripheral/syslib/cy_syslib.h ****     void Cy_SysLib_FaultHandler(uint32_t const *faultStackAddr);
 926:Generated_Source\PSoC6\pdl\drivers/peripheral/syslib/cy_syslib.h ****     void Cy_SysLib_ProcessingFault(void);
 927:Generated_Source\PSoC6\pdl\drivers/peripheral/syslib/cy_syslib.h **** #endif /* (CY_ARM_FAULT_DEBUG == CY_ARM_FAULT_DEBUG_ENABLED) */
 928:Generated_Source\PSoC6\pdl\drivers/peripheral/syslib/cy_syslib.h **** void Cy_SysLib_SetWaitStates(bool ulpMode, uint32_t clkHfMHz);
 929:Generated_Source\PSoC6\pdl\drivers/peripheral/syslib/cy_syslib.h **** 
 930:Generated_Source\PSoC6\pdl\drivers/peripheral/syslib/cy_syslib.h **** 
 931:Generated_Source\PSoC6\pdl\drivers/peripheral/syslib/cy_syslib.h **** /*******************************************************************************
 932:Generated_Source\PSoC6\pdl\drivers/peripheral/syslib/cy_syslib.h **** * Function Name: Cy_SysLib_EnterCriticalSection
 933:Generated_Source\PSoC6\pdl\drivers/peripheral/syslib/cy_syslib.h **** ****************************************************************************//**
 934:Generated_Source\PSoC6\pdl\drivers/peripheral/syslib/cy_syslib.h **** *
 935:Generated_Source\PSoC6\pdl\drivers/peripheral/syslib/cy_syslib.h **** *  Cy_SysLib_EnterCriticalSection disables interrupts and returns a value
 936:Generated_Source\PSoC6\pdl\drivers/peripheral/syslib/cy_syslib.h **** *  indicating whether the interrupts were previously enabled.
 937:Generated_Source\PSoC6\pdl\drivers/peripheral/syslib/cy_syslib.h **** *
 938:Generated_Source\PSoC6\pdl\drivers/peripheral/syslib/cy_syslib.h **** *  \return Returns the current interrupt status. Returns 0 if the interrupts
 939:Generated_Source\PSoC6\pdl\drivers/peripheral/syslib/cy_syslib.h **** *          were previously enabled or 1 if the interrupts were previously
 940:Generated_Source\PSoC6\pdl\drivers/peripheral/syslib/cy_syslib.h **** *          disabled.
 941:Generated_Source\PSoC6\pdl\drivers/peripheral/syslib/cy_syslib.h **** *
 942:Generated_Source\PSoC6\pdl\drivers/peripheral/syslib/cy_syslib.h **** *  \note Implementation of Cy_SysLib_EnterCriticalSection manipulates the IRQ
 943:Generated_Source\PSoC6\pdl\drivers/peripheral/syslib/cy_syslib.h **** *        enable bit with interrupts still enabled.
 944:Generated_Source\PSoC6\pdl\drivers/peripheral/syslib/cy_syslib.h **** *
 945:Generated_Source\PSoC6\pdl\drivers/peripheral/syslib/cy_syslib.h **** *******************************************************************************/
 946:Generated_Source\PSoC6\pdl\drivers/peripheral/syslib/cy_syslib.h **** uint32_t Cy_SysLib_EnterCriticalSection(void);
 947:Generated_Source\PSoC6\pdl\drivers/peripheral/syslib/cy_syslib.h **** 
 948:Generated_Source\PSoC6\pdl\drivers/peripheral/syslib/cy_syslib.h **** 
 949:Generated_Source\PSoC6\pdl\drivers/peripheral/syslib/cy_syslib.h **** /*******************************************************************************
 950:Generated_Source\PSoC6\pdl\drivers/peripheral/syslib/cy_syslib.h **** * Function Name: Cy_SysLib_ExitCriticalSection
 951:Generated_Source\PSoC6\pdl\drivers/peripheral/syslib/cy_syslib.h **** ****************************************************************************//**
 952:Generated_Source\PSoC6\pdl\drivers/peripheral/syslib/cy_syslib.h **** *
 953:Generated_Source\PSoC6\pdl\drivers/peripheral/syslib/cy_syslib.h **** *  Re-enables the interrupts if they were enabled before
 954:Generated_Source\PSoC6\pdl\drivers/peripheral/syslib/cy_syslib.h **** *  Cy_SysLib_EnterCriticalSection() was called. The argument should be the value
 955:Generated_Source\PSoC6\pdl\drivers/peripheral/syslib/cy_syslib.h **** *  returned from \ref Cy_SysLib_EnterCriticalSection().
 956:Generated_Source\PSoC6\pdl\drivers/peripheral/syslib/cy_syslib.h **** *
 957:Generated_Source\PSoC6\pdl\drivers/peripheral/syslib/cy_syslib.h **** *  \param savedIntrStatus  Puts the saved interrupts status returned by
 958:Generated_Source\PSoC6\pdl\drivers/peripheral/syslib/cy_syslib.h **** *                          the \ref Cy_SysLib_EnterCriticalSection().
 959:Generated_Source\PSoC6\pdl\drivers/peripheral/syslib/cy_syslib.h **** *
 960:Generated_Source\PSoC6\pdl\drivers/peripheral/syslib/cy_syslib.h **** *******************************************************************************/
 961:Generated_Source\PSoC6\pdl\drivers/peripheral/syslib/cy_syslib.h **** void Cy_SysLib_ExitCriticalSection(uint32_t savedIntrStatus);
 962:Generated_Source\PSoC6\pdl\drivers/peripheral/syslib/cy_syslib.h **** 
 963:Generated_Source\PSoC6\pdl\drivers/peripheral/syslib/cy_syslib.h **** 
ARM GAS  C:\Users\Rolf\AppData\Local\Temp\ccafVfle.s 			page 45


 964:Generated_Source\PSoC6\pdl\drivers/peripheral/syslib/cy_syslib.h **** /** \cond INTERNAL */
 965:Generated_Source\PSoC6\pdl\drivers/peripheral/syslib/cy_syslib.h **** #define CY_SYSLIB_DEVICE_REV_0A       (0x21U)  /**< The device TO *A Revision ID */
 966:Generated_Source\PSoC6\pdl\drivers/peripheral/syslib/cy_syslib.h **** #define CY_SYSLIB_DEVICE_PSOC6ABLE2   (0x100U) /**< The PSoC6 BLE2 device Family ID */
 967:Generated_Source\PSoC6\pdl\drivers/peripheral/syslib/cy_syslib.h **** 
 968:Generated_Source\PSoC6\pdl\drivers/peripheral/syslib/cy_syslib.h **** 
 969:Generated_Source\PSoC6\pdl\drivers/peripheral/syslib/cy_syslib.h **** /*******************************************************************************
 970:Generated_Source\PSoC6\pdl\drivers/peripheral/syslib/cy_syslib.h **** * Function Name: Cy_SysLib_GetDeviceRevision
 971:Generated_Source\PSoC6\pdl\drivers/peripheral/syslib/cy_syslib.h **** ****************************************************************************//**
 972:Generated_Source\PSoC6\pdl\drivers/peripheral/syslib/cy_syslib.h **** *
 973:Generated_Source\PSoC6\pdl\drivers/peripheral/syslib/cy_syslib.h **** * This function returns a device Revision ID.
 974:Generated_Source\PSoC6\pdl\drivers/peripheral/syslib/cy_syslib.h **** *
 975:Generated_Source\PSoC6\pdl\drivers/peripheral/syslib/cy_syslib.h **** * \return  A device Revision ID.
 976:Generated_Source\PSoC6\pdl\drivers/peripheral/syslib/cy_syslib.h **** *
 977:Generated_Source\PSoC6\pdl\drivers/peripheral/syslib/cy_syslib.h **** *******************************************************************************/
 978:Generated_Source\PSoC6\pdl\drivers/peripheral/syslib/cy_syslib.h **** __STATIC_INLINE uint8_t Cy_SysLib_GetDeviceRevision(void)
 979:Generated_Source\PSoC6\pdl\drivers/peripheral/syslib/cy_syslib.h **** {
 980:Generated_Source\PSoC6\pdl\drivers/peripheral/syslib/cy_syslib.h ****     return ((SFLASH_SI_REVISION_ID == 0UL) ? CY_SYSLIB_DEVICE_REV_0A : SFLASH_SI_REVISION_ID);
 503              		.loc 3 980 0
 504 0054 B023     		movs	r3, #176
 505 0056 5B05     		lsls	r3, r3, #21
 506 0058 5B78     		ldrb	r3, [r3, #1]
 507 005a 002B     		cmp	r3, #0
 508 005c 04D0     		beq	.L30
 509 005e B023     		movs	r3, #176
 510 0060 5B05     		lsls	r3, r3, #21
 511 0062 5B78     		ldrb	r3, [r3, #1]
 512 0064 DBB2     		uxtb	r3, r3
 513 0066 00E0     		b	.L27
 514              	.L30:
 515 0068 2123     		movs	r3, #33
 516              	.L27:
 517              	.LBE15:
 518              	.LBE14:
 188:system_psoc6_cm0plus.c ****     {
 519              		.loc 1 188 0
 520 006a 212B     		cmp	r3, #33
 521 006c 03D1     		bne	.L28
 191:system_psoc6_cm0plus.c ****         /* Release IPC structure #7 to avoid deadlocks in case of SW or WDT reset during Deep-Sleep
 522              		.loc 1 191 0
 523 006e 124B     		ldr	r3, .L31+20
 524 0070 0022     		movs	r2, #0
 525 0072 DA60     		str	r2, [r3, #12]
 193:system_psoc6_cm0plus.c ****     }
 526              		.loc 1 193 0
 527 0074 5A60     		str	r2, [r3, #4]
 528              	.L28:
 201:system_psoc6_cm0plus.c **** 
 529              		.loc 1 201 0
 530 0076 114C     		ldr	r4, .L31+24
 531 0078 2200     		movs	r2, r4
 532 007a 8021     		movs	r1, #128
 533 007c 0420     		movs	r0, #4
 534 007e FFF7FEFF 		bl	Cy_IPC_Sema_Init
 535              	.LVL58:
 221:system_psoc6_cm0plus.c **** 
 536              		.loc 1 221 0
 537 0082 2000     		movs	r0, r4
ARM GAS  C:\Users\Rolf\AppData\Local\Temp\ccafVfle.s 			page 46


 538 0084 1030     		adds	r0, r0, #16
 539 0086 FFF7FEFF 		bl	Cy_IPC_Pipe_Config
 540              	.LVL59:
 248:system_psoc6_cm0plus.c ****     {
 541              		.loc 1 248 0
 542 008a 0D4B     		ldr	r3, .L31+28
 543 008c 1A68     		ldr	r2, [r3]
 544 008e 5123     		movs	r3, #81
 545 0090 D35C     		ldrb	r3, [r2, r3]
 546 0092 002B     		cmp	r3, #0
 547 0094 02D0     		beq	.L29
 250:system_psoc6_cm0plus.c ****     }
 548              		.loc 1 250 0
 549 0096 0B48     		ldr	r0, .L31+32
 550 0098 FFF7FEFF 		bl	Cy_IPC_Pipe_Init
 551              	.LVL60:
 552              	.L29:
 254:system_psoc6_cm0plus.c **** #endif /* defined(CY_DEVICE_PSOC6ABLE2) */
 553              		.loc 1 254 0
 554 009c FFF7FEFF 		bl	Cy_Flash_Init
 555              	.LVL61:
 258:system_psoc6_cm0plus.c **** 
 556              		.loc 1 258 0
 557              		@ sp needed
 558 00a0 10BD     		pop	{r4, pc}
 559              	.L32:
 560 00a2 C046     		.align	2
 561              	.L31:
 562 00a4 00000000 		.word	cy_deviceIpBlockCfgPSoC6_01
 563 00a8 00002640 		.word	1076232192
 564 00ac 01000200 		.word	131073
 565 00b0 84050000 		.word	1412
 566 00b4 8C050000 		.word	1420
 567 00b8 E0002340 		.word	1076035808
 568 00bc 00000000 		.word	.LANCHOR1
 569 00c0 00000000 		.word	cy_device
 570 00c4 00000000 		.word	.LANCHOR2
 571              		.cfi_endproc
 572              	.LFE73:
 573              		.size	SystemInit, .-SystemInit
 574              		.section	.text.Cy_SysGetCM4Status,"ax",%progbits
 575              		.align	2
 576              		.global	Cy_SysGetCM4Status
 577              		.code	16
 578              		.thumb_func
 579              		.type	Cy_SysGetCM4Status, %function
 580              	Cy_SysGetCM4Status:
 581              	.LFB76:
 459:system_psoc6_cm0plus.c ****     uint32_t regValue;
 582              		.loc 1 459 0
 583              		.cfi_startproc
 584              		@ args = 0, pretend = 0, frame = 0
 585              		@ frame_needed = 0, uses_anonymous_args = 0
 586              		@ link register save eliminated.
 463:system_psoc6_cm0plus.c **** 
 587              		.loc 1 463 0
 588 0000 8023     		movs	r3, #128
ARM GAS  C:\Users\Rolf\AppData\Local\Temp\ccafVfle.s 			page 47


 589 0002 024A     		ldr	r2, .L34
 590 0004 D358     		ldr	r3, [r2, r3]
 591 0006 0320     		movs	r0, #3
 592 0008 1840     		ands	r0, r3
 593              	.LVL62:
 466:system_psoc6_cm0plus.c **** 
 594              		.loc 1 466 0
 595              		@ sp needed
 596 000a 7047     		bx	lr
 597              	.L35:
 598              		.align	2
 599              	.L34:
 600 000c 00002140 		.word	1075904512
 601              		.cfi_endproc
 602              	.LFE76:
 603              		.size	Cy_SysGetCM4Status, .-Cy_SysGetCM4Status
 604              		.section	.text.Cy_SysDisableCM4,"ax",%progbits
 605              		.align	2
 606              		.global	Cy_SysDisableCM4
 607              		.code	16
 608              		.thumb_func
 609              		.type	Cy_SysDisableCM4, %function
 610              	Cy_SysDisableCM4:
 611              	.LFB78:
 529:system_psoc6_cm0plus.c ****     uint32_t interruptState;
 612              		.loc 1 529 0
 613              		.cfi_startproc
 614              		@ args = 0, pretend = 0, frame = 0
 615              		@ frame_needed = 0, uses_anonymous_args = 0
 616 0000 10B5     		push	{r4, lr}
 617              		.cfi_def_cfa_offset 8
 618              		.cfi_offset 4, -8
 619              		.cfi_offset 14, -4
 533:system_psoc6_cm0plus.c **** 
 620              		.loc 1 533 0
 621 0002 FFF7FEFF 		bl	Cy_SysLib_EnterCriticalSection
 622              	.LVL63:
 535:system_psoc6_cm0plus.c ****     regValue |= _VAL2FLD(CPUSS_CM4_PWR_CTL_VECTKEYSTAT, CY_SYS_CM4_PWR_CTL_KEY_OPEN);
 623              		.loc 1 535 0
 624 0006 0849     		ldr	r1, .L38
 625 0008 8022     		movs	r2, #128
 626 000a 8C58     		ldr	r4, [r1, r2]
 627 000c 074B     		ldr	r3, .L38+4
 628 000e 2340     		ands	r3, r4
 629              	.LVL64:
 536:system_psoc6_cm0plus.c ****     regValue |= CY_SYS_CM4_STATUS_DISABLED;
 630              		.loc 1 536 0
 631 0010 074C     		ldr	r4, .L38+8
 632 0012 2343     		orrs	r3, r4
 633              	.LVL65:
 538:system_psoc6_cm0plus.c **** 
 634              		.loc 1 538 0
 635 0014 8B50     		str	r3, [r1, r2]
 636              	.LVL66:
 637              	.L37:
 540:system_psoc6_cm0plus.c ****     {
 638              		.loc 1 540 0 discriminator 1
ARM GAS  C:\Users\Rolf\AppData\Local\Temp\ccafVfle.s 			page 48


 639 0016 8823     		movs	r3, #136
 640 0018 034A     		ldr	r2, .L38
 641 001a D358     		ldr	r3, [r2, r3]
 642 001c DB06     		lsls	r3, r3, #27
 643 001e FAD5     		bpl	.L37
 545:system_psoc6_cm0plus.c **** }
 644              		.loc 1 545 0
 645 0020 FFF7FEFF 		bl	Cy_SysLib_ExitCriticalSection
 646              	.LVL67:
 546:system_psoc6_cm0plus.c **** 
 647              		.loc 1 546 0
 648              		@ sp needed
 649 0024 10BD     		pop	{r4, pc}
 650              	.L39:
 651 0026 C046     		.align	2
 652              	.L38:
 653 0028 00002140 		.word	1075904512
 654 002c FCFF0000 		.word	65532
 655 0030 0000FA05 		.word	100270080
 656              		.cfi_endproc
 657              	.LFE78:
 658              		.size	Cy_SysDisableCM4, .-Cy_SysDisableCM4
 659              		.section	.text.Cy_SysRetainCM4,"ax",%progbits
 660              		.align	2
 661              		.global	Cy_SysRetainCM4
 662              		.code	16
 663              		.thumb_func
 664              		.type	Cy_SysRetainCM4, %function
 665              	Cy_SysRetainCM4:
 666              	.LFB79:
 567:system_psoc6_cm0plus.c ****     uint32_t interruptState;
 667              		.loc 1 567 0
 668              		.cfi_startproc
 669              		@ args = 0, pretend = 0, frame = 0
 670              		@ frame_needed = 0, uses_anonymous_args = 0
 671 0000 10B5     		push	{r4, lr}
 672              		.cfi_def_cfa_offset 8
 673              		.cfi_offset 4, -8
 674              		.cfi_offset 14, -4
 571:system_psoc6_cm0plus.c **** 
 675              		.loc 1 571 0
 676 0002 FFF7FEFF 		bl	Cy_SysLib_EnterCriticalSection
 677              	.LVL68:
 573:system_psoc6_cm0plus.c ****     regValue |= _VAL2FLD(CPUSS_CM4_PWR_CTL_VECTKEYSTAT, CY_SYS_CM4_PWR_CTL_KEY_OPEN);
 678              		.loc 1 573 0
 679 0006 0549     		ldr	r1, .L41
 680 0008 8022     		movs	r2, #128
 681 000a 8C58     		ldr	r4, [r1, r2]
 682 000c 044B     		ldr	r3, .L41+4
 683 000e 2340     		ands	r3, r4
 684              	.LVL69:
 575:system_psoc6_cm0plus.c ****     CPUSS->CM4_PWR_CTL = regValue;
 685              		.loc 1 575 0
 686 0010 044C     		ldr	r4, .L41+8
 687 0012 2343     		orrs	r3, r4
 688              	.LVL70:
 576:system_psoc6_cm0plus.c **** 
ARM GAS  C:\Users\Rolf\AppData\Local\Temp\ccafVfle.s 			page 49


 689              		.loc 1 576 0
 690 0014 8B50     		str	r3, [r1, r2]
 578:system_psoc6_cm0plus.c **** }
 691              		.loc 1 578 0
 692 0016 FFF7FEFF 		bl	Cy_SysLib_ExitCriticalSection
 693              	.LVL71:
 579:system_psoc6_cm0plus.c **** 
 694              		.loc 1 579 0
 695              		@ sp needed
 696 001a 10BD     		pop	{r4, pc}
 697              	.L42:
 698              		.align	2
 699              	.L41:
 700 001c 00002140 		.word	1075904512
 701 0020 FCFF0000 		.word	65532
 702 0024 0200FA05 		.word	100270082
 703              		.cfi_endproc
 704              	.LFE79:
 705              		.size	Cy_SysRetainCM4, .-Cy_SysRetainCM4
 706              		.section	.text.Cy_SysResetCM4,"ax",%progbits
 707              		.align	2
 708              		.global	Cy_SysResetCM4
 709              		.code	16
 710              		.thumb_func
 711              		.type	Cy_SysResetCM4, %function
 712              	Cy_SysResetCM4:
 713              	.LFB80:
 599:system_psoc6_cm0plus.c ****     uint32_t interruptState;
 714              		.loc 1 599 0
 715              		.cfi_startproc
 716              		@ args = 0, pretend = 0, frame = 0
 717              		@ frame_needed = 0, uses_anonymous_args = 0
 718 0000 10B5     		push	{r4, lr}
 719              		.cfi_def_cfa_offset 8
 720              		.cfi_offset 4, -8
 721              		.cfi_offset 14, -4
 603:system_psoc6_cm0plus.c **** 
 722              		.loc 1 603 0
 723 0002 FFF7FEFF 		bl	Cy_SysLib_EnterCriticalSection
 724              	.LVL72:
 605:system_psoc6_cm0plus.c ****     regValue |= _VAL2FLD(CPUSS_CM4_PWR_CTL_VECTKEYSTAT, CY_SYS_CM4_PWR_CTL_KEY_OPEN);
 725              		.loc 1 605 0
 726 0006 0849     		ldr	r1, .L45
 727 0008 8022     		movs	r2, #128
 728 000a 8C58     		ldr	r4, [r1, r2]
 729 000c 074B     		ldr	r3, .L45+4
 730 000e 2340     		ands	r3, r4
 731              	.LVL73:
 607:system_psoc6_cm0plus.c ****     CPUSS->CM4_PWR_CTL = regValue;
 732              		.loc 1 607 0
 733 0010 074C     		ldr	r4, .L45+8
 734 0012 2343     		orrs	r3, r4
 735              	.LVL74:
 608:system_psoc6_cm0plus.c **** 
 736              		.loc 1 608 0
 737 0014 8B50     		str	r3, [r1, r2]
 738              	.LVL75:
ARM GAS  C:\Users\Rolf\AppData\Local\Temp\ccafVfle.s 			page 50


 739              	.L44:
 610:system_psoc6_cm0plus.c ****     {
 740              		.loc 1 610 0 discriminator 1
 741 0016 8823     		movs	r3, #136
 742 0018 034A     		ldr	r2, .L45
 743 001a D358     		ldr	r3, [r2, r3]
 744 001c DB06     		lsls	r3, r3, #27
 745 001e FAD5     		bpl	.L44
 615:system_psoc6_cm0plus.c **** }
 746              		.loc 1 615 0
 747 0020 FFF7FEFF 		bl	Cy_SysLib_ExitCriticalSection
 748              	.LVL76:
 616:system_psoc6_cm0plus.c **** #endif /* #if (CY_SYSTEM_CPU_CM0P == 1UL) || defined(CY_DOXYGEN) */
 749              		.loc 1 616 0
 750              		@ sp needed
 751 0024 10BD     		pop	{r4, pc}
 752              	.L46:
 753 0026 C046     		.align	2
 754              	.L45:
 755 0028 00002140 		.word	1075904512
 756 002c FCFF0000 		.word	65532
 757 0030 0100FA05 		.word	100270081
 758              		.cfi_endproc
 759              	.LFE80:
 760              		.size	Cy_SysResetCM4, .-Cy_SysResetCM4
 761              		.section	.text.Cy_SysEnableCM4,"ax",%progbits
 762              		.align	2
 763              		.global	Cy_SysEnableCM4
 764              		.code	16
 765              		.thumb_func
 766              		.type	Cy_SysEnableCM4, %function
 767              	Cy_SysEnableCM4:
 768              	.LFB77:
 482:system_psoc6_cm0plus.c ****     uint32_t regValue;
 769              		.loc 1 482 0
 770              		.cfi_startproc
 771              		@ args = 0, pretend = 0, frame = 0
 772              		@ frame_needed = 0, uses_anonymous_args = 0
 773              	.LVL77:
 774 0000 70B5     		push	{r4, r5, r6, lr}
 775              		.cfi_def_cfa_offset 16
 776              		.cfi_offset 4, -16
 777              		.cfi_offset 5, -12
 778              		.cfi_offset 6, -8
 779              		.cfi_offset 14, -4
 780 0002 0500     		movs	r5, r0
 487:system_psoc6_cm0plus.c **** 
 781              		.loc 1 487 0
 782 0004 8305     		lsls	r3, r0, #22
 783 0006 04D0     		beq	.L48
 487:system_psoc6_cm0plus.c **** 
 784              		.loc 1 487 0 is_stmt 0 discriminator 1
 785 0008 E821     		movs	r1, #232
 786 000a FF31     		adds	r1, r1, #255
 787 000c 0F48     		ldr	r0, .L51
 788              	.LVL78:
 789 000e FFF7FEFF 		bl	Cy_SysLib_AssertFailed
ARM GAS  C:\Users\Rolf\AppData\Local\Temp\ccafVfle.s 			page 51


 790              	.LVL79:
 791              	.L48:
 489:system_psoc6_cm0plus.c **** 
 792              		.loc 1 489 0 is_stmt 1
 793 0012 FFF7FEFF 		bl	Cy_SysLib_EnterCriticalSection
 794              	.LVL80:
 795 0016 0400     		movs	r4, r0
 796              	.LVL81:
 491:system_psoc6_cm0plus.c ****     if (CY_SYS_CM4_STATUS_ENABLED == cpuState)
 797              		.loc 1 491 0
 798 0018 FFF7FEFF 		bl	Cy_SysGetCM4Status
 799              	.LVL82:
 492:system_psoc6_cm0plus.c ****     {
 800              		.loc 1 492 0
 801 001c 0328     		cmp	r0, #3
 802 001e 01D1     		bne	.L49
 494:system_psoc6_cm0plus.c ****     }
 803              		.loc 1 494 0
 804 0020 FFF7FEFF 		bl	Cy_SysResetCM4
 805              	.LVL83:
 806              	.L49:
 497:system_psoc6_cm0plus.c **** 
 807              		.loc 1 497 0
 808 0024 0A4A     		ldr	r2, .L51+4
 809 0026 B023     		movs	r3, #176
 810 0028 9B00     		lsls	r3, r3, #2
 811 002a D550     		str	r5, [r2, r3]
 499:system_psoc6_cm0plus.c ****     regValue |= _VAL2FLD(CPUSS_CM4_PWR_CTL_VECTKEYSTAT, CY_SYS_CM4_PWR_CTL_KEY_OPEN);
 812              		.loc 1 499 0
 813 002c 8021     		movs	r1, #128
 814 002e 5058     		ldr	r0, [r2, r1]
 815 0030 084B     		ldr	r3, .L51+8
 816 0032 0340     		ands	r3, r0
 817              	.LVL84:
 501:system_psoc6_cm0plus.c ****     CPUSS->CM4_PWR_CTL = regValue;
 818              		.loc 1 501 0
 819 0034 0848     		ldr	r0, .L51+12
 820 0036 0343     		orrs	r3, r0
 821              	.LVL85:
 502:system_psoc6_cm0plus.c **** 
 822              		.loc 1 502 0
 823 0038 5350     		str	r3, [r2, r1]
 824              	.LVL86:
 825              	.L50:
 504:system_psoc6_cm0plus.c ****     {
 826              		.loc 1 504 0 discriminator 1
 827 003a 8823     		movs	r3, #136
 828 003c 044A     		ldr	r2, .L51+4
 829 003e D358     		ldr	r3, [r2, r3]
 830 0040 DB06     		lsls	r3, r3, #27
 831 0042 FAD5     		bpl	.L50
 509:system_psoc6_cm0plus.c **** }
 832              		.loc 1 509 0
 833 0044 2000     		movs	r0, r4
 834 0046 FFF7FEFF 		bl	Cy_SysLib_ExitCriticalSection
 835              	.LVL87:
 510:system_psoc6_cm0plus.c **** 
ARM GAS  C:\Users\Rolf\AppData\Local\Temp\ccafVfle.s 			page 52


 836              		.loc 1 510 0
 837              		@ sp needed
 838              	.LVL88:
 839              	.LVL89:
 840 004a 70BD     		pop	{r4, r5, r6, pc}
 841              	.L52:
 842              		.align	2
 843              	.L51:
 844 004c 00000000 		.word	.LC6
 845 0050 00002140 		.word	1075904512
 846 0054 FCFF0000 		.word	65532
 847 0058 0300FA05 		.word	100270083
 848              		.cfi_endproc
 849              	.LFE77:
 850              		.size	Cy_SysEnableCM4, .-Cy_SysEnableCM4
 851              		.global	cy_delay32kMs
 852              		.global	cy_delayFreqMhz
 853              		.global	cy_delayFreqKhz
 854              		.global	cy_delayFreqHz
 855              		.global	cy_BleEcoClockFreqHz
 856              		.global	cy_PeriClkFreqHz
 857              		.global	cy_Hfclk0FreqHz
 858              		.global	SystemCoreClock
 859              		.section	.rodata
 860              		.align	2
 861              		.set	.LANCHOR2,. + 0
 862              		.type	systemIpcPipeConfigCm0.10615, %object
 863              		.size	systemIpcPipeConfigCm0.10615, 52
 864              	systemIpcPipeConfigCm0.10615:
 865 0000 03000000 		.word	3
 866 0004 01000000 		.word	1
 867 0008 01000000 		.word	1
 868 000c 00000000 		.word	0
 869 0010 05036000 		.word	6292229
 870 0014 04000000 		.word	4
 871 0018 01000000 		.word	1
 872 001c 00000000 		.word	0
 873 0020 01000000 		.word	1
 874 0024 06046000 		.word	6292486
 875 0028 08000000 		.word	8
 876 002c 70010000 		.word	systemIpcPipeSysCbArray.10614
 877 0030 00000000 		.word	Cy_SysIpcPipeIsrCm0
 878              		.data
 879              		.align	2
 880              		.set	.LANCHOR0,. + 0
 881              		.type	cy_BleEcoClockFreqHz, %object
 882              		.size	cy_BleEcoClockFreqHz, 4
 883              	cy_BleEcoClockFreqHz:
 884 0000 0048E801 		.word	32000000
 885              		.type	cy_Hfclk0FreqHz, %object
 886              		.size	cy_Hfclk0FreqHz, 4
 887              	cy_Hfclk0FreqHz:
 888 0004 00127A00 		.word	8000000
 889              		.type	cy_PeriClkFreqHz, %object
 890              		.size	cy_PeriClkFreqHz, 4
 891              	cy_PeriClkFreqHz:
 892 0008 00093D00 		.word	4000000
ARM GAS  C:\Users\Rolf\AppData\Local\Temp\ccafVfle.s 			page 53


 893              		.type	SystemCoreClock, %object
 894              		.size	SystemCoreClock, 4
 895              	SystemCoreClock:
 896 000c 00093D00 		.word	4000000
 897              		.type	cy_delayFreqHz, %object
 898              		.size	cy_delayFreqHz, 4
 899              	cy_delayFreqHz:
 900 0010 00093D00 		.word	4000000
 901              		.type	cy_delayFreqMhz, %object
 902              		.size	cy_delayFreqMhz, 1
 903              	cy_delayFreqMhz:
 904 0014 04       		.byte	4
 905 0015 000000   		.space	3
 906              		.type	cy_delayFreqKhz, %object
 907              		.size	cy_delayFreqKhz, 4
 908              	cy_delayFreqKhz:
 909 0018 A00F0000 		.word	4000
 910              		.type	cy_delay32kMs, %object
 911              		.size	cy_delay32kMs, 4
 912              	cy_delay32kMs:
 913 001c 0000D007 		.word	131072000
 914              		.section	.rodata.str1.4,"aMS",%progbits,1
 915              		.align	2
 916              	.LC6:
 917 0000 73797374 		.ascii	"system_psoc6_cm0plus.c\000"
 917      656D5F70 
 917      736F6336 
 917      5F636D30 
 917      706C7573 
 918              		.bss
 919              		.align	2
 920              		.set	.LANCHOR1,. + 0
 921              		.type	ipcSemaArray.10612, %object
 922              		.size	ipcSemaArray.10612, 16
 923              	ipcSemaArray.10612:
 924 0000 00000000 		.space	16
 924      00000000 
 924      00000000 
 924      00000000 
 925              		.type	systemIpcPipeEpArray.10613, %object
 926              		.size	systemIpcPipeEpArray.10613, 352
 927              	systemIpcPipeEpArray.10613:
 928 0010 00000000 		.space	352
 928      00000000 
 928      00000000 
 928      00000000 
 928      00000000 
 929              		.type	systemIpcPipeSysCbArray.10614, %object
 930              		.size	systemIpcPipeSysCbArray.10614, 32
 931              	systemIpcPipeSysCbArray.10614:
 932 0170 00000000 		.space	32
 932      00000000 
 932      00000000 
 932      00000000 
 932      00000000 
 933              		.text
 934              	.Letext0:
ARM GAS  C:\Users\Rolf\AppData\Local\Temp\ccafVfle.s 			page 54


 935              		.file 4 "c:\\program files (x86)\\cypress\\psoc creator\\4.4\\4.4\\psoc creator\\import\\gnu\\arm\
 936              		.file 5 "c:\\program files (x86)\\cypress\\psoc creator\\4.4\\4.4\\psoc creator\\import\\gnu\\arm\
 937              		.file 6 "Generated_Source\\PSoC6\\pdl\\devices/psoc6/include/cy8c6347bzi_bld53.h"
 938              		.file 7 "Generated_Source\\PSoC6\\pdl\\devices/psoc6/include/ip/cyip_sflash.h"
 939              		.file 8 "Generated_Source\\PSoC6\\pdl\\devices/psoc6/include/ip/cyip_cpuss.h"
 940              		.file 9 "Generated_Source\\PSoC6\\pdl\\devices/psoc6/include/ip/cyip_ipc.h"
 941              		.file 10 "Generated_Source\\PSoC6\\pdl\\devices/psoc6/include/ip/cyip_srss.h"
 942              		.file 11 "Generated_Source\\PSoC6\\pdl\\devices/psoc6/include/psoc6_01_config.h"
 943              		.file 12 "Generated_Source\\PSoC6\\pdl\\drivers/peripheral/device/cy_device.h"
 944              		.file 13 "Generated_Source\\PSoC6\\pdl\\drivers/peripheral/ipc/cy_ipc_pipe.h"
 945              		.file 14 "Generated_Source\\PSoC6\\pdl\\drivers/peripheral/ipc/cy_ipc_sema.h"
 946              		.file 15 "Generated_Source\\PSoC6\\pdl\\drivers/peripheral/flash/cy_flash.h"
 947              		.section	.debug_info,"",%progbits
 948              	.Ldebug_info0:
 949 0000 B7210000 		.4byte	0x21b7
 950 0004 0400     		.2byte	0x4
 951 0006 00000000 		.4byte	.Ldebug_abbrev0
 952 000a 04       		.byte	0x4
 953 000b 01       		.uleb128 0x1
 954 000c 09100000 		.4byte	.LASF479
 955 0010 0C       		.byte	0xc
 956 0011 3B160000 		.4byte	.LASF480
 957 0015 620F0000 		.4byte	.LASF481
 958 0019 18000000 		.4byte	.Ldebug_ranges0+0x18
 959 001d 00000000 		.4byte	0
 960 0021 00000000 		.4byte	.Ldebug_line0
 961 0025 02       		.uleb128 0x2
 962 0026 01       		.byte	0x1
 963 0027 06       		.byte	0x6
 964 0028 7A1B0000 		.4byte	.LASF0
 965 002c 03       		.uleb128 0x3
 966 002d C5160000 		.4byte	.LASF2
 967 0031 04       		.byte	0x4
 968 0032 1D       		.byte	0x1d
 969 0033 37000000 		.4byte	0x37
 970 0037 02       		.uleb128 0x2
 971 0038 01       		.byte	0x1
 972 0039 08       		.byte	0x8
 973 003a 23190000 		.4byte	.LASF1
 974 003e 03       		.uleb128 0x3
 975 003f B6100000 		.4byte	.LASF3
 976 0043 04       		.byte	0x4
 977 0044 29       		.byte	0x29
 978 0045 49000000 		.4byte	0x49
 979 0049 02       		.uleb128 0x2
 980 004a 02       		.byte	0x2
 981 004b 05       		.byte	0x5
 982 004c 1B040000 		.4byte	.LASF4
 983 0050 03       		.uleb128 0x3
 984 0051 AD080000 		.4byte	.LASF5
 985 0055 04       		.byte	0x4
 986 0056 2B       		.byte	0x2b
 987 0057 5B000000 		.4byte	0x5b
 988 005b 02       		.uleb128 0x2
 989 005c 02       		.byte	0x2
 990 005d 07       		.byte	0x7
 991 005e E4120000 		.4byte	.LASF6
ARM GAS  C:\Users\Rolf\AppData\Local\Temp\ccafVfle.s 			page 55


 992 0062 02       		.uleb128 0x2
 993 0063 04       		.byte	0x4
 994 0064 05       		.byte	0x5
 995 0065 67150000 		.4byte	.LASF7
 996 0069 03       		.uleb128 0x3
 997 006a 90130000 		.4byte	.LASF8
 998 006e 04       		.byte	0x4
 999 006f 41       		.byte	0x41
 1000 0070 74000000 		.4byte	0x74
 1001 0074 02       		.uleb128 0x2
 1002 0075 04       		.byte	0x4
 1003 0076 07       		.byte	0x7
 1004 0077 02180000 		.4byte	.LASF9
 1005 007b 02       		.uleb128 0x2
 1006 007c 08       		.byte	0x8
 1007 007d 05       		.byte	0x5
 1008 007e FB0E0000 		.4byte	.LASF10
 1009 0082 02       		.uleb128 0x2
 1010 0083 08       		.byte	0x8
 1011 0084 07       		.byte	0x7
 1012 0085 DE070000 		.4byte	.LASF11
 1013 0089 04       		.uleb128 0x4
 1014 008a 04       		.byte	0x4
 1015 008b 05       		.byte	0x5
 1016 008c 696E7400 		.ascii	"int\000"
 1017 0090 02       		.uleb128 0x2
 1018 0091 04       		.byte	0x4
 1019 0092 07       		.byte	0x7
 1020 0093 3E020000 		.4byte	.LASF12
 1021 0097 03       		.uleb128 0x3
 1022 0098 1D0E0000 		.4byte	.LASF13
 1023 009c 05       		.byte	0x5
 1024 009d 18       		.byte	0x18
 1025 009e 2C000000 		.4byte	0x2c
 1026 00a2 03       		.uleb128 0x3
 1027 00a3 8E070000 		.4byte	.LASF14
 1028 00a7 05       		.byte	0x5
 1029 00a8 20       		.byte	0x20
 1030 00a9 3E000000 		.4byte	0x3e
 1031 00ad 03       		.uleb128 0x3
 1032 00ae 12190000 		.4byte	.LASF15
 1033 00b2 05       		.byte	0x5
 1034 00b3 24       		.byte	0x24
 1035 00b4 50000000 		.4byte	0x50
 1036 00b8 03       		.uleb128 0x3
 1037 00b9 82060000 		.4byte	.LASF16
 1038 00bd 05       		.byte	0x5
 1039 00be 30       		.byte	0x30
 1040 00bf 69000000 		.4byte	0x69
 1041 00c3 05       		.uleb128 0x5
 1042 00c4 02       		.byte	0x2
 1043 00c5 49000000 		.4byte	0x49
 1044 00c9 06       		.byte	0x6
 1045 00ca 24       		.byte	0x24
 1046 00cb BA010000 		.4byte	0x1ba
 1047 00cf 06       		.uleb128 0x6
 1048 00d0 F31A0000 		.4byte	.LASF17
ARM GAS  C:\Users\Rolf\AppData\Local\Temp\ccafVfle.s 			page 56


 1049 00d4 71       		.sleb128 -15
 1050 00d5 06       		.uleb128 0x6
 1051 00d6 9F150000 		.4byte	.LASF18
 1052 00da 72       		.sleb128 -14
 1053 00db 06       		.uleb128 0x6
 1054 00dc 191C0000 		.4byte	.LASF19
 1055 00e0 73       		.sleb128 -13
 1056 00e1 06       		.uleb128 0x6
 1057 00e2 A1190000 		.4byte	.LASF20
 1058 00e6 7B       		.sleb128 -5
 1059 00e7 06       		.uleb128 0x6
 1060 00e8 46050000 		.4byte	.LASF21
 1061 00ec 7E       		.sleb128 -2
 1062 00ed 06       		.uleb128 0x6
 1063 00ee B4170000 		.4byte	.LASF22
 1064 00f2 7F       		.sleb128 -1
 1065 00f3 07       		.uleb128 0x7
 1066 00f4 81050000 		.4byte	.LASF23
 1067 00f8 00       		.byte	0
 1068 00f9 07       		.uleb128 0x7
 1069 00fa 85010000 		.4byte	.LASF24
 1070 00fe 01       		.byte	0x1
 1071 00ff 07       		.uleb128 0x7
 1072 0100 AC0A0000 		.4byte	.LASF25
 1073 0104 02       		.byte	0x2
 1074 0105 07       		.uleb128 0x7
 1075 0106 241D0000 		.4byte	.LASF26
 1076 010a 03       		.byte	0x3
 1077 010b 07       		.uleb128 0x7
 1078 010c 9C120000 		.4byte	.LASF27
 1079 0110 04       		.byte	0x4
 1080 0111 07       		.uleb128 0x7
 1081 0112 BB040000 		.4byte	.LASF28
 1082 0116 05       		.byte	0x5
 1083 0117 07       		.uleb128 0x7
 1084 0118 C1170000 		.4byte	.LASF29
 1085 011c 06       		.byte	0x6
 1086 011d 07       		.uleb128 0x7
 1087 011e 0F0D0000 		.4byte	.LASF30
 1088 0122 07       		.byte	0x7
 1089 0123 07       		.uleb128 0x7
 1090 0124 951C0000 		.4byte	.LASF31
 1091 0128 08       		.byte	0x8
 1092 0129 07       		.uleb128 0x7
 1093 012a 48120000 		.4byte	.LASF32
 1094 012e 09       		.byte	0x9
 1095 012f 07       		.uleb128 0x7
 1096 0130 71140000 		.4byte	.LASF33
 1097 0134 0A       		.byte	0xa
 1098 0135 07       		.uleb128 0x7
 1099 0136 7E090000 		.4byte	.LASF34
 1100 013a 0B       		.byte	0xb
 1101 013b 07       		.uleb128 0x7
 1102 013c 3D190000 		.4byte	.LASF35
 1103 0140 0C       		.byte	0xc
 1104 0141 07       		.uleb128 0x7
 1105 0142 5D0E0000 		.4byte	.LASF36
ARM GAS  C:\Users\Rolf\AppData\Local\Temp\ccafVfle.s 			page 57


 1106 0146 0D       		.byte	0xd
 1107 0147 07       		.uleb128 0x7
 1108 0148 9B030000 		.4byte	.LASF37
 1109 014c 0E       		.byte	0xe
 1110 014d 07       		.uleb128 0x7
 1111 014e 9D1A0000 		.4byte	.LASF38
 1112 0152 0F       		.byte	0xf
 1113 0153 07       		.uleb128 0x7
 1114 0154 19090000 		.4byte	.LASF39
 1115 0158 10       		.byte	0x10
 1116 0159 07       		.uleb128 0x7
 1117 015a BD1B0000 		.4byte	.LASF40
 1118 015e 11       		.byte	0x11
 1119 015f 07       		.uleb128 0x7
 1120 0160 B8090000 		.4byte	.LASF41
 1121 0164 12       		.byte	0x12
 1122 0165 07       		.uleb128 0x7
 1123 0166 7A1D0000 		.4byte	.LASF42
 1124 016a 13       		.byte	0x13
 1125 016b 07       		.uleb128 0x7
 1126 016c D60D0000 		.4byte	.LASF43
 1127 0170 14       		.byte	0x14
 1128 0171 07       		.uleb128 0x7
 1129 0172 0C040000 		.4byte	.LASF44
 1130 0176 15       		.byte	0x15
 1131 0177 07       		.uleb128 0x7
 1132 0178 650C0000 		.4byte	.LASF45
 1133 017c 16       		.byte	0x16
 1134 017d 07       		.uleb128 0x7
 1135 017e 35010000 		.4byte	.LASF46
 1136 0182 17       		.byte	0x17
 1137 0183 07       		.uleb128 0x7
 1138 0184 F7140000 		.4byte	.LASF47
 1139 0188 18       		.byte	0x18
 1140 0189 07       		.uleb128 0x7
 1141 018a BD060000 		.4byte	.LASF48
 1142 018e 19       		.byte	0x19
 1143 018f 07       		.uleb128 0x7
 1144 0190 AD190000 		.4byte	.LASF49
 1145 0194 1A       		.byte	0x1a
 1146 0195 07       		.uleb128 0x7
 1147 0196 D10E0000 		.4byte	.LASF50
 1148 019a 1B       		.byte	0x1b
 1149 019b 07       		.uleb128 0x7
 1150 019c 73000000 		.4byte	.LASF51
 1151 01a0 1C       		.byte	0x1c
 1152 01a1 07       		.uleb128 0x7
 1153 01a2 20140000 		.4byte	.LASF52
 1154 01a6 1D       		.byte	0x1d
 1155 01a7 07       		.uleb128 0x7
 1156 01a8 14180000 		.4byte	.LASF53
 1157 01ac 1E       		.byte	0x1e
 1158 01ad 07       		.uleb128 0x7
 1159 01ae 520A0000 		.4byte	.LASF54
 1160 01b2 1F       		.byte	0x1f
 1161 01b3 07       		.uleb128 0x7
 1162 01b4 1D0D0000 		.4byte	.LASF55
ARM GAS  C:\Users\Rolf\AppData\Local\Temp\ccafVfle.s 			page 58


 1163 01b8 F0       		.byte	0xf0
 1164 01b9 00       		.byte	0
 1165 01ba 03       		.uleb128 0x3
 1166 01bb C7090000 		.4byte	.LASF56
 1167 01bf 06       		.byte	0x6
 1168 01c0 F4       		.byte	0xf4
 1169 01c1 C3000000 		.4byte	0xc3
 1170 01c5 02       		.uleb128 0x2
 1171 01c6 04       		.byte	0x4
 1172 01c7 07       		.byte	0x7
 1173 01c8 E0100000 		.4byte	.LASF57
 1174 01cc 08       		.uleb128 0x8
 1175 01cd B8000000 		.4byte	0xb8
 1176 01d1 09       		.uleb128 0x9
 1177 01d2 CC010000 		.4byte	0x1cc
 1178 01d6 0A       		.uleb128 0xa
 1179 01d7 0080     		.2byte	0x8000
 1180 01d9 07       		.byte	0x7
 1181 01da 21       		.byte	0x21
 1182 01db BC070000 		.4byte	0x7bc
 1183 01df 0B       		.uleb128 0xb
 1184 01e0 3B000000 		.4byte	.LASF58
 1185 01e4 07       		.byte	0x7
 1186 01e5 22       		.byte	0x22
 1187 01e6 C1070000 		.4byte	0x7c1
 1188 01ea 00       		.byte	0
 1189 01eb 0B       		.uleb128 0xb
 1190 01ec 05060000 		.4byte	.LASF59
 1191 01f0 07       		.byte	0x7
 1192 01f1 23       		.byte	0x23
 1193 01f2 BC070000 		.4byte	0x7bc
 1194 01f6 01       		.byte	0x1
 1195 01f7 0B       		.uleb128 0xb
 1196 01f8 CF160000 		.4byte	.LASF60
 1197 01fc 07       		.byte	0x7
 1198 01fd 24       		.byte	0x24
 1199 01fe C6070000 		.4byte	0x7c6
 1200 0202 02       		.byte	0x2
 1201 0203 0B       		.uleb128 0xb
 1202 0204 84070000 		.4byte	.LASF61
 1203 0208 07       		.byte	0x7
 1204 0209 25       		.byte	0x25
 1205 020a E0070000 		.4byte	0x7e0
 1206 020e 04       		.byte	0x4
 1207 020f 0B       		.uleb128 0xb
 1208 0210 C6080000 		.4byte	.LASF62
 1209 0214 07       		.byte	0x7
 1210 0215 26       		.byte	0x26
 1211 0216 C6070000 		.4byte	0x7c6
 1212 021a 0C       		.byte	0xc
 1213 021b 0B       		.uleb128 0xb
 1214 021c BB140000 		.4byte	.LASF63
 1215 0220 07       		.byte	0x7
 1216 0221 27       		.byte	0x27
 1217 0222 FF070000 		.4byte	0x7ff
 1218 0226 0E       		.byte	0xe
 1219 0227 0B       		.uleb128 0xb
ARM GAS  C:\Users\Rolf\AppData\Local\Temp\ccafVfle.s 			page 59


 1220 0228 82000000 		.4byte	.LASF64
 1221 022c 07       		.byte	0x7
 1222 022d 28       		.byte	0x28
 1223 022e CC010000 		.4byte	0x1cc
 1224 0232 14       		.byte	0x14
 1225 0233 0B       		.uleb128 0xb
 1226 0234 C5140000 		.4byte	.LASF65
 1227 0238 07       		.byte	0x7
 1228 0239 29       		.byte	0x29
 1229 023a 1A080000 		.4byte	0x81a
 1230 023e 18       		.byte	0x18
 1231 023f 0C       		.uleb128 0xc
 1232 0240 E2170000 		.4byte	.LASF66
 1233 0244 07       		.byte	0x7
 1234 0245 2A       		.byte	0x2a
 1235 0246 2F080000 		.4byte	0x82f
 1236 024a 0006     		.2byte	0x600
 1237 024c 0C       		.uleb128 0xc
 1238 024d A9130000 		.4byte	.LASF67
 1239 0251 07       		.byte	0x7
 1240 0252 2B       		.byte	0x2b
 1241 0253 BC070000 		.4byte	0x7bc
 1242 0257 0306     		.2byte	0x603
 1243 0259 0C       		.uleb128 0xc
 1244 025a 02020000 		.4byte	.LASF68
 1245 025e 07       		.byte	0x7
 1246 025f 2C       		.byte	0x2c
 1247 0260 BC070000 		.4byte	0x7bc
 1248 0264 0406     		.2byte	0x604
 1249 0266 0C       		.uleb128 0xc
 1250 0267 08020000 		.4byte	.LASF69
 1251 026b 07       		.byte	0x7
 1252 026c 2D       		.byte	0x2d
 1253 026d BC070000 		.4byte	0x7bc
 1254 0271 0506     		.2byte	0x605
 1255 0273 0C       		.uleb128 0xc
 1256 0274 AA060000 		.4byte	.LASF70
 1257 0278 07       		.byte	0x7
 1258 0279 2E       		.byte	0x2e
 1259 027a BC070000 		.4byte	0x7bc
 1260 027e 0606     		.2byte	0x606
 1261 0280 0C       		.uleb128 0xc
 1262 0281 00120000 		.4byte	.LASF71
 1263 0285 07       		.byte	0x7
 1264 0286 2F       		.byte	0x2f
 1265 0287 BC070000 		.4byte	0x7bc
 1266 028b 0706     		.2byte	0x607
 1267 028d 0C       		.uleb128 0xc
 1268 028e EA090000 		.4byte	.LASF72
 1269 0292 07       		.byte	0x7
 1270 0293 30       		.byte	0x30
 1271 0294 BC070000 		.4byte	0x7bc
 1272 0298 0806     		.2byte	0x608
 1273 029a 0C       		.uleb128 0xc
 1274 029b 6B0B0000 		.4byte	.LASF73
 1275 029f 07       		.byte	0x7
 1276 02a0 31       		.byte	0x31
ARM GAS  C:\Users\Rolf\AppData\Local\Temp\ccafVfle.s 			page 60


 1277 02a1 BC070000 		.4byte	0x7bc
 1278 02a5 0906     		.2byte	0x609
 1279 02a7 0C       		.uleb128 0xc
 1280 02a8 25160000 		.4byte	.LASF74
 1281 02ac 07       		.byte	0x7
 1282 02ad 32       		.byte	0x32
 1283 02ae BC070000 		.4byte	0x7bc
 1284 02b2 0A06     		.2byte	0x60a
 1285 02b4 0C       		.uleb128 0xc
 1286 02b5 CF140000 		.4byte	.LASF75
 1287 02b9 07       		.byte	0x7
 1288 02ba 33       		.byte	0x33
 1289 02bb 49080000 		.4byte	0x849
 1290 02bf 0B06     		.2byte	0x60b
 1291 02c1 0C       		.uleb128 0xc
 1292 02c2 5C190000 		.4byte	.LASF76
 1293 02c6 07       		.byte	0x7
 1294 02c7 34       		.byte	0x34
 1295 02c8 C6070000 		.4byte	0x7c6
 1296 02cc 4806     		.2byte	0x648
 1297 02ce 0C       		.uleb128 0xc
 1298 02cf E4020000 		.4byte	.LASF77
 1299 02d3 07       		.byte	0x7
 1300 02d4 35       		.byte	0x35
 1301 02d5 C6070000 		.4byte	0x7c6
 1302 02d9 4A06     		.2byte	0x64a
 1303 02db 0C       		.uleb128 0xc
 1304 02dc D9140000 		.4byte	.LASF78
 1305 02e0 07       		.byte	0x7
 1306 02e1 36       		.byte	0x36
 1307 02e2 63080000 		.4byte	0x863
 1308 02e6 4C06     		.2byte	0x64c
 1309 02e8 0C       		.uleb128 0xc
 1310 02e9 2B0F0000 		.4byte	.LASF79
 1311 02ed 07       		.byte	0x7
 1312 02ee 37       		.byte	0x37
 1313 02ef CC010000 		.4byte	0x1cc
 1314 02f3 6C06     		.2byte	0x66c
 1315 02f5 0C       		.uleb128 0xc
 1316 02f6 E3140000 		.4byte	.LASF80
 1317 02fa 07       		.byte	0x7
 1318 02fb 38       		.byte	0x38
 1319 02fc 7D080000 		.4byte	0x87d
 1320 0300 7006     		.2byte	0x670
 1321 0302 0C       		.uleb128 0xc
 1322 0303 80020000 		.4byte	.LASF81
 1323 0307 07       		.byte	0x7
 1324 0308 39       		.byte	0x39
 1325 0309 BC070000 		.4byte	0x7bc
 1326 030d 4007     		.2byte	0x740
 1327 030f 0C       		.uleb128 0xc
 1328 0310 CA1C0000 		.4byte	.LASF82
 1329 0314 07       		.byte	0x7
 1330 0315 3A       		.byte	0x3a
 1331 0316 BC070000 		.4byte	0x7bc
 1332 031a 4107     		.2byte	0x741
 1333 031c 0C       		.uleb128 0xc
ARM GAS  C:\Users\Rolf\AppData\Local\Temp\ccafVfle.s 			page 61


 1334 031d ED140000 		.4byte	.LASF83
 1335 0321 07       		.byte	0x7
 1336 0322 3B       		.byte	0x3b
 1337 0323 97080000 		.4byte	0x897
 1338 0327 4207     		.2byte	0x742
 1339 0329 0C       		.uleb128 0xc
 1340 032a C40A0000 		.4byte	.LASF84
 1341 032e 07       		.byte	0x7
 1342 032f 3C       		.byte	0x3c
 1343 0330 AC080000 		.4byte	0x8ac
 1344 0334 0008     		.2byte	0x800
 1345 0336 0C       		.uleb128 0xc
 1346 0337 70190000 		.4byte	.LASF85
 1347 033b 07       		.byte	0x7
 1348 033c 3D       		.byte	0x3d
 1349 033d B1080000 		.4byte	0x8b1
 1350 0341 000A     		.2byte	0xa00
 1351 0343 0C       		.uleb128 0xc
 1352 0344 090C0000 		.4byte	.LASF86
 1353 0348 07       		.byte	0x7
 1354 0349 3E       		.byte	0x3e
 1355 034a B6080000 		.4byte	0x8b6
 1356 034e 000C     		.2byte	0xc00
 1357 0350 0C       		.uleb128 0xc
 1358 0351 92190000 		.4byte	.LASF87
 1359 0355 07       		.byte	0x7
 1360 0356 3F       		.byte	0x3f
 1361 0357 BB080000 		.4byte	0x8bb
 1362 035b 000E     		.2byte	0xe00
 1363 035d 0C       		.uleb128 0xc
 1364 035e D81C0000 		.4byte	.LASF88
 1365 0362 07       		.byte	0x7
 1366 0363 40       		.byte	0x40
 1367 0364 D6080000 		.4byte	0x8d6
 1368 0368 0010     		.2byte	0x1000
 1369 036a 0C       		.uleb128 0xc
 1370 036b E2010000 		.4byte	.LASF89
 1371 036f 07       		.byte	0x7
 1372 0370 41       		.byte	0x41
 1373 0371 EB080000 		.4byte	0x8eb
 1374 0375 B814     		.2byte	0x14b8
 1375 0377 0C       		.uleb128 0xc
 1376 0378 17170000 		.4byte	.LASF90
 1377 037c 07       		.byte	0x7
 1378 037d 42       		.byte	0x42
 1379 037e F0080000 		.4byte	0x8f0
 1380 0382 C814     		.2byte	0x14c8
 1381 0384 0C       		.uleb128 0xc
 1382 0385 4F130000 		.4byte	.LASF91
 1383 0389 07       		.byte	0x7
 1384 038a 43       		.byte	0x43
 1385 038b 05090000 		.4byte	0x905
 1386 038f D814     		.2byte	0x14d8
 1387 0391 0C       		.uleb128 0xc
 1388 0392 D9000000 		.4byte	.LASF92
 1389 0396 07       		.byte	0x7
 1390 0397 44       		.byte	0x44
ARM GAS  C:\Users\Rolf\AppData\Local\Temp\ccafVfle.s 			page 62


 1391 0398 0A090000 		.4byte	0x90a
 1392 039c 1815     		.2byte	0x1518
 1393 039e 0C       		.uleb128 0xc
 1394 039f 0B050000 		.4byte	.LASF93
 1395 03a3 07       		.byte	0x7
 1396 03a4 45       		.byte	0x45
 1397 03a5 0F090000 		.4byte	0x90f
 1398 03a9 5815     		.2byte	0x1558
 1399 03ab 0C       		.uleb128 0xc
 1400 03ac B3130000 		.4byte	.LASF94
 1401 03b0 07       		.byte	0x7
 1402 03b1 46       		.byte	0x46
 1403 03b2 14090000 		.4byte	0x914
 1404 03b6 9815     		.2byte	0x1598
 1405 03b8 0C       		.uleb128 0xc
 1406 03b9 8D0A0000 		.4byte	.LASF95
 1407 03bd 07       		.byte	0x7
 1408 03be 47       		.byte	0x47
 1409 03bf 19090000 		.4byte	0x919
 1410 03c3 D815     		.2byte	0x15d8
 1411 03c5 0C       		.uleb128 0xc
 1412 03c6 06150000 		.4byte	.LASF96
 1413 03ca 07       		.byte	0x7
 1414 03cb 48       		.byte	0x48
 1415 03cc 33090000 		.4byte	0x933
 1416 03d0 1816     		.2byte	0x1618
 1417 03d2 0C       		.uleb128 0xc
 1418 03d3 6F130000 		.4byte	.LASF97
 1419 03d7 07       		.byte	0x7
 1420 03d8 49       		.byte	0x49
 1421 03d9 C6070000 		.4byte	0x7c6
 1422 03dd 0018     		.2byte	0x1800
 1423 03df 0C       		.uleb128 0xc
 1424 03e0 E8190000 		.4byte	.LASF98
 1425 03e4 07       		.byte	0x7
 1426 03e5 4A       		.byte	0x4a
 1427 03e6 F5070000 		.4byte	0x7f5
 1428 03ea 0218     		.2byte	0x1802
 1429 03ec 0C       		.uleb128 0xc
 1430 03ed 18150000 		.4byte	.LASF99
 1431 03f1 07       		.byte	0x7
 1432 03f2 4B       		.byte	0x4b
 1433 03f3 CC010000 		.4byte	0x1cc
 1434 03f7 0418     		.2byte	0x1804
 1435 03f9 0C       		.uleb128 0xc
 1436 03fa 2D150000 		.4byte	.LASF100
 1437 03fe 07       		.byte	0x7
 1438 03ff 4C       		.byte	0x4c
 1439 0400 CC010000 		.4byte	0x1cc
 1440 0404 0818     		.2byte	0x1808
 1441 0406 0C       		.uleb128 0xc
 1442 0407 42150000 		.4byte	.LASF101
 1443 040b 07       		.byte	0x7
 1444 040c 4D       		.byte	0x4d
 1445 040d CC010000 		.4byte	0x1cc
 1446 0411 0C18     		.2byte	0x180c
 1447 0413 0C       		.uleb128 0xc
ARM GAS  C:\Users\Rolf\AppData\Local\Temp\ccafVfle.s 			page 63


 1448 0414 34060000 		.4byte	.LASF102
 1449 0418 07       		.byte	0x7
 1450 0419 4E       		.byte	0x4e
 1451 041a CC010000 		.4byte	0x1cc
 1452 041e 1018     		.2byte	0x1810
 1453 0420 0C       		.uleb128 0xc
 1454 0421 F3190000 		.4byte	.LASF103
 1455 0425 07       		.byte	0x7
 1456 0426 4F       		.byte	0x4f
 1457 0427 F5070000 		.4byte	0x7f5
 1458 042b 1418     		.2byte	0x1814
 1459 042d 0C       		.uleb128 0xc
 1460 042e D0080000 		.4byte	.LASF104
 1461 0432 07       		.byte	0x7
 1462 0433 50       		.byte	0x50
 1463 0434 C6070000 		.4byte	0x7c6
 1464 0438 1618     		.2byte	0x1816
 1465 043a 0C       		.uleb128 0xc
 1466 043b AA0D0000 		.4byte	.LASF105
 1467 043f 07       		.byte	0x7
 1468 0440 51       		.byte	0x51
 1469 0441 CC010000 		.4byte	0x1cc
 1470 0445 1818     		.2byte	0x1818
 1471 0447 0C       		.uleb128 0xc
 1472 0448 52050000 		.4byte	.LASF106
 1473 044c 07       		.byte	0x7
 1474 044d 52       		.byte	0x52
 1475 044e CC010000 		.4byte	0x1cc
 1476 0452 1C18     		.2byte	0x181c
 1477 0454 0C       		.uleb128 0xc
 1478 0455 0F130000 		.4byte	.LASF107
 1479 0459 07       		.byte	0x7
 1480 045a 53       		.byte	0x53
 1481 045b CC010000 		.4byte	0x1cc
 1482 045f 2018     		.2byte	0x1820
 1483 0461 0C       		.uleb128 0xc
 1484 0462 67120000 		.4byte	.LASF108
 1485 0466 07       		.byte	0x7
 1486 0467 54       		.byte	0x54
 1487 0468 CC010000 		.4byte	0x1cc
 1488 046c 2418     		.2byte	0x1824
 1489 046e 0C       		.uleb128 0xc
 1490 046f FE190000 		.4byte	.LASF109
 1491 0473 07       		.byte	0x7
 1492 0474 55       		.byte	0x55
 1493 0475 4D090000 		.4byte	0x94d
 1494 0479 2818     		.2byte	0x1828
 1495 047b 0C       		.uleb128 0xc
 1496 047c 200B0000 		.4byte	.LASF110
 1497 0480 07       		.byte	0x7
 1498 0481 56       		.byte	0x56
 1499 0482 CC010000 		.4byte	0x1cc
 1500 0486 4418     		.2byte	0x1844
 1501 0488 0C       		.uleb128 0xc
 1502 0489 B0050000 		.4byte	.LASF111
 1503 048d 07       		.byte	0x7
 1504 048e 57       		.byte	0x57
ARM GAS  C:\Users\Rolf\AppData\Local\Temp\ccafVfle.s 			page 64


 1505 048f CC010000 		.4byte	0x1cc
 1506 0493 4818     		.2byte	0x1848
 1507 0495 0C       		.uleb128 0xc
 1508 0496 CD0F0000 		.4byte	.LASF112
 1509 049a 07       		.byte	0x7
 1510 049b 58       		.byte	0x58
 1511 049c CC010000 		.4byte	0x1cc
 1512 04a0 4C18     		.2byte	0x184c
 1513 04a2 0C       		.uleb128 0xc
 1514 04a3 E5110000 		.4byte	.LASF113
 1515 04a7 07       		.byte	0x7
 1516 04a8 59       		.byte	0x59
 1517 04a9 CC010000 		.4byte	0x1cc
 1518 04ad 5018     		.2byte	0x1850
 1519 04af 0C       		.uleb128 0xc
 1520 04b0 091A0000 		.4byte	.LASF114
 1521 04b4 07       		.byte	0x7
 1522 04b5 5A       		.byte	0x5a
 1523 04b6 68090000 		.4byte	0x968
 1524 04ba 5418     		.2byte	0x1854
 1525 04bc 0C       		.uleb128 0xc
 1526 04bd AA030000 		.4byte	.LASF115
 1527 04c1 07       		.byte	0x7
 1528 04c2 5B       		.byte	0x5b
 1529 04c3 CC010000 		.4byte	0x1cc
 1530 04c7 0020     		.2byte	0x2000
 1531 04c9 0C       		.uleb128 0xc
 1532 04ca DB0C0000 		.4byte	.LASF116
 1533 04ce 07       		.byte	0x7
 1534 04cf 5C       		.byte	0x5c
 1535 04d0 CC010000 		.4byte	0x1cc
 1536 04d4 0420     		.2byte	0x2004
 1537 04d6 0C       		.uleb128 0xc
 1538 04d7 ED130000 		.4byte	.LASF117
 1539 04db 07       		.byte	0x7
 1540 04dc 5D       		.byte	0x5d
 1541 04dd CC010000 		.4byte	0x1cc
 1542 04e1 0820     		.2byte	0x2008
 1543 04e3 0C       		.uleb128 0xc
 1544 04e4 F9030000 		.4byte	.LASF118
 1545 04e8 07       		.byte	0x7
 1546 04e9 5E       		.byte	0x5e
 1547 04ea CC010000 		.4byte	0x1cc
 1548 04ee 0C20     		.2byte	0x200c
 1549 04f0 0C       		.uleb128 0xc
 1550 04f1 45110000 		.4byte	.LASF119
 1551 04f5 07       		.byte	0x7
 1552 04f6 5F       		.byte	0x5f
 1553 04f7 CC010000 		.4byte	0x1cc
 1554 04fb 1020     		.2byte	0x2010
 1555 04fd 0C       		.uleb128 0xc
 1556 04fe C0100000 		.4byte	.LASF120
 1557 0502 07       		.byte	0x7
 1558 0503 60       		.byte	0x60
 1559 0504 CC010000 		.4byte	0x1cc
 1560 0508 1420     		.2byte	0x2014
 1561 050a 0C       		.uleb128 0xc
ARM GAS  C:\Users\Rolf\AppData\Local\Temp\ccafVfle.s 			page 65


 1562 050b 141A0000 		.4byte	.LASF121
 1563 050f 07       		.byte	0x7
 1564 0510 61       		.byte	0x61
 1565 0511 82090000 		.4byte	0x982
 1566 0515 1820     		.2byte	0x2018
 1567 0517 0C       		.uleb128 0xc
 1568 0518 3D180000 		.4byte	.LASF122
 1569 051c 07       		.byte	0x7
 1570 051d 62       		.byte	0x62
 1571 051e 98090000 		.4byte	0x998
 1572 0522 D820     		.2byte	0x20d8
 1573 0524 0C       		.uleb128 0xc
 1574 0525 BC1D0000 		.4byte	.LASF123
 1575 0529 07       		.byte	0x7
 1576 052a 63       		.byte	0x63
 1577 052b AE090000 		.4byte	0x9ae
 1578 052f 005A     		.2byte	0x5a00
 1579 0531 0C       		.uleb128 0xc
 1580 0532 CF170000 		.4byte	.LASF124
 1581 0536 07       		.byte	0x7
 1582 0537 64       		.byte	0x64
 1583 0538 C4090000 		.4byte	0x9c4
 1584 053c 0066     		.2byte	0x6600
 1585 053e 0C       		.uleb128 0xc
 1586 053f 1F1A0000 		.4byte	.LASF125
 1587 0543 07       		.byte	0x7
 1588 0544 65       		.byte	0x65
 1589 0545 DF090000 		.4byte	0x9df
 1590 0549 006C     		.2byte	0x6c00
 1591 054b 0C       		.uleb128 0xc
 1592 054c 01190000 		.4byte	.LASF126
 1593 0550 07       		.byte	0x7
 1594 0551 66       		.byte	0x66
 1595 0552 CC010000 		.4byte	0x1cc
 1596 0556 0078     		.2byte	0x7800
 1597 0558 0C       		.uleb128 0xc
 1598 0559 47040000 		.4byte	.LASF127
 1599 055d 07       		.byte	0x7
 1600 055e 68       		.byte	0x68
 1601 055f CC010000 		.4byte	0x1cc
 1602 0563 0478     		.2byte	0x7804
 1603 0565 0C       		.uleb128 0xc
 1604 0566 B4000000 		.4byte	.LASF128
 1605 056a 07       		.byte	0x7
 1606 056b 69       		.byte	0x69
 1607 056c CC010000 		.4byte	0x1cc
 1608 0570 0878     		.2byte	0x7808
 1609 0572 0C       		.uleb128 0xc
 1610 0573 061D0000 		.4byte	.LASF129
 1611 0577 07       		.byte	0x7
 1612 0578 6B       		.byte	0x6b
 1613 0579 CC010000 		.4byte	0x1cc
 1614 057d 0C78     		.2byte	0x780c
 1615 057f 0C       		.uleb128 0xc
 1616 0580 65110000 		.4byte	.LASF130
 1617 0584 07       		.byte	0x7
 1618 0585 6C       		.byte	0x6c
ARM GAS  C:\Users\Rolf\AppData\Local\Temp\ccafVfle.s 			page 66


 1619 0586 CC010000 		.4byte	0x1cc
 1620 058a 1078     		.2byte	0x7810
 1621 058c 0C       		.uleb128 0xc
 1622 058d 74080000 		.4byte	.LASF131
 1623 0591 07       		.byte	0x7
 1624 0592 6D       		.byte	0x6d
 1625 0593 CC010000 		.4byte	0x1cc
 1626 0597 1478     		.2byte	0x7814
 1627 0599 0C       		.uleb128 0xc
 1628 059a 52140000 		.4byte	.LASF132
 1629 059e 07       		.byte	0x7
 1630 059f 6E       		.byte	0x6e
 1631 05a0 CC010000 		.4byte	0x1cc
 1632 05a4 1878     		.2byte	0x7818
 1633 05a6 0C       		.uleb128 0xc
 1634 05a7 2F140000 		.4byte	.LASF133
 1635 05ab 07       		.byte	0x7
 1636 05ac 6F       		.byte	0x6f
 1637 05ad CC010000 		.4byte	0x1cc
 1638 05b1 1C78     		.2byte	0x781c
 1639 05b3 0C       		.uleb128 0xc
 1640 05b4 2A1A0000 		.4byte	.LASF134
 1641 05b8 07       		.byte	0x7
 1642 05b9 70       		.byte	0x70
 1643 05ba F9090000 		.4byte	0x9f9
 1644 05be 2078     		.2byte	0x7820
 1645 05c0 0C       		.uleb128 0xc
 1646 05c1 E2050000 		.4byte	.LASF135
 1647 05c5 07       		.byte	0x7
 1648 05c6 71       		.byte	0x71
 1649 05c7 CC010000 		.4byte	0x1cc
 1650 05cb FC79     		.2byte	0x79fc
 1651 05cd 0C       		.uleb128 0xc
 1652 05ce C7000000 		.4byte	.LASF136
 1653 05d2 07       		.byte	0x7
 1654 05d3 72       		.byte	0x72
 1655 05d4 CC010000 		.4byte	0x1cc
 1656 05d8 007A     		.2byte	0x7a00
 1657 05da 0C       		.uleb128 0xc
 1658 05db 341C0000 		.4byte	.LASF137
 1659 05df 07       		.byte	0x7
 1660 05e0 74       		.byte	0x74
 1661 05e1 CC010000 		.4byte	0x1cc
 1662 05e5 047A     		.2byte	0x7a04
 1663 05e7 0C       		.uleb128 0xc
 1664 05e8 FB0C0000 		.4byte	.LASF138
 1665 05ec 07       		.byte	0x7
 1666 05ed 75       		.byte	0x75
 1667 05ee CC010000 		.4byte	0x1cc
 1668 05f2 087A     		.2byte	0x7a08
 1669 05f4 0C       		.uleb128 0xc
 1670 05f5 E4160000 		.4byte	.LASF139
 1671 05f9 07       		.byte	0x7
 1672 05fa 77       		.byte	0x77
 1673 05fb CC010000 		.4byte	0x1cc
 1674 05ff 0C7A     		.2byte	0x7a0c
 1675 0601 0C       		.uleb128 0xc
ARM GAS  C:\Users\Rolf\AppData\Local\Temp\ccafVfle.s 			page 67


 1676 0602 E21C0000 		.4byte	.LASF140
 1677 0606 07       		.byte	0x7
 1678 0607 78       		.byte	0x78
 1679 0608 CC010000 		.4byte	0x1cc
 1680 060c 107A     		.2byte	0x7a10
 1681 060e 0C       		.uleb128 0xc
 1682 060f 420C0000 		.4byte	.LASF141
 1683 0613 07       		.byte	0x7
 1684 0614 79       		.byte	0x79
 1685 0615 CC010000 		.4byte	0x1cc
 1686 0619 147A     		.2byte	0x7a14
 1687 061b 0C       		.uleb128 0xc
 1688 061c 1B000000 		.4byte	.LASF142
 1689 0620 07       		.byte	0x7
 1690 0621 7B       		.byte	0x7b
 1691 0622 CC010000 		.4byte	0x1cc
 1692 0626 187A     		.2byte	0x7a18
 1693 0628 0C       		.uleb128 0xc
 1694 0629 91000000 		.4byte	.LASF143
 1695 062d 07       		.byte	0x7
 1696 062e 7C       		.byte	0x7c
 1697 062f CC010000 		.4byte	0x1cc
 1698 0633 1C7A     		.2byte	0x7a1c
 1699 0635 0C       		.uleb128 0xc
 1700 0636 351A0000 		.4byte	.LASF144
 1701 063a 07       		.byte	0x7
 1702 063b 7D       		.byte	0x7d
 1703 063c 030A0000 		.4byte	0xa03
 1704 0640 207A     		.2byte	0x7a20
 1705 0642 0C       		.uleb128 0xc
 1706 0643 C71D0000 		.4byte	.LASF145
 1707 0647 07       		.byte	0x7
 1708 0648 7E       		.byte	0x7e
 1709 0649 CC010000 		.4byte	0x1cc
 1710 064d FC7B     		.2byte	0x7bfc
 1711 064f 0C       		.uleb128 0xc
 1712 0650 060B0000 		.4byte	.LASF146
 1713 0654 07       		.byte	0x7
 1714 0655 80       		.byte	0x80
 1715 0656 CC010000 		.4byte	0x1cc
 1716 065a 007C     		.2byte	0x7c00
 1717 065c 0C       		.uleb128 0xc
 1718 065d C7120000 		.4byte	.LASF147
 1719 0661 07       		.byte	0x7
 1720 0662 82       		.byte	0x82
 1721 0663 CC010000 		.4byte	0x1cc
 1722 0667 047C     		.2byte	0x7c04
 1723 0669 0C       		.uleb128 0xc
 1724 066a 88170000 		.4byte	.LASF148
 1725 066e 07       		.byte	0x7
 1726 066f 83       		.byte	0x83
 1727 0670 CC010000 		.4byte	0x1cc
 1728 0674 087C     		.2byte	0x7c08
 1729 0676 0C       		.uleb128 0xc
 1730 0677 1E080000 		.4byte	.LASF149
 1731 067b 07       		.byte	0x7
 1732 067c 84       		.byte	0x84
ARM GAS  C:\Users\Rolf\AppData\Local\Temp\ccafVfle.s 			page 68


 1733 067d CC010000 		.4byte	0x1cc
 1734 0681 0C7C     		.2byte	0x7c0c
 1735 0683 0C       		.uleb128 0xc
 1736 0684 E50D0000 		.4byte	.LASF150
 1737 0688 07       		.byte	0x7
 1738 0689 86       		.byte	0x86
 1739 068a CC010000 		.4byte	0x1cc
 1740 068e 107C     		.2byte	0x7c10
 1741 0690 0C       		.uleb128 0xc
 1742 0691 44010000 		.4byte	.LASF151
 1743 0695 07       		.byte	0x7
 1744 0696 87       		.byte	0x87
 1745 0697 CC010000 		.4byte	0x1cc
 1746 069b 147C     		.2byte	0x7c14
 1747 069d 0C       		.uleb128 0xc
 1748 069e DA060000 		.4byte	.LASF152
 1749 06a2 07       		.byte	0x7
 1750 06a3 89       		.byte	0x89
 1751 06a4 CC010000 		.4byte	0x1cc
 1752 06a8 187C     		.2byte	0x7c18
 1753 06aa 0C       		.uleb128 0xc
 1754 06ab 0E020000 		.4byte	.LASF153
 1755 06af 07       		.byte	0x7
 1756 06b0 8A       		.byte	0x8a
 1757 06b1 CC010000 		.4byte	0x1cc
 1758 06b5 1C7C     		.2byte	0x7c1c
 1759 06b7 0C       		.uleb128 0xc
 1760 06b8 C1030000 		.4byte	.LASF154
 1761 06bc 07       		.byte	0x7
 1762 06bd 8C       		.byte	0x8c
 1763 06be CC010000 		.4byte	0x1cc
 1764 06c2 207C     		.2byte	0x7c20
 1765 06c4 0C       		.uleb128 0xc
 1766 06c5 290C0000 		.4byte	.LASF155
 1767 06c9 07       		.byte	0x7
 1768 06ca 8F       		.byte	0x8f
 1769 06cb CC010000 		.4byte	0x1cc
 1770 06cf 247C     		.2byte	0x7c24
 1771 06d1 0C       		.uleb128 0xc
 1772 06d2 401A0000 		.4byte	.LASF156
 1773 06d6 07       		.byte	0x7
 1774 06d7 91       		.byte	0x91
 1775 06d8 1D0A0000 		.4byte	0xa1d
 1776 06dc 287C     		.2byte	0x7c28
 1777 06de 0C       		.uleb128 0xc
 1778 06df 6E070000 		.4byte	.LASF157
 1779 06e3 07       		.byte	0x7
 1780 06e4 92       		.byte	0x92
 1781 06e5 CC010000 		.4byte	0x1cc
 1782 06e9 F47D     		.2byte	0x7df4
 1783 06eb 0C       		.uleb128 0xc
 1784 06ec 5A110000 		.4byte	.LASF158
 1785 06f0 07       		.byte	0x7
 1786 06f1 93       		.byte	0x93
 1787 06f2 CC010000 		.4byte	0x1cc
 1788 06f6 F87D     		.2byte	0x7df8
 1789 06f8 0C       		.uleb128 0xc
ARM GAS  C:\Users\Rolf\AppData\Local\Temp\ccafVfle.s 			page 69


 1790 06f9 F4170000 		.4byte	.LASF159
 1791 06fd 07       		.byte	0x7
 1792 06fe 94       		.byte	0x94
 1793 06ff CC010000 		.4byte	0x1cc
 1794 0703 FC7D     		.2byte	0x7dfc
 1795 0705 0C       		.uleb128 0xc
 1796 0706 6E020000 		.4byte	.LASF160
 1797 070a 07       		.byte	0x7
 1798 070b 95       		.byte	0x95
 1799 070c CC010000 		.4byte	0x1cc
 1800 0710 007E     		.2byte	0x7e00
 1801 0712 0C       		.uleb128 0xc
 1802 0713 D6040000 		.4byte	.LASF161
 1803 0717 07       		.byte	0x7
 1804 0718 97       		.byte	0x97
 1805 0719 CC010000 		.4byte	0x1cc
 1806 071d 047E     		.2byte	0x7e04
 1807 071f 0C       		.uleb128 0xc
 1808 0720 2C1B0000 		.4byte	.LASF162
 1809 0724 07       		.byte	0x7
 1810 0725 98       		.byte	0x98
 1811 0726 CC010000 		.4byte	0x1cc
 1812 072a 087E     		.2byte	0x7e08
 1813 072c 0C       		.uleb128 0xc
 1814 072d 10010000 		.4byte	.LASF163
 1815 0731 07       		.byte	0x7
 1816 0732 99       		.byte	0x99
 1817 0733 CC010000 		.4byte	0x1cc
 1818 0737 0C7E     		.2byte	0x7e0c
 1819 0739 0C       		.uleb128 0xc
 1820 073a 59000000 		.4byte	.LASF164
 1821 073e 07       		.byte	0x7
 1822 073f 9B       		.byte	0x9b
 1823 0740 CC010000 		.4byte	0x1cc
 1824 0744 107E     		.2byte	0x7e10
 1825 0746 0C       		.uleb128 0xc
 1826 0747 5E1B0000 		.4byte	.LASF165
 1827 074b 07       		.byte	0x7
 1828 074c 9C       		.byte	0x9c
 1829 074d CC010000 		.4byte	0x1cc
 1830 0751 147E     		.2byte	0x7e14
 1831 0753 0C       		.uleb128 0xc
 1832 0754 D61D0000 		.4byte	.LASF166
 1833 0758 07       		.byte	0x7
 1834 0759 9E       		.byte	0x9e
 1835 075a CC010000 		.4byte	0x1cc
 1836 075e 187E     		.2byte	0x7e18
 1837 0760 0C       		.uleb128 0xc
 1838 0761 77030000 		.4byte	.LASF167
 1839 0765 07       		.byte	0x7
 1840 0766 9F       		.byte	0x9f
 1841 0767 CC010000 		.4byte	0x1cc
 1842 076b 1C7E     		.2byte	0x7e1c
 1843 076d 0C       		.uleb128 0xc
 1844 076e 03170000 		.4byte	.LASF168
 1845 0772 07       		.byte	0x7
 1846 0773 A1       		.byte	0xa1
ARM GAS  C:\Users\Rolf\AppData\Local\Temp\ccafVfle.s 			page 70


 1847 0774 CC010000 		.4byte	0x1cc
 1848 0778 207E     		.2byte	0x7e20
 1849 077a 0C       		.uleb128 0xc
 1850 077b A1040000 		.4byte	.LASF169
 1851 077f 07       		.byte	0x7
 1852 0780 A4       		.byte	0xa4
 1853 0781 CC010000 		.4byte	0x1cc
 1854 0785 247E     		.2byte	0x7e24
 1855 0787 0C       		.uleb128 0xc
 1856 0788 4B1A0000 		.4byte	.LASF170
 1857 078c 07       		.byte	0x7
 1858 078d A7       		.byte	0xa7
 1859 078e 270A0000 		.4byte	0xa27
 1860 0792 287E     		.2byte	0x7e28
 1861 0794 0C       		.uleb128 0xc
 1862 0795 88080000 		.4byte	.LASF171
 1863 0799 07       		.byte	0x7
 1864 079a A8       		.byte	0xa8
 1865 079b CC010000 		.4byte	0x1cc
 1866 079f F47F     		.2byte	0x7ff4
 1867 07a1 0C       		.uleb128 0xc
 1868 07a2 941D0000 		.4byte	.LASF172
 1869 07a6 07       		.byte	0x7
 1870 07a7 A9       		.byte	0xa9
 1871 07a8 CC010000 		.4byte	0x1cc
 1872 07ac F87F     		.2byte	0x7ff8
 1873 07ae 0C       		.uleb128 0xc
 1874 07af 9B060000 		.4byte	.LASF173
 1875 07b3 07       		.byte	0x7
 1876 07b4 AA       		.byte	0xaa
 1877 07b5 CC010000 		.4byte	0x1cc
 1878 07b9 FC7F     		.2byte	0x7ffc
 1879 07bb 00       		.byte	0
 1880 07bc 08       		.uleb128 0x8
 1881 07bd 97000000 		.4byte	0x97
 1882 07c1 09       		.uleb128 0x9
 1883 07c2 BC070000 		.4byte	0x7bc
 1884 07c6 08       		.uleb128 0x8
 1885 07c7 AD000000 		.4byte	0xad
 1886 07cb 0D       		.uleb128 0xd
 1887 07cc D1010000 		.4byte	0x1d1
 1888 07d0 DB070000 		.4byte	0x7db
 1889 07d4 0E       		.uleb128 0xe
 1890 07d5 C5010000 		.4byte	0x1c5
 1891 07d9 01       		.byte	0x1
 1892 07da 00       		.byte	0
 1893 07db 08       		.uleb128 0x8
 1894 07dc CB070000 		.4byte	0x7cb
 1895 07e0 09       		.uleb128 0x9
 1896 07e1 DB070000 		.4byte	0x7db
 1897 07e5 0D       		.uleb128 0xd
 1898 07e6 F5070000 		.4byte	0x7f5
 1899 07ea F5070000 		.4byte	0x7f5
 1900 07ee 0E       		.uleb128 0xe
 1901 07ef C5010000 		.4byte	0x1c5
 1902 07f3 02       		.byte	0x2
 1903 07f4 00       		.byte	0
ARM GAS  C:\Users\Rolf\AppData\Local\Temp\ccafVfle.s 			page 71


 1904 07f5 09       		.uleb128 0x9
 1905 07f6 C6070000 		.4byte	0x7c6
 1906 07fa 08       		.uleb128 0x8
 1907 07fb E5070000 		.4byte	0x7e5
 1908 07ff 09       		.uleb128 0x9
 1909 0800 FA070000 		.4byte	0x7fa
 1910 0804 0D       		.uleb128 0xd
 1911 0805 D1010000 		.4byte	0x1d1
 1912 0809 15080000 		.4byte	0x815
 1913 080d 0F       		.uleb128 0xf
 1914 080e C5010000 		.4byte	0x1c5
 1915 0812 7901     		.2byte	0x179
 1916 0814 00       		.byte	0
 1917 0815 08       		.uleb128 0x8
 1918 0816 04080000 		.4byte	0x804
 1919 081a 09       		.uleb128 0x9
 1920 081b 15080000 		.4byte	0x815
 1921 081f 0D       		.uleb128 0xd
 1922 0820 BC070000 		.4byte	0x7bc
 1923 0824 2F080000 		.4byte	0x82f
 1924 0828 0E       		.uleb128 0xe
 1925 0829 C5010000 		.4byte	0x1c5
 1926 082d 02       		.byte	0x2
 1927 082e 00       		.byte	0
 1928 082f 08       		.uleb128 0x8
 1929 0830 1F080000 		.4byte	0x81f
 1930 0834 0D       		.uleb128 0xd
 1931 0835 C1070000 		.4byte	0x7c1
 1932 0839 44080000 		.4byte	0x844
 1933 083d 0E       		.uleb128 0xe
 1934 083e C5010000 		.4byte	0x1c5
 1935 0842 3C       		.byte	0x3c
 1936 0843 00       		.byte	0
 1937 0844 08       		.uleb128 0x8
 1938 0845 34080000 		.4byte	0x834
 1939 0849 09       		.uleb128 0x9
 1940 084a 44080000 		.4byte	0x844
 1941 084e 0D       		.uleb128 0xd
 1942 084f D1010000 		.4byte	0x1d1
 1943 0853 5E080000 		.4byte	0x85e
 1944 0857 0E       		.uleb128 0xe
 1945 0858 C5010000 		.4byte	0x1c5
 1946 085c 07       		.byte	0x7
 1947 085d 00       		.byte	0
 1948 085e 08       		.uleb128 0x8
 1949 085f 4E080000 		.4byte	0x84e
 1950 0863 09       		.uleb128 0x9
 1951 0864 5E080000 		.4byte	0x85e
 1952 0868 0D       		.uleb128 0xd
 1953 0869 D1010000 		.4byte	0x1d1
 1954 086d 78080000 		.4byte	0x878
 1955 0871 0E       		.uleb128 0xe
 1956 0872 C5010000 		.4byte	0x1c5
 1957 0876 33       		.byte	0x33
 1958 0877 00       		.byte	0
 1959 0878 08       		.uleb128 0x8
 1960 0879 68080000 		.4byte	0x868
ARM GAS  C:\Users\Rolf\AppData\Local\Temp\ccafVfle.s 			page 72


 1961 087d 09       		.uleb128 0x9
 1962 087e 78080000 		.4byte	0x878
 1963 0882 0D       		.uleb128 0xd
 1964 0883 F5070000 		.4byte	0x7f5
 1965 0887 92080000 		.4byte	0x892
 1966 088b 0E       		.uleb128 0xe
 1967 088c C5010000 		.4byte	0x1c5
 1968 0890 5E       		.byte	0x5e
 1969 0891 00       		.byte	0
 1970 0892 08       		.uleb128 0x8
 1971 0893 82080000 		.4byte	0x882
 1972 0897 09       		.uleb128 0x9
 1973 0898 92080000 		.4byte	0x892
 1974 089c 0D       		.uleb128 0xd
 1975 089d CC010000 		.4byte	0x1cc
 1976 08a1 AC080000 		.4byte	0x8ac
 1977 08a5 0E       		.uleb128 0xe
 1978 08a6 C5010000 		.4byte	0x1c5
 1979 08aa 7F       		.byte	0x7f
 1980 08ab 00       		.byte	0
 1981 08ac 08       		.uleb128 0x8
 1982 08ad 9C080000 		.4byte	0x89c
 1983 08b1 08       		.uleb128 0x8
 1984 08b2 9C080000 		.4byte	0x89c
 1985 08b6 08       		.uleb128 0x8
 1986 08b7 9C080000 		.4byte	0x89c
 1987 08bb 08       		.uleb128 0x8
 1988 08bc 9C080000 		.4byte	0x89c
 1989 08c0 0D       		.uleb128 0xd
 1990 08c1 D1010000 		.4byte	0x1d1
 1991 08c5 D1080000 		.4byte	0x8d1
 1992 08c9 0F       		.uleb128 0xf
 1993 08ca C5010000 		.4byte	0x1c5
 1994 08ce 2D01     		.2byte	0x12d
 1995 08d0 00       		.byte	0
 1996 08d1 08       		.uleb128 0x8
 1997 08d2 C0080000 		.4byte	0x8c0
 1998 08d6 09       		.uleb128 0x9
 1999 08d7 D1080000 		.4byte	0x8d1
 2000 08db 0D       		.uleb128 0xd
 2001 08dc BC070000 		.4byte	0x7bc
 2002 08e0 EB080000 		.4byte	0x8eb
 2003 08e4 0E       		.uleb128 0xe
 2004 08e5 C5010000 		.4byte	0x1c5
 2005 08e9 0F       		.byte	0xf
 2006 08ea 00       		.byte	0
 2007 08eb 08       		.uleb128 0x8
 2008 08ec DB080000 		.4byte	0x8db
 2009 08f0 08       		.uleb128 0x8
 2010 08f1 DB080000 		.4byte	0x8db
 2011 08f5 0D       		.uleb128 0xd
 2012 08f6 CC010000 		.4byte	0x1cc
 2013 08fa 05090000 		.4byte	0x905
 2014 08fe 0E       		.uleb128 0xe
 2015 08ff C5010000 		.4byte	0x1c5
 2016 0903 0F       		.byte	0xf
 2017 0904 00       		.byte	0
ARM GAS  C:\Users\Rolf\AppData\Local\Temp\ccafVfle.s 			page 73


 2018 0905 08       		.uleb128 0x8
 2019 0906 F5080000 		.4byte	0x8f5
 2020 090a 08       		.uleb128 0x8
 2021 090b F5080000 		.4byte	0x8f5
 2022 090f 08       		.uleb128 0x8
 2023 0910 F5080000 		.4byte	0x8f5
 2024 0914 08       		.uleb128 0x8
 2025 0915 F5080000 		.4byte	0x8f5
 2026 0919 08       		.uleb128 0x8
 2027 091a F5080000 		.4byte	0x8f5
 2028 091e 0D       		.uleb128 0xd
 2029 091f D1010000 		.4byte	0x1d1
 2030 0923 2E090000 		.4byte	0x92e
 2031 0927 0E       		.uleb128 0xe
 2032 0928 C5010000 		.4byte	0x1c5
 2033 092c 79       		.byte	0x79
 2034 092d 00       		.byte	0
 2035 092e 08       		.uleb128 0x8
 2036 092f 1E090000 		.4byte	0x91e
 2037 0933 09       		.uleb128 0x9
 2038 0934 2E090000 		.4byte	0x92e
 2039 0938 0D       		.uleb128 0xd
 2040 0939 D1010000 		.4byte	0x1d1
 2041 093d 48090000 		.4byte	0x948
 2042 0941 0E       		.uleb128 0xe
 2043 0942 C5010000 		.4byte	0x1c5
 2044 0946 06       		.byte	0x6
 2045 0947 00       		.byte	0
 2046 0948 08       		.uleb128 0x8
 2047 0949 38090000 		.4byte	0x938
 2048 094d 09       		.uleb128 0x9
 2049 094e 48090000 		.4byte	0x948
 2050 0952 0D       		.uleb128 0xd
 2051 0953 D1010000 		.4byte	0x1d1
 2052 0957 63090000 		.4byte	0x963
 2053 095b 0F       		.uleb128 0xf
 2054 095c C5010000 		.4byte	0x1c5
 2055 0960 EA01     		.2byte	0x1ea
 2056 0962 00       		.byte	0
 2057 0963 08       		.uleb128 0x8
 2058 0964 52090000 		.4byte	0x952
 2059 0968 09       		.uleb128 0x9
 2060 0969 63090000 		.4byte	0x963
 2061 096d 0D       		.uleb128 0xd
 2062 096e D1010000 		.4byte	0x1d1
 2063 0972 7D090000 		.4byte	0x97d
 2064 0976 0E       		.uleb128 0xe
 2065 0977 C5010000 		.4byte	0x1c5
 2066 097b 2F       		.byte	0x2f
 2067 097c 00       		.byte	0
 2068 097d 08       		.uleb128 0x8
 2069 097e 6D090000 		.4byte	0x96d
 2070 0982 09       		.uleb128 0x9
 2071 0983 7D090000 		.4byte	0x97d
 2072 0987 0D       		.uleb128 0xd
 2073 0988 BC070000 		.4byte	0x7bc
 2074 098c 98090000 		.4byte	0x998
ARM GAS  C:\Users\Rolf\AppData\Local\Temp\ccafVfle.s 			page 74


 2075 0990 0F       		.uleb128 0xf
 2076 0991 C5010000 		.4byte	0x1c5
 2077 0995 2739     		.2byte	0x3927
 2078 0997 00       		.byte	0
 2079 0998 08       		.uleb128 0x8
 2080 0999 87090000 		.4byte	0x987
 2081 099d 0D       		.uleb128 0xd
 2082 099e BC070000 		.4byte	0x7bc
 2083 09a2 AE090000 		.4byte	0x9ae
 2084 09a6 0F       		.uleb128 0xf
 2085 09a7 C5010000 		.4byte	0x1c5
 2086 09ab FF0B     		.2byte	0xbff
 2087 09ad 00       		.byte	0
 2088 09ae 08       		.uleb128 0x8
 2089 09af 9D090000 		.4byte	0x99d
 2090 09b3 0D       		.uleb128 0xd
 2091 09b4 CC010000 		.4byte	0x1cc
 2092 09b8 C4090000 		.4byte	0x9c4
 2093 09bc 0F       		.uleb128 0xf
 2094 09bd C5010000 		.4byte	0x1c5
 2095 09c1 7F01     		.2byte	0x17f
 2096 09c3 00       		.byte	0
 2097 09c4 08       		.uleb128 0x8
 2098 09c5 B3090000 		.4byte	0x9b3
 2099 09c9 0D       		.uleb128 0xd
 2100 09ca D1010000 		.4byte	0x1d1
 2101 09ce DA090000 		.4byte	0x9da
 2102 09d2 0F       		.uleb128 0xf
 2103 09d3 C5010000 		.4byte	0x1c5
 2104 09d7 FF02     		.2byte	0x2ff
 2105 09d9 00       		.byte	0
 2106 09da 08       		.uleb128 0x8
 2107 09db C9090000 		.4byte	0x9c9
 2108 09df 09       		.uleb128 0x9
 2109 09e0 DA090000 		.4byte	0x9da
 2110 09e4 0D       		.uleb128 0xd
 2111 09e5 D1010000 		.4byte	0x1d1
 2112 09e9 F4090000 		.4byte	0x9f4
 2113 09ed 0E       		.uleb128 0xe
 2114 09ee C5010000 		.4byte	0x1c5
 2115 09f2 76       		.byte	0x76
 2116 09f3 00       		.byte	0
 2117 09f4 08       		.uleb128 0x8
 2118 09f5 E4090000 		.4byte	0x9e4
 2119 09f9 09       		.uleb128 0x9
 2120 09fa F4090000 		.4byte	0x9f4
 2121 09fe 08       		.uleb128 0x8
 2122 09ff E4090000 		.4byte	0x9e4
 2123 0a03 09       		.uleb128 0x9
 2124 0a04 FE090000 		.4byte	0x9fe
 2125 0a08 0D       		.uleb128 0xd
 2126 0a09 D1010000 		.4byte	0x1d1
 2127 0a0d 180A0000 		.4byte	0xa18
 2128 0a11 0E       		.uleb128 0xe
 2129 0a12 C5010000 		.4byte	0x1c5
 2130 0a16 72       		.byte	0x72
 2131 0a17 00       		.byte	0
ARM GAS  C:\Users\Rolf\AppData\Local\Temp\ccafVfle.s 			page 75


 2132 0a18 08       		.uleb128 0x8
 2133 0a19 080A0000 		.4byte	0xa08
 2134 0a1d 09       		.uleb128 0x9
 2135 0a1e 180A0000 		.4byte	0xa18
 2136 0a22 08       		.uleb128 0x8
 2137 0a23 080A0000 		.4byte	0xa08
 2138 0a27 09       		.uleb128 0x9
 2139 0a28 220A0000 		.4byte	0xa22
 2140 0a2c 03       		.uleb128 0x3
 2141 0a2d 37050000 		.4byte	.LASF174
 2142 0a31 07       		.byte	0x7
 2143 0a32 AC       		.byte	0xac
 2144 0a33 D6010000 		.4byte	0x1d6
 2145 0a37 0D       		.uleb128 0xd
 2146 0a38 D1010000 		.4byte	0x1d1
 2147 0a3c 470A0000 		.4byte	0xa47
 2148 0a40 0E       		.uleb128 0xe
 2149 0a41 C5010000 		.4byte	0x1c5
 2150 0a45 04       		.byte	0x4
 2151 0a46 00       		.byte	0
 2152 0a47 0D       		.uleb128 0xd
 2153 0a48 D1010000 		.4byte	0x1d1
 2154 0a4c 570A0000 		.4byte	0xa57
 2155 0a50 0E       		.uleb128 0xe
 2156 0a51 C5010000 		.4byte	0x1c5
 2157 0a55 0F       		.byte	0xf
 2158 0a56 00       		.byte	0
 2159 0a57 0D       		.uleb128 0xd
 2160 0a58 D1010000 		.4byte	0x1d1
 2161 0a5c 670A0000 		.4byte	0xa67
 2162 0a60 0E       		.uleb128 0xe
 2163 0a61 C5010000 		.4byte	0x1c5
 2164 0a65 1A       		.byte	0x1a
 2165 0a66 00       		.byte	0
 2166 0a67 0D       		.uleb128 0xd
 2167 0a68 D1010000 		.4byte	0x1d1
 2168 0a6c 770A0000 		.4byte	0xa77
 2169 0a70 0E       		.uleb128 0xe
 2170 0a71 C5010000 		.4byte	0x1c5
 2171 0a75 03       		.byte	0x3
 2172 0a76 00       		.byte	0
 2173 0a77 0D       		.uleb128 0xd
 2174 0a78 D1010000 		.4byte	0x1d1
 2175 0a7c 870A0000 		.4byte	0xa87
 2176 0a80 0E       		.uleb128 0xe
 2177 0a81 C5010000 		.4byte	0x1c5
 2178 0a85 3E       		.byte	0x3e
 2179 0a86 00       		.byte	0
 2180 0a87 0D       		.uleb128 0xd
 2181 0a88 D1010000 		.4byte	0x1d1
 2182 0a8c 970A0000 		.4byte	0xa97
 2183 0a90 0E       		.uleb128 0xe
 2184 0a91 C5010000 		.4byte	0x1c5
 2185 0a95 02       		.byte	0x2
 2186 0a96 00       		.byte	0
 2187 0a97 0A       		.uleb128 0xa
 2188 0a98 08F0     		.2byte	0xf008
ARM GAS  C:\Users\Rolf\AppData\Local\Temp\ccafVfle.s 			page 76


 2189 0a9a 08       		.byte	0x8
 2190 0a9b 21       		.byte	0x21
 2191 0a9c F10D0000 		.4byte	0xdf1
 2192 0aa0 0B       		.uleb128 0xb
 2193 0aa1 9C160000 		.4byte	.LASF175
 2194 0aa5 08       		.byte	0x8
 2195 0aa6 22       		.byte	0x22
 2196 0aa7 CC010000 		.4byte	0x1cc
 2197 0aab 00       		.byte	0
 2198 0aac 0B       		.uleb128 0xb
 2199 0aad 3B000000 		.4byte	.LASF58
 2200 0ab1 08       		.byte	0x8
 2201 0ab2 23       		.byte	0x23
 2202 0ab3 D1010000 		.4byte	0x1d1
 2203 0ab7 04       		.byte	0x4
 2204 0ab8 0B       		.uleb128 0xb
 2205 0ab9 76050000 		.4byte	.LASF176
 2206 0abd 08       		.byte	0x8
 2207 0abe 24       		.byte	0x24
 2208 0abf D1010000 		.4byte	0x1d1
 2209 0ac3 08       		.byte	0x8
 2210 0ac4 0B       		.uleb128 0xb
 2211 0ac5 84070000 		.4byte	.LASF61
 2212 0ac9 08       		.byte	0x8
 2213 0aca 25       		.byte	0x25
 2214 0acb D1010000 		.4byte	0x1d1
 2215 0acf 0C       		.byte	0xc
 2216 0ad0 0B       		.uleb128 0xb
 2217 0ad1 C7020000 		.4byte	.LASF177
 2218 0ad5 08       		.byte	0x8
 2219 0ad6 26       		.byte	0x26
 2220 0ad7 CC010000 		.4byte	0x1cc
 2221 0adb 10       		.byte	0x10
 2222 0adc 0B       		.uleb128 0xb
 2223 0add BB140000 		.4byte	.LASF63
 2224 0ae1 08       		.byte	0x8
 2225 0ae2 27       		.byte	0x27
 2226 0ae3 F60D0000 		.4byte	0xdf6
 2227 0ae7 14       		.byte	0x14
 2228 0ae8 0B       		.uleb128 0xb
 2229 0ae9 DB190000 		.4byte	.LASF178
 2230 0aed 08       		.byte	0x8
 2231 0aee 28       		.byte	0x28
 2232 0aef CC010000 		.4byte	0x1cc
 2233 0af3 20       		.byte	0x20
 2234 0af4 0B       		.uleb128 0xb
 2235 0af5 4D180000 		.4byte	.LASF179
 2236 0af9 08       		.byte	0x8
 2237 0afa 29       		.byte	0x29
 2238 0afb CC010000 		.4byte	0x1cc
 2239 0aff 24       		.byte	0x24
 2240 0b00 0B       		.uleb128 0xb
 2241 0b01 5A180000 		.4byte	.LASF180
 2242 0b05 08       		.byte	0x8
 2243 0b06 2A       		.byte	0x2a
 2244 0b07 CC010000 		.4byte	0x1cc
 2245 0b0b 28       		.byte	0x28
ARM GAS  C:\Users\Rolf\AppData\Local\Temp\ccafVfle.s 			page 77


 2246 0b0c 0B       		.uleb128 0xb
 2247 0b0d 67180000 		.4byte	.LASF181
 2248 0b11 08       		.byte	0x8
 2249 0b12 2B       		.byte	0x2b
 2250 0b13 CC010000 		.4byte	0x1cc
 2251 0b17 2C       		.byte	0x2c
 2252 0b18 0B       		.uleb128 0xb
 2253 0b19 74180000 		.4byte	.LASF182
 2254 0b1d 08       		.byte	0x8
 2255 0b1e 2C       		.byte	0x2c
 2256 0b1f CC010000 		.4byte	0x1cc
 2257 0b23 30       		.byte	0x30
 2258 0b24 0B       		.uleb128 0xb
 2259 0b25 8F180000 		.4byte	.LASF183
 2260 0b29 08       		.byte	0x8
 2261 0b2a 2D       		.byte	0x2d
 2262 0b2b CC010000 		.4byte	0x1cc
 2263 0b2f 34       		.byte	0x34
 2264 0b30 0B       		.uleb128 0xb
 2265 0b31 9C180000 		.4byte	.LASF184
 2266 0b35 08       		.byte	0x8
 2267 0b36 2E       		.byte	0x2e
 2268 0b37 CC010000 		.4byte	0x1cc
 2269 0b3b 38       		.byte	0x38
 2270 0b3c 0B       		.uleb128 0xb
 2271 0b3d 9C170000 		.4byte	.LASF185
 2272 0b41 08       		.byte	0x8
 2273 0b42 2F       		.byte	0x2f
 2274 0b43 CC010000 		.4byte	0x1cc
 2275 0b47 3C       		.byte	0x3c
 2276 0b48 0B       		.uleb128 0xb
 2277 0b49 C5140000 		.4byte	.LASF65
 2278 0b4d 08       		.byte	0x8
 2279 0b4e 30       		.byte	0x30
 2280 0b4f 000E0000 		.4byte	0xe00
 2281 0b53 40       		.byte	0x40
 2282 0b54 0B       		.uleb128 0xb
 2283 0b55 7D120000 		.4byte	.LASF186
 2284 0b59 08       		.byte	0x8
 2285 0b5a 31       		.byte	0x31
 2286 0b5b CC010000 		.4byte	0x1cc
 2287 0b5f 80       		.byte	0x80
 2288 0b60 0B       		.uleb128 0xb
 2289 0b61 9B100000 		.4byte	.LASF187
 2290 0b65 08       		.byte	0x8
 2291 0b66 32       		.byte	0x32
 2292 0b67 CC010000 		.4byte	0x1cc
 2293 0b6b 84       		.byte	0x84
 2294 0b6c 0B       		.uleb128 0xb
 2295 0b6d 47140000 		.4byte	.LASF188
 2296 0b71 08       		.byte	0x8
 2297 0b72 33       		.byte	0x33
 2298 0b73 D1010000 		.4byte	0x1d1
 2299 0b77 88       		.byte	0x88
 2300 0b78 0B       		.uleb128 0xb
 2301 0b79 CF140000 		.4byte	.LASF75
 2302 0b7d 08       		.byte	0x8
ARM GAS  C:\Users\Rolf\AppData\Local\Temp\ccafVfle.s 			page 78


 2303 0b7e 34       		.byte	0x34
 2304 0b7f D1010000 		.4byte	0x1d1
 2305 0b83 8C       		.byte	0x8c
 2306 0b84 0B       		.uleb128 0xb
 2307 0b85 ED0C0000 		.4byte	.LASF189
 2308 0b89 08       		.byte	0x8
 2309 0b8a 35       		.byte	0x35
 2310 0b8b CC010000 		.4byte	0x1cc
 2311 0b8f 90       		.byte	0x90
 2312 0b90 0B       		.uleb128 0xb
 2313 0b91 D9140000 		.4byte	.LASF78
 2314 0b95 08       		.byte	0x8
 2315 0b96 36       		.byte	0x36
 2316 0b97 0A0E0000 		.4byte	0xe0a
 2317 0b9b 94       		.byte	0x94
 2318 0b9c 0B       		.uleb128 0xb
 2319 0b9d 8F050000 		.4byte	.LASF190
 2320 0ba1 08       		.byte	0x8
 2321 0ba2 37       		.byte	0x37
 2322 0ba3 CC010000 		.4byte	0x1cc
 2323 0ba7 A0       		.byte	0xa0
 2324 0ba8 0B       		.uleb128 0xb
 2325 0ba9 E3140000 		.4byte	.LASF80
 2326 0bad 08       		.byte	0x8
 2327 0bae 38       		.byte	0x38
 2328 0baf 240E0000 		.4byte	0xe24
 2329 0bb3 A4       		.byte	0xa4
 2330 0bb4 0C       		.uleb128 0xc
 2331 0bb5 DD0A0000 		.4byte	.LASF191
 2332 0bb9 08       		.byte	0x8
 2333 0bba 39       		.byte	0x39
 2334 0bbb CC010000 		.4byte	0x1cc
 2335 0bbf 0001     		.2byte	0x100
 2336 0bc1 0C       		.uleb128 0xc
 2337 0bc2 ED140000 		.4byte	.LASF83
 2338 0bc6 08       		.byte	0x8
 2339 0bc7 3A       		.byte	0x3a
 2340 0bc8 3E0E0000 		.4byte	0xe3e
 2341 0bcc 0401     		.2byte	0x104
 2342 0bce 0C       		.uleb128 0xc
 2343 0bcf CB070000 		.4byte	.LASF192
 2344 0bd3 08       		.byte	0x8
 2345 0bd4 3B       		.byte	0x3b
 2346 0bd5 430E0000 		.4byte	0xe43
 2347 0bd9 4001     		.2byte	0x140
 2348 0bdb 0C       		.uleb128 0xc
 2349 0bdc 76160000 		.4byte	.LASF193
 2350 0be0 08       		.byte	0x8
 2351 0be1 3C       		.byte	0x3c
 2352 0be2 CC010000 		.4byte	0x1cc
 2353 0be6 8001     		.2byte	0x180
 2354 0be8 0C       		.uleb128 0xc
 2355 0be9 D81C0000 		.4byte	.LASF88
 2356 0bed 08       		.byte	0x8
 2357 0bee 3D       		.byte	0x3d
 2358 0bef 4D0E0000 		.4byte	0xe4d
 2359 0bf3 8401     		.2byte	0x184
ARM GAS  C:\Users\Rolf\AppData\Local\Temp\ccafVfle.s 			page 79


 2360 0bf5 0C       		.uleb128 0xc
 2361 0bf6 75060000 		.4byte	.LASF194
 2362 0bfa 08       		.byte	0x8
 2363 0bfb 3E       		.byte	0x3e
 2364 0bfc CC010000 		.4byte	0x1cc
 2365 0c00 9001     		.2byte	0x190
 2366 0c02 0C       		.uleb128 0xc
 2367 0c03 06150000 		.4byte	.LASF96
 2368 0c07 08       		.byte	0x8
 2369 0c08 3F       		.byte	0x3f
 2370 0c09 570E0000 		.4byte	0xe57
 2371 0c0d 9401     		.2byte	0x194
 2372 0c0f 0C       		.uleb128 0xc
 2373 0c10 97080000 		.4byte	.LASF195
 2374 0c14 08       		.byte	0x8
 2375 0c15 40       		.byte	0x40
 2376 0c16 CC010000 		.4byte	0x1cc
 2377 0c1a A001     		.2byte	0x1a0
 2378 0c1c 0C       		.uleb128 0xc
 2379 0c1d E8190000 		.4byte	.LASF98
 2380 0c21 08       		.byte	0x8
 2381 0c22 41       		.byte	0x41
 2382 0c23 610E0000 		.4byte	0xe61
 2383 0c27 A401     		.2byte	0x1a4
 2384 0c29 0C       		.uleb128 0xc
 2385 0c2a 95140000 		.4byte	.LASF196
 2386 0c2e 08       		.byte	0x8
 2387 0c2f 42       		.byte	0x42
 2388 0c30 CC010000 		.4byte	0x1cc
 2389 0c34 B001     		.2byte	0x1b0
 2390 0c36 0C       		.uleb128 0xc
 2391 0c37 F3190000 		.4byte	.LASF103
 2392 0c3b 08       		.byte	0x8
 2393 0c3c 43       		.byte	0x43
 2394 0c3d 6B0E0000 		.4byte	0xe6b
 2395 0c41 B401     		.2byte	0x1b4
 2396 0c43 0C       		.uleb128 0xc
 2397 0c44 830B0000 		.4byte	.LASF197
 2398 0c48 08       		.byte	0x8
 2399 0c49 44       		.byte	0x44
 2400 0c4a CC010000 		.4byte	0x1cc
 2401 0c4e C001     		.2byte	0x1c0
 2402 0c50 0C       		.uleb128 0xc
 2403 0c51 FE190000 		.4byte	.LASF109
 2404 0c55 08       		.byte	0x8
 2405 0c56 45       		.byte	0x45
 2406 0c57 750E0000 		.4byte	0xe75
 2407 0c5b C401     		.2byte	0x1c4
 2408 0c5d 0C       		.uleb128 0xc
 2409 0c5e 6E050000 		.4byte	.LASF198
 2410 0c62 08       		.byte	0x8
 2411 0c63 46       		.byte	0x46
 2412 0c64 CC010000 		.4byte	0x1cc
 2413 0c68 D001     		.2byte	0x1d0
 2414 0c6a 0C       		.uleb128 0xc
 2415 0c6b 091A0000 		.4byte	.LASF114
 2416 0c6f 08       		.byte	0x8
ARM GAS  C:\Users\Rolf\AppData\Local\Temp\ccafVfle.s 			page 80


 2417 0c70 47       		.byte	0x47
 2418 0c71 7F0E0000 		.4byte	0xe7f
 2419 0c75 D401     		.2byte	0x1d4
 2420 0c77 0C       		.uleb128 0xc
 2421 0c78 B00C0000 		.4byte	.LASF199
 2422 0c7c 08       		.byte	0x8
 2423 0c7d 48       		.byte	0x48
 2424 0c7e CC010000 		.4byte	0x1cc
 2425 0c82 F001     		.2byte	0x1f0
 2426 0c84 0C       		.uleb128 0xc
 2427 0c85 6B010000 		.4byte	.LASF200
 2428 0c89 08       		.byte	0x8
 2429 0c8a 49       		.byte	0x49
 2430 0c8b CC010000 		.4byte	0x1cc
 2431 0c8f F401     		.2byte	0x1f4
 2432 0c91 0C       		.uleb128 0xc
 2433 0c92 141A0000 		.4byte	.LASF121
 2434 0c96 08       		.byte	0x8
 2435 0c97 4A       		.byte	0x4a
 2436 0c98 890E0000 		.4byte	0xe89
 2437 0c9c F801     		.2byte	0x1f8
 2438 0c9e 0C       		.uleb128 0xc
 2439 0c9f 2B010000 		.4byte	.LASF201
 2440 0ca3 08       		.byte	0x8
 2441 0ca4 4B       		.byte	0x4b
 2442 0ca5 D1010000 		.4byte	0x1d1
 2443 0ca9 0802     		.2byte	0x208
 2444 0cab 0C       		.uleb128 0xc
 2445 0cac 1F1A0000 		.4byte	.LASF125
 2446 0cb0 08       		.byte	0x8
 2447 0cb1 4C       		.byte	0x4c
 2448 0cb2 930E0000 		.4byte	0xe93
 2449 0cb6 0C02     		.2byte	0x20c
 2450 0cb8 0C       		.uleb128 0xc
 2451 0cb9 231B0000 		.4byte	.LASF202
 2452 0cbd 08       		.byte	0x8
 2453 0cbe 4D       		.byte	0x4d
 2454 0cbf CC010000 		.4byte	0x1cc
 2455 0cc3 2002     		.2byte	0x220
 2456 0cc5 0C       		.uleb128 0xc
 2457 0cc6 2A1A0000 		.4byte	.LASF134
 2458 0cca 08       		.byte	0x8
 2459 0ccb 4E       		.byte	0x4e
 2460 0ccc 9D0E0000 		.4byte	0xe9d
 2461 0cd0 2402     		.2byte	0x224
 2462 0cd2 0C       		.uleb128 0xc
 2463 0cd3 1C160000 		.4byte	.LASF203
 2464 0cd7 08       		.byte	0x8
 2465 0cd8 4F       		.byte	0x4f
 2466 0cd9 CC010000 		.4byte	0x1cc
 2467 0cdd 3002     		.2byte	0x230
 2468 0cdf 0C       		.uleb128 0xc
 2469 0ce0 351A0000 		.4byte	.LASF144
 2470 0ce4 08       		.byte	0x8
 2471 0ce5 50       		.byte	0x50
 2472 0ce6 A70E0000 		.4byte	0xea7
 2473 0cea 3402     		.2byte	0x234
ARM GAS  C:\Users\Rolf\AppData\Local\Temp\ccafVfle.s 			page 81


 2474 0cec 0C       		.uleb128 0xc
 2475 0ced A01D0000 		.4byte	.LASF204
 2476 0cf1 08       		.byte	0x8
 2477 0cf2 51       		.byte	0x51
 2478 0cf3 CC010000 		.4byte	0x1cc
 2479 0cf7 4002     		.2byte	0x240
 2480 0cf9 0C       		.uleb128 0xc
 2481 0cfa 401A0000 		.4byte	.LASF156
 2482 0cfe 08       		.byte	0x8
 2483 0cff 52       		.byte	0x52
 2484 0d00 B10E0000 		.4byte	0xeb1
 2485 0d04 4402     		.2byte	0x244
 2486 0d06 0C       		.uleb128 0xc
 2487 0d07 F1150000 		.4byte	.LASF205
 2488 0d0b 08       		.byte	0x8
 2489 0d0c 53       		.byte	0x53
 2490 0d0d CC010000 		.4byte	0x1cc
 2491 0d11 B002     		.2byte	0x2b0
 2492 0d13 0C       		.uleb128 0xc
 2493 0d14 4B1A0000 		.4byte	.LASF170
 2494 0d18 08       		.byte	0x8
 2495 0d19 54       		.byte	0x54
 2496 0d1a BB0E0000 		.4byte	0xebb
 2497 0d1e B402     		.2byte	0x2b4
 2498 0d20 0C       		.uleb128 0xc
 2499 0d21 03030000 		.4byte	.LASF206
 2500 0d25 08       		.byte	0x8
 2501 0d26 55       		.byte	0x55
 2502 0d27 CC010000 		.4byte	0x1cc
 2503 0d2b C002     		.2byte	0x2c0
 2504 0d2d 0C       		.uleb128 0xc
 2505 0d2e CC1B0000 		.4byte	.LASF207
 2506 0d32 08       		.byte	0x8
 2507 0d33 56       		.byte	0x56
 2508 0d34 C50E0000 		.4byte	0xec5
 2509 0d38 C402     		.2byte	0x2c4
 2510 0d3a 0C       		.uleb128 0xc
 2511 0d3b 3C0B0000 		.4byte	.LASF208
 2512 0d3f 08       		.byte	0x8
 2513 0d40 57       		.byte	0x57
 2514 0d41 CC010000 		.4byte	0x1cc
 2515 0d45 2003     		.2byte	0x320
 2516 0d47 0C       		.uleb128 0xc
 2517 0d48 D71B0000 		.4byte	.LASF209
 2518 0d4c 08       		.byte	0x8
 2519 0d4d 58       		.byte	0x58
 2520 0d4e DF0E0000 		.4byte	0xedf
 2521 0d52 2403     		.2byte	0x324
 2522 0d54 0C       		.uleb128 0xc
 2523 0d55 AD100000 		.4byte	.LASF210
 2524 0d59 08       		.byte	0x8
 2525 0d5a 59       		.byte	0x59
 2526 0d5b D1010000 		.4byte	0x1d1
 2527 0d5f 0004     		.2byte	0x400
 2528 0d61 0C       		.uleb128 0xc
 2529 0d62 E21B0000 		.4byte	.LASF211
 2530 0d66 08       		.byte	0x8
ARM GAS  C:\Users\Rolf\AppData\Local\Temp\ccafVfle.s 			page 82


 2531 0d67 5A       		.byte	0x5a
 2532 0d68 E90E0000 		.4byte	0xee9
 2533 0d6c 0404     		.2byte	0x404
 2534 0d6e 0C       		.uleb128 0xc
 2535 0d6f C20F0000 		.4byte	.LASF212
 2536 0d73 08       		.byte	0x8
 2537 0d74 5B       		.byte	0x5b
 2538 0d75 CC010000 		.4byte	0x1cc
 2539 0d79 0005     		.2byte	0x500
 2540 0d7b 0C       		.uleb128 0xc
 2541 0d7c ED1B0000 		.4byte	.LASF213
 2542 0d80 08       		.byte	0x8
 2543 0d81 5C       		.byte	0x5c
 2544 0d82 F30E0000 		.4byte	0xef3
 2545 0d86 0405     		.2byte	0x504
 2546 0d88 0C       		.uleb128 0xc
 2547 0d89 850C0000 		.4byte	.LASF214
 2548 0d8d 08       		.byte	0x8
 2549 0d8e 5D       		.byte	0x5d
 2550 0d8f CC010000 		.4byte	0x1cc
 2551 0d93 2005     		.2byte	0x520
 2552 0d95 0C       		.uleb128 0xc
 2553 0d96 F81B0000 		.4byte	.LASF215
 2554 0d9a 08       		.byte	0x8
 2555 0d9b 5E       		.byte	0x5e
 2556 0d9c FD0E0000 		.4byte	0xefd
 2557 0da0 2405     		.2byte	0x524
 2558 0da2 0C       		.uleb128 0xc
 2559 0da3 55190000 		.4byte	.LASF216
 2560 0da7 08       		.byte	0x8
 2561 0da8 5F       		.byte	0x5f
 2562 0da9 CC010000 		.4byte	0x1cc
 2563 0dad 4005     		.2byte	0x540
 2564 0daf 0C       		.uleb128 0xc
 2565 0db0 031C0000 		.4byte	.LASF217
 2566 0db4 08       		.byte	0x8
 2567 0db5 60       		.byte	0x60
 2568 0db6 070F0000 		.4byte	0xf07
 2569 0dba 4405     		.2byte	0x544
 2570 0dbc 0C       		.uleb128 0xc
 2571 0dbd 3D1D0000 		.4byte	.LASF218
 2572 0dc1 08       		.byte	0x8
 2573 0dc2 61       		.byte	0x61
 2574 0dc3 D1010000 		.4byte	0x1d1
 2575 0dc7 A005     		.2byte	0x5a0
 2576 0dc9 0C       		.uleb128 0xc
 2577 0dca 0E1C0000 		.4byte	.LASF219
 2578 0dce 08       		.byte	0x8
 2579 0dcf 62       		.byte	0x62
 2580 0dd0 220F0000 		.4byte	0xf22
 2581 0dd4 A405     		.2byte	0x5a4
 2582 0dd6 0C       		.uleb128 0xc
 2583 0dd7 3A040000 		.4byte	.LASF220
 2584 0ddb 08       		.byte	0x8
 2585 0ddc 63       		.byte	0x63
 2586 0ddd CC010000 		.4byte	0x1cc
 2587 0de1 00F0     		.2byte	0xf000
ARM GAS  C:\Users\Rolf\AppData\Local\Temp\ccafVfle.s 			page 83


 2588 0de3 0C       		.uleb128 0xc
 2589 0de4 AA120000 		.4byte	.LASF221
 2590 0de8 08       		.byte	0x8
 2591 0de9 64       		.byte	0x64
 2592 0dea CC010000 		.4byte	0x1cc
 2593 0dee 04F0     		.2byte	0xf004
 2594 0df0 00       		.byte	0
 2595 0df1 08       		.uleb128 0x8
 2596 0df2 870A0000 		.4byte	0xa87
 2597 0df6 09       		.uleb128 0x9
 2598 0df7 F10D0000 		.4byte	0xdf1
 2599 0dfb 08       		.uleb128 0x8
 2600 0dfc 470A0000 		.4byte	0xa47
 2601 0e00 09       		.uleb128 0x9
 2602 0e01 FB0D0000 		.4byte	0xdfb
 2603 0e05 08       		.uleb128 0x8
 2604 0e06 870A0000 		.4byte	0xa87
 2605 0e0a 09       		.uleb128 0x9
 2606 0e0b 050E0000 		.4byte	0xe05
 2607 0e0f 0D       		.uleb128 0xd
 2608 0e10 D1010000 		.4byte	0x1d1
 2609 0e14 1F0E0000 		.4byte	0xe1f
 2610 0e18 0E       		.uleb128 0xe
 2611 0e19 C5010000 		.4byte	0x1c5
 2612 0e1d 16       		.byte	0x16
 2613 0e1e 00       		.byte	0
 2614 0e1f 08       		.uleb128 0x8
 2615 0e20 0F0E0000 		.4byte	0xe0f
 2616 0e24 09       		.uleb128 0x9
 2617 0e25 1F0E0000 		.4byte	0xe1f
 2618 0e29 0D       		.uleb128 0xd
 2619 0e2a D1010000 		.4byte	0x1d1
 2620 0e2e 390E0000 		.4byte	0xe39
 2621 0e32 0E       		.uleb128 0xe
 2622 0e33 C5010000 		.4byte	0x1c5
 2623 0e37 0E       		.byte	0xe
 2624 0e38 00       		.byte	0
 2625 0e39 08       		.uleb128 0x8
 2626 0e3a 290E0000 		.4byte	0xe29
 2627 0e3e 09       		.uleb128 0x9
 2628 0e3f 390E0000 		.4byte	0xe39
 2629 0e43 08       		.uleb128 0x8
 2630 0e44 F5080000 		.4byte	0x8f5
 2631 0e48 08       		.uleb128 0x8
 2632 0e49 870A0000 		.4byte	0xa87
 2633 0e4d 09       		.uleb128 0x9
 2634 0e4e 480E0000 		.4byte	0xe48
 2635 0e52 08       		.uleb128 0x8
 2636 0e53 870A0000 		.4byte	0xa87
 2637 0e57 09       		.uleb128 0x9
 2638 0e58 520E0000 		.4byte	0xe52
 2639 0e5c 08       		.uleb128 0x8
 2640 0e5d 870A0000 		.4byte	0xa87
 2641 0e61 09       		.uleb128 0x9
 2642 0e62 5C0E0000 		.4byte	0xe5c
 2643 0e66 08       		.uleb128 0x8
 2644 0e67 870A0000 		.4byte	0xa87
ARM GAS  C:\Users\Rolf\AppData\Local\Temp\ccafVfle.s 			page 84


 2645 0e6b 09       		.uleb128 0x9
 2646 0e6c 660E0000 		.4byte	0xe66
 2647 0e70 08       		.uleb128 0x8
 2648 0e71 870A0000 		.4byte	0xa87
 2649 0e75 09       		.uleb128 0x9
 2650 0e76 700E0000 		.4byte	0xe70
 2651 0e7a 08       		.uleb128 0x8
 2652 0e7b 38090000 		.4byte	0x938
 2653 0e7f 09       		.uleb128 0x9
 2654 0e80 7A0E0000 		.4byte	0xe7a
 2655 0e84 08       		.uleb128 0x8
 2656 0e85 670A0000 		.4byte	0xa67
 2657 0e89 09       		.uleb128 0x9
 2658 0e8a 840E0000 		.4byte	0xe84
 2659 0e8e 08       		.uleb128 0x8
 2660 0e8f 370A0000 		.4byte	0xa37
 2661 0e93 09       		.uleb128 0x9
 2662 0e94 8E0E0000 		.4byte	0xe8e
 2663 0e98 08       		.uleb128 0x8
 2664 0e99 870A0000 		.4byte	0xa87
 2665 0e9d 09       		.uleb128 0x9
 2666 0e9e 980E0000 		.4byte	0xe98
 2667 0ea2 08       		.uleb128 0x8
 2668 0ea3 870A0000 		.4byte	0xa87
 2669 0ea7 09       		.uleb128 0x9
 2670 0ea8 A20E0000 		.4byte	0xea2
 2671 0eac 08       		.uleb128 0x8
 2672 0ead 570A0000 		.4byte	0xa57
 2673 0eb1 09       		.uleb128 0x9
 2674 0eb2 AC0E0000 		.4byte	0xeac
 2675 0eb6 08       		.uleb128 0x8
 2676 0eb7 870A0000 		.4byte	0xa87
 2677 0ebb 09       		.uleb128 0x9
 2678 0ebc B60E0000 		.4byte	0xeb6
 2679 0ec0 08       		.uleb128 0x8
 2680 0ec1 0F0E0000 		.4byte	0xe0f
 2681 0ec5 09       		.uleb128 0x9
 2682 0ec6 C00E0000 		.4byte	0xec0
 2683 0eca 0D       		.uleb128 0xd
 2684 0ecb D1010000 		.4byte	0x1d1
 2685 0ecf DA0E0000 		.4byte	0xeda
 2686 0ed3 0E       		.uleb128 0xe
 2687 0ed4 C5010000 		.4byte	0x1c5
 2688 0ed8 36       		.byte	0x36
 2689 0ed9 00       		.byte	0
 2690 0eda 08       		.uleb128 0x8
 2691 0edb CA0E0000 		.4byte	0xeca
 2692 0edf 09       		.uleb128 0x9
 2693 0ee0 DA0E0000 		.4byte	0xeda
 2694 0ee4 08       		.uleb128 0x8
 2695 0ee5 770A0000 		.4byte	0xa77
 2696 0ee9 09       		.uleb128 0x9
 2697 0eea E40E0000 		.4byte	0xee4
 2698 0eee 08       		.uleb128 0x8
 2699 0eef 38090000 		.4byte	0x938
 2700 0ef3 09       		.uleb128 0x9
 2701 0ef4 EE0E0000 		.4byte	0xeee
ARM GAS  C:\Users\Rolf\AppData\Local\Temp\ccafVfle.s 			page 85


 2702 0ef8 08       		.uleb128 0x8
 2703 0ef9 38090000 		.4byte	0x938
 2704 0efd 09       		.uleb128 0x9
 2705 0efe F80E0000 		.4byte	0xef8
 2706 0f02 08       		.uleb128 0x8
 2707 0f03 0F0E0000 		.4byte	0xe0f
 2708 0f07 09       		.uleb128 0x9
 2709 0f08 020F0000 		.4byte	0xf02
 2710 0f0c 0D       		.uleb128 0xd
 2711 0f0d D1010000 		.4byte	0x1d1
 2712 0f11 1D0F0000 		.4byte	0xf1d
 2713 0f15 0F       		.uleb128 0xf
 2714 0f16 C5010000 		.4byte	0x1c5
 2715 0f1a 963A     		.2byte	0x3a96
 2716 0f1c 00       		.byte	0
 2717 0f1d 08       		.uleb128 0x8
 2718 0f1e 0C0F0000 		.4byte	0xf0c
 2719 0f22 09       		.uleb128 0x9
 2720 0f23 1D0F0000 		.4byte	0xf1d
 2721 0f27 03       		.uleb128 0x3
 2722 0f28 DC090000 		.4byte	.LASF222
 2723 0f2c 08       		.byte	0x8
 2724 0f2d 65       		.byte	0x65
 2725 0f2e 970A0000 		.4byte	0xa97
 2726 0f32 10       		.uleb128 0x10
 2727 0f33 20       		.byte	0x20
 2728 0f34 09       		.byte	0x9
 2729 0f35 23       		.byte	0x23
 2730 0f36 830F0000 		.4byte	0xf83
 2731 0f3a 0B       		.uleb128 0xb
 2732 0f3b 7C070000 		.4byte	.LASF223
 2733 0f3f 09       		.byte	0x9
 2734 0f40 24       		.byte	0x24
 2735 0f41 D1010000 		.4byte	0x1d1
 2736 0f45 00       		.byte	0
 2737 0f46 0B       		.uleb128 0xb
 2738 0f47 B4110000 		.4byte	.LASF224
 2739 0f4b 09       		.byte	0x9
 2740 0f4c 25       		.byte	0x25
 2741 0f4d CC010000 		.4byte	0x1cc
 2742 0f51 04       		.byte	0x4
 2743 0f52 0B       		.uleb128 0xb
 2744 0f53 14000000 		.4byte	.LASF225
 2745 0f57 09       		.byte	0x9
 2746 0f58 26       		.byte	0x26
 2747 0f59 CC010000 		.4byte	0x1cc
 2748 0f5d 08       		.byte	0x8
 2749 0f5e 0B       		.uleb128 0xb
 2750 0f5f 69050000 		.4byte	.LASF226
 2751 0f63 09       		.byte	0x9
 2752 0f64 27       		.byte	0x27
 2753 0f65 CC010000 		.4byte	0x1cc
 2754 0f69 0C       		.byte	0xc
 2755 0f6a 0B       		.uleb128 0xb
 2756 0f6b A4160000 		.4byte	.LASF227
 2757 0f6f 09       		.byte	0x9
 2758 0f70 28       		.byte	0x28
ARM GAS  C:\Users\Rolf\AppData\Local\Temp\ccafVfle.s 			page 86


 2759 0f71 D1010000 		.4byte	0x1d1
 2760 0f75 10       		.byte	0x10
 2761 0f76 0B       		.uleb128 0xb
 2762 0f77 3B000000 		.4byte	.LASF58
 2763 0f7b 09       		.byte	0x9
 2764 0f7c 29       		.byte	0x29
 2765 0f7d 880F0000 		.4byte	0xf88
 2766 0f81 14       		.byte	0x14
 2767 0f82 00       		.byte	0
 2768 0f83 08       		.uleb128 0x8
 2769 0f84 870A0000 		.4byte	0xa87
 2770 0f88 09       		.uleb128 0x9
 2771 0f89 830F0000 		.4byte	0xf83
 2772 0f8d 03       		.uleb128 0x3
 2773 0f8e D4180000 		.4byte	.LASF228
 2774 0f92 09       		.byte	0x9
 2775 0f93 2A       		.byte	0x2a
 2776 0f94 320F0000 		.4byte	0xf32
 2777 0f98 10       		.uleb128 0x10
 2778 0f99 20       		.byte	0x20
 2779 0f9a 09       		.byte	0x9
 2780 0f9b 2F       		.byte	0x2f
 2781 0f9c DD0F0000 		.4byte	0xfdd
 2782 0fa0 0B       		.uleb128 0xb
 2783 0fa1 08070000 		.4byte	.LASF229
 2784 0fa5 09       		.byte	0x9
 2785 0fa6 30       		.byte	0x30
 2786 0fa7 CC010000 		.4byte	0x1cc
 2787 0fab 00       		.byte	0
 2788 0fac 0B       		.uleb128 0xb
 2789 0fad 8A040000 		.4byte	.LASF230
 2790 0fb1 09       		.byte	0x9
 2791 0fb2 31       		.byte	0x31
 2792 0fb3 CC010000 		.4byte	0x1cc
 2793 0fb7 04       		.byte	0x4
 2794 0fb8 0B       		.uleb128 0xb
 2795 0fb9 3B110000 		.4byte	.LASF231
 2796 0fbd 09       		.byte	0x9
 2797 0fbe 32       		.byte	0x32
 2798 0fbf CC010000 		.4byte	0x1cc
 2799 0fc3 08       		.byte	0x8
 2800 0fc4 0B       		.uleb128 0xb
 2801 0fc5 6E170000 		.4byte	.LASF232
 2802 0fc9 09       		.byte	0x9
 2803 0fca 33       		.byte	0x33
 2804 0fcb D1010000 		.4byte	0x1d1
 2805 0fcf 0C       		.byte	0xc
 2806 0fd0 0B       		.uleb128 0xb
 2807 0fd1 3B000000 		.4byte	.LASF58
 2808 0fd5 09       		.byte	0x9
 2809 0fd6 34       		.byte	0x34
 2810 0fd7 E20F0000 		.4byte	0xfe2
 2811 0fdb 10       		.byte	0x10
 2812 0fdc 00       		.byte	0
 2813 0fdd 08       		.uleb128 0x8
 2814 0fde 670A0000 		.4byte	0xa67
 2815 0fe2 09       		.uleb128 0x9
ARM GAS  C:\Users\Rolf\AppData\Local\Temp\ccafVfle.s 			page 87


 2816 0fe3 DD0F0000 		.4byte	0xfdd
 2817 0fe7 03       		.uleb128 0x3
 2818 0fe8 F5080000 		.4byte	.LASF233
 2819 0fec 09       		.byte	0x9
 2820 0fed 35       		.byte	0x35
 2821 0fee 980F0000 		.4byte	0xf98
 2822 0ff2 0A       		.uleb128 0xa
 2823 0ff3 0012     		.2byte	0x1200
 2824 0ff5 09       		.byte	0x9
 2825 0ff6 3A       		.byte	0x3a
 2826 0ff7 22100000 		.4byte	0x1022
 2827 0ffb 0B       		.uleb128 0xb
 2828 0ffc 5D1D0000 		.4byte	.LASF234
 2829 1000 09       		.byte	0x9
 2830 1001 3B       		.byte	0x3b
 2831 1002 22100000 		.4byte	0x1022
 2832 1006 00       		.byte	0
 2833 1007 0C       		.uleb128 0xc
 2834 1008 3B000000 		.4byte	.LASF58
 2835 100c 09       		.byte	0x9
 2836 100d 3C       		.byte	0x3c
 2837 100e 48100000 		.4byte	0x1048
 2838 1012 0002     		.2byte	0x200
 2839 1014 0C       		.uleb128 0xc
 2840 1015 5F010000 		.4byte	.LASF235
 2841 1019 09       		.byte	0x9
 2842 101a 3D       		.byte	0x3d
 2843 101b 4D100000 		.4byte	0x104d
 2844 101f 0010     		.2byte	0x1000
 2845 1021 00       		.byte	0
 2846 1022 0D       		.uleb128 0xd
 2847 1023 8D0F0000 		.4byte	0xf8d
 2848 1027 32100000 		.4byte	0x1032
 2849 102b 0E       		.uleb128 0xe
 2850 102c C5010000 		.4byte	0x1c5
 2851 1030 0F       		.byte	0xf
 2852 1031 00       		.byte	0
 2853 1032 0D       		.uleb128 0xd
 2854 1033 D1010000 		.4byte	0x1d1
 2855 1037 43100000 		.4byte	0x1043
 2856 103b 0F       		.uleb128 0xf
 2857 103c C5010000 		.4byte	0x1c5
 2858 1040 7F03     		.2byte	0x37f
 2859 1042 00       		.byte	0
 2860 1043 08       		.uleb128 0x8
 2861 1044 32100000 		.4byte	0x1032
 2862 1048 09       		.uleb128 0x9
 2863 1049 43100000 		.4byte	0x1043
 2864 104d 0D       		.uleb128 0xd
 2865 104e E70F0000 		.4byte	0xfe7
 2866 1052 5D100000 		.4byte	0x105d
 2867 1056 0E       		.uleb128 0xe
 2868 1057 C5010000 		.4byte	0x1c5
 2869 105b 0F       		.byte	0xf
 2870 105c 00       		.byte	0
 2871 105d 03       		.uleb128 0x3
 2872 105e 12110000 		.4byte	.LASF236
ARM GAS  C:\Users\Rolf\AppData\Local\Temp\ccafVfle.s 			page 88


 2873 1062 09       		.byte	0x9
 2874 1063 3E       		.byte	0x3e
 2875 1064 F20F0000 		.4byte	0xff2
 2876 1068 0D       		.uleb128 0xd
 2877 1069 D1010000 		.4byte	0x1d1
 2878 106d 78100000 		.4byte	0x1078
 2879 1071 0E       		.uleb128 0xe
 2880 1072 C5010000 		.4byte	0x1c5
 2881 1076 1C       		.byte	0x1c
 2882 1077 00       		.byte	0
 2883 1078 10       		.uleb128 0x10
 2884 1079 40       		.byte	0x40
 2885 107a 0A       		.byte	0xa
 2886 107b 22       		.byte	0x22
 2887 107c 11110000 		.4byte	0x1111
 2888 1080 0B       		.uleb128 0xb
 2889 1081 3B000000 		.4byte	.LASF58
 2890 1085 0A       		.byte	0xa
 2891 1086 23       		.byte	0x23
 2892 1087 D1010000 		.4byte	0x1d1
 2893 108b 00       		.byte	0
 2894 108c 0B       		.uleb128 0xb
 2895 108d E00E0000 		.4byte	.LASF237
 2896 1091 0A       		.byte	0xa
 2897 1092 24       		.byte	0x24
 2898 1093 CC010000 		.4byte	0x1cc
 2899 1097 04       		.byte	0x4
 2900 1098 0B       		.uleb128 0xb
 2901 1099 67060000 		.4byte	.LASF238
 2902 109d 0A       		.byte	0xa
 2903 109e 25       		.byte	0x25
 2904 109f CC010000 		.4byte	0x1cc
 2905 10a3 08       		.byte	0x8
 2906 10a4 0B       		.uleb128 0xb
 2907 10a5 7A1C0000 		.4byte	.LASF239
 2908 10a9 0A       		.byte	0xa
 2909 10aa 26       		.byte	0x26
 2910 10ab CC010000 		.4byte	0x1cc
 2911 10af 0C       		.byte	0xc
 2912 10b0 0B       		.uleb128 0xb
 2913 10b1 D41A0000 		.4byte	.LASF240
 2914 10b5 0A       		.byte	0xa
 2915 10b6 27       		.byte	0x27
 2916 10b7 CC010000 		.4byte	0x1cc
 2917 10bb 10       		.byte	0x10
 2918 10bc 0B       		.uleb128 0xb
 2919 10bd BD1A0000 		.4byte	.LASF241
 2920 10c1 0A       		.byte	0xa
 2921 10c2 28       		.byte	0x28
 2922 10c3 CC010000 		.4byte	0x1cc
 2923 10c7 14       		.byte	0x14
 2924 10c8 0B       		.uleb128 0xb
 2925 10c9 470F0000 		.4byte	.LASF242
 2926 10cd 0A       		.byte	0xa
 2927 10ce 29       		.byte	0x29
 2928 10cf CC010000 		.4byte	0x1cc
 2929 10d3 18       		.byte	0x18
ARM GAS  C:\Users\Rolf\AppData\Local\Temp\ccafVfle.s 			page 89


 2930 10d4 0B       		.uleb128 0xb
 2931 10d5 67160000 		.4byte	.LASF243
 2932 10d9 0A       		.byte	0xa
 2933 10da 2A       		.byte	0x2a
 2934 10db CC010000 		.4byte	0x1cc
 2935 10df 1C       		.byte	0x1c
 2936 10e0 0B       		.uleb128 0xb
 2937 10e1 E70A0000 		.4byte	.LASF244
 2938 10e5 0A       		.byte	0xa
 2939 10e6 2B       		.byte	0x2b
 2940 10e7 CC010000 		.4byte	0x1cc
 2941 10eb 20       		.byte	0x20
 2942 10ec 0B       		.uleb128 0xb
 2943 10ed 1E070000 		.4byte	.LASF245
 2944 10f1 0A       		.byte	0xa
 2945 10f2 2C       		.byte	0x2c
 2946 10f3 D1010000 		.4byte	0x1d1
 2947 10f7 24       		.byte	0x24
 2948 10f8 0B       		.uleb128 0xb
 2949 10f9 D9120000 		.4byte	.LASF246
 2950 10fd 0A       		.byte	0xa
 2951 10fe 2D       		.byte	0x2d
 2952 10ff CC010000 		.4byte	0x1cc
 2953 1103 28       		.byte	0x28
 2954 1104 0B       		.uleb128 0xb
 2955 1105 84070000 		.4byte	.LASF61
 2956 1109 0A       		.byte	0xa
 2957 110a 2E       		.byte	0x2e
 2958 110b 16110000 		.4byte	0x1116
 2959 110f 2C       		.byte	0x2c
 2960 1110 00       		.byte	0
 2961 1111 08       		.uleb128 0x8
 2962 1112 370A0000 		.4byte	0xa37
 2963 1116 09       		.uleb128 0x9
 2964 1117 11110000 		.4byte	0x1111
 2965 111b 03       		.uleb128 0x3
 2966 111c 9C010000 		.4byte	.LASF247
 2967 1120 0A       		.byte	0xa
 2968 1121 2F       		.byte	0x2f
 2969 1122 78100000 		.4byte	0x1078
 2970 1126 0A       		.uleb128 0xa
 2971 1127 30FF     		.2byte	0xff30
 2972 1129 0A       		.byte	0xa
 2973 112a 34       		.byte	0x34
 2974 112b 9A140000 		.4byte	0x149a
 2975 112f 0B       		.uleb128 0xb
 2976 1130 2C060000 		.4byte	.LASF248
 2977 1134 0A       		.byte	0xa
 2978 1135 35       		.byte	0x35
 2979 1136 CC010000 		.4byte	0x1cc
 2980 113a 00       		.byte	0
 2981 113b 0B       		.uleb128 0xb
 2982 113c 910C0000 		.4byte	.LASF249
 2983 1140 0A       		.byte	0xa
 2984 1141 36       		.byte	0x36
 2985 1142 CC010000 		.4byte	0x1cc
 2986 1146 04       		.byte	0x4
ARM GAS  C:\Users\Rolf\AppData\Local\Temp\ccafVfle.s 			page 90


 2987 1147 0B       		.uleb128 0xb
 2988 1148 630D0000 		.4byte	.LASF250
 2989 114c 0A       		.byte	0xa
 2990 114d 37       		.byte	0x37
 2991 114e CC010000 		.4byte	0x1cc
 2992 1152 08       		.byte	0x8
 2993 1153 0B       		.uleb128 0xb
 2994 1154 3B000000 		.4byte	.LASF58
 2995 1158 0A       		.byte	0xa
 2996 1159 38       		.byte	0x38
 2997 115a 9F140000 		.4byte	0x149f
 2998 115e 0C       		.byte	0xc
 2999 115f 0B       		.uleb128 0xb
 3000 1160 C4150000 		.4byte	.LASF251
 3001 1164 0A       		.byte	0xa
 3002 1165 39       		.byte	0x39
 3003 1166 CC010000 		.4byte	0x1cc
 3004 116a 14       		.byte	0x14
 3005 116b 0B       		.uleb128 0xb
 3006 116c B8080000 		.4byte	.LASF252
 3007 1170 0A       		.byte	0xa
 3008 1171 3A       		.byte	0x3a
 3009 1172 CC010000 		.4byte	0x1cc
 3010 1176 18       		.byte	0x18
 3011 1177 0B       		.uleb128 0xb
 3012 1178 54020000 		.4byte	.LASF253
 3013 117c 0A       		.byte	0xa
 3014 117d 3B       		.byte	0x3b
 3015 117e D1010000 		.4byte	0x1d1
 3016 1182 1C       		.byte	0x1c
 3017 1183 0B       		.uleb128 0xb
 3018 1184 84070000 		.4byte	.LASF61
 3019 1188 0A       		.byte	0xa
 3020 1189 3C       		.byte	0x3c
 3021 118a B9140000 		.4byte	0x14b9
 3022 118e 20       		.byte	0x20
 3023 118f 0B       		.uleb128 0xb
 3024 1190 46060000 		.4byte	.LASF254
 3025 1194 0A       		.byte	0xa
 3026 1195 3D       		.byte	0x3d
 3027 1196 BE140000 		.4byte	0x14be
 3028 119a 80       		.byte	0x80
 3029 119b 0B       		.uleb128 0xb
 3030 119c BB140000 		.4byte	.LASF63
 3031 11a0 0A       		.byte	0xa
 3032 11a1 3E       		.byte	0x3e
 3033 11a2 C8140000 		.4byte	0x14c8
 3034 11a6 C0       		.byte	0xc0
 3035 11a7 0C       		.uleb128 0xc
 3036 11a8 1B190000 		.4byte	.LASF255
 3037 11ac 0A       		.byte	0xa
 3038 11ad 3F       		.byte	0x3f
 3039 11ae CC010000 		.4byte	0x1cc
 3040 11b2 8001     		.2byte	0x180
 3041 11b4 0C       		.uleb128 0xc
 3042 11b5 CE0D0000 		.4byte	.LASF256
 3043 11b9 0A       		.byte	0xa
ARM GAS  C:\Users\Rolf\AppData\Local\Temp\ccafVfle.s 			page 91


 3044 11ba 40       		.byte	0x40
 3045 11bb CC010000 		.4byte	0x1cc
 3046 11bf 8401     		.2byte	0x184
 3047 11c1 0C       		.uleb128 0xc
 3048 11c2 9D0E0000 		.4byte	.LASF257
 3049 11c6 0A       		.byte	0xa
 3050 11c7 41       		.byte	0x41
 3051 11c8 CC010000 		.4byte	0x1cc
 3052 11cc 8801     		.2byte	0x188
 3053 11ce 0C       		.uleb128 0xc
 3054 11cf C5140000 		.4byte	.LASF65
 3055 11d3 0A       		.byte	0xa
 3056 11d4 42       		.byte	0x42
 3057 11d5 D2140000 		.4byte	0x14d2
 3058 11d9 8C01     		.2byte	0x18c
 3059 11db 0C       		.uleb128 0xc
 3060 11dc 2E160000 		.4byte	.LASF258
 3061 11e0 0A       		.byte	0xa
 3062 11e1 43       		.byte	0x43
 3063 11e2 D7140000 		.4byte	0x14d7
 3064 11e6 0002     		.2byte	0x200
 3065 11e8 0C       		.uleb128 0xc
 3066 11e9 F71C0000 		.4byte	.LASF259
 3067 11ed 0A       		.byte	0xa
 3068 11ee 44       		.byte	0x44
 3069 11ef E7140000 		.4byte	0x14e7
 3070 11f3 0003     		.2byte	0x300
 3071 11f5 0C       		.uleb128 0xc
 3072 11f6 57150000 		.4byte	.LASF260
 3073 11fa 0A       		.byte	0xa
 3074 11fb 45       		.byte	0x45
 3075 11fc EC140000 		.4byte	0x14ec
 3076 1200 4003     		.2byte	0x340
 3077 1202 0C       		.uleb128 0xc
 3078 1203 C7130000 		.4byte	.LASF261
 3079 1207 0A       		.byte	0xa
 3080 1208 46       		.byte	0x46
 3081 1209 F1140000 		.4byte	0x14f1
 3082 120d 8003     		.2byte	0x380
 3083 120f 0C       		.uleb128 0xc
 3084 1210 CF140000 		.4byte	.LASF75
 3085 1214 0A       		.byte	0xa
 3086 1215 47       		.byte	0x47
 3087 1216 0B150000 		.4byte	0x150b
 3088 121a C003     		.2byte	0x3c0
 3089 121c 0C       		.uleb128 0xc
 3090 121d 25040000 		.4byte	.LASF262
 3091 1221 0A       		.byte	0xa
 3092 1222 48       		.byte	0x48
 3093 1223 CC010000 		.4byte	0x1cc
 3094 1227 0005     		.2byte	0x500
 3095 1229 0C       		.uleb128 0xc
 3096 122a 250E0000 		.4byte	.LASF263
 3097 122e 0A       		.byte	0xa
 3098 122f 49       		.byte	0x49
 3099 1230 CC010000 		.4byte	0x1cc
 3100 1234 0405     		.2byte	0x504
ARM GAS  C:\Users\Rolf\AppData\Local\Temp\ccafVfle.s 			page 92


 3101 1236 0C       		.uleb128 0xc
 3102 1237 D9140000 		.4byte	.LASF78
 3103 123b 0A       		.byte	0xa
 3104 123c 4A       		.byte	0x4a
 3105 123d D1010000 		.4byte	0x1d1
 3106 1241 0805     		.2byte	0x508
 3107 1243 0C       		.uleb128 0xc
 3108 1244 41030000 		.4byte	.LASF264
 3109 1248 0A       		.byte	0xa
 3110 1249 4B       		.byte	0x4b
 3111 124a CC010000 		.4byte	0x1cc
 3112 124e 0C05     		.2byte	0x50c
 3113 1250 0C       		.uleb128 0xc
 3114 1251 C5180000 		.4byte	.LASF265
 3115 1255 0A       		.byte	0xa
 3116 1256 4C       		.byte	0x4c
 3117 1257 CC010000 		.4byte	0x1cc
 3118 125b 1005     		.2byte	0x510
 3119 125d 0C       		.uleb128 0xc
 3120 125e F90F0000 		.4byte	.LASF266
 3121 1262 0A       		.byte	0xa
 3122 1263 4D       		.byte	0x4d
 3123 1264 CC010000 		.4byte	0x1cc
 3124 1268 1405     		.2byte	0x514
 3125 126a 0C       		.uleb128 0xc
 3126 126b D4030000 		.4byte	.LASF267
 3127 126f 0A       		.byte	0xa
 3128 1270 4E       		.byte	0x4e
 3129 1271 CC010000 		.4byte	0x1cc
 3130 1275 1805     		.2byte	0x518
 3131 1277 0C       		.uleb128 0xc
 3132 1278 610A0000 		.4byte	.LASF268
 3133 127c 0A       		.byte	0xa
 3134 127d 4F       		.byte	0x4f
 3135 127e CC010000 		.4byte	0x1cc
 3136 1282 1C05     		.2byte	0x51c
 3137 1284 0C       		.uleb128 0xc
 3138 1285 6E0A0000 		.4byte	.LASF269
 3139 1289 0A       		.byte	0xa
 3140 128a 50       		.byte	0x50
 3141 128b D1010000 		.4byte	0x1d1
 3142 128f 2005     		.2byte	0x520
 3143 1291 0C       		.uleb128 0xc
 3144 1292 E3140000 		.4byte	.LASF80
 3145 1296 0A       		.byte	0xa
 3146 1297 51       		.byte	0x51
 3147 1298 15150000 		.4byte	0x1515
 3148 129c 2405     		.2byte	0x524
 3149 129e 0C       		.uleb128 0xc
 3150 129f 380F0000 		.4byte	.LASF270
 3151 12a3 0A       		.byte	0xa
 3152 12a4 52       		.byte	0x52
 3153 12a5 CC010000 		.4byte	0x1cc
 3154 12a9 2C05     		.2byte	0x52c
 3155 12ab 0C       		.uleb128 0xc
 3156 12ac 8D090000 		.4byte	.LASF271
 3157 12b0 0A       		.byte	0xa
ARM GAS  C:\Users\Rolf\AppData\Local\Temp\ccafVfle.s 			page 93


 3158 12b1 53       		.byte	0x53
 3159 12b2 D1010000 		.4byte	0x1d1
 3160 12b6 3005     		.2byte	0x530
 3161 12b8 0C       		.uleb128 0xc
 3162 12b9 ED140000 		.4byte	.LASF83
 3163 12bd 0A       		.byte	0xa
 3164 12be 54       		.byte	0x54
 3165 12bf 1F150000 		.4byte	0x151f
 3166 12c3 3405     		.2byte	0x534
 3167 12c5 0C       		.uleb128 0xc
 3168 12c6 28120000 		.4byte	.LASF272
 3169 12ca 0A       		.byte	0xa
 3170 12cb 55       		.byte	0x55
 3171 12cc CC010000 		.4byte	0x1cc
 3172 12d0 3C05     		.2byte	0x53c
 3173 12d2 0C       		.uleb128 0xc
 3174 12d3 D81C0000 		.4byte	.LASF88
 3175 12d7 0A       		.byte	0xa
 3176 12d8 56       		.byte	0x56
 3177 12d9 29150000 		.4byte	0x1529
 3178 12dd 4005     		.2byte	0x540
 3179 12df 0C       		.uleb128 0xc
 3180 12e0 54090000 		.4byte	.LASF273
 3181 12e4 0A       		.byte	0xa
 3182 12e5 57       		.byte	0x57
 3183 12e6 CC010000 		.4byte	0x1cc
 3184 12ea 8005     		.2byte	0x580
 3185 12ec 0C       		.uleb128 0xc
 3186 12ed 220A0000 		.4byte	.LASF274
 3187 12f1 0A       		.byte	0xa
 3188 12f2 58       		.byte	0x58
 3189 12f3 CC010000 		.4byte	0x1cc
 3190 12f7 8405     		.2byte	0x584
 3191 12f9 0C       		.uleb128 0xc
 3192 12fa 320A0000 		.4byte	.LASF275
 3193 12fe 0A       		.byte	0xa
 3194 12ff 59       		.byte	0x59
 3195 1300 CC010000 		.4byte	0x1cc
 3196 1304 8805     		.2byte	0x588
 3197 1306 0C       		.uleb128 0xc
 3198 1307 420A0000 		.4byte	.LASF276
 3199 130b 0A       		.byte	0xa
 3200 130c 5A       		.byte	0x5a
 3201 130d CC010000 		.4byte	0x1cc
 3202 1311 8C05     		.2byte	0x58c
 3203 1313 0C       		.uleb128 0xc
 3204 1314 F4020000 		.4byte	.LASF277
 3205 1318 0A       		.byte	0xa
 3206 1319 5B       		.byte	0x5b
 3207 131a CC010000 		.4byte	0x1cc
 3208 131e 9005     		.2byte	0x590
 3209 1320 0C       		.uleb128 0xc
 3210 1321 06150000 		.4byte	.LASF96
 3211 1325 0A       		.byte	0xa
 3212 1326 5C       		.byte	0x5c
 3213 1327 33150000 		.4byte	0x1533
 3214 132b 9405     		.2byte	0x594
ARM GAS  C:\Users\Rolf\AppData\Local\Temp\ccafVfle.s 			page 94


 3215 132d 0C       		.uleb128 0xc
 3216 132e BC0C0000 		.4byte	.LASF278
 3217 1332 0A       		.byte	0xa
 3218 1333 5D       		.byte	0x5d
 3219 1334 48150000 		.4byte	0x1548
 3220 1338 0006     		.2byte	0x600
 3221 133a 0C       		.uleb128 0xc
 3222 133b E8190000 		.4byte	.LASF98
 3223 133f 0A       		.byte	0xa
 3224 1340 5E       		.byte	0x5e
 3225 1341 D1010000 		.4byte	0x1d1
 3226 1345 3C06     		.2byte	0x63c
 3227 1347 0C       		.uleb128 0xc
 3228 1348 4C0B0000 		.4byte	.LASF279
 3229 134c 0A       		.byte	0xa
 3230 134d 5F       		.byte	0x5f
 3231 134e 4D150000 		.4byte	0x154d
 3232 1352 4006     		.2byte	0x640
 3233 1354 0C       		.uleb128 0xc
 3234 1355 F3190000 		.4byte	.LASF103
 3235 1359 0A       		.byte	0xa
 3236 135a 60       		.byte	0x60
 3237 135b 67150000 		.4byte	0x1567
 3238 135f 7C06     		.2byte	0x67c
 3239 1361 0C       		.uleb128 0xc
 3240 1362 DA160000 		.4byte	.LASF280
 3241 1366 0A       		.byte	0xa
 3242 1367 61       		.byte	0x61
 3243 1368 CC010000 		.4byte	0x1cc
 3244 136c 0007     		.2byte	0x700
 3245 136e 0C       		.uleb128 0xc
 3246 136f 0F0E0000 		.4byte	.LASF281
 3247 1373 0A       		.byte	0xa
 3248 1374 62       		.byte	0x62
 3249 1375 CC010000 		.4byte	0x1cc
 3250 1379 0407     		.2byte	0x704
 3251 137b 0C       		.uleb128 0xc
 3252 137c D5020000 		.4byte	.LASF282
 3253 1380 0A       		.byte	0xa
 3254 1381 63       		.byte	0x63
 3255 1382 CC010000 		.4byte	0x1cc
 3256 1386 0807     		.2byte	0x708
 3257 1388 0C       		.uleb128 0xc
 3258 1389 B3150000 		.4byte	.LASF283
 3259 138d 0A       		.byte	0xa
 3260 138e 64       		.byte	0x64
 3261 138f D1010000 		.4byte	0x1d1
 3262 1393 0C07     		.2byte	0x70c
 3263 1395 0C       		.uleb128 0xc
 3264 1396 750B0000 		.4byte	.LASF284
 3265 139a 0A       		.byte	0xa
 3266 139b 65       		.byte	0x65
 3267 139c CC010000 		.4byte	0x1cc
 3268 13a0 1007     		.2byte	0x710
 3269 13a2 0C       		.uleb128 0xc
 3270 13a3 FE190000 		.4byte	.LASF109
 3271 13a7 0A       		.byte	0xa
ARM GAS  C:\Users\Rolf\AppData\Local\Temp\ccafVfle.s 			page 95


 3272 13a8 66       		.byte	0x66
 3273 13a9 81150000 		.4byte	0x1581
 3274 13ad 1407     		.2byte	0x714
 3275 13af 0C       		.uleb128 0xc
 3276 13b0 EA170000 		.4byte	.LASF285
 3277 13b4 0A       		.byte	0xa
 3278 13b5 67       		.byte	0x67
 3279 13b6 CC010000 		.4byte	0x1cc
 3280 13ba 0008     		.2byte	0x800
 3281 13bc 0C       		.uleb128 0xc
 3282 13bd 63020000 		.4byte	.LASF286
 3283 13c1 0A       		.byte	0xa
 3284 13c2 68       		.byte	0x68
 3285 13c3 CC010000 		.4byte	0x1cc
 3286 13c7 0408     		.2byte	0x804
 3287 13c9 0C       		.uleb128 0xc
 3288 13ca 091A0000 		.4byte	.LASF114
 3289 13ce 0A       		.byte	0xa
 3290 13cf 69       		.byte	0x69
 3291 13d0 9C150000 		.4byte	0x159c
 3292 13d4 0808     		.2byte	0x808
 3293 13d6 0C       		.uleb128 0xc
 3294 13d7 56120000 		.4byte	.LASF287
 3295 13db 0A       		.byte	0xa
 3296 13dc 6A       		.byte	0x6a
 3297 13dd CC010000 		.4byte	0x1cc
 3298 13e1 007F     		.2byte	0x7f00
 3299 13e3 0C       		.uleb128 0xc
 3300 13e4 F7040000 		.4byte	.LASF288
 3301 13e8 0A       		.byte	0xa
 3302 13e9 6B       		.byte	0x6b
 3303 13ea CC010000 		.4byte	0x1cc
 3304 13ee 047F     		.2byte	0x7f04
 3305 13f0 0C       		.uleb128 0xc
 3306 13f1 740C0000 		.4byte	.LASF289
 3307 13f5 0A       		.byte	0xa
 3308 13f6 6C       		.byte	0x6c
 3309 13f7 CC010000 		.4byte	0x1cc
 3310 13fb 087F     		.2byte	0x7f08
 3311 13fd 0C       		.uleb128 0xc
 3312 13fe 861B0000 		.4byte	.LASF290
 3313 1402 0A       		.byte	0xa
 3314 1403 6D       		.byte	0x6d
 3315 1404 CC010000 		.4byte	0x1cc
 3316 1408 0C7F     		.2byte	0x7f0c
 3317 140a 0C       		.uleb128 0xc
 3318 140b 141A0000 		.4byte	.LASF121
 3319 140f 0A       		.byte	0xa
 3320 1410 6E       		.byte	0x6e
 3321 1411 A6150000 		.4byte	0x15a6
 3322 1415 107F     		.2byte	0x7f10
 3323 1417 0C       		.uleb128 0xc
 3324 1418 34060000 		.4byte	.LASF102
 3325 141c 0A       		.byte	0xa
 3326 141d 6F       		.byte	0x6f
 3327 141e CC010000 		.4byte	0x1cc
 3328 1422 307F     		.2byte	0x7f30
ARM GAS  C:\Users\Rolf\AppData\Local\Temp\ccafVfle.s 			page 96


 3329 1424 0C       		.uleb128 0xc
 3330 1425 1F1A0000 		.4byte	.LASF125
 3331 1429 0A       		.byte	0xa
 3332 142a 70       		.byte	0x70
 3333 142b C1150000 		.4byte	0x15c1
 3334 142f 347F     		.2byte	0x7f34
 3335 1431 0C       		.uleb128 0xc
 3336 1432 BA070000 		.4byte	.LASF291
 3337 1436 0A       		.byte	0xa
 3338 1437 71       		.byte	0x71
 3339 1438 CC010000 		.4byte	0x1cc
 3340 143c 10FF     		.2byte	0xff10
 3341 143e 0C       		.uleb128 0xc
 3342 143f 2A1A0000 		.4byte	.LASF134
 3343 1443 0A       		.byte	0xa
 3344 1444 72       		.byte	0x72
 3345 1445 D1010000 		.4byte	0x1d1
 3346 1449 14FF     		.2byte	0xff14
 3347 144b 0C       		.uleb128 0xc
 3348 144c 0D070000 		.4byte	.LASF292
 3349 1450 0A       		.byte	0xa
 3350 1451 73       		.byte	0x73
 3351 1452 CC010000 		.4byte	0x1cc
 3352 1456 18FF     		.2byte	0xff18
 3353 1458 0C       		.uleb128 0xc
 3354 1459 0F1B0000 		.4byte	.LASF293
 3355 145d 0A       		.byte	0xa
 3356 145e 74       		.byte	0x74
 3357 145f CC010000 		.4byte	0x1cc
 3358 1463 1CFF     		.2byte	0xff1c
 3359 1465 0C       		.uleb128 0xc
 3360 1466 A9070000 		.4byte	.LASF294
 3361 146a 0A       		.byte	0xa
 3362 146b 75       		.byte	0x75
 3363 146c CC010000 		.4byte	0x1cc
 3364 1470 20FF     		.2byte	0xff20
 3365 1472 0C       		.uleb128 0xc
 3366 1473 8D150000 		.4byte	.LASF295
 3367 1477 0A       		.byte	0xa
 3368 1478 76       		.byte	0x76
 3369 1479 CC010000 		.4byte	0x1cc
 3370 147d 24FF     		.2byte	0xff24
 3371 147f 0C       		.uleb128 0xc
 3372 1480 E30B0000 		.4byte	.LASF296
 3373 1484 0A       		.byte	0xa
 3374 1485 77       		.byte	0x77
 3375 1486 CC010000 		.4byte	0x1cc
 3376 148a 28FF     		.2byte	0xff28
 3377 148c 0C       		.uleb128 0xc
 3378 148d F60B0000 		.4byte	.LASF297
 3379 1491 0A       		.byte	0xa
 3380 1492 78       		.byte	0x78
 3381 1493 CC010000 		.4byte	0x1cc
 3382 1497 2CFF     		.2byte	0xff2c
 3383 1499 00       		.byte	0
 3384 149a 08       		.uleb128 0x8
 3385 149b CB070000 		.4byte	0x7cb
ARM GAS  C:\Users\Rolf\AppData\Local\Temp\ccafVfle.s 			page 97


 3386 149f 09       		.uleb128 0x9
 3387 14a0 9A140000 		.4byte	0x149a
 3388 14a4 0D       		.uleb128 0xd
 3389 14a5 D1010000 		.4byte	0x1d1
 3390 14a9 B4140000 		.4byte	0x14b4
 3391 14ad 0E       		.uleb128 0xe
 3392 14ae C5010000 		.4byte	0x1c5
 3393 14b2 17       		.byte	0x17
 3394 14b3 00       		.byte	0
 3395 14b4 08       		.uleb128 0x8
 3396 14b5 A4140000 		.4byte	0x14a4
 3397 14b9 09       		.uleb128 0x9
 3398 14ba B4140000 		.4byte	0x14b4
 3399 14be 08       		.uleb128 0x8
 3400 14bf F5080000 		.4byte	0x8f5
 3401 14c3 08       		.uleb128 0x8
 3402 14c4 6D090000 		.4byte	0x96d
 3403 14c8 09       		.uleb128 0x9
 3404 14c9 C3140000 		.4byte	0x14c3
 3405 14cd 08       		.uleb128 0x8
 3406 14ce 68100000 		.4byte	0x1068
 3407 14d2 09       		.uleb128 0x9
 3408 14d3 CD140000 		.4byte	0x14cd
 3409 14d7 0D       		.uleb128 0xd
 3410 14d8 1B110000 		.4byte	0x111b
 3411 14dc E7140000 		.4byte	0x14e7
 3412 14e0 0E       		.uleb128 0xe
 3413 14e1 C5010000 		.4byte	0x1c5
 3414 14e5 03       		.byte	0x3
 3415 14e6 00       		.byte	0
 3416 14e7 08       		.uleb128 0x8
 3417 14e8 F5080000 		.4byte	0x8f5
 3418 14ec 08       		.uleb128 0x8
 3419 14ed F5080000 		.4byte	0x8f5
 3420 14f1 08       		.uleb128 0x8
 3421 14f2 F5080000 		.4byte	0x8f5
 3422 14f6 0D       		.uleb128 0xd
 3423 14f7 D1010000 		.4byte	0x1d1
 3424 14fb 06150000 		.4byte	0x1506
 3425 14ff 0E       		.uleb128 0xe
 3426 1500 C5010000 		.4byte	0x1c5
 3427 1504 4F       		.byte	0x4f
 3428 1505 00       		.byte	0
 3429 1506 08       		.uleb128 0x8
 3430 1507 F6140000 		.4byte	0x14f6
 3431 150b 09       		.uleb128 0x9
 3432 150c 06150000 		.4byte	0x1506
 3433 1510 08       		.uleb128 0x8
 3434 1511 CB070000 		.4byte	0x7cb
 3435 1515 09       		.uleb128 0x9
 3436 1516 10150000 		.4byte	0x1510
 3437 151a 08       		.uleb128 0x8
 3438 151b CB070000 		.4byte	0x7cb
 3439 151f 09       		.uleb128 0x9
 3440 1520 1A150000 		.4byte	0x151a
 3441 1524 08       		.uleb128 0x8
 3442 1525 470A0000 		.4byte	0xa47
ARM GAS  C:\Users\Rolf\AppData\Local\Temp\ccafVfle.s 			page 98


 3443 1529 09       		.uleb128 0x9
 3444 152a 24150000 		.4byte	0x1524
 3445 152e 08       		.uleb128 0x8
 3446 152f 570A0000 		.4byte	0xa57
 3447 1533 09       		.uleb128 0x9
 3448 1534 2E150000 		.4byte	0x152e
 3449 1538 0D       		.uleb128 0xd
 3450 1539 CC010000 		.4byte	0x1cc
 3451 153d 48150000 		.4byte	0x1548
 3452 1541 0E       		.uleb128 0xe
 3453 1542 C5010000 		.4byte	0x1c5
 3454 1546 0E       		.byte	0xe
 3455 1547 00       		.byte	0
 3456 1548 08       		.uleb128 0x8
 3457 1549 38150000 		.4byte	0x1538
 3458 154d 08       		.uleb128 0x8
 3459 154e 38150000 		.4byte	0x1538
 3460 1552 0D       		.uleb128 0xd
 3461 1553 D1010000 		.4byte	0x1d1
 3462 1557 62150000 		.4byte	0x1562
 3463 155b 0E       		.uleb128 0xe
 3464 155c C5010000 		.4byte	0x1c5
 3465 1560 20       		.byte	0x20
 3466 1561 00       		.byte	0
 3467 1562 08       		.uleb128 0x8
 3468 1563 52150000 		.4byte	0x1552
 3469 1567 09       		.uleb128 0x9
 3470 1568 62150000 		.4byte	0x1562
 3471 156c 0D       		.uleb128 0xd
 3472 156d D1010000 		.4byte	0x1d1
 3473 1571 7C150000 		.4byte	0x157c
 3474 1575 0E       		.uleb128 0xe
 3475 1576 C5010000 		.4byte	0x1c5
 3476 157a 3A       		.byte	0x3a
 3477 157b 00       		.byte	0
 3478 157c 08       		.uleb128 0x8
 3479 157d 6C150000 		.4byte	0x156c
 3480 1581 09       		.uleb128 0x9
 3481 1582 7C150000 		.4byte	0x157c
 3482 1586 0D       		.uleb128 0xd
 3483 1587 D1010000 		.4byte	0x1d1
 3484 158b 97150000 		.4byte	0x1597
 3485 158f 0F       		.uleb128 0xf
 3486 1590 C5010000 		.4byte	0x1c5
 3487 1594 BD1D     		.2byte	0x1dbd
 3488 1596 00       		.byte	0
 3489 1597 08       		.uleb128 0x8
 3490 1598 86150000 		.4byte	0x1586
 3491 159c 09       		.uleb128 0x9
 3492 159d 97150000 		.4byte	0x1597
 3493 15a1 08       		.uleb128 0x8
 3494 15a2 4E080000 		.4byte	0x84e
 3495 15a6 09       		.uleb128 0x9
 3496 15a7 A1150000 		.4byte	0x15a1
 3497 15ab 0D       		.uleb128 0xd
 3498 15ac D1010000 		.4byte	0x1d1
 3499 15b0 BC150000 		.4byte	0x15bc
ARM GAS  C:\Users\Rolf\AppData\Local\Temp\ccafVfle.s 			page 99


 3500 15b4 0F       		.uleb128 0xf
 3501 15b5 C5010000 		.4byte	0x1c5
 3502 15b9 F61F     		.2byte	0x1ff6
 3503 15bb 00       		.byte	0
 3504 15bc 08       		.uleb128 0x8
 3505 15bd AB150000 		.4byte	0x15ab
 3506 15c1 09       		.uleb128 0x9
 3507 15c2 BC150000 		.4byte	0x15bc
 3508 15c6 03       		.uleb128 0x3
 3509 15c7 B50F0000 		.4byte	.LASF298
 3510 15cb 0A       		.byte	0xa
 3511 15cc 79       		.byte	0x79
 3512 15cd 26110000 		.4byte	0x1126
 3513 15d1 11       		.uleb128 0x11
 3514 15d2 771A0000 		.4byte	.LASF299
 3515 15d6 0B       		.byte	0xb
 3516 15d7 1106     		.2byte	0x611
 3517 15d9 2C0A0000 		.4byte	0xa2c
 3518 15dd 11       		.uleb128 0x11
 3519 15de 44000000 		.4byte	.LASF300
 3520 15e2 0B       		.byte	0xb
 3521 15e3 1A06     		.2byte	0x61a
 3522 15e5 270F0000 		.4byte	0xf27
 3523 15e9 11       		.uleb128 0x11
 3524 15ea B7120000 		.4byte	.LASF301
 3525 15ee 0B       		.byte	0xb
 3526 15ef 1D06     		.2byte	0x61d
 3527 15f1 8D0F0000 		.4byte	0xf8d
 3528 15f5 11       		.uleb128 0x11
 3529 15f6 9B020000 		.4byte	.LASF302
 3530 15fa 0B       		.byte	0xb
 3531 15fb 1E06     		.2byte	0x61e
 3532 15fd E70F0000 		.4byte	0xfe7
 3533 1601 11       		.uleb128 0x11
 3534 1602 4B020000 		.4byte	.LASF303
 3535 1606 0B       		.byte	0xb
 3536 1607 1F06     		.2byte	0x61f
 3537 1609 5D100000 		.4byte	0x105d
 3538 160d 11       		.uleb128 0x11
 3539 160e 4F000000 		.4byte	.LASF304
 3540 1612 0B       		.byte	0xb
 3541 1613 2806     		.2byte	0x628
 3542 1615 C6150000 		.4byte	0x15c6
 3543 1619 02       		.uleb128 0x2
 3544 161a 08       		.byte	0x8
 3545 161b 04       		.byte	0x4
 3546 161c 25130000 		.4byte	.LASF305
 3547 1620 10       		.uleb128 0x10
 3548 1621 B8       		.byte	0xb8
 3549 1622 0C       		.byte	0xc
 3550 1623 34       		.byte	0x34
 3551 1624 311A0000 		.4byte	0x1a31
 3552 1628 0B       		.uleb128 0xb
 3553 1629 5F030000 		.4byte	.LASF306
 3554 162d 0C       		.byte	0xc
 3555 162e 37       		.byte	0x37
 3556 162f B8000000 		.4byte	0xb8
ARM GAS  C:\Users\Rolf\AppData\Local\Temp\ccafVfle.s 			page 100


 3557 1633 00       		.byte	0
 3558 1634 0B       		.uleb128 0xb
 3559 1635 CB0C0000 		.4byte	.LASF307
 3560 1639 0C       		.byte	0xc
 3561 163a 38       		.byte	0x38
 3562 163b B8000000 		.4byte	0xb8
 3563 163f 04       		.byte	0x4
 3564 1640 0B       		.uleb128 0xb
 3565 1641 93010000 		.4byte	.LASF308
 3566 1645 0C       		.byte	0xc
 3567 1646 39       		.byte	0x39
 3568 1647 B8000000 		.4byte	0xb8
 3569 164b 08       		.byte	0x8
 3570 164c 0B       		.uleb128 0xb
 3571 164d 7D010000 		.4byte	.LASF309
 3572 1651 0C       		.byte	0xc
 3573 1652 3A       		.byte	0x3a
 3574 1653 B8000000 		.4byte	0xb8
 3575 1657 0C       		.byte	0xc
 3576 1658 0B       		.uleb128 0xb
 3577 1659 46130000 		.4byte	.LASF310
 3578 165d 0C       		.byte	0xc
 3579 165e 3B       		.byte	0x3b
 3580 165f B8000000 		.4byte	0xb8
 3581 1663 10       		.byte	0x10
 3582 1664 0B       		.uleb128 0xb
 3583 1665 D6100000 		.4byte	.LASF311
 3584 1669 0C       		.byte	0xc
 3585 166a 3C       		.byte	0x3c
 3586 166b B8000000 		.4byte	0xb8
 3587 166f 14       		.byte	0x14
 3588 1670 0B       		.uleb128 0xb
 3589 1671 170B0000 		.4byte	.LASF312
 3590 1675 0C       		.byte	0xc
 3591 1676 3D       		.byte	0x3d
 3592 1677 B8000000 		.4byte	0xb8
 3593 167b 18       		.byte	0x18
 3594 167c 0B       		.uleb128 0xb
 3595 167d 671C0000 		.4byte	.LASF313
 3596 1681 0C       		.byte	0xc
 3597 1682 3E       		.byte	0x3e
 3598 1683 B8000000 		.4byte	0xb8
 3599 1687 1C       		.byte	0x1c
 3600 1688 0B       		.uleb128 0xb
 3601 1689 090F0000 		.4byte	.LASF314
 3602 168d 0C       		.byte	0xc
 3603 168e 3F       		.byte	0x3f
 3604 168f B8000000 		.4byte	0xb8
 3605 1693 20       		.byte	0x20
 3606 1694 0B       		.uleb128 0xb
 3607 1695 200F0000 		.4byte	.LASF315
 3608 1699 0C       		.byte	0xc
 3609 169a 40       		.byte	0x40
 3610 169b B8000000 		.4byte	0xb8
 3611 169f 24       		.byte	0x24
 3612 16a0 0B       		.uleb128 0xb
 3613 16a1 70150000 		.4byte	.LASF316
ARM GAS  C:\Users\Rolf\AppData\Local\Temp\ccafVfle.s 			page 101


 3614 16a5 0C       		.byte	0xc
 3615 16a6 43       		.byte	0x43
 3616 16a7 97000000 		.4byte	0x97
 3617 16ab 28       		.byte	0x28
 3618 16ac 0B       		.uleb128 0xb
 3619 16ad 36070000 		.4byte	.LASF317
 3620 16b1 0C       		.byte	0xc
 3621 16b2 44       		.byte	0x44
 3622 16b3 97000000 		.4byte	0x97
 3623 16b7 29       		.byte	0x29
 3624 16b8 0B       		.uleb128 0xb
 3625 16b9 02140000 		.4byte	.LASF318
 3626 16bd 0C       		.byte	0xc
 3627 16be 45       		.byte	0x45
 3628 16bf 97000000 		.4byte	0x97
 3629 16c3 2A       		.byte	0x2a
 3630 16c4 0B       		.uleb128 0xb
 3631 16c5 D1150000 		.4byte	.LASF319
 3632 16c9 0C       		.byte	0xc
 3633 16ca 46       		.byte	0x46
 3634 16cb 97000000 		.4byte	0x97
 3635 16cf 2B       		.byte	0x2b
 3636 16d0 0B       		.uleb128 0xb
 3637 16d1 35030000 		.4byte	.LASF320
 3638 16d5 0C       		.byte	0xc
 3639 16d6 47       		.byte	0x47
 3640 16d7 97000000 		.4byte	0x97
 3641 16db 2C       		.byte	0x2c
 3642 16dc 0B       		.uleb128 0xb
 3643 16dd C10D0000 		.4byte	.LASF321
 3644 16e1 0C       		.byte	0xc
 3645 16e2 48       		.byte	0x48
 3646 16e3 97000000 		.4byte	0x97
 3647 16e7 2D       		.byte	0x2d
 3648 16e8 0B       		.uleb128 0xb
 3649 16e9 891D0000 		.4byte	.LASF322
 3650 16ed 0C       		.byte	0xc
 3651 16ee 49       		.byte	0x49
 3652 16ef 97000000 		.4byte	0x97
 3653 16f3 2E       		.byte	0x2e
 3654 16f4 0B       		.uleb128 0xb
 3655 16f5 471C0000 		.4byte	.LASF323
 3656 16f9 0C       		.byte	0xc
 3657 16fa 4A       		.byte	0x4a
 3658 16fb 97000000 		.4byte	0x97
 3659 16ff 2F       		.byte	0x2f
 3660 1700 0B       		.uleb128 0xb
 3661 1701 4B170000 		.4byte	.LASF324
 3662 1705 0C       		.byte	0xc
 3663 1706 4B       		.byte	0x4b
 3664 1707 97000000 		.4byte	0x97
 3665 170b 30       		.byte	0x30
 3666 170c 0B       		.uleb128 0xb
 3667 170d 79110000 		.4byte	.LASF325
 3668 1711 0C       		.byte	0xc
 3669 1712 4E       		.byte	0x4e
 3670 1713 97000000 		.4byte	0x97
ARM GAS  C:\Users\Rolf\AppData\Local\Temp\ccafVfle.s 			page 102


 3671 1717 31       		.byte	0x31
 3672 1718 0B       		.uleb128 0xb
 3673 1719 981B0000 		.4byte	.LASF326
 3674 171d 0C       		.byte	0xc
 3675 171e 4F       		.byte	0x4f
 3676 171f 97000000 		.4byte	0x97
 3677 1723 32       		.byte	0x32
 3678 1724 0B       		.uleb128 0xb
 3679 1725 2F110000 		.4byte	.LASF327
 3680 1729 0C       		.byte	0xc
 3681 172a 50       		.byte	0x50
 3682 172b 97000000 		.4byte	0x97
 3683 172f 33       		.byte	0x33
 3684 1730 0B       		.uleb128 0xb
 3685 1731 9F0C0000 		.4byte	.LASF328
 3686 1735 0C       		.byte	0xc
 3687 1736 51       		.byte	0x51
 3688 1737 97000000 		.4byte	0x97
 3689 173b 34       		.byte	0x34
 3690 173c 0B       		.uleb128 0xb
 3691 173d 38080000 		.4byte	.LASF329
 3692 1741 0C       		.byte	0xc
 3693 1742 52       		.byte	0x52
 3694 1743 A2000000 		.4byte	0xa2
 3695 1747 36       		.byte	0x36
 3696 1748 0B       		.uleb128 0xb
 3697 1749 2C050000 		.4byte	.LASF330
 3698 174d 0C       		.byte	0xc
 3699 174e 53       		.byte	0x53
 3700 174f A2000000 		.4byte	0xa2
 3701 1753 38       		.byte	0x38
 3702 1754 0B       		.uleb128 0xb
 3703 1755 E4030000 		.4byte	.LASF331
 3704 1759 0C       		.byte	0xc
 3705 175a 54       		.byte	0x54
 3706 175b A2000000 		.4byte	0xa2
 3707 175f 3A       		.byte	0x3a
 3708 1760 0B       		.uleb128 0xb
 3709 1761 861C0000 		.4byte	.LASF332
 3710 1765 0C       		.byte	0xc
 3711 1766 55       		.byte	0x55
 3712 1767 97000000 		.4byte	0x97
 3713 176b 3C       		.byte	0x3c
 3714 176c 0B       		.uleb128 0xb
 3715 176d D1090000 		.4byte	.LASF333
 3716 1771 0C       		.byte	0xc
 3717 1772 56       		.byte	0x56
 3718 1773 97000000 		.4byte	0x97
 3719 1777 3D       		.byte	0x3d
 3720 1778 0B       		.uleb128 0xb
 3721 1779 9B130000 		.4byte	.LASF334
 3722 177d 0C       		.byte	0xc
 3723 177e 57       		.byte	0x57
 3724 177f 97000000 		.4byte	0x97
 3725 1783 3E       		.byte	0x3e
 3726 1784 0B       		.uleb128 0xb
 3727 1785 0D090000 		.4byte	.LASF335
ARM GAS  C:\Users\Rolf\AppData\Local\Temp\ccafVfle.s 			page 103


 3728 1789 0C       		.byte	0xc
 3729 178a 58       		.byte	0x58
 3730 178b 97000000 		.4byte	0x97
 3731 178f 3F       		.byte	0x3f
 3732 1790 0B       		.uleb128 0xb
 3733 1791 8E020000 		.4byte	.LASF336
 3734 1795 0C       		.byte	0xc
 3735 1796 59       		.byte	0x59
 3736 1797 97000000 		.4byte	0x97
 3737 179b 40       		.byte	0x40
 3738 179c 0B       		.uleb128 0xb
 3739 179d 0A120000 		.4byte	.LASF337
 3740 17a1 0C       		.byte	0xc
 3741 17a2 5A       		.byte	0x5a
 3742 17a3 97000000 		.4byte	0x97
 3743 17a7 41       		.byte	0x41
 3744 17a8 0B       		.uleb128 0xb
 3745 17a9 411B0000 		.4byte	.LASF338
 3746 17ad 0C       		.byte	0xc
 3747 17ae 5B       		.byte	0x5b
 3748 17af 97000000 		.4byte	0x97
 3749 17b3 42       		.byte	0x42
 3750 17b4 0B       		.uleb128 0xb
 3751 17b5 370D0000 		.4byte	.LASF339
 3752 17b9 0C       		.byte	0xc
 3753 17ba 5C       		.byte	0x5c
 3754 17bb 97000000 		.4byte	0x97
 3755 17bf 43       		.byte	0x43
 3756 17c0 0B       		.uleb128 0xb
 3757 17c1 520D0000 		.4byte	.LASF340
 3758 17c5 0C       		.byte	0xc
 3759 17c6 5D       		.byte	0x5d
 3760 17c7 97000000 		.4byte	0x97
 3761 17cb 44       		.byte	0x44
 3762 17cc 0B       		.uleb128 0xb
 3763 17cd DF150000 		.4byte	.LASF341
 3764 17d1 0C       		.byte	0xc
 3765 17d2 5E       		.byte	0x5e
 3766 17d3 B8000000 		.4byte	0xb8
 3767 17d7 48       		.byte	0x48
 3768 17d8 0B       		.uleb128 0xb
 3769 17d9 93040000 		.4byte	.LASF342
 3770 17dd 0C       		.byte	0xc
 3771 17de 5F       		.byte	0x5f
 3772 17df B8000000 		.4byte	0xb8
 3773 17e3 4C       		.byte	0x4c
 3774 17e4 0B       		.uleb128 0xb
 3775 17e5 FE1A0000 		.4byte	.LASF343
 3776 17e9 0C       		.byte	0xc
 3777 17ea 60       		.byte	0x60
 3778 17eb 97000000 		.4byte	0x97
 3779 17ef 50       		.byte	0x50
 3780 17f0 0B       		.uleb128 0xb
 3781 17f1 7B0A0000 		.4byte	.LASF344
 3782 17f5 0C       		.byte	0xc
 3783 17f6 61       		.byte	0x61
 3784 17f7 97000000 		.4byte	0x97
ARM GAS  C:\Users\Rolf\AppData\Local\Temp\ccafVfle.s 			page 104


 3785 17fb 51       		.byte	0x51
 3786 17fc 0B       		.uleb128 0xb
 3787 17fd A90B0000 		.4byte	.LASF345
 3788 1801 0C       		.byte	0xc
 3789 1802 62       		.byte	0x62
 3790 1803 97000000 		.4byte	0x97
 3791 1807 52       		.byte	0x52
 3792 1808 0B       		.uleb128 0xb
 3793 1809 52070000 		.4byte	.LASF346
 3794 180d 0C       		.byte	0xc
 3795 180e 63       		.byte	0x63
 3796 180f 97000000 		.4byte	0x97
 3797 1813 53       		.byte	0x53
 3798 1814 0B       		.uleb128 0xb
 3799 1815 63090000 		.4byte	.LASF347
 3800 1819 0C       		.byte	0xc
 3801 181a 64       		.byte	0x64
 3802 181b 97000000 		.4byte	0x97
 3803 181f 54       		.byte	0x54
 3804 1820 0B       		.uleb128 0xb
 3805 1821 CF0B0000 		.4byte	.LASF348
 3806 1825 0C       		.byte	0xc
 3807 1826 65       		.byte	0x65
 3808 1827 97000000 		.4byte	0x97
 3809 182b 55       		.byte	0x55
 3810 182c 0B       		.uleb128 0xb
 3811 182d 00000000 		.4byte	.LASF349
 3812 1831 0C       		.byte	0xc
 3813 1832 66       		.byte	0x66
 3814 1833 97000000 		.4byte	0x97
 3815 1837 56       		.byte	0x56
 3816 1838 0B       		.uleb128 0xb
 3817 1839 0C140000 		.4byte	.LASF350
 3818 183d 0C       		.byte	0xc
 3819 183e 67       		.byte	0x67
 3820 183f 97000000 		.4byte	0x97
 3821 1843 57       		.byte	0x57
 3822 1844 0B       		.uleb128 0xb
 3823 1845 A4090000 		.4byte	.LASF351
 3824 1849 0C       		.byte	0xc
 3825 184a 68       		.byte	0x68
 3826 184b 97000000 		.4byte	0x97
 3827 184f 58       		.byte	0x58
 3828 1850 0B       		.uleb128 0xb
 3829 1851 B61C0000 		.4byte	.LASF352
 3830 1855 0C       		.byte	0xc
 3831 1856 69       		.byte	0x69
 3832 1857 97000000 		.4byte	0x97
 3833 185b 59       		.byte	0x59
 3834 185c 0B       		.uleb128 0xb
 3835 185d 22170000 		.4byte	.LASF353
 3836 1861 0C       		.byte	0xc
 3837 1862 6E       		.byte	0x6e
 3838 1863 AD000000 		.4byte	0xad
 3839 1867 5A       		.byte	0x5a
 3840 1868 0B       		.uleb128 0xb
 3841 1869 38120000 		.4byte	.LASF354
ARM GAS  C:\Users\Rolf\AppData\Local\Temp\ccafVfle.s 			page 105


 3842 186d 0C       		.byte	0xc
 3843 186e 6F       		.byte	0x6f
 3844 186f AD000000 		.4byte	0xad
 3845 1873 5C       		.byte	0x5c
 3846 1874 0B       		.uleb128 0xb
 3847 1875 110F0000 		.4byte	.LASF355
 3848 1879 0C       		.byte	0xc
 3849 187a 70       		.byte	0x70
 3850 187b 97000000 		.4byte	0x97
 3851 187f 5E       		.byte	0x5e
 3852 1880 0B       		.uleb128 0xb
 3853 1881 D7130000 		.4byte	.LASF356
 3854 1885 0C       		.byte	0xc
 3855 1886 71       		.byte	0x71
 3856 1887 97000000 		.4byte	0x97
 3857 188b 5F       		.byte	0x5f
 3858 188c 0B       		.uleb128 0xb
 3859 188d 180C0000 		.4byte	.LASF357
 3860 1891 0C       		.byte	0xc
 3861 1892 72       		.byte	0x72
 3862 1893 97000000 		.4byte	0x97
 3863 1897 60       		.byte	0x60
 3864 1898 0B       		.uleb128 0xb
 3865 1899 FE0D0000 		.4byte	.LASF358
 3866 189d 0C       		.byte	0xc
 3867 189e 73       		.byte	0x73
 3868 189f B8000000 		.4byte	0xb8
 3869 18a3 64       		.byte	0x64
 3870 18a4 0B       		.uleb128 0xb
 3871 18a5 AC1D0000 		.4byte	.LASF359
 3872 18a9 0C       		.byte	0xc
 3873 18aa 76       		.byte	0x76
 3874 18ab AD000000 		.4byte	0xad
 3875 18af 68       		.byte	0x68
 3876 18b0 0B       		.uleb128 0xb
 3877 18b1 7E130000 		.4byte	.LASF360
 3878 18b5 0C       		.byte	0xc
 3879 18b6 77       		.byte	0x77
 3880 18b7 AD000000 		.4byte	0xad
 3881 18bb 6A       		.byte	0x6a
 3882 18bc 0B       		.uleb128 0xb
 3883 18bd F7100000 		.4byte	.LASF361
 3884 18c1 0C       		.byte	0xc
 3885 18c2 78       		.byte	0x78
 3886 18c3 AD000000 		.4byte	0xad
 3887 18c7 6C       		.byte	0x6c
 3888 18c8 0B       		.uleb128 0xb
 3889 18c9 C9040000 		.4byte	.LASF362
 3890 18cd 0C       		.byte	0xc
 3891 18ce 79       		.byte	0x79
 3892 18cf AD000000 		.4byte	0xad
 3893 18d3 6E       		.byte	0x6e
 3894 18d4 0B       		.uleb128 0xb
 3895 18d5 490E0000 		.4byte	.LASF363
 3896 18d9 0C       		.byte	0xc
 3897 18da 7B       		.byte	0x7b
 3898 18db 97000000 		.4byte	0x97
ARM GAS  C:\Users\Rolf\AppData\Local\Temp\ccafVfle.s 			page 106


 3899 18df 70       		.byte	0x70
 3900 18e0 0B       		.uleb128 0xb
 3901 18e1 9B050000 		.4byte	.LASF364
 3902 18e5 0C       		.byte	0xc
 3903 18e6 7C       		.byte	0x7c
 3904 18e7 97000000 		.4byte	0x97
 3905 18eb 71       		.byte	0x71
 3906 18ec 0B       		.uleb128 0xb
 3907 18ed 74040000 		.4byte	.LASF365
 3908 18f1 0C       		.byte	0xc
 3909 18f2 7D       		.byte	0x7d
 3910 18f3 97000000 		.4byte	0x97
 3911 18f7 72       		.byte	0x72
 3912 18f8 0B       		.uleb128 0xb
 3913 18f9 B0020000 		.4byte	.LASF366
 3914 18fd 0C       		.byte	0xc
 3915 18fe 7E       		.byte	0x7e
 3916 18ff 97000000 		.4byte	0x97
 3917 1903 73       		.byte	0x73
 3918 1904 0B       		.uleb128 0xb
 3919 1905 45080000 		.4byte	.LASF367
 3920 1909 0C       		.byte	0xc
 3921 190a 80       		.byte	0x80
 3922 190b AD000000 		.4byte	0xad
 3923 190f 74       		.byte	0x74
 3924 1910 0B       		.uleb128 0xb
 3925 1911 89120000 		.4byte	.LASF368
 3926 1915 0C       		.byte	0xc
 3927 1916 81       		.byte	0x81
 3928 1917 AD000000 		.4byte	0xad
 3929 191b 76       		.byte	0x76
 3930 191c 0B       		.uleb128 0xb
 3931 191d BC0E0000 		.4byte	.LASF369
 3932 1921 0C       		.byte	0xc
 3933 1922 82       		.byte	0x82
 3934 1923 AD000000 		.4byte	0xad
 3935 1927 78       		.byte	0x78
 3936 1928 0B       		.uleb128 0xb
 3937 1929 F5070000 		.4byte	.LASF370
 3938 192d 0C       		.byte	0xc
 3939 192e 83       		.byte	0x83
 3940 192f AD000000 		.4byte	0xad
 3941 1933 7A       		.byte	0x7a
 3942 1934 0B       		.uleb128 0xb
 3943 1935 A70E0000 		.4byte	.LASF371
 3944 1939 0C       		.byte	0xc
 3945 193a 86       		.byte	0x86
 3946 193b 97000000 		.4byte	0x97
 3947 193f 7C       		.byte	0x7c
 3948 1940 0B       		.uleb128 0xb
 3949 1941 831A0000 		.4byte	.LASF372
 3950 1945 0C       		.byte	0xc
 3951 1946 87       		.byte	0x87
 3952 1947 97000000 		.4byte	0x97
 3953 194b 7D       		.byte	0x7d
 3954 194c 0B       		.uleb128 0xb
 3955 194d 96070000 		.4byte	.LASF373
ARM GAS  C:\Users\Rolf\AppData\Local\Temp\ccafVfle.s 			page 107


 3956 1951 0C       		.byte	0xc
 3957 1952 88       		.byte	0x88
 3958 1953 97000000 		.4byte	0x97
 3959 1957 7E       		.byte	0x7e
 3960 1958 0B       		.uleb128 0xb
 3961 1959 F4060000 		.4byte	.LASF374
 3962 195d 0C       		.byte	0xc
 3963 195e 89       		.byte	0x89
 3964 195f 97000000 		.4byte	0x97
 3965 1963 7F       		.byte	0x7f
 3966 1964 0B       		.uleb128 0xb
 3967 1965 0A080000 		.4byte	.LASF375
 3968 1969 0C       		.byte	0xc
 3969 196a 8A       		.byte	0x8a
 3970 196b 97000000 		.4byte	0x97
 3971 196f 80       		.byte	0x80
 3972 1970 0B       		.uleb128 0xb
 3973 1971 F9000000 		.4byte	.LASF376
 3974 1975 0C       		.byte	0xc
 3975 1976 8D       		.byte	0x8d
 3976 1977 B8000000 		.4byte	0xb8
 3977 197b 84       		.byte	0x84
 3978 197c 0B       		.uleb128 0xb
 3979 197d 57170000 		.4byte	.LASF377
 3980 1981 0C       		.byte	0xc
 3981 1982 8E       		.byte	0x8e
 3982 1983 B8000000 		.4byte	0xb8
 3983 1987 88       		.byte	0x88
 3984 1988 0B       		.uleb128 0xb
 3985 1989 D0110000 		.4byte	.LASF378
 3986 198d 0C       		.byte	0xc
 3987 198e 8F       		.byte	0x8f
 3988 198f B8000000 		.4byte	0xb8
 3989 1993 8C       		.byte	0x8c
 3990 1994 0B       		.uleb128 0xb
 3991 1995 481D0000 		.4byte	.LASF379
 3992 1999 0C       		.byte	0xc
 3993 199a 90       		.byte	0x90
 3994 199b B8000000 		.4byte	0xb8
 3995 199f 90       		.byte	0x90
 3996 19a0 0B       		.uleb128 0xb
 3997 19a1 B0160000 		.4byte	.LASF380
 3998 19a5 0C       		.byte	0xc
 3999 19a6 91       		.byte	0x91
 4000 19a7 B8000000 		.4byte	0xb8
 4001 19ab 94       		.byte	0x94
 4002 19ac 0B       		.uleb128 0xb
 4003 19ad CC050000 		.4byte	.LASF381
 4004 19b1 0C       		.byte	0xc
 4005 19b2 92       		.byte	0x92
 4006 19b3 B8000000 		.4byte	0xb8
 4007 19b7 98       		.byte	0x98
 4008 19b8 0B       		.uleb128 0xb
 4009 19b9 330E0000 		.4byte	.LASF382
 4010 19bd 0C       		.byte	0xc
 4011 19be 93       		.byte	0x93
 4012 19bf B8000000 		.4byte	0xb8
ARM GAS  C:\Users\Rolf\AppData\Local\Temp\ccafVfle.s 			page 108


 4013 19c3 9C       		.byte	0x9c
 4014 19c4 0B       		.uleb128 0xb
 4015 19c5 B90B0000 		.4byte	.LASF383
 4016 19c9 0C       		.byte	0xc
 4017 19ca 94       		.byte	0x94
 4018 19cb B8000000 		.4byte	0xb8
 4019 19cf A0       		.byte	0xa0
 4020 19d0 0B       		.uleb128 0xb
 4021 19d1 ED010000 		.4byte	.LASF384
 4022 19d5 0C       		.byte	0xc
 4023 19d6 95       		.byte	0x95
 4024 19d7 AD000000 		.4byte	0xad
 4025 19db A4       		.byte	0xa4
 4026 19dc 0B       		.uleb128 0xb
 4027 19dd 80140000 		.4byte	.LASF385
 4028 19e1 0C       		.byte	0xc
 4029 19e2 96       		.byte	0x96
 4030 19e3 AD000000 		.4byte	0xad
 4031 19e7 A6       		.byte	0xa6
 4032 19e8 0B       		.uleb128 0xb
 4033 19e9 23180000 		.4byte	.LASF386
 4034 19ed 0C       		.byte	0xc
 4035 19ee 97       		.byte	0x97
 4036 19ef AD000000 		.4byte	0xad
 4037 19f3 A8       		.byte	0xa8
 4038 19f4 0B       		.uleb128 0xb
 4039 19f5 ED0E0000 		.4byte	.LASF387
 4040 19f9 0C       		.byte	0xc
 4041 19fa 98       		.byte	0x98
 4042 19fb AD000000 		.4byte	0xad
 4043 19ff AA       		.byte	0xaa
 4044 1a00 0B       		.uleb128 0xb
 4045 1a01 E9100000 		.4byte	.LASF388
 4046 1a05 0C       		.byte	0xc
 4047 1a06 99       		.byte	0x99
 4048 1a07 AD000000 		.4byte	0xad
 4049 1a0b AC       		.byte	0xac
 4050 1a0c 0B       		.uleb128 0xb
 4051 1a0d 1A120000 		.4byte	.LASF389
 4052 1a11 0C       		.byte	0xc
 4053 1a12 9A       		.byte	0x9a
 4054 1a13 AD000000 		.4byte	0xad
 4055 1a17 AE       		.byte	0xae
 4056 1a18 0B       		.uleb128 0xb
 4057 1a19 E9040000 		.4byte	.LASF390
 4058 1a1d 0C       		.byte	0xc
 4059 1a1e 9D       		.byte	0x9d
 4060 1a1f AD000000 		.4byte	0xad
 4061 1a23 B0       		.byte	0xb0
 4062 1a24 0B       		.uleb128 0xb
 4063 1a25 950B0000 		.4byte	.LASF391
 4064 1a29 0C       		.byte	0xc
 4065 1a2a 9E       		.byte	0x9e
 4066 1a2b B8000000 		.4byte	0xb8
 4067 1a2f B4       		.byte	0xb4
 4068 1a30 00       		.byte	0
 4069 1a31 03       		.uleb128 0x3
ARM GAS  C:\Users\Rolf\AppData\Local\Temp\ccafVfle.s 			page 109


 4070 1a32 F0050000 		.4byte	.LASF392
 4071 1a36 0C       		.byte	0xc
 4072 1a37 9F       		.byte	0x9f
 4073 1a38 20160000 		.4byte	0x1620
 4074 1a3c 11       		.uleb128 0x11
 4075 1a3d 7A170000 		.4byte	.LASF393
 4076 1a41 03       		.byte	0x3
 4077 1a42 EE01     		.2byte	0x1ee
 4078 1a44 481A0000 		.4byte	0x1a48
 4079 1a48 12       		.uleb128 0x12
 4080 1a49 04       		.byte	0x4
 4081 1a4a 4E1A0000 		.4byte	0x1a4e
 4082 1a4e 13       		.uleb128 0x13
 4083 1a4f 11       		.uleb128 0x11
 4084 1a50 52160000 		.4byte	.LASF394
 4085 1a54 03       		.byte	0x3
 4086 1a55 F601     		.2byte	0x1f6
 4087 1a57 5B1A0000 		.4byte	0x1a5b
 4088 1a5b 02       		.uleb128 0x2
 4089 1a5c 01       		.byte	0x1
 4090 1a5d 08       		.byte	0x8
 4091 1a5e D60C0000 		.4byte	.LASF395
 4092 1a62 02       		.uleb128 0x2
 4093 1a63 04       		.byte	0x4
 4094 1a64 04       		.byte	0x4
 4095 1a65 30070000 		.4byte	.LASF396
 4096 1a69 02       		.uleb128 0x2
 4097 1a6a 08       		.byte	0x8
 4098 1a6b 04       		.byte	0x4
 4099 1a6c 601C0000 		.4byte	.LASF397
 4100 1a70 12       		.uleb128 0x12
 4101 1a71 04       		.byte	0x4
 4102 1a72 B8000000 		.4byte	0xb8
 4103 1a76 03       		.uleb128 0x3
 4104 1a77 59040000 		.4byte	.LASF398
 4105 1a7b 0D       		.byte	0xd
 4106 1a7c 43       		.byte	0x43
 4107 1a7d 811A0000 		.4byte	0x1a81
 4108 1a81 12       		.uleb128 0x12
 4109 1a82 04       		.byte	0x4
 4110 1a83 871A0000 		.4byte	0x1a87
 4111 1a87 14       		.uleb128 0x14
 4112 1a88 921A0000 		.4byte	0x1a92
 4113 1a8c 15       		.uleb128 0x15
 4114 1a8d 701A0000 		.4byte	0x1a70
 4115 1a91 00       		.byte	0
 4116 1a92 03       		.uleb128 0x3
 4117 1a93 2D170000 		.4byte	.LASF399
 4118 1a97 0D       		.byte	0xd
 4119 1a98 46       		.byte	0x46
 4120 1a99 481A0000 		.4byte	0x1a48
 4121 1a9d 03       		.uleb128 0x3
 4122 1a9e 561A0000 		.4byte	.LASF400
 4123 1aa2 0D       		.byte	0xd
 4124 1aa3 49       		.byte	0x49
 4125 1aa4 A81A0000 		.4byte	0x1aa8
 4126 1aa8 12       		.uleb128 0x12
ARM GAS  C:\Users\Rolf\AppData\Local\Temp\ccafVfle.s 			page 110


 4127 1aa9 04       		.byte	0x4
 4128 1aaa 761A0000 		.4byte	0x1a76
 4129 1aae 10       		.uleb128 0x10
 4130 1aaf 2C       		.byte	0x2c
 4131 1ab0 0D       		.byte	0xd
 4132 1ab1 7D       		.byte	0x7d
 4133 1ab2 3B1B0000 		.4byte	0x1b3b
 4134 1ab6 0B       		.uleb128 0xb
 4135 1ab7 10150000 		.4byte	.LASF401
 4136 1abb 0D       		.byte	0xd
 4137 1abc 7F       		.byte	0x7f
 4138 1abd B8000000 		.4byte	0xb8
 4139 1ac1 00       		.byte	0
 4140 1ac2 0B       		.uleb128 0xb
 4141 1ac3 BC180000 		.4byte	.LASF402
 4142 1ac7 0D       		.byte	0xd
 4143 1ac8 80       		.byte	0x80
 4144 1ac9 B8000000 		.4byte	0xb8
 4145 1acd 04       		.byte	0x4
 4146 1ace 0B       		.uleb128 0xb
 4147 1acf 06110000 		.4byte	.LASF403
 4148 1ad3 0D       		.byte	0xd
 4149 1ad4 81       		.byte	0x81
 4150 1ad5 B8000000 		.4byte	0xb8
 4151 1ad9 08       		.byte	0x8
 4152 1ada 0B       		.uleb128 0xb
 4153 1adb A1080000 		.4byte	.LASF404
 4154 1adf 0D       		.byte	0xd
 4155 1ae0 82       		.byte	0x82
 4156 1ae1 BA010000 		.4byte	0x1ba
 4157 1ae5 0C       		.byte	0xc
 4158 1ae6 0B       		.uleb128 0xb
 4159 1ae7 41120000 		.4byte	.LASF405
 4160 1aeb 0D       		.byte	0xd
 4161 1aec 84       		.byte	0x84
 4162 1aed 3B1B0000 		.4byte	0x1b3b
 4163 1af1 10       		.byte	0x10
 4164 1af2 0B       		.uleb128 0xb
 4165 1af3 A10A0000 		.4byte	.LASF406
 4166 1af7 0D       		.byte	0xd
 4167 1af8 85       		.byte	0x85
 4168 1af9 411B0000 		.4byte	0x1b41
 4169 1afd 14       		.byte	0x14
 4170 1afe 0B       		.uleb128 0xb
 4171 1aff 00060000 		.4byte	.LASF407
 4172 1b03 0D       		.byte	0xd
 4173 1b04 86       		.byte	0x86
 4174 1b05 B8000000 		.4byte	0xb8
 4175 1b09 18       		.byte	0x18
 4176 1b0a 0B       		.uleb128 0xb
 4177 1b0b 2A020000 		.4byte	.LASF408
 4178 1b0f 0D       		.byte	0xd
 4179 1b10 87       		.byte	0x87
 4180 1b11 B8000000 		.4byte	0xb8
 4181 1b15 1C       		.byte	0x1c
 4182 1b16 0B       		.uleb128 0xb
 4183 1b17 44070000 		.4byte	.LASF409
ARM GAS  C:\Users\Rolf\AppData\Local\Temp\ccafVfle.s 			page 111


 4184 1b1b 0D       		.byte	0xd
 4185 1b1c 89       		.byte	0x89
 4186 1b1d 9D1A0000 		.4byte	0x1a9d
 4187 1b21 20       		.byte	0x20
 4188 1b22 0B       		.uleb128 0xb
 4189 1b23 A9180000 		.4byte	.LASF410
 4190 1b27 0D       		.byte	0xd
 4191 1b28 8A       		.byte	0x8a
 4192 1b29 921A0000 		.4byte	0x1a92
 4193 1b2d 24       		.byte	0x24
 4194 1b2e 0B       		.uleb128 0xb
 4195 1b2f E7180000 		.4byte	.LASF411
 4196 1b33 0D       		.byte	0xd
 4197 1b34 8B       		.byte	0x8b
 4198 1b35 921A0000 		.4byte	0x1a92
 4199 1b39 28       		.byte	0x28
 4200 1b3a 00       		.byte	0
 4201 1b3b 12       		.uleb128 0x12
 4202 1b3c 04       		.byte	0x4
 4203 1b3d E9150000 		.4byte	0x15e9
 4204 1b41 12       		.uleb128 0x12
 4205 1b42 04       		.byte	0x4
 4206 1b43 F5150000 		.4byte	0x15f5
 4207 1b47 03       		.uleb128 0x3
 4208 1b48 880E0000 		.4byte	.LASF412
 4209 1b4c 0D       		.byte	0xd
 4210 1b4d 8C       		.byte	0x8c
 4211 1b4e AE1A0000 		.4byte	0x1aae
 4212 1b52 10       		.uleb128 0x10
 4213 1b53 14       		.byte	0x14
 4214 1b54 0D       		.byte	0xd
 4215 1b55 8F       		.byte	0x8f
 4216 1b56 971B0000 		.4byte	0x1b97
 4217 1b5a 0B       		.uleb128 0xb
 4218 1b5b 84110000 		.4byte	.LASF413
 4219 1b5f 0D       		.byte	0xd
 4220 1b60 91       		.byte	0x91
 4221 1b61 B8000000 		.4byte	0xb8
 4222 1b65 00       		.byte	0
 4223 1b66 0B       		.uleb128 0xb
 4224 1b67 BC110000 		.4byte	.LASF414
 4225 1b6b 0D       		.byte	0xd
 4226 1b6c 92       		.byte	0x92
 4227 1b6d B8000000 		.4byte	0xb8
 4228 1b71 04       		.byte	0x4
 4229 1b72 0B       		.uleb128 0xb
 4230 1b73 F2090000 		.4byte	.LASF415
 4231 1b77 0D       		.byte	0xd
 4232 1b78 93       		.byte	0x93
 4233 1b79 B8000000 		.4byte	0xb8
 4234 1b7d 08       		.byte	0x8
 4235 1b7e 0B       		.uleb128 0xb
 4236 1b7f 30040000 		.4byte	.LASF416
 4237 1b83 0D       		.byte	0xd
 4238 1b84 95       		.byte	0x95
 4239 1b85 B8000000 		.4byte	0xb8
 4240 1b89 0C       		.byte	0xc
ARM GAS  C:\Users\Rolf\AppData\Local\Temp\ccafVfle.s 			page 112


 4241 1b8a 0B       		.uleb128 0xb
 4242 1b8b 2E0D0000 		.4byte	.LASF417
 4243 1b8f 0D       		.byte	0xd
 4244 1b90 96       		.byte	0x96
 4245 1b91 B8000000 		.4byte	0xb8
 4246 1b95 10       		.byte	0x10
 4247 1b96 00       		.byte	0
 4248 1b97 03       		.uleb128 0x3
 4249 1b98 C6010000 		.4byte	.LASF418
 4250 1b9c 0D       		.byte	0xd
 4251 1b9d 98       		.byte	0x98
 4252 1b9e 521B0000 		.4byte	0x1b52
 4253 1ba2 10       		.uleb128 0x10
 4254 1ba3 34       		.byte	0x34
 4255 1ba4 0D       		.byte	0xd
 4256 1ba5 9B       		.byte	0x9b
 4257 1ba6 E71B0000 		.4byte	0x1be7
 4258 1baa 0B       		.uleb128 0xb
 4259 1bab E7080000 		.4byte	.LASF419
 4260 1baf 0D       		.byte	0xd
 4261 1bb0 9E       		.byte	0x9e
 4262 1bb1 971B0000 		.4byte	0x1b97
 4263 1bb5 00       		.byte	0
 4264 1bb6 0B       		.uleb128 0xb
 4265 1bb7 59160000 		.4byte	.LASF420
 4266 1bbb 0D       		.byte	0xd
 4267 1bbc A1       		.byte	0xa1
 4268 1bbd 971B0000 		.4byte	0x1b97
 4269 1bc1 14       		.byte	0x14
 4270 1bc2 0B       		.uleb128 0xb
 4271 1bc3 07160000 		.4byte	.LASF421
 4272 1bc7 0D       		.byte	0xd
 4273 1bc8 A4       		.byte	0xa4
 4274 1bc9 B8000000 		.4byte	0xb8
 4275 1bcd 28       		.byte	0x28
 4276 1bce 0B       		.uleb128 0xb
 4277 1bcf 14060000 		.4byte	.LASF422
 4278 1bd3 0D       		.byte	0xd
 4279 1bd4 A7       		.byte	0xa7
 4280 1bd5 9D1A0000 		.4byte	0x1a9d
 4281 1bd9 2C       		.byte	0x2c
 4282 1bda 0B       		.uleb128 0xb
 4283 1bdb 7F190000 		.4byte	.LASF423
 4284 1bdf 0D       		.byte	0xd
 4285 1be0 AA       		.byte	0xaa
 4286 1be1 3C1A0000 		.4byte	0x1a3c
 4287 1be5 30       		.byte	0x30
 4288 1be6 00       		.byte	0
 4289 1be7 03       		.uleb128 0x3
 4290 1be8 A2140000 		.4byte	.LASF424
 4291 1bec 0D       		.byte	0xd
 4292 1bed AB       		.byte	0xab
 4293 1bee A21B0000 		.4byte	0x1ba2
 4294 1bf2 16       		.uleb128 0x16
 4295 1bf3 6C0E0000 		.4byte	.LASF482
 4296 1bf7 03       		.byte	0x3
 4297 1bf8 D203     		.2byte	0x3d2
ARM GAS  C:\Users\Rolf\AppData\Local\Temp\ccafVfle.s 			page 113


 4298 1bfa 97000000 		.4byte	0x97
 4299 1bfe 03       		.byte	0x3
 4300 1bff 17       		.uleb128 0x17
 4301 1c00 57080000 		.4byte	.LASF483
 4302 1c04 02       		.byte	0x2
 4303 1c05 5401     		.2byte	0x154
 4304 1c07 03       		.byte	0x3
 4305 1c08 18       		.uleb128 0x18
 4306 1c09 53060000 		.4byte	.LASF425
 4307 1c0d 01       		.byte	0x1
 4308 1c0e 7302     		.2byte	0x273
 4309 1c10 00000000 		.4byte	.LFB81
 4310 1c14 0A000000 		.4byte	.LFE81-.LFB81
 4311 1c18 01       		.uleb128 0x1
 4312 1c19 9C       		.byte	0x9c
 4313 1c1a 2E1C0000 		.4byte	0x1c2e
 4314 1c1e 19       		.uleb128 0x19
 4315 1c1f 08000000 		.4byte	.LVL0
 4316 1c23 44210000 		.4byte	0x2144
 4317 1c27 1A       		.uleb128 0x1a
 4318 1c28 01       		.uleb128 0x1
 4319 1c29 50       		.byte	0x50
 4320 1c2a 01       		.uleb128 0x1
 4321 1c2b 30       		.byte	0x30
 4322 1c2c 00       		.byte	0
 4323 1c2d 00       		.byte	0
 4324 1c2e 1B       		.uleb128 0x1b
 4325 1c2f 570C0000 		.4byte	.LASF484
 4326 1c33 01       		.byte	0x1
 4327 1c34 1301     		.2byte	0x113
 4328 1c36 00000000 		.4byte	.LFB74
 4329 1c3a 02000000 		.4byte	.LFE74-.LFB74
 4330 1c3e 01       		.uleb128 0x1
 4331 1c3f 9C       		.byte	0x9c
 4332 1c40 1C       		.uleb128 0x1c
 4333 1c41 641D0000 		.4byte	.LASF426
 4334 1c45 01       		.byte	0x1
 4335 1c46 2601     		.2byte	0x126
 4336 1c48 00000000 		.4byte	.LFB75
 4337 1c4c B0010000 		.4byte	.LFE75-.LFB75
 4338 1c50 01       		.uleb128 0x1
 4339 1c51 9C       		.byte	0x9c
 4340 1c52 BD1D0000 		.4byte	0x1dbd
 4341 1c56 1D       		.uleb128 0x1d
 4342 1c57 64070000 		.4byte	.LASF427
 4343 1c5b 01       		.byte	0x1
 4344 1c5c 2801     		.2byte	0x128
 4345 1c5e B8000000 		.4byte	0xb8
 4346 1c62 00000000 		.4byte	.LLST0
 4347 1c66 1D       		.uleb128 0x1d
 4348 1c67 73090000 		.4byte	.LASF428
 4349 1c6b 01       		.byte	0x1
 4350 1c6c 2901     		.2byte	0x129
 4351 1c6e B8000000 		.4byte	0xb8
 4352 1c72 29000000 		.4byte	.LLST1
 4353 1c76 1D       		.uleb128 0x1d
 4354 1c77 A9170000 		.4byte	.LASF429
ARM GAS  C:\Users\Rolf\AppData\Local\Temp\ccafVfle.s 			page 114


 4355 1c7b 01       		.byte	0x1
 4356 1c7c 2A01     		.2byte	0x12a
 4357 1c7e B8000000 		.4byte	0xb8
 4358 1c82 68000000 		.4byte	.LLST2
 4359 1c86 1D       		.uleb128 0x1d
 4360 1c87 070A0000 		.4byte	.LASF430
 4361 1c8b 01       		.byte	0x1
 4362 1c8c 2B01     		.2byte	0x12b
 4363 1c8e B8000000 		.4byte	0xb8
 4364 1c92 7B000000 		.4byte	.LLST3
 4365 1c96 1D       		.uleb128 0x1d
 4366 1c97 4C190000 		.4byte	.LASF431
 4367 1c9b 01       		.byte	0x1
 4368 1c9c 2C01     		.2byte	0x12c
 4369 1c9e B8000000 		.4byte	0xb8
 4370 1ca2 8E000000 		.4byte	.LLST4
 4371 1ca6 1D       		.uleb128 0x1d
 4372 1ca7 E0080000 		.4byte	.LASF432
 4373 1cab 01       		.byte	0x1
 4374 1cac 2D01     		.2byte	0x12d
 4375 1cae B8000000 		.4byte	0xb8
 4376 1cb2 AC000000 		.4byte	.LLST5
 4377 1cb6 1E       		.uleb128 0x1e
 4378 1cb7 00000000 		.4byte	.Ldebug_ranges0+0
 4379 1cbb D01C0000 		.4byte	0x1cd0
 4380 1cbf 1D       		.uleb128 0x1d
 4381 1cc0 9C090000 		.4byte	.LASF433
 4382 1cc4 01       		.byte	0x1
 4383 1cc5 4E01     		.2byte	0x14e
 4384 1cc7 B8000000 		.4byte	0xb8
 4385 1ccb D5000000 		.4byte	.LLST6
 4386 1ccf 00       		.byte	0
 4387 1cd0 1F       		.uleb128 0x1f
 4388 1cd1 58000000 		.4byte	.LBB8
 4389 1cd5 6E000000 		.4byte	.LBE8-.LBB8
 4390 1cd9 481D0000 		.4byte	0x1d48
 4391 1cdd 1D       		.uleb128 0x1d
 4392 1cde BA0A0000 		.4byte	.LASF434
 4393 1ce2 01       		.byte	0x1
 4394 1ce3 7501     		.2byte	0x175
 4395 1ce5 BD1D0000 		.4byte	0x1dbd
 4396 1ce9 F3000000 		.4byte	.LLST7
 4397 1ced 1D       		.uleb128 0x1d
 4398 1cee BC190000 		.4byte	.LASF435
 4399 1cf2 01       		.byte	0x1
 4400 1cf3 7601     		.2byte	0x176
 4401 1cf5 BD1D0000 		.4byte	0x1dbd
 4402 1cf9 0A010000 		.4byte	.LLST8
 4403 1cfd 1D       		.uleb128 0x1d
 4404 1cfe 81180000 		.4byte	.LASF436
 4405 1d02 01       		.byte	0x1
 4406 1d03 7701     		.2byte	0x177
 4407 1d05 BD1D0000 		.4byte	0x1dbd
 4408 1d09 21010000 		.4byte	.LLST9
 4409 1d0d 20       		.uleb128 0x20
 4410 1d0e 9A000000 		.4byte	.LBB9
 4411 1d12 2A000000 		.4byte	.LBE9-.LBB9
ARM GAS  C:\Users\Rolf\AppData\Local\Temp\ccafVfle.s 			page 115


 4412 1d16 1D       		.uleb128 0x1d
 4413 1d17 36020000 		.4byte	.LASF437
 4414 1d1b 01       		.byte	0x1
 4415 1d1c 7B01     		.2byte	0x17b
 4416 1d1e B8000000 		.4byte	0xb8
 4417 1d22 34010000 		.4byte	.LLST10
 4418 1d26 1D       		.uleb128 0x1d
 4419 1d27 94030000 		.4byte	.LASF438
 4420 1d2b 01       		.byte	0x1
 4421 1d2c 7C01     		.2byte	0x17c
 4422 1d2e B8000000 		.4byte	0xb8
 4423 1d32 47010000 		.4byte	.LLST11
 4424 1d36 1D       		.uleb128 0x1d
 4425 1d37 701C0000 		.4byte	.LASF439
 4426 1d3b 01       		.byte	0x1
 4427 1d3c 7D01     		.2byte	0x17d
 4428 1d3e B8000000 		.4byte	0xb8
 4429 1d42 5A010000 		.4byte	.LLST12
 4430 1d46 00       		.byte	0
 4431 1d47 00       		.byte	0
 4432 1d48 20       		.uleb128 0x20
 4433 1d49 CA000000 		.4byte	.LBB10
 4434 1d4d 68000000 		.4byte	.LBE10-.LBB10
 4435 1d51 1D       		.uleb128 0x1d
 4436 1d52 B3060000 		.4byte	.LASF440
 4437 1d56 01       		.byte	0x1
 4438 1d57 8D01     		.2byte	0x18d
 4439 1d59 BD1D0000 		.4byte	0x1dbd
 4440 1d5d 6D010000 		.4byte	.LLST13
 4441 1d61 1D       		.uleb128 0x1d
 4442 1d62 7D150000 		.4byte	.LASF441
 4443 1d66 01       		.byte	0x1
 4444 1d67 8E01     		.2byte	0x18e
 4445 1d69 BD1D0000 		.4byte	0x1dbd
 4446 1d6d 84010000 		.4byte	.LLST14
 4447 1d71 1D       		.uleb128 0x1d
 4448 1d72 2F180000 		.4byte	.LASF442
 4449 1d76 01       		.byte	0x1
 4450 1d77 8F01     		.2byte	0x18f
 4451 1d79 BD1D0000 		.4byte	0x1dbd
 4452 1d7d 9B010000 		.4byte	.LLST15
 4453 1d81 20       		.uleb128 0x20
 4454 1d82 0C010000 		.4byte	.LBB11
 4455 1d86 26000000 		.4byte	.LBE11-.LBB11
 4456 1d8a 1D       		.uleb128 0x1d
 4457 1d8b 281C0000 		.4byte	.LASF443
 4458 1d8f 01       		.byte	0x1
 4459 1d90 9301     		.2byte	0x193
 4460 1d92 B8000000 		.4byte	0xb8
 4461 1d96 AE010000 		.4byte	.LLST16
 4462 1d9a 1D       		.uleb128 0x1d
 4463 1d9b C71A0000 		.4byte	.LASF444
 4464 1d9f 01       		.byte	0x1
 4465 1da0 9401     		.2byte	0x194
 4466 1da2 B8000000 		.4byte	0xb8
 4467 1da6 C1010000 		.4byte	.LLST17
 4468 1daa 1D       		.uleb128 0x1d
ARM GAS  C:\Users\Rolf\AppData\Local\Temp\ccafVfle.s 			page 116


 4469 1dab 701C0000 		.4byte	.LASF439
 4470 1daf 01       		.byte	0x1
 4471 1db0 9501     		.2byte	0x195
 4472 1db2 B8000000 		.4byte	0xb8
 4473 1db6 D4010000 		.4byte	.LLST18
 4474 1dba 00       		.byte	0
 4475 1dbb 00       		.byte	0
 4476 1dbc 00       		.byte	0
 4477 1dbd 02       		.uleb128 0x2
 4478 1dbe 01       		.byte	0x1
 4479 1dbf 02       		.byte	0x2
 4480 1dc0 D70A0000 		.4byte	.LASF445
 4481 1dc4 21       		.uleb128 0x21
 4482 1dc5 321D0000 		.4byte	.LASF446
 4483 1dc9 01       		.byte	0x1
 4484 1dca A2       		.byte	0xa2
 4485 1dcb 00000000 		.4byte	.LFB73
 4486 1dcf C8000000 		.4byte	.LFE73-.LFB73
 4487 1dd3 01       		.uleb128 0x1
 4488 1dd4 9C       		.byte	0x9c
 4489 1dd5 C21E0000 		.4byte	0x1ec2
 4490 1dd9 22       		.uleb128 0x22
 4491 1dda 41130000 		.4byte	.LASF447
 4492 1dde 01       		.byte	0x1
 4493 1ddf A7       		.byte	0xa7
 4494 1de0 B8000000 		.4byte	0xb8
 4495 1de4 E7010000 		.4byte	.LLST19
 4496 1de8 23       		.uleb128 0x23
 4497 1de9 531C0000 		.4byte	.LASF448
 4498 1ded 01       		.byte	0x1
 4499 1dee C7       		.byte	0xc7
 4500 1def C21E0000 		.4byte	0x1ec2
 4501 1df3 05       		.uleb128 0x5
 4502 1df4 03       		.byte	0x3
 4503 1df5 00000000 		.4byte	ipcSemaArray.10612
 4504 1df9 23       		.uleb128 0x23
 4505 1dfa 3F090000 		.4byte	.LASF449
 4506 1dfe 01       		.byte	0x1
 4507 1dff DB       		.byte	0xdb
 4508 1e00 D21E0000 		.4byte	0x1ed2
 4509 1e04 05       		.uleb128 0x5
 4510 1e05 03       		.byte	0x3
 4511 1e06 10000000 		.4byte	systemIpcPipeEpArray.10613
 4512 1e0a 23       		.uleb128 0x23
 4513 1e0b F7120000 		.4byte	.LASF450
 4514 1e0f 01       		.byte	0x1
 4515 1e10 DF       		.byte	0xdf
 4516 1e11 E21E0000 		.4byte	0x1ee2
 4517 1e15 05       		.uleb128 0x5
 4518 1e16 03       		.byte	0x3
 4519 1e17 70010000 		.4byte	systemIpcPipeSysCbArray.10614
 4520 1e1b 23       		.uleb128 0x23
 4521 1e1c A61B0000 		.4byte	.LASF451
 4522 1e20 01       		.byte	0x1
 4523 1e21 E1       		.byte	0xe1
 4524 1e22 F21E0000 		.4byte	0x1ef2
 4525 1e26 05       		.uleb128 0x5
ARM GAS  C:\Users\Rolf\AppData\Local\Temp\ccafVfle.s 			page 117


 4526 1e27 03       		.byte	0x3
 4527 1e28 00000000 		.4byte	systemIpcPipeConfigCm0.10615
 4528 1e2c 24       		.uleb128 0x24
 4529 1e2d FF1B0000 		.4byte	0x1bff
 4530 1e31 40000000 		.4byte	.LBB12
 4531 1e35 0C000000 		.4byte	.LBE12-.LBB12
 4532 1e39 01       		.byte	0x1
 4533 1e3a B6       		.byte	0xb6
 4534 1e3b 24       		.uleb128 0x24
 4535 1e3c F21B0000 		.4byte	0x1bf2
 4536 1e40 54000000 		.4byte	.LBB14
 4537 1e44 16000000 		.4byte	.LBE14-.LBB14
 4538 1e48 01       		.byte	0x1
 4539 1e49 BC       		.byte	0xbc
 4540 1e4a 25       		.uleb128 0x25
 4541 1e4b 08000000 		.4byte	.LVL47
 4542 1e4f 50210000 		.4byte	0x2150
 4543 1e53 25       		.uleb128 0x25
 4544 1e54 40000000 		.4byte	.LVL55
 4545 1e58 5B210000 		.4byte	0x215b
 4546 1e5c 25       		.uleb128 0x25
 4547 1e5d 50000000 		.4byte	.LVL56
 4548 1e61 2E1C0000 		.4byte	0x1c2e
 4549 1e65 25       		.uleb128 0x25
 4550 1e66 54000000 		.4byte	.LVL57
 4551 1e6a 401C0000 		.4byte	0x1c40
 4552 1e6e 26       		.uleb128 0x26
 4553 1e6f 82000000 		.4byte	.LVL58
 4554 1e73 67210000 		.4byte	0x2167
 4555 1e77 8D1E0000 		.4byte	0x1e8d
 4556 1e7b 1A       		.uleb128 0x1a
 4557 1e7c 01       		.uleb128 0x1
 4558 1e7d 50       		.byte	0x50
 4559 1e7e 01       		.uleb128 0x1
 4560 1e7f 34       		.byte	0x34
 4561 1e80 1A       		.uleb128 0x1a
 4562 1e81 01       		.uleb128 0x1
 4563 1e82 51       		.byte	0x51
 4564 1e83 02       		.uleb128 0x2
 4565 1e84 08       		.byte	0x8
 4566 1e85 80       		.byte	0x80
 4567 1e86 1A       		.uleb128 0x1a
 4568 1e87 01       		.uleb128 0x1
 4569 1e88 52       		.byte	0x52
 4570 1e89 02       		.uleb128 0x2
 4571 1e8a 74       		.byte	0x74
 4572 1e8b 00       		.sleb128 0
 4573 1e8c 00       		.byte	0
 4574 1e8d 26       		.uleb128 0x26
 4575 1e8e 8A000000 		.4byte	.LVL59
 4576 1e92 72210000 		.4byte	0x2172
 4577 1e96 A11E0000 		.4byte	0x1ea1
 4578 1e9a 1A       		.uleb128 0x1a
 4579 1e9b 01       		.uleb128 0x1
 4580 1e9c 50       		.byte	0x50
 4581 1e9d 02       		.uleb128 0x2
 4582 1e9e 74       		.byte	0x74
ARM GAS  C:\Users\Rolf\AppData\Local\Temp\ccafVfle.s 			page 118


 4583 1e9f 10       		.sleb128 16
 4584 1ea0 00       		.byte	0
 4585 1ea1 26       		.uleb128 0x26
 4586 1ea2 9C000000 		.4byte	.LVL60
 4587 1ea6 7E210000 		.4byte	0x217e
 4588 1eaa B81E0000 		.4byte	0x1eb8
 4589 1eae 1A       		.uleb128 0x1a
 4590 1eaf 01       		.uleb128 0x1
 4591 1eb0 50       		.byte	0x50
 4592 1eb1 05       		.uleb128 0x5
 4593 1eb2 03       		.byte	0x3
 4594 1eb3 00000000 		.4byte	.LANCHOR2
 4595 1eb7 00       		.byte	0
 4596 1eb8 25       		.uleb128 0x25
 4597 1eb9 A0000000 		.4byte	.LVL61
 4598 1ebd 8A210000 		.4byte	0x218a
 4599 1ec1 00       		.byte	0
 4600 1ec2 0D       		.uleb128 0xd
 4601 1ec3 B8000000 		.4byte	0xb8
 4602 1ec7 D21E0000 		.4byte	0x1ed2
 4603 1ecb 0E       		.uleb128 0xe
 4604 1ecc C5010000 		.4byte	0x1c5
 4605 1ed0 03       		.byte	0x3
 4606 1ed1 00       		.byte	0
 4607 1ed2 0D       		.uleb128 0xd
 4608 1ed3 471B0000 		.4byte	0x1b47
 4609 1ed7 E21E0000 		.4byte	0x1ee2
 4610 1edb 0E       		.uleb128 0xe
 4611 1edc C5010000 		.4byte	0x1c5
 4612 1ee0 07       		.byte	0x7
 4613 1ee1 00       		.byte	0
 4614 1ee2 0D       		.uleb128 0xd
 4615 1ee3 761A0000 		.4byte	0x1a76
 4616 1ee7 F21E0000 		.4byte	0x1ef2
 4617 1eeb 0E       		.uleb128 0xe
 4618 1eec C5010000 		.4byte	0x1c5
 4619 1ef0 07       		.byte	0x7
 4620 1ef1 00       		.byte	0
 4621 1ef2 09       		.uleb128 0x9
 4622 1ef3 E71B0000 		.4byte	0x1be7
 4623 1ef7 27       		.uleb128 0x27
 4624 1ef8 19030000 		.4byte	.LASF485
 4625 1efc 01       		.byte	0x1
 4626 1efd CA01     		.2byte	0x1ca
 4627 1eff B8000000 		.4byte	0xb8
 4628 1f03 00000000 		.4byte	.LFB76
 4629 1f07 10000000 		.4byte	.LFE76-.LFB76
 4630 1f0b 01       		.uleb128 0x1
 4631 1f0c 9C       		.byte	0x9c
 4632 1f0d 201F0000 		.4byte	0x1f20
 4633 1f11 28       		.uleb128 0x28
 4634 1f12 2C030000 		.4byte	.LASF452
 4635 1f16 01       		.byte	0x1
 4636 1f17 CC01     		.2byte	0x1cc
 4637 1f19 B8000000 		.4byte	0xb8
 4638 1f1d 01       		.uleb128 0x1
 4639 1f1e 50       		.byte	0x50
ARM GAS  C:\Users\Rolf\AppData\Local\Temp\ccafVfle.s 			page 119


 4640 1f1f 00       		.byte	0
 4641 1f20 18       		.uleb128 0x18
 4642 1f21 4D1B0000 		.4byte	.LASF453
 4643 1f25 01       		.byte	0x1
 4644 1f26 1002     		.2byte	0x210
 4645 1f28 00000000 		.4byte	.LFB78
 4646 1f2c 34000000 		.4byte	.LFE78-.LFB78
 4647 1f30 01       		.uleb128 0x1
 4648 1f31 9C       		.byte	0x9c
 4649 1f32 691F0000 		.4byte	0x1f69
 4650 1f36 1D       		.uleb128 0x1d
 4651 1f37 50030000 		.4byte	.LASF454
 4652 1f3b 01       		.byte	0x1
 4653 1f3c 1202     		.2byte	0x212
 4654 1f3e B8000000 		.4byte	0xb8
 4655 1f42 14020000 		.4byte	.LLST20
 4656 1f46 1D       		.uleb128 0x1d
 4657 1f47 2C030000 		.4byte	.LASF452
 4658 1f4b 01       		.byte	0x1
 4659 1f4c 1302     		.2byte	0x213
 4660 1f4e B8000000 		.4byte	0xb8
 4661 1f52 27020000 		.4byte	.LLST21
 4662 1f56 25       		.uleb128 0x25
 4663 1f57 06000000 		.4byte	.LVL63
 4664 1f5b 96210000 		.4byte	0x2196
 4665 1f5f 25       		.uleb128 0x25
 4666 1f60 24000000 		.4byte	.LVL67
 4667 1f64 A2210000 		.4byte	0x21a2
 4668 1f68 00       		.byte	0
 4669 1f69 18       		.uleb128 0x18
 4670 1f6a 120A0000 		.4byte	.LASF455
 4671 1f6e 01       		.byte	0x1
 4672 1f6f 3602     		.2byte	0x236
 4673 1f71 00000000 		.4byte	.LFB79
 4674 1f75 28000000 		.4byte	.LFE79-.LFB79
 4675 1f79 01       		.uleb128 0x1
 4676 1f7a 9C       		.byte	0x9c
 4677 1f7b B21F0000 		.4byte	0x1fb2
 4678 1f7f 1D       		.uleb128 0x1d
 4679 1f80 50030000 		.4byte	.LASF454
 4680 1f84 01       		.byte	0x1
 4681 1f85 3802     		.2byte	0x238
 4682 1f87 B8000000 		.4byte	0xb8
 4683 1f8b 47020000 		.4byte	.LLST22
 4684 1f8f 1D       		.uleb128 0x1d
 4685 1f90 2C030000 		.4byte	.LASF452
 4686 1f94 01       		.byte	0x1
 4687 1f95 3902     		.2byte	0x239
 4688 1f97 B8000000 		.4byte	0xb8
 4689 1f9b 5A020000 		.4byte	.LLST23
 4690 1f9f 25       		.uleb128 0x25
 4691 1fa0 06000000 		.4byte	.LVL68
 4692 1fa4 96210000 		.4byte	0x2196
 4693 1fa8 25       		.uleb128 0x25
 4694 1fa9 1A000000 		.4byte	.LVL71
 4695 1fad A2210000 		.4byte	0x21a2
 4696 1fb1 00       		.byte	0
ARM GAS  C:\Users\Rolf\AppData\Local\Temp\ccafVfle.s 			page 120


 4697 1fb2 18       		.uleb128 0x18
 4698 1fb3 CC190000 		.4byte	.LASF456
 4699 1fb7 01       		.byte	0x1
 4700 1fb8 5602     		.2byte	0x256
 4701 1fba 00000000 		.4byte	.LFB80
 4702 1fbe 34000000 		.4byte	.LFE80-.LFB80
 4703 1fc2 01       		.uleb128 0x1
 4704 1fc3 9C       		.byte	0x9c
 4705 1fc4 FB1F0000 		.4byte	0x1ffb
 4706 1fc8 1D       		.uleb128 0x1d
 4707 1fc9 50030000 		.4byte	.LASF454
 4708 1fcd 01       		.byte	0x1
 4709 1fce 5802     		.2byte	0x258
 4710 1fd0 B8000000 		.4byte	0xb8
 4711 1fd4 80020000 		.4byte	.LLST24
 4712 1fd8 1D       		.uleb128 0x1d
 4713 1fd9 2C030000 		.4byte	.LASF452
 4714 1fdd 01       		.byte	0x1
 4715 1fde 5902     		.2byte	0x259
 4716 1fe0 B8000000 		.4byte	0xb8
 4717 1fe4 93020000 		.4byte	.LLST25
 4718 1fe8 25       		.uleb128 0x25
 4719 1fe9 06000000 		.4byte	.LVL72
 4720 1fed 96210000 		.4byte	0x2196
 4721 1ff1 25       		.uleb128 0x25
 4722 1ff2 24000000 		.4byte	.LVL76
 4723 1ff6 A2210000 		.4byte	0x21a2
 4724 1ffa 00       		.byte	0
 4725 1ffb 18       		.uleb128 0x18
 4726 1ffc 5B0B0000 		.4byte	.LASF457
 4727 2000 01       		.byte	0x1
 4728 2001 E101     		.2byte	0x1e1
 4729 2003 00000000 		.4byte	.LFB77
 4730 2007 5C000000 		.4byte	.LFE77-.LFB77
 4731 200b 01       		.uleb128 0x1
 4732 200c 9C       		.byte	0x9c
 4733 200d 9B200000 		.4byte	0x209b
 4734 2011 29       		.uleb128 0x29
 4735 2012 E11A0000 		.4byte	.LASF486
 4736 2016 01       		.byte	0x1
 4737 2017 E101     		.2byte	0x1e1
 4738 2019 B8000000 		.4byte	0xb8
 4739 201d C6020000 		.4byte	.LLST26
 4740 2021 1D       		.uleb128 0x1d
 4741 2022 2C030000 		.4byte	.LASF452
 4742 2026 01       		.byte	0x1
 4743 2027 E301     		.2byte	0x1e3
 4744 2029 B8000000 		.4byte	0xb8
 4745 202d F2020000 		.4byte	.LLST27
 4746 2031 1D       		.uleb128 0x1d
 4747 2032 50030000 		.4byte	.LASF454
 4748 2036 01       		.byte	0x1
 4749 2037 E401     		.2byte	0x1e4
 4750 2039 B8000000 		.4byte	0xb8
 4751 203d 27030000 		.4byte	.LLST28
 4752 2041 1D       		.uleb128 0x1d
 4753 2042 941A0000 		.4byte	.LASF458
ARM GAS  C:\Users\Rolf\AppData\Local\Temp\ccafVfle.s 			page 121


 4754 2046 01       		.byte	0x1
 4755 2047 E501     		.2byte	0x1e5
 4756 2049 B8000000 		.4byte	0xb8
 4757 204d 45030000 		.4byte	.LLST29
 4758 2051 26       		.uleb128 0x26
 4759 2052 12000000 		.4byte	.LVL79
 4760 2056 AE210000 		.4byte	0x21ae
 4761 205a 6F200000 		.4byte	0x206f
 4762 205e 1A       		.uleb128 0x1a
 4763 205f 01       		.uleb128 0x1
 4764 2060 50       		.byte	0x50
 4765 2061 05       		.uleb128 0x5
 4766 2062 03       		.byte	0x3
 4767 2063 00000000 		.4byte	.LC6
 4768 2067 1A       		.uleb128 0x1a
 4769 2068 01       		.uleb128 0x1
 4770 2069 51       		.byte	0x51
 4771 206a 03       		.uleb128 0x3
 4772 206b 0A       		.byte	0xa
 4773 206c E701     		.2byte	0x1e7
 4774 206e 00       		.byte	0
 4775 206f 25       		.uleb128 0x25
 4776 2070 16000000 		.4byte	.LVL80
 4777 2074 96210000 		.4byte	0x2196
 4778 2078 25       		.uleb128 0x25
 4779 2079 1C000000 		.4byte	.LVL82
 4780 207d F71E0000 		.4byte	0x1ef7
 4781 2081 25       		.uleb128 0x25
 4782 2082 24000000 		.4byte	.LVL83
 4783 2086 B21F0000 		.4byte	0x1fb2
 4784 208a 19       		.uleb128 0x19
 4785 208b 4A000000 		.4byte	.LVL87
 4786 208f A2210000 		.4byte	0x21a2
 4787 2093 1A       		.uleb128 0x1a
 4788 2094 01       		.uleb128 0x1
 4789 2095 50       		.byte	0x50
 4790 2096 02       		.uleb128 0x2
 4791 2097 74       		.byte	0x74
 4792 2098 00       		.sleb128 0
 4793 2099 00       		.byte	0
 4794 209a 00       		.byte	0
 4795 209b 2A       		.uleb128 0x2a
 4796 209c F70A0000 		.4byte	.LASF459
 4797 20a0 01       		.byte	0x1
 4798 20a1 70       		.byte	0x70
 4799 20a2 B8000000 		.4byte	0xb8
 4800 20a6 05       		.uleb128 0x5
 4801 20a7 03       		.byte	0x3
 4802 20a8 00000000 		.4byte	cy_delayFreqHz
 4803 20ac 2A       		.uleb128 0x2a
 4804 20ad 520F0000 		.4byte	.LASF460
 4805 20b1 01       		.byte	0x1
 4806 20b2 72       		.byte	0x72
 4807 20b3 B8000000 		.4byte	0xb8
 4808 20b7 05       		.uleb128 0x5
 4809 20b8 03       		.byte	0x3
 4810 20b9 00000000 		.4byte	cy_delayFreqKhz
ARM GAS  C:\Users\Rolf\AppData\Local\Temp\ccafVfle.s 			page 122


 4811 20bd 2A       		.uleb128 0x2a
 4812 20be 420D0000 		.4byte	.LASF461
 4813 20c2 01       		.byte	0x1
 4814 20c3 75       		.byte	0x75
 4815 20c4 97000000 		.4byte	0x97
 4816 20c8 05       		.uleb128 0x5
 4817 20c9 03       		.byte	0x3
 4818 20ca 00000000 		.4byte	cy_delayFreqMhz
 4819 20ce 2A       		.uleb128 0x2a
 4820 20cf 66080000 		.4byte	.LASF462
 4821 20d3 01       		.byte	0x1
 4822 20d4 78       		.byte	0x78
 4823 20d5 B8000000 		.4byte	0xb8
 4824 20d9 05       		.uleb128 0x5
 4825 20da 03       		.byte	0x3
 4826 20db 00000000 		.4byte	cy_delay32kMs
 4827 20df 2A       		.uleb128 0x2a
 4828 20e0 31130000 		.4byte	.LASF463
 4829 20e4 01       		.byte	0x1
 4830 20e5 4D       		.byte	0x4d
 4831 20e6 B8000000 		.4byte	0xb8
 4832 20ea 05       		.uleb128 0x5
 4833 20eb 03       		.byte	0x3
 4834 20ec 00000000 		.4byte	SystemCoreClock
 4835 20f0 2A       		.uleb128 0x2a
 4836 20f1 B1010000 		.4byte	.LASF464
 4837 20f5 01       		.byte	0x1
 4838 20f6 57       		.byte	0x57
 4839 20f7 B8000000 		.4byte	0xb8
 4840 20fb 05       		.uleb128 0x5
 4841 20fc 03       		.byte	0x3
 4842 20fd 00000000 		.4byte	cy_BleEcoClockFreqHz
 4843 2101 2A       		.uleb128 0x2a
 4844 2102 8B060000 		.4byte	.LASF465
 4845 2106 01       		.byte	0x1
 4846 2107 50       		.byte	0x50
 4847 2108 B8000000 		.4byte	0xb8
 4848 210c 05       		.uleb128 0x5
 4849 210d 03       		.byte	0x3
 4850 210e 00000000 		.4byte	cy_Hfclk0FreqHz
 4851 2112 2A       		.uleb128 0x2a
 4852 2113 E80F0000 		.4byte	.LASF466
 4853 2117 01       		.byte	0x1
 4854 2118 53       		.byte	0x53
 4855 2119 B8000000 		.4byte	0xb8
 4856 211d 05       		.uleb128 0x5
 4857 211e 03       		.byte	0x3
 4858 211f 00000000 		.4byte	cy_PeriClkFreqHz
 4859 2123 2B       		.uleb128 0x2b
 4860 2124 8E0D0000 		.4byte	.LASF467
 4861 2128 0C       		.byte	0xc
 4862 2129 A5       		.byte	0xa5
 4863 212a 2E210000 		.4byte	0x212e
 4864 212e 09       		.uleb128 0x9
 4865 212f 311A0000 		.4byte	0x1a31
 4866 2133 2B       		.uleb128 0x2b
 4867 2134 AA000000 		.4byte	.LASF468
ARM GAS  C:\Users\Rolf\AppData\Local\Temp\ccafVfle.s 			page 123


 4868 2138 0C       		.byte	0xc
 4869 2139 A7       		.byte	0xa7
 4870 213a 3E210000 		.4byte	0x213e
 4871 213e 12       		.uleb128 0x12
 4872 213f 04       		.byte	0x4
 4873 2140 2E210000 		.4byte	0x212e
 4874 2144 2C       		.uleb128 0x2c
 4875 2145 80160000 		.4byte	.LASF469
 4876 2149 80160000 		.4byte	.LASF469
 4877 214d 0D       		.byte	0xd
 4878 214e 0601     		.2byte	0x106
 4879 2150 2D       		.uleb128 0x2d
 4880 2151 31190000 		.4byte	.LASF470
 4881 2155 31190000 		.4byte	.LASF470
 4882 2159 0C       		.byte	0xc
 4883 215a AE       		.byte	0xae
 4884 215b 2C       		.uleb128 0x2c
 4885 215c CC060000 		.4byte	.LASF471
 4886 2160 CC060000 		.4byte	.LASF471
 4887 2164 02       		.byte	0x2
 4888 2165 2F01     		.2byte	0x12f
 4889 2167 2D       		.uleb128 0x2d
 4890 2168 AC1A0000 		.4byte	.LASF472
 4891 216c AC1A0000 		.4byte	.LASF472
 4892 2170 0E       		.byte	0xe
 4893 2171 73       		.byte	0x73
 4894 2172 2C       		.uleb128 0x2c
 4895 2173 A31C0000 		.4byte	.LASF473
 4896 2177 A31C0000 		.4byte	.LASF473
 4897 217b 0D       		.byte	0xd
 4898 217c 0801     		.2byte	0x108
 4899 217e 2C       		.uleb128 0x2c
 4900 217f 1E110000 		.4byte	.LASF474
 4901 2183 1E110000 		.4byte	.LASF474
 4902 2187 0D       		.byte	0xd
 4903 2188 0901     		.2byte	0x109
 4904 218a 2C       		.uleb128 0x2c
 4905 218b 69030000 		.4byte	.LASF475
 4906 218f 69030000 		.4byte	.LASF475
 4907 2193 0F       		.byte	0xf
 4908 2194 A301     		.2byte	0x1a3
 4909 2196 2C       		.uleb128 0x2c
 4910 2197 6F0D0000 		.4byte	.LASF476
 4911 219b 6F0D0000 		.4byte	.LASF476
 4912 219f 03       		.byte	0x3
 4913 21a0 B203     		.2byte	0x3b2
 4914 21a2 2C       		.uleb128 0x2c
 4915 21a3 96110000 		.4byte	.LASF477
 4916 21a7 96110000 		.4byte	.LASF477
 4917 21ab 03       		.byte	0x3
 4918 21ac C103     		.2byte	0x3c1
 4919 21ae 2C       		.uleb128 0x2c
 4920 21af 28090000 		.4byte	.LASF478
 4921 21b3 28090000 		.4byte	.LASF478
 4922 21b7 03       		.byte	0x3
 4923 21b8 9203     		.2byte	0x392
 4924 21ba 00       		.byte	0
ARM GAS  C:\Users\Rolf\AppData\Local\Temp\ccafVfle.s 			page 124


 4925              		.section	.debug_abbrev,"",%progbits
 4926              	.Ldebug_abbrev0:
 4927 0000 01       		.uleb128 0x1
 4928 0001 11       		.uleb128 0x11
 4929 0002 01       		.byte	0x1
 4930 0003 25       		.uleb128 0x25
 4931 0004 0E       		.uleb128 0xe
 4932 0005 13       		.uleb128 0x13
 4933 0006 0B       		.uleb128 0xb
 4934 0007 03       		.uleb128 0x3
 4935 0008 0E       		.uleb128 0xe
 4936 0009 1B       		.uleb128 0x1b
 4937 000a 0E       		.uleb128 0xe
 4938 000b 55       		.uleb128 0x55
 4939 000c 17       		.uleb128 0x17
 4940 000d 11       		.uleb128 0x11
 4941 000e 01       		.uleb128 0x1
 4942 000f 10       		.uleb128 0x10
 4943 0010 17       		.uleb128 0x17
 4944 0011 00       		.byte	0
 4945 0012 00       		.byte	0
 4946 0013 02       		.uleb128 0x2
 4947 0014 24       		.uleb128 0x24
 4948 0015 00       		.byte	0
 4949 0016 0B       		.uleb128 0xb
 4950 0017 0B       		.uleb128 0xb
 4951 0018 3E       		.uleb128 0x3e
 4952 0019 0B       		.uleb128 0xb
 4953 001a 03       		.uleb128 0x3
 4954 001b 0E       		.uleb128 0xe
 4955 001c 00       		.byte	0
 4956 001d 00       		.byte	0
 4957 001e 03       		.uleb128 0x3
 4958 001f 16       		.uleb128 0x16
 4959 0020 00       		.byte	0
 4960 0021 03       		.uleb128 0x3
 4961 0022 0E       		.uleb128 0xe
 4962 0023 3A       		.uleb128 0x3a
 4963 0024 0B       		.uleb128 0xb
 4964 0025 3B       		.uleb128 0x3b
 4965 0026 0B       		.uleb128 0xb
 4966 0027 49       		.uleb128 0x49
 4967 0028 13       		.uleb128 0x13
 4968 0029 00       		.byte	0
 4969 002a 00       		.byte	0
 4970 002b 04       		.uleb128 0x4
 4971 002c 24       		.uleb128 0x24
 4972 002d 00       		.byte	0
 4973 002e 0B       		.uleb128 0xb
 4974 002f 0B       		.uleb128 0xb
 4975 0030 3E       		.uleb128 0x3e
 4976 0031 0B       		.uleb128 0xb
 4977 0032 03       		.uleb128 0x3
 4978 0033 08       		.uleb128 0x8
 4979 0034 00       		.byte	0
 4980 0035 00       		.byte	0
 4981 0036 05       		.uleb128 0x5
ARM GAS  C:\Users\Rolf\AppData\Local\Temp\ccafVfle.s 			page 125


 4982 0037 04       		.uleb128 0x4
 4983 0038 01       		.byte	0x1
 4984 0039 0B       		.uleb128 0xb
 4985 003a 0B       		.uleb128 0xb
 4986 003b 49       		.uleb128 0x49
 4987 003c 13       		.uleb128 0x13
 4988 003d 3A       		.uleb128 0x3a
 4989 003e 0B       		.uleb128 0xb
 4990 003f 3B       		.uleb128 0x3b
 4991 0040 0B       		.uleb128 0xb
 4992 0041 01       		.uleb128 0x1
 4993 0042 13       		.uleb128 0x13
 4994 0043 00       		.byte	0
 4995 0044 00       		.byte	0
 4996 0045 06       		.uleb128 0x6
 4997 0046 28       		.uleb128 0x28
 4998 0047 00       		.byte	0
 4999 0048 03       		.uleb128 0x3
 5000 0049 0E       		.uleb128 0xe
 5001 004a 1C       		.uleb128 0x1c
 5002 004b 0D       		.uleb128 0xd
 5003 004c 00       		.byte	0
 5004 004d 00       		.byte	0
 5005 004e 07       		.uleb128 0x7
 5006 004f 28       		.uleb128 0x28
 5007 0050 00       		.byte	0
 5008 0051 03       		.uleb128 0x3
 5009 0052 0E       		.uleb128 0xe
 5010 0053 1C       		.uleb128 0x1c
 5011 0054 0B       		.uleb128 0xb
 5012 0055 00       		.byte	0
 5013 0056 00       		.byte	0
 5014 0057 08       		.uleb128 0x8
 5015 0058 35       		.uleb128 0x35
 5016 0059 00       		.byte	0
 5017 005a 49       		.uleb128 0x49
 5018 005b 13       		.uleb128 0x13
 5019 005c 00       		.byte	0
 5020 005d 00       		.byte	0
 5021 005e 09       		.uleb128 0x9
 5022 005f 26       		.uleb128 0x26
 5023 0060 00       		.byte	0
 5024 0061 49       		.uleb128 0x49
 5025 0062 13       		.uleb128 0x13
 5026 0063 00       		.byte	0
 5027 0064 00       		.byte	0
 5028 0065 0A       		.uleb128 0xa
 5029 0066 13       		.uleb128 0x13
 5030 0067 01       		.byte	0x1
 5031 0068 0B       		.uleb128 0xb
 5032 0069 05       		.uleb128 0x5
 5033 006a 3A       		.uleb128 0x3a
 5034 006b 0B       		.uleb128 0xb
 5035 006c 3B       		.uleb128 0x3b
 5036 006d 0B       		.uleb128 0xb
 5037 006e 01       		.uleb128 0x1
 5038 006f 13       		.uleb128 0x13
ARM GAS  C:\Users\Rolf\AppData\Local\Temp\ccafVfle.s 			page 126


 5039 0070 00       		.byte	0
 5040 0071 00       		.byte	0
 5041 0072 0B       		.uleb128 0xb
 5042 0073 0D       		.uleb128 0xd
 5043 0074 00       		.byte	0
 5044 0075 03       		.uleb128 0x3
 5045 0076 0E       		.uleb128 0xe
 5046 0077 3A       		.uleb128 0x3a
 5047 0078 0B       		.uleb128 0xb
 5048 0079 3B       		.uleb128 0x3b
 5049 007a 0B       		.uleb128 0xb
 5050 007b 49       		.uleb128 0x49
 5051 007c 13       		.uleb128 0x13
 5052 007d 38       		.uleb128 0x38
 5053 007e 0B       		.uleb128 0xb
 5054 007f 00       		.byte	0
 5055 0080 00       		.byte	0
 5056 0081 0C       		.uleb128 0xc
 5057 0082 0D       		.uleb128 0xd
 5058 0083 00       		.byte	0
 5059 0084 03       		.uleb128 0x3
 5060 0085 0E       		.uleb128 0xe
 5061 0086 3A       		.uleb128 0x3a
 5062 0087 0B       		.uleb128 0xb
 5063 0088 3B       		.uleb128 0x3b
 5064 0089 0B       		.uleb128 0xb
 5065 008a 49       		.uleb128 0x49
 5066 008b 13       		.uleb128 0x13
 5067 008c 38       		.uleb128 0x38
 5068 008d 05       		.uleb128 0x5
 5069 008e 00       		.byte	0
 5070 008f 00       		.byte	0
 5071 0090 0D       		.uleb128 0xd
 5072 0091 01       		.uleb128 0x1
 5073 0092 01       		.byte	0x1
 5074 0093 49       		.uleb128 0x49
 5075 0094 13       		.uleb128 0x13
 5076 0095 01       		.uleb128 0x1
 5077 0096 13       		.uleb128 0x13
 5078 0097 00       		.byte	0
 5079 0098 00       		.byte	0
 5080 0099 0E       		.uleb128 0xe
 5081 009a 21       		.uleb128 0x21
 5082 009b 00       		.byte	0
 5083 009c 49       		.uleb128 0x49
 5084 009d 13       		.uleb128 0x13
 5085 009e 2F       		.uleb128 0x2f
 5086 009f 0B       		.uleb128 0xb
 5087 00a0 00       		.byte	0
 5088 00a1 00       		.byte	0
 5089 00a2 0F       		.uleb128 0xf
 5090 00a3 21       		.uleb128 0x21
 5091 00a4 00       		.byte	0
 5092 00a5 49       		.uleb128 0x49
 5093 00a6 13       		.uleb128 0x13
 5094 00a7 2F       		.uleb128 0x2f
 5095 00a8 05       		.uleb128 0x5
ARM GAS  C:\Users\Rolf\AppData\Local\Temp\ccafVfle.s 			page 127


 5096 00a9 00       		.byte	0
 5097 00aa 00       		.byte	0
 5098 00ab 10       		.uleb128 0x10
 5099 00ac 13       		.uleb128 0x13
 5100 00ad 01       		.byte	0x1
 5101 00ae 0B       		.uleb128 0xb
 5102 00af 0B       		.uleb128 0xb
 5103 00b0 3A       		.uleb128 0x3a
 5104 00b1 0B       		.uleb128 0xb
 5105 00b2 3B       		.uleb128 0x3b
 5106 00b3 0B       		.uleb128 0xb
 5107 00b4 01       		.uleb128 0x1
 5108 00b5 13       		.uleb128 0x13
 5109 00b6 00       		.byte	0
 5110 00b7 00       		.byte	0
 5111 00b8 11       		.uleb128 0x11
 5112 00b9 16       		.uleb128 0x16
 5113 00ba 00       		.byte	0
 5114 00bb 03       		.uleb128 0x3
 5115 00bc 0E       		.uleb128 0xe
 5116 00bd 3A       		.uleb128 0x3a
 5117 00be 0B       		.uleb128 0xb
 5118 00bf 3B       		.uleb128 0x3b
 5119 00c0 05       		.uleb128 0x5
 5120 00c1 49       		.uleb128 0x49
 5121 00c2 13       		.uleb128 0x13
 5122 00c3 00       		.byte	0
 5123 00c4 00       		.byte	0
 5124 00c5 12       		.uleb128 0x12
 5125 00c6 0F       		.uleb128 0xf
 5126 00c7 00       		.byte	0
 5127 00c8 0B       		.uleb128 0xb
 5128 00c9 0B       		.uleb128 0xb
 5129 00ca 49       		.uleb128 0x49
 5130 00cb 13       		.uleb128 0x13
 5131 00cc 00       		.byte	0
 5132 00cd 00       		.byte	0
 5133 00ce 13       		.uleb128 0x13
 5134 00cf 15       		.uleb128 0x15
 5135 00d0 00       		.byte	0
 5136 00d1 27       		.uleb128 0x27
 5137 00d2 19       		.uleb128 0x19
 5138 00d3 00       		.byte	0
 5139 00d4 00       		.byte	0
 5140 00d5 14       		.uleb128 0x14
 5141 00d6 15       		.uleb128 0x15
 5142 00d7 01       		.byte	0x1
 5143 00d8 27       		.uleb128 0x27
 5144 00d9 19       		.uleb128 0x19
 5145 00da 01       		.uleb128 0x1
 5146 00db 13       		.uleb128 0x13
 5147 00dc 00       		.byte	0
 5148 00dd 00       		.byte	0
 5149 00de 15       		.uleb128 0x15
 5150 00df 05       		.uleb128 0x5
 5151 00e0 00       		.byte	0
 5152 00e1 49       		.uleb128 0x49
ARM GAS  C:\Users\Rolf\AppData\Local\Temp\ccafVfle.s 			page 128


 5153 00e2 13       		.uleb128 0x13
 5154 00e3 00       		.byte	0
 5155 00e4 00       		.byte	0
 5156 00e5 16       		.uleb128 0x16
 5157 00e6 2E       		.uleb128 0x2e
 5158 00e7 00       		.byte	0
 5159 00e8 03       		.uleb128 0x3
 5160 00e9 0E       		.uleb128 0xe
 5161 00ea 3A       		.uleb128 0x3a
 5162 00eb 0B       		.uleb128 0xb
 5163 00ec 3B       		.uleb128 0x3b
 5164 00ed 05       		.uleb128 0x5
 5165 00ee 27       		.uleb128 0x27
 5166 00ef 19       		.uleb128 0x19
 5167 00f0 49       		.uleb128 0x49
 5168 00f1 13       		.uleb128 0x13
 5169 00f2 20       		.uleb128 0x20
 5170 00f3 0B       		.uleb128 0xb
 5171 00f4 00       		.byte	0
 5172 00f5 00       		.byte	0
 5173 00f6 17       		.uleb128 0x17
 5174 00f7 2E       		.uleb128 0x2e
 5175 00f8 00       		.byte	0
 5176 00f9 03       		.uleb128 0x3
 5177 00fa 0E       		.uleb128 0xe
 5178 00fb 3A       		.uleb128 0x3a
 5179 00fc 0B       		.uleb128 0xb
 5180 00fd 3B       		.uleb128 0x3b
 5181 00fe 05       		.uleb128 0x5
 5182 00ff 27       		.uleb128 0x27
 5183 0100 19       		.uleb128 0x19
 5184 0101 20       		.uleb128 0x20
 5185 0102 0B       		.uleb128 0xb
 5186 0103 00       		.byte	0
 5187 0104 00       		.byte	0
 5188 0105 18       		.uleb128 0x18
 5189 0106 2E       		.uleb128 0x2e
 5190 0107 01       		.byte	0x1
 5191 0108 3F       		.uleb128 0x3f
 5192 0109 19       		.uleb128 0x19
 5193 010a 03       		.uleb128 0x3
 5194 010b 0E       		.uleb128 0xe
 5195 010c 3A       		.uleb128 0x3a
 5196 010d 0B       		.uleb128 0xb
 5197 010e 3B       		.uleb128 0x3b
 5198 010f 05       		.uleb128 0x5
 5199 0110 27       		.uleb128 0x27
 5200 0111 19       		.uleb128 0x19
 5201 0112 11       		.uleb128 0x11
 5202 0113 01       		.uleb128 0x1
 5203 0114 12       		.uleb128 0x12
 5204 0115 06       		.uleb128 0x6
 5205 0116 40       		.uleb128 0x40
 5206 0117 18       		.uleb128 0x18
 5207 0118 9742     		.uleb128 0x2117
 5208 011a 19       		.uleb128 0x19
 5209 011b 01       		.uleb128 0x1
ARM GAS  C:\Users\Rolf\AppData\Local\Temp\ccafVfle.s 			page 129


 5210 011c 13       		.uleb128 0x13
 5211 011d 00       		.byte	0
 5212 011e 00       		.byte	0
 5213 011f 19       		.uleb128 0x19
 5214 0120 898201   		.uleb128 0x4109
 5215 0123 01       		.byte	0x1
 5216 0124 11       		.uleb128 0x11
 5217 0125 01       		.uleb128 0x1
 5218 0126 31       		.uleb128 0x31
 5219 0127 13       		.uleb128 0x13
 5220 0128 00       		.byte	0
 5221 0129 00       		.byte	0
 5222 012a 1A       		.uleb128 0x1a
 5223 012b 8A8201   		.uleb128 0x410a
 5224 012e 00       		.byte	0
 5225 012f 02       		.uleb128 0x2
 5226 0130 18       		.uleb128 0x18
 5227 0131 9142     		.uleb128 0x2111
 5228 0133 18       		.uleb128 0x18
 5229 0134 00       		.byte	0
 5230 0135 00       		.byte	0
 5231 0136 1B       		.uleb128 0x1b
 5232 0137 2E       		.uleb128 0x2e
 5233 0138 00       		.byte	0
 5234 0139 3F       		.uleb128 0x3f
 5235 013a 19       		.uleb128 0x19
 5236 013b 03       		.uleb128 0x3
 5237 013c 0E       		.uleb128 0xe
 5238 013d 3A       		.uleb128 0x3a
 5239 013e 0B       		.uleb128 0xb
 5240 013f 3B       		.uleb128 0x3b
 5241 0140 05       		.uleb128 0x5
 5242 0141 27       		.uleb128 0x27
 5243 0142 19       		.uleb128 0x19
 5244 0143 11       		.uleb128 0x11
 5245 0144 01       		.uleb128 0x1
 5246 0145 12       		.uleb128 0x12
 5247 0146 06       		.uleb128 0x6
 5248 0147 40       		.uleb128 0x40
 5249 0148 18       		.uleb128 0x18
 5250 0149 9742     		.uleb128 0x2117
 5251 014b 19       		.uleb128 0x19
 5252 014c 00       		.byte	0
 5253 014d 00       		.byte	0
 5254 014e 1C       		.uleb128 0x1c
 5255 014f 2E       		.uleb128 0x2e
 5256 0150 01       		.byte	0x1
 5257 0151 3F       		.uleb128 0x3f
 5258 0152 19       		.uleb128 0x19
 5259 0153 03       		.uleb128 0x3
 5260 0154 0E       		.uleb128 0xe
 5261 0155 3A       		.uleb128 0x3a
 5262 0156 0B       		.uleb128 0xb
 5263 0157 3B       		.uleb128 0x3b
 5264 0158 05       		.uleb128 0x5
 5265 0159 27       		.uleb128 0x27
 5266 015a 19       		.uleb128 0x19
ARM GAS  C:\Users\Rolf\AppData\Local\Temp\ccafVfle.s 			page 130


 5267 015b 11       		.uleb128 0x11
 5268 015c 01       		.uleb128 0x1
 5269 015d 12       		.uleb128 0x12
 5270 015e 06       		.uleb128 0x6
 5271 015f 40       		.uleb128 0x40
 5272 0160 18       		.uleb128 0x18
 5273 0161 9642     		.uleb128 0x2116
 5274 0163 19       		.uleb128 0x19
 5275 0164 01       		.uleb128 0x1
 5276 0165 13       		.uleb128 0x13
 5277 0166 00       		.byte	0
 5278 0167 00       		.byte	0
 5279 0168 1D       		.uleb128 0x1d
 5280 0169 34       		.uleb128 0x34
 5281 016a 00       		.byte	0
 5282 016b 03       		.uleb128 0x3
 5283 016c 0E       		.uleb128 0xe
 5284 016d 3A       		.uleb128 0x3a
 5285 016e 0B       		.uleb128 0xb
 5286 016f 3B       		.uleb128 0x3b
 5287 0170 05       		.uleb128 0x5
 5288 0171 49       		.uleb128 0x49
 5289 0172 13       		.uleb128 0x13
 5290 0173 02       		.uleb128 0x2
 5291 0174 17       		.uleb128 0x17
 5292 0175 00       		.byte	0
 5293 0176 00       		.byte	0
 5294 0177 1E       		.uleb128 0x1e
 5295 0178 0B       		.uleb128 0xb
 5296 0179 01       		.byte	0x1
 5297 017a 55       		.uleb128 0x55
 5298 017b 17       		.uleb128 0x17
 5299 017c 01       		.uleb128 0x1
 5300 017d 13       		.uleb128 0x13
 5301 017e 00       		.byte	0
 5302 017f 00       		.byte	0
 5303 0180 1F       		.uleb128 0x1f
 5304 0181 0B       		.uleb128 0xb
 5305 0182 01       		.byte	0x1
 5306 0183 11       		.uleb128 0x11
 5307 0184 01       		.uleb128 0x1
 5308 0185 12       		.uleb128 0x12
 5309 0186 06       		.uleb128 0x6
 5310 0187 01       		.uleb128 0x1
 5311 0188 13       		.uleb128 0x13
 5312 0189 00       		.byte	0
 5313 018a 00       		.byte	0
 5314 018b 20       		.uleb128 0x20
 5315 018c 0B       		.uleb128 0xb
 5316 018d 01       		.byte	0x1
 5317 018e 11       		.uleb128 0x11
 5318 018f 01       		.uleb128 0x1
 5319 0190 12       		.uleb128 0x12
 5320 0191 06       		.uleb128 0x6
 5321 0192 00       		.byte	0
 5322 0193 00       		.byte	0
 5323 0194 21       		.uleb128 0x21
ARM GAS  C:\Users\Rolf\AppData\Local\Temp\ccafVfle.s 			page 131


 5324 0195 2E       		.uleb128 0x2e
 5325 0196 01       		.byte	0x1
 5326 0197 3F       		.uleb128 0x3f
 5327 0198 19       		.uleb128 0x19
 5328 0199 03       		.uleb128 0x3
 5329 019a 0E       		.uleb128 0xe
 5330 019b 3A       		.uleb128 0x3a
 5331 019c 0B       		.uleb128 0xb
 5332 019d 3B       		.uleb128 0x3b
 5333 019e 0B       		.uleb128 0xb
 5334 019f 27       		.uleb128 0x27
 5335 01a0 19       		.uleb128 0x19
 5336 01a1 11       		.uleb128 0x11
 5337 01a2 01       		.uleb128 0x1
 5338 01a3 12       		.uleb128 0x12
 5339 01a4 06       		.uleb128 0x6
 5340 01a5 40       		.uleb128 0x40
 5341 01a6 18       		.uleb128 0x18
 5342 01a7 9742     		.uleb128 0x2117
 5343 01a9 19       		.uleb128 0x19
 5344 01aa 01       		.uleb128 0x1
 5345 01ab 13       		.uleb128 0x13
 5346 01ac 00       		.byte	0
 5347 01ad 00       		.byte	0
 5348 01ae 22       		.uleb128 0x22
 5349 01af 34       		.uleb128 0x34
 5350 01b0 00       		.byte	0
 5351 01b1 03       		.uleb128 0x3
 5352 01b2 0E       		.uleb128 0xe
 5353 01b3 3A       		.uleb128 0x3a
 5354 01b4 0B       		.uleb128 0xb
 5355 01b5 3B       		.uleb128 0x3b
 5356 01b6 0B       		.uleb128 0xb
 5357 01b7 49       		.uleb128 0x49
 5358 01b8 13       		.uleb128 0x13
 5359 01b9 02       		.uleb128 0x2
 5360 01ba 17       		.uleb128 0x17
 5361 01bb 00       		.byte	0
 5362 01bc 00       		.byte	0
 5363 01bd 23       		.uleb128 0x23
 5364 01be 34       		.uleb128 0x34
 5365 01bf 00       		.byte	0
 5366 01c0 03       		.uleb128 0x3
 5367 01c1 0E       		.uleb128 0xe
 5368 01c2 3A       		.uleb128 0x3a
 5369 01c3 0B       		.uleb128 0xb
 5370 01c4 3B       		.uleb128 0x3b
 5371 01c5 0B       		.uleb128 0xb
 5372 01c6 49       		.uleb128 0x49
 5373 01c7 13       		.uleb128 0x13
 5374 01c8 02       		.uleb128 0x2
 5375 01c9 18       		.uleb128 0x18
 5376 01ca 00       		.byte	0
 5377 01cb 00       		.byte	0
 5378 01cc 24       		.uleb128 0x24
 5379 01cd 1D       		.uleb128 0x1d
 5380 01ce 00       		.byte	0
ARM GAS  C:\Users\Rolf\AppData\Local\Temp\ccafVfle.s 			page 132


 5381 01cf 31       		.uleb128 0x31
 5382 01d0 13       		.uleb128 0x13
 5383 01d1 11       		.uleb128 0x11
 5384 01d2 01       		.uleb128 0x1
 5385 01d3 12       		.uleb128 0x12
 5386 01d4 06       		.uleb128 0x6
 5387 01d5 58       		.uleb128 0x58
 5388 01d6 0B       		.uleb128 0xb
 5389 01d7 59       		.uleb128 0x59
 5390 01d8 0B       		.uleb128 0xb
 5391 01d9 00       		.byte	0
 5392 01da 00       		.byte	0
 5393 01db 25       		.uleb128 0x25
 5394 01dc 898201   		.uleb128 0x4109
 5395 01df 00       		.byte	0
 5396 01e0 11       		.uleb128 0x11
 5397 01e1 01       		.uleb128 0x1
 5398 01e2 31       		.uleb128 0x31
 5399 01e3 13       		.uleb128 0x13
 5400 01e4 00       		.byte	0
 5401 01e5 00       		.byte	0
 5402 01e6 26       		.uleb128 0x26
 5403 01e7 898201   		.uleb128 0x4109
 5404 01ea 01       		.byte	0x1
 5405 01eb 11       		.uleb128 0x11
 5406 01ec 01       		.uleb128 0x1
 5407 01ed 31       		.uleb128 0x31
 5408 01ee 13       		.uleb128 0x13
 5409 01ef 01       		.uleb128 0x1
 5410 01f0 13       		.uleb128 0x13
 5411 01f1 00       		.byte	0
 5412 01f2 00       		.byte	0
 5413 01f3 27       		.uleb128 0x27
 5414 01f4 2E       		.uleb128 0x2e
 5415 01f5 01       		.byte	0x1
 5416 01f6 3F       		.uleb128 0x3f
 5417 01f7 19       		.uleb128 0x19
 5418 01f8 03       		.uleb128 0x3
 5419 01f9 0E       		.uleb128 0xe
 5420 01fa 3A       		.uleb128 0x3a
 5421 01fb 0B       		.uleb128 0xb
 5422 01fc 3B       		.uleb128 0x3b
 5423 01fd 05       		.uleb128 0x5
 5424 01fe 27       		.uleb128 0x27
 5425 01ff 19       		.uleb128 0x19
 5426 0200 49       		.uleb128 0x49
 5427 0201 13       		.uleb128 0x13
 5428 0202 11       		.uleb128 0x11
 5429 0203 01       		.uleb128 0x1
 5430 0204 12       		.uleb128 0x12
 5431 0205 06       		.uleb128 0x6
 5432 0206 40       		.uleb128 0x40
 5433 0207 18       		.uleb128 0x18
 5434 0208 9742     		.uleb128 0x2117
 5435 020a 19       		.uleb128 0x19
 5436 020b 01       		.uleb128 0x1
 5437 020c 13       		.uleb128 0x13
ARM GAS  C:\Users\Rolf\AppData\Local\Temp\ccafVfle.s 			page 133


 5438 020d 00       		.byte	0
 5439 020e 00       		.byte	0
 5440 020f 28       		.uleb128 0x28
 5441 0210 34       		.uleb128 0x34
 5442 0211 00       		.byte	0
 5443 0212 03       		.uleb128 0x3
 5444 0213 0E       		.uleb128 0xe
 5445 0214 3A       		.uleb128 0x3a
 5446 0215 0B       		.uleb128 0xb
 5447 0216 3B       		.uleb128 0x3b
 5448 0217 05       		.uleb128 0x5
 5449 0218 49       		.uleb128 0x49
 5450 0219 13       		.uleb128 0x13
 5451 021a 02       		.uleb128 0x2
 5452 021b 18       		.uleb128 0x18
 5453 021c 00       		.byte	0
 5454 021d 00       		.byte	0
 5455 021e 29       		.uleb128 0x29
 5456 021f 05       		.uleb128 0x5
 5457 0220 00       		.byte	0
 5458 0221 03       		.uleb128 0x3
 5459 0222 0E       		.uleb128 0xe
 5460 0223 3A       		.uleb128 0x3a
 5461 0224 0B       		.uleb128 0xb
 5462 0225 3B       		.uleb128 0x3b
 5463 0226 05       		.uleb128 0x5
 5464 0227 49       		.uleb128 0x49
 5465 0228 13       		.uleb128 0x13
 5466 0229 02       		.uleb128 0x2
 5467 022a 17       		.uleb128 0x17
 5468 022b 00       		.byte	0
 5469 022c 00       		.byte	0
 5470 022d 2A       		.uleb128 0x2a
 5471 022e 34       		.uleb128 0x34
 5472 022f 00       		.byte	0
 5473 0230 03       		.uleb128 0x3
 5474 0231 0E       		.uleb128 0xe
 5475 0232 3A       		.uleb128 0x3a
 5476 0233 0B       		.uleb128 0xb
 5477 0234 3B       		.uleb128 0x3b
 5478 0235 0B       		.uleb128 0xb
 5479 0236 49       		.uleb128 0x49
 5480 0237 13       		.uleb128 0x13
 5481 0238 3F       		.uleb128 0x3f
 5482 0239 19       		.uleb128 0x19
 5483 023a 02       		.uleb128 0x2
 5484 023b 18       		.uleb128 0x18
 5485 023c 00       		.byte	0
 5486 023d 00       		.byte	0
 5487 023e 2B       		.uleb128 0x2b
 5488 023f 34       		.uleb128 0x34
 5489 0240 00       		.byte	0
 5490 0241 03       		.uleb128 0x3
 5491 0242 0E       		.uleb128 0xe
 5492 0243 3A       		.uleb128 0x3a
 5493 0244 0B       		.uleb128 0xb
 5494 0245 3B       		.uleb128 0x3b
ARM GAS  C:\Users\Rolf\AppData\Local\Temp\ccafVfle.s 			page 134


 5495 0246 0B       		.uleb128 0xb
 5496 0247 49       		.uleb128 0x49
 5497 0248 13       		.uleb128 0x13
 5498 0249 3F       		.uleb128 0x3f
 5499 024a 19       		.uleb128 0x19
 5500 024b 3C       		.uleb128 0x3c
 5501 024c 19       		.uleb128 0x19
 5502 024d 00       		.byte	0
 5503 024e 00       		.byte	0
 5504 024f 2C       		.uleb128 0x2c
 5505 0250 2E       		.uleb128 0x2e
 5506 0251 00       		.byte	0
 5507 0252 3F       		.uleb128 0x3f
 5508 0253 19       		.uleb128 0x19
 5509 0254 3C       		.uleb128 0x3c
 5510 0255 19       		.uleb128 0x19
 5511 0256 6E       		.uleb128 0x6e
 5512 0257 0E       		.uleb128 0xe
 5513 0258 03       		.uleb128 0x3
 5514 0259 0E       		.uleb128 0xe
 5515 025a 3A       		.uleb128 0x3a
 5516 025b 0B       		.uleb128 0xb
 5517 025c 3B       		.uleb128 0x3b
 5518 025d 05       		.uleb128 0x5
 5519 025e 00       		.byte	0
 5520 025f 00       		.byte	0
 5521 0260 2D       		.uleb128 0x2d
 5522 0261 2E       		.uleb128 0x2e
 5523 0262 00       		.byte	0
 5524 0263 3F       		.uleb128 0x3f
 5525 0264 19       		.uleb128 0x19
 5526 0265 3C       		.uleb128 0x3c
 5527 0266 19       		.uleb128 0x19
 5528 0267 6E       		.uleb128 0x6e
 5529 0268 0E       		.uleb128 0xe
 5530 0269 03       		.uleb128 0x3
 5531 026a 0E       		.uleb128 0xe
 5532 026b 3A       		.uleb128 0x3a
 5533 026c 0B       		.uleb128 0xb
 5534 026d 3B       		.uleb128 0x3b
 5535 026e 0B       		.uleb128 0xb
 5536 026f 00       		.byte	0
 5537 0270 00       		.byte	0
 5538 0271 00       		.byte	0
 5539              		.section	.debug_loc,"",%progbits
 5540              	.Ldebug_loc0:
 5541              	.LLST0:
 5542 0000 2E000000 		.4byte	.LVL4
 5543 0004 30000000 		.4byte	.LVL5
 5544 0008 0100     		.2byte	0x1
 5545 000a 50       		.byte	0x50
 5546 000b 54000000 		.4byte	.LVL10
 5547 000f BB000000 		.4byte	.LVL21-1
 5548 0013 0100     		.2byte	0x1
 5549 0015 50       		.byte	0x50
 5550 0016 C6000000 		.4byte	.LVL23
 5551 001a 28010000 		.4byte	.LVL34
ARM GAS  C:\Users\Rolf\AppData\Local\Temp\ccafVfle.s 			page 135


 5552 001e 0100     		.2byte	0x1
 5553 0020 50       		.byte	0x50
 5554 0021 00000000 		.4byte	0
 5555 0025 00000000 		.4byte	0
 5556              	.LLST1:
 5557 0029 C4000000 		.4byte	.LVL22
 5558 002d C6000000 		.4byte	.LVL23
 5559 0031 0100     		.2byte	0x1
 5560 0033 50       		.byte	0x50
 5561 0034 32010000 		.4byte	.LVL36
 5562 0038 5B010000 		.4byte	.LVL40-1
 5563 003c 0100     		.2byte	0x1
 5564 003e 50       		.byte	0x50
 5565 003f 5C010000 		.4byte	.LVL40
 5566 0043 63010000 		.4byte	.LVL41-1
 5567 0047 0100     		.2byte	0x1
 5568 0049 50       		.byte	0x50
 5569 004a 66010000 		.4byte	.LVL42
 5570 004e 6E010000 		.4byte	.LVL43
 5571 0052 0100     		.2byte	0x1
 5572 0054 50       		.byte	0x50
 5573 0055 6E010000 		.4byte	.LVL43
 5574 0059 88010000 		.4byte	.LVL46
 5575 005d 0100     		.2byte	0x1
 5576 005f 55       		.byte	0x55
 5577 0060 00000000 		.4byte	0
 5578 0064 00000000 		.4byte	0
 5579              	.LLST2:
 5580 0068 52010000 		.4byte	.LVL38
 5581 006c 66010000 		.4byte	.LVL42
 5582 0070 0100     		.2byte	0x1
 5583 0072 55       		.byte	0x55
 5584 0073 00000000 		.4byte	0
 5585 0077 00000000 		.4byte	0
 5586              	.LLST3:
 5587 007b 58010000 		.4byte	.LVL39
 5588 007f 5B010000 		.4byte	.LVL40-1
 5589 0083 0100     		.2byte	0x1
 5590 0085 51       		.byte	0x51
 5591 0086 00000000 		.4byte	0
 5592 008a 00000000 		.4byte	0
 5593              	.LLST4:
 5594 008e 0E000000 		.4byte	.LVL1
 5595 0092 5A000000 		.4byte	.LVL11
 5596 0096 0100     		.2byte	0x1
 5597 0098 53       		.byte	0x53
 5598 0099 C6000000 		.4byte	.LVL23
 5599 009d CC000000 		.4byte	.LVL24
 5600 00a1 0100     		.2byte	0x1
 5601 00a3 53       		.byte	0x53
 5602 00a4 00000000 		.4byte	0
 5603 00a8 00000000 		.4byte	0
 5604              	.LLST5:
 5605 00ac 1A000000 		.4byte	.LVL2
 5606 00b0 2C000000 		.4byte	.LVL3
 5607 00b4 0100     		.2byte	0x1
 5608 00b6 52       		.byte	0x52
ARM GAS  C:\Users\Rolf\AppData\Local\Temp\ccafVfle.s 			page 136


 5609 00b7 30000000 		.4byte	.LVL5
 5610 00bb 32000000 		.4byte	.LVL6
 5611 00bf 0100     		.2byte	0x1
 5612 00c1 52       		.byte	0x52
 5613 00c2 4C000000 		.4byte	.LVL8
 5614 00c6 50000000 		.4byte	.LVL9
 5615 00ca 0100     		.2byte	0x1
 5616 00cc 52       		.byte	0x52
 5617 00cd 00000000 		.4byte	0
 5618 00d1 00000000 		.4byte	0
 5619              	.LLST6:
 5620 00d5 3E000000 		.4byte	.LVL7
 5621 00d9 4C000000 		.4byte	.LVL8
 5622 00dd 0100     		.2byte	0x1
 5623 00df 52       		.byte	0x52
 5624 00e0 50000000 		.4byte	.LVL9
 5625 00e4 54000000 		.4byte	.LVL10
 5626 00e8 0100     		.2byte	0x1
 5627 00ea 52       		.byte	0x52
 5628 00eb 00000000 		.4byte	0
 5629 00ef 00000000 		.4byte	0
 5630              	.LLST7:
 5631 00f3 64000000 		.4byte	.LVL12
 5632 00f7 A8000000 		.4byte	.LVL18
 5633 00fb 0500     		.2byte	0x5
 5634 00fd 71       		.byte	0x71
 5635 00fe 00       		.sleb128 0
 5636 00ff 30       		.byte	0x30
 5637 0100 2E       		.byte	0x2e
 5638 0101 9F       		.byte	0x9f
 5639 0102 00000000 		.4byte	0
 5640 0106 00000000 		.4byte	0
 5641              	.LLST8:
 5642 010a 70000000 		.4byte	.LVL13
 5643 010e 9E000000 		.4byte	.LVL16
 5644 0112 0500     		.2byte	0x5
 5645 0114 72       		.byte	0x72
 5646 0115 00       		.sleb128 0
 5647 0116 33       		.byte	0x33
 5648 0117 29       		.byte	0x29
 5649 0118 9F       		.byte	0x9f
 5650 0119 00000000 		.4byte	0
 5651 011d 00000000 		.4byte	0
 5652              	.LLST9:
 5653 0121 8E000000 		.4byte	.LVL14
 5654 0125 9C000000 		.4byte	.LVL15
 5655 0129 0100     		.2byte	0x1
 5656 012b 53       		.byte	0x53
 5657 012c 00000000 		.4byte	0
 5658 0130 00000000 		.4byte	0
 5659              	.LLST10:
 5660 0134 A6000000 		.4byte	.LVL17
 5661 0138 C6000000 		.4byte	.LVL23
 5662 013c 0100     		.2byte	0x1
 5663 013e 55       		.byte	0x55
 5664 013f 00000000 		.4byte	0
 5665 0143 00000000 		.4byte	0
ARM GAS  C:\Users\Rolf\AppData\Local\Temp\ccafVfle.s 			page 137


 5666              	.LLST11:
 5667 0147 AE000000 		.4byte	.LVL19
 5668 014b BB000000 		.4byte	.LVL21-1
 5669 014f 0100     		.2byte	0x1
 5670 0151 51       		.byte	0x51
 5671 0152 00000000 		.4byte	0
 5672 0156 00000000 		.4byte	0
 5673              	.LLST12:
 5674 015a B8000000 		.4byte	.LVL20
 5675 015e C6000000 		.4byte	.LVL23
 5676 0162 0100     		.2byte	0x1
 5677 0164 54       		.byte	0x54
 5678 0165 00000000 		.4byte	0
 5679 0169 00000000 		.4byte	0
 5680              	.LLST13:
 5681 016d D6000000 		.4byte	.LVL25
 5682 0171 0E010000 		.4byte	.LVL28
 5683 0175 0500     		.2byte	0x5
 5684 0177 75       		.byte	0x75
 5685 0178 00       		.sleb128 0
 5686 0179 30       		.byte	0x30
 5687 017a 2E       		.byte	0x2e
 5688 017b 9F       		.byte	0x9f
 5689 017c 00000000 		.4byte	0
 5690 0180 00000000 		.4byte	0
 5691              	.LLST14:
 5692 0184 E2000000 		.4byte	.LVL26
 5693 0188 10010000 		.4byte	.LVL29
 5694 018c 0500     		.2byte	0x5
 5695 018e 72       		.byte	0x72
 5696 018f 00       		.sleb128 0
 5697 0190 33       		.byte	0x33
 5698 0191 29       		.byte	0x29
 5699 0192 9F       		.byte	0x9f
 5700 0193 00000000 		.4byte	0
 5701 0197 00000000 		.4byte	0
 5702              	.LLST15:
 5703 019b 00010000 		.4byte	.LVL27
 5704 019f 14010000 		.4byte	.LVL30
 5705 01a3 0100     		.2byte	0x1
 5706 01a5 53       		.byte	0x53
 5707 01a6 00000000 		.4byte	0
 5708 01aa 00000000 		.4byte	0
 5709              	.LLST16:
 5710 01ae 18010000 		.4byte	.LVL31
 5711 01b2 2B010000 		.4byte	.LVL35-1
 5712 01b6 0100     		.2byte	0x1
 5713 01b8 53       		.byte	0x53
 5714 01b9 00000000 		.4byte	0
 5715 01bd 00000000 		.4byte	0
 5716              	.LLST17:
 5717 01c1 20010000 		.4byte	.LVL32
 5718 01c5 2B010000 		.4byte	.LVL35-1
 5719 01c9 0100     		.2byte	0x1
 5720 01cb 51       		.byte	0x51
 5721 01cc 00000000 		.4byte	0
 5722 01d0 00000000 		.4byte	0
ARM GAS  C:\Users\Rolf\AppData\Local\Temp\ccafVfle.s 			page 138


 5723              	.LLST18:
 5724 01d4 26010000 		.4byte	.LVL33
 5725 01d8 32010000 		.4byte	.LVL36
 5726 01dc 0100     		.2byte	0x1
 5727 01de 54       		.byte	0x54
 5728 01df 00000000 		.4byte	0
 5729 01e3 00000000 		.4byte	0
 5730              	.LLST19:
 5731 01e7 10000000 		.4byte	.LVL48
 5732 01eb 12000000 		.4byte	.LVL49
 5733 01ef 0100     		.2byte	0x1
 5734 01f1 53       		.byte	0x53
 5735 01f2 14000000 		.4byte	.LVL50
 5736 01f6 24000000 		.4byte	.LVL53
 5737 01fa 0100     		.2byte	0x1
 5738 01fc 53       		.byte	0x53
 5739 01fd 24000000 		.4byte	.LVL53
 5740 0201 28000000 		.4byte	.LVL54
 5741 0205 0500     		.2byte	0x5
 5742 0207 74       		.byte	0x74
 5743 0208 00       		.sleb128 0
 5744 0209 71       		.byte	0x71
 5745 020a 00       		.sleb128 0
 5746 020b 22       		.byte	0x22
 5747 020c 00000000 		.4byte	0
 5748 0210 00000000 		.4byte	0
 5749              	.LLST20:
 5750 0214 06000000 		.4byte	.LVL63
 5751 0218 23000000 		.4byte	.LVL67-1
 5752 021c 0100     		.2byte	0x1
 5753 021e 50       		.byte	0x50
 5754 021f 00000000 		.4byte	0
 5755 0223 00000000 		.4byte	0
 5756              	.LLST21:
 5757 0227 10000000 		.4byte	.LVL64
 5758 022b 16000000 		.4byte	.LVL66
 5759 022f 0100     		.2byte	0x1
 5760 0231 53       		.byte	0x53
 5761 0232 16000000 		.4byte	.LVL66
 5762 0236 23000000 		.4byte	.LVL67-1
 5763 023a 0300     		.2byte	0x3
 5764 023c 71       		.byte	0x71
 5765 023d 8001     		.sleb128 128
 5766 023f 00000000 		.4byte	0
 5767 0243 00000000 		.4byte	0
 5768              	.LLST22:
 5769 0247 06000000 		.4byte	.LVL68
 5770 024b 19000000 		.4byte	.LVL71-1
 5771 024f 0100     		.2byte	0x1
 5772 0251 50       		.byte	0x50
 5773 0252 00000000 		.4byte	0
 5774 0256 00000000 		.4byte	0
 5775              	.LLST23:
 5776 025a 10000000 		.4byte	.LVL69
 5777 025e 14000000 		.4byte	.LVL70
 5778 0262 0900     		.2byte	0x9
 5779 0264 73       		.byte	0x73
ARM GAS  C:\Users\Rolf\AppData\Local\Temp\ccafVfle.s 			page 139


 5780 0265 00       		.sleb128 0
 5781 0266 0C       		.byte	0xc
 5782 0267 0000FA05 		.4byte	0x5fa0000
 5783 026b 21       		.byte	0x21
 5784 026c 9F       		.byte	0x9f
 5785 026d 14000000 		.4byte	.LVL70
 5786 0271 19000000 		.4byte	.LVL71-1
 5787 0275 0100     		.2byte	0x1
 5788 0277 53       		.byte	0x53
 5789 0278 00000000 		.4byte	0
 5790 027c 00000000 		.4byte	0
 5791              	.LLST24:
 5792 0280 06000000 		.4byte	.LVL72
 5793 0284 23000000 		.4byte	.LVL76-1
 5794 0288 0100     		.2byte	0x1
 5795 028a 50       		.byte	0x50
 5796 028b 00000000 		.4byte	0
 5797 028f 00000000 		.4byte	0
 5798              	.LLST25:
 5799 0293 10000000 		.4byte	.LVL73
 5800 0297 14000000 		.4byte	.LVL74
 5801 029b 0900     		.2byte	0x9
 5802 029d 73       		.byte	0x73
 5803 029e 00       		.sleb128 0
 5804 029f 0C       		.byte	0xc
 5805 02a0 0000FA05 		.4byte	0x5fa0000
 5806 02a4 21       		.byte	0x21
 5807 02a5 9F       		.byte	0x9f
 5808 02a6 14000000 		.4byte	.LVL74
 5809 02aa 16000000 		.4byte	.LVL75
 5810 02ae 0100     		.2byte	0x1
 5811 02b0 53       		.byte	0x53
 5812 02b1 16000000 		.4byte	.LVL75
 5813 02b5 23000000 		.4byte	.LVL76-1
 5814 02b9 0300     		.2byte	0x3
 5815 02bb 71       		.byte	0x71
 5816 02bc 8001     		.sleb128 128
 5817 02be 00000000 		.4byte	0
 5818 02c2 00000000 		.4byte	0
 5819              	.LLST26:
 5820 02c6 00000000 		.4byte	.LVL77
 5821 02ca 0E000000 		.4byte	.LVL78
 5822 02ce 0100     		.2byte	0x1
 5823 02d0 50       		.byte	0x50
 5824 02d1 0E000000 		.4byte	.LVL78
 5825 02d5 4A000000 		.4byte	.LVL89
 5826 02d9 0100     		.2byte	0x1
 5827 02db 55       		.byte	0x55
 5828 02dc 4A000000 		.4byte	.LVL89
 5829 02e0 5C000000 		.4byte	.LFE77
 5830 02e4 0400     		.2byte	0x4
 5831 02e6 F3       		.byte	0xf3
 5832 02e7 01       		.uleb128 0x1
 5833 02e8 50       		.byte	0x50
 5834 02e9 9F       		.byte	0x9f
 5835 02ea 00000000 		.4byte	0
 5836 02ee 00000000 		.4byte	0
ARM GAS  C:\Users\Rolf\AppData\Local\Temp\ccafVfle.s 			page 140


 5837              	.LLST27:
 5838 02f2 34000000 		.4byte	.LVL84
 5839 02f6 38000000 		.4byte	.LVL85
 5840 02fa 0900     		.2byte	0x9
 5841 02fc 73       		.byte	0x73
 5842 02fd 00       		.sleb128 0
 5843 02fe 0C       		.byte	0xc
 5844 02ff 0000FA05 		.4byte	0x5fa0000
 5845 0303 21       		.byte	0x21
 5846 0304 9F       		.byte	0x9f
 5847 0305 38000000 		.4byte	.LVL85
 5848 0309 3A000000 		.4byte	.LVL86
 5849 030d 0100     		.2byte	0x1
 5850 030f 53       		.byte	0x53
 5851 0310 3A000000 		.4byte	.LVL86
 5852 0314 49000000 		.4byte	.LVL87-1
 5853 0318 0500     		.2byte	0x5
 5854 031a 72       		.byte	0x72
 5855 031b 00       		.sleb128 0
 5856 031c 71       		.byte	0x71
 5857 031d 00       		.sleb128 0
 5858 031e 22       		.byte	0x22
 5859 031f 00000000 		.4byte	0
 5860 0323 00000000 		.4byte	0
 5861              	.LLST28:
 5862 0327 18000000 		.4byte	.LVL81
 5863 032b 1B000000 		.4byte	.LVL82-1
 5864 032f 0100     		.2byte	0x1
 5865 0331 50       		.byte	0x50
 5866 0332 1B000000 		.4byte	.LVL82-1
 5867 0336 4A000000 		.4byte	.LVL88
 5868 033a 0100     		.2byte	0x1
 5869 033c 54       		.byte	0x54
 5870 033d 00000000 		.4byte	0
 5871 0341 00000000 		.4byte	0
 5872              	.LLST29:
 5873 0345 1C000000 		.4byte	.LVL82
 5874 0349 23000000 		.4byte	.LVL83-1
 5875 034d 0100     		.2byte	0x1
 5876 034f 50       		.byte	0x50
 5877 0350 00000000 		.4byte	0
 5878 0354 00000000 		.4byte	0
 5879              		.section	.debug_aranges,"",%progbits
 5880 0000 5C000000 		.4byte	0x5c
 5881 0004 0200     		.2byte	0x2
 5882 0006 00000000 		.4byte	.Ldebug_info0
 5883 000a 04       		.byte	0x4
 5884 000b 00       		.byte	0
 5885 000c 0000     		.2byte	0
 5886 000e 0000     		.2byte	0
 5887 0010 00000000 		.4byte	.LFB81
 5888 0014 0A000000 		.4byte	.LFE81-.LFB81
 5889 0018 00000000 		.4byte	.LFB74
 5890 001c 02000000 		.4byte	.LFE74-.LFB74
 5891 0020 00000000 		.4byte	.LFB75
 5892 0024 B0010000 		.4byte	.LFE75-.LFB75
 5893 0028 00000000 		.4byte	.LFB73
ARM GAS  C:\Users\Rolf\AppData\Local\Temp\ccafVfle.s 			page 141


 5894 002c C8000000 		.4byte	.LFE73-.LFB73
 5895 0030 00000000 		.4byte	.LFB76
 5896 0034 10000000 		.4byte	.LFE76-.LFB76
 5897 0038 00000000 		.4byte	.LFB78
 5898 003c 34000000 		.4byte	.LFE78-.LFB78
 5899 0040 00000000 		.4byte	.LFB79
 5900 0044 28000000 		.4byte	.LFE79-.LFB79
 5901 0048 00000000 		.4byte	.LFB80
 5902 004c 34000000 		.4byte	.LFE80-.LFB80
 5903 0050 00000000 		.4byte	.LFB77
 5904 0054 5C000000 		.4byte	.LFE77-.LFB77
 5905 0058 00000000 		.4byte	0
 5906 005c 00000000 		.4byte	0
 5907              		.section	.debug_ranges,"",%progbits
 5908              	.Ldebug_ranges0:
 5909 0000 30000000 		.4byte	.LBB6
 5910 0004 4C000000 		.4byte	.LBE6
 5911 0008 50000000 		.4byte	.LBB7
 5912 000c 54000000 		.4byte	.LBE7
 5913 0010 00000000 		.4byte	0
 5914 0014 00000000 		.4byte	0
 5915 0018 00000000 		.4byte	.LFB81
 5916 001c 0A000000 		.4byte	.LFE81
 5917 0020 00000000 		.4byte	.LFB74
 5918 0024 02000000 		.4byte	.LFE74
 5919 0028 00000000 		.4byte	.LFB75
 5920 002c B0010000 		.4byte	.LFE75
 5921 0030 00000000 		.4byte	.LFB73
 5922 0034 C8000000 		.4byte	.LFE73
 5923 0038 00000000 		.4byte	.LFB76
 5924 003c 10000000 		.4byte	.LFE76
 5925 0040 00000000 		.4byte	.LFB78
 5926 0044 34000000 		.4byte	.LFE78
 5927 0048 00000000 		.4byte	.LFB79
 5928 004c 28000000 		.4byte	.LFE79
 5929 0050 00000000 		.4byte	.LFB80
 5930 0054 34000000 		.4byte	.LFE80
 5931 0058 00000000 		.4byte	.LFB77
 5932 005c 5C000000 		.4byte	.LFE77
 5933 0060 00000000 		.4byte	0
 5934 0064 00000000 		.4byte	0
 5935              		.section	.debug_line,"",%progbits
 5936              	.Ldebug_line0:
 5937 0000 D1040000 		.section	.debug_str,"MS",%progbits,1
 5937      02005D03 
 5937      00000201 
 5937      FB0E0D00 
 5937      01010101 
 5938              	.LASF349:
 5939 0000 666C6173 		.ascii	"flashCtlMainWs1Freq\000"
 5939      6843746C 
 5939      4D61696E 
 5939      57733146 
 5939      72657100 
 5940              	.LASF225:
 5941 0014 4E4F5449 		.ascii	"NOTIFY\000"
 5941      465900
ARM GAS  C:\Users\Rolf\AppData\Local\Temp\ccafVfle.s 			page 142


 5942              	.LASF142:
 5943 001b 52544F43 		.ascii	"RTOC1_SYSCALL_TABLE_ADDR_UNUSED\000"
 5943      315F5359 
 5943      5343414C 
 5943      4C5F5441 
 5943      424C455F 
 5944              	.LASF58:
 5945 003b 52455345 		.ascii	"RESERVED\000"
 5945      52564544 
 5945      00
 5946              	.LASF300:
 5947 0044 43505553 		.ascii	"CPUSS_Type\000"
 5947      535F5479 
 5947      706500
 5948              	.LASF304:
 5949 004f 53525353 		.ascii	"SRSS_Type\000"
 5949      5F547970 
 5949      6500
 5950              	.LASF164:
 5951 0059 52544F43 		.ascii	"RTOC2_FIRST_USER_APP_ADDR\000"
 5951      325F4649 
 5951      5253545F 
 5951      55534552 
 5951      5F415050 
 5952              	.LASF51:
 5953 0073 4E766963 		.ascii	"NvicMux28_IRQn\000"
 5953      4D757832 
 5953      385F4952 
 5953      516E00
 5954              	.LASF64:
 5955 0082 43505553 		.ascii	"CPUSS_WOUNDING\000"
 5955      535F574F 
 5955      554E4449 
 5955      4E4700
 5956              	.LASF143:
 5957 0091 52544F43 		.ascii	"RTOC1_OBJECT_ADDR_UNUSED\000"
 5957      315F4F42 
 5957      4A454354 
 5957      5F414444 
 5957      525F554E 
 5958              	.LASF468:
 5959 00aa 63795F64 		.ascii	"cy_device\000"
 5959      65766963 
 5959      6500
 5960              	.LASF128:
 5961 00b4 544F4331 		.ascii	"TOC1_FHASH_OBJECTS\000"
 5961      5F464841 
 5961      53485F4F 
 5961      424A4543 
 5961      545300
 5962              	.LASF136:
 5963 00c7 52544F43 		.ascii	"RTOC1_OBJECT_SIZE\000"
 5963      315F4F42 
 5963      4A454354 
 5963      5F53495A 
 5963      4500
 5964              	.LASF92:
ARM GAS  C:\Users\Rolf\AppData\Local\Temp\ccafVfle.s 			page 143


 5965 00d9 5354414E 		.ascii	"STANDARD_SMPU_STRUCT_SLAVE_ATTR\000"
 5965      44415244 
 5965      5F534D50 
 5965      555F5354 
 5965      52554354 
 5966              	.LASF376:
 5967 00f9 63707573 		.ascii	"cpussCm0ClockCtlOffset\000"
 5967      73436D30 
 5967      436C6F63 
 5967      6B43746C 
 5967      4F666673 
 5968              	.LASF163:
 5969 0110 52544F43 		.ascii	"RTOC2_SMIF_CFG_STRUCT_ADDR\000"
 5969      325F534D 
 5969      49465F43 
 5969      46475F53 
 5969      54525543 
 5970              	.LASF201:
 5971 012b 44505F53 		.ascii	"DP_STATUS\000"
 5971      54415455 
 5971      5300
 5972              	.LASF46:
 5973 0135 4E766963 		.ascii	"NvicMux23_IRQn\000"
 5973      4D757832 
 5973      335F4952 
 5973      516E00
 5974              	.LASF151:
 5975 0144 544F4332 		.ascii	"TOC2_FIRST_USER_APP_FORMAT\000"
 5975      5F464952 
 5975      53545F55 
 5975      5345525F 
 5975      4150505F 
 5976              	.LASF235:
 5977 015f 494E5452 		.ascii	"INTR_STRUCT\000"
 5977      5F535452 
 5977      55435400 
 5978              	.LASF200:
 5979 016b 5544425F 		.ascii	"UDB_PWR_DELAY_CTL\000"
 5979      5057525F 
 5979      44454C41 
 5979      595F4354 
 5979      4C00
 5980              	.LASF309:
 5981 017d 75646242 		.ascii	"udbBase\000"
 5981      61736500 
 5982              	.LASF24:
 5983 0185 4E766963 		.ascii	"NvicMux1_IRQn\000"
 5983      4D757831 
 5983      5F495251 
 5983      6E00
 5984              	.LASF308:
 5985 0193 70657269 		.ascii	"periBase\000"
 5985      42617365 
 5985      00
 5986              	.LASF247:
 5987 019c 4D435744 		.ascii	"MCWDT_STRUCT_V1_Type\000"
 5987      545F5354 
ARM GAS  C:\Users\Rolf\AppData\Local\Temp\ccafVfle.s 			page 144


 5987      52554354 
 5987      5F56315F 
 5987      54797065 
 5988              	.LASF464:
 5989 01b1 63795F42 		.ascii	"cy_BleEcoClockFreqHz\000"
 5989      6C654563 
 5989      6F436C6F 
 5989      636B4672 
 5989      6571487A 
 5990              	.LASF418:
 5991 01c6 63795F73 		.ascii	"cy_stc_ipc_pipe_ep_config_t\000"
 5991      74635F69 
 5991      70635F70 
 5991      6970655F 
 5991      65705F63 
 5992              	.LASF89:
 5993 01e2 44455649 		.ascii	"DEVICE_UID\000"
 5993      43455F55 
 5993      494400
 5994              	.LASF384:
 5995 01ed 63707573 		.ascii	"cpussCm0NmiCtlOffset\000"
 5995      73436D30 
 5995      4E6D6943 
 5995      746C4F66 
 5995      66736574 
 5996              	.LASF68:
 5997 0202 4449455F 		.ascii	"DIE_X\000"
 5997      5800
 5998              	.LASF69:
 5999 0208 4449455F 		.ascii	"DIE_Y\000"
 5999      5900
 6000              	.LASF153:
 6001 020e 544F4332 		.ascii	"TOC2_SECOND_USER_APP_FORMAT\000"
 6001      5F534543 
 6001      4F4E445F 
 6001      55534552 
 6001      5F415050 
 6002              	.LASF408:
 6003 022a 636C6965 		.ascii	"clientCount\000"
 6003      6E74436F 
 6003      756E7400 
 6004              	.LASF437:
 6005 0236 666C6C4D 		.ascii	"fllMult\000"
 6005      756C7400 
 6006              	.LASF12:
 6007 023e 756E7369 		.ascii	"unsigned int\000"
 6007      676E6564 
 6007      20696E74 
 6007      00
 6008              	.LASF303:
 6009 024b 4950435F 		.ascii	"IPC_Type\000"
 6009      54797065 
 6009      00
 6010              	.LASF253:
 6011 0254 5057525F 		.ascii	"PWR_LVD_STATUS\000"
 6011      4C56445F 
 6011      53544154 
ARM GAS  C:\Users\Rolf\AppData\Local\Temp\ccafVfle.s 			page 145


 6011      555300
 6012              	.LASF286:
 6013 0263 5245535F 		.ascii	"RES_CAUSE2\000"
 6013      43415553 
 6013      453200
 6014              	.LASF160:
 6015 026e 52544F43 		.ascii	"RTOC2_OBJECT_SIZE\000"
 6015      325F4F42 
 6015      4A454354 
 6015      5F53495A 
 6015      4500
 6016              	.LASF81:
 6017 0280 4C444F5F 		.ascii	"LDO_0P9V_TRIM\000"
 6017      30503956 
 6017      5F545249 
 6017      4D00
 6018              	.LASF336:
 6019 028e 736D6966 		.ascii	"smifDeviceNr\000"
 6019      44657669 
 6019      63654E72 
 6019      00
 6020              	.LASF302:
 6021 029b 4950435F 		.ascii	"IPC_INTR_STRUCT_Type\000"
 6021      494E5452 
 6021      5F535452 
 6021      5543545F 
 6021      54797065 
 6022              	.LASF366:
 6023 02b0 70657269 		.ascii	"periDivCmdPaTypeSelPos\000"
 6023      44697643 
 6023      6D645061 
 6023      54797065 
 6023      53656C50 
 6024              	.LASF177:
 6025 02c7 434D305F 		.ascii	"CM0_CLOCK_CTL\000"
 6025      434C4F43 
 6025      4B5F4354 
 6025      4C00
 6026              	.LASF282:
 6027 02d5 53525353 		.ascii	"SRSS_INTR_MASK\000"
 6027      5F494E54 
 6027      525F4D41 
 6027      534B00
 6028              	.LASF77:
 6029 02e4 5341525F 		.ascii	"SAR_TEMP_OFFSET\000"
 6029      54454D50 
 6029      5F4F4646 
 6029      53455400 
 6030              	.LASF277:
 6031 02f4 434C4B5F 		.ascii	"CLK_FLL_STATUS\000"
 6031      464C4C5F 
 6031      53544154 
 6031      555300
 6032              	.LASF206:
 6033 0303 434D345F 		.ascii	"CM4_VECTOR_TABLE_BASE\000"
 6033      56454354 
 6033      4F525F54 
ARM GAS  C:\Users\Rolf\AppData\Local\Temp\ccafVfle.s 			page 146


 6033      41424C45 
 6033      5F424153 
 6034              	.LASF485:
 6035 0319 43795F53 		.ascii	"Cy_SysGetCM4Status\000"
 6035      79734765 
 6035      74434D34 
 6035      53746174 
 6035      757300
 6036              	.LASF452:
 6037 032c 72656756 		.ascii	"regValue\000"
 6037      616C7565 
 6037      00
 6038              	.LASF320:
 6039 0335 6770696F 		.ascii	"gpioVersion\000"
 6039      56657273 
 6039      696F6E00 
 6040              	.LASF264:
 6041 0341 434C4B5F 		.ascii	"CLK_ILO_CONFIG\000"
 6041      494C4F5F 
 6041      434F4E46 
 6041      494700
 6042              	.LASF454:
 6043 0350 696E7465 		.ascii	"interruptState\000"
 6043      72727570 
 6043      74537461 
 6043      746500
 6044              	.LASF306:
 6045 035f 63707573 		.ascii	"cpussBase\000"
 6045      73426173 
 6045      6500
 6046              	.LASF475:
 6047 0369 43795F46 		.ascii	"Cy_Flash_Init\000"
 6047      6C617368 
 6047      5F496E69 
 6047      7400
 6048              	.LASF167:
 6049 0377 52544F43 		.ascii	"RTOC2_SECOND_USER_APP_FORMAT\000"
 6049      325F5345 
 6049      434F4E44 
 6049      5F555345 
 6049      525F4150 
 6050              	.LASF438:
 6051 0394 72656644 		.ascii	"refDiv\000"
 6051      697600
 6052              	.LASF37:
 6053 039b 4E766963 		.ascii	"NvicMux14_IRQn\000"
 6053      4D757831 
 6053      345F4952 
 6053      516E00
 6054              	.LASF115:
 6055 03aa 464C4153 		.ascii	"FLASH_BOOT_OBJECT_SIZE\000"
 6055      485F424F 
 6055      4F545F4F 
 6055      424A4543 
 6055      545F5349 
 6056              	.LASF154:
 6057 03c1 544F4332 		.ascii	"TOC2_SHASH_OBJECTS\000"
ARM GAS  C:\Users\Rolf\AppData\Local\Temp\ccafVfle.s 			page 147


 6057      5F534841 
 6057      53485F4F 
 6057      424A4543 
 6057      545300
 6058              	.LASF267:
 6059 03d4 434C4B5F 		.ascii	"CLK_OUTPUT_SLOW\000"
 6059      4F555450 
 6059      55545F53 
 6059      4C4F5700 
 6060              	.LASF331:
 6061 03e4 63707573 		.ascii	"cpussNotConnectedIrq\000"
 6061      734E6F74 
 6061      436F6E6E 
 6061      65637465 
 6061      64497271 
 6062              	.LASF118:
 6063 03f9 464C4153 		.ascii	"FLASH_BOOT_N_CORES\000"
 6063      485F424F 
 6063      4F545F4E 
 6063      5F434F52 
 6063      455300
 6064              	.LASF44:
 6065 040c 4E766963 		.ascii	"NvicMux21_IRQn\000"
 6065      4D757832 
 6065      315F4952 
 6065      516E00
 6066              	.LASF4:
 6067 041b 73686F72 		.ascii	"short int\000"
 6067      7420696E 
 6067      7400
 6068              	.LASF262:
 6069 0425 434C4B5F 		.ascii	"CLK_SELECT\000"
 6069      53454C45 
 6069      435400
 6070              	.LASF416:
 6071 0430 65704164 		.ascii	"epAddress\000"
 6071      64726573 
 6071      7300
 6072              	.LASF220:
 6073 043a 5452494D 		.ascii	"TRIM_ROM_CTL\000"
 6073      5F524F4D 
 6073      5F43544C 
 6073      00
 6074              	.LASF127:
 6075 0447 544F4331 		.ascii	"TOC1_MAGIC_NUMBER\000"
 6075      5F4D4147 
 6075      49435F4E 
 6075      554D4245 
 6075      5200
 6076              	.LASF398:
 6077 0459 63795F69 		.ascii	"cy_ipc_pipe_callback_ptr_t\000"
 6077      70635F70 
 6077      6970655F 
 6077      63616C6C 
 6077      6261636B 
 6078              	.LASF365:
 6079 0474 70657269 		.ascii	"periDivCmdPaDivSelPos\000"
ARM GAS  C:\Users\Rolf\AppData\Local\Temp\ccafVfle.s 			page 148


 6079      44697643 
 6079      6D645061 
 6079      44697653 
 6079      656C506F 
 6080              	.LASF230:
 6081 048a 494E5452 		.ascii	"INTR_SET\000"
 6081      5F534554 
 6081      00
 6082              	.LASF342:
 6083 0493 63727970 		.ascii	"cryptoMemSize\000"
 6083      746F4D65 
 6083      6D53697A 
 6083      6500
 6084              	.LASF169:
 6085 04a1 52544F43 		.ascii	"RTOC2_SIGNATURE_VERIF_KEY\000"
 6085      325F5349 
 6085      474E4154 
 6085      5552455F 
 6085      56455249 
 6086              	.LASF28:
 6087 04bb 4E766963 		.ascii	"NvicMux5_IRQn\000"
 6087      4D757835 
 6087      5F495251 
 6087      6E00
 6088              	.LASF362:
 6089 04c9 70657269 		.ascii	"periTrGrSize\000"
 6089      54724772 
 6089      53697A65 
 6089      00
 6090              	.LASF161:
 6091 04d6 52544F43 		.ascii	"RTOC2_MAGIC_NUMBER\000"
 6091      325F4D41 
 6091      4749435F 
 6091      4E554D42 
 6091      455200
 6092              	.LASF390:
 6093 04e9 69706353 		.ascii	"ipcStructSize\000"
 6093      74727563 
 6093      7453697A 
 6093      6500
 6094              	.LASF288:
 6095 04f7 5057525F 		.ascii	"PWR_TRIM_BODOVP_CTL\000"
 6095      5452494D 
 6095      5F424F44 
 6095      4F56505F 
 6095      43544C00 
 6096              	.LASF93:
 6097 050b 5354414E 		.ascii	"STANDARD_SMPU_STRUCT_MASTER_ATTR\000"
 6097      44415244 
 6097      5F534D50 
 6097      555F5354 
 6097      52554354 
 6098              	.LASF330:
 6099 052c 63707573 		.ascii	"cpussFmIrq\000"
 6099      73466D49 
 6099      727100
 6100              	.LASF174:
ARM GAS  C:\Users\Rolf\AppData\Local\Temp\ccafVfle.s 			page 149


 6101 0537 53464C41 		.ascii	"SFLASH_V1_Type\000"
 6101      53485F56 
 6101      315F5479 
 6101      706500
 6102              	.LASF21:
 6103 0546 50656E64 		.ascii	"PendSV_IRQn\000"
 6103      53565F49 
 6103      52516E00 
 6104              	.LASF106:
 6105 0552 43505553 		.ascii	"CPUSS_TRIM_RAM_CTL_ULP\000"
 6105      535F5452 
 6105      494D5F52 
 6105      414D5F43 
 6105      544C5F55 
 6106              	.LASF226:
 6107 0569 44415441 		.ascii	"DATA\000"
 6107      00
 6108              	.LASF198:
 6109 056e 524F4D5F 		.ascii	"ROM_CTL\000"
 6109      43544C00 
 6110              	.LASF176:
 6111 0576 434D305F 		.ascii	"CM0_STATUS\000"
 6111      53544154 
 6111      555300
 6112              	.LASF23:
 6113 0581 4E766963 		.ascii	"NvicMux0_IRQn\000"
 6113      4D757830 
 6113      5F495251 
 6113      6E00
 6114              	.LASF190:
 6115 058f 434D345F 		.ascii	"CM4_NMI_CTL\000"
 6115      4E4D495F 
 6115      43544C00 
 6116              	.LASF364:
 6117 059b 70657269 		.ascii	"periDivCmdTypeSelPos\000"
 6117      44697643 
 6117      6D645479 
 6117      70655365 
 6117      6C506F73 
 6118              	.LASF111:
 6119 05b0 43505553 		.ascii	"CPUSS_TRIM_RAM_CTL_HALF_ULP\000"
 6119      535F5452 
 6119      494D5F52 
 6119      414D5F43 
 6119      544C5F48 
 6120              	.LASF381:
 6121 05cc 63707573 		.ascii	"cpussTrimRamCtlOffset\000"
 6121      73547269 
 6121      6D52616D 
 6121      43746C4F 
 6121      66667365 
 6122              	.LASF135:
 6123 05e2 544F4331 		.ascii	"TOC1_CRC_ADDR\000"
 6123      5F435243 
 6123      5F414444 
 6123      5200
 6124              	.LASF392:
ARM GAS  C:\Users\Rolf\AppData\Local\Temp\ccafVfle.s 			page 150


 6125 05f0 63795F73 		.ascii	"cy_stc_device_t\000"
 6125      74635F64 
 6125      65766963 
 6125      655F7400 
 6126              	.LASF407:
 6127 0600 62757379 		.ascii	"busy\000"
 6127      00
 6128              	.LASF59:
 6129 0605 53495F52 		.ascii	"SI_REVISION_ID\000"
 6129      45564953 
 6129      494F4E5F 
 6129      494400
 6130              	.LASF422:
 6131 0614 656E6470 		.ascii	"endpointsCallbacksArray\000"
 6131      6F696E74 
 6131      7343616C 
 6131      6C626163 
 6131      6B734172 
 6132              	.LASF248:
 6133 062c 5057525F 		.ascii	"PWR_CTL\000"
 6133      43544C00 
 6134              	.LASF102:
 6135 0634 5057525F 		.ascii	"PWR_TRIM_WAKE_CTL\000"
 6135      5452494D 
 6135      5F57414B 
 6135      455F4354 
 6135      4C00
 6136              	.LASF254:
 6137 0646 5057525F 		.ascii	"PWR_HIB_DATA\000"
 6137      4849425F 
 6137      44415441 
 6137      00
 6138              	.LASF425:
 6139 0653 43795F53 		.ascii	"Cy_SysIpcPipeIsrCm0\000"
 6139      79734970 
 6139      63506970 
 6139      65497372 
 6139      436D3000 
 6140              	.LASF238:
 6141 0667 4D435744 		.ascii	"MCWDT_CNTHIGH\000"
 6141      545F434E 
 6141      54484947 
 6141      4800
 6142              	.LASF194:
 6143 0675 52414D31 		.ascii	"RAM1_PWR_CTL\000"
 6143      5F505752 
 6143      5F43544C 
 6143      00
 6144              	.LASF16:
 6145 0682 75696E74 		.ascii	"uint32_t\000"
 6145      33325F74 
 6145      00
 6146              	.LASF465:
 6147 068b 63795F48 		.ascii	"cy_Hfclk0FreqHz\000"
 6147      66636C6B 
 6147      30467265 
 6147      71487A00 
ARM GAS  C:\Users\Rolf\AppData\Local\Temp\ccafVfle.s 			page 151


 6148              	.LASF173:
 6149 069b 52544F43 		.ascii	"RTOC2_CRC_ADDR\000"
 6149      325F4352 
 6149      435F4144 
 6149      445200
 6150              	.LASF70:
 6151 06aa 4449455F 		.ascii	"DIE_SORT\000"
 6151      534F5254 
 6151      00
 6152              	.LASF440:
 6153 06b3 706C6C4C 		.ascii	"pllLocked\000"
 6153      6F636B65 
 6153      6400
 6154              	.LASF48:
 6155 06bd 4E766963 		.ascii	"NvicMux25_IRQn\000"
 6155      4D757832 
 6155      355F4952 
 6155      516E00
 6156              	.LASF471:
 6157 06cc 43795F57 		.ascii	"Cy_WDT_Unlock\000"
 6157      44545F55 
 6157      6E6C6F63 
 6157      6B00
 6158              	.LASF152:
 6159 06da 544F4332 		.ascii	"TOC2_SECOND_USER_APP_ADDR\000"
 6159      5F534543 
 6159      4F4E445F 
 6159      55534552 
 6159      5F415050 
 6160              	.LASF374:
 6161 06f4 6770696F 		.ascii	"gpioPrtCfgOutOffset\000"
 6161      50727443 
 6161      66674F75 
 6161      744F6666 
 6161      73657400 
 6162              	.LASF229:
 6163 0708 494E5452 		.ascii	"INTR\000"
 6163      00
 6164              	.LASF292:
 6165 070d 434C4B5F 		.ascii	"CLK_TRIM_ILO_CTL\000"
 6165      5452494D 
 6165      5F494C4F 
 6165      5F43544C 
 6165      00
 6166              	.LASF245:
 6167 071e 4D435744 		.ascii	"MCWDT_INTR_MASKED\000"
 6167      545F494E 
 6167      54525F4D 
 6167      41534B45 
 6167      4400
 6168              	.LASF396:
 6169 0730 666C6F61 		.ascii	"float\000"
 6169      7400
 6170              	.LASF317:
 6171 0736 63727970 		.ascii	"cryptoVersion\000"
 6171      746F5665 
 6171      7273696F 
ARM GAS  C:\Users\Rolf\AppData\Local\Temp\ccafVfle.s 			page 152


 6171      6E00
 6172              	.LASF409:
 6173 0744 63616C6C 		.ascii	"callbackArray\000"
 6173      6261636B 
 6173      41727261 
 6173      7900
 6174              	.LASF346:
 6175 0752 666C6173 		.ascii	"flashProgramDelay\000"
 6175      6850726F 
 6175      6772616D 
 6175      44656C61 
 6175      7900
 6176              	.LASF427:
 6177 0764 73726346 		.ascii	"srcFreqHz\000"
 6177      72657148 
 6177      7A00
 6178              	.LASF157:
 6179 076e 544F4332 		.ascii	"TOC2_REVISION\000"
 6179      5F524556 
 6179      4953494F 
 6179      4E00
 6180              	.LASF223:
 6181 077c 41435155 		.ascii	"ACQUIRE\000"
 6181      49524500 
 6182              	.LASF61:
 6183 0784 52455345 		.ascii	"RESERVED1\000"
 6183      52564544 
 6183      3100
 6184              	.LASF14:
 6185 078e 696E7431 		.ascii	"int16_t\000"
 6185      365F7400 
 6186              	.LASF373:
 6187 0796 6770696F 		.ascii	"gpioPrtCfgInOffset\000"
 6187      50727443 
 6187      6667496E 
 6187      4F666673 
 6187      657400
 6188              	.LASF294:
 6189 07a9 434C4B5F 		.ascii	"CLK_TRIM_ECO_CTL\000"
 6189      5452494D 
 6189      5F45434F 
 6189      5F43544C 
 6189      00
 6190              	.LASF291:
 6191 07ba 5057525F 		.ascii	"PWR_TRIM_LVD_CTL\000"
 6191      5452494D 
 6191      5F4C5644 
 6191      5F43544C 
 6191      00
 6192              	.LASF192:
 6193 07cb 52414D30 		.ascii	"RAM0_PWR_MACRO_CTL\000"
 6193      5F505752 
 6193      5F4D4143 
 6193      524F5F43 
 6193      544C00
 6194              	.LASF11:
 6195 07de 6C6F6E67 		.ascii	"long long unsigned int\000"
ARM GAS  C:\Users\Rolf\AppData\Local\Temp\ccafVfle.s 			page 153


 6195      206C6F6E 
 6195      6720756E 
 6195      7369676E 
 6195      65642069 
 6196              	.LASF370:
 6197 07f5 70657269 		.ascii	"periDiv24_5CtlOffset\000"
 6197      44697632 
 6197      345F3543 
 6197      746C4F66 
 6197      66736574 
 6198              	.LASF375:
 6199 080a 6770696F 		.ascii	"gpioPrtCfgSioOffset\000"
 6199      50727443 
 6199      66675369 
 6199      6F4F6666 
 6199      73657400 
 6200              	.LASF149:
 6201 081e 544F4332 		.ascii	"TOC2_SMIF_CFG_STRUCT_ADDR\000"
 6201      5F534D49 
 6201      465F4346 
 6201      475F5354 
 6201      52554354 
 6202              	.LASF329:
 6203 0838 63707573 		.ascii	"cpussIpc0Irq\000"
 6203      73497063 
 6203      30497271 
 6203      00
 6204              	.LASF367:
 6205 0845 70657269 		.ascii	"periDiv8CtlOffset\000"
 6205      44697638 
 6205      43746C4F 
 6205      66667365 
 6205      7400
 6206              	.LASF483:
 6207 0857 43795F57 		.ascii	"Cy_WDT_Disable\000"
 6207      44545F44 
 6207      69736162 
 6207      6C6500
 6208              	.LASF462:
 6209 0866 63795F64 		.ascii	"cy_delay32kMs\000"
 6209      656C6179 
 6209      33326B4D 
 6209      7300
 6210              	.LASF131:
 6211 0874 544F4331 		.ascii	"TOC1_FB_OBJECT_ADDR\000"
 6211      5F46425F 
 6211      4F424A45 
 6211      43545F41 
 6211      44445200 
 6212              	.LASF171:
 6213 0888 52544F43 		.ascii	"RTOC2_REVISION\000"
 6213      325F5245 
 6213      56495349 
 6213      4F4E00
 6214              	.LASF195:
 6215 0897 52414D32 		.ascii	"RAM2_CTL0\000"
 6215      5F43544C 
ARM GAS  C:\Users\Rolf\AppData\Local\Temp\ccafVfle.s 			page 154


 6215      3000
 6216              	.LASF404:
 6217 08a1 70697065 		.ascii	"pipeIntrSrc\000"
 6217      496E7472 
 6217      53726300 
 6218              	.LASF5:
 6219 08ad 5F5F7569 		.ascii	"__uint16_t\000"
 6219      6E743136 
 6219      5F7400
 6220              	.LASF252:
 6221 08b8 5057525F 		.ascii	"PWR_BUCK_CTL2\000"
 6221      4255434B 
 6221      5F43544C 
 6221      3200
 6222              	.LASF62:
 6223 08c6 46414D49 		.ascii	"FAMILY_ID\000"
 6223      4C595F49 
 6223      4400
 6224              	.LASF104:
 6225 08d0 52414449 		.ascii	"RADIO_LDO_TRIMS\000"
 6225      4F5F4C44 
 6225      4F5F5452 
 6225      494D5300 
 6226              	.LASF432:
 6227 08e0 73726343 		.ascii	"srcClk\000"
 6227      6C6B00
 6228              	.LASF419:
 6229 08e7 65703043 		.ascii	"ep0ConfigData\000"
 6229      6F6E6669 
 6229      67446174 
 6229      6100
 6230              	.LASF233:
 6231 08f5 4950435F 		.ascii	"IPC_INTR_STRUCT_V1_Type\000"
 6231      494E5452 
 6231      5F535452 
 6231      5543545F 
 6231      56315F54 
 6232              	.LASF335:
 6233 090d 70657269 		.ascii	"periClockNr\000"
 6233      436C6F63 
 6233      6B4E7200 
 6234              	.LASF39:
 6235 0919 4E766963 		.ascii	"NvicMux16_IRQn\000"
 6235      4D757831 
 6235      365F4952 
 6235      516E00
 6236              	.LASF478:
 6237 0928 43795F53 		.ascii	"Cy_SysLib_AssertFailed\000"
 6237      79734C69 
 6237      625F4173 
 6237      73657274 
 6237      4661696C 
 6238              	.LASF449:
 6239 093f 73797374 		.ascii	"systemIpcPipeEpArray\000"
 6239      656D4970 
 6239      63506970 
 6239      65457041 
ARM GAS  C:\Users\Rolf\AppData\Local\Temp\ccafVfle.s 			page 155


 6239      72726179 
 6240              	.LASF273:
 6241 0954 434C4B5F 		.ascii	"CLK_FLL_CONFIG\000"
 6241      464C4C5F 
 6241      434F4E46 
 6241      494700
 6242              	.LASF347:
 6243 0963 666C6173 		.ascii	"flashEraseDelay\000"
 6243      68457261 
 6243      73654465 
 6243      6C617900 
 6244              	.LASF428:
 6245 0973 70617468 		.ascii	"pathFreqHz\000"
 6245      46726571 
 6245      487A00
 6246              	.LASF34:
 6247 097e 4E766963 		.ascii	"NvicMux11_IRQn\000"
 6247      4D757831 
 6247      315F4952 
 6247      516E00
 6248              	.LASF271:
 6249 098d 434C4B5F 		.ascii	"CLK_ECO_STATUS\000"
 6249      45434F5F 
 6249      53544154 
 6249      555300
 6250              	.LASF433:
 6251 099c 6473695F 		.ascii	"dsi_src\000"
 6251      73726300 
 6252              	.LASF351:
 6253 09a4 666C6173 		.ascii	"flashCtlMainWs3Freq\000"
 6253      6843746C 
 6253      4D61696E 
 6253      57733346 
 6253      72657100 
 6254              	.LASF41:
 6255 09b8 4E766963 		.ascii	"NvicMux18_IRQn\000"
 6255      4D757831 
 6255      385F4952 
 6255      516E00
 6256              	.LASF56:
 6257 09c7 4952516E 		.ascii	"IRQn_Type\000"
 6257      5F547970 
 6257      6500
 6258              	.LASF333:
 6259 09d1 73727373 		.ascii	"srssNumPll\000"
 6259      4E756D50 
 6259      6C6C00
 6260              	.LASF222:
 6261 09dc 43505553 		.ascii	"CPUSS_V1_Type\000"
 6261      535F5631 
 6261      5F547970 
 6261      6500
 6262              	.LASF72:
 6263 09ea 4449455F 		.ascii	"DIE_DAY\000"
 6263      44415900 
 6264              	.LASF415:
 6265 09f2 6970634E 		.ascii	"ipcNotifierMuxNumber\000"
ARM GAS  C:\Users\Rolf\AppData\Local\Temp\ccafVfle.s 			page 156


 6265      6F746966 
 6265      6965724D 
 6265      75784E75 
 6265      6D626572 
 6266              	.LASF430:
 6267 0a07 70657269 		.ascii	"periClkDiv\000"
 6267      436C6B44 
 6267      697600
 6268              	.LASF455:
 6269 0a12 43795F53 		.ascii	"Cy_SysRetainCM4\000"
 6269      79735265 
 6269      7461696E 
 6269      434D3400 
 6270              	.LASF274:
 6271 0a22 434C4B5F 		.ascii	"CLK_FLL_CONFIG2\000"
 6271      464C4C5F 
 6271      434F4E46 
 6271      49473200 
 6272              	.LASF275:
 6273 0a32 434C4B5F 		.ascii	"CLK_FLL_CONFIG3\000"
 6273      464C4C5F 
 6273      434F4E46 
 6273      49473300 
 6274              	.LASF276:
 6275 0a42 434C4B5F 		.ascii	"CLK_FLL_CONFIG4\000"
 6275      464C4C5F 
 6275      434F4E46 
 6275      49473400 
 6276              	.LASF54:
 6277 0a52 4E766963 		.ascii	"NvicMux31_IRQn\000"
 6277      4D757833 
 6277      315F4952 
 6277      516E00
 6278              	.LASF268:
 6279 0a61 434C4B5F 		.ascii	"CLK_CAL_CNT1\000"
 6279      43414C5F 
 6279      434E5431 
 6279      00
 6280              	.LASF269:
 6281 0a6e 434C4B5F 		.ascii	"CLK_CAL_CNT2\000"
 6281      43414C5F 
 6281      434E5432 
 6281      00
 6282              	.LASF344:
 6283 0a7b 666C6173 		.ascii	"flashPipeRequired\000"
 6283      68506970 
 6283      65526571 
 6283      75697265 
 6283      6400
 6284              	.LASF95:
 6285 0a8d 5354414E 		.ascii	"STANDARD_PPU_STRUCT\000"
 6285      44415244 
 6285      5F505055 
 6285      5F535452 
 6285      55435400 
 6286              	.LASF406:
 6287 0aa1 69706349 		.ascii	"ipcIntrPtr\000"
ARM GAS  C:\Users\Rolf\AppData\Local\Temp\ccafVfle.s 			page 157


 6287      6E747250 
 6287      747200
 6288              	.LASF25:
 6289 0aac 4E766963 		.ascii	"NvicMux2_IRQn\000"
 6289      4D757832 
 6289      5F495251 
 6289      6E00
 6290              	.LASF434:
 6291 0aba 666C6C4C 		.ascii	"fllLocked\000"
 6291      6F636B65 
 6291      6400
 6292              	.LASF84:
 6293 0ac4 424C455F 		.ascii	"BLE_DEVICE_ADDRESS\000"
 6293      44455649 
 6293      43455F41 
 6293      44445245 
 6293      535300
 6294              	.LASF445:
 6295 0ad7 5F426F6F 		.ascii	"_Bool\000"
 6295      6C00
 6296              	.LASF191:
 6297 0add 52414D30 		.ascii	"RAM0_CTL0\000"
 6297      5F43544C 
 6297      3000
 6298              	.LASF244:
 6299 0ae7 4D435744 		.ascii	"MCWDT_INTR_MASK\000"
 6299      545F494E 
 6299      54525F4D 
 6299      41534B00 
 6300              	.LASF459:
 6301 0af7 63795F64 		.ascii	"cy_delayFreqHz\000"
 6301      656C6179 
 6301      46726571 
 6301      487A00
 6302              	.LASF146:
 6303 0b06 544F4332 		.ascii	"TOC2_OBJECT_SIZE\000"
 6303      5F4F424A 
 6303      4543545F 
 6303      53495A45 
 6303      00
 6304              	.LASF312:
 6305 0b17 6770696F 		.ascii	"gpioBase\000"
 6305      42617365 
 6305      00
 6306              	.LASF110:
 6307 0b20 43505553 		.ascii	"CPUSS_TRIM_ROM_CTL_HALF_ULP\000"
 6307      535F5452 
 6307      494D5F52 
 6307      4F4D5F43 
 6307      544C5F48 
 6308              	.LASF208:
 6309 0b3c 434D305F 		.ascii	"CM0_PC0_HANDLER\000"
 6309      5043305F 
 6309      48414E44 
 6309      4C455200 
 6310              	.LASF279:
 6311 0b4c 434C4B5F 		.ascii	"CLK_PLL_STATUS\000"
ARM GAS  C:\Users\Rolf\AppData\Local\Temp\ccafVfle.s 			page 158


 6311      504C4C5F 
 6311      53544154 
 6311      555300
 6312              	.LASF457:
 6313 0b5b 43795F53 		.ascii	"Cy_SysEnableCM4\000"
 6313      7973456E 
 6313      61626C65 
 6313      434D3400 
 6314              	.LASF73:
 6315 0b6b 4449455F 		.ascii	"DIE_MONTH\000"
 6315      4D4F4E54 
 6315      4800
 6316              	.LASF284:
 6317 0b75 53525353 		.ascii	"SRSS_INTR_CFG\000"
 6317      5F494E54 
 6317      525F4346 
 6317      4700
 6318              	.LASF197:
 6319 0b83 52414D5F 		.ascii	"RAM_PWR_DELAY_CTL\000"
 6319      5057525F 
 6319      44454C41 
 6319      595F4354 
 6319      4C00
 6320              	.LASF391:
 6321 0b95 6970634C 		.ascii	"ipcLockStatusOffset\000"
 6321      6F636B53 
 6321      74617475 
 6321      734F6666 
 6321      73657400 
 6322              	.LASF345:
 6323 0ba9 666C6173 		.ascii	"flashWriteDelay\000"
 6323      68577269 
 6323      74654465 
 6323      6C617900 
 6324              	.LASF383:
 6325 0bb9 63707573 		.ascii	"cpussSysTickCtlOffset\000"
 6325      73537973 
 6325      5469636B 
 6325      43746C4F 
 6325      66667365 
 6326              	.LASF348:
 6327 0bcf 666C6173 		.ascii	"flashCtlMainWs0Freq\000"
 6327      6843746C 
 6327      4D61696E 
 6327      57733046 
 6327      72657100 
 6328              	.LASF296:
 6329 0be3 434C4B5F 		.ascii	"CLK_TRIM_PILO_CTL2\000"
 6329      5452494D 
 6329      5F50494C 
 6329      4F5F4354 
 6329      4C3200
 6330              	.LASF297:
 6331 0bf6 434C4B5F 		.ascii	"CLK_TRIM_PILO_CTL3\000"
 6331      5452494D 
 6331      5F50494C 
 6331      4F5F4354 
ARM GAS  C:\Users\Rolf\AppData\Local\Temp\ccafVfle.s 			page 159


 6331      4C3300
 6332              	.LASF86:
 6333 0c09 55534552 		.ascii	"USER_FREE_ROW2\000"
 6333      5F465245 
 6333      455F524F 
 6333      573200
 6334              	.LASF357:
 6335 0c18 64775374 		.ascii	"dwStatusChIdxPos\000"
 6335      61747573 
 6335      43684964 
 6335      78506F73 
 6335      00
 6336              	.LASF155:
 6337 0c29 544F4332 		.ascii	"TOC2_SIGNATURE_VERIF_KEY\000"
 6337      5F534947 
 6337      4E415455 
 6337      52455F56 
 6337      45524946 
 6338              	.LASF141:
 6339 0c42 52544F43 		.ascii	"RTOC1_FB_OBJECT_ADDR\000"
 6339      315F4642 
 6339      5F4F424A 
 6339      4543545F 
 6339      41444452 
 6340              	.LASF484:
 6341 0c57 43795F53 		.ascii	"Cy_SystemInit\000"
 6341      79737465 
 6341      6D496E69 
 6341      7400
 6342              	.LASF45:
 6343 0c65 4E766963 		.ascii	"NvicMux22_IRQn\000"
 6343      4D757832 
 6343      325F4952 
 6343      516E00
 6344              	.LASF289:
 6345 0c74 434C4B5F 		.ascii	"CLK_TRIM_CCO_CTL\000"
 6345      5452494D 
 6345      5F43434F 
 6345      5F43544C 
 6345      00
 6346              	.LASF214:
 6347 0c85 434D305F 		.ascii	"CM0_NMI_CTL\000"
 6347      4E4D495F 
 6347      43544C00 
 6348              	.LASF249:
 6349 0c91 5057525F 		.ascii	"PWR_HIBERNATE\000"
 6349      48494245 
 6349      524E4154 
 6349      4500
 6350              	.LASF328:
 6351 0c9f 63707573 		.ascii	"cpussFlashPaSize\000"
 6351      73466C61 
 6351      73685061 
 6351      53697A65 
 6351      00
 6352              	.LASF199:
 6353 0cb0 5544425F 		.ascii	"UDB_PWR_CTL\000"
ARM GAS  C:\Users\Rolf\AppData\Local\Temp\ccafVfle.s 			page 160


 6353      5057525F 
 6353      43544C00 
 6354              	.LASF278:
 6355 0cbc 434C4B5F 		.ascii	"CLK_PLL_CONFIG\000"
 6355      504C4C5F 
 6355      434F4E46 
 6355      494700
 6356              	.LASF307:
 6357 0ccb 666C6173 		.ascii	"flashcBase\000"
 6357      68634261 
 6357      736500
 6358              	.LASF395:
 6359 0cd6 63686172 		.ascii	"char\000"
 6359      00
 6360              	.LASF116:
 6361 0cdb 464C4153 		.ascii	"FLASH_BOOT_APP_ID\000"
 6361      485F424F 
 6361      4F545F41 
 6361      50505F49 
 6361      4400
 6362              	.LASF189:
 6363 0ced 434D345F 		.ascii	"CM4_CLOCK_CTL\000"
 6363      434C4F43 
 6363      4B5F4354 
 6363      4C00
 6364              	.LASF138:
 6365 0cfb 52544F43 		.ascii	"RTOC1_FHASH_OBJECTS\000"
 6365      315F4648 
 6365      4153485F 
 6365      4F424A45 
 6365      43545300 
 6366              	.LASF30:
 6367 0d0f 4E766963 		.ascii	"NvicMux7_IRQn\000"
 6367      4D757837 
 6367      5F495251 
 6367      6E00
 6368              	.LASF55:
 6369 0d1d 756E636F 		.ascii	"unconnected_IRQn\000"
 6369      6E6E6563 
 6369      7465645F 
 6369      4952516E 
 6369      00
 6370              	.LASF417:
 6371 0d2e 6570436F 		.ascii	"epConfig\000"
 6371      6E666967 
 6371      00
 6372              	.LASF339:
 6373 0d37 75646250 		.ascii	"udbPresent\000"
 6373      72657365 
 6373      6E7400
 6374              	.LASF461:
 6375 0d42 63795F64 		.ascii	"cy_delayFreqMhz\000"
 6375      656C6179 
 6375      46726571 
 6375      4D687A00 
 6376              	.LASF340:
 6377 0d52 73797350 		.ascii	"sysPmSimoPresent\000"
ARM GAS  C:\Users\Rolf\AppData\Local\Temp\ccafVfle.s 			page 161


 6377      6D53696D 
 6377      6F507265 
 6377      73656E74 
 6377      00
 6378              	.LASF250:
 6379 0d63 5057525F 		.ascii	"PWR_LVD_CTL\000"
 6379      4C56445F 
 6379      43544C00 
 6380              	.LASF476:
 6381 0d6f 43795F53 		.ascii	"Cy_SysLib_EnterCriticalSection\000"
 6381      79734C69 
 6381      625F456E 
 6381      74657243 
 6381      72697469 
 6382              	.LASF467:
 6383 0d8e 63795F64 		.ascii	"cy_deviceIpBlockCfgPSoC6_01\000"
 6383      65766963 
 6383      65497042 
 6383      6C6F636B 
 6383      43666750 
 6384              	.LASF105:
 6385 0daa 43505553 		.ascii	"CPUSS_TRIM_ROM_CTL_ULP\000"
 6385      535F5452 
 6385      494D5F52 
 6385      4F4D5F43 
 6385      544C5F55 
 6386              	.LASF321:
 6387 0dc1 6873696F 		.ascii	"hsiomVersion\000"
 6387      6D566572 
 6387      73696F6E 
 6387      00
 6388              	.LASF256:
 6389 0dce 5744545F 		.ascii	"WDT_CNT\000"
 6389      434E5400 
 6390              	.LASF43:
 6391 0dd6 4E766963 		.ascii	"NvicMux20_IRQn\000"
 6391      4D757832 
 6391      305F4952 
 6391      516E00
 6392              	.LASF150:
 6393 0de5 544F4332 		.ascii	"TOC2_FIRST_USER_APP_ADDR\000"
 6393      5F464952 
 6393      53545F55 
 6393      5345525F 
 6393      4150505F 
 6394              	.LASF358:
 6395 0dfe 64775374 		.ascii	"dwStatusChIdxMsk\000"
 6395      61747573 
 6395      43684964 
 6395      784D736B 
 6395      00
 6396              	.LASF281:
 6397 0e0f 53525353 		.ascii	"SRSS_INTR_SET\000"
 6397      5F494E54 
 6397      525F5345 
 6397      5400
 6398              	.LASF13:
ARM GAS  C:\Users\Rolf\AppData\Local\Temp\ccafVfle.s 			page 162


 6399 0e1d 75696E74 		.ascii	"uint8_t\000"
 6399      385F7400 
 6400              	.LASF263:
 6401 0e25 434C4B5F 		.ascii	"CLK_TIMER_CTL\000"
 6401      54494D45 
 6401      525F4354 
 6401      4C00
 6402              	.LASF382:
 6403 0e33 63707573 		.ascii	"cpussTrimRomCtlOffset\000"
 6403      73547269 
 6403      6D526F6D 
 6403      43746C4F 
 6403      66667365 
 6404              	.LASF363:
 6405 0e49 70657269 		.ascii	"periDivCmdDivSelMsk\000"
 6405      44697643 
 6405      6D644469 
 6405      7653656C 
 6405      4D736B00 
 6406              	.LASF36:
 6407 0e5d 4E766963 		.ascii	"NvicMux13_IRQn\000"
 6407      4D757831 
 6407      335F4952 
 6407      516E00
 6408              	.LASF482:
 6409 0e6c 43795F53 		.ascii	"Cy_SysLib_GetDeviceRevision\000"
 6409      79734C69 
 6409      625F4765 
 6409      74446576 
 6409      69636552 
 6410              	.LASF412:
 6411 0e88 63795F73 		.ascii	"cy_stc_ipc_pipe_ep_t\000"
 6411      74635F69 
 6411      70635F70 
 6411      6970655F 
 6411      65705F74 
 6412              	.LASF257:
 6413 0e9d 5744545F 		.ascii	"WDT_MATCH\000"
 6413      4D415443 
 6413      4800
 6414              	.LASF371:
 6415 0ea7 6770696F 		.ascii	"gpioPrtIntrCfgOffset\000"
 6415      50727449 
 6415      6E747243 
 6415      66674F66 
 6415      66736574 
 6416              	.LASF369:
 6417 0ebc 70657269 		.ascii	"periDiv16_5CtlOffset\000"
 6417      44697631 
 6417      365F3543 
 6417      746C4F66 
 6417      66736574 
 6418              	.LASF50:
 6419 0ed1 4E766963 		.ascii	"NvicMux27_IRQn\000"
 6419      4D757832 
 6419      375F4952 
 6419      516E00
ARM GAS  C:\Users\Rolf\AppData\Local\Temp\ccafVfle.s 			page 163


 6420              	.LASF237:
 6421 0ee0 4D435744 		.ascii	"MCWDT_CNTLOW\000"
 6421      545F434E 
 6421      544C4F57 
 6421      00
 6422              	.LASF387:
 6423 0eed 63707573 		.ascii	"cpussRam0Ctl0\000"
 6423      7352616D 
 6423      3043746C 
 6423      3000
 6424              	.LASF10:
 6425 0efb 6C6F6E67 		.ascii	"long long int\000"
 6425      206C6F6E 
 6425      6720696E 
 6425      7400
 6426              	.LASF314:
 6427 0f09 69706342 		.ascii	"ipcBase\000"
 6427      61736500 
 6428              	.LASF355:
 6429 0f11 64774368 		.ascii	"dwChCtlPrioPos\000"
 6429      43746C50 
 6429      72696F50 
 6429      6F7300
 6430              	.LASF315:
 6431 0f20 63727970 		.ascii	"cryptoBase\000"
 6431      746F4261 
 6431      736500
 6432              	.LASF79:
 6433 0f2b 4353505F 		.ascii	"CSP_PANEL_ID\000"
 6433      50414E45 
 6433      4C5F4944 
 6433      00
 6434              	.LASF270:
 6435 0f38 434C4B5F 		.ascii	"CLK_ECO_CONFIG\000"
 6435      45434F5F 
 6435      434F4E46 
 6435      494700
 6436              	.LASF242:
 6437 0f47 4D435744 		.ascii	"MCWDT_INTR\000"
 6437      545F494E 
 6437      545200
 6438              	.LASF460:
 6439 0f52 63795F64 		.ascii	"cy_delayFreqKhz\000"
 6439      656C6179 
 6439      46726571 
 6439      4B687A00 
 6440              	.LASF481:
 6441 0f62 5C5C4D61 		.ascii	"\\\\Mac\\Data\\VScode\\GIT\\Onethinx_Project_Exampl"
 6441      635C4461 
 6441      74615C56 
 6441      53636F64 
 6441      655C4749 
 6442 0f8f 65735C45 		.ascii	"es\\Example_ADC\\Onethinx_Creator.cydsn\000"
 6442      78616D70 
 6442      6C655F41 
 6442      44435C4F 
 6442      6E657468 
ARM GAS  C:\Users\Rolf\AppData\Local\Temp\ccafVfle.s 			page 164


 6443              	.LASF298:
 6444 0fb5 53525353 		.ascii	"SRSS_V1_Type\000"
 6444      5F56315F 
 6444      54797065 
 6444      00
 6445              	.LASF212:
 6446 0fc2 50524F54 		.ascii	"PROTECTION\000"
 6446      45435449 
 6446      4F4E00
 6447              	.LASF112:
 6448 0fcd 43505553 		.ascii	"CPUSS_TRIM_ROM_CTL_HALF_LP\000"
 6448      535F5452 
 6448      494D5F52 
 6448      4F4D5F43 
 6448      544C5F48 
 6449              	.LASF466:
 6450 0fe8 63795F50 		.ascii	"cy_PeriClkFreqHz\000"
 6450      65726943 
 6450      6C6B4672 
 6450      6571487A 
 6450      00
 6451              	.LASF266:
 6452 0ff9 434C4B5F 		.ascii	"CLK_OUTPUT_FAST\000"
 6452      4F555450 
 6452      55545F46 
 6452      41535400 
 6453              	.LASF479:
 6454 1009 474E5520 		.ascii	"GNU C11 5.4.1 20160609 (release) [ARM/embedded-5-br"
 6454      43313120 
 6454      352E342E 
 6454      31203230 
 6454      31363036 
 6455 103c 616E6368 		.ascii	"anch revision 237715] -mcpu=cortex-m0plus -mthumb -"
 6455      20726576 
 6455      6973696F 
 6455      6E203233 
 6455      37373135 
 6456 106f 67202D4F 		.ascii	"g -Og -ffunction-sections -ffat-lto-objects\000"
 6456      67202D66 
 6456      66756E63 
 6456      74696F6E 
 6456      2D736563 
 6457              	.LASF187:
 6458 109b 434D345F 		.ascii	"CM4_PWR_DELAY_CTL\000"
 6458      5057525F 
 6458      44454C41 
 6458      595F4354 
 6458      4C00
 6459              	.LASF210:
 6460 10ad 4944454E 		.ascii	"IDENTITY\000"
 6460      54495459 
 6460      00
 6461              	.LASF3:
 6462 10b6 5F5F696E 		.ascii	"__int16_t\000"
 6462      7431365F 
 6462      7400
 6463              	.LASF120:
ARM GAS  C:\Users\Rolf\AppData\Local\Temp\ccafVfle.s 			page 165


 6464 10c0 464C4153 		.ascii	"FLASH_BOOT_CORE_CPUID\000"
 6464      485F424F 
 6464      4F545F43 
 6464      4F52455F 
 6464      43505549 
 6465              	.LASF311:
 6466 10d6 6873696F 		.ascii	"hsiomBase\000"
 6466      6D426173 
 6466      6500
 6467              	.LASF57:
 6468 10e0 73697A65 		.ascii	"sizetype\000"
 6468      74797065 
 6468      00
 6469              	.LASF388:
 6470 10e9 63707573 		.ascii	"cpussRam1Ctl0\000"
 6470      7352616D 
 6470      3143746C 
 6470      3000
 6471              	.LASF361:
 6472 10f7 70657269 		.ascii	"periTrGrOffset\000"
 6472      54724772 
 6472      4F666673 
 6472      657400
 6473              	.LASF403:
 6474 1106 70697065 		.ascii	"pipeIntMask\000"
 6474      496E744D 
 6474      61736B00 
 6475              	.LASF236:
 6476 1112 4950435F 		.ascii	"IPC_V1_Type\000"
 6476      56315F54 
 6476      79706500 
 6477              	.LASF474:
 6478 111e 43795F49 		.ascii	"Cy_IPC_Pipe_Init\000"
 6478      50435F50 
 6478      6970655F 
 6478      496E6974 
 6478      00
 6479              	.LASF327:
 6480 112f 63707573 		.ascii	"cpussDwChNr\000"
 6480      73447743 
 6480      684E7200 
 6481              	.LASF231:
 6482 113b 494E5452 		.ascii	"INTR_MASK\000"
 6482      5F4D4153 
 6482      4B00
 6483              	.LASF119:
 6484 1145 464C4153 		.ascii	"FLASH_BOOT_VT_OFFSET\000"
 6484      485F424F 
 6484      4F545F56 
 6484      545F4F46 
 6484      46534554 
 6485              	.LASF158:
 6486 115a 544F4332 		.ascii	"TOC2_FLAGS\000"
 6486      5F464C41 
 6486      475300
 6487              	.LASF130:
 6488 1165 544F4331 		.ascii	"TOC1_UNIQUE_ID_ADDR\000"
ARM GAS  C:\Users\Rolf\AppData\Local\Temp\ccafVfle.s 			page 166


 6488      5F554E49 
 6488      5155455F 
 6488      49445F41 
 6488      44445200 
 6489              	.LASF325:
 6490 1179 63707573 		.ascii	"cpussIpcNr\000"
 6490      73497063 
 6490      4E7200
 6491              	.LASF413:
 6492 1184 6970634E 		.ascii	"ipcNotifierNumber\000"
 6492      6F746966 
 6492      6965724E 
 6492      756D6265 
 6492      7200
 6493              	.LASF477:
 6494 1196 43795F53 		.ascii	"Cy_SysLib_ExitCriticalSection\000"
 6494      79734C69 
 6494      625F4578 
 6494      69744372 
 6494      69746963 
 6495              	.LASF224:
 6496 11b4 52454C45 		.ascii	"RELEASE\000"
 6496      41534500 
 6497              	.LASF414:
 6498 11bc 6970634E 		.ascii	"ipcNotifierPriority\000"
 6498      6F746966 
 6498      69657250 
 6498      72696F72 
 6498      69747900 
 6499              	.LASF378:
 6500 11d0 63707573 		.ascii	"cpussCm4StatusOffset\000"
 6500      73436D34 
 6500      53746174 
 6500      75734F66 
 6500      66736574 
 6501              	.LASF113:
 6502 11e5 43505553 		.ascii	"CPUSS_TRIM_RAM_CTL_HALF_LP\000"
 6502      535F5452 
 6502      494D5F52 
 6502      414D5F43 
 6502      544C5F48 
 6503              	.LASF71:
 6504 1200 4449455F 		.ascii	"DIE_MINOR\000"
 6504      4D494E4F 
 6504      5200
 6505              	.LASF337:
 6506 120a 70617373 		.ascii	"passSarChannels\000"
 6506      53617243 
 6506      68616E6E 
 6506      656C7300 
 6507              	.LASF389:
 6508 121a 63707573 		.ascii	"cpussRam2Ctl0\000"
 6508      7352616D 
 6508      3243746C 
 6508      3000
 6509              	.LASF272:
 6510 1228 434C4B5F 		.ascii	"CLK_PILO_CONFIG\000"
ARM GAS  C:\Users\Rolf\AppData\Local\Temp\ccafVfle.s 			page 167


 6510      50494C4F 
 6510      5F434F4E 
 6510      46494700 
 6511              	.LASF354:
 6512 1238 64774368 		.ascii	"dwChSize\000"
 6512      53697A65 
 6512      00
 6513              	.LASF405:
 6514 1241 69706350 		.ascii	"ipcPtr\000"
 6514      747200
 6515              	.LASF32:
 6516 1248 4E766963 		.ascii	"NvicMux9_IRQn\000"
 6516      4D757839 
 6516      5F495251 
 6516      6E00
 6517              	.LASF287:
 6518 1256 5057525F 		.ascii	"PWR_TRIM_REF_CTL\000"
 6518      5452494D 
 6518      5F524546 
 6518      5F43544C 
 6518      00
 6519              	.LASF108:
 6520 1267 43505553 		.ascii	"CPUSS_TRIM_RAM_CTL_LP\000"
 6520      535F5452 
 6520      494D5F52 
 6520      414D5F43 
 6520      544C5F4C 
 6521              	.LASF186:
 6522 127d 434D345F 		.ascii	"CM4_PWR_CTL\000"
 6522      5057525F 
 6522      43544C00 
 6523              	.LASF368:
 6524 1289 70657269 		.ascii	"periDiv16CtlOffset\000"
 6524      44697631 
 6524      3643746C 
 6524      4F666673 
 6524      657400
 6525              	.LASF27:
 6526 129c 4E766963 		.ascii	"NvicMux4_IRQn\000"
 6526      4D757834 
 6526      5F495251 
 6526      6E00
 6527              	.LASF221:
 6528 12aa 5452494D 		.ascii	"TRIM_RAM_CTL\000"
 6528      5F52414D 
 6528      5F43544C 
 6528      00
 6529              	.LASF301:
 6530 12b7 4950435F 		.ascii	"IPC_STRUCT_Type\000"
 6530      53545255 
 6530      43545F54 
 6530      79706500 
 6531              	.LASF147:
 6532 12c7 544F4332 		.ascii	"TOC2_MAGIC_NUMBER\000"
 6532      5F4D4147 
 6532      49435F4E 
 6532      554D4245 
ARM GAS  C:\Users\Rolf\AppData\Local\Temp\ccafVfle.s 			page 168


 6532      5200
 6533              	.LASF246:
 6534 12d9 4D435744 		.ascii	"MCWDT_LOCK\000"
 6534      545F4C4F 
 6534      434B00
 6535              	.LASF6:
 6536 12e4 73686F72 		.ascii	"short unsigned int\000"
 6536      7420756E 
 6536      7369676E 
 6536      65642069 
 6536      6E7400
 6537              	.LASF450:
 6538 12f7 73797374 		.ascii	"systemIpcPipeSysCbArray\000"
 6538      656D4970 
 6538      63506970 
 6538      65537973 
 6538      43624172 
 6539              	.LASF107:
 6540 130f 43505553 		.ascii	"CPUSS_TRIM_ROM_CTL_LP\000"
 6540      535F5452 
 6540      494D5F52 
 6540      4F4D5F43 
 6540      544C5F4C 
 6541              	.LASF305:
 6542 1325 6C6F6E67 		.ascii	"long double\000"
 6542      20646F75 
 6542      626C6500 
 6543              	.LASF463:
 6544 1331 53797374 		.ascii	"SystemCoreClock\000"
 6544      656D436F 
 6544      7265436C 
 6544      6F636B00 
 6545              	.LASF447:
 6546 1341 636F7079 		.ascii	"copy\000"
 6546      00
 6547              	.LASF310:
 6548 1346 70726F74 		.ascii	"protBase\000"
 6548      42617365 
 6548      00
 6549              	.LASF91:
 6550 134f 5354414E 		.ascii	"STANDARD_SMPU_STRUCT_SLAVE_ADDR\000"
 6550      44415244 
 6550      5F534D50 
 6550      555F5354 
 6550      52554354 
 6551              	.LASF97:
 6552 136f 50494C4F 		.ascii	"PILO_FREQ_STEP\000"
 6552      5F465245 
 6552      515F5354 
 6552      455000
 6553              	.LASF360:
 6554 137e 70657269 		.ascii	"periTrCmdGrSelMsk\000"
 6554      5472436D 
 6554      64477253 
 6554      656C4D73 
 6554      6B00
 6555              	.LASF8:
ARM GAS  C:\Users\Rolf\AppData\Local\Temp\ccafVfle.s 			page 169


 6556 1390 5F5F7569 		.ascii	"__uint32_t\000"
 6556      6E743332 
 6556      5F7400
 6557              	.LASF334:
 6558 139b 73727373 		.ascii	"srssNumHfroot\000"
 6558      4E756D48 
 6558      66726F6F 
 6558      7400
 6559              	.LASF67:
 6560 13a9 4449455F 		.ascii	"DIE_WAFER\000"
 6560      57414645 
 6560      5200
 6561              	.LASF94:
 6562 13b3 5354414E 		.ascii	"STANDARD_MPU_STRUCT\000"
 6562      44415244 
 6562      5F4D5055 
 6562      5F535452 
 6562      55435400 
 6563              	.LASF261:
 6564 13c7 434C4B5F 		.ascii	"CLK_ROOT_SELECT\000"
 6564      524F4F54 
 6564      5F53454C 
 6564      45435400 
 6565              	.LASF356:
 6566 13d7 64774368 		.ascii	"dwChCtlPreemptablePos\000"
 6566      43746C50 
 6566      7265656D 
 6566      70746162 
 6566      6C65506F 
 6567              	.LASF117:
 6568 13ed 464C4153 		.ascii	"FLASH_BOOT_ATTRIBUTE\000"
 6568      485F424F 
 6568      4F545F41 
 6568      54545249 
 6568      42555445 
 6569              	.LASF318:
 6570 1402 64775665 		.ascii	"dwVersion\000"
 6570      7273696F 
 6570      6E00
 6571              	.LASF350:
 6572 140c 666C6173 		.ascii	"flashCtlMainWs2Freq\000"
 6572      6843746C 
 6572      4D61696E 
 6572      57733246 
 6572      72657100 
 6573              	.LASF52:
 6574 1420 4E766963 		.ascii	"NvicMux29_IRQn\000"
 6574      4D757832 
 6574      395F4952 
 6574      516E00
 6575              	.LASF133:
 6576 142f 544F4331 		.ascii	"TOC1_OBJECT_ADDR_UNUSED\000"
 6576      5F4F424A 
 6576      4543545F 
 6576      41444452 
 6576      5F554E55 
 6577              	.LASF188:
ARM GAS  C:\Users\Rolf\AppData\Local\Temp\ccafVfle.s 			page 170


 6578 1447 434D345F 		.ascii	"CM4_STATUS\000"
 6578      53544154 
 6578      555300
 6579              	.LASF132:
 6580 1452 544F4331 		.ascii	"TOC1_SYSCALL_TABLE_ADDR_UNUSED\000"
 6580      5F535953 
 6580      43414C4C 
 6580      5F544142 
 6580      4C455F41 
 6581              	.LASF33:
 6582 1471 4E766963 		.ascii	"NvicMux10_IRQn\000"
 6582      4D757831 
 6582      305F4952 
 6582      516E00
 6583              	.LASF385:
 6584 1480 63707573 		.ascii	"cpussCm4NmiCtlOffset\000"
 6584      73436D34 
 6584      4E6D6943 
 6584      746C4F66 
 6584      66736574 
 6585              	.LASF196:
 6586 1495 52414D32 		.ascii	"RAM2_PWR_CTL\000"
 6586      5F505752 
 6586      5F43544C 
 6586      00
 6587              	.LASF424:
 6588 14a2 63795F73 		.ascii	"cy_stc_ipc_pipe_config_t\000"
 6588      74635F69 
 6588      70635F70 
 6588      6970655F 
 6588      636F6E66 
 6589              	.LASF63:
 6590 14bb 52455345 		.ascii	"RESERVED2\000"
 6590      52564544 
 6590      3200
 6591              	.LASF65:
 6592 14c5 52455345 		.ascii	"RESERVED3\000"
 6592      52564544 
 6592      3300
 6593              	.LASF75:
 6594 14cf 52455345 		.ascii	"RESERVED4\000"
 6594      52564544 
 6594      3400
 6595              	.LASF78:
 6596 14d9 52455345 		.ascii	"RESERVED5\000"
 6596      52564544 
 6596      3500
 6597              	.LASF80:
 6598 14e3 52455345 		.ascii	"RESERVED6\000"
 6598      52564544 
 6598      3600
 6599              	.LASF83:
 6600 14ed 52455345 		.ascii	"RESERVED7\000"
 6600      52564544 
 6600      3700
 6601              	.LASF47:
 6602 14f7 4E766963 		.ascii	"NvicMux24_IRQn\000"
ARM GAS  C:\Users\Rolf\AppData\Local\Temp\ccafVfle.s 			page 171


 6602      4D757832 
 6602      345F4952 
 6602      516E00
 6603              	.LASF96:
 6604 1506 52455345 		.ascii	"RESERVED9\000"
 6604      52564544 
 6604      3900
 6605              	.LASF401:
 6606 1510 69706343 		.ascii	"ipcChan\000"
 6606      68616E00 
 6607              	.LASF99:
 6608 1518 43534456 		.ascii	"CSDV2_CSD0_ADC_VREF0\000"
 6608      325F4353 
 6608      44305F41 
 6608      44435F56 
 6608      52454630 
 6609              	.LASF100:
 6610 152d 43534456 		.ascii	"CSDV2_CSD0_ADC_VREF1\000"
 6610      325F4353 
 6610      44305F41 
 6610      44435F56 
 6610      52454631 
 6611              	.LASF101:
 6612 1542 43534456 		.ascii	"CSDV2_CSD0_ADC_VREF2\000"
 6612      325F4353 
 6612      44305F41 
 6612      44435F56 
 6612      52454632 
 6613              	.LASF260:
 6614 1557 434C4B5F 		.ascii	"CLK_PATH_SELECT\000"
 6614      50415448 
 6614      5F53454C 
 6614      45435400 
 6615              	.LASF7:
 6616 1567 6C6F6E67 		.ascii	"long int\000"
 6616      20696E74 
 6616      00
 6617              	.LASF316:
 6618 1570 63707573 		.ascii	"cpussVersion\000"
 6618      73566572 
 6618      73696F6E 
 6618      00
 6619              	.LASF441:
 6620 157d 706C6C4F 		.ascii	"pllOutputOutput\000"
 6620      75747075 
 6620      744F7574 
 6620      70757400 
 6621              	.LASF295:
 6622 158d 434C4B5F 		.ascii	"CLK_TRIM_PILO_CTL\000"
 6622      5452494D 
 6622      5F50494C 
 6622      4F5F4354 
 6622      4C00
 6623              	.LASF18:
 6624 159f 4E6F6E4D 		.ascii	"NonMaskableInt_IRQn\000"
 6624      61736B61 
 6624      626C6549 
ARM GAS  C:\Users\Rolf\AppData\Local\Temp\ccafVfle.s 			page 172


 6624      6E745F49 
 6624      52516E00 
 6625              	.LASF283:
 6626 15b3 53525353 		.ascii	"SRSS_INTR_MASKED\000"
 6626      5F494E54 
 6626      525F4D41 
 6626      534B4544 
 6626      00
 6627              	.LASF251:
 6628 15c4 5057525F 		.ascii	"PWR_BUCK_CTL\000"
 6628      4255434B 
 6628      5F43544C 
 6628      00
 6629              	.LASF319:
 6630 15d1 666C6173 		.ascii	"flashcVersion\000"
 6630      68635665 
 6630      7273696F 
 6630      6E00
 6631              	.LASF341:
 6632 15df 70726F74 		.ascii	"protBusMasterMask\000"
 6632      4275734D 
 6632      61737465 
 6632      724D6173 
 6632      6B00
 6633              	.LASF205:
 6634 15f1 434D305F 		.ascii	"CM0_VECTOR_TABLE_BASE\000"
 6634      56454354 
 6634      4F525F54 
 6634      41424C45 
 6634      5F424153 
 6635              	.LASF421:
 6636 1607 656E6470 		.ascii	"endpointClientsCount\000"
 6636      6F696E74 
 6636      436C6965 
 6636      6E747343 
 6636      6F756E74 
 6637              	.LASF203:
 6638 161c 44444654 		.ascii	"DDFT_CTL\000"
 6638      5F43544C 
 6638      00
 6639              	.LASF74:
 6640 1625 4449455F 		.ascii	"DIE_YEAR\000"
 6640      59454152 
 6640      00
 6641              	.LASF258:
 6642 162e 4D435744 		.ascii	"MCWDT_STRUCT\000"
 6642      545F5354 
 6642      52554354 
 6642      00
 6643              	.LASF480:
 6644 163b 73797374 		.ascii	"system_psoc6_cm0plus.c\000"
 6644      656D5F70 
 6644      736F6336 
 6644      5F636D30 
 6644      706C7573 
 6645              	.LASF394:
 6646 1652 63686172 		.ascii	"char_t\000"
ARM GAS  C:\Users\Rolf\AppData\Local\Temp\ccafVfle.s 			page 173


 6646      5F7400
 6647              	.LASF420:
 6648 1659 65703143 		.ascii	"ep1ConfigData\000"
 6648      6F6E6669 
 6648      67446174 
 6648      6100
 6649              	.LASF243:
 6650 1667 4D435744 		.ascii	"MCWDT_INTR_SET\000"
 6650      545F494E 
 6650      54525F53 
 6650      455400
 6651              	.LASF193:
 6652 1676 52414D31 		.ascii	"RAM1_CTL0\000"
 6652      5F43544C 
 6652      3000
 6653              	.LASF469:
 6654 1680 43795F49 		.ascii	"Cy_IPC_Pipe_ExecuteCallback\000"
 6654      50435F50 
 6654      6970655F 
 6654      45786563 
 6654      75746543 
 6655              	.LASF175:
 6656 169c 434D305F 		.ascii	"CM0_CTL\000"
 6656      43544C00 
 6657              	.LASF227:
 6658 16a4 4C4F434B 		.ascii	"LOCK_STATUS\000"
 6658      5F535441 
 6658      54555300 
 6659              	.LASF380:
 6660 16b0 63707573 		.ascii	"cpussCm4PwrCtlOffset\000"
 6660      73436D34 
 6660      50777243 
 6660      746C4F66 
 6660      66736574 
 6661              	.LASF2:
 6662 16c5 5F5F7569 		.ascii	"__uint8_t\000"
 6662      6E74385F 
 6662      7400
 6663              	.LASF60:
 6664 16cf 53494C49 		.ascii	"SILICON_ID\000"
 6664      434F4E5F 
 6664      494400
 6665              	.LASF280:
 6666 16da 53525353 		.ascii	"SRSS_INTR\000"
 6666      5F494E54 
 6666      5200
 6667              	.LASF139:
 6668 16e4 52544F43 		.ascii	"RTOC1_GENERAL_TRIM_ADDR_UNUSED\000"
 6668      315F4745 
 6668      4E455241 
 6668      4C5F5452 
 6668      494D5F41 
 6669              	.LASF168:
 6670 1703 52544F43 		.ascii	"RTOC2_SHASH_OBJECTS\000"
 6670      325F5348 
 6670      4153485F 
 6670      4F424A45 
ARM GAS  C:\Users\Rolf\AppData\Local\Temp\ccafVfle.s 			page 174


 6670      43545300 
 6671              	.LASF90:
 6672 1717 4D415354 		.ascii	"MASTER_KEY\000"
 6672      45525F4B 
 6672      455900
 6673              	.LASF353:
 6674 1722 64774368 		.ascii	"dwChOffset\000"
 6674      4F666673 
 6674      657400
 6675              	.LASF399:
 6676 172d 63795F69 		.ascii	"cy_ipc_pipe_relcallback_ptr_t\000"
 6676      70635F70 
 6676      6970655F 
 6676      72656C63 
 6676      616C6C62 
 6677              	.LASF324:
 6678 174b 70726F74 		.ascii	"protVersion\000"
 6678      56657273 
 6678      696F6E00 
 6679              	.LASF377:
 6680 1757 63707573 		.ascii	"cpussCm4ClockCtlOffset\000"
 6680      73436D34 
 6680      436C6F63 
 6680      6B43746C 
 6680      4F666673 
 6681              	.LASF232:
 6682 176e 494E5452 		.ascii	"INTR_MASKED\000"
 6682      5F4D4153 
 6682      4B454400 
 6683              	.LASF393:
 6684 177a 63795F69 		.ascii	"cy_israddress\000"
 6684      73726164 
 6684      64726573 
 6684      7300
 6685              	.LASF148:
 6686 1788 544F4332 		.ascii	"TOC2_KEY_BLOCK_ADDR\000"
 6686      5F4B4559 
 6686      5F424C4F 
 6686      434B5F41 
 6686      44445200 
 6687              	.LASF185:
 6688 179c 434D305F 		.ascii	"CM0_INT_CTL7\000"
 6688      494E545F 
 6688      43544C37 
 6688      00
 6689              	.LASF429:
 6690 17a9 736C6F77 		.ascii	"slowClkDiv\000"
 6690      436C6B44 
 6690      697600
 6691              	.LASF22:
 6692 17b4 53797354 		.ascii	"SysTick_IRQn\000"
 6692      69636B5F 
 6692      4952516E 
 6692      00
 6693              	.LASF29:
 6694 17c1 4E766963 		.ascii	"NvicMux6_IRQn\000"
 6694      4D757836 
ARM GAS  C:\Users\Rolf\AppData\Local\Temp\ccafVfle.s 			page 175


 6694      5F495251 
 6694      6E00
 6695              	.LASF124:
 6696 17cf 424F4F54 		.ascii	"BOOT_PROT_SETTINGS\000"
 6696      5F50524F 
 6696      545F5345 
 6696      5454494E 
 6696      475300
 6697              	.LASF66:
 6698 17e2 4449455F 		.ascii	"DIE_LOT\000"
 6698      4C4F5400 
 6699              	.LASF285:
 6700 17ea 5245535F 		.ascii	"RES_CAUSE\000"
 6700      43415553 
 6700      4500
 6701              	.LASF159:
 6702 17f4 544F4332 		.ascii	"TOC2_CRC_ADDR\000"
 6702      5F435243 
 6702      5F414444 
 6702      5200
 6703              	.LASF9:
 6704 1802 6C6F6E67 		.ascii	"long unsigned int\000"
 6704      20756E73 
 6704      69676E65 
 6704      6420696E 
 6704      7400
 6705              	.LASF53:
 6706 1814 4E766963 		.ascii	"NvicMux30_IRQn\000"
 6706      4D757833 
 6706      305F4952 
 6706      516E00
 6707              	.LASF386:
 6708 1823 63707573 		.ascii	"cpussRomCtl\000"
 6708      73526F6D 
 6708      43746C00 
 6709              	.LASF442:
 6710 182f 706C6C4F 		.ascii	"pllOutputAuto\000"
 6710      75747075 
 6710      74417574 
 6710      6F00
 6711              	.LASF122:
 6712 183d 464C4153 		.ascii	"FLASH_BOOT_CODE\000"
 6712      485F424F 
 6712      4F545F43 
 6712      4F444500 
 6713              	.LASF179:
 6714 184d 434D305F 		.ascii	"CM0_INT_CTL1\000"
 6714      494E545F 
 6714      43544C31 
 6714      00
 6715              	.LASF180:
 6716 185a 434D305F 		.ascii	"CM0_INT_CTL2\000"
 6716      494E545F 
 6716      43544C32 
 6716      00
 6717              	.LASF181:
 6718 1867 434D305F 		.ascii	"CM0_INT_CTL3\000"
ARM GAS  C:\Users\Rolf\AppData\Local\Temp\ccafVfle.s 			page 176


 6718      494E545F 
 6718      43544C33 
 6718      00
 6719              	.LASF182:
 6720 1874 434D305F 		.ascii	"CM0_INT_CTL4\000"
 6720      494E545F 
 6720      43544C34 
 6720      00
 6721              	.LASF436:
 6722 1881 666C6C4F 		.ascii	"fllOutputAuto\000"
 6722      75747075 
 6722      74417574 
 6722      6F00
 6723              	.LASF183:
 6724 188f 434D305F 		.ascii	"CM0_INT_CTL5\000"
 6724      494E545F 
 6724      43544C35 
 6724      00
 6725              	.LASF184:
 6726 189c 434D305F 		.ascii	"CM0_INT_CTL6\000"
 6726      494E545F 
 6726      43544C36 
 6726      00
 6727              	.LASF410:
 6728 18a9 72656C65 		.ascii	"releaseCallbackPtr\000"
 6728      61736543 
 6728      616C6C62 
 6728      61636B50 
 6728      747200
 6729              	.LASF402:
 6730 18bc 696E7472 		.ascii	"intrChan\000"
 6730      4368616E 
 6730      00
 6731              	.LASF265:
 6732 18c5 434C4B5F 		.ascii	"CLK_IMO_CONFIG\000"
 6732      494D4F5F 
 6732      434F4E46 
 6732      494700
 6733              	.LASF228:
 6734 18d4 4950435F 		.ascii	"IPC_STRUCT_V1_Type\000"
 6734      53545255 
 6734      43545F56 
 6734      315F5479 
 6734      706500
 6735              	.LASF411:
 6736 18e7 64656661 		.ascii	"defaultReleaseCallbackPtr\000"
 6736      756C7452 
 6736      656C6561 
 6736      73654361 
 6736      6C6C6261 
 6737              	.LASF126:
 6738 1901 544F4331 		.ascii	"TOC1_OBJECT_SIZE\000"
 6738      5F4F424A 
 6738      4543545F 
 6738      53495A45 
 6738      00
 6739              	.LASF15:
ARM GAS  C:\Users\Rolf\AppData\Local\Temp\ccafVfle.s 			page 177


 6740 1912 75696E74 		.ascii	"uint16_t\000"
 6740      31365F74 
 6740      00
 6741              	.LASF255:
 6742 191b 5744545F 		.ascii	"WDT_CTL\000"
 6742      43544C00 
 6743              	.LASF1:
 6744 1923 756E7369 		.ascii	"unsigned char\000"
 6744      676E6564 
 6744      20636861 
 6744      7200
 6745              	.LASF470:
 6746 1931 43795F50 		.ascii	"Cy_PDL_Init\000"
 6746      444C5F49 
 6746      6E697400 
 6747              	.LASF35:
 6748 193d 4E766963 		.ascii	"NvicMux12_IRQn\000"
 6748      4D757831 
 6748      325F4952 
 6748      516E00
 6749              	.LASF431:
 6750 194c 726F6F74 		.ascii	"rootPath\000"
 6750      50617468 
 6750      00
 6751              	.LASF216:
 6752 1955 41505F43 		.ascii	"AP_CTL\000"
 6752      544C00
 6753              	.LASF76:
 6754 195c 5341525F 		.ascii	"SAR_TEMP_MULTIPLIER\000"
 6754      54454D50 
 6754      5F4D554C 
 6754      5449504C 
 6754      49455200 
 6755              	.LASF85:
 6756 1970 55534552 		.ascii	"USER_FREE_ROW1\000"
 6756      5F465245 
 6756      455F524F 
 6756      573100
 6757              	.LASF423:
 6758 197f 75736572 		.ascii	"userPipeIsrHandler\000"
 6758      50697065 
 6758      49737248 
 6758      616E646C 
 6758      657200
 6759              	.LASF87:
 6760 1992 55534552 		.ascii	"USER_FREE_ROW3\000"
 6760      5F465245 
 6760      455F524F 
 6760      573300
 6761              	.LASF20:
 6762 19a1 53564361 		.ascii	"SVCall_IRQn\000"
 6762      6C6C5F49 
 6762      52516E00 
 6763              	.LASF49:
 6764 19ad 4E766963 		.ascii	"NvicMux26_IRQn\000"
 6764      4D757832 
 6764      365F4952 
ARM GAS  C:\Users\Rolf\AppData\Local\Temp\ccafVfle.s 			page 178


 6764      516E00
 6765              	.LASF435:
 6766 19bc 666C6C4F 		.ascii	"fllOutputOutput\000"
 6766      75747075 
 6766      744F7574 
 6766      70757400 
 6767              	.LASF456:
 6768 19cc 43795F53 		.ascii	"Cy_SysResetCM4\000"
 6768      79735265 
 6768      73657443 
 6768      4D3400
 6769              	.LASF178:
 6770 19db 434D305F 		.ascii	"CM0_INT_CTL0\000"
 6770      494E545F 
 6770      43544C30 
 6770      00
 6771              	.LASF98:
 6772 19e8 52455345 		.ascii	"RESERVED10\000"
 6772      52564544 
 6772      313000
 6773              	.LASF103:
 6774 19f3 52455345 		.ascii	"RESERVED11\000"
 6774      52564544 
 6774      313100
 6775              	.LASF109:
 6776 19fe 52455345 		.ascii	"RESERVED12\000"
 6776      52564544 
 6776      313200
 6777              	.LASF114:
 6778 1a09 52455345 		.ascii	"RESERVED13\000"
 6778      52564544 
 6778      313300
 6779              	.LASF121:
 6780 1a14 52455345 		.ascii	"RESERVED14\000"
 6780      52564544 
 6780      313400
 6781              	.LASF125:
 6782 1a1f 52455345 		.ascii	"RESERVED15\000"
 6782      52564544 
 6782      313500
 6783              	.LASF134:
 6784 1a2a 52455345 		.ascii	"RESERVED16\000"
 6784      52564544 
 6784      313600
 6785              	.LASF144:
 6786 1a35 52455345 		.ascii	"RESERVED17\000"
 6786      52564544 
 6786      313700
 6787              	.LASF156:
 6788 1a40 52455345 		.ascii	"RESERVED18\000"
 6788      52564544 
 6788      313800
 6789              	.LASF170:
 6790 1a4b 52455345 		.ascii	"RESERVED19\000"
 6790      52564544 
 6790      313900
 6791              	.LASF400:
ARM GAS  C:\Users\Rolf\AppData\Local\Temp\ccafVfle.s 			page 179


 6792 1a56 63795F69 		.ascii	"cy_ipc_pipe_callback_array_ptr_t\000"
 6792      70635F70 
 6792      6970655F 
 6792      63616C6C 
 6792      6261636B 
 6793              	.LASF299:
 6794 1a77 53464C41 		.ascii	"SFLASH_Type\000"
 6794      53485F54 
 6794      79706500 
 6795              	.LASF372:
 6796 1a83 6770696F 		.ascii	"gpioPrtCfgOffset\000"
 6796      50727443 
 6796      66674F66 
 6796      66736574 
 6796      00
 6797              	.LASF458:
 6798 1a94 63707553 		.ascii	"cpuState\000"
 6798      74617465 
 6798      00
 6799              	.LASF38:
 6800 1a9d 4E766963 		.ascii	"NvicMux15_IRQn\000"
 6800      4D757831 
 6800      355F4952 
 6800      516E00
 6801              	.LASF472:
 6802 1aac 43795F49 		.ascii	"Cy_IPC_Sema_Init\000"
 6802      50435F53 
 6802      656D615F 
 6802      496E6974 
 6802      00
 6803              	.LASF241:
 6804 1abd 4D435744 		.ascii	"MCWDT_CTL\000"
 6804      545F4354 
 6804      4C00
 6805              	.LASF444:
 6806 1ac7 72656665 		.ascii	"referenceDiv\000"
 6806      72656E63 
 6806      65446976 
 6806      00
 6807              	.LASF240:
 6808 1ad4 4D435744 		.ascii	"MCWDT_CONFIG\000"
 6808      545F434F 
 6808      4E464947 
 6808      00
 6809              	.LASF486:
 6810 1ae1 76656374 		.ascii	"vectorTableOffset\000"
 6810      6F725461 
 6810      626C654F 
 6810      66667365 
 6810      7400
 6811              	.LASF17:
 6812 1af3 52657365 		.ascii	"Reset_IRQn\000"
 6812      745F4952 
 6812      516E00
 6813              	.LASF343:
 6814 1afe 666C6173 		.ascii	"flashRwwRequired\000"
 6814      68527777 
ARM GAS  C:\Users\Rolf\AppData\Local\Temp\ccafVfle.s 			page 180


 6814      52657175 
 6814      69726564 
 6814      00
 6815              	.LASF293:
 6816 1b0f 5057525F 		.ascii	"PWR_TRIM_PWRSYS_CTL\000"
 6816      5452494D 
 6816      5F505752 
 6816      5359535F 
 6816      43544C00 
 6817              	.LASF202:
 6818 1b23 42554646 		.ascii	"BUFF_CTL\000"
 6818      5F43544C 
 6818      00
 6819              	.LASF162:
 6820 1b2c 52544F43 		.ascii	"RTOC2_KEY_BLOCK_ADDR\000"
 6820      325F4B45 
 6820      595F424C 
 6820      4F434B5F 
 6820      41444452 
 6821              	.LASF338:
 6822 1b41 65704D6F 		.ascii	"epMonitorNr\000"
 6822      6E69746F 
 6822      724E7200 
 6823              	.LASF453:
 6824 1b4d 43795F53 		.ascii	"Cy_SysDisableCM4\000"
 6824      79734469 
 6824      7361626C 
 6824      65434D34 
 6824      00
 6825              	.LASF165:
 6826 1b5e 52544F43 		.ascii	"RTOC2_FIRST_USER_APP_FORMAT\000"
 6826      325F4649 
 6826      5253545F 
 6826      55534552 
 6826      5F415050 
 6827              	.LASF0:
 6828 1b7a 7369676E 		.ascii	"signed char\000"
 6828      65642063 
 6828      68617200 
 6829              	.LASF290:
 6830 1b86 434C4B5F 		.ascii	"CLK_TRIM_CCO_CTL2\000"
 6830      5452494D 
 6830      5F43434F 
 6830      5F43544C 
 6830      3200
 6831              	.LASF326:
 6832 1b98 63707573 		.ascii	"cpussIpcIrqNr\000"
 6832      73497063 
 6832      4972714E 
 6832      7200
 6833              	.LASF451:
 6834 1ba6 73797374 		.ascii	"systemIpcPipeConfigCm0\000"
 6834      656D4970 
 6834      63506970 
 6834      65436F6E 
 6834      66696743 
 6835              	.LASF40:
ARM GAS  C:\Users\Rolf\AppData\Local\Temp\ccafVfle.s 			page 181


 6836 1bbd 4E766963 		.ascii	"NvicMux17_IRQn\000"
 6836      4D757831 
 6836      375F4952 
 6836      516E00
 6837              	.LASF207:
 6838 1bcc 52455345 		.ascii	"RESERVED20\000"
 6838      52564544 
 6838      323000
 6839              	.LASF209:
 6840 1bd7 52455345 		.ascii	"RESERVED21\000"
 6840      52564544 
 6840      323100
 6841              	.LASF211:
 6842 1be2 52455345 		.ascii	"RESERVED22\000"
 6842      52564544 
 6842      323200
 6843              	.LASF213:
 6844 1bed 52455345 		.ascii	"RESERVED23\000"
 6844      52564544 
 6844      323300
 6845              	.LASF215:
 6846 1bf8 52455345 		.ascii	"RESERVED24\000"
 6846      52564544 
 6846      323400
 6847              	.LASF217:
 6848 1c03 52455345 		.ascii	"RESERVED25\000"
 6848      52564544 
 6848      323500
 6849              	.LASF219:
 6850 1c0e 52455345 		.ascii	"RESERVED26\000"
 6850      52564544 
 6850      323600
 6851              	.LASF19:
 6852 1c19 48617264 		.ascii	"HardFault_IRQn\000"
 6852      4661756C 
 6852      745F4952 
 6852      516E00
 6853              	.LASF443:
 6854 1c28 66656564 		.ascii	"feedbackDiv\000"
 6854      6261636B 
 6854      44697600 
 6855              	.LASF137:
 6856 1c34 52544F43 		.ascii	"RTOC1_MAGIC_NUMBER\000"
 6856      315F4D41 
 6856      4749435F 
 6856      4E554D42 
 6856      455200
 6857              	.LASF323:
 6858 1c47 70657269 		.ascii	"periVersion\000"
 6858      56657273 
 6858      696F6E00 
 6859              	.LASF448:
 6860 1c53 69706353 		.ascii	"ipcSemaArray\000"
 6860      656D6141 
 6860      72726179 
 6860      00
 6861              	.LASF397:
ARM GAS  C:\Users\Rolf\AppData\Local\Temp\ccafVfle.s 			page 182


 6862 1c60 646F7562 		.ascii	"double\000"
 6862      6C6500
 6863              	.LASF313:
 6864 1c67 70617373 		.ascii	"passBase\000"
 6864      42617365 
 6864      00
 6865              	.LASF439:
 6866 1c70 6F757470 		.ascii	"outputDiv\000"
 6866      75744469 
 6866      7600
 6867              	.LASF239:
 6868 1c7a 4D435744 		.ascii	"MCWDT_MATCH\000"
 6868      545F4D41 
 6868      54434800 
 6869              	.LASF332:
 6870 1c86 73727373 		.ascii	"srssNumClkpath\000"
 6870      4E756D43 
 6870      6C6B7061 
 6870      746800
 6871              	.LASF31:
 6872 1c95 4E766963 		.ascii	"NvicMux8_IRQn\000"
 6872      4D757838 
 6872      5F495251 
 6872      6E00
 6873              	.LASF473:
 6874 1ca3 43795F49 		.ascii	"Cy_IPC_Pipe_Config\000"
 6874      50435F50 
 6874      6970655F 
 6874      436F6E66 
 6874      696700
 6875              	.LASF352:
 6876 1cb6 666C6173 		.ascii	"flashCtlMainWs4Freq\000"
 6876      6843746C 
 6876      4D61696E 
 6876      57733446 
 6876      72657100 
 6877              	.LASF82:
 6878 1cca 4C444F5F 		.ascii	"LDO_1P1V_TRIM\000"
 6878      31503156 
 6878      5F545249 
 6878      4D00
 6879              	.LASF88:
 6880 1cd8 52455345 		.ascii	"RESERVED8\000"
 6880      52564544 
 6880      3800
 6881              	.LASF140:
 6882 1ce2 52544F43 		.ascii	"RTOC1_UNIQUE_ID_ADDR\000"
 6882      315F554E 
 6882      49515545 
 6882      5F49445F 
 6882      41444452 
 6883              	.LASF259:
 6884 1cf7 434C4B5F 		.ascii	"CLK_DSI_SELECT\000"
 6884      4453495F 
 6884      53454C45 
 6884      435400
 6885              	.LASF129:
ARM GAS  C:\Users\Rolf\AppData\Local\Temp\ccafVfle.s 			page 183


 6886 1d06 544F4331 		.ascii	"TOC1_GENERAL_TRIM_ADDR_UNUSED\000"
 6886      5F47454E 
 6886      4552414C 
 6886      5F545249 
 6886      4D5F4144 
 6887              	.LASF26:
 6888 1d24 4E766963 		.ascii	"NvicMux3_IRQn\000"
 6888      4D757833 
 6888      5F495251 
 6888      6E00
 6889              	.LASF446:
 6890 1d32 53797374 		.ascii	"SystemInit\000"
 6890      656D496E 
 6890      697400
 6891              	.LASF218:
 6892 1d3d 4D424953 		.ascii	"MBIST_STAT\000"
 6892      545F5354 
 6892      415400
 6893              	.LASF379:
 6894 1d48 63707573 		.ascii	"cpussCm0StatusOffset\000"
 6894      73436D30 
 6894      53746174 
 6894      75734F66 
 6894      66736574 
 6895              	.LASF234:
 6896 1d5d 53545255 		.ascii	"STRUCT\000"
 6896      435400
 6897              	.LASF426:
 6898 1d64 53797374 		.ascii	"SystemCoreClockUpdate\000"
 6898      656D436F 
 6898      7265436C 
 6898      6F636B55 
 6898      70646174 
 6899              	.LASF42:
 6900 1d7a 4E766963 		.ascii	"NvicMux19_IRQn\000"
 6900      4D757831 
 6900      395F4952 
 6900      516E00
 6901              	.LASF322:
 6902 1d89 69706356 		.ascii	"ipcVersion\000"
 6902      65727369 
 6902      6F6E00
 6903              	.LASF172:
 6904 1d94 52544F43 		.ascii	"RTOC2_FLAGS\000"
 6904      325F464C 
 6904      41475300 
 6905              	.LASF204:
 6906 1da0 53595354 		.ascii	"SYSTICK_CTL\000"
 6906      49434B5F 
 6906      43544C00 
 6907              	.LASF359:
 6908 1dac 70657269 		.ascii	"periTrCmdOffset\000"
 6908      5472436D 
 6908      644F6666 
 6908      73657400 
 6909              	.LASF123:
 6910 1dbc 5055424C 		.ascii	"PUBLIC_KEY\000"
ARM GAS  C:\Users\Rolf\AppData\Local\Temp\ccafVfle.s 			page 184


 6910      49435F4B 
 6910      455900
 6911              	.LASF145:
 6912 1dc7 52544F43 		.ascii	"RTOC1_CRC_ADDR\000"
 6912      315F4352 
 6912      435F4144 
 6912      445200
 6913              	.LASF166:
 6914 1dd6 52544F43 		.ascii	"RTOC2_SECOND_USER_APP_ADDR\000"
 6914      325F5345 
 6914      434F4E44 
 6914      5F555345 
 6914      525F4150 
 6915              		.ident	"GCC: (GNU Tools for ARM Embedded Processors) 5.4.1 20160609 (release) [ARM/embedded-5-bran
