ARM GAS  C:\Users\Rolf\AppData\Local\Temp\ccafVfle.s 			page 1


   1              		.syntax unified
   2              		.cpu cortex-m0plus
   3              		.fpu softvfp
   4              		.eabi_attribute 20, 1
   5              		.eabi_attribute 21, 1
   6              		.eabi_attribute 23, 3
   7              		.eabi_attribute 24, 1
   8              		.eabi_attribute 25, 1
   9              		.eabi_attribute 26, 1
  10              		.eabi_attribute 30, 1
  11              		.eabi_attribute 34, 0
  12              		.eabi_attribute 18, 4
  13              		.thumb
  14              		.syntax unified
  15              		.file	"system_psoc6_cm0plus.c"
  16              		.text
  17              	.Ltext0:
  18              		.cfi_sections	.debug_frame
  19              		.section	.text.Cy_SysIpcPipeIsrCm0,"ax",%progbits
  20              		.align	2
  21              		.global	Cy_SysIpcPipeIsrCm0
  22              		.code	16
  23              		.thumb_func
  24              		.type	Cy_SysIpcPipeIsrCm0, %function
  25              	Cy_SysIpcPipeIsrCm0:
  26              	.LFB81:
  27              		.file 1 "system_psoc6_cm0plus.c"
   1:system_psoc6_cm0plus.c **** /***************************************************************************//**
   2:system_psoc6_cm0plus.c **** * \file system_psoc6_cm0plus.c
   3:system_psoc6_cm0plus.c **** * \version 2.20.1
   4:system_psoc6_cm0plus.c **** *
   5:system_psoc6_cm0plus.c **** * The device system-source file.
   6:system_psoc6_cm0plus.c **** *
   7:system_psoc6_cm0plus.c **** ********************************************************************************
   8:system_psoc6_cm0plus.c **** * \copyright
   9:system_psoc6_cm0plus.c **** * Copyright 2016-2020, Cypress Semiconductor Corporation.  All rights reserved.
  10:system_psoc6_cm0plus.c **** * You may use this file only in accordance with the license, terms, conditions,
  11:system_psoc6_cm0plus.c **** * disclaimers, and limitations in the end user license agreement accompanying
  12:system_psoc6_cm0plus.c **** * the software package with which this file was provided.
  13:system_psoc6_cm0plus.c **** *******************************************************************************/
  14:system_psoc6_cm0plus.c **** 
  15:system_psoc6_cm0plus.c **** #include <stdbool.h>
  16:system_psoc6_cm0plus.c **** #include "system_psoc6.h"
  17:system_psoc6_cm0plus.c **** #include "cy_device.h"
  18:system_psoc6_cm0plus.c **** #include "cy_device_headers.h"
  19:system_psoc6_cm0plus.c **** #include "cy_syslib.h"
  20:system_psoc6_cm0plus.c **** #include "cy_wdt.h"
  21:system_psoc6_cm0plus.c **** 
  22:system_psoc6_cm0plus.c **** #if !defined(CY_IPC_DEFAULT_CFG_DISABLE)
  23:system_psoc6_cm0plus.c ****     #include "cy_ipc_sema.h"
  24:system_psoc6_cm0plus.c ****     #include "cy_ipc_pipe.h"
  25:system_psoc6_cm0plus.c ****     #include "cy_ipc_drv.h"
  26:system_psoc6_cm0plus.c **** 
  27:system_psoc6_cm0plus.c ****     #if defined(CY_DEVICE_PSOC6ABLE2)
  28:system_psoc6_cm0plus.c ****         #include "cy_flash.h"
  29:system_psoc6_cm0plus.c ****     #endif /* defined(CY_DEVICE_PSOC6ABLE2) */
  30:system_psoc6_cm0plus.c **** 
ARM GAS  C:\Users\Rolf\AppData\Local\Temp\ccafVfle.s 			page 2


  31:system_psoc6_cm0plus.c **** #endif /* !defined(CY_IPC_DEFAULT_CFG_DISABLE) */
  32:system_psoc6_cm0plus.c **** 
  33:system_psoc6_cm0plus.c **** 
  34:system_psoc6_cm0plus.c **** /*******************************************************************************
  35:system_psoc6_cm0plus.c **** * SystemCoreClockUpdate()
  36:system_psoc6_cm0plus.c **** *******************************************************************************/
  37:system_psoc6_cm0plus.c **** 
  38:system_psoc6_cm0plus.c **** /** Default HFClk frequency in Hz */
  39:system_psoc6_cm0plus.c **** #define CY_CLK_HFCLK0_FREQ_HZ_DEFAULT       (8000000UL)
  40:system_psoc6_cm0plus.c **** 
  41:system_psoc6_cm0plus.c **** /** Default PeriClk frequency in Hz */
  42:system_psoc6_cm0plus.c **** #define CY_CLK_PERICLK_FREQ_HZ_DEFAULT      (4000000UL)
  43:system_psoc6_cm0plus.c **** 
  44:system_psoc6_cm0plus.c **** /** Default SlowClk system core frequency in Hz */
  45:system_psoc6_cm0plus.c **** #define CY_CLK_SYSTEM_FREQ_HZ_DEFAULT       (4000000UL)
  46:system_psoc6_cm0plus.c **** 
  47:system_psoc6_cm0plus.c **** /** IMO frequency in Hz */
  48:system_psoc6_cm0plus.c **** #define CY_CLK_IMO_FREQ_HZ                  (8000000UL)
  49:system_psoc6_cm0plus.c **** 
  50:system_psoc6_cm0plus.c **** /** HVILO frequency in Hz */
  51:system_psoc6_cm0plus.c **** #define CY_CLK_HVILO_FREQ_HZ                (32000UL)
  52:system_psoc6_cm0plus.c **** 
  53:system_psoc6_cm0plus.c **** /** PILO frequency in Hz */
  54:system_psoc6_cm0plus.c **** #define CY_CLK_PILO_FREQ_HZ                 (32768UL)
  55:system_psoc6_cm0plus.c **** 
  56:system_psoc6_cm0plus.c **** /** WCO frequency in Hz */
  57:system_psoc6_cm0plus.c **** #define CY_CLK_WCO_FREQ_HZ                  (32768UL)
  58:system_psoc6_cm0plus.c **** 
  59:system_psoc6_cm0plus.c **** /** ALTLF frequency in Hz */
  60:system_psoc6_cm0plus.c **** #define CY_CLK_ALTLF_FREQ_HZ                (32768UL)
  61:system_psoc6_cm0plus.c **** 
  62:system_psoc6_cm0plus.c **** 
  63:system_psoc6_cm0plus.c **** /**
  64:system_psoc6_cm0plus.c **** * Holds the SlowClk (Cortex-M0+) or FastClk (Cortex-M4) system core clock,
  65:system_psoc6_cm0plus.c **** * which is the system clock frequency supplied to the SysTick timer and the
  66:system_psoc6_cm0plus.c **** * processor core clock.
  67:system_psoc6_cm0plus.c **** * This variable implements CMSIS Core global variable.
  68:system_psoc6_cm0plus.c **** * Refer to the [CMSIS documentation]
  69:system_psoc6_cm0plus.c **** * (http://www.keil.com/pack/doc/CMSIS/Core/html/group__system__init__gr.html "System and Clock Conf
  70:system_psoc6_cm0plus.c **** * for more details.
  71:system_psoc6_cm0plus.c **** * This variable can be used by debuggers to query the frequency
  72:system_psoc6_cm0plus.c **** * of the debug timer or to configure the trace clock speed.
  73:system_psoc6_cm0plus.c **** *
  74:system_psoc6_cm0plus.c **** * \attention Compilers must be configured to avoid removing this variable in case
  75:system_psoc6_cm0plus.c **** * the application program is not using it. Debugging systems require the variable
  76:system_psoc6_cm0plus.c **** * to be physically present in memory so that it can be examined to configure the debugger. */
  77:system_psoc6_cm0plus.c **** uint32_t SystemCoreClock = CY_CLK_SYSTEM_FREQ_HZ_DEFAULT;
  78:system_psoc6_cm0plus.c **** 
  79:system_psoc6_cm0plus.c **** /** Holds the HFClk0 clock frequency. Updated by \ref SystemCoreClockUpdate(). */
  80:system_psoc6_cm0plus.c **** uint32_t cy_Hfclk0FreqHz  = CY_CLK_HFCLK0_FREQ_HZ_DEFAULT;
  81:system_psoc6_cm0plus.c **** 
  82:system_psoc6_cm0plus.c **** /** Holds the PeriClk clock frequency. Updated by \ref SystemCoreClockUpdate(). */
  83:system_psoc6_cm0plus.c **** uint32_t cy_PeriClkFreqHz = CY_CLK_PERICLK_FREQ_HZ_DEFAULT;
  84:system_psoc6_cm0plus.c **** 
  85:system_psoc6_cm0plus.c **** /** Holds the Alternate high frequency clock in Hz. Updated by \ref SystemCoreClockUpdate(). */
  86:system_psoc6_cm0plus.c **** #if (defined (CY_IP_MXBLESS) && (CY_IP_MXBLESS == 1UL)) || defined (CY_DOXYGEN)
  87:system_psoc6_cm0plus.c ****     uint32_t cy_BleEcoClockFreqHz = CY_CLK_ALTHF_FREQ_HZ;
ARM GAS  C:\Users\Rolf\AppData\Local\Temp\ccafVfle.s 			page 3


  88:system_psoc6_cm0plus.c **** #endif /* (defined (CY_IP_MXBLESS) && (CY_IP_MXBLESS == 1UL)) || defined (CY_DOXYGEN) */
  89:system_psoc6_cm0plus.c **** 
  90:system_psoc6_cm0plus.c **** 
  91:system_psoc6_cm0plus.c **** /*******************************************************************************
  92:system_psoc6_cm0plus.c **** * SystemInit()
  93:system_psoc6_cm0plus.c **** *******************************************************************************/
  94:system_psoc6_cm0plus.c **** 
  95:system_psoc6_cm0plus.c **** /* CLK_FLL_CONFIG default values */
  96:system_psoc6_cm0plus.c **** #define CY_FB_CLK_FLL_CONFIG_VALUE      (0x01000000u)
  97:system_psoc6_cm0plus.c **** #define CY_FB_CLK_FLL_CONFIG2_VALUE     (0x00020001u)
  98:system_psoc6_cm0plus.c **** #define CY_FB_CLK_FLL_CONFIG3_VALUE     (0x00002800u)
  99:system_psoc6_cm0plus.c **** #define CY_FB_CLK_FLL_CONFIG4_VALUE     (0x000000FFu)
 100:system_psoc6_cm0plus.c **** 
 101:system_psoc6_cm0plus.c **** 
 102:system_psoc6_cm0plus.c **** /*******************************************************************************
 103:system_psoc6_cm0plus.c **** * SystemCoreClockUpdate (void)
 104:system_psoc6_cm0plus.c **** *******************************************************************************/
 105:system_psoc6_cm0plus.c **** 
 106:system_psoc6_cm0plus.c **** /* Do not use these definitions directly in your application */
 107:system_psoc6_cm0plus.c **** #define CY_DELAY_MS_OVERFLOW_THRESHOLD  (0x8000u)
 108:system_psoc6_cm0plus.c **** #define CY_DELAY_1K_THRESHOLD           (1000u)
 109:system_psoc6_cm0plus.c **** #define CY_DELAY_1K_MINUS_1_THRESHOLD   (CY_DELAY_1K_THRESHOLD - 1u)
 110:system_psoc6_cm0plus.c **** #define CY_DELAY_1M_THRESHOLD           (1000000u)
 111:system_psoc6_cm0plus.c **** #define CY_DELAY_1M_MINUS_1_THRESHOLD   (CY_DELAY_1M_THRESHOLD - 1u)
 112:system_psoc6_cm0plus.c **** uint32_t cy_delayFreqHz   = CY_CLK_SYSTEM_FREQ_HZ_DEFAULT;
 113:system_psoc6_cm0plus.c **** 
 114:system_psoc6_cm0plus.c **** uint32_t cy_delayFreqKhz  = (CY_CLK_SYSTEM_FREQ_HZ_DEFAULT + CY_DELAY_1K_MINUS_1_THRESHOLD) /
 115:system_psoc6_cm0plus.c ****                             CY_DELAY_1K_THRESHOLD;
 116:system_psoc6_cm0plus.c **** 
 117:system_psoc6_cm0plus.c **** uint8_t cy_delayFreqMhz  = (uint8_t)((CY_CLK_SYSTEM_FREQ_HZ_DEFAULT + CY_DELAY_1M_MINUS_1_THRESHOLD
 118:system_psoc6_cm0plus.c ****                             CY_DELAY_1M_THRESHOLD);
 119:system_psoc6_cm0plus.c **** 
 120:system_psoc6_cm0plus.c **** uint32_t cy_delay32kMs    = CY_DELAY_MS_OVERFLOW_THRESHOLD *
 121:system_psoc6_cm0plus.c ****                             ((CY_CLK_SYSTEM_FREQ_HZ_DEFAULT + CY_DELAY_1K_MINUS_1_THRESHOLD) / CY_D
 122:system_psoc6_cm0plus.c **** 
 123:system_psoc6_cm0plus.c **** #define CY_ROOT_PATH_SRC_IMO                (0UL)
 124:system_psoc6_cm0plus.c **** #define CY_ROOT_PATH_SRC_EXT                (1UL)
 125:system_psoc6_cm0plus.c **** #if (SRSS_ECO_PRESENT == 1U)
 126:system_psoc6_cm0plus.c ****     #define CY_ROOT_PATH_SRC_ECO            (2UL)
 127:system_psoc6_cm0plus.c **** #endif /* (SRSS_ECO_PRESENT == 1U) */
 128:system_psoc6_cm0plus.c **** #if (SRSS_ALTHF_PRESENT == 1U)
 129:system_psoc6_cm0plus.c ****     #define CY_ROOT_PATH_SRC_ALTHF          (3UL)
 130:system_psoc6_cm0plus.c **** #endif /* (SRSS_ALTHF_PRESENT == 1U) */
 131:system_psoc6_cm0plus.c **** #define CY_ROOT_PATH_SRC_DSI_MUX            (4UL)
 132:system_psoc6_cm0plus.c **** #define CY_ROOT_PATH_SRC_DSI_MUX_HVILO      (16UL)
 133:system_psoc6_cm0plus.c **** #define CY_ROOT_PATH_SRC_DSI_MUX_WCO        (17UL)
 134:system_psoc6_cm0plus.c **** #if (SRSS_ALTLF_PRESENT == 1U)
 135:system_psoc6_cm0plus.c ****     #define CY_ROOT_PATH_SRC_DSI_MUX_ALTLF  (18UL)
 136:system_psoc6_cm0plus.c **** #endif /* (SRSS_ALTLF_PRESENT == 1U) */
 137:system_psoc6_cm0plus.c **** #if (SRSS_PILO_PRESENT == 1U)
 138:system_psoc6_cm0plus.c ****     #define CY_ROOT_PATH_SRC_DSI_MUX_PILO   (19UL)
 139:system_psoc6_cm0plus.c **** #endif /* (SRSS_PILO_PRESENT == 1U) */
 140:system_psoc6_cm0plus.c **** 
 141:system_psoc6_cm0plus.c **** 
 142:system_psoc6_cm0plus.c **** /*******************************************************************************
 143:system_psoc6_cm0plus.c **** * Cy_SysEnableCM4(), Cy_SysRetainCM4(), and Cy_SysResetCM4()
 144:system_psoc6_cm0plus.c **** *******************************************************************************/
ARM GAS  C:\Users\Rolf\AppData\Local\Temp\ccafVfle.s 			page 4


 145:system_psoc6_cm0plus.c **** #define CY_SYS_CM4_PWR_CTL_KEY_OPEN  (0x05FAUL)
 146:system_psoc6_cm0plus.c **** #define CY_SYS_CM4_PWR_CTL_KEY_CLOSE (0xFA05UL)
 147:system_psoc6_cm0plus.c **** #define CY_SYS_CM4_VECTOR_TABLE_VALID_ADDR  (0x000003FFUL)
 148:system_psoc6_cm0plus.c **** 
 149:system_psoc6_cm0plus.c **** 
 150:system_psoc6_cm0plus.c **** /*******************************************************************************
 151:system_psoc6_cm0plus.c **** * Function Name: SystemInit
 152:system_psoc6_cm0plus.c **** ****************************************************************************//**
 153:system_psoc6_cm0plus.c **** *
 154:system_psoc6_cm0plus.c **** * Initializes the system:
 155:system_psoc6_cm0plus.c **** * - Restores FLL registers to the default state.
 156:system_psoc6_cm0plus.c **** * - Unlocks and disables WDT.
 157:system_psoc6_cm0plus.c **** * - Calls Cy_PDL_Init() function to define the driver library.
 158:system_psoc6_cm0plus.c **** * - Calls the Cy_SystemInit() function, if compiled from PSoC Creator.
 159:system_psoc6_cm0plus.c **** * - Calls \ref SystemCoreClockUpdate().
 160:system_psoc6_cm0plus.c **** *
 161:system_psoc6_cm0plus.c **** *******************************************************************************/
 162:system_psoc6_cm0plus.c **** void SystemInit(void)
 163:system_psoc6_cm0plus.c **** {
 164:system_psoc6_cm0plus.c ****     Cy_PDL_Init(CY_DEVICE_CFG);
 165:system_psoc6_cm0plus.c **** 
 166:system_psoc6_cm0plus.c ****     /* Restore FLL registers to the default state as they are not restored by the ROM code */
 167:system_psoc6_cm0plus.c ****     uint32_t copy = SRSS->CLK_FLL_CONFIG;
 168:system_psoc6_cm0plus.c ****     copy &= ~SRSS_CLK_FLL_CONFIG_FLL_ENABLE_Msk;
 169:system_psoc6_cm0plus.c ****     SRSS->CLK_FLL_CONFIG = copy;
 170:system_psoc6_cm0plus.c **** 
 171:system_psoc6_cm0plus.c ****     copy = SRSS->CLK_ROOT_SELECT[0u];
 172:system_psoc6_cm0plus.c ****     copy &= ~SRSS_CLK_ROOT_SELECT_ROOT_DIV_Msk; /* Set ROOT_DIV = 0*/
 173:system_psoc6_cm0plus.c ****     SRSS->CLK_ROOT_SELECT[0u] = copy;
 174:system_psoc6_cm0plus.c **** 
 175:system_psoc6_cm0plus.c ****     SRSS->CLK_FLL_CONFIG  = CY_FB_CLK_FLL_CONFIG_VALUE;
 176:system_psoc6_cm0plus.c ****     SRSS->CLK_FLL_CONFIG2 = CY_FB_CLK_FLL_CONFIG2_VALUE;
 177:system_psoc6_cm0plus.c ****     SRSS->CLK_FLL_CONFIG3 = CY_FB_CLK_FLL_CONFIG3_VALUE;
 178:system_psoc6_cm0plus.c ****     SRSS->CLK_FLL_CONFIG4 = CY_FB_CLK_FLL_CONFIG4_VALUE;
 179:system_psoc6_cm0plus.c **** 
 180:system_psoc6_cm0plus.c ****     /* Unlock and disable WDT */
 181:system_psoc6_cm0plus.c ****     Cy_WDT_Unlock();
 182:system_psoc6_cm0plus.c ****     Cy_WDT_Disable();
 183:system_psoc6_cm0plus.c **** 
 184:system_psoc6_cm0plus.c ****     Cy_SystemInit();
 185:system_psoc6_cm0plus.c ****     SystemCoreClockUpdate();
 186:system_psoc6_cm0plus.c **** 
 187:system_psoc6_cm0plus.c **** #if defined(CY_DEVICE_PSOC6ABLE2) && !defined(CY_PSOC6ABLE2_REV_0A_SUPPORT_DISABLE)
 188:system_psoc6_cm0plus.c ****     if (CY_SYSLIB_DEVICE_REV_0A == Cy_SysLib_GetDeviceRevision())
 189:system_psoc6_cm0plus.c ****     {
 190:system_psoc6_cm0plus.c ****         /* Clear data register of IPC structure #7, reserved for the Deep-Sleep operations. */
 191:system_psoc6_cm0plus.c ****         IPC_STRUCT7->DATA = 0UL;
 192:system_psoc6_cm0plus.c ****         /* Release IPC structure #7 to avoid deadlocks in case of SW or WDT reset during Deep-Sleep
 193:system_psoc6_cm0plus.c ****         IPC_STRUCT7->RELEASE = 0UL;
 194:system_psoc6_cm0plus.c ****     }
 195:system_psoc6_cm0plus.c **** #endif /* defined(CY_DEVICE_PSOC6ABLE2) && !defined(CY_PSOC6ABLE2_REV_0A_SUPPORT_DISABLE) */
 196:system_psoc6_cm0plus.c **** 
 197:system_psoc6_cm0plus.c **** #if !defined(CY_IPC_DEFAULT_CFG_DISABLE)
 198:system_psoc6_cm0plus.c ****     /* Allocate and initialize semaphores for the system operations. */
 199:system_psoc6_cm0plus.c ****     static uint32_t ipcSemaArray[CY_IPC_SEMA_COUNT / CY_IPC_SEMA_PER_WORD];
 200:system_psoc6_cm0plus.c **** 
 201:system_psoc6_cm0plus.c ****     (void) Cy_IPC_Sema_Init(CY_IPC_CHAN_SEMA, CY_IPC_SEMA_COUNT, ipcSemaArray);
ARM GAS  C:\Users\Rolf\AppData\Local\Temp\ccafVfle.s 			page 5


 202:system_psoc6_cm0plus.c **** 
 203:system_psoc6_cm0plus.c **** 
 204:system_psoc6_cm0plus.c ****     /********************************************************************************
 205:system_psoc6_cm0plus.c ****     *
 206:system_psoc6_cm0plus.c ****     * Initializes the system pipes. The system pipes are used by BLE and Flash.
 207:system_psoc6_cm0plus.c ****     *
 208:system_psoc6_cm0plus.c ****     * If the default startup file is not used, or SystemInit() is not called in your 
 209:system_psoc6_cm0plus.c ****     * project, call the following three functions prior to executing any flash or 
 210:system_psoc6_cm0plus.c ****     * EmEEPROM write or erase operation:
 211:system_psoc6_cm0plus.c ****     *  -# Cy_IPC_Sema_Init()
 212:system_psoc6_cm0plus.c ****     *  -# Cy_IPC_Pipe_Config()
 213:system_psoc6_cm0plus.c ****     *  -# Cy_IPC_Pipe_Init()
 214:system_psoc6_cm0plus.c ****     *  -# Cy_Flash_Init()
 215:system_psoc6_cm0plus.c ****     *
 216:system_psoc6_cm0plus.c ****     *******************************************************************************/
 217:system_psoc6_cm0plus.c ****     
 218:system_psoc6_cm0plus.c ****     /* Create an array of endpoint structures */
 219:system_psoc6_cm0plus.c ****     static cy_stc_ipc_pipe_ep_t systemIpcPipeEpArray[CY_IPC_MAX_ENDPOINTS];
 220:system_psoc6_cm0plus.c **** 
 221:system_psoc6_cm0plus.c ****     Cy_IPC_Pipe_Config(systemIpcPipeEpArray);
 222:system_psoc6_cm0plus.c **** 
 223:system_psoc6_cm0plus.c ****     static cy_ipc_pipe_callback_ptr_t systemIpcPipeSysCbArray[CY_SYS_CYPIPE_CLIENT_CNT];
 224:system_psoc6_cm0plus.c **** 
 225:system_psoc6_cm0plus.c ****     static const cy_stc_ipc_pipe_config_t systemIpcPipeConfigCm0 =
 226:system_psoc6_cm0plus.c ****     {
 227:system_psoc6_cm0plus.c ****     /* .ep0ConfigData */
 228:system_psoc6_cm0plus.c ****         {
 229:system_psoc6_cm0plus.c ****             /* .ipcNotifierNumber    */  CY_IPC_INTR_CYPIPE_EP0,
 230:system_psoc6_cm0plus.c ****             /* .ipcNotifierPriority  */  CY_SYS_INTR_CYPIPE_PRIOR_EP0,
 231:system_psoc6_cm0plus.c ****             /* .ipcNotifierMuxNumber */  CY_SYS_INTR_CYPIPE_MUX_EP0,
 232:system_psoc6_cm0plus.c ****             /* .epAddress            */  CY_IPC_EP_CYPIPE_CM0_ADDR,
 233:system_psoc6_cm0plus.c ****             /* .epConfig             */  CY_SYS_CYPIPE_CONFIG_EP0
 234:system_psoc6_cm0plus.c ****         },
 235:system_psoc6_cm0plus.c ****     /* .ep1ConfigData */
 236:system_psoc6_cm0plus.c ****         {
 237:system_psoc6_cm0plus.c ****             /* .ipcNotifierNumber    */  CY_IPC_INTR_CYPIPE_EP1,
 238:system_psoc6_cm0plus.c ****             /* .ipcNotifierPriority  */  CY_SYS_INTR_CYPIPE_PRIOR_EP1,
 239:system_psoc6_cm0plus.c ****             /* .ipcNotifierMuxNumber */  0u,
 240:system_psoc6_cm0plus.c ****             /* .epAddress            */  CY_IPC_EP_CYPIPE_CM4_ADDR,
 241:system_psoc6_cm0plus.c ****             /* .epConfig             */  CY_SYS_CYPIPE_CONFIG_EP1
 242:system_psoc6_cm0plus.c ****         },
 243:system_psoc6_cm0plus.c ****     /* .endpointClientsCount     */  CY_SYS_CYPIPE_CLIENT_CNT,
 244:system_psoc6_cm0plus.c ****     /* .endpointsCallbacksArray  */  systemIpcPipeSysCbArray,
 245:system_psoc6_cm0plus.c ****     /* .userPipeIsrHandler       */  &Cy_SysIpcPipeIsrCm0
 246:system_psoc6_cm0plus.c ****     };
 247:system_psoc6_cm0plus.c **** 
 248:system_psoc6_cm0plus.c ****     if (cy_device->flashPipeRequired != 0u)
 249:system_psoc6_cm0plus.c ****     {
 250:system_psoc6_cm0plus.c ****         Cy_IPC_Pipe_Init(&systemIpcPipeConfigCm0);
 251:system_psoc6_cm0plus.c ****     }
 252:system_psoc6_cm0plus.c **** 
 253:system_psoc6_cm0plus.c **** #if defined(CY_DEVICE_PSOC6ABLE2)
 254:system_psoc6_cm0plus.c ****     Cy_Flash_Init();
 255:system_psoc6_cm0plus.c **** #endif /* defined(CY_DEVICE_PSOC6ABLE2) */
 256:system_psoc6_cm0plus.c **** 
 257:system_psoc6_cm0plus.c **** #endif /* !defined(CY_IPC_DEFAULT_CFG_DISABLE) */
 258:system_psoc6_cm0plus.c **** }
ARM GAS  C:\Users\Rolf\AppData\Local\Temp\ccafVfle.s 			page 6


 259:system_psoc6_cm0plus.c **** 
 260:system_psoc6_cm0plus.c **** 
 261:system_psoc6_cm0plus.c **** /*******************************************************************************
 262:system_psoc6_cm0plus.c **** * Function Name: Cy_SystemInit
 263:system_psoc6_cm0plus.c **** ****************************************************************************//**
 264:system_psoc6_cm0plus.c **** *
 265:system_psoc6_cm0plus.c **** * The function is called during device startup. Once project compiled as part of
 266:system_psoc6_cm0plus.c **** * the PSoC Creator project, the Cy_SystemInit() function is generated by the
 267:system_psoc6_cm0plus.c **** * PSoC Creator.
 268:system_psoc6_cm0plus.c **** *
 269:system_psoc6_cm0plus.c **** * The function generated by PSoC Creator performs all of the necessary device
 270:system_psoc6_cm0plus.c **** * configuration based on the design settings.  This includes settings from the
 271:system_psoc6_cm0plus.c **** * Design Wide Resources (DWR) such as Clocks and Pins as well as any component
 272:system_psoc6_cm0plus.c **** * configuration that is necessary.
 273:system_psoc6_cm0plus.c **** *
 274:system_psoc6_cm0plus.c **** *******************************************************************************/
 275:system_psoc6_cm0plus.c **** __WEAK void Cy_SystemInit(void)
 276:system_psoc6_cm0plus.c **** {
 277:system_psoc6_cm0plus.c ****      /* Empty weak function. The actual implementation to be in the PSoC Creator
 278:system_psoc6_cm0plus.c ****       * generated strong function.
 279:system_psoc6_cm0plus.c ****      */
 280:system_psoc6_cm0plus.c **** }
 281:system_psoc6_cm0plus.c **** 
 282:system_psoc6_cm0plus.c **** 
 283:system_psoc6_cm0plus.c **** /*******************************************************************************
 284:system_psoc6_cm0plus.c **** * Function Name: SystemCoreClockUpdate
 285:system_psoc6_cm0plus.c **** ****************************************************************************//**
 286:system_psoc6_cm0plus.c **** *
 287:system_psoc6_cm0plus.c **** * Gets core clock frequency and updates \ref SystemCoreClock, \ref
 288:system_psoc6_cm0plus.c **** * cy_Hfclk0FreqHz, and \ref cy_PeriClkFreqHz.
 289:system_psoc6_cm0plus.c **** *
 290:system_psoc6_cm0plus.c **** * Updates global variables used by the \ref Cy_SysLib_Delay(), \ref
 291:system_psoc6_cm0plus.c **** * Cy_SysLib_DelayUs(), and \ref Cy_SysLib_DelayCycles().
 292:system_psoc6_cm0plus.c **** *
 293:system_psoc6_cm0plus.c **** *******************************************************************************/
 294:system_psoc6_cm0plus.c **** void SystemCoreClockUpdate (void)
 295:system_psoc6_cm0plus.c **** {
 296:system_psoc6_cm0plus.c ****     uint32_t srcFreqHz;
 297:system_psoc6_cm0plus.c ****     uint32_t pathFreqHz;
 298:system_psoc6_cm0plus.c ****     uint32_t slowClkDiv;
 299:system_psoc6_cm0plus.c ****     uint32_t periClkDiv;
 300:system_psoc6_cm0plus.c ****     uint32_t rootPath;
 301:system_psoc6_cm0plus.c ****     uint32_t srcClk;
 302:system_psoc6_cm0plus.c **** 
 303:system_psoc6_cm0plus.c ****     /* Get root path clock for the high-frequency clock # 0 */
 304:system_psoc6_cm0plus.c ****     rootPath = _FLD2VAL(SRSS_CLK_ROOT_SELECT_ROOT_MUX, SRSS->CLK_ROOT_SELECT[0u]);
 305:system_psoc6_cm0plus.c **** 
 306:system_psoc6_cm0plus.c ****     /* Get source of the root path clock */
 307:system_psoc6_cm0plus.c ****     srcClk = _FLD2VAL(SRSS_CLK_PATH_SELECT_PATH_MUX, SRSS->CLK_PATH_SELECT[rootPath]);
 308:system_psoc6_cm0plus.c **** 
 309:system_psoc6_cm0plus.c ****     /* Get frequency of the source */
 310:system_psoc6_cm0plus.c ****     switch (srcClk)
 311:system_psoc6_cm0plus.c ****     {
 312:system_psoc6_cm0plus.c ****     case CY_ROOT_PATH_SRC_IMO:
 313:system_psoc6_cm0plus.c ****         srcFreqHz = CY_CLK_IMO_FREQ_HZ;
 314:system_psoc6_cm0plus.c ****     break;
 315:system_psoc6_cm0plus.c **** 
ARM GAS  C:\Users\Rolf\AppData\Local\Temp\ccafVfle.s 			page 7


 316:system_psoc6_cm0plus.c ****     case CY_ROOT_PATH_SRC_EXT:
 317:system_psoc6_cm0plus.c ****         srcFreqHz = CY_CLK_EXT_FREQ_HZ;
 318:system_psoc6_cm0plus.c ****     break;
 319:system_psoc6_cm0plus.c **** 
 320:system_psoc6_cm0plus.c ****     #if (SRSS_ECO_PRESENT == 1U)
 321:system_psoc6_cm0plus.c ****         case CY_ROOT_PATH_SRC_ECO:
 322:system_psoc6_cm0plus.c ****             srcFreqHz = CY_CLK_ECO_FREQ_HZ;
 323:system_psoc6_cm0plus.c ****         break;
 324:system_psoc6_cm0plus.c ****     #endif /* (SRSS_ECO_PRESENT == 1U) */
 325:system_psoc6_cm0plus.c **** 
 326:system_psoc6_cm0plus.c **** #if defined (CY_IP_MXBLESS) && (CY_IP_MXBLESS == 1UL) && (SRSS_ALTHF_PRESENT == 1U)
 327:system_psoc6_cm0plus.c ****     case CY_ROOT_PATH_SRC_ALTHF:
 328:system_psoc6_cm0plus.c ****         srcFreqHz = cy_BleEcoClockFreqHz;
 329:system_psoc6_cm0plus.c ****     break;
 330:system_psoc6_cm0plus.c **** #endif /* defined (CY_IP_MXBLESS) && (CY_IP_MXBLESS == 1UL) && (SRSS_ALTHF_PRESENT == 1U) */
 331:system_psoc6_cm0plus.c **** 
 332:system_psoc6_cm0plus.c ****     case CY_ROOT_PATH_SRC_DSI_MUX:
 333:system_psoc6_cm0plus.c ****     {
 334:system_psoc6_cm0plus.c ****         uint32_t dsi_src;
 335:system_psoc6_cm0plus.c ****         dsi_src = _FLD2VAL(SRSS_CLK_DSI_SELECT_DSI_MUX,  SRSS->CLK_DSI_SELECT[rootPath]);
 336:system_psoc6_cm0plus.c ****         switch (dsi_src)
 337:system_psoc6_cm0plus.c ****         {
 338:system_psoc6_cm0plus.c ****         case CY_ROOT_PATH_SRC_DSI_MUX_HVILO:
 339:system_psoc6_cm0plus.c ****             srcFreqHz = CY_CLK_HVILO_FREQ_HZ;
 340:system_psoc6_cm0plus.c ****         break;
 341:system_psoc6_cm0plus.c **** 
 342:system_psoc6_cm0plus.c ****         case CY_ROOT_PATH_SRC_DSI_MUX_WCO:
 343:system_psoc6_cm0plus.c ****             srcFreqHz = CY_CLK_WCO_FREQ_HZ;
 344:system_psoc6_cm0plus.c ****         break;
 345:system_psoc6_cm0plus.c **** 
 346:system_psoc6_cm0plus.c ****         #if (SRSS_ALTLF_PRESENT == 1U)
 347:system_psoc6_cm0plus.c ****             case CY_ROOT_PATH_SRC_DSI_MUX_ALTLF:
 348:system_psoc6_cm0plus.c ****                 srcFreqHz = CY_CLK_ALTLF_FREQ_HZ;
 349:system_psoc6_cm0plus.c ****             break;
 350:system_psoc6_cm0plus.c ****         #endif /* (SRSS_ALTLF_PRESENT == 1U) */
 351:system_psoc6_cm0plus.c **** 
 352:system_psoc6_cm0plus.c ****         #if (SRSS_PILO_PRESENT == 1U)
 353:system_psoc6_cm0plus.c ****             case CY_ROOT_PATH_SRC_DSI_MUX_PILO:
 354:system_psoc6_cm0plus.c ****                 srcFreqHz = CY_CLK_PILO_FREQ_HZ;
 355:system_psoc6_cm0plus.c ****             break;
 356:system_psoc6_cm0plus.c ****         #endif /* (SRSS_PILO_PRESENT == 1U) */
 357:system_psoc6_cm0plus.c **** 
 358:system_psoc6_cm0plus.c ****         default:
 359:system_psoc6_cm0plus.c ****             srcFreqHz = CY_CLK_HVILO_FREQ_HZ;
 360:system_psoc6_cm0plus.c ****         break;
 361:system_psoc6_cm0plus.c ****         }
 362:system_psoc6_cm0plus.c ****     }
 363:system_psoc6_cm0plus.c ****     break;
 364:system_psoc6_cm0plus.c **** 
 365:system_psoc6_cm0plus.c ****     default:
 366:system_psoc6_cm0plus.c ****         srcFreqHz = CY_CLK_EXT_FREQ_HZ;
 367:system_psoc6_cm0plus.c ****     break;
 368:system_psoc6_cm0plus.c ****     }
 369:system_psoc6_cm0plus.c **** 
 370:system_psoc6_cm0plus.c ****     if (rootPath == 0UL)
 371:system_psoc6_cm0plus.c ****     {
 372:system_psoc6_cm0plus.c ****         /* FLL */
ARM GAS  C:\Users\Rolf\AppData\Local\Temp\ccafVfle.s 			page 8


 373:system_psoc6_cm0plus.c ****         bool fllLocked       = ( 0UL != _FLD2VAL(SRSS_CLK_FLL_STATUS_LOCKED, SRSS->CLK_FLL_STATUS))
 374:system_psoc6_cm0plus.c ****         bool fllOutputOutput = ( 3UL == _FLD2VAL(SRSS_CLK_FLL_CONFIG3_BYPASS_SEL, SRSS->CLK_FLL_CON
 375:system_psoc6_cm0plus.c ****         bool fllOutputAuto   = ((0UL == _FLD2VAL(SRSS_CLK_FLL_CONFIG3_BYPASS_SEL, SRSS->CLK_FLL_CON
 376:system_psoc6_cm0plus.c ****                                 (1UL == _FLD2VAL(SRSS_CLK_FLL_CONFIG3_BYPASS_SEL, SRSS->CLK_FLL_CON
 377:system_psoc6_cm0plus.c ****         if ((fllOutputAuto && fllLocked) || fllOutputOutput)
 378:system_psoc6_cm0plus.c ****         {
 379:system_psoc6_cm0plus.c ****             uint32_t fllMult;
 380:system_psoc6_cm0plus.c ****             uint32_t refDiv;
 381:system_psoc6_cm0plus.c ****             uint32_t outputDiv;
 382:system_psoc6_cm0plus.c **** 
 383:system_psoc6_cm0plus.c ****             fllMult = _FLD2VAL(SRSS_CLK_FLL_CONFIG_FLL_MULT, SRSS->CLK_FLL_CONFIG);
 384:system_psoc6_cm0plus.c ****             refDiv  = _FLD2VAL(SRSS_CLK_FLL_CONFIG2_FLL_REF_DIV, SRSS->CLK_FLL_CONFIG2);
 385:system_psoc6_cm0plus.c ****             outputDiv = _FLD2VAL(SRSS_CLK_FLL_CONFIG_FLL_OUTPUT_DIV, SRSS->CLK_FLL_CONFIG) + 1UL;
 386:system_psoc6_cm0plus.c **** 
 387:system_psoc6_cm0plus.c ****             pathFreqHz = ((srcFreqHz / refDiv) * fllMult) / outputDiv;
 388:system_psoc6_cm0plus.c ****         }
 389:system_psoc6_cm0plus.c ****         else
 390:system_psoc6_cm0plus.c ****         {
 391:system_psoc6_cm0plus.c ****             pathFreqHz = srcFreqHz;
 392:system_psoc6_cm0plus.c ****         }
 393:system_psoc6_cm0plus.c ****     }
 394:system_psoc6_cm0plus.c ****     else if (rootPath == 1UL)
 395:system_psoc6_cm0plus.c ****     {
 396:system_psoc6_cm0plus.c ****         /* PLL */
 397:system_psoc6_cm0plus.c ****         bool pllLocked       = ( 0UL != _FLD2VAL(SRSS_CLK_PLL_STATUS_LOCKED,     SRSS->CLK_PLL_STAT
 398:system_psoc6_cm0plus.c ****         bool pllOutputOutput = ( 3UL == _FLD2VAL(SRSS_CLK_PLL_CONFIG_BYPASS_SEL, SRSS->CLK_PLL_CONF
 399:system_psoc6_cm0plus.c ****         bool pllOutputAuto   = ((0UL == _FLD2VAL(SRSS_CLK_PLL_CONFIG_BYPASS_SEL, SRSS->CLK_PLL_CONF
 400:system_psoc6_cm0plus.c ****                                 (1UL == _FLD2VAL(SRSS_CLK_PLL_CONFIG_BYPASS_SEL, SRSS->CLK_PLL_CONF
 401:system_psoc6_cm0plus.c ****         if ((pllOutputAuto && pllLocked) || pllOutputOutput)
 402:system_psoc6_cm0plus.c ****         {
 403:system_psoc6_cm0plus.c ****             uint32_t feedbackDiv;
 404:system_psoc6_cm0plus.c ****             uint32_t referenceDiv;
 405:system_psoc6_cm0plus.c ****             uint32_t outputDiv;
 406:system_psoc6_cm0plus.c **** 
 407:system_psoc6_cm0plus.c ****             feedbackDiv  = _FLD2VAL(SRSS_CLK_PLL_CONFIG_FEEDBACK_DIV,  SRSS->CLK_PLL_CONFIG[0UL]);
 408:system_psoc6_cm0plus.c ****             referenceDiv = _FLD2VAL(SRSS_CLK_PLL_CONFIG_REFERENCE_DIV, SRSS->CLK_PLL_CONFIG[0UL]);
 409:system_psoc6_cm0plus.c ****             outputDiv    = _FLD2VAL(SRSS_CLK_PLL_CONFIG_OUTPUT_DIV,    SRSS->CLK_PLL_CONFIG[0UL]);
 410:system_psoc6_cm0plus.c **** 
 411:system_psoc6_cm0plus.c ****             pathFreqHz = ((srcFreqHz * feedbackDiv) / referenceDiv) / outputDiv;
 412:system_psoc6_cm0plus.c **** 
 413:system_psoc6_cm0plus.c ****         }
 414:system_psoc6_cm0plus.c ****         else
 415:system_psoc6_cm0plus.c ****         {
 416:system_psoc6_cm0plus.c ****             pathFreqHz = srcFreqHz;
 417:system_psoc6_cm0plus.c ****         }
 418:system_psoc6_cm0plus.c ****     }
 419:system_psoc6_cm0plus.c ****     else
 420:system_psoc6_cm0plus.c ****     {
 421:system_psoc6_cm0plus.c ****         /* Direct */
 422:system_psoc6_cm0plus.c ****         pathFreqHz = srcFreqHz;
 423:system_psoc6_cm0plus.c ****     }
 424:system_psoc6_cm0plus.c **** 
 425:system_psoc6_cm0plus.c ****     /* Get frequency after hf_clk pre-divider */
 426:system_psoc6_cm0plus.c ****     pathFreqHz = pathFreqHz >> _FLD2VAL(SRSS_CLK_ROOT_SELECT_ROOT_DIV, SRSS->CLK_ROOT_SELECT[0u]);
 427:system_psoc6_cm0plus.c ****     cy_Hfclk0FreqHz = pathFreqHz;
 428:system_psoc6_cm0plus.c **** 
 429:system_psoc6_cm0plus.c ****     /* Slow Clock Divider */
ARM GAS  C:\Users\Rolf\AppData\Local\Temp\ccafVfle.s 			page 9


 430:system_psoc6_cm0plus.c ****     slowClkDiv = 1u + _FLD2VAL(CPUSS_CM0_CLOCK_CTL_SLOW_INT_DIV, CPUSS->CM0_CLOCK_CTL);
 431:system_psoc6_cm0plus.c **** 
 432:system_psoc6_cm0plus.c ****     /* Peripheral Clock Divider */
 433:system_psoc6_cm0plus.c ****     periClkDiv = 1u + _FLD2VAL(CPUSS_CM0_CLOCK_CTL_PERI_INT_DIV, CPUSS->CM0_CLOCK_CTL);
 434:system_psoc6_cm0plus.c **** 
 435:system_psoc6_cm0plus.c ****     pathFreqHz = pathFreqHz / periClkDiv;
 436:system_psoc6_cm0plus.c ****     cy_PeriClkFreqHz = pathFreqHz;
 437:system_psoc6_cm0plus.c ****     pathFreqHz = pathFreqHz / slowClkDiv;
 438:system_psoc6_cm0plus.c ****     SystemCoreClock = pathFreqHz;
 439:system_psoc6_cm0plus.c **** 
 440:system_psoc6_cm0plus.c ****     /* Sets clock frequency for Delay API */
 441:system_psoc6_cm0plus.c ****     cy_delayFreqHz = SystemCoreClock;
 442:system_psoc6_cm0plus.c ****     cy_delayFreqMhz = (uint8_t)((cy_delayFreqHz + CY_DELAY_1M_MINUS_1_THRESHOLD) / CY_DELAY_1M_THRE
 443:system_psoc6_cm0plus.c ****     cy_delayFreqKhz = (cy_delayFreqHz + CY_DELAY_1K_MINUS_1_THRESHOLD) / CY_DELAY_1K_THRESHOLD;
 444:system_psoc6_cm0plus.c ****     cy_delay32kMs   = CY_DELAY_MS_OVERFLOW_THRESHOLD * cy_delayFreqKhz;
 445:system_psoc6_cm0plus.c **** }
 446:system_psoc6_cm0plus.c **** 
 447:system_psoc6_cm0plus.c **** 
 448:system_psoc6_cm0plus.c **** #if (CY_SYSTEM_CPU_CM0P == 1UL) || defined(CY_DOXYGEN)
 449:system_psoc6_cm0plus.c **** /*******************************************************************************
 450:system_psoc6_cm0plus.c **** * Function Name: Cy_SysGetCM4Status
 451:system_psoc6_cm0plus.c **** ****************************************************************************//**
 452:system_psoc6_cm0plus.c **** *
 453:system_psoc6_cm0plus.c **** * Returns the Cortex-M4 core power mode.
 454:system_psoc6_cm0plus.c **** *
 455:system_psoc6_cm0plus.c **** * \return \ref group_system_config_cm4_status_macro
 456:system_psoc6_cm0plus.c **** *
 457:system_psoc6_cm0plus.c **** *******************************************************************************/
 458:system_psoc6_cm0plus.c **** uint32_t Cy_SysGetCM4Status(void)
 459:system_psoc6_cm0plus.c **** {
 460:system_psoc6_cm0plus.c ****     uint32_t regValue;
 461:system_psoc6_cm0plus.c **** 
 462:system_psoc6_cm0plus.c ****     /* Get current power mode */
 463:system_psoc6_cm0plus.c ****     regValue = CPUSS->CM4_PWR_CTL & CPUSS_CM4_PWR_CTL_PWR_MODE_Msk;
 464:system_psoc6_cm0plus.c **** 
 465:system_psoc6_cm0plus.c ****     return (regValue);
 466:system_psoc6_cm0plus.c **** }
 467:system_psoc6_cm0plus.c **** 
 468:system_psoc6_cm0plus.c **** 
 469:system_psoc6_cm0plus.c **** /*******************************************************************************
 470:system_psoc6_cm0plus.c **** * Function Name: Cy_SysEnableCM4
 471:system_psoc6_cm0plus.c **** ****************************************************************************//**
 472:system_psoc6_cm0plus.c **** *
 473:system_psoc6_cm0plus.c **** * Sets vector table base address and enables the Cortex-M4 core.
 474:system_psoc6_cm0plus.c **** *
 475:system_psoc6_cm0plus.c **** * \note If the CPU is already enabled, it is reset and then enabled.
 476:system_psoc6_cm0plus.c **** *
 477:system_psoc6_cm0plus.c **** * \param vectorTableOffset The offset of the vector table base address from
 478:system_psoc6_cm0plus.c **** * memory address 0x00000000. The offset should be multiple to 1024 bytes.
 479:system_psoc6_cm0plus.c **** *
 480:system_psoc6_cm0plus.c **** *******************************************************************************/
 481:system_psoc6_cm0plus.c **** void Cy_SysEnableCM4(uint32_t vectorTableOffset)
 482:system_psoc6_cm0plus.c **** {
 483:system_psoc6_cm0plus.c ****     uint32_t regValue;
 484:system_psoc6_cm0plus.c ****     uint32_t interruptState;
 485:system_psoc6_cm0plus.c ****     uint32_t cpuState;
 486:system_psoc6_cm0plus.c **** 
ARM GAS  C:\Users\Rolf\AppData\Local\Temp\ccafVfle.s 			page 10


 487:system_psoc6_cm0plus.c ****     CY_ASSERT_L2((vectorTableOffset & CY_SYS_CM4_VECTOR_TABLE_VALID_ADDR) == 0UL);
 488:system_psoc6_cm0plus.c **** 
 489:system_psoc6_cm0plus.c ****     interruptState = Cy_SysLib_EnterCriticalSection();
 490:system_psoc6_cm0plus.c **** 
 491:system_psoc6_cm0plus.c ****     cpuState = Cy_SysGetCM4Status();
 492:system_psoc6_cm0plus.c ****     if (CY_SYS_CM4_STATUS_ENABLED == cpuState)
 493:system_psoc6_cm0plus.c ****     {
 494:system_psoc6_cm0plus.c ****         Cy_SysResetCM4();
 495:system_psoc6_cm0plus.c ****     }
 496:system_psoc6_cm0plus.c **** 
 497:system_psoc6_cm0plus.c ****     CPUSS->CM4_VECTOR_TABLE_BASE = vectorTableOffset;
 498:system_psoc6_cm0plus.c **** 
 499:system_psoc6_cm0plus.c ****     regValue = CPUSS->CM4_PWR_CTL & ~(CPUSS_CM4_PWR_CTL_VECTKEYSTAT_Msk | CPUSS_CM4_PWR_CTL_PWR_MOD
 500:system_psoc6_cm0plus.c ****     regValue |= _VAL2FLD(CPUSS_CM4_PWR_CTL_VECTKEYSTAT, CY_SYS_CM4_PWR_CTL_KEY_OPEN);
 501:system_psoc6_cm0plus.c ****     regValue |= CY_SYS_CM4_STATUS_ENABLED;
 502:system_psoc6_cm0plus.c ****     CPUSS->CM4_PWR_CTL = regValue;
 503:system_psoc6_cm0plus.c **** 
 504:system_psoc6_cm0plus.c ****     while((CPUSS->CM4_STATUS & CPUSS_CM4_STATUS_PWR_DONE_Msk) == 0UL)
 505:system_psoc6_cm0plus.c ****     {
 506:system_psoc6_cm0plus.c ****         /* Wait for the power mode to take effect */
 507:system_psoc6_cm0plus.c ****     }
 508:system_psoc6_cm0plus.c **** 
 509:system_psoc6_cm0plus.c ****     Cy_SysLib_ExitCriticalSection(interruptState);
 510:system_psoc6_cm0plus.c **** }
 511:system_psoc6_cm0plus.c **** 
 512:system_psoc6_cm0plus.c **** 
 513:system_psoc6_cm0plus.c **** /*******************************************************************************
 514:system_psoc6_cm0plus.c **** * Function Name: Cy_SysDisableCM4
 515:system_psoc6_cm0plus.c **** ****************************************************************************//**
 516:system_psoc6_cm0plus.c **** *
 517:system_psoc6_cm0plus.c **** * Disables the Cortex-M4 core and waits for the mode to take the effect.
 518:system_psoc6_cm0plus.c **** *
 519:system_psoc6_cm0plus.c **** * \warning Do not call the function while the Cortex-M4 is executing because
 520:system_psoc6_cm0plus.c **** * such a call may corrupt/abort a pending bus-transaction by the CPU and cause
 521:system_psoc6_cm0plus.c **** * unexpected behavior in the system including a deadlock. Call the function
 522:system_psoc6_cm0plus.c **** * while the Cortex-M4 core is in the Sleep or Deep Sleep low-power mode. Use
 523:system_psoc6_cm0plus.c **** * the \ref group_syspm Power Management (syspm) API to put the CPU into the
 524:system_psoc6_cm0plus.c **** * low-power modes. Use the \ref Cy_SysPm_ReadStatus() to get a status of the
 525:system_psoc6_cm0plus.c **** * CPU.
 526:system_psoc6_cm0plus.c **** *
 527:system_psoc6_cm0plus.c **** *******************************************************************************/
 528:system_psoc6_cm0plus.c **** void Cy_SysDisableCM4(void)
 529:system_psoc6_cm0plus.c **** {
 530:system_psoc6_cm0plus.c ****     uint32_t interruptState;
 531:system_psoc6_cm0plus.c ****     uint32_t regValue;
 532:system_psoc6_cm0plus.c **** 
 533:system_psoc6_cm0plus.c ****     interruptState = Cy_SysLib_EnterCriticalSection();
 534:system_psoc6_cm0plus.c **** 
 535:system_psoc6_cm0plus.c ****     regValue = CPUSS->CM4_PWR_CTL & ~(CPUSS_CM4_PWR_CTL_VECTKEYSTAT_Msk | CPUSS_CM4_PWR_CTL_PWR_MOD
 536:system_psoc6_cm0plus.c ****     regValue |= _VAL2FLD(CPUSS_CM4_PWR_CTL_VECTKEYSTAT, CY_SYS_CM4_PWR_CTL_KEY_OPEN);
 537:system_psoc6_cm0plus.c ****     regValue |= CY_SYS_CM4_STATUS_DISABLED;
 538:system_psoc6_cm0plus.c ****     CPUSS->CM4_PWR_CTL = regValue;
 539:system_psoc6_cm0plus.c **** 
 540:system_psoc6_cm0plus.c ****     while((CPUSS->CM4_STATUS & CPUSS_CM4_STATUS_PWR_DONE_Msk) == 0UL)
 541:system_psoc6_cm0plus.c ****     {
 542:system_psoc6_cm0plus.c ****         /* Wait for the power mode to take effect */
 543:system_psoc6_cm0plus.c ****     }
ARM GAS  C:\Users\Rolf\AppData\Local\Temp\ccafVfle.s 			page 11


 544:system_psoc6_cm0plus.c **** 
 545:system_psoc6_cm0plus.c ****     Cy_SysLib_ExitCriticalSection(interruptState);
 546:system_psoc6_cm0plus.c **** }
 547:system_psoc6_cm0plus.c **** 
 548:system_psoc6_cm0plus.c **** 
 549:system_psoc6_cm0plus.c **** /*******************************************************************************
 550:system_psoc6_cm0plus.c **** * Function Name: Cy_SysRetainCM4
 551:system_psoc6_cm0plus.c **** ****************************************************************************//**
 552:system_psoc6_cm0plus.c **** *
 553:system_psoc6_cm0plus.c **** * Retains the Cortex-M4 core and exists without waiting for the mode to take
 554:system_psoc6_cm0plus.c **** * effect.
 555:system_psoc6_cm0plus.c **** *
 556:system_psoc6_cm0plus.c **** * \note The retained mode can be entered only from the enabled mode.
 557:system_psoc6_cm0plus.c **** *
 558:system_psoc6_cm0plus.c **** * \warning Do not call the function while the Cortex-M4 is executing because
 559:system_psoc6_cm0plus.c **** * such a call may corrupt/abort a pending bus-transaction by the CPU and cause
 560:system_psoc6_cm0plus.c **** * unexpected behavior in the system including a deadlock. Call the function
 561:system_psoc6_cm0plus.c **** * while the Cortex-M4 core is in the Sleep or Deep Sleep low-power mode. Use
 562:system_psoc6_cm0plus.c **** * the \ref group_syspm Power Management (syspm) API to put the CPU into the
 563:system_psoc6_cm0plus.c **** * low-power modes. Use the \ref Cy_SysPm_ReadStatus() to get a status of the CPU.
 564:system_psoc6_cm0plus.c **** *
 565:system_psoc6_cm0plus.c **** *******************************************************************************/
 566:system_psoc6_cm0plus.c **** void Cy_SysRetainCM4(void)
 567:system_psoc6_cm0plus.c **** {
 568:system_psoc6_cm0plus.c ****     uint32_t interruptState;
 569:system_psoc6_cm0plus.c ****     uint32_t regValue;
 570:system_psoc6_cm0plus.c **** 
 571:system_psoc6_cm0plus.c ****     interruptState = Cy_SysLib_EnterCriticalSection();
 572:system_psoc6_cm0plus.c **** 
 573:system_psoc6_cm0plus.c ****     regValue = CPUSS->CM4_PWR_CTL & ~(CPUSS_CM4_PWR_CTL_VECTKEYSTAT_Msk | CPUSS_CM4_PWR_CTL_PWR_MOD
 574:system_psoc6_cm0plus.c ****     regValue |= _VAL2FLD(CPUSS_CM4_PWR_CTL_VECTKEYSTAT, CY_SYS_CM4_PWR_CTL_KEY_OPEN);
 575:system_psoc6_cm0plus.c ****     regValue |= CY_SYS_CM4_STATUS_RETAINED;
 576:system_psoc6_cm0plus.c ****     CPUSS->CM4_PWR_CTL = regValue;
 577:system_psoc6_cm0plus.c **** 
 578:system_psoc6_cm0plus.c ****     Cy_SysLib_ExitCriticalSection(interruptState);
 579:system_psoc6_cm0plus.c **** }
 580:system_psoc6_cm0plus.c **** 
 581:system_psoc6_cm0plus.c **** 
 582:system_psoc6_cm0plus.c **** /*******************************************************************************
 583:system_psoc6_cm0plus.c **** * Function Name: Cy_SysResetCM4
 584:system_psoc6_cm0plus.c **** ****************************************************************************//**
 585:system_psoc6_cm0plus.c **** *
 586:system_psoc6_cm0plus.c **** * Resets the Cortex-M4 core and waits for the mode to take the effect.
 587:system_psoc6_cm0plus.c **** *
 588:system_psoc6_cm0plus.c **** * \note The reset mode can not be entered from the retained mode.
 589:system_psoc6_cm0plus.c **** *
 590:system_psoc6_cm0plus.c **** * \warning Do not call the function while the Cortex-M4 is executing because
 591:system_psoc6_cm0plus.c **** * such a call may corrupt/abort a pending bus-transaction by the CPU and cause
 592:system_psoc6_cm0plus.c **** * unexpected behavior in the system including a deadlock. Call the function
 593:system_psoc6_cm0plus.c **** * while the Cortex-M4 core is in the Sleep or Deep Sleep low-power mode. Use
 594:system_psoc6_cm0plus.c **** * the \ref group_syspm Power Management (syspm) API to put the CPU into the
 595:system_psoc6_cm0plus.c **** * low-power modes. Use the \ref Cy_SysPm_ReadStatus() to get a status of the CPU.
 596:system_psoc6_cm0plus.c **** *
 597:system_psoc6_cm0plus.c **** *******************************************************************************/
 598:system_psoc6_cm0plus.c **** void Cy_SysResetCM4(void)
 599:system_psoc6_cm0plus.c **** {
 600:system_psoc6_cm0plus.c ****     uint32_t interruptState;
ARM GAS  C:\Users\Rolf\AppData\Local\Temp\ccafVfle.s 			page 12


 601:system_psoc6_cm0plus.c ****     uint32_t regValue;
 602:system_psoc6_cm0plus.c **** 
 603:system_psoc6_cm0plus.c ****     interruptState = Cy_SysLib_EnterCriticalSection();
 604:system_psoc6_cm0plus.c **** 
 605:system_psoc6_cm0plus.c ****     regValue = CPUSS->CM4_PWR_CTL & ~(CPUSS_CM4_PWR_CTL_VECTKEYSTAT_Msk | CPUSS_CM4_PWR_CTL_PWR_MOD
 606:system_psoc6_cm0plus.c ****     regValue |= _VAL2FLD(CPUSS_CM4_PWR_CTL_VECTKEYSTAT, CY_SYS_CM4_PWR_CTL_KEY_OPEN);
 607:system_psoc6_cm0plus.c ****     regValue |= CY_SYS_CM4_STATUS_RESET;
 608:system_psoc6_cm0plus.c ****     CPUSS->CM4_PWR_CTL = regValue;
 609:system_psoc6_cm0plus.c **** 
 610:system_psoc6_cm0plus.c ****     while((CPUSS->CM4_STATUS & CPUSS_CM4_STATUS_PWR_DONE_Msk) == 0UL)
 611:system_psoc6_cm0plus.c ****     {
 612:system_psoc6_cm0plus.c ****         /* Wait for the power mode to take effect */
 613:system_psoc6_cm0plus.c ****     }
 614:system_psoc6_cm0plus.c **** 
 615:system_psoc6_cm0plus.c ****     Cy_SysLib_ExitCriticalSection(interruptState);
 616:system_psoc6_cm0plus.c **** }
 617:system_psoc6_cm0plus.c **** #endif /* #if (CY_SYSTEM_CPU_CM0P == 1UL) || defined(CY_DOXYGEN) */
 618:system_psoc6_cm0plus.c **** 
 619:system_psoc6_cm0plus.c **** #if !defined(CY_IPC_DEFAULT_CFG_DISABLE)
 620:system_psoc6_cm0plus.c **** /*******************************************************************************
 621:system_psoc6_cm0plus.c **** * Function Name: Cy_SysIpcPipeIsrCm0
 622:system_psoc6_cm0plus.c **** ****************************************************************************//**
 623:system_psoc6_cm0plus.c **** *
 624:system_psoc6_cm0plus.c **** * This is the interrupt service routine for the system pipe.
 625:system_psoc6_cm0plus.c **** *
 626:system_psoc6_cm0plus.c **** *******************************************************************************/
 627:system_psoc6_cm0plus.c **** void Cy_SysIpcPipeIsrCm0(void)
 628:system_psoc6_cm0plus.c **** {
  28              		.loc 1 628 0
  29              		.cfi_startproc
  30              		@ args = 0, pretend = 0, frame = 0
  31              		@ frame_needed = 0, uses_anonymous_args = 0
  32 0000 10B5     		push	{r4, lr}
  33              		.cfi_def_cfa_offset 8
  34              		.cfi_offset 4, -8
  35              		.cfi_offset 14, -4
 629:system_psoc6_cm0plus.c ****     Cy_IPC_Pipe_ExecuteCallback(CY_IPC_EP_CYPIPE_CM0_ADDR);
  36              		.loc 1 629 0
  37 0002 0020     		movs	r0, #0
  38 0004 FFF7FEFF 		bl	Cy_IPC_Pipe_ExecuteCallback
  39              	.LVL0:
 630:system_psoc6_cm0plus.c **** }
  40              		.loc 1 630 0
  41              		@ sp needed
  42 0008 10BD     		pop	{r4, pc}
  43              		.cfi_endproc
  44              	.LFE81:
  45              		.size	Cy_SysIpcPipeIsrCm0, .-Cy_SysIpcPipeIsrCm0
  46 000a C046     		.section	.text.Cy_SystemInit,"ax",%progbits
  47              		.align	2
  48              		.weak	Cy_SystemInit
  49              		.code	16
  50              		.thumb_func
  51              		.type	Cy_SystemInit, %function
  52              	Cy_SystemInit:
  53              	.LFB74:
 276:system_psoc6_cm0plus.c ****      /* Empty weak function. The actual implementation to be in the PSoC Creator
ARM GAS  C:\Users\Rolf\AppData\Local\Temp\ccafVfle.s 			page 13


  54              		.loc 1 276 0
  55              		.cfi_startproc
  56              		@ args = 0, pretend = 0, frame = 0
  57              		@ frame_needed = 0, uses_anonymous_args = 0
  58              		@ link register save eliminated.
 280:system_psoc6_cm0plus.c **** 
  59              		.loc 1 280 0
  60              		@ sp needed
  61 0000 7047     		bx	lr
  62              		.cfi_endproc
  63              	.LFE74:
  64              		.size	Cy_SystemInit, .-Cy_SystemInit
  65              		.global	__aeabi_uidiv
  66 0002 C046     		.section	.text.SystemCoreClockUpdate,"ax",%progbits
  67              		.align	2
  68              		.global	SystemCoreClockUpdate
  69              		.code	16
  70              		.thumb_func
  71              		.type	SystemCoreClockUpdate, %function
  72              	SystemCoreClockUpdate:
  73              	.LFB75:
 295:system_psoc6_cm0plus.c ****     uint32_t srcFreqHz;
  74              		.loc 1 295 0
  75              		.cfi_startproc
  76              		@ args = 0, pretend = 0, frame = 0
  77              		@ frame_needed = 0, uses_anonymous_args = 0
  78 0000 70B5     		push	{r4, r5, r6, lr}
  79              		.cfi_def_cfa_offset 16
  80              		.cfi_offset 4, -16
  81              		.cfi_offset 5, -12
  82              		.cfi_offset 6, -8
  83              		.cfi_offset 14, -4
 304:system_psoc6_cm0plus.c **** 
  84              		.loc 1 304 0
  85 0002 6249     		ldr	r1, .L24
  86 0004 E023     		movs	r3, #224
  87 0006 9B00     		lsls	r3, r3, #2
  88 0008 CB58     		ldr	r3, [r1, r3]
  89 000a 0F22     		movs	r2, #15
  90 000c 1340     		ands	r3, r2
  91              	.LVL1:
 307:system_psoc6_cm0plus.c **** 
  92              		.loc 1 307 0
  93 000e 1A00     		movs	r2, r3
  94 0010 D032     		adds	r2, r2, #208
  95 0012 9200     		lsls	r2, r2, #2
  96 0014 5258     		ldr	r2, [r2, r1]
  97 0016 0721     		movs	r1, #7
  98 0018 0A40     		ands	r2, r1
  99              	.LVL2:
 310:system_psoc6_cm0plus.c ****     {
 100              		.loc 1 310 0
 101 001a 032A     		cmp	r2, #3
 102 001c 05D0     		beq	.L5
 103 001e 042A     		cmp	r2, #4
 104 0020 06D0     		beq	.L6
 105 0022 002A     		cmp	r2, #0
ARM GAS  C:\Users\Rolf\AppData\Local\Temp\ccafVfle.s 			page 14


 106 0024 12D1     		bne	.L23
 313:system_psoc6_cm0plus.c ****     break;
 107              		.loc 1 313 0
 108 0026 5A48     		ldr	r0, .L24+4
 109 0028 14E0     		b	.L4
 110              	.L5:
 328:system_psoc6_cm0plus.c ****     break;
 111              		.loc 1 328 0
 112 002a 5A4A     		ldr	r2, .L24+8
 113              	.LVL3:
 114 002c 1068     		ldr	r0, [r2]
 115              	.LVL4:
 329:system_psoc6_cm0plus.c **** #endif /* defined (CY_IP_MXBLESS) && (CY_IP_MXBLESS == 1UL) && (SRSS_ALTHF_PRESENT == 1U) */
 116              		.loc 1 329 0
 117 002e 11E0     		b	.L4
 118              	.LVL5:
 119              	.L6:
 120              	.LBB6:
 335:system_psoc6_cm0plus.c ****         switch (dsi_src)
 121              		.loc 1 335 0
 122 0030 1A00     		movs	r2, r3
 123              	.LVL6:
 124 0032 C032     		adds	r2, r2, #192
 125 0034 9200     		lsls	r2, r2, #2
 126 0036 5549     		ldr	r1, .L24
 127 0038 5258     		ldr	r2, [r2, r1]
 128 003a 1F21     		movs	r1, #31
 129 003c 0A40     		ands	r2, r1
 130              	.LVL7:
 336:system_psoc6_cm0plus.c ****         {
 131              		.loc 1 336 0
 132 003e 112A     		cmp	r2, #17
 133 0040 06D0     		beq	.L18
 134 0042 132A     		cmp	r2, #19
 135 0044 04D0     		beq	.L18
 339:system_psoc6_cm0plus.c ****         break;
 136              		.loc 1 339 0
 137 0046 FA20     		movs	r0, #250
 138 0048 C001     		lsls	r0, r0, #7
 139 004a 03E0     		b	.L4
 140              	.LVL8:
 141              	.L23:
 142              	.LBE6:
 317:system_psoc6_cm0plus.c ****     break;
 143              		.loc 1 317 0
 144 004c 5248     		ldr	r0, .L24+12
 145 004e 01E0     		b	.L4
 146              	.LVL9:
 147              	.L18:
 148              	.LBB7:
 343:system_psoc6_cm0plus.c ****         break;
 149              		.loc 1 343 0
 150 0050 8020     		movs	r0, #128
 151 0052 0002     		lsls	r0, r0, #8
 152              	.LVL10:
 153              	.L4:
 154              	.LBE7:
ARM GAS  C:\Users\Rolf\AppData\Local\Temp\ccafVfle.s 			page 15


 370:system_psoc6_cm0plus.c ****     {
 155              		.loc 1 370 0
 156 0054 002B     		cmp	r3, #0
 157 0056 36D1     		bne	.L9
 158              	.LBB8:
 373:system_psoc6_cm0plus.c ****         bool fllOutputOutput = ( 3UL == _FLD2VAL(SRSS_CLK_FLL_CONFIG3_BYPASS_SEL, SRSS->CLK_FLL_CON
 159              		.loc 1 373 0
 160 0058 4C4B     		ldr	r3, .L24
 161              	.LVL11:
 162 005a B222     		movs	r2, #178
 163 005c D200     		lsls	r2, r2, #3
 164 005e 9A58     		ldr	r2, [r3, r2]
 165 0060 0121     		movs	r1, #1
 166 0062 1140     		ands	r1, r2
 167              	.LVL12:
 374:system_psoc6_cm0plus.c ****         bool fllOutputAuto   = ((0UL == _FLD2VAL(SRSS_CLK_FLL_CONFIG3_BYPASS_SEL, SRSS->CLK_FLL_CON
 168              		.loc 1 374 0
 169 0064 B125     		movs	r5, #177
 170 0066 ED00     		lsls	r5, r5, #3
 171 0068 5A59     		ldr	r2, [r3, r5]
 172 006a 120F     		lsrs	r2, r2, #28
 173 006c 0324     		movs	r4, #3
 174 006e 2240     		ands	r2, r4
 175              	.LVL13:
 375:system_psoc6_cm0plus.c ****                                 (1UL == _FLD2VAL(SRSS_CLK_FLL_CONFIG3_BYPASS_SEL, SRSS->CLK_FLL_CON
 176              		.loc 1 375 0
 177 0070 5B59     		ldr	r3, [r3, r5]
 178 0072 1B0F     		lsrs	r3, r3, #28
 179 0074 1C42     		tst	r4, r3
 180 0076 07D0     		beq	.L19
 376:system_psoc6_cm0plus.c ****         if ((fllOutputAuto && fllLocked) || fllOutputOutput)
 181              		.loc 1 376 0 discriminator 2
 182 0078 444C     		ldr	r4, .L24
 183 007a 6359     		ldr	r3, [r4, r5]
 184 007c 1B0F     		lsrs	r3, r3, #28
 185 007e 0324     		movs	r4, #3
 186 0080 2340     		ands	r3, r4
 375:system_psoc6_cm0plus.c ****                                 (1UL == _FLD2VAL(SRSS_CLK_FLL_CONFIG3_BYPASS_SEL, SRSS->CLK_FLL_CON
 187              		.loc 1 375 0 discriminator 2
 188 0082 012B     		cmp	r3, #1
 189 0084 02D1     		bne	.L20
 190 0086 02E0     		b	.L10
 191              	.L19:
 375:system_psoc6_cm0plus.c ****                                 (1UL == _FLD2VAL(SRSS_CLK_FLL_CONFIG3_BYPASS_SEL, SRSS->CLK_FLL_CON
 192              		.loc 1 375 0 is_stmt 0
 193 0088 0123     		movs	r3, #1
 194 008a 00E0     		b	.L10
 195              	.L20:
 196 008c 0023     		movs	r3, #0
 197              	.L10:
 198              	.LVL14:
 377:system_psoc6_cm0plus.c ****         {
 199              		.loc 1 377 0 is_stmt 1 discriminator 6
 200 008e 002B     		cmp	r3, #0
 201 0090 01D0     		beq	.L11
 377:system_psoc6_cm0plus.c ****         {
 202              		.loc 1 377 0 is_stmt 0 discriminator 1
ARM GAS  C:\Users\Rolf\AppData\Local\Temp\ccafVfle.s 			page 16


 203 0092 0029     		cmp	r1, #0
 204 0094 01D1     		bne	.L12
 205              	.L11:
 377:system_psoc6_cm0plus.c ****         {
 206              		.loc 1 377 0 discriminator 3
 207 0096 032A     		cmp	r2, #3
 208 0098 4BD1     		bne	.L13
 209              	.L12:
 210              	.LBB9:
 383:system_psoc6_cm0plus.c ****             refDiv  = _FLD2VAL(SRSS_CLK_FLL_CONFIG2_FLL_REF_DIV, SRSS->CLK_FLL_CONFIG2);
 211              		.loc 1 383 0 is_stmt 1
 212 009a 3C4B     		ldr	r3, .L24
 213              	.LVL15:
 214 009c B022     		movs	r2, #176
 215              	.LVL16:
 216 009e D200     		lsls	r2, r2, #3
 217 00a0 9D58     		ldr	r5, [r3, r2]
 218 00a2 AD03     		lsls	r5, r5, #14
 219 00a4 AD0B     		lsrs	r5, r5, #14
 220              	.LVL17:
 384:system_psoc6_cm0plus.c ****             outputDiv = _FLD2VAL(SRSS_CLK_FLL_CONFIG_FLL_OUTPUT_DIV, SRSS->CLK_FLL_CONFIG) + 1UL;
 221              		.loc 1 384 0
 222 00a6 3D49     		ldr	r1, .L24+16
 223              	.LVL18:
 224 00a8 5958     		ldr	r1, [r3, r1]
 225 00aa C904     		lsls	r1, r1, #19
 226 00ac C90C     		lsrs	r1, r1, #19
 227              	.LVL19:
 385:system_psoc6_cm0plus.c **** 
 228              		.loc 1 385 0
 229 00ae 9C58     		ldr	r4, [r3, r2]
 230 00b0 240E     		lsrs	r4, r4, #24
 231 00b2 0123     		movs	r3, #1
 232 00b4 1C40     		ands	r4, r3
 233 00b6 0134     		adds	r4, r4, #1
 234              	.LVL20:
 387:system_psoc6_cm0plus.c ****         }
 235              		.loc 1 387 0
 236 00b8 FFF7FEFF 		bl	__aeabi_uidiv
 237              	.LVL21:
 238 00bc 6843     		muls	r0, r5
 239 00be 2100     		movs	r1, r4
 240 00c0 FFF7FEFF 		bl	__aeabi_uidiv
 241              	.LVL22:
 242              	.LBE9:
 378:system_psoc6_cm0plus.c ****             uint32_t fllMult;
 243              		.loc 1 378 0
 244 00c4 35E0     		b	.L13
 245              	.LVL23:
 246              	.L9:
 247              	.LBE8:
 394:system_psoc6_cm0plus.c ****     {
 248              		.loc 1 394 0
 249 00c6 012B     		cmp	r3, #1
 250 00c8 33D1     		bne	.L13
 251              	.LBB10:
 397:system_psoc6_cm0plus.c ****         bool pllOutputOutput = ( 3UL == _FLD2VAL(SRSS_CLK_PLL_CONFIG_BYPASS_SEL, SRSS->CLK_PLL_CONF
ARM GAS  C:\Users\Rolf\AppData\Local\Temp\ccafVfle.s 			page 17


 252              		.loc 1 397 0
 253 00ca 304B     		ldr	r3, .L24
 254              	.LVL24:
 255 00cc C822     		movs	r2, #200
 256 00ce D200     		lsls	r2, r2, #3
 257 00d0 9A58     		ldr	r2, [r3, r2]
 258 00d2 0125     		movs	r5, #1
 259 00d4 1540     		ands	r5, r2
 260              	.LVL25:
 398:system_psoc6_cm0plus.c ****         bool pllOutputAuto   = ((0UL == _FLD2VAL(SRSS_CLK_PLL_CONFIG_BYPASS_SEL, SRSS->CLK_PLL_CONF
 261              		.loc 1 398 0
 262 00d6 C024     		movs	r4, #192
 263 00d8 E400     		lsls	r4, r4, #3
 264 00da 1A59     		ldr	r2, [r3, r4]
 265 00dc 120F     		lsrs	r2, r2, #28
 266 00de 0321     		movs	r1, #3
 267 00e0 0A40     		ands	r2, r1
 268              	.LVL26:
 399:system_psoc6_cm0plus.c ****                                 (1UL == _FLD2VAL(SRSS_CLK_PLL_CONFIG_BYPASS_SEL, SRSS->CLK_PLL_CONF
 269              		.loc 1 399 0
 270 00e2 1B59     		ldr	r3, [r3, r4]
 271 00e4 1B0F     		lsrs	r3, r3, #28
 272 00e6 1942     		tst	r1, r3
 273 00e8 07D0     		beq	.L21
 400:system_psoc6_cm0plus.c ****         if ((pllOutputAuto && pllLocked) || pllOutputOutput)
 274              		.loc 1 400 0 discriminator 2
 275 00ea 2849     		ldr	r1, .L24
 276 00ec 0B59     		ldr	r3, [r1, r4]
 277 00ee 1B0F     		lsrs	r3, r3, #28
 278 00f0 0321     		movs	r1, #3
 279 00f2 0B40     		ands	r3, r1
 399:system_psoc6_cm0plus.c ****                                 (1UL == _FLD2VAL(SRSS_CLK_PLL_CONFIG_BYPASS_SEL, SRSS->CLK_PLL_CONF
 280              		.loc 1 399 0 discriminator 2
 281 00f4 012B     		cmp	r3, #1
 282 00f6 02D1     		bne	.L22
 283 00f8 02E0     		b	.L14
 284              	.L21:
 399:system_psoc6_cm0plus.c ****                                 (1UL == _FLD2VAL(SRSS_CLK_PLL_CONFIG_BYPASS_SEL, SRSS->CLK_PLL_CONF
 285              		.loc 1 399 0 is_stmt 0
 286 00fa 0123     		movs	r3, #1
 287 00fc 00E0     		b	.L14
 288              	.L22:
 289 00fe 0023     		movs	r3, #0
 290              	.L14:
 291              	.LVL27:
 401:system_psoc6_cm0plus.c ****         {
 292              		.loc 1 401 0 is_stmt 1 discriminator 6
 293 0100 002B     		cmp	r3, #0
 294 0102 01D0     		beq	.L15
 401:system_psoc6_cm0plus.c ****         {
 295              		.loc 1 401 0 is_stmt 0 discriminator 1
 296 0104 002D     		cmp	r5, #0
 297 0106 01D1     		bne	.L16
 298              	.L15:
 401:system_psoc6_cm0plus.c ****         {
 299              		.loc 1 401 0 discriminator 3
 300 0108 032A     		cmp	r2, #3
ARM GAS  C:\Users\Rolf\AppData\Local\Temp\ccafVfle.s 			page 18


 301 010a 12D1     		bne	.L13
 302              	.L16:
 303              	.LBB11:
 407:system_psoc6_cm0plus.c ****             referenceDiv = _FLD2VAL(SRSS_CLK_PLL_CONFIG_REFERENCE_DIV, SRSS->CLK_PLL_CONFIG[0UL]);
 304              		.loc 1 407 0 is_stmt 1
 305 010c 1F4D     		ldr	r5, .L24
 306              	.LVL28:
 307 010e C022     		movs	r2, #192
 308              	.LVL29:
 309 0110 D200     		lsls	r2, r2, #3
 310 0112 AB58     		ldr	r3, [r5, r2]
 311              	.LVL30:
 312 0114 7F21     		movs	r1, #127
 313 0116 0B40     		ands	r3, r1
 314              	.LVL31:
 408:system_psoc6_cm0plus.c ****             outputDiv    = _FLD2VAL(SRSS_CLK_PLL_CONFIG_OUTPUT_DIV,    SRSS->CLK_PLL_CONFIG[0UL]);
 315              		.loc 1 408 0
 316 0118 A958     		ldr	r1, [r5, r2]
 317 011a 090A     		lsrs	r1, r1, #8
 318 011c 1F26     		movs	r6, #31
 319 011e 3140     		ands	r1, r6
 320              	.LVL32:
 409:system_psoc6_cm0plus.c **** 
 321              		.loc 1 409 0
 322 0120 AC58     		ldr	r4, [r5, r2]
 323 0122 240C     		lsrs	r4, r4, #16
 324 0124 3440     		ands	r4, r6
 325              	.LVL33:
 411:system_psoc6_cm0plus.c **** 
 326              		.loc 1 411 0
 327 0126 5843     		muls	r0, r3
 328              	.LVL34:
 329 0128 FFF7FEFF 		bl	__aeabi_uidiv
 330              	.LVL35:
 331 012c 2100     		movs	r1, r4
 332 012e FFF7FEFF 		bl	__aeabi_uidiv
 333              	.LVL36:
 334              	.L13:
 335              	.LBE11:
 336              	.LBE10:
 426:system_psoc6_cm0plus.c ****     cy_Hfclk0FreqHz = pathFreqHz;
 337              		.loc 1 426 0
 338 0132 E023     		movs	r3, #224
 339 0134 9B00     		lsls	r3, r3, #2
 340 0136 154A     		ldr	r2, .L24
 341 0138 D358     		ldr	r3, [r2, r3]
 342 013a 1B09     		lsrs	r3, r3, #4
 343 013c 0322     		movs	r2, #3
 344 013e 1340     		ands	r3, r2
 345 0140 D840     		lsrs	r0, r0, r3
 346              	.LVL37:
 427:system_psoc6_cm0plus.c **** 
 347              		.loc 1 427 0
 348 0142 144C     		ldr	r4, .L24+8
 349 0144 6060     		str	r0, [r4, #4]
 430:system_psoc6_cm0plus.c **** 
 350              		.loc 1 430 0
ARM GAS  C:\Users\Rolf\AppData\Local\Temp\ccafVfle.s 			page 19


 351 0146 164B     		ldr	r3, .L24+20
 352 0148 1D69     		ldr	r5, [r3, #16]
 353 014a 2D0A     		lsrs	r5, r5, #8
 354 014c FC32     		adds	r2, r2, #252
 355 014e 1540     		ands	r5, r2
 356 0150 0135     		adds	r5, r5, #1
 357              	.LVL38:
 433:system_psoc6_cm0plus.c **** 
 358              		.loc 1 433 0
 359 0152 1969     		ldr	r1, [r3, #16]
 360 0154 090E     		lsrs	r1, r1, #24
 361 0156 0131     		adds	r1, r1, #1
 362              	.LVL39:
 435:system_psoc6_cm0plus.c ****     cy_PeriClkFreqHz = pathFreqHz;
 363              		.loc 1 435 0
 364 0158 FFF7FEFF 		bl	__aeabi_uidiv
 365              	.LVL40:
 436:system_psoc6_cm0plus.c ****     pathFreqHz = pathFreqHz / slowClkDiv;
 366              		.loc 1 436 0
 367 015c A060     		str	r0, [r4, #8]
 437:system_psoc6_cm0plus.c ****     SystemCoreClock = pathFreqHz;
 368              		.loc 1 437 0
 369 015e 2900     		movs	r1, r5
 370 0160 FFF7FEFF 		bl	__aeabi_uidiv
 371              	.LVL41:
 372 0164 0500     		movs	r5, r0
 373              	.LVL42:
 438:system_psoc6_cm0plus.c **** 
 374              		.loc 1 438 0
 375 0166 E060     		str	r0, [r4, #12]
 441:system_psoc6_cm0plus.c ****     cy_delayFreqMhz = (uint8_t)((cy_delayFreqHz + CY_DELAY_1M_MINUS_1_THRESHOLD) / CY_DELAY_1M_THRE
 376              		.loc 1 441 0
 377 0168 2061     		str	r0, [r4, #16]
 442:system_psoc6_cm0plus.c ****     cy_delayFreqKhz = (cy_delayFreqHz + CY_DELAY_1K_MINUS_1_THRESHOLD) / CY_DELAY_1K_THRESHOLD;
 378              		.loc 1 442 0
 379 016a 0E4B     		ldr	r3, .L24+24
 380 016c C018     		adds	r0, r0, r3
 381              	.LVL43:
 382 016e 0E49     		ldr	r1, .L24+28
 383 0170 FFF7FEFF 		bl	__aeabi_uidiv
 384              	.LVL44:
 385 0174 2075     		strb	r0, [r4, #20]
 443:system_psoc6_cm0plus.c ****     cy_delay32kMs   = CY_DELAY_MS_OVERFLOW_THRESHOLD * cy_delayFreqKhz;
 386              		.loc 1 443 0
 387 0176 0D4B     		ldr	r3, .L24+32
 388 0178 E818     		adds	r0, r5, r3
 389 017a FA21     		movs	r1, #250
 390 017c 8900     		lsls	r1, r1, #2
 391 017e FFF7FEFF 		bl	__aeabi_uidiv
 392              	.LVL45:
 393 0182 A061     		str	r0, [r4, #24]
 444:system_psoc6_cm0plus.c **** }
 394              		.loc 1 444 0
 395 0184 C003     		lsls	r0, r0, #15
 396 0186 E061     		str	r0, [r4, #28]
 445:system_psoc6_cm0plus.c **** 
 397              		.loc 1 445 0
ARM GAS  C:\Users\Rolf\AppData\Local\Temp\ccafVfle.s 			page 20


 398              		@ sp needed
 399              	.LVL46:
 400 0188 70BD     		pop	{r4, r5, r6, pc}
 401              	.L25:
 402 018a C046     		.align	2
 403              	.L24:
 404 018c 00002640 		.word	1076232192
 405 0190 00127A00 		.word	8000000
 406 0194 00000000 		.word	.LANCHOR0
 407 0198 00366E01 		.word	24000000
 408 019c 84050000 		.word	1412
 409 01a0 00002140 		.word	1075904512
 410 01a4 3F420F00 		.word	999999
 411 01a8 40420F00 		.word	1000000
 412 01ac E7030000 		.word	999
 413              		.cfi_endproc
 414              	.LFE75:
 415              		.size	SystemCoreClockUpdate, .-SystemCoreClockUpdate
 416              		.section	.text.SystemInit,"ax",%progbits
 417              		.align	2
 418              		.global	SystemInit
 419              		.code	16
 420              		.thumb_func
 421              		.type	SystemInit, %function
 422              	SystemInit:
 423              	.LFB73:
 163:system_psoc6_cm0plus.c ****     Cy_PDL_Init(CY_DEVICE_CFG);
 424              		.loc 1 163 0
 425              		.cfi_startproc
 426              		@ args = 0, pretend = 0, frame = 0
 427              		@ frame_needed = 0, uses_anonymous_args = 0
 428 0000 10B5     		push	{r4, lr}
 429              		.cfi_def_cfa_offset 8
 430              		.cfi_offset 4, -8
 431              		.cfi_offset 14, -4
 164:system_psoc6_cm0plus.c **** 
 432              		.loc 1 164 0
 433 0002 2848     		ldr	r0, .L31
 434 0004 FFF7FEFF 		bl	Cy_PDL_Init
 435              	.LVL47:
 167:system_psoc6_cm0plus.c ****     copy &= ~SRSS_CLK_FLL_CONFIG_FLL_ENABLE_Msk;
 436              		.loc 1 167 0
 437 0008 274C     		ldr	r4, .L31+4
 438 000a B022     		movs	r2, #176
 439 000c D200     		lsls	r2, r2, #3
 440 000e A358     		ldr	r3, [r4, r2]
 441              	.LVL48:
 168:system_psoc6_cm0plus.c ****     SRSS->CLK_FLL_CONFIG = copy;
 442              		.loc 1 168 0
 443 0010 5B00     		lsls	r3, r3, #1
 444              	.LVL49:
 445 0012 5B08     		lsrs	r3, r3, #1
 446              	.LVL50:
 169:system_psoc6_cm0plus.c **** 
 447              		.loc 1 169 0
 448 0014 A350     		str	r3, [r4, r2]
 171:system_psoc6_cm0plus.c ****     copy &= ~SRSS_CLK_ROOT_SELECT_ROOT_DIV_Msk; /* Set ROOT_DIV = 0*/
ARM GAS  C:\Users\Rolf\AppData\Local\Temp\ccafVfle.s 			page 21


 449              		.loc 1 171 0
 450 0016 E021     		movs	r1, #224
 451 0018 8900     		lsls	r1, r1, #2
 452 001a 6358     		ldr	r3, [r4, r1]
 453              	.LVL51:
 172:system_psoc6_cm0plus.c ****     SRSS->CLK_ROOT_SELECT[0u] = copy;
 454              		.loc 1 172 0
 455 001c 3020     		movs	r0, #48
 456 001e 8343     		bics	r3, r0
 457              	.LVL52:
 173:system_psoc6_cm0plus.c **** 
 458              		.loc 1 173 0
 459 0020 6350     		str	r3, [r4, r1]
 175:system_psoc6_cm0plus.c ****     SRSS->CLK_FLL_CONFIG2 = CY_FB_CLK_FLL_CONFIG2_VALUE;
 460              		.loc 1 175 0
 461 0022 8023     		movs	r3, #128
 462              	.LVL53:
 463 0024 5B04     		lsls	r3, r3, #17
 464 0026 A350     		str	r3, [r4, r2]
 465              	.LVL54:
 176:system_psoc6_cm0plus.c ****     SRSS->CLK_FLL_CONFIG3 = CY_FB_CLK_FLL_CONFIG3_VALUE;
 466              		.loc 1 176 0
 467 0028 204A     		ldr	r2, .L31+8
 468 002a 214B     		ldr	r3, .L31+12
 469 002c E250     		str	r2, [r4, r3]
 177:system_psoc6_cm0plus.c ****     SRSS->CLK_FLL_CONFIG4 = CY_FB_CLK_FLL_CONFIG4_VALUE;
 470              		.loc 1 177 0
 471 002e A022     		movs	r2, #160
 472 0030 9201     		lsls	r2, r2, #6
 473 0032 0433     		adds	r3, r3, #4
 474 0034 E250     		str	r2, [r4, r3]
 178:system_psoc6_cm0plus.c **** 
 475              		.loc 1 178 0
 476 0036 FF22     		movs	r2, #255
 477 0038 1E4B     		ldr	r3, .L31+16
 478 003a E250     		str	r2, [r4, r3]
 181:system_psoc6_cm0plus.c ****     Cy_WDT_Disable();
 479              		.loc 1 181 0
 480 003c FFF7FEFF 		bl	Cy_WDT_Unlock
 481              	.LVL55:
 482              	.LBB12:
 483              	.LBB13:
 484              		.file 2 "Generated_Source\\PSoC6\\pdl\\drivers/peripheral/wdt/cy_wdt.h"
   1:Generated_Source\PSoC6\pdl\drivers/peripheral/wdt/cy_wdt.h **** /***************************************************************************//**
   2:Generated_Source\PSoC6\pdl\drivers/peripheral/wdt/cy_wdt.h **** * \file cy_wdt.h
   3:Generated_Source\PSoC6\pdl\drivers/peripheral/wdt/cy_wdt.h **** * \version 1.10
   4:Generated_Source\PSoC6\pdl\drivers/peripheral/wdt/cy_wdt.h **** *
   5:Generated_Source\PSoC6\pdl\drivers/peripheral/wdt/cy_wdt.h **** *  This file provides constants and parameter values for the WDT driver.
   6:Generated_Source\PSoC6\pdl\drivers/peripheral/wdt/cy_wdt.h **** *
   7:Generated_Source\PSoC6\pdl\drivers/peripheral/wdt/cy_wdt.h **** ********************************************************************************
   8:Generated_Source\PSoC6\pdl\drivers/peripheral/wdt/cy_wdt.h **** * \copyright
   9:Generated_Source\PSoC6\pdl\drivers/peripheral/wdt/cy_wdt.h **** * Copyright 2016-2018, Cypress Semiconductor Corporation.  All rights reserved.
  10:Generated_Source\PSoC6\pdl\drivers/peripheral/wdt/cy_wdt.h **** * You may use this file only in accordance with the license, terms, conditions,
  11:Generated_Source\PSoC6\pdl\drivers/peripheral/wdt/cy_wdt.h **** * disclaimers, and limitations in the end user license agreement accompanying
  12:Generated_Source\PSoC6\pdl\drivers/peripheral/wdt/cy_wdt.h **** * the software package with which this file was provided.
  13:Generated_Source\PSoC6\pdl\drivers/peripheral/wdt/cy_wdt.h **** *
  14:Generated_Source\PSoC6\pdl\drivers/peripheral/wdt/cy_wdt.h **** *******************************************************************************/
ARM GAS  C:\Users\Rolf\AppData\Local\Temp\ccafVfle.s 			page 22


  15:Generated_Source\PSoC6\pdl\drivers/peripheral/wdt/cy_wdt.h **** 
  16:Generated_Source\PSoC6\pdl\drivers/peripheral/wdt/cy_wdt.h **** /**
  17:Generated_Source\PSoC6\pdl\drivers/peripheral/wdt/cy_wdt.h **** * \addtogroup group_wdt
  18:Generated_Source\PSoC6\pdl\drivers/peripheral/wdt/cy_wdt.h **** * \{
  19:Generated_Source\PSoC6\pdl\drivers/peripheral/wdt/cy_wdt.h **** *
  20:Generated_Source\PSoC6\pdl\drivers/peripheral/wdt/cy_wdt.h **** * The Watchdog timer (WDT) has a 16-bit free-running up-counter. 
  21:Generated_Source\PSoC6\pdl\drivers/peripheral/wdt/cy_wdt.h **** *
  22:Generated_Source\PSoC6\pdl\drivers/peripheral/wdt/cy_wdt.h **** * The functions and other declarations used in this driver are in cy_wdt.h. 
  23:Generated_Source\PSoC6\pdl\drivers/peripheral/wdt/cy_wdt.h **** * You can include cy_pdl.h (ModusToolbox only) to get access to all functions 
  24:Generated_Source\PSoC6\pdl\drivers/peripheral/wdt/cy_wdt.h **** * and declarations in the PDL. 
  25:Generated_Source\PSoC6\pdl\drivers/peripheral/wdt/cy_wdt.h **** *
  26:Generated_Source\PSoC6\pdl\drivers/peripheral/wdt/cy_wdt.h **** * The WDT can issue counter match interrupts, and a device reset if its interrupts are not 
  27:Generated_Source\PSoC6\pdl\drivers/peripheral/wdt/cy_wdt.h **** * handled. Use the Watchdog timer for two main purposes:
  28:Generated_Source\PSoC6\pdl\drivers/peripheral/wdt/cy_wdt.h **** *
  29:Generated_Source\PSoC6\pdl\drivers/peripheral/wdt/cy_wdt.h **** * The <b> First use case </b> is recovering from a CPU or firmware failure.
  30:Generated_Source\PSoC6\pdl\drivers/peripheral/wdt/cy_wdt.h **** * A timeout period is set up in the Watchdog timer, and if a timeout occurs, the
  31:Generated_Source\PSoC6\pdl\drivers/peripheral/wdt/cy_wdt.h **** * device is reset (WRES). <br>
  32:Generated_Source\PSoC6\pdl\drivers/peripheral/wdt/cy_wdt.h **** * The <b>Second use case</b> is to generate periodic interrupts.
  33:Generated_Source\PSoC6\pdl\drivers/peripheral/wdt/cy_wdt.h **** * It is strongly recommended not to use the WDT for periodic interrupt
  34:Generated_Source\PSoC6\pdl\drivers/peripheral/wdt/cy_wdt.h **** * generation. However, if absolutely required, see information below.
  35:Generated_Source\PSoC6\pdl\drivers/peripheral/wdt/cy_wdt.h **** *
  36:Generated_Source\PSoC6\pdl\drivers/peripheral/wdt/cy_wdt.h **** * A "reset cause" register exists, and the firmware should check this register 
  37:Generated_Source\PSoC6\pdl\drivers/peripheral/wdt/cy_wdt.h **** * at a start-up. An appropriate action can be taken if a WRES reset is detected.
  38:Generated_Source\PSoC6\pdl\drivers/peripheral/wdt/cy_wdt.h **** *
  39:Generated_Source\PSoC6\pdl\drivers/peripheral/wdt/cy_wdt.h **** * The user's firmware periodically resets the timeout period (clears or "feeds" 
  40:Generated_Source\PSoC6\pdl\drivers/peripheral/wdt/cy_wdt.h **** * the watchdog) before a timeout occurs. If the firmware fails to do so, that is
  41:Generated_Source\PSoC6\pdl\drivers/peripheral/wdt/cy_wdt.h **** * considered to be a CPU crash or a firmware failure, and the reason for a 
  42:Generated_Source\PSoC6\pdl\drivers/peripheral/wdt/cy_wdt.h **** * device reset.
  43:Generated_Source\PSoC6\pdl\drivers/peripheral/wdt/cy_wdt.h **** * The WDT can generate an interrupt instead of a device reset. The Interrupt 
  44:Generated_Source\PSoC6\pdl\drivers/peripheral/wdt/cy_wdt.h **** * Service Routine (ISR) can handle the interrupt either as a periodic interrupt,
  45:Generated_Source\PSoC6\pdl\drivers/peripheral/wdt/cy_wdt.h **** * or as an early indication of a firmware failure and respond accordingly.
  46:Generated_Source\PSoC6\pdl\drivers/peripheral/wdt/cy_wdt.h **** * However, it is not recommended to use the WDT for periodic interrupt 
  47:Generated_Source\PSoC6\pdl\drivers/peripheral/wdt/cy_wdt.h **** * generation. The Multi-counter Watchdog Timers (MCWDT) can be used to generate 
  48:Generated_Source\PSoC6\pdl\drivers/peripheral/wdt/cy_wdt.h **** * periodic interrupts if such are presented in the device.
  49:Generated_Source\PSoC6\pdl\drivers/peripheral/wdt/cy_wdt.h **** *
  50:Generated_Source\PSoC6\pdl\drivers/peripheral/wdt/cy_wdt.h **** * <b> Functional Description </b>
  51:Generated_Source\PSoC6\pdl\drivers/peripheral/wdt/cy_wdt.h **** *
  52:Generated_Source\PSoC6\pdl\drivers/peripheral/wdt/cy_wdt.h **** * The WDT generates an interrupt when the count value in the counter equals the 
  53:Generated_Source\PSoC6\pdl\drivers/peripheral/wdt/cy_wdt.h **** * configured match value.
  54:Generated_Source\PSoC6\pdl\drivers/peripheral/wdt/cy_wdt.h **** *
  55:Generated_Source\PSoC6\pdl\drivers/peripheral/wdt/cy_wdt.h **** * Note that the counter is not reset on a match. In such case the WDT
  56:Generated_Source\PSoC6\pdl\drivers/peripheral/wdt/cy_wdt.h **** * reset period is:
  57:Generated_Source\PSoC6\pdl\drivers/peripheral/wdt/cy_wdt.h **** * WDT_Reset_Period = ILO_Period * (2*2^(16-IgnoreBits) + MatchValue);
  58:Generated_Source\PSoC6\pdl\drivers/peripheral/wdt/cy_wdt.h **** * When the counter reaches a match value, it generates an interrupt and then 
  59:Generated_Source\PSoC6\pdl\drivers/peripheral/wdt/cy_wdt.h **** * keeps counting up until it overflows and rolls back to zero and reaches the 
  60:Generated_Source\PSoC6\pdl\drivers/peripheral/wdt/cy_wdt.h **** * match value again, at which point another interrupt is generated.
  61:Generated_Source\PSoC6\pdl\drivers/peripheral/wdt/cy_wdt.h **** *
  62:Generated_Source\PSoC6\pdl\drivers/peripheral/wdt/cy_wdt.h **** * To use a WDT to generate a periodic interrupt, the match value should be 
  63:Generated_Source\PSoC6\pdl\drivers/peripheral/wdt/cy_wdt.h **** * incremented in the ISR. As a result, the next WDT interrupt is generated when 
  64:Generated_Source\PSoC6\pdl\drivers/peripheral/wdt/cy_wdt.h **** * the counter reaches a new match value.
  65:Generated_Source\PSoC6\pdl\drivers/peripheral/wdt/cy_wdt.h **** *
  66:Generated_Source\PSoC6\pdl\drivers/peripheral/wdt/cy_wdt.h **** * You can also reduce the entire WDT counter period by 
  67:Generated_Source\PSoC6\pdl\drivers/peripheral/wdt/cy_wdt.h **** * specifying the number of most significant bits that are ignored in the WDT 
  68:Generated_Source\PSoC6\pdl\drivers/peripheral/wdt/cy_wdt.h **** * counter. For example, if the Cy_WDT_SetIgnoreBits() function is called with
  69:Generated_Source\PSoC6\pdl\drivers/peripheral/wdt/cy_wdt.h **** * parameter 3, the WDT counter becomes a 13-bit free-running up-counter.
  70:Generated_Source\PSoC6\pdl\drivers/peripheral/wdt/cy_wdt.h **** *
  71:Generated_Source\PSoC6\pdl\drivers/peripheral/wdt/cy_wdt.h **** * <b> Power Modes </b> 
ARM GAS  C:\Users\Rolf\AppData\Local\Temp\ccafVfle.s 			page 23


  72:Generated_Source\PSoC6\pdl\drivers/peripheral/wdt/cy_wdt.h **** *
  73:Generated_Source\PSoC6\pdl\drivers/peripheral/wdt/cy_wdt.h **** * WDT can operate in all possible low power modes. 
  74:Generated_Source\PSoC6\pdl\drivers/peripheral/wdt/cy_wdt.h **** * Operation during Hibernate mode is possible because the logic and 
  75:Generated_Source\PSoC6\pdl\drivers/peripheral/wdt/cy_wdt.h **** * high-voltage internal low oscillator (ILO) are supplied by the external 
  76:Generated_Source\PSoC6\pdl\drivers/peripheral/wdt/cy_wdt.h **** * high-voltage supply (Vddd). The WDT can be configured to wake the device from 
  77:Generated_Source\PSoC6\pdl\drivers/peripheral/wdt/cy_wdt.h **** * Hibernate mode.
  78:Generated_Source\PSoC6\pdl\drivers/peripheral/wdt/cy_wdt.h **** *
  79:Generated_Source\PSoC6\pdl\drivers/peripheral/wdt/cy_wdt.h **** * In CPU Active mode, an interrupt request from the WDT is sent to the 
  80:Generated_Source\PSoC6\pdl\drivers/peripheral/wdt/cy_wdt.h **** * CPU. In CPU Sleep, CPU Deep Sleep mode, the CPU subsystem 
  81:Generated_Source\PSoC6\pdl\drivers/peripheral/wdt/cy_wdt.h **** * is powered down, so the interrupt request from the WDT is sent directly to the
  82:Generated_Source\PSoC6\pdl\drivers/peripheral/wdt/cy_wdt.h **** * WakeUp Interrupt Controller (WIC) which will then wake up the CPU. The 
  83:Generated_Source\PSoC6\pdl\drivers/peripheral/wdt/cy_wdt.h **** * CPU then acknowledges the interrupt request and executes the ISR.
  84:Generated_Source\PSoC6\pdl\drivers/peripheral/wdt/cy_wdt.h **** *
  85:Generated_Source\PSoC6\pdl\drivers/peripheral/wdt/cy_wdt.h **** * <b> Clock Source </b>
  86:Generated_Source\PSoC6\pdl\drivers/peripheral/wdt/cy_wdt.h **** *
  87:Generated_Source\PSoC6\pdl\drivers/peripheral/wdt/cy_wdt.h **** * The WDT is clocked by the ILO. The WDT must be disabled before disabling 
  88:Generated_Source\PSoC6\pdl\drivers/peripheral/wdt/cy_wdt.h **** * the ILO. According to the device datasheet, the ILO accuracy is +/-30% over 
  89:Generated_Source\PSoC6\pdl\drivers/peripheral/wdt/cy_wdt.h **** * voltage and temperature. This means that the timeout period may vary by 30% 
  90:Generated_Source\PSoC6\pdl\drivers/peripheral/wdt/cy_wdt.h **** * from the configured value. Appropriate margins should be added while 
  91:Generated_Source\PSoC6\pdl\drivers/peripheral/wdt/cy_wdt.h **** * configuring WDT intervals to make sure that unwanted device resets do not 
  92:Generated_Source\PSoC6\pdl\drivers/peripheral/wdt/cy_wdt.h **** * occur on some devices.
  93:Generated_Source\PSoC6\pdl\drivers/peripheral/wdt/cy_wdt.h **** * 
  94:Generated_Source\PSoC6\pdl\drivers/peripheral/wdt/cy_wdt.h **** * Refer to the device datasheet for more information on the oscillator accuracy.
  95:Generated_Source\PSoC6\pdl\drivers/peripheral/wdt/cy_wdt.h **** *
  96:Generated_Source\PSoC6\pdl\drivers/peripheral/wdt/cy_wdt.h **** * <b> Register Locking </b>
  97:Generated_Source\PSoC6\pdl\drivers/peripheral/wdt/cy_wdt.h **** *
  98:Generated_Source\PSoC6\pdl\drivers/peripheral/wdt/cy_wdt.h **** * You can prevent accidental corruption of the WDT configuration by calling 
  99:Generated_Source\PSoC6\pdl\drivers/peripheral/wdt/cy_wdt.h **** * the Cy_WDT_Lock() function. When the WDT is locked, any writing to the WDT_*, 
 100:Generated_Source\PSoC6\pdl\drivers/peripheral/wdt/cy_wdt.h **** * CLK_ILO_CONFIG, CLK_SELECT.LFCLK_SEL, and CLK_TRIM_ILO_CTL registers is 
 101:Generated_Source\PSoC6\pdl\drivers/peripheral/wdt/cy_wdt.h **** * ignored.
 102:Generated_Source\PSoC6\pdl\drivers/peripheral/wdt/cy_wdt.h **** * Call the Cy_WDT_Unlock() function to allow WDT registers modification.
 103:Generated_Source\PSoC6\pdl\drivers/peripheral/wdt/cy_wdt.h **** *
 104:Generated_Source\PSoC6\pdl\drivers/peripheral/wdt/cy_wdt.h **** * <b> Clearing WDT </b>
 105:Generated_Source\PSoC6\pdl\drivers/peripheral/wdt/cy_wdt.h **** *
 106:Generated_Source\PSoC6\pdl\drivers/peripheral/wdt/cy_wdt.h **** * The ILO clock is asynchronous to the SysClk. Therefore it generally 
 107:Generated_Source\PSoC6\pdl\drivers/peripheral/wdt/cy_wdt.h **** * takes three ILO cycles for WDT register changes to come into effect. It is 
 108:Generated_Source\PSoC6\pdl\drivers/peripheral/wdt/cy_wdt.h **** * important to remember that a WDT should be cleared at least four cycles 
 109:Generated_Source\PSoC6\pdl\drivers/peripheral/wdt/cy_wdt.h **** * (3 + 1 for sure) before a timeout occurs, especially when small 
 110:Generated_Source\PSoC6\pdl\drivers/peripheral/wdt/cy_wdt.h **** * match values / low-toggle bit numbers are used.
 111:Generated_Source\PSoC6\pdl\drivers/peripheral/wdt/cy_wdt.h **** *
 112:Generated_Source\PSoC6\pdl\drivers/peripheral/wdt/cy_wdt.h **** * \warning It may happen that a WDT reset can be generated 
 113:Generated_Source\PSoC6\pdl\drivers/peripheral/wdt/cy_wdt.h **** * faster than a device start-up. To prevent this, calculate the 
 114:Generated_Source\PSoC6\pdl\drivers/peripheral/wdt/cy_wdt.h **** * start-up time and WDT reset time. The WDT reset time should be always greater
 115:Generated_Source\PSoC6\pdl\drivers/peripheral/wdt/cy_wdt.h **** * than device start-up time.
 116:Generated_Source\PSoC6\pdl\drivers/peripheral/wdt/cy_wdt.h **** *
 117:Generated_Source\PSoC6\pdl\drivers/peripheral/wdt/cy_wdt.h **** * <b> Reset Detection </b> 
 118:Generated_Source\PSoC6\pdl\drivers/peripheral/wdt/cy_wdt.h **** *
 119:Generated_Source\PSoC6\pdl\drivers/peripheral/wdt/cy_wdt.h **** * Use the Cy_SysLib_GetResetReason() function to detect whether the WDT has 
 120:Generated_Source\PSoC6\pdl\drivers/peripheral/wdt/cy_wdt.h **** * triggered a device reset.
 121:Generated_Source\PSoC6\pdl\drivers/peripheral/wdt/cy_wdt.h **** *
 122:Generated_Source\PSoC6\pdl\drivers/peripheral/wdt/cy_wdt.h **** * <b> Interrupt Configuration </b>
 123:Generated_Source\PSoC6\pdl\drivers/peripheral/wdt/cy_wdt.h **** *
 124:Generated_Source\PSoC6\pdl\drivers/peripheral/wdt/cy_wdt.h **** * If the WDT is configured to generate an interrupt, pending 
 125:Generated_Source\PSoC6\pdl\drivers/peripheral/wdt/cy_wdt.h **** * interrupts must be cleared within the ISR (otherwise, the interrupt will be 
 126:Generated_Source\PSoC6\pdl\drivers/peripheral/wdt/cy_wdt.h **** * generated continuously).
 127:Generated_Source\PSoC6\pdl\drivers/peripheral/wdt/cy_wdt.h **** * A pending interrupt to the WDT block must be cleared by calling the 
 128:Generated_Source\PSoC6\pdl\drivers/peripheral/wdt/cy_wdt.h **** * Cy_WDT_ClearInterrupt() function. The call to the function will clear the 
ARM GAS  C:\Users\Rolf\AppData\Local\Temp\ccafVfle.s 			page 24


 129:Generated_Source\PSoC6\pdl\drivers/peripheral/wdt/cy_wdt.h **** * unhandled WDT interrupt counter.
 130:Generated_Source\PSoC6\pdl\drivers/peripheral/wdt/cy_wdt.h **** *
 131:Generated_Source\PSoC6\pdl\drivers/peripheral/wdt/cy_wdt.h **** * Use the WDT ISR as a timer to trigger certain actions 
 132:Generated_Source\PSoC6\pdl\drivers/peripheral/wdt/cy_wdt.h **** * and to change a next WDT match value.
 133:Generated_Source\PSoC6\pdl\drivers/peripheral/wdt/cy_wdt.h **** *
 134:Generated_Source\PSoC6\pdl\drivers/peripheral/wdt/cy_wdt.h **** * Ensure that the interrupts from the WDT are passed to the CPU to avoid 
 135:Generated_Source\PSoC6\pdl\drivers/peripheral/wdt/cy_wdt.h **** * unregistered interrupts. Unregistered WDT interrupts result in a continuous 
 136:Generated_Source\PSoC6\pdl\drivers/peripheral/wdt/cy_wdt.h **** * device reset. To avoid this, call Cy_WDT_UnmaskInterrupt().
 137:Generated_Source\PSoC6\pdl\drivers/peripheral/wdt/cy_wdt.h **** * After that, call the WDT API functions for interrupt
 138:Generated_Source\PSoC6\pdl\drivers/peripheral/wdt/cy_wdt.h **** * handling/clearing.
 139:Generated_Source\PSoC6\pdl\drivers/peripheral/wdt/cy_wdt.h **** *
 140:Generated_Source\PSoC6\pdl\drivers/peripheral/wdt/cy_wdt.h **** * \section group_wdt_configuration Configuration Considerations
 141:Generated_Source\PSoC6\pdl\drivers/peripheral/wdt/cy_wdt.h **** *
 142:Generated_Source\PSoC6\pdl\drivers/peripheral/wdt/cy_wdt.h **** * To start the WDT, make sure that ILO is enabled.
 143:Generated_Source\PSoC6\pdl\drivers/peripheral/wdt/cy_wdt.h **** * After the ILO is enabled, ensure that the WDT is unlocked and disabled by 
 144:Generated_Source\PSoC6\pdl\drivers/peripheral/wdt/cy_wdt.h **** * calling the Cy_WDT_Unlock() and Cy_WDT_Disable() functions. Set the WDT match 
 145:Generated_Source\PSoC6\pdl\drivers/peripheral/wdt/cy_wdt.h **** * value by calling Cy_WDT_SetMatch() with the required match value. If needed, 
 146:Generated_Source\PSoC6\pdl\drivers/peripheral/wdt/cy_wdt.h **** * set the ignore bits for reducing the WDT counter period by calling 
 147:Generated_Source\PSoC6\pdl\drivers/peripheral/wdt/cy_wdt.h **** * Cy_WDT_SetIgnoreBits() function. After the WDT configuration is set, 
 148:Generated_Source\PSoC6\pdl\drivers/peripheral/wdt/cy_wdt.h **** * call Cy_WDT_Enable().
 149:Generated_Source\PSoC6\pdl\drivers/peripheral/wdt/cy_wdt.h **** *
 150:Generated_Source\PSoC6\pdl\drivers/peripheral/wdt/cy_wdt.h **** * \note Enable a WDT if the power supply can produce
 151:Generated_Source\PSoC6\pdl\drivers/peripheral/wdt/cy_wdt.h **** * sudden brownout events that may compromise the CPU functionality. This 
 152:Generated_Source\PSoC6\pdl\drivers/peripheral/wdt/cy_wdt.h **** * ensures that the system can recover after a brownout.
 153:Generated_Source\PSoC6\pdl\drivers/peripheral/wdt/cy_wdt.h **** *
 154:Generated_Source\PSoC6\pdl\drivers/peripheral/wdt/cy_wdt.h **** * When the WDT is used to protect against system crashes, the 
 155:Generated_Source\PSoC6\pdl\drivers/peripheral/wdt/cy_wdt.h **** * WDT interrupt should be cleared by a portion of the code that is not directly 
 156:Generated_Source\PSoC6\pdl\drivers/peripheral/wdt/cy_wdt.h **** * associated with the WDT interrupt.
 157:Generated_Source\PSoC6\pdl\drivers/peripheral/wdt/cy_wdt.h **** * Otherwise, it is possible that the main firmware loop has crashed or is in an 
 158:Generated_Source\PSoC6\pdl\drivers/peripheral/wdt/cy_wdt.h **** * endless loop, but the WDT interrupt vector continues to operate and service 
 159:Generated_Source\PSoC6\pdl\drivers/peripheral/wdt/cy_wdt.h **** * the WDT. The user should:
 160:Generated_Source\PSoC6\pdl\drivers/peripheral/wdt/cy_wdt.h **** * * Feed the watchdog by clearing the interrupt bit regularly in the main body 
 161:Generated_Source\PSoC6\pdl\drivers/peripheral/wdt/cy_wdt.h **** * of the firmware code.
 162:Generated_Source\PSoC6\pdl\drivers/peripheral/wdt/cy_wdt.h **** *
 163:Generated_Source\PSoC6\pdl\drivers/peripheral/wdt/cy_wdt.h **** * * Guarantee that the interrupt is cleared at least once every WDT period.
 164:Generated_Source\PSoC6\pdl\drivers/peripheral/wdt/cy_wdt.h **** *
 165:Generated_Source\PSoC6\pdl\drivers/peripheral/wdt/cy_wdt.h **** * * Use the WDT ISR only as a timer to trigger certain actions and to change the
 166:Generated_Source\PSoC6\pdl\drivers/peripheral/wdt/cy_wdt.h **** * next match value.
 167:Generated_Source\PSoC6\pdl\drivers/peripheral/wdt/cy_wdt.h **** *
 168:Generated_Source\PSoC6\pdl\drivers/peripheral/wdt/cy_wdt.h **** * \section group_wdt_section_more_information More Information
 169:Generated_Source\PSoC6\pdl\drivers/peripheral/wdt/cy_wdt.h **** *
 170:Generated_Source\PSoC6\pdl\drivers/peripheral/wdt/cy_wdt.h **** * For more information on the WDT peripheral, refer to the technical reference
 171:Generated_Source\PSoC6\pdl\drivers/peripheral/wdt/cy_wdt.h **** * manual (TRM).
 172:Generated_Source\PSoC6\pdl\drivers/peripheral/wdt/cy_wdt.h **** *
 173:Generated_Source\PSoC6\pdl\drivers/peripheral/wdt/cy_wdt.h **** * \section group_wdt_MISRA MISRA-C Compliance
 174:Generated_Source\PSoC6\pdl\drivers/peripheral/wdt/cy_wdt.h **** * The WDT driver does not have any specific deviations.
 175:Generated_Source\PSoC6\pdl\drivers/peripheral/wdt/cy_wdt.h **** *
 176:Generated_Source\PSoC6\pdl\drivers/peripheral/wdt/cy_wdt.h **** * \section group_wdt_changelog Changelog
 177:Generated_Source\PSoC6\pdl\drivers/peripheral/wdt/cy_wdt.h **** * <table class="doxtable">
 178:Generated_Source\PSoC6\pdl\drivers/peripheral/wdt/cy_wdt.h **** *   <tr><th>Version</th><th>Changes</th><th>Reason for Change</th></tr>
 179:Generated_Source\PSoC6\pdl\drivers/peripheral/wdt/cy_wdt.h **** *   <tr>
 180:Generated_Source\PSoC6\pdl\drivers/peripheral/wdt/cy_wdt.h **** *     <td rowspan="4">1.10</td>
 181:Generated_Source\PSoC6\pdl\drivers/peripheral/wdt/cy_wdt.h **** *     <td>Flattened the organization of the driver source code into the single 
 182:Generated_Source\PSoC6\pdl\drivers/peripheral/wdt/cy_wdt.h **** *         source directory and the single include directory.
 183:Generated_Source\PSoC6\pdl\drivers/peripheral/wdt/cy_wdt.h **** *     </td>
 184:Generated_Source\PSoC6\pdl\drivers/peripheral/wdt/cy_wdt.h **** *     <td>Driver library directory-structure simplification.</td>
 185:Generated_Source\PSoC6\pdl\drivers/peripheral/wdt/cy_wdt.h **** *   </tr>
ARM GAS  C:\Users\Rolf\AppData\Local\Temp\ccafVfle.s 			page 25


 186:Generated_Source\PSoC6\pdl\drivers/peripheral/wdt/cy_wdt.h **** *   <tr>
 187:Generated_Source\PSoC6\pdl\drivers/peripheral/wdt/cy_wdt.h **** *     <td> Removed critical section usage in the following functions:
 188:Generated_Source\PSoC6\pdl\drivers/peripheral/wdt/cy_wdt.h **** *           - \ref Cy_WDT_Init()
 189:Generated_Source\PSoC6\pdl\drivers/peripheral/wdt/cy_wdt.h **** *           - \ref Cy_WDT_Lock()
 190:Generated_Source\PSoC6\pdl\drivers/peripheral/wdt/cy_wdt.h **** *           - \ref Cy_WDT_Unlock()
 191:Generated_Source\PSoC6\pdl\drivers/peripheral/wdt/cy_wdt.h **** *     </td>
 192:Generated_Source\PSoC6\pdl\drivers/peripheral/wdt/cy_wdt.h **** *   <td>Driver functions simplification</td>
 193:Generated_Source\PSoC6\pdl\drivers/peripheral/wdt/cy_wdt.h **** *   </tr>
 194:Generated_Source\PSoC6\pdl\drivers/peripheral/wdt/cy_wdt.h **** *   <tr>
 195:Generated_Source\PSoC6\pdl\drivers/peripheral/wdt/cy_wdt.h **** *     <td>Updated the \ref Cy_WDT_Init(), \ref Cy_WDT_Enable() to clear WDT interrupt.</td>
 196:Generated_Source\PSoC6\pdl\drivers/peripheral/wdt/cy_wdt.h **** *     <td>Corner case reliability improvements</td>
 197:Generated_Source\PSoC6\pdl\drivers/peripheral/wdt/cy_wdt.h **** *   </tr>
 198:Generated_Source\PSoC6\pdl\drivers/peripheral/wdt/cy_wdt.h **** *   <tr>
 199:Generated_Source\PSoC6\pdl\drivers/peripheral/wdt/cy_wdt.h **** *     <td>Added register access layer. Use register access macros instead
 200:Generated_Source\PSoC6\pdl\drivers/peripheral/wdt/cy_wdt.h **** *         of direct register access using dereferenced pointers.</td>
 201:Generated_Source\PSoC6\pdl\drivers/peripheral/wdt/cy_wdt.h **** *     <td>Makes register access device-independent, so that the PDL does 
 202:Generated_Source\PSoC6\pdl\drivers/peripheral/wdt/cy_wdt.h **** *         not need to be recompiled for each supported part number.</td>
 203:Generated_Source\PSoC6\pdl\drivers/peripheral/wdt/cy_wdt.h **** *   </tr>
 204:Generated_Source\PSoC6\pdl\drivers/peripheral/wdt/cy_wdt.h **** *   <tr>
 205:Generated_Source\PSoC6\pdl\drivers/peripheral/wdt/cy_wdt.h **** *     <td>1.0.2</td>
 206:Generated_Source\PSoC6\pdl\drivers/peripheral/wdt/cy_wdt.h **** *     <td>Minor documentation updates</td>
 207:Generated_Source\PSoC6\pdl\drivers/peripheral/wdt/cy_wdt.h **** *     <td>Corrected info about a reset generation</td>
 208:Generated_Source\PSoC6\pdl\drivers/peripheral/wdt/cy_wdt.h **** *   </tr>
 209:Generated_Source\PSoC6\pdl\drivers/peripheral/wdt/cy_wdt.h **** *   <tr>
 210:Generated_Source\PSoC6\pdl\drivers/peripheral/wdt/cy_wdt.h **** *     <td>1.0.1</td>
 211:Generated_Source\PSoC6\pdl\drivers/peripheral/wdt/cy_wdt.h **** *     <td>General documentation updates</td>
 212:Generated_Source\PSoC6\pdl\drivers/peripheral/wdt/cy_wdt.h **** *     <td>Added info about periodic interrupt generation use case</td>
 213:Generated_Source\PSoC6\pdl\drivers/peripheral/wdt/cy_wdt.h **** *   </tr>
 214:Generated_Source\PSoC6\pdl\drivers/peripheral/wdt/cy_wdt.h **** *   <tr>
 215:Generated_Source\PSoC6\pdl\drivers/peripheral/wdt/cy_wdt.h **** *     <td>1.0</td>
 216:Generated_Source\PSoC6\pdl\drivers/peripheral/wdt/cy_wdt.h **** *     <td>Initial version</td>
 217:Generated_Source\PSoC6\pdl\drivers/peripheral/wdt/cy_wdt.h **** *     <td></td>
 218:Generated_Source\PSoC6\pdl\drivers/peripheral/wdt/cy_wdt.h **** *   </tr>
 219:Generated_Source\PSoC6\pdl\drivers/peripheral/wdt/cy_wdt.h **** * </table>
 220:Generated_Source\PSoC6\pdl\drivers/peripheral/wdt/cy_wdt.h **** *
 221:Generated_Source\PSoC6\pdl\drivers/peripheral/wdt/cy_wdt.h **** * \defgroup group_wdt_macros Macros
 222:Generated_Source\PSoC6\pdl\drivers/peripheral/wdt/cy_wdt.h **** * \defgroup group_wdt_functions Functions
 223:Generated_Source\PSoC6\pdl\drivers/peripheral/wdt/cy_wdt.h **** *
 224:Generated_Source\PSoC6\pdl\drivers/peripheral/wdt/cy_wdt.h **** */
 225:Generated_Source\PSoC6\pdl\drivers/peripheral/wdt/cy_wdt.h **** 
 226:Generated_Source\PSoC6\pdl\drivers/peripheral/wdt/cy_wdt.h **** #if !defined(CY_WDT_H)
 227:Generated_Source\PSoC6\pdl\drivers/peripheral/wdt/cy_wdt.h **** #define CY_WDT_H
 228:Generated_Source\PSoC6\pdl\drivers/peripheral/wdt/cy_wdt.h **** 
 229:Generated_Source\PSoC6\pdl\drivers/peripheral/wdt/cy_wdt.h **** #include <stdint.h>
 230:Generated_Source\PSoC6\pdl\drivers/peripheral/wdt/cy_wdt.h **** #include <stdbool.h>
 231:Generated_Source\PSoC6\pdl\drivers/peripheral/wdt/cy_wdt.h **** #include "cy_device_headers.h"
 232:Generated_Source\PSoC6\pdl\drivers/peripheral/wdt/cy_wdt.h **** #include "cy_device.h"
 233:Generated_Source\PSoC6\pdl\drivers/peripheral/wdt/cy_wdt.h **** 
 234:Generated_Source\PSoC6\pdl\drivers/peripheral/wdt/cy_wdt.h **** #if defined(__cplusplus)
 235:Generated_Source\PSoC6\pdl\drivers/peripheral/wdt/cy_wdt.h **** extern "C" {
 236:Generated_Source\PSoC6\pdl\drivers/peripheral/wdt/cy_wdt.h **** #endif
 237:Generated_Source\PSoC6\pdl\drivers/peripheral/wdt/cy_wdt.h **** 
 238:Generated_Source\PSoC6\pdl\drivers/peripheral/wdt/cy_wdt.h **** 
 239:Generated_Source\PSoC6\pdl\drivers/peripheral/wdt/cy_wdt.h **** /*******************************************************************************
 240:Generated_Source\PSoC6\pdl\drivers/peripheral/wdt/cy_wdt.h **** *       Function Constants
 241:Generated_Source\PSoC6\pdl\drivers/peripheral/wdt/cy_wdt.h **** *******************************************************************************/
 242:Generated_Source\PSoC6\pdl\drivers/peripheral/wdt/cy_wdt.h **** 
ARM GAS  C:\Users\Rolf\AppData\Local\Temp\ccafVfle.s 			page 26


 243:Generated_Source\PSoC6\pdl\drivers/peripheral/wdt/cy_wdt.h **** /**
 244:Generated_Source\PSoC6\pdl\drivers/peripheral/wdt/cy_wdt.h **** * \addtogroup group_wdt_macros
 245:Generated_Source\PSoC6\pdl\drivers/peripheral/wdt/cy_wdt.h **** * \{
 246:Generated_Source\PSoC6\pdl\drivers/peripheral/wdt/cy_wdt.h **** */
 247:Generated_Source\PSoC6\pdl\drivers/peripheral/wdt/cy_wdt.h **** 
 248:Generated_Source\PSoC6\pdl\drivers/peripheral/wdt/cy_wdt.h **** /** The driver major version */
 249:Generated_Source\PSoC6\pdl\drivers/peripheral/wdt/cy_wdt.h **** #define CY_WDT_DRV_VERSION_MAJOR                       1
 250:Generated_Source\PSoC6\pdl\drivers/peripheral/wdt/cy_wdt.h **** 
 251:Generated_Source\PSoC6\pdl\drivers/peripheral/wdt/cy_wdt.h **** /** The driver minor version */
 252:Generated_Source\PSoC6\pdl\drivers/peripheral/wdt/cy_wdt.h **** #define CY_WDT_DRV_VERSION_MINOR                       10
 253:Generated_Source\PSoC6\pdl\drivers/peripheral/wdt/cy_wdt.h **** 
 254:Generated_Source\PSoC6\pdl\drivers/peripheral/wdt/cy_wdt.h **** /** The internal define for the first iteration of WDT unlocking */
 255:Generated_Source\PSoC6\pdl\drivers/peripheral/wdt/cy_wdt.h **** #define CY_SRSS_WDT_LOCK_BIT0                           ((uint32_t)0x01U << 30U)
 256:Generated_Source\PSoC6\pdl\drivers/peripheral/wdt/cy_wdt.h **** 
 257:Generated_Source\PSoC6\pdl\drivers/peripheral/wdt/cy_wdt.h **** /** The internal define for the second iteration of WDT unlocking */
 258:Generated_Source\PSoC6\pdl\drivers/peripheral/wdt/cy_wdt.h **** #define CY_SRSS_WDT_LOCK_BIT1                           ((uint32_t)0x01U << 31U)
 259:Generated_Source\PSoC6\pdl\drivers/peripheral/wdt/cy_wdt.h **** 
 260:Generated_Source\PSoC6\pdl\drivers/peripheral/wdt/cy_wdt.h **** /** The WDT default match value */
 261:Generated_Source\PSoC6\pdl\drivers/peripheral/wdt/cy_wdt.h **** #define CY_SRSS_WDT_DEFAULT_MATCH_VALUE                 ((uint32_t) 4096U)
 262:Generated_Source\PSoC6\pdl\drivers/peripheral/wdt/cy_wdt.h **** 
 263:Generated_Source\PSoC6\pdl\drivers/peripheral/wdt/cy_wdt.h **** /** The default match value of the WDT ignore bits */
 264:Generated_Source\PSoC6\pdl\drivers/peripheral/wdt/cy_wdt.h **** #define CY_SRSS_WDT_DEFAULT_IGNORE_BITS                 (0U)
 265:Generated_Source\PSoC6\pdl\drivers/peripheral/wdt/cy_wdt.h **** 
 266:Generated_Source\PSoC6\pdl\drivers/peripheral/wdt/cy_wdt.h **** /** The default match value of the WDT ignore bits */
 267:Generated_Source\PSoC6\pdl\drivers/peripheral/wdt/cy_wdt.h **** #define CY_SRSS_WDT_LOCK_BITS                           (3U)
 268:Generated_Source\PSoC6\pdl\drivers/peripheral/wdt/cy_wdt.h **** 
 269:Generated_Source\PSoC6\pdl\drivers/peripheral/wdt/cy_wdt.h **** /** The WDT driver identifier */
 270:Generated_Source\PSoC6\pdl\drivers/peripheral/wdt/cy_wdt.h **** #define CY_WDT_ID                                       CY_PDL_DRV_ID(0x34U)
 271:Generated_Source\PSoC6\pdl\drivers/peripheral/wdt/cy_wdt.h **** 
 272:Generated_Source\PSoC6\pdl\drivers/peripheral/wdt/cy_wdt.h **** /** \} group_wdt_macros */
 273:Generated_Source\PSoC6\pdl\drivers/peripheral/wdt/cy_wdt.h **** 
 274:Generated_Source\PSoC6\pdl\drivers/peripheral/wdt/cy_wdt.h **** /** \cond Internal */
 275:Generated_Source\PSoC6\pdl\drivers/peripheral/wdt/cy_wdt.h **** 
 276:Generated_Source\PSoC6\pdl\drivers/peripheral/wdt/cy_wdt.h **** /** The WDT maximum match value */
 277:Generated_Source\PSoC6\pdl\drivers/peripheral/wdt/cy_wdt.h **** #define WDT_MAX_MATCH_VALUE                      (0xFFFFuL)
 278:Generated_Source\PSoC6\pdl\drivers/peripheral/wdt/cy_wdt.h **** 
 279:Generated_Source\PSoC6\pdl\drivers/peripheral/wdt/cy_wdt.h **** /** The WDT maximum match value */
 280:Generated_Source\PSoC6\pdl\drivers/peripheral/wdt/cy_wdt.h **** #define WDT_MAX_IGNORE_BITS                      (0xFuL)
 281:Generated_Source\PSoC6\pdl\drivers/peripheral/wdt/cy_wdt.h **** 
 282:Generated_Source\PSoC6\pdl\drivers/peripheral/wdt/cy_wdt.h **** /* Internal macro to validate match value */
 283:Generated_Source\PSoC6\pdl\drivers/peripheral/wdt/cy_wdt.h **** #define CY_WDT_IS_MATCH_VAL_VALID(match)         ((match) <= WDT_MAX_MATCH_VALUE)
 284:Generated_Source\PSoC6\pdl\drivers/peripheral/wdt/cy_wdt.h **** 
 285:Generated_Source\PSoC6\pdl\drivers/peripheral/wdt/cy_wdt.h **** /* Internal macro to validate match value */
 286:Generated_Source\PSoC6\pdl\drivers/peripheral/wdt/cy_wdt.h **** #define CY_WDT_IS_IGNORE_BITS_VALID(bitsNum)     ((bitsNum) <= WDT_MAX_IGNORE_BITS)
 287:Generated_Source\PSoC6\pdl\drivers/peripheral/wdt/cy_wdt.h **** 
 288:Generated_Source\PSoC6\pdl\drivers/peripheral/wdt/cy_wdt.h **** /** \endcond */
 289:Generated_Source\PSoC6\pdl\drivers/peripheral/wdt/cy_wdt.h **** 
 290:Generated_Source\PSoC6\pdl\drivers/peripheral/wdt/cy_wdt.h **** 
 291:Generated_Source\PSoC6\pdl\drivers/peripheral/wdt/cy_wdt.h **** /*******************************************************************************
 292:Generated_Source\PSoC6\pdl\drivers/peripheral/wdt/cy_wdt.h **** *        Function Prototypes
 293:Generated_Source\PSoC6\pdl\drivers/peripheral/wdt/cy_wdt.h **** *******************************************************************************/
 294:Generated_Source\PSoC6\pdl\drivers/peripheral/wdt/cy_wdt.h **** /**
 295:Generated_Source\PSoC6\pdl\drivers/peripheral/wdt/cy_wdt.h **** * \addtogroup group_wdt_functions
 296:Generated_Source\PSoC6\pdl\drivers/peripheral/wdt/cy_wdt.h **** * @{
 297:Generated_Source\PSoC6\pdl\drivers/peripheral/wdt/cy_wdt.h **** */
 298:Generated_Source\PSoC6\pdl\drivers/peripheral/wdt/cy_wdt.h **** /* WDT API */
 299:Generated_Source\PSoC6\pdl\drivers/peripheral/wdt/cy_wdt.h **** void Cy_WDT_Init(void);
ARM GAS  C:\Users\Rolf\AppData\Local\Temp\ccafVfle.s 			page 27


 300:Generated_Source\PSoC6\pdl\drivers/peripheral/wdt/cy_wdt.h **** __STATIC_INLINE void Cy_WDT_Enable(void);
 301:Generated_Source\PSoC6\pdl\drivers/peripheral/wdt/cy_wdt.h **** __STATIC_INLINE void Cy_WDT_Disable(void);
 302:Generated_Source\PSoC6\pdl\drivers/peripheral/wdt/cy_wdt.h **** void Cy_WDT_Lock(void);
 303:Generated_Source\PSoC6\pdl\drivers/peripheral/wdt/cy_wdt.h **** void Cy_WDT_Unlock(void);
 304:Generated_Source\PSoC6\pdl\drivers/peripheral/wdt/cy_wdt.h **** __STATIC_INLINE uint32_t Cy_WDT_GetCount(void);
 305:Generated_Source\PSoC6\pdl\drivers/peripheral/wdt/cy_wdt.h **** void Cy_WDT_SetMatch(uint32_t match);
 306:Generated_Source\PSoC6\pdl\drivers/peripheral/wdt/cy_wdt.h **** __STATIC_INLINE uint32_t Cy_WDT_GetMatch(void);
 307:Generated_Source\PSoC6\pdl\drivers/peripheral/wdt/cy_wdt.h **** void Cy_WDT_SetIgnoreBits(uint32_t bitsNum);
 308:Generated_Source\PSoC6\pdl\drivers/peripheral/wdt/cy_wdt.h **** __STATIC_INLINE uint32_t Cy_WDT_GetIgnoreBits(void);
 309:Generated_Source\PSoC6\pdl\drivers/peripheral/wdt/cy_wdt.h **** __STATIC_INLINE void Cy_WDT_MaskInterrupt(void);
 310:Generated_Source\PSoC6\pdl\drivers/peripheral/wdt/cy_wdt.h **** __STATIC_INLINE void Cy_WDT_UnmaskInterrupt(void);
 311:Generated_Source\PSoC6\pdl\drivers/peripheral/wdt/cy_wdt.h **** void Cy_WDT_ClearInterrupt(void);
 312:Generated_Source\PSoC6\pdl\drivers/peripheral/wdt/cy_wdt.h **** void Cy_WDT_ClearWatchdog(void);
 313:Generated_Source\PSoC6\pdl\drivers/peripheral/wdt/cy_wdt.h **** 
 314:Generated_Source\PSoC6\pdl\drivers/peripheral/wdt/cy_wdt.h **** 
 315:Generated_Source\PSoC6\pdl\drivers/peripheral/wdt/cy_wdt.h **** /*******************************************************************************
 316:Generated_Source\PSoC6\pdl\drivers/peripheral/wdt/cy_wdt.h **** * Function Name: Cy_WDT_Enable
 317:Generated_Source\PSoC6\pdl\drivers/peripheral/wdt/cy_wdt.h **** ****************************************************************************//**
 318:Generated_Source\PSoC6\pdl\drivers/peripheral/wdt/cy_wdt.h **** *
 319:Generated_Source\PSoC6\pdl\drivers/peripheral/wdt/cy_wdt.h **** * Enables the Watchdog timer.
 320:Generated_Source\PSoC6\pdl\drivers/peripheral/wdt/cy_wdt.h **** *
 321:Generated_Source\PSoC6\pdl\drivers/peripheral/wdt/cy_wdt.h **** * \sideeffect
 322:Generated_Source\PSoC6\pdl\drivers/peripheral/wdt/cy_wdt.h **** * This function clears the WDT interrupt.
 323:Generated_Source\PSoC6\pdl\drivers/peripheral/wdt/cy_wdt.h **** *
 324:Generated_Source\PSoC6\pdl\drivers/peripheral/wdt/cy_wdt.h **** *******************************************************************************/
 325:Generated_Source\PSoC6\pdl\drivers/peripheral/wdt/cy_wdt.h **** __STATIC_INLINE void Cy_WDT_Enable(void)
 326:Generated_Source\PSoC6\pdl\drivers/peripheral/wdt/cy_wdt.h **** {
 327:Generated_Source\PSoC6\pdl\drivers/peripheral/wdt/cy_wdt.h ****     SRSS_WDT_CTL |= _VAL2FLD(SRSS_WDT_CTL_WDT_EN, 1U);
 328:Generated_Source\PSoC6\pdl\drivers/peripheral/wdt/cy_wdt.h ****     Cy_WDT_ClearInterrupt();
 329:Generated_Source\PSoC6\pdl\drivers/peripheral/wdt/cy_wdt.h **** }
 330:Generated_Source\PSoC6\pdl\drivers/peripheral/wdt/cy_wdt.h **** 
 331:Generated_Source\PSoC6\pdl\drivers/peripheral/wdt/cy_wdt.h **** 
 332:Generated_Source\PSoC6\pdl\drivers/peripheral/wdt/cy_wdt.h **** /*******************************************************************************
 333:Generated_Source\PSoC6\pdl\drivers/peripheral/wdt/cy_wdt.h **** * Function Name: Cy_WDT_Disable
 334:Generated_Source\PSoC6\pdl\drivers/peripheral/wdt/cy_wdt.h **** ****************************************************************************//**
 335:Generated_Source\PSoC6\pdl\drivers/peripheral/wdt/cy_wdt.h **** *
 336:Generated_Source\PSoC6\pdl\drivers/peripheral/wdt/cy_wdt.h **** * Disables the Watchdog timer. The Watchdog timer should be unlocked before being
 337:Generated_Source\PSoC6\pdl\drivers/peripheral/wdt/cy_wdt.h **** * disabled. Call the Cy_WDT_Unlock() API to unlock the WDT.
 338:Generated_Source\PSoC6\pdl\drivers/peripheral/wdt/cy_wdt.h **** *
 339:Generated_Source\PSoC6\pdl\drivers/peripheral/wdt/cy_wdt.h **** *******************************************************************************/
 340:Generated_Source\PSoC6\pdl\drivers/peripheral/wdt/cy_wdt.h **** __STATIC_INLINE void Cy_WDT_Disable(void)
 341:Generated_Source\PSoC6\pdl\drivers/peripheral/wdt/cy_wdt.h **** {
 342:Generated_Source\PSoC6\pdl\drivers/peripheral/wdt/cy_wdt.h ****     SRSS_WDT_CTL &= ((uint32_t) ~(_VAL2FLD(SRSS_WDT_CTL_WDT_EN, 1U)));
 485              		.loc 2 342 0
 486 0040 C022     		movs	r2, #192
 487 0042 5200     		lsls	r2, r2, #1
 488 0044 A358     		ldr	r3, [r4, r2]
 489 0046 0121     		movs	r1, #1
 490 0048 8B43     		bics	r3, r1
 491 004a A350     		str	r3, [r4, r2]
 492              	.LBE13:
 493              	.LBE12:
 184:system_psoc6_cm0plus.c ****     SystemCoreClockUpdate();
 494              		.loc 1 184 0
 495 004c FFF7FEFF 		bl	Cy_SystemInit
 496              	.LVL56:
 185:system_psoc6_cm0plus.c **** 
ARM GAS  C:\Users\Rolf\AppData\Local\Temp\ccafVfle.s 			page 28


 497              		.loc 1 185 0
 498 0050 FFF7FEFF 		bl	SystemCoreClockUpdate
 499              	.LVL57:
 500              	.LBB14:
 501              	.LBB15:
 502              		.file 3 "Generated_Source\\PSoC6\\pdl\\drivers/peripheral/syslib/cy_syslib.h"
   1:Generated_Source\PSoC6\pdl\drivers/peripheral/syslib/cy_syslib.h **** /***************************************************************************//**
   2:Generated_Source\PSoC6\pdl\drivers/peripheral/syslib/cy_syslib.h **** * \file cy_syslib.h
   3:Generated_Source\PSoC6\pdl\drivers/peripheral/syslib/cy_syslib.h **** * \version 2.10
   4:Generated_Source\PSoC6\pdl\drivers/peripheral/syslib/cy_syslib.h **** *
   5:Generated_Source\PSoC6\pdl\drivers/peripheral/syslib/cy_syslib.h **** * Provides an API declaration of the SysLib driver.
   6:Generated_Source\PSoC6\pdl\drivers/peripheral/syslib/cy_syslib.h **** *
   7:Generated_Source\PSoC6\pdl\drivers/peripheral/syslib/cy_syslib.h **** ********************************************************************************
   8:Generated_Source\PSoC6\pdl\drivers/peripheral/syslib/cy_syslib.h **** * \copyright
   9:Generated_Source\PSoC6\pdl\drivers/peripheral/syslib/cy_syslib.h **** * Copyright 2016-2018, Cypress Semiconductor Corporation. All rights reserved.
  10:Generated_Source\PSoC6\pdl\drivers/peripheral/syslib/cy_syslib.h **** * You may use this file only in accordance with the license, terms, conditions,
  11:Generated_Source\PSoC6\pdl\drivers/peripheral/syslib/cy_syslib.h **** * disclaimers, and limitations in the end user license agreement accompanying
  12:Generated_Source\PSoC6\pdl\drivers/peripheral/syslib/cy_syslib.h **** * the software package with which this file was provided.
  13:Generated_Source\PSoC6\pdl\drivers/peripheral/syslib/cy_syslib.h **** *******************************************************************************/
  14:Generated_Source\PSoC6\pdl\drivers/peripheral/syslib/cy_syslib.h **** 
  15:Generated_Source\PSoC6\pdl\drivers/peripheral/syslib/cy_syslib.h **** /**
  16:Generated_Source\PSoC6\pdl\drivers/peripheral/syslib/cy_syslib.h **** * \addtogroup group_syslib
  17:Generated_Source\PSoC6\pdl\drivers/peripheral/syslib/cy_syslib.h **** * \{
  18:Generated_Source\PSoC6\pdl\drivers/peripheral/syslib/cy_syslib.h **** * The system libraries provide APIs that can be called in the user application
  19:Generated_Source\PSoC6\pdl\drivers/peripheral/syslib/cy_syslib.h **** * to handle the timing, logical checking or register.
  20:Generated_Source\PSoC6\pdl\drivers/peripheral/syslib/cy_syslib.h **** *
  21:Generated_Source\PSoC6\pdl\drivers/peripheral/syslib/cy_syslib.h **** * The functions and other declarations used in this driver are in cy_syslib.h. 
  22:Generated_Source\PSoC6\pdl\drivers/peripheral/syslib/cy_syslib.h **** * You can include cy_pdl.h (ModusToolbox only) to get access to all functions 
  23:Generated_Source\PSoC6\pdl\drivers/peripheral/syslib/cy_syslib.h **** * and declarations in the PDL. 
  24:Generated_Source\PSoC6\pdl\drivers/peripheral/syslib/cy_syslib.h **** *
  25:Generated_Source\PSoC6\pdl\drivers/peripheral/syslib/cy_syslib.h **** * The SysLib driver contains a set of different system functions. These functions
  26:Generated_Source\PSoC6\pdl\drivers/peripheral/syslib/cy_syslib.h **** * can be called in the application routine. Major features of the system library:
  27:Generated_Source\PSoC6\pdl\drivers/peripheral/syslib/cy_syslib.h **** * * Delay functions
  28:Generated_Source\PSoC6\pdl\drivers/peripheral/syslib/cy_syslib.h **** * * The register Read/Write macro
  29:Generated_Source\PSoC6\pdl\drivers/peripheral/syslib/cy_syslib.h **** * * Assert and Halt
  30:Generated_Source\PSoC6\pdl\drivers/peripheral/syslib/cy_syslib.h **** * * Assert Classes and Levels
  31:Generated_Source\PSoC6\pdl\drivers/peripheral/syslib/cy_syslib.h **** * * A software reset
  32:Generated_Source\PSoC6\pdl\drivers/peripheral/syslib/cy_syslib.h **** * * Reading the reset cause
  33:Generated_Source\PSoC6\pdl\drivers/peripheral/syslib/cy_syslib.h **** * * An API to invalidate the flash cache and buffer
  34:Generated_Source\PSoC6\pdl\drivers/peripheral/syslib/cy_syslib.h **** * * Data manipulation macro
  35:Generated_Source\PSoC6\pdl\drivers/peripheral/syslib/cy_syslib.h **** * * A variable type definition from MISRA-C which specifies signedness
  36:Generated_Source\PSoC6\pdl\drivers/peripheral/syslib/cy_syslib.h **** * * Cross compiler compatible attributes
  37:Generated_Source\PSoC6\pdl\drivers/peripheral/syslib/cy_syslib.h **** * * Getting a silicon-unique ID API
  38:Generated_Source\PSoC6\pdl\drivers/peripheral/syslib/cy_syslib.h **** * * Setting wait states API
  39:Generated_Source\PSoC6\pdl\drivers/peripheral/syslib/cy_syslib.h **** * * Resetting the backup domain API
  40:Generated_Source\PSoC6\pdl\drivers/peripheral/syslib/cy_syslib.h **** * * APIs to serve Fault handler
  41:Generated_Source\PSoC6\pdl\drivers/peripheral/syslib/cy_syslib.h **** *
  42:Generated_Source\PSoC6\pdl\drivers/peripheral/syslib/cy_syslib.h **** * \section group_syslib_configuration Configuration Considerations
  43:Generated_Source\PSoC6\pdl\drivers/peripheral/syslib/cy_syslib.h **** * <b> Assertion Usage </b> <br />
  44:Generated_Source\PSoC6\pdl\drivers/peripheral/syslib/cy_syslib.h **** * Use the CY_ASSERT() macro to check expressions that must be true as long as the
  45:Generated_Source\PSoC6\pdl\drivers/peripheral/syslib/cy_syslib.h **** * program is running correctly. It is a convenient way to insert sanity checks.
  46:Generated_Source\PSoC6\pdl\drivers/peripheral/syslib/cy_syslib.h **** * The CY_ASSERT() macro is defined in the cy_syslib.h file which is part of
  47:Generated_Source\PSoC6\pdl\drivers/peripheral/syslib/cy_syslib.h **** * the PDL library. The behavior of the macro is as follows: if the expression
  48:Generated_Source\PSoC6\pdl\drivers/peripheral/syslib/cy_syslib.h **** * passed to the macro is false, output an error message that includes the file
  49:Generated_Source\PSoC6\pdl\drivers/peripheral/syslib/cy_syslib.h **** * name and line number, and then halts the CPU. \n
  50:Generated_Source\PSoC6\pdl\drivers/peripheral/syslib/cy_syslib.h **** * In case of fault, the CY_ASSERT() macro calls the Cy_SysLib_AssertFailed() function.
  51:Generated_Source\PSoC6\pdl\drivers/peripheral/syslib/cy_syslib.h **** * This is a weakly linked function. The default implementation stores the file
ARM GAS  C:\Users\Rolf\AppData\Local\Temp\ccafVfle.s 			page 29


  52:Generated_Source\PSoC6\pdl\drivers/peripheral/syslib/cy_syslib.h **** * name and line number of the ASSERT into global variables, cy_assertFileName
  53:Generated_Source\PSoC6\pdl\drivers/peripheral/syslib/cy_syslib.h **** * and cy_assertLine . It then calls the Cy_SysLib_Halt() function.
  54:Generated_Source\PSoC6\pdl\drivers/peripheral/syslib/cy_syslib.h **** * \note Firmware can redefine the Cy_SysLib_AssertFailed() function for custom processing.
  55:Generated_Source\PSoC6\pdl\drivers/peripheral/syslib/cy_syslib.h **** * 
  56:Generated_Source\PSoC6\pdl\drivers/peripheral/syslib/cy_syslib.h **** * The PDL source code uses this assert mechanism extensively. It is recommended
  57:Generated_Source\PSoC6\pdl\drivers/peripheral/syslib/cy_syslib.h **** * that you enable asserts when debugging firmware. \n
  58:Generated_Source\PSoC6\pdl\drivers/peripheral/syslib/cy_syslib.h **** * <b> Assertion Classes and Levels </b> <br />
  59:Generated_Source\PSoC6\pdl\drivers/peripheral/syslib/cy_syslib.h **** * The PDL defines three assert classes, which correspond to different kinds
  60:Generated_Source\PSoC6\pdl\drivers/peripheral/syslib/cy_syslib.h **** * of parameters. There is a corresponding assert "level" for each class.
  61:Generated_Source\PSoC6\pdl\drivers/peripheral/syslib/cy_syslib.h **** * <table class="doxtable">
  62:Generated_Source\PSoC6\pdl\drivers/peripheral/syslib/cy_syslib.h **** *   <tr><th>Class Macro</th><th>Level Macro</th><th>Type of check</th></tr>
  63:Generated_Source\PSoC6\pdl\drivers/peripheral/syslib/cy_syslib.h **** *   <tr>
  64:Generated_Source\PSoC6\pdl\drivers/peripheral/syslib/cy_syslib.h **** *     <td>CY_ASSERT_CLASS_1</td>
  65:Generated_Source\PSoC6\pdl\drivers/peripheral/syslib/cy_syslib.h **** *     <td>CY_ASSERT_L1</td>
  66:Generated_Source\PSoC6\pdl\drivers/peripheral/syslib/cy_syslib.h **** *     <td>A parameter that could change between different PSoC devices
  67:Generated_Source\PSoC6\pdl\drivers/peripheral/syslib/cy_syslib.h **** *         (e.g. the number of clock paths)</td>
  68:Generated_Source\PSoC6\pdl\drivers/peripheral/syslib/cy_syslib.h **** *   </tr>
  69:Generated_Source\PSoC6\pdl\drivers/peripheral/syslib/cy_syslib.h **** *   <tr>
  70:Generated_Source\PSoC6\pdl\drivers/peripheral/syslib/cy_syslib.h **** *     <td>CY_ASSERT_CLASS_2</td>
  71:Generated_Source\PSoC6\pdl\drivers/peripheral/syslib/cy_syslib.h **** *     <td>CY_ASSERT_L2</td>
  72:Generated_Source\PSoC6\pdl\drivers/peripheral/syslib/cy_syslib.h **** *     <td>A parameter that has fixed limits such as a counter period</td>
  73:Generated_Source\PSoC6\pdl\drivers/peripheral/syslib/cy_syslib.h **** *   </tr>
  74:Generated_Source\PSoC6\pdl\drivers/peripheral/syslib/cy_syslib.h **** *   <tr>
  75:Generated_Source\PSoC6\pdl\drivers/peripheral/syslib/cy_syslib.h **** *     <td>CY_ASSERT_CLASS_3</td>
  76:Generated_Source\PSoC6\pdl\drivers/peripheral/syslib/cy_syslib.h **** *     <td>CY_ASSERT_L3</td>
  77:Generated_Source\PSoC6\pdl\drivers/peripheral/syslib/cy_syslib.h **** *     <td>A parameter that is an enum constant</td>
  78:Generated_Source\PSoC6\pdl\drivers/peripheral/syslib/cy_syslib.h **** *   </tr>
  79:Generated_Source\PSoC6\pdl\drivers/peripheral/syslib/cy_syslib.h **** * </table>
  80:Generated_Source\PSoC6\pdl\drivers/peripheral/syslib/cy_syslib.h **** * Firmware defines which ASSERT class is enabled by defining CY_ASSERT_LEVEL.
  81:Generated_Source\PSoC6\pdl\drivers/peripheral/syslib/cy_syslib.h **** * This is a compiler command line argument, similar to how the DEBUG / NDEBUG
  82:Generated_Source\PSoC6\pdl\drivers/peripheral/syslib/cy_syslib.h **** * macro is passed. \n 
  83:Generated_Source\PSoC6\pdl\drivers/peripheral/syslib/cy_syslib.h **** * Enabling any class also enables any lower-numbered class.
  84:Generated_Source\PSoC6\pdl\drivers/peripheral/syslib/cy_syslib.h **** * CY_ASSERT_CLASS_3 is the default level, and it enables asserts for all three
  85:Generated_Source\PSoC6\pdl\drivers/peripheral/syslib/cy_syslib.h **** * classes. The following example shows the command-line option to enable all
  86:Generated_Source\PSoC6\pdl\drivers/peripheral/syslib/cy_syslib.h **** * the assert levels:
  87:Generated_Source\PSoC6\pdl\drivers/peripheral/syslib/cy_syslib.h **** * \code -D CY_ASSERT_LEVEL=CY_ASSERT_CLASS_3 \endcode
  88:Generated_Source\PSoC6\pdl\drivers/peripheral/syslib/cy_syslib.h **** * \note The use of special characters, such as spaces, parenthesis, etc. must
  89:Generated_Source\PSoC6\pdl\drivers/peripheral/syslib/cy_syslib.h **** * be protected with quotes. 
  90:Generated_Source\PSoC6\pdl\drivers/peripheral/syslib/cy_syslib.h **** * 
  91:Generated_Source\PSoC6\pdl\drivers/peripheral/syslib/cy_syslib.h **** * After CY_ASSERT_LEVEL is defined, firmware can use
  92:Generated_Source\PSoC6\pdl\drivers/peripheral/syslib/cy_syslib.h **** * one of the three level macros to make an assertion. For example, if the
  93:Generated_Source\PSoC6\pdl\drivers/peripheral/syslib/cy_syslib.h **** * parameter can vary between devices, firmware uses the L1 macro.
  94:Generated_Source\PSoC6\pdl\drivers/peripheral/syslib/cy_syslib.h **** * \code CY_ASSERT_L1(clkPath < SRSS_NUM_CLKPATH); \endcode
  95:Generated_Source\PSoC6\pdl\drivers/peripheral/syslib/cy_syslib.h **** * If the parameter has bounds, firmware uses L2.
  96:Generated_Source\PSoC6\pdl\drivers/peripheral/syslib/cy_syslib.h **** * \code CY_ASSERT_L2(trim <= CY_CTB_TRIM_VALUE_MAX); \endcode
  97:Generated_Source\PSoC6\pdl\drivers/peripheral/syslib/cy_syslib.h **** * If the parameter is an enum, firmware uses L3.
  98:Generated_Source\PSoC6\pdl\drivers/peripheral/syslib/cy_syslib.h **** * \code CY_ASSERT_L3(config->LossAction <= CY_SYSCLK_CSV_ERROR_FAULT_RESET); \endcode
  99:Generated_Source\PSoC6\pdl\drivers/peripheral/syslib/cy_syslib.h **** * Each check uses the appropriate level macro for the kind of parameter being checked.
 100:Generated_Source\PSoC6\pdl\drivers/peripheral/syslib/cy_syslib.h **** * If a particular assert class/level is not enabled, then the assert does nothing.
 101:Generated_Source\PSoC6\pdl\drivers/peripheral/syslib/cy_syslib.h **** *
 102:Generated_Source\PSoC6\pdl\drivers/peripheral/syslib/cy_syslib.h **** * \section group_syslib_more_information More Information
 103:Generated_Source\PSoC6\pdl\drivers/peripheral/syslib/cy_syslib.h **** * Refer to the technical reference manual (TRM).
 104:Generated_Source\PSoC6\pdl\drivers/peripheral/syslib/cy_syslib.h **** *
 105:Generated_Source\PSoC6\pdl\drivers/peripheral/syslib/cy_syslib.h **** * \section group_syslib_MISRA MISRA-C Compliance
 106:Generated_Source\PSoC6\pdl\drivers/peripheral/syslib/cy_syslib.h **** * <table class="doxtable">
 107:Generated_Source\PSoC6\pdl\drivers/peripheral/syslib/cy_syslib.h **** *   <tr>
 108:Generated_Source\PSoC6\pdl\drivers/peripheral/syslib/cy_syslib.h **** *     <th>MISRA Rule</th>
ARM GAS  C:\Users\Rolf\AppData\Local\Temp\ccafVfle.s 			page 30


 109:Generated_Source\PSoC6\pdl\drivers/peripheral/syslib/cy_syslib.h **** *     <th>Rule Class (Required/Advisory)</th>
 110:Generated_Source\PSoC6\pdl\drivers/peripheral/syslib/cy_syslib.h **** *     <th>Rule Description</th>
 111:Generated_Source\PSoC6\pdl\drivers/peripheral/syslib/cy_syslib.h **** *     <th>Description of Deviation(s)</th>
 112:Generated_Source\PSoC6\pdl\drivers/peripheral/syslib/cy_syslib.h **** *   </tr>
 113:Generated_Source\PSoC6\pdl\drivers/peripheral/syslib/cy_syslib.h **** *   <tr>
 114:Generated_Source\PSoC6\pdl\drivers/peripheral/syslib/cy_syslib.h **** *     <td>1.2</td>
 115:Generated_Source\PSoC6\pdl\drivers/peripheral/syslib/cy_syslib.h **** *     <td>R</td>
 116:Generated_Source\PSoC6\pdl\drivers/peripheral/syslib/cy_syslib.h **** *     <td>No reliance shall be placed on undefined or unspecified behaviour.</td>
 117:Generated_Source\PSoC6\pdl\drivers/peripheral/syslib/cy_syslib.h **** *     <td>This specific behavior is explicitly covered in rule 20.1.</td>
 118:Generated_Source\PSoC6\pdl\drivers/peripheral/syslib/cy_syslib.h **** *   </tr>
 119:Generated_Source\PSoC6\pdl\drivers/peripheral/syslib/cy_syslib.h **** *   <tr>
 120:Generated_Source\PSoC6\pdl\drivers/peripheral/syslib/cy_syslib.h **** *     <td>2.1</td>
 121:Generated_Source\PSoC6\pdl\drivers/peripheral/syslib/cy_syslib.h **** *     <td>R</td>
 122:Generated_Source\PSoC6\pdl\drivers/peripheral/syslib/cy_syslib.h **** *     <td>This function contains a mixture of in-line assembler statements and C statements.</td>
 123:Generated_Source\PSoC6\pdl\drivers/peripheral/syslib/cy_syslib.h **** *     <td>This si required by design of the Cy_SysLib_Halt function.</td>
 124:Generated_Source\PSoC6\pdl\drivers/peripheral/syslib/cy_syslib.h **** *   </tr>
 125:Generated_Source\PSoC6\pdl\drivers/peripheral/syslib/cy_syslib.h **** *   <tr>
 126:Generated_Source\PSoC6\pdl\drivers/peripheral/syslib/cy_syslib.h **** *     <td>18.4</td>
 127:Generated_Source\PSoC6\pdl\drivers/peripheral/syslib/cy_syslib.h **** *     <td>R</td>
 128:Generated_Source\PSoC6\pdl\drivers/peripheral/syslib/cy_syslib.h **** *     <td>Unions shall not be used.</td>
 129:Generated_Source\PSoC6\pdl\drivers/peripheral/syslib/cy_syslib.h **** *     <td>The unions are used for CFSR, HFSR and SHCSR Fault Status Registers
 130:Generated_Source\PSoC6\pdl\drivers/peripheral/syslib/cy_syslib.h **** *         content access as a word in code and as a structure during debug.</td>
 131:Generated_Source\PSoC6\pdl\drivers/peripheral/syslib/cy_syslib.h **** *   </tr>
 132:Generated_Source\PSoC6\pdl\drivers/peripheral/syslib/cy_syslib.h **** *   <tr>
 133:Generated_Source\PSoC6\pdl\drivers/peripheral/syslib/cy_syslib.h **** *     <td>19.13</td>
 134:Generated_Source\PSoC6\pdl\drivers/peripheral/syslib/cy_syslib.h **** *     <td>A</td>
 135:Generated_Source\PSoC6\pdl\drivers/peripheral/syslib/cy_syslib.h **** *     <td>The # and ## operators should not be used.</td>
 136:Generated_Source\PSoC6\pdl\drivers/peripheral/syslib/cy_syslib.h **** *     <td>The ## preprocessor operator is used in macros to form the field mask.</td>
 137:Generated_Source\PSoC6\pdl\drivers/peripheral/syslib/cy_syslib.h **** *   </tr>
 138:Generated_Source\PSoC6\pdl\drivers/peripheral/syslib/cy_syslib.h **** *   <tr>
 139:Generated_Source\PSoC6\pdl\drivers/peripheral/syslib/cy_syslib.h **** *     <td>20.1</td>
 140:Generated_Source\PSoC6\pdl\drivers/peripheral/syslib/cy_syslib.h **** *     <td>R</td>
 141:Generated_Source\PSoC6\pdl\drivers/peripheral/syslib/cy_syslib.h **** *     <td>Reserved identifiers, macros and functions in the standard library, shall not be 
 142:Generated_Source\PSoC6\pdl\drivers/peripheral/syslib/cy_syslib.h **** *         defined, redefined or undefined.</td>
 143:Generated_Source\PSoC6\pdl\drivers/peripheral/syslib/cy_syslib.h **** *     <td>The driver defines the macros with leading underscores 
 144:Generated_Source\PSoC6\pdl\drivers/peripheral/syslib/cy_syslib.h **** *         (_CLR_SET_FLD/_BOOL2FLD/_FLD2BOOL) and therefore generates this MISRA violation.</td>
 145:Generated_Source\PSoC6\pdl\drivers/peripheral/syslib/cy_syslib.h **** *   </tr>
 146:Generated_Source\PSoC6\pdl\drivers/peripheral/syslib/cy_syslib.h **** * </table>
 147:Generated_Source\PSoC6\pdl\drivers/peripheral/syslib/cy_syslib.h **** *
 148:Generated_Source\PSoC6\pdl\drivers/peripheral/syslib/cy_syslib.h **** * \section group_syslib_changelog Changelog
 149:Generated_Source\PSoC6\pdl\drivers/peripheral/syslib/cy_syslib.h **** * <table class="doxtable">
 150:Generated_Source\PSoC6\pdl\drivers/peripheral/syslib/cy_syslib.h **** *   <tr><th>Version</th><th>Changes</th><th>Reason for Change</th></tr>
 151:Generated_Source\PSoC6\pdl\drivers/peripheral/syslib/cy_syslib.h **** *   <tr>
 152:Generated_Source\PSoC6\pdl\drivers/peripheral/syslib/cy_syslib.h **** *     <td rowspan="4">2.10</td>
 153:Generated_Source\PSoC6\pdl\drivers/peripheral/syslib/cy_syslib.h **** *     <td>Flattened the organization of the driver source code into the single source directory and
 154:Generated_Source\PSoC6\pdl\drivers/peripheral/syslib/cy_syslib.h **** *     <td>Driver library directory-structure simplification.</td>
 155:Generated_Source\PSoC6\pdl\drivers/peripheral/syslib/cy_syslib.h **** *   </tr>
 156:Generated_Source\PSoC6\pdl\drivers/peripheral/syslib/cy_syslib.h **** *   <tr>
 157:Generated_Source\PSoC6\pdl\drivers/peripheral/syslib/cy_syslib.h **** *     <td>Added the following macros: \ref CY_REG32_CLR_SET, \ref _CLR_SET_FLD16U, \ref CY_REG16_CL
 158:Generated_Source\PSoC6\pdl\drivers/peripheral/syslib/cy_syslib.h **** *     <td>Register access simplification.</td>
 159:Generated_Source\PSoC6\pdl\drivers/peripheral/syslib/cy_syslib.h **** *   </tr>
 160:Generated_Source\PSoC6\pdl\drivers/peripheral/syslib/cy_syslib.h **** *   <tr>
 161:Generated_Source\PSoC6\pdl\drivers/peripheral/syslib/cy_syslib.h **** *     <td>Removed the Cy_SysLib_GetNumHfclkResetCause API function.</td>
 162:Generated_Source\PSoC6\pdl\drivers/peripheral/syslib/cy_syslib.h **** *     <td>This feature is not supported by SRSS_ver1.</td>
 163:Generated_Source\PSoC6\pdl\drivers/peripheral/syslib/cy_syslib.h **** *   </tr>
 164:Generated_Source\PSoC6\pdl\drivers/peripheral/syslib/cy_syslib.h **** *   <tr>
 165:Generated_Source\PSoC6\pdl\drivers/peripheral/syslib/cy_syslib.h **** *     <td>Added register access layer. Use register access macros instead
ARM GAS  C:\Users\Rolf\AppData\Local\Temp\ccafVfle.s 			page 31


 166:Generated_Source\PSoC6\pdl\drivers/peripheral/syslib/cy_syslib.h **** *         of direct register access using dereferenced pointers.</td>
 167:Generated_Source\PSoC6\pdl\drivers/peripheral/syslib/cy_syslib.h **** *     <td>Makes register access device-independent, so that the PDL does 
 168:Generated_Source\PSoC6\pdl\drivers/peripheral/syslib/cy_syslib.h **** *         not need to be recompiled for each supported part number.</td>
 169:Generated_Source\PSoC6\pdl\drivers/peripheral/syslib/cy_syslib.h **** *   </tr>
 170:Generated_Source\PSoC6\pdl\drivers/peripheral/syslib/cy_syslib.h **** *   <tr>
 171:Generated_Source\PSoC6\pdl\drivers/peripheral/syslib/cy_syslib.h **** *     <td>2.0.1</td>
 172:Generated_Source\PSoC6\pdl\drivers/peripheral/syslib/cy_syslib.h **** *     <td>Minor documentation edits</td>
 173:Generated_Source\PSoC6\pdl\drivers/peripheral/syslib/cy_syslib.h **** *     <td>Documentation update and clarification</td>
 174:Generated_Source\PSoC6\pdl\drivers/peripheral/syslib/cy_syslib.h **** *   </tr>
 175:Generated_Source\PSoC6\pdl\drivers/peripheral/syslib/cy_syslib.h **** *   <tr>
 176:Generated_Source\PSoC6\pdl\drivers/peripheral/syslib/cy_syslib.h **** *     <td rowspan="4"> 2.0</td>
 177:Generated_Source\PSoC6\pdl\drivers/peripheral/syslib/cy_syslib.h **** *     <td>
 178:Generated_Source\PSoC6\pdl\drivers/peripheral/syslib/cy_syslib.h **** * Added Cy_SysLib_ResetBackupDomain() API implementation. \n
 179:Generated_Source\PSoC6\pdl\drivers/peripheral/syslib/cy_syslib.h **** * Added CY_NOINLINE attribute implementation. \n
 180:Generated_Source\PSoC6\pdl\drivers/peripheral/syslib/cy_syslib.h **** * Added DIE_YEAR field to 64-bit unique ID return value of Cy_SysLib_GetUniqueId() API. \n
 181:Generated_Source\PSoC6\pdl\drivers/peripheral/syslib/cy_syslib.h **** * Added storing of SCB->HFSR, SCB->SHCSR registers and SCB->MMFAR, SCB->BFAR addresses to Fault Han
 182:Generated_Source\PSoC6\pdl\drivers/peripheral/syslib/cy_syslib.h **** * Optimized Cy_SysLib_SetWaitStates() API implementation.
 183:Generated_Source\PSoC6\pdl\drivers/peripheral/syslib/cy_syslib.h **** *     </td>
 184:Generated_Source\PSoC6\pdl\drivers/peripheral/syslib/cy_syslib.h **** *     <td>Improvements made based on usability feedback.</td>
 185:Generated_Source\PSoC6\pdl\drivers/peripheral/syslib/cy_syslib.h **** *   </tr>
 186:Generated_Source\PSoC6\pdl\drivers/peripheral/syslib/cy_syslib.h **** *   <tr>
 187:Generated_Source\PSoC6\pdl\drivers/peripheral/syslib/cy_syslib.h **** *     <td>Added Assertion Classes and Levels.</td>
 188:Generated_Source\PSoC6\pdl\drivers/peripheral/syslib/cy_syslib.h **** *     <td>For error checking, parameter validation and status returns in the PDL API.</td>
 189:Generated_Source\PSoC6\pdl\drivers/peripheral/syslib/cy_syslib.h **** *   </tr>
 190:Generated_Source\PSoC6\pdl\drivers/peripheral/syslib/cy_syslib.h **** *   <tr>
 191:Generated_Source\PSoC6\pdl\drivers/peripheral/syslib/cy_syslib.h **** *     <td>Applied CY_NOINIT attribute to cy_assertFileName, cy_assertLine, and cy_faultFrame global
 192:Generated_Source\PSoC6\pdl\drivers/peripheral/syslib/cy_syslib.h **** *     <td>To store debug information into a non-zero init area for future analysis.</td>
 193:Generated_Source\PSoC6\pdl\drivers/peripheral/syslib/cy_syslib.h **** *   </tr>
 194:Generated_Source\PSoC6\pdl\drivers/peripheral/syslib/cy_syslib.h **** *   <tr>
 195:Generated_Source\PSoC6\pdl\drivers/peripheral/syslib/cy_syslib.h **** *     <td>Removed CY_WEAK attribute implementation.</td>
 196:Generated_Source\PSoC6\pdl\drivers/peripheral/syslib/cy_syslib.h **** *     <td>CMSIS __WEAK attribute should be used instead.</td>
 197:Generated_Source\PSoC6\pdl\drivers/peripheral/syslib/cy_syslib.h **** *   </tr>
 198:Generated_Source\PSoC6\pdl\drivers/peripheral/syslib/cy_syslib.h **** *   <tr>
 199:Generated_Source\PSoC6\pdl\drivers/peripheral/syslib/cy_syslib.h **** *     <td>1.0</td>
 200:Generated_Source\PSoC6\pdl\drivers/peripheral/syslib/cy_syslib.h **** *     <td>Initial version</td>
 201:Generated_Source\PSoC6\pdl\drivers/peripheral/syslib/cy_syslib.h **** *     <td></td>
 202:Generated_Source\PSoC6\pdl\drivers/peripheral/syslib/cy_syslib.h **** *   </tr>
 203:Generated_Source\PSoC6\pdl\drivers/peripheral/syslib/cy_syslib.h **** * </table>
 204:Generated_Source\PSoC6\pdl\drivers/peripheral/syslib/cy_syslib.h **** *
 205:Generated_Source\PSoC6\pdl\drivers/peripheral/syslib/cy_syslib.h **** * \defgroup group_syslib_macros Macros
 206:Generated_Source\PSoC6\pdl\drivers/peripheral/syslib/cy_syslib.h **** * \defgroup group_syslib_functions Functions
 207:Generated_Source\PSoC6\pdl\drivers/peripheral/syslib/cy_syslib.h **** * \defgroup group_syslib_data_structures Data Structures
 208:Generated_Source\PSoC6\pdl\drivers/peripheral/syslib/cy_syslib.h **** * \defgroup group_syslib_enumerated_types Enumerated Types
 209:Generated_Source\PSoC6\pdl\drivers/peripheral/syslib/cy_syslib.h **** *
 210:Generated_Source\PSoC6\pdl\drivers/peripheral/syslib/cy_syslib.h **** */
 211:Generated_Source\PSoC6\pdl\drivers/peripheral/syslib/cy_syslib.h **** 
 212:Generated_Source\PSoC6\pdl\drivers/peripheral/syslib/cy_syslib.h **** #if !defined(CY_SYSLIB_H)
 213:Generated_Source\PSoC6\pdl\drivers/peripheral/syslib/cy_syslib.h **** #define CY_SYSLIB_H
 214:Generated_Source\PSoC6\pdl\drivers/peripheral/syslib/cy_syslib.h **** 
 215:Generated_Source\PSoC6\pdl\drivers/peripheral/syslib/cy_syslib.h **** #include <stdint.h>
 216:Generated_Source\PSoC6\pdl\drivers/peripheral/syslib/cy_syslib.h **** #include <stdbool.h>
 217:Generated_Source\PSoC6\pdl\drivers/peripheral/syslib/cy_syslib.h **** #include "cy_device.h"
 218:Generated_Source\PSoC6\pdl\drivers/peripheral/syslib/cy_syslib.h **** #include "cy_device_headers.h"
 219:Generated_Source\PSoC6\pdl\drivers/peripheral/syslib/cy_syslib.h **** 
 220:Generated_Source\PSoC6\pdl\drivers/peripheral/syslib/cy_syslib.h **** #if defined(__cplusplus)
 221:Generated_Source\PSoC6\pdl\drivers/peripheral/syslib/cy_syslib.h **** extern "C" {
 222:Generated_Source\PSoC6\pdl\drivers/peripheral/syslib/cy_syslib.h **** #endif /* defined(__cplusplus) */
ARM GAS  C:\Users\Rolf\AppData\Local\Temp\ccafVfle.s 			page 32


 223:Generated_Source\PSoC6\pdl\drivers/peripheral/syslib/cy_syslib.h **** 
 224:Generated_Source\PSoC6\pdl\drivers/peripheral/syslib/cy_syslib.h **** #if defined( __ICCARM__ )
 225:Generated_Source\PSoC6\pdl\drivers/peripheral/syslib/cy_syslib.h ****     /* Suppress the warning for multiple volatile variables in an expression. */
 226:Generated_Source\PSoC6\pdl\drivers/peripheral/syslib/cy_syslib.h ****     /* This is common for driver's code and the usage is not order-dependent. */
 227:Generated_Source\PSoC6\pdl\drivers/peripheral/syslib/cy_syslib.h ****     #pragma diag_suppress=Pa082
 228:Generated_Source\PSoC6\pdl\drivers/peripheral/syslib/cy_syslib.h **** #endif  /* defined( __ICCARM__ ) */
 229:Generated_Source\PSoC6\pdl\drivers/peripheral/syslib/cy_syslib.h **** 
 230:Generated_Source\PSoC6\pdl\drivers/peripheral/syslib/cy_syslib.h **** /**
 231:Generated_Source\PSoC6\pdl\drivers/peripheral/syslib/cy_syslib.h **** * \addtogroup group_syslib_macros
 232:Generated_Source\PSoC6\pdl\drivers/peripheral/syslib/cy_syslib.h **** * \{
 233:Generated_Source\PSoC6\pdl\drivers/peripheral/syslib/cy_syslib.h **** */
 234:Generated_Source\PSoC6\pdl\drivers/peripheral/syslib/cy_syslib.h **** 
 235:Generated_Source\PSoC6\pdl\drivers/peripheral/syslib/cy_syslib.h **** /******************************************************************************
 236:Generated_Source\PSoC6\pdl\drivers/peripheral/syslib/cy_syslib.h **** * Macros
 237:Generated_Source\PSoC6\pdl\drivers/peripheral/syslib/cy_syslib.h **** *****************************************************************************/
 238:Generated_Source\PSoC6\pdl\drivers/peripheral/syslib/cy_syslib.h **** 
 239:Generated_Source\PSoC6\pdl\drivers/peripheral/syslib/cy_syslib.h **** #define CY_CPU_CORTEX_M0P   (__CORTEX_M == 0)    /**< CM0+ core CPU Code */
 240:Generated_Source\PSoC6\pdl\drivers/peripheral/syslib/cy_syslib.h **** #define CY_CPU_CORTEX_M4    (__CORTEX_M == 4)    /**< CM4  core CPU Code */
 241:Generated_Source\PSoC6\pdl\drivers/peripheral/syslib/cy_syslib.h **** 
 242:Generated_Source\PSoC6\pdl\drivers/peripheral/syslib/cy_syslib.h **** /** The macro to disable the Fault Handler */
 243:Generated_Source\PSoC6\pdl\drivers/peripheral/syslib/cy_syslib.h **** #define CY_ARM_FAULT_DEBUG_DISABLED    (0U)
 244:Generated_Source\PSoC6\pdl\drivers/peripheral/syslib/cy_syslib.h **** /** The macro to enable the Fault Handler */
 245:Generated_Source\PSoC6\pdl\drivers/peripheral/syslib/cy_syslib.h **** #define CY_ARM_FAULT_DEBUG_ENABLED     (1U)
 246:Generated_Source\PSoC6\pdl\drivers/peripheral/syslib/cy_syslib.h **** 
 247:Generated_Source\PSoC6\pdl\drivers/peripheral/syslib/cy_syslib.h **** #if !defined(CY_ARM_FAULT_DEBUG)
 248:Generated_Source\PSoC6\pdl\drivers/peripheral/syslib/cy_syslib.h ****     /** The macro defines if the Fault Handler is enabled. Enabled by default. */
 249:Generated_Source\PSoC6\pdl\drivers/peripheral/syslib/cy_syslib.h ****     #define CY_ARM_FAULT_DEBUG         (CY_ARM_FAULT_DEBUG_ENABLED)
 250:Generated_Source\PSoC6\pdl\drivers/peripheral/syslib/cy_syslib.h **** #endif /* CY_ARM_FAULT_DEBUG */
 251:Generated_Source\PSoC6\pdl\drivers/peripheral/syslib/cy_syslib.h **** 
 252:Generated_Source\PSoC6\pdl\drivers/peripheral/syslib/cy_syslib.h **** /**
 253:Generated_Source\PSoC6\pdl\drivers/peripheral/syslib/cy_syslib.h **** * \defgroup group_syslib_macros_status_codes Status codes
 254:Generated_Source\PSoC6\pdl\drivers/peripheral/syslib/cy_syslib.h **** * \{
 255:Generated_Source\PSoC6\pdl\drivers/peripheral/syslib/cy_syslib.h **** * Function status type codes
 256:Generated_Source\PSoC6\pdl\drivers/peripheral/syslib/cy_syslib.h **** */
 257:Generated_Source\PSoC6\pdl\drivers/peripheral/syslib/cy_syslib.h **** #define CY_PDL_STATUS_CODE_Pos  (0U)        /**< The module status code position in the status code
 258:Generated_Source\PSoC6\pdl\drivers/peripheral/syslib/cy_syslib.h **** #define CY_PDL_STATUS_TYPE_Pos  (16U)       /**< The status type position in the status code */
 259:Generated_Source\PSoC6\pdl\drivers/peripheral/syslib/cy_syslib.h **** #define CY_PDL_MODULE_ID_Pos    (18U)       /**< The software module ID position in the status code
 260:Generated_Source\PSoC6\pdl\drivers/peripheral/syslib/cy_syslib.h **** #define CY_PDL_STATUS_INFO      (0UL << CY_PDL_STATUS_TYPE_Pos)    /**< The information status type
 261:Generated_Source\PSoC6\pdl\drivers/peripheral/syslib/cy_syslib.h **** #define CY_PDL_STATUS_WARNING   (1UL << CY_PDL_STATUS_TYPE_Pos)    /**< The warning status type */
 262:Generated_Source\PSoC6\pdl\drivers/peripheral/syslib/cy_syslib.h **** #define CY_PDL_STATUS_ERROR     (2UL << CY_PDL_STATUS_TYPE_Pos)    /**< The error status type */
 263:Generated_Source\PSoC6\pdl\drivers/peripheral/syslib/cy_syslib.h **** #define CY_PDL_MODULE_ID_Msk    (0x3FFFU)   /**< The software module ID mask */
 264:Generated_Source\PSoC6\pdl\drivers/peripheral/syslib/cy_syslib.h **** /** Get the software PDL module ID */
 265:Generated_Source\PSoC6\pdl\drivers/peripheral/syslib/cy_syslib.h **** #define CY_PDL_DRV_ID(id)       ((uint32_t)((uint32_t)((id) & CY_PDL_MODULE_ID_Msk) << CY_PDL_MODUL
 266:Generated_Source\PSoC6\pdl\drivers/peripheral/syslib/cy_syslib.h **** #define CY_SYSLIB_ID            CY_PDL_DRV_ID(0x11U)     /**< SYSLIB PDL ID */
 267:Generated_Source\PSoC6\pdl\drivers/peripheral/syslib/cy_syslib.h **** /** \} group_syslib_macros_status_codes */
 268:Generated_Source\PSoC6\pdl\drivers/peripheral/syslib/cy_syslib.h **** 
 269:Generated_Source\PSoC6\pdl\drivers/peripheral/syslib/cy_syslib.h **** /** \} group_syslib_macros */
 270:Generated_Source\PSoC6\pdl\drivers/peripheral/syslib/cy_syslib.h **** 
 271:Generated_Source\PSoC6\pdl\drivers/peripheral/syslib/cy_syslib.h **** /**
 272:Generated_Source\PSoC6\pdl\drivers/peripheral/syslib/cy_syslib.h **** * \addtogroup group_syslib_enumerated_types
 273:Generated_Source\PSoC6\pdl\drivers/peripheral/syslib/cy_syslib.h **** * \{
 274:Generated_Source\PSoC6\pdl\drivers/peripheral/syslib/cy_syslib.h **** */
 275:Generated_Source\PSoC6\pdl\drivers/peripheral/syslib/cy_syslib.h **** 
 276:Generated_Source\PSoC6\pdl\drivers/peripheral/syslib/cy_syslib.h **** /** The SysLib status code structure. */
 277:Generated_Source\PSoC6\pdl\drivers/peripheral/syslib/cy_syslib.h **** typedef enum
 278:Generated_Source\PSoC6\pdl\drivers/peripheral/syslib/cy_syslib.h **** {
 279:Generated_Source\PSoC6\pdl\drivers/peripheral/syslib/cy_syslib.h ****     CY_SYSLIB_SUCCESS       = 0x00UL,    /**< The success status code */
ARM GAS  C:\Users\Rolf\AppData\Local\Temp\ccafVfle.s 			page 33


 280:Generated_Source\PSoC6\pdl\drivers/peripheral/syslib/cy_syslib.h ****     CY_SYSLIB_BAD_PARAM     = CY_SYSLIB_ID | CY_PDL_STATUS_ERROR | 0x01UL,    /**< The bad paramete
 281:Generated_Source\PSoC6\pdl\drivers/peripheral/syslib/cy_syslib.h ****     CY_SYSLIB_TIMEOUT       = CY_SYSLIB_ID | CY_PDL_STATUS_ERROR | 0x02UL,    /**< The time out sta
 282:Generated_Source\PSoC6\pdl\drivers/peripheral/syslib/cy_syslib.h ****     CY_SYSLIB_INVALID_STATE = CY_SYSLIB_ID | CY_PDL_STATUS_ERROR | 0x03UL,    /**< The invalid stat
 283:Generated_Source\PSoC6\pdl\drivers/peripheral/syslib/cy_syslib.h ****     CY_SYSLIB_UNKNOWN       = CY_SYSLIB_ID | CY_PDL_STATUS_ERROR | 0xFFUL     /**< Unknown status c
 284:Generated_Source\PSoC6\pdl\drivers/peripheral/syslib/cy_syslib.h **** } cy_en_syslib_status_t;
 285:Generated_Source\PSoC6\pdl\drivers/peripheral/syslib/cy_syslib.h **** 
 286:Generated_Source\PSoC6\pdl\drivers/peripheral/syslib/cy_syslib.h **** /** \} group_syslib_enumerated_types */
 287:Generated_Source\PSoC6\pdl\drivers/peripheral/syslib/cy_syslib.h **** /**
 288:Generated_Source\PSoC6\pdl\drivers/peripheral/syslib/cy_syslib.h **** * \addtogroup group_syslib_data_structures
 289:Generated_Source\PSoC6\pdl\drivers/peripheral/syslib/cy_syslib.h **** * \{
 290:Generated_Source\PSoC6\pdl\drivers/peripheral/syslib/cy_syslib.h **** */
 291:Generated_Source\PSoC6\pdl\drivers/peripheral/syslib/cy_syslib.h **** 
 292:Generated_Source\PSoC6\pdl\drivers/peripheral/syslib/cy_syslib.h **** #if (CY_ARM_FAULT_DEBUG == CY_ARM_FAULT_DEBUG_ENABLED)
 293:Generated_Source\PSoC6\pdl\drivers/peripheral/syslib/cy_syslib.h ****     #if (CY_CPU_CORTEX_M4)
 294:Generated_Source\PSoC6\pdl\drivers/peripheral/syslib/cy_syslib.h ****         /** Configurable Fault Status Register - CFSR */
 295:Generated_Source\PSoC6\pdl\drivers/peripheral/syslib/cy_syslib.h ****         typedef struct
 296:Generated_Source\PSoC6\pdl\drivers/peripheral/syslib/cy_syslib.h ****         {
 297:Generated_Source\PSoC6\pdl\drivers/peripheral/syslib/cy_syslib.h ****             /** MemManage Fault Status Sub-register - MMFSR */
 298:Generated_Source\PSoC6\pdl\drivers/peripheral/syslib/cy_syslib.h ****             uint32_t iaccViol    : 1;  /**< MemManage Fault - The instruction access violation flag
 299:Generated_Source\PSoC6\pdl\drivers/peripheral/syslib/cy_syslib.h ****             uint32_t daccViol    : 1;  /**< MemManage Fault - The data access violation flag */
 300:Generated_Source\PSoC6\pdl\drivers/peripheral/syslib/cy_syslib.h ****             uint32_t reserved1   : 1;  /**< Reserved */
 301:Generated_Source\PSoC6\pdl\drivers/peripheral/syslib/cy_syslib.h ****             uint32_t mUnstkErr   : 1;  /**< MemManage Fault - Unstacking for a return from exceptio
 302:Generated_Source\PSoC6\pdl\drivers/peripheral/syslib/cy_syslib.h ****             uint32_t mStkErr     : 1;  /**< MemManage Fault - MemManage fault on stacking for excep
 303:Generated_Source\PSoC6\pdl\drivers/peripheral/syslib/cy_syslib.h ****             uint32_t mlspErr     : 1;  /**< MemManage Fault - MemManage fault occurred during float
 304:Generated_Source\PSoC6\pdl\drivers/peripheral/syslib/cy_syslib.h ****             uint32_t reserved2   : 1;  /**< Reserved */
 305:Generated_Source\PSoC6\pdl\drivers/peripheral/syslib/cy_syslib.h ****             uint32_t mmarValid   : 1;  /**< MemManage Fault - The MemManage Address register valid 
 306:Generated_Source\PSoC6\pdl\drivers/peripheral/syslib/cy_syslib.h ****             /** Bus Fault Status Sub-register - UFSR */
 307:Generated_Source\PSoC6\pdl\drivers/peripheral/syslib/cy_syslib.h ****             uint32_t iBusErr     : 1;  /**< Bus Fault - The instruction bus error */
 308:Generated_Source\PSoC6\pdl\drivers/peripheral/syslib/cy_syslib.h ****             uint32_t precisErr   : 1;  /**< Bus Fault - The precise Data bus error */
 309:Generated_Source\PSoC6\pdl\drivers/peripheral/syslib/cy_syslib.h ****             uint32_t imprecisErr : 1;  /**< Bus Fault - The imprecise data bus error */
 310:Generated_Source\PSoC6\pdl\drivers/peripheral/syslib/cy_syslib.h ****             uint32_t unstkErr    : 1;  /**< Bus Fault - Unstacking for an exception return has caus
 311:Generated_Source\PSoC6\pdl\drivers/peripheral/syslib/cy_syslib.h ****             uint32_t stkErr      : 1;  /**< Bus Fault - Stacking for an exception entry has caused 
 312:Generated_Source\PSoC6\pdl\drivers/peripheral/syslib/cy_syslib.h ****             uint32_t lspErr      : 1;  /**< Bus Fault - A bus fault occurred during the floating-po
 313:Generated_Source\PSoC6\pdl\drivers/peripheral/syslib/cy_syslib.h ****             uint32_t reserved3   : 1;  /**< Reserved */
 314:Generated_Source\PSoC6\pdl\drivers/peripheral/syslib/cy_syslib.h ****             uint32_t bfarValid   : 1;  /**< Bus Fault - The bus fault address register valid flag *
 315:Generated_Source\PSoC6\pdl\drivers/peripheral/syslib/cy_syslib.h ****             /** Usage Fault Status Sub-register - UFSR */
 316:Generated_Source\PSoC6\pdl\drivers/peripheral/syslib/cy_syslib.h ****             uint32_t undefInstr  : 1;  /**< Usage Fault - An undefined instruction */
 317:Generated_Source\PSoC6\pdl\drivers/peripheral/syslib/cy_syslib.h ****             uint32_t invState    : 1;  /**< Usage Fault - The invalid state */
 318:Generated_Source\PSoC6\pdl\drivers/peripheral/syslib/cy_syslib.h ****             uint32_t invPC       : 1;  /**< Usage Fault - An invalid PC */
 319:Generated_Source\PSoC6\pdl\drivers/peripheral/syslib/cy_syslib.h ****             uint32_t noCP        : 1;  /**< Usage Fault - No coprocessor */
 320:Generated_Source\PSoC6\pdl\drivers/peripheral/syslib/cy_syslib.h ****             uint32_t reserved4   : 4;  /**< Reserved */
 321:Generated_Source\PSoC6\pdl\drivers/peripheral/syslib/cy_syslib.h ****             uint32_t unaligned   : 1;  /**< Usage Fault - Unaligned access */
 322:Generated_Source\PSoC6\pdl\drivers/peripheral/syslib/cy_syslib.h ****             uint32_t divByZero   : 1;  /**< Usage Fault - Divide by zero */
 323:Generated_Source\PSoC6\pdl\drivers/peripheral/syslib/cy_syslib.h ****             uint32_t reserved5   : 6;  /**< Reserved */
 324:Generated_Source\PSoC6\pdl\drivers/peripheral/syslib/cy_syslib.h ****         } cy_stc_fault_cfsr_t;
 325:Generated_Source\PSoC6\pdl\drivers/peripheral/syslib/cy_syslib.h **** 
 326:Generated_Source\PSoC6\pdl\drivers/peripheral/syslib/cy_syslib.h ****         /** Hard Fault Status Register - HFSR */
 327:Generated_Source\PSoC6\pdl\drivers/peripheral/syslib/cy_syslib.h ****         typedef struct
 328:Generated_Source\PSoC6\pdl\drivers/peripheral/syslib/cy_syslib.h ****         {
 329:Generated_Source\PSoC6\pdl\drivers/peripheral/syslib/cy_syslib.h ****             uint32_t reserved1   :  1;   /**< Reserved. */
 330:Generated_Source\PSoC6\pdl\drivers/peripheral/syslib/cy_syslib.h ****             uint32_t vectTbl     :  1;   /**< HFSR - Indicates a bus fault on a vector table read d
 331:Generated_Source\PSoC6\pdl\drivers/peripheral/syslib/cy_syslib.h ****             uint32_t reserved2   : 28;   /**< Reserved. */
 332:Generated_Source\PSoC6\pdl\drivers/peripheral/syslib/cy_syslib.h ****             uint32_t forced      :  1;   /**< HFSR - Indicates a forced hard fault */
 333:Generated_Source\PSoC6\pdl\drivers/peripheral/syslib/cy_syslib.h ****             uint32_t debugEvt    :  1;   /**< HFSR - Reserved for the debug use.  */
 334:Generated_Source\PSoC6\pdl\drivers/peripheral/syslib/cy_syslib.h ****         } cy_stc_fault_hfsr_t;
 335:Generated_Source\PSoC6\pdl\drivers/peripheral/syslib/cy_syslib.h **** 
 336:Generated_Source\PSoC6\pdl\drivers/peripheral/syslib/cy_syslib.h ****         /** System Handler Control and State Register - SHCSR */
ARM GAS  C:\Users\Rolf\AppData\Local\Temp\ccafVfle.s 			page 34


 337:Generated_Source\PSoC6\pdl\drivers/peripheral/syslib/cy_syslib.h ****         typedef struct
 338:Generated_Source\PSoC6\pdl\drivers/peripheral/syslib/cy_syslib.h ****         {
 339:Generated_Source\PSoC6\pdl\drivers/peripheral/syslib/cy_syslib.h ****             uint32_t memFaultAct    :  1;   /**< SHCSR - The MemManage exception active bit, reads 
 340:Generated_Source\PSoC6\pdl\drivers/peripheral/syslib/cy_syslib.h ****             uint32_t busFaultAct    :  1;   /**< SHCSR - The BusFault exception active bit, reads a
 341:Generated_Source\PSoC6\pdl\drivers/peripheral/syslib/cy_syslib.h ****             uint32_t reserved1      :  1;   /**< Reserved. */
 342:Generated_Source\PSoC6\pdl\drivers/peripheral/syslib/cy_syslib.h ****             uint32_t usgFaultAct    :  1;   /**< SHCSR - The UsageFault exception active bit, reads
 343:Generated_Source\PSoC6\pdl\drivers/peripheral/syslib/cy_syslib.h ****             uint32_t reserved2      :  3;   /**< Reserved. */
 344:Generated_Source\PSoC6\pdl\drivers/peripheral/syslib/cy_syslib.h ****             uint32_t svCallAct      :  1;   /**< SHCSR - The SVCall active bit, reads as 1 if the S
 345:Generated_Source\PSoC6\pdl\drivers/peripheral/syslib/cy_syslib.h ****             uint32_t monitorAct     :  1;   /**< SHCSR - The debug monitor active bit, reads as 1 i
 346:Generated_Source\PSoC6\pdl\drivers/peripheral/syslib/cy_syslib.h ****             uint32_t reserved3      :  1;   /**< Reserved. */
 347:Generated_Source\PSoC6\pdl\drivers/peripheral/syslib/cy_syslib.h ****             uint32_t pendSVAct      :  1;   /**< SHCSR - The PendSV exception active bit, reads as 
 348:Generated_Source\PSoC6\pdl\drivers/peripheral/syslib/cy_syslib.h ****             uint32_t sysTickAct     :  1;   /**< SHCSR - The SysTick exception active bit, reads as
 349:Generated_Source\PSoC6\pdl\drivers/peripheral/syslib/cy_syslib.h ****             uint32_t usgFaultPended :  1;   /**< SHCSR - The UsageFault exception pending bit, read
 350:Generated_Source\PSoC6\pdl\drivers/peripheral/syslib/cy_syslib.h ****             uint32_t memFaultPended :  1;   /**< SHCSR - The MemManage exception pending bit, reads
 351:Generated_Source\PSoC6\pdl\drivers/peripheral/syslib/cy_syslib.h ****             uint32_t busFaultPended :  1;   /**< SHCSR - The BusFault exception pending bit, reads 
 352:Generated_Source\PSoC6\pdl\drivers/peripheral/syslib/cy_syslib.h ****             uint32_t svCallPended   :  1;   /**< SHCSR - The SVCall pending bit, reads as 1 if the 
 353:Generated_Source\PSoC6\pdl\drivers/peripheral/syslib/cy_syslib.h ****             uint32_t memFaultEna    :  1;   /**< SHCSR - The MemManage enable bit, set to 1 to enab
 354:Generated_Source\PSoC6\pdl\drivers/peripheral/syslib/cy_syslib.h ****             uint32_t busFaultEna    :  1;   /**< SHCSR - The BusFault enable bit, set to 1 to enabl
 355:Generated_Source\PSoC6\pdl\drivers/peripheral/syslib/cy_syslib.h ****             uint32_t usgFaultEna    :  1;   /**< SHCSR - The UsageFault enable bit, set to 1 to ena
 356:Generated_Source\PSoC6\pdl\drivers/peripheral/syslib/cy_syslib.h ****             uint32_t reserved4      : 13;   /**< Reserved */
 357:Generated_Source\PSoC6\pdl\drivers/peripheral/syslib/cy_syslib.h ****         } cy_stc_fault_shcsr_t;
 358:Generated_Source\PSoC6\pdl\drivers/peripheral/syslib/cy_syslib.h ****     #endif /* CY_CPU_CORTEX_M4 */
 359:Generated_Source\PSoC6\pdl\drivers/peripheral/syslib/cy_syslib.h **** 
 360:Generated_Source\PSoC6\pdl\drivers/peripheral/syslib/cy_syslib.h ****     /** The fault configuration structure. */
 361:Generated_Source\PSoC6\pdl\drivers/peripheral/syslib/cy_syslib.h ****     typedef struct
 362:Generated_Source\PSoC6\pdl\drivers/peripheral/syslib/cy_syslib.h ****     {
 363:Generated_Source\PSoC6\pdl\drivers/peripheral/syslib/cy_syslib.h ****         uint32_t r0;       /**< R0 register content */
 364:Generated_Source\PSoC6\pdl\drivers/peripheral/syslib/cy_syslib.h ****         uint32_t r1;       /**< R1 register content */
 365:Generated_Source\PSoC6\pdl\drivers/peripheral/syslib/cy_syslib.h ****         uint32_t r2;       /**< R2 register content */
 366:Generated_Source\PSoC6\pdl\drivers/peripheral/syslib/cy_syslib.h ****         uint32_t r3;       /**< R3 register content */
 367:Generated_Source\PSoC6\pdl\drivers/peripheral/syslib/cy_syslib.h ****         uint32_t r12;      /**< R12 register content */
 368:Generated_Source\PSoC6\pdl\drivers/peripheral/syslib/cy_syslib.h ****         uint32_t lr;       /**< LR register content */
 369:Generated_Source\PSoC6\pdl\drivers/peripheral/syslib/cy_syslib.h ****         uint32_t pc;       /**< PC register content */
 370:Generated_Source\PSoC6\pdl\drivers/peripheral/syslib/cy_syslib.h ****         uint32_t psr;      /**< PSR register content */
 371:Generated_Source\PSoC6\pdl\drivers/peripheral/syslib/cy_syslib.h ****         #if (CY_CPU_CORTEX_M4)
 372:Generated_Source\PSoC6\pdl\drivers/peripheral/syslib/cy_syslib.h ****             union
 373:Generated_Source\PSoC6\pdl\drivers/peripheral/syslib/cy_syslib.h ****             {
 374:Generated_Source\PSoC6\pdl\drivers/peripheral/syslib/cy_syslib.h ****                 uint32_t cfsrReg;              /**< CFSR register content as a word */
 375:Generated_Source\PSoC6\pdl\drivers/peripheral/syslib/cy_syslib.h ****                 cy_stc_fault_cfsr_t cfsrBits;  /**< CFSR register content as a structure */
 376:Generated_Source\PSoC6\pdl\drivers/peripheral/syslib/cy_syslib.h ****             } cfsr;
 377:Generated_Source\PSoC6\pdl\drivers/peripheral/syslib/cy_syslib.h ****             union
 378:Generated_Source\PSoC6\pdl\drivers/peripheral/syslib/cy_syslib.h ****             {
 379:Generated_Source\PSoC6\pdl\drivers/peripheral/syslib/cy_syslib.h ****                 uint32_t hfsrReg;              /**< HFSR register content as a word */
 380:Generated_Source\PSoC6\pdl\drivers/peripheral/syslib/cy_syslib.h ****                 cy_stc_fault_hfsr_t hfsrBits;  /**< HFSR register content as a structure */
 381:Generated_Source\PSoC6\pdl\drivers/peripheral/syslib/cy_syslib.h ****             } hfsr;
 382:Generated_Source\PSoC6\pdl\drivers/peripheral/syslib/cy_syslib.h ****             union
 383:Generated_Source\PSoC6\pdl\drivers/peripheral/syslib/cy_syslib.h ****             {
 384:Generated_Source\PSoC6\pdl\drivers/peripheral/syslib/cy_syslib.h ****                 uint32_t shcsrReg;              /**< SHCSR register content as a word */
 385:Generated_Source\PSoC6\pdl\drivers/peripheral/syslib/cy_syslib.h ****                 cy_stc_fault_shcsr_t shcsrBits; /**< SHCSR register content as a structure */
 386:Generated_Source\PSoC6\pdl\drivers/peripheral/syslib/cy_syslib.h ****             } shcsr;
 387:Generated_Source\PSoC6\pdl\drivers/peripheral/syslib/cy_syslib.h ****             uint32_t mmfar;                /**< MMFAR register content */
 388:Generated_Source\PSoC6\pdl\drivers/peripheral/syslib/cy_syslib.h ****             uint32_t bfar;                 /**< BFAR register content */
 389:Generated_Source\PSoC6\pdl\drivers/peripheral/syslib/cy_syslib.h ****             #if ((defined (__FPU_PRESENT) && (__FPU_PRESENT == 1U)) && \
 390:Generated_Source\PSoC6\pdl\drivers/peripheral/syslib/cy_syslib.h ****                  (defined (__FPU_USED   ) && (__FPU_USED    == 1U)))
 391:Generated_Source\PSoC6\pdl\drivers/peripheral/syslib/cy_syslib.h ****                 uint32_t s0;       /**< FPU S0 register content */
 392:Generated_Source\PSoC6\pdl\drivers/peripheral/syslib/cy_syslib.h ****                 uint32_t s1;       /**< FPU S1 register content */
 393:Generated_Source\PSoC6\pdl\drivers/peripheral/syslib/cy_syslib.h ****                 uint32_t s2;       /**< FPU S2 register content */
ARM GAS  C:\Users\Rolf\AppData\Local\Temp\ccafVfle.s 			page 35


 394:Generated_Source\PSoC6\pdl\drivers/peripheral/syslib/cy_syslib.h ****                 uint32_t s3;       /**< FPU S3 register content */
 395:Generated_Source\PSoC6\pdl\drivers/peripheral/syslib/cy_syslib.h ****                 uint32_t s4;       /**< FPU S4 register content */
 396:Generated_Source\PSoC6\pdl\drivers/peripheral/syslib/cy_syslib.h ****                 uint32_t s5;       /**< FPU S5 register content */
 397:Generated_Source\PSoC6\pdl\drivers/peripheral/syslib/cy_syslib.h ****                 uint32_t s6;       /**< FPU S6 register content */
 398:Generated_Source\PSoC6\pdl\drivers/peripheral/syslib/cy_syslib.h ****                 uint32_t s7;       /**< FPU S7 register content */
 399:Generated_Source\PSoC6\pdl\drivers/peripheral/syslib/cy_syslib.h ****                 uint32_t s8;       /**< FPU S8 register content */
 400:Generated_Source\PSoC6\pdl\drivers/peripheral/syslib/cy_syslib.h ****                 uint32_t s9;       /**< FPU S9 register content */
 401:Generated_Source\PSoC6\pdl\drivers/peripheral/syslib/cy_syslib.h ****                 uint32_t s10;      /**< FPU S10 register content */
 402:Generated_Source\PSoC6\pdl\drivers/peripheral/syslib/cy_syslib.h ****                 uint32_t s11;      /**< FPU S11 register content */
 403:Generated_Source\PSoC6\pdl\drivers/peripheral/syslib/cy_syslib.h ****                 uint32_t s12;      /**< FPU S12 register content */
 404:Generated_Source\PSoC6\pdl\drivers/peripheral/syslib/cy_syslib.h ****                 uint32_t s13;      /**< FPU S13 register content */
 405:Generated_Source\PSoC6\pdl\drivers/peripheral/syslib/cy_syslib.h ****                 uint32_t s14;      /**< FPU S14 register content */
 406:Generated_Source\PSoC6\pdl\drivers/peripheral/syslib/cy_syslib.h ****                 uint32_t s15;      /**< FPU S15 register content */
 407:Generated_Source\PSoC6\pdl\drivers/peripheral/syslib/cy_syslib.h ****                 uint32_t fpscr;    /**< FPU FPSCR register content */
 408:Generated_Source\PSoC6\pdl\drivers/peripheral/syslib/cy_syslib.h ****             #endif /* __FPU_PRESENT */
 409:Generated_Source\PSoC6\pdl\drivers/peripheral/syslib/cy_syslib.h ****         #endif /* CY_CPU_CORTEX_M4 */
 410:Generated_Source\PSoC6\pdl\drivers/peripheral/syslib/cy_syslib.h ****     } cy_stc_fault_frame_t;
 411:Generated_Source\PSoC6\pdl\drivers/peripheral/syslib/cy_syslib.h **** #endif /* (CY_ARM_FAULT_DEBUG == CY_ARM_FAULT_DEBUG_ENABLED) */
 412:Generated_Source\PSoC6\pdl\drivers/peripheral/syslib/cy_syslib.h **** 
 413:Generated_Source\PSoC6\pdl\drivers/peripheral/syslib/cy_syslib.h **** /** \} group_syslib_data_structures */
 414:Generated_Source\PSoC6\pdl\drivers/peripheral/syslib/cy_syslib.h **** 
 415:Generated_Source\PSoC6\pdl\drivers/peripheral/syslib/cy_syslib.h **** /**
 416:Generated_Source\PSoC6\pdl\drivers/peripheral/syslib/cy_syslib.h **** * \addtogroup group_syslib_macros
 417:Generated_Source\PSoC6\pdl\drivers/peripheral/syslib/cy_syslib.h **** * \{
 418:Generated_Source\PSoC6\pdl\drivers/peripheral/syslib/cy_syslib.h **** */
 419:Generated_Source\PSoC6\pdl\drivers/peripheral/syslib/cy_syslib.h **** 
 420:Generated_Source\PSoC6\pdl\drivers/peripheral/syslib/cy_syslib.h **** /** The driver major version */
 421:Generated_Source\PSoC6\pdl\drivers/peripheral/syslib/cy_syslib.h **** #define CY_SYSLIB_DRV_VERSION_MAJOR    2
 422:Generated_Source\PSoC6\pdl\drivers/peripheral/syslib/cy_syslib.h **** 
 423:Generated_Source\PSoC6\pdl\drivers/peripheral/syslib/cy_syslib.h **** /** The driver minor version */
 424:Generated_Source\PSoC6\pdl\drivers/peripheral/syslib/cy_syslib.h **** #define CY_SYSLIB_DRV_VERSION_MINOR    10
 425:Generated_Source\PSoC6\pdl\drivers/peripheral/syslib/cy_syslib.h **** 
 426:Generated_Source\PSoC6\pdl\drivers/peripheral/syslib/cy_syslib.h **** 
 427:Generated_Source\PSoC6\pdl\drivers/peripheral/syslib/cy_syslib.h **** /*******************************************************************************
 428:Generated_Source\PSoC6\pdl\drivers/peripheral/syslib/cy_syslib.h **** *  Data manipulation defines
 429:Generated_Source\PSoC6\pdl\drivers/peripheral/syslib/cy_syslib.h **** *******************************************************************************/
 430:Generated_Source\PSoC6\pdl\drivers/peripheral/syslib/cy_syslib.h **** 
 431:Generated_Source\PSoC6\pdl\drivers/peripheral/syslib/cy_syslib.h **** /** Get the lower 8 bits of a 16-bit value. */
 432:Generated_Source\PSoC6\pdl\drivers/peripheral/syslib/cy_syslib.h **** #define CY_LO8(x)               ((uint8_t) ((x) & 0xFFU))
 433:Generated_Source\PSoC6\pdl\drivers/peripheral/syslib/cy_syslib.h **** /** Get the upper 8 bits of a 16-bit value. */
 434:Generated_Source\PSoC6\pdl\drivers/peripheral/syslib/cy_syslib.h **** #define CY_HI8(x)               ((uint8_t) ((uint16_t)(x) >> 8U))
 435:Generated_Source\PSoC6\pdl\drivers/peripheral/syslib/cy_syslib.h **** 
 436:Generated_Source\PSoC6\pdl\drivers/peripheral/syslib/cy_syslib.h **** /** Get the lower 16 bits of a 32-bit value. */
 437:Generated_Source\PSoC6\pdl\drivers/peripheral/syslib/cy_syslib.h **** #define CY_LO16(x)              ((uint16_t) ((x) & 0xFFFFU))
 438:Generated_Source\PSoC6\pdl\drivers/peripheral/syslib/cy_syslib.h **** /** Get the upper 16 bits of a 32-bit value. */
 439:Generated_Source\PSoC6\pdl\drivers/peripheral/syslib/cy_syslib.h **** #define CY_HI16(x)              ((uint16_t) ((uint32_t)(x) >> 16U))
 440:Generated_Source\PSoC6\pdl\drivers/peripheral/syslib/cy_syslib.h **** 
 441:Generated_Source\PSoC6\pdl\drivers/peripheral/syslib/cy_syslib.h **** /** Swap the byte ordering of a 16-bit value */
 442:Generated_Source\PSoC6\pdl\drivers/peripheral/syslib/cy_syslib.h **** #define CY_SWAP_ENDIAN16(x)     ((uint16_t)(((x) << 8U) | (((x) >> 8U) & 0x00FFU)))
 443:Generated_Source\PSoC6\pdl\drivers/peripheral/syslib/cy_syslib.h **** 
 444:Generated_Source\PSoC6\pdl\drivers/peripheral/syslib/cy_syslib.h **** /** Swap the byte ordering of a 32-bit value */
 445:Generated_Source\PSoC6\pdl\drivers/peripheral/syslib/cy_syslib.h **** #define CY_SWAP_ENDIAN32(x)     ((uint32_t)((((x) >> 24U) & 0x000000FFU) | (((x) & 0x00FF0000U) >> 
 446:Generated_Source\PSoC6\pdl\drivers/peripheral/syslib/cy_syslib.h ****                                 (((x) & 0x0000FF00U) << 8U) | ((x) << 24U)))
 447:Generated_Source\PSoC6\pdl\drivers/peripheral/syslib/cy_syslib.h **** 
 448:Generated_Source\PSoC6\pdl\drivers/peripheral/syslib/cy_syslib.h **** /** Swap the byte ordering of a 64-bit value */
 449:Generated_Source\PSoC6\pdl\drivers/peripheral/syslib/cy_syslib.h **** #define CY_SWAP_ENDIAN64(x)     ((uint64_t) (((uint64_t) CY_SWAP_ENDIAN32((uint32_t)(x)) << 32U) | 
 450:Generated_Source\PSoC6\pdl\drivers/peripheral/syslib/cy_syslib.h ****                                 CY_SWAP_ENDIAN32((uint32_t)((x) >> 32U))))
ARM GAS  C:\Users\Rolf\AppData\Local\Temp\ccafVfle.s 			page 36


 451:Generated_Source\PSoC6\pdl\drivers/peripheral/syslib/cy_syslib.h **** 
 452:Generated_Source\PSoC6\pdl\drivers/peripheral/syslib/cy_syslib.h **** 
 453:Generated_Source\PSoC6\pdl\drivers/peripheral/syslib/cy_syslib.h **** /*******************************************************************************
 454:Generated_Source\PSoC6\pdl\drivers/peripheral/syslib/cy_syslib.h **** *   Memory model definitions
 455:Generated_Source\PSoC6\pdl\drivers/peripheral/syslib/cy_syslib.h **** *******************************************************************************/
 456:Generated_Source\PSoC6\pdl\drivers/peripheral/syslib/cy_syslib.h **** #if defined(__ARMCC_VERSION)
 457:Generated_Source\PSoC6\pdl\drivers/peripheral/syslib/cy_syslib.h ****     /** To create cross compiler compatible code, use the CY_NOINIT, CY_SECTION, CY_UNUSED, CY_ALIG
 458:Generated_Source\PSoC6\pdl\drivers/peripheral/syslib/cy_syslib.h ****      * attributes at the first place of declaration/definition.
 459:Generated_Source\PSoC6\pdl\drivers/peripheral/syslib/cy_syslib.h ****      * For example: CY_NOINIT uint32_t noinitVar;
 460:Generated_Source\PSoC6\pdl\drivers/peripheral/syslib/cy_syslib.h ****      */
 461:Generated_Source\PSoC6\pdl\drivers/peripheral/syslib/cy_syslib.h ****     #define CY_NOINIT           __attribute__ ((section(".noinit"), zero_init))
 462:Generated_Source\PSoC6\pdl\drivers/peripheral/syslib/cy_syslib.h ****     #define CY_SECTION(name)    __attribute__ ((section(name)))
 463:Generated_Source\PSoC6\pdl\drivers/peripheral/syslib/cy_syslib.h ****     #define CY_UNUSED           __attribute__ ((unused))
 464:Generated_Source\PSoC6\pdl\drivers/peripheral/syslib/cy_syslib.h ****     #define CY_NOINLINE         __attribute__ ((noinline))
 465:Generated_Source\PSoC6\pdl\drivers/peripheral/syslib/cy_syslib.h ****     /* Specifies the minimum alignment (in bytes) for variables of the specified type. */
 466:Generated_Source\PSoC6\pdl\drivers/peripheral/syslib/cy_syslib.h ****     #define CY_ALIGN(align)     __ALIGNED(align)
 467:Generated_Source\PSoC6\pdl\drivers/peripheral/syslib/cy_syslib.h **** #elif defined (__GNUC__)
 468:Generated_Source\PSoC6\pdl\drivers/peripheral/syslib/cy_syslib.h ****     #if defined (__clang__)
 469:Generated_Source\PSoC6\pdl\drivers/peripheral/syslib/cy_syslib.h ****         #define CY_NOINIT           __attribute__ ((section("__DATA, __noinit")))
 470:Generated_Source\PSoC6\pdl\drivers/peripheral/syslib/cy_syslib.h ****         #define CY_SECTION(name)    __attribute__ ((section("__DATA, "name)))
 471:Generated_Source\PSoC6\pdl\drivers/peripheral/syslib/cy_syslib.h ****     #else
 472:Generated_Source\PSoC6\pdl\drivers/peripheral/syslib/cy_syslib.h ****         #define CY_NOINIT           __attribute__ ((section(".noinit")))
 473:Generated_Source\PSoC6\pdl\drivers/peripheral/syslib/cy_syslib.h ****         #define CY_SECTION(name)    __attribute__ ((section(name)))
 474:Generated_Source\PSoC6\pdl\drivers/peripheral/syslib/cy_syslib.h ****     #endif
 475:Generated_Source\PSoC6\pdl\drivers/peripheral/syslib/cy_syslib.h ****     
 476:Generated_Source\PSoC6\pdl\drivers/peripheral/syslib/cy_syslib.h ****     #define CY_UNUSED           __attribute__ ((unused))
 477:Generated_Source\PSoC6\pdl\drivers/peripheral/syslib/cy_syslib.h ****     #define CY_NOINLINE         __attribute__ ((noinline))
 478:Generated_Source\PSoC6\pdl\drivers/peripheral/syslib/cy_syslib.h ****     #define CY_ALIGN(align)     __ALIGNED(align)
 479:Generated_Source\PSoC6\pdl\drivers/peripheral/syslib/cy_syslib.h **** #elif defined (__ICCARM__)
 480:Generated_Source\PSoC6\pdl\drivers/peripheral/syslib/cy_syslib.h ****     #define CY_PRAGMA(x)        _Pragma(#x)
 481:Generated_Source\PSoC6\pdl\drivers/peripheral/syslib/cy_syslib.h ****     #define CY_NOINIT           __no_init
 482:Generated_Source\PSoC6\pdl\drivers/peripheral/syslib/cy_syslib.h ****     #define CY_SECTION(name)    CY_PRAGMA(location = name)
 483:Generated_Source\PSoC6\pdl\drivers/peripheral/syslib/cy_syslib.h ****     #define CY_UNUSED
 484:Generated_Source\PSoC6\pdl\drivers/peripheral/syslib/cy_syslib.h ****     #define CY_NOINLINE         CY_PRAGMA(optimize = no_inline)
 485:Generated_Source\PSoC6\pdl\drivers/peripheral/syslib/cy_syslib.h ****     #if (__VER__ < 8010001)
 486:Generated_Source\PSoC6\pdl\drivers/peripheral/syslib/cy_syslib.h ****         #define CY_ALIGN(align) CY_PRAGMA(data_alignment = align)
 487:Generated_Source\PSoC6\pdl\drivers/peripheral/syslib/cy_syslib.h ****     #else
 488:Generated_Source\PSoC6\pdl\drivers/peripheral/syslib/cy_syslib.h ****         #define CY_ALIGN(align) __ALIGNED(align)
 489:Generated_Source\PSoC6\pdl\drivers/peripheral/syslib/cy_syslib.h ****     #endif /* (__VER__ < 8010001) */
 490:Generated_Source\PSoC6\pdl\drivers/peripheral/syslib/cy_syslib.h **** #else
 491:Generated_Source\PSoC6\pdl\drivers/peripheral/syslib/cy_syslib.h ****     #error "An unsupported toolchain"
 492:Generated_Source\PSoC6\pdl\drivers/peripheral/syslib/cy_syslib.h **** #endif  /* (__ARMCC_VERSION) */
 493:Generated_Source\PSoC6\pdl\drivers/peripheral/syslib/cy_syslib.h **** 
 494:Generated_Source\PSoC6\pdl\drivers/peripheral/syslib/cy_syslib.h **** typedef void (* cy_israddress)(void);   /**< Type of ISR callbacks */
 495:Generated_Source\PSoC6\pdl\drivers/peripheral/syslib/cy_syslib.h **** #if defined (__ICCARM__)
 496:Generated_Source\PSoC6\pdl\drivers/peripheral/syslib/cy_syslib.h ****     typedef union { cy_israddress __fun; void * __ptr; } cy_intvec_elem;
 497:Generated_Source\PSoC6\pdl\drivers/peripheral/syslib/cy_syslib.h **** #endif  /* defined (__ICCARM__) */
 498:Generated_Source\PSoC6\pdl\drivers/peripheral/syslib/cy_syslib.h **** 
 499:Generated_Source\PSoC6\pdl\drivers/peripheral/syslib/cy_syslib.h **** /* MISRA rule 6.3 recommends using specific-length typedef for the basic
 500:Generated_Source\PSoC6\pdl\drivers/peripheral/syslib/cy_syslib.h ****  * numerical types of signed and unsigned variants of char, float, and double.
 501:Generated_Source\PSoC6\pdl\drivers/peripheral/syslib/cy_syslib.h ****  */
 502:Generated_Source\PSoC6\pdl\drivers/peripheral/syslib/cy_syslib.h **** typedef char     char_t;    /**< Specific-length typedef for the basic numerical types of char */
 503:Generated_Source\PSoC6\pdl\drivers/peripheral/syslib/cy_syslib.h **** typedef float    float32_t; /**< Specific-length typedef for the basic numerical types of float */
 504:Generated_Source\PSoC6\pdl\drivers/peripheral/syslib/cy_syslib.h **** typedef double   float64_t; /**< Specific-length typedef for the basic numerical types of double */
 505:Generated_Source\PSoC6\pdl\drivers/peripheral/syslib/cy_syslib.h **** 
 506:Generated_Source\PSoC6\pdl\drivers/peripheral/syslib/cy_syslib.h **** #if !defined(NDEBUG)
 507:Generated_Source\PSoC6\pdl\drivers/peripheral/syslib/cy_syslib.h ****     /** The max size of the file name which stores the ASSERT location */
ARM GAS  C:\Users\Rolf\AppData\Local\Temp\ccafVfle.s 			page 37


 508:Generated_Source\PSoC6\pdl\drivers/peripheral/syslib/cy_syslib.h ****     #define CY_MAX_FILE_NAME_SIZE  (24U)
 509:Generated_Source\PSoC6\pdl\drivers/peripheral/syslib/cy_syslib.h ****     extern CY_NOINIT char_t cy_assertFileName[CY_MAX_FILE_NAME_SIZE];  /**< The assert buffer */
 510:Generated_Source\PSoC6\pdl\drivers/peripheral/syslib/cy_syslib.h ****     extern CY_NOINIT uint32_t cy_assertLine;                           /**< The assert line value *
 511:Generated_Source\PSoC6\pdl\drivers/peripheral/syslib/cy_syslib.h **** #endif /* NDEBUG */
 512:Generated_Source\PSoC6\pdl\drivers/peripheral/syslib/cy_syslib.h **** 
 513:Generated_Source\PSoC6\pdl\drivers/peripheral/syslib/cy_syslib.h **** #if (CY_ARM_FAULT_DEBUG == CY_ARM_FAULT_DEBUG_ENABLED)
 514:Generated_Source\PSoC6\pdl\drivers/peripheral/syslib/cy_syslib.h ****     #define CY_R0_Pos             (0U)     /**< The position of the R0  content in a fault structur
 515:Generated_Source\PSoC6\pdl\drivers/peripheral/syslib/cy_syslib.h ****     #define CY_R1_Pos             (1U)     /**< The position of the R1  content in a fault structur
 516:Generated_Source\PSoC6\pdl\drivers/peripheral/syslib/cy_syslib.h ****     #define CY_R2_Pos             (2U)     /**< The position of the R2  content in a fault structur
 517:Generated_Source\PSoC6\pdl\drivers/peripheral/syslib/cy_syslib.h ****     #define CY_R3_Pos             (3U)     /**< The position of the R3  content in a fault structur
 518:Generated_Source\PSoC6\pdl\drivers/peripheral/syslib/cy_syslib.h ****     #define CY_R12_Pos            (4U)     /**< The position of the R12 content in a fault structur
 519:Generated_Source\PSoC6\pdl\drivers/peripheral/syslib/cy_syslib.h ****     #define CY_LR_Pos             (5U)     /**< The position of the LR  content in a fault structur
 520:Generated_Source\PSoC6\pdl\drivers/peripheral/syslib/cy_syslib.h ****     #define CY_PC_Pos             (6U)     /**< The position of the PC  content in a fault structur
 521:Generated_Source\PSoC6\pdl\drivers/peripheral/syslib/cy_syslib.h ****     #define CY_PSR_Pos            (7U)     /**< The position of the PSR content in a fault structur
 522:Generated_Source\PSoC6\pdl\drivers/peripheral/syslib/cy_syslib.h ****     #if (CY_CPU_CORTEX_M4) && ((defined (__FPU_PRESENT) && (__FPU_PRESENT == 1U)) && \
 523:Generated_Source\PSoC6\pdl\drivers/peripheral/syslib/cy_syslib.h ****                                (defined (__FPU_USED   ) && (__FPU_USED    == 1U)))
 524:Generated_Source\PSoC6\pdl\drivers/peripheral/syslib/cy_syslib.h ****         #define CY_FPSCR_IXC_Msk  (0x00000010U)    /**< The cumulative exception bit for floating-p
 525:Generated_Source\PSoC6\pdl\drivers/peripheral/syslib/cy_syslib.h ****         #define CY_FPSCR_IDC_Msk  (0x00000080U)    /**< The cumulative exception bit for floating-p
 526:Generated_Source\PSoC6\pdl\drivers/peripheral/syslib/cy_syslib.h ****         #define CY_S0_Pos         (8U)     /**< The position of the FPU S0 content in a fault struc
 527:Generated_Source\PSoC6\pdl\drivers/peripheral/syslib/cy_syslib.h ****         #define CY_S1_Pos         (9U)     /**< The position of the FPU S1 content in a fault struc
 528:Generated_Source\PSoC6\pdl\drivers/peripheral/syslib/cy_syslib.h ****         #define CY_S2_Pos         (10U)    /**< The position of the FPU S2 content in a fault struc
 529:Generated_Source\PSoC6\pdl\drivers/peripheral/syslib/cy_syslib.h ****         #define CY_S3_Pos         (11U)    /**< The position of the FPU S3 content in a fault struc
 530:Generated_Source\PSoC6\pdl\drivers/peripheral/syslib/cy_syslib.h ****         #define CY_S4_Pos         (12U)    /**< The position of the FPU S4 content in a fault struc
 531:Generated_Source\PSoC6\pdl\drivers/peripheral/syslib/cy_syslib.h ****         #define CY_S5_Pos         (13U)    /**< The position of the FPU S5 content in a fault struc
 532:Generated_Source\PSoC6\pdl\drivers/peripheral/syslib/cy_syslib.h ****         #define CY_S6_Pos         (14U)    /**< The position of the FPU S6 content in a fault struc
 533:Generated_Source\PSoC6\pdl\drivers/peripheral/syslib/cy_syslib.h ****         #define CY_S7_Pos         (15U)    /**< The position of the FPU S7 content in a fault struc
 534:Generated_Source\PSoC6\pdl\drivers/peripheral/syslib/cy_syslib.h ****         #define CY_S8_Pos         (16U)    /**< The position of the FPU S8 content in a fault struc
 535:Generated_Source\PSoC6\pdl\drivers/peripheral/syslib/cy_syslib.h ****         #define CY_S9_Pos         (17U)    /**< The position of the FPU S9 content in a fault struc
 536:Generated_Source\PSoC6\pdl\drivers/peripheral/syslib/cy_syslib.h ****         #define CY_S10_Pos        (18U)    /**< The position of the FPU S10 content in a fault stru
 537:Generated_Source\PSoC6\pdl\drivers/peripheral/syslib/cy_syslib.h ****         #define CY_S11_Pos        (19U)    /**< The position of the FPU S11 content in a fault stru
 538:Generated_Source\PSoC6\pdl\drivers/peripheral/syslib/cy_syslib.h ****         #define CY_S12_Pos        (20U)    /**< The position of the FPU S12 content in a fault stru
 539:Generated_Source\PSoC6\pdl\drivers/peripheral/syslib/cy_syslib.h ****         #define CY_S13_Pos        (21U)    /**< The position of the FPU S13 content in a fault stru
 540:Generated_Source\PSoC6\pdl\drivers/peripheral/syslib/cy_syslib.h ****         #define CY_S14_Pos        (22U)    /**< The position of the FPU S14 content in a fault stru
 541:Generated_Source\PSoC6\pdl\drivers/peripheral/syslib/cy_syslib.h ****         #define CY_S15_Pos        (23U)    /**< The position of the FPU S15 content in a fault stru
 542:Generated_Source\PSoC6\pdl\drivers/peripheral/syslib/cy_syslib.h ****         #define CY_FPSCR_Pos      (24U)    /**< The position of the FPU FPSCR content in a fault st
 543:Generated_Source\PSoC6\pdl\drivers/peripheral/syslib/cy_syslib.h ****     #endif /* CY_CPU_CORTEX_M4 && __FPU_PRESENT */
 544:Generated_Source\PSoC6\pdl\drivers/peripheral/syslib/cy_syslib.h **** 
 545:Generated_Source\PSoC6\pdl\drivers/peripheral/syslib/cy_syslib.h ****     extern CY_NOINIT cy_stc_fault_frame_t cy_faultFrame;    /**< Fault frame structure */
 546:Generated_Source\PSoC6\pdl\drivers/peripheral/syslib/cy_syslib.h **** #endif /* (CY_ARM_FAULT_DEBUG == CY_ARM_FAULT_DEBUG_ENABLED) */
 547:Generated_Source\PSoC6\pdl\drivers/peripheral/syslib/cy_syslib.h **** 
 548:Generated_Source\PSoC6\pdl\drivers/peripheral/syslib/cy_syslib.h **** 
 549:Generated_Source\PSoC6\pdl\drivers/peripheral/syslib/cy_syslib.h **** /*******************************************************************************
 550:Generated_Source\PSoC6\pdl\drivers/peripheral/syslib/cy_syslib.h **** * Macro Name: CY_GET_REG8(addr)
 551:Generated_Source\PSoC6\pdl\drivers/peripheral/syslib/cy_syslib.h **** ****************************************************************************//**
 552:Generated_Source\PSoC6\pdl\drivers/peripheral/syslib/cy_syslib.h **** *
 553:Generated_Source\PSoC6\pdl\drivers/peripheral/syslib/cy_syslib.h **** * Reads the 8-bit value from the specified address. This function can't be
 554:Generated_Source\PSoC6\pdl\drivers/peripheral/syslib/cy_syslib.h **** * used to access the Core register, otherwise a fault occurs.
 555:Generated_Source\PSoC6\pdl\drivers/peripheral/syslib/cy_syslib.h **** *
 556:Generated_Source\PSoC6\pdl\drivers/peripheral/syslib/cy_syslib.h **** * \param addr  The register address.
 557:Generated_Source\PSoC6\pdl\drivers/peripheral/syslib/cy_syslib.h **** *
 558:Generated_Source\PSoC6\pdl\drivers/peripheral/syslib/cy_syslib.h **** * \return The read value.
 559:Generated_Source\PSoC6\pdl\drivers/peripheral/syslib/cy_syslib.h **** *
 560:Generated_Source\PSoC6\pdl\drivers/peripheral/syslib/cy_syslib.h **** *******************************************************************************/
 561:Generated_Source\PSoC6\pdl\drivers/peripheral/syslib/cy_syslib.h **** #define CY_GET_REG8(addr)           (*((const volatile uint8_t *)(addr)))
 562:Generated_Source\PSoC6\pdl\drivers/peripheral/syslib/cy_syslib.h **** 
 563:Generated_Source\PSoC6\pdl\drivers/peripheral/syslib/cy_syslib.h **** 
 564:Generated_Source\PSoC6\pdl\drivers/peripheral/syslib/cy_syslib.h **** /*******************************************************************************
ARM GAS  C:\Users\Rolf\AppData\Local\Temp\ccafVfle.s 			page 38


 565:Generated_Source\PSoC6\pdl\drivers/peripheral/syslib/cy_syslib.h **** * Macro Name: CY_SET_REG8(addr, value)
 566:Generated_Source\PSoC6\pdl\drivers/peripheral/syslib/cy_syslib.h **** ****************************************************************************//**
 567:Generated_Source\PSoC6\pdl\drivers/peripheral/syslib/cy_syslib.h **** *
 568:Generated_Source\PSoC6\pdl\drivers/peripheral/syslib/cy_syslib.h **** * Writes an 8-bit value to the specified address. This function can't be
 569:Generated_Source\PSoC6\pdl\drivers/peripheral/syslib/cy_syslib.h **** * used to access the Core register, otherwise a fault occurs.
 570:Generated_Source\PSoC6\pdl\drivers/peripheral/syslib/cy_syslib.h **** *
 571:Generated_Source\PSoC6\pdl\drivers/peripheral/syslib/cy_syslib.h **** * \param addr  The register address.
 572:Generated_Source\PSoC6\pdl\drivers/peripheral/syslib/cy_syslib.h **** *
 573:Generated_Source\PSoC6\pdl\drivers/peripheral/syslib/cy_syslib.h **** * \param value The value to write.
 574:Generated_Source\PSoC6\pdl\drivers/peripheral/syslib/cy_syslib.h **** *
 575:Generated_Source\PSoC6\pdl\drivers/peripheral/syslib/cy_syslib.h **** *******************************************************************************/
 576:Generated_Source\PSoC6\pdl\drivers/peripheral/syslib/cy_syslib.h **** #define CY_SET_REG8(addr, value)    (*((volatile uint8_t *)(addr)) = (uint8_t)(value))
 577:Generated_Source\PSoC6\pdl\drivers/peripheral/syslib/cy_syslib.h **** 
 578:Generated_Source\PSoC6\pdl\drivers/peripheral/syslib/cy_syslib.h **** 
 579:Generated_Source\PSoC6\pdl\drivers/peripheral/syslib/cy_syslib.h **** /*******************************************************************************
 580:Generated_Source\PSoC6\pdl\drivers/peripheral/syslib/cy_syslib.h **** * Macro Name: CY_GET_REG16(addr)
 581:Generated_Source\PSoC6\pdl\drivers/peripheral/syslib/cy_syslib.h **** ****************************************************************************//**
 582:Generated_Source\PSoC6\pdl\drivers/peripheral/syslib/cy_syslib.h **** *
 583:Generated_Source\PSoC6\pdl\drivers/peripheral/syslib/cy_syslib.h **** * Reads the 16-bit value from the specified address.
 584:Generated_Source\PSoC6\pdl\drivers/peripheral/syslib/cy_syslib.h **** *
 585:Generated_Source\PSoC6\pdl\drivers/peripheral/syslib/cy_syslib.h **** * \param addr  The register address.
 586:Generated_Source\PSoC6\pdl\drivers/peripheral/syslib/cy_syslib.h **** *
 587:Generated_Source\PSoC6\pdl\drivers/peripheral/syslib/cy_syslib.h **** * \return The read value.
 588:Generated_Source\PSoC6\pdl\drivers/peripheral/syslib/cy_syslib.h **** *
 589:Generated_Source\PSoC6\pdl\drivers/peripheral/syslib/cy_syslib.h **** *******************************************************************************/
 590:Generated_Source\PSoC6\pdl\drivers/peripheral/syslib/cy_syslib.h **** #define CY_GET_REG16(addr)          (*((const volatile uint16_t *)(addr)))
 591:Generated_Source\PSoC6\pdl\drivers/peripheral/syslib/cy_syslib.h **** 
 592:Generated_Source\PSoC6\pdl\drivers/peripheral/syslib/cy_syslib.h **** 
 593:Generated_Source\PSoC6\pdl\drivers/peripheral/syslib/cy_syslib.h **** /*******************************************************************************
 594:Generated_Source\PSoC6\pdl\drivers/peripheral/syslib/cy_syslib.h **** * Macro Name: CY_SET_REG16(addr, value)
 595:Generated_Source\PSoC6\pdl\drivers/peripheral/syslib/cy_syslib.h **** ****************************************************************************//**
 596:Generated_Source\PSoC6\pdl\drivers/peripheral/syslib/cy_syslib.h **** *
 597:Generated_Source\PSoC6\pdl\drivers/peripheral/syslib/cy_syslib.h **** * Writes the 16-bit value to the specified address.
 598:Generated_Source\PSoC6\pdl\drivers/peripheral/syslib/cy_syslib.h **** *
 599:Generated_Source\PSoC6\pdl\drivers/peripheral/syslib/cy_syslib.h **** * \param addr  The register address.
 600:Generated_Source\PSoC6\pdl\drivers/peripheral/syslib/cy_syslib.h **** *
 601:Generated_Source\PSoC6\pdl\drivers/peripheral/syslib/cy_syslib.h **** * \param value The value to write.
 602:Generated_Source\PSoC6\pdl\drivers/peripheral/syslib/cy_syslib.h **** *
 603:Generated_Source\PSoC6\pdl\drivers/peripheral/syslib/cy_syslib.h **** *******************************************************************************/
 604:Generated_Source\PSoC6\pdl\drivers/peripheral/syslib/cy_syslib.h **** #define CY_SET_REG16(addr, value)   (*((volatile uint16_t *)(addr)) = (uint16_t)(value))
 605:Generated_Source\PSoC6\pdl\drivers/peripheral/syslib/cy_syslib.h **** 
 606:Generated_Source\PSoC6\pdl\drivers/peripheral/syslib/cy_syslib.h **** 
 607:Generated_Source\PSoC6\pdl\drivers/peripheral/syslib/cy_syslib.h **** /*******************************************************************************
 608:Generated_Source\PSoC6\pdl\drivers/peripheral/syslib/cy_syslib.h **** * Macro Name: CY_GET_REG24(addr)
 609:Generated_Source\PSoC6\pdl\drivers/peripheral/syslib/cy_syslib.h **** ****************************************************************************//**
 610:Generated_Source\PSoC6\pdl\drivers/peripheral/syslib/cy_syslib.h **** *
 611:Generated_Source\PSoC6\pdl\drivers/peripheral/syslib/cy_syslib.h **** * Reads the 24-bit value from the specified address.
 612:Generated_Source\PSoC6\pdl\drivers/peripheral/syslib/cy_syslib.h **** *
 613:Generated_Source\PSoC6\pdl\drivers/peripheral/syslib/cy_syslib.h **** * \param addr  The register address.
 614:Generated_Source\PSoC6\pdl\drivers/peripheral/syslib/cy_syslib.h **** *
 615:Generated_Source\PSoC6\pdl\drivers/peripheral/syslib/cy_syslib.h **** * \return The read value.
 616:Generated_Source\PSoC6\pdl\drivers/peripheral/syslib/cy_syslib.h **** *
 617:Generated_Source\PSoC6\pdl\drivers/peripheral/syslib/cy_syslib.h **** *******************************************************************************/
 618:Generated_Source\PSoC6\pdl\drivers/peripheral/syslib/cy_syslib.h **** #define CY_GET_REG24(addr)          (((uint32_t) (*((const volatile uint8_t *)(addr)))) | \
 619:Generated_Source\PSoC6\pdl\drivers/peripheral/syslib/cy_syslib.h ****                                     (((uint32_t) (*((const volatile uint8_t *)(addr) + 1))) << 8U) 
 620:Generated_Source\PSoC6\pdl\drivers/peripheral/syslib/cy_syslib.h ****                                     (((uint32_t) (*((const volatile uint8_t *)(addr) + 2))) << 16U)
 621:Generated_Source\PSoC6\pdl\drivers/peripheral/syslib/cy_syslib.h **** 
ARM GAS  C:\Users\Rolf\AppData\Local\Temp\ccafVfle.s 			page 39


 622:Generated_Source\PSoC6\pdl\drivers/peripheral/syslib/cy_syslib.h **** 
 623:Generated_Source\PSoC6\pdl\drivers/peripheral/syslib/cy_syslib.h **** /*******************************************************************************
 624:Generated_Source\PSoC6\pdl\drivers/peripheral/syslib/cy_syslib.h **** * Macro Name: CY_SET_REG24(addr, value)
 625:Generated_Source\PSoC6\pdl\drivers/peripheral/syslib/cy_syslib.h **** ****************************************************************************//**
 626:Generated_Source\PSoC6\pdl\drivers/peripheral/syslib/cy_syslib.h **** *
 627:Generated_Source\PSoC6\pdl\drivers/peripheral/syslib/cy_syslib.h **** * Writes the 24-bit value to the specified address.
 628:Generated_Source\PSoC6\pdl\drivers/peripheral/syslib/cy_syslib.h **** *
 629:Generated_Source\PSoC6\pdl\drivers/peripheral/syslib/cy_syslib.h **** * \param addr  The register address.
 630:Generated_Source\PSoC6\pdl\drivers/peripheral/syslib/cy_syslib.h **** *
 631:Generated_Source\PSoC6\pdl\drivers/peripheral/syslib/cy_syslib.h **** * \param value The value to write.
 632:Generated_Source\PSoC6\pdl\drivers/peripheral/syslib/cy_syslib.h **** *
 633:Generated_Source\PSoC6\pdl\drivers/peripheral/syslib/cy_syslib.h **** *******************************************************************************/
 634:Generated_Source\PSoC6\pdl\drivers/peripheral/syslib/cy_syslib.h **** #define CY_SET_REG24(addr, value)   do  \
 635:Generated_Source\PSoC6\pdl\drivers/peripheral/syslib/cy_syslib.h ****                                     {   \
 636:Generated_Source\PSoC6\pdl\drivers/peripheral/syslib/cy_syslib.h ****                                         (*((volatile uint8_t *) (addr))) = (uint8_t)(value);       
 637:Generated_Source\PSoC6\pdl\drivers/peripheral/syslib/cy_syslib.h ****                                         (*((volatile uint8_t *) (addr) + 1)) = (uint8_t)((value) >>
 638:Generated_Source\PSoC6\pdl\drivers/peripheral/syslib/cy_syslib.h ****                                         (*((volatile uint8_t *) (addr) + 2)) = (uint8_t)((value) >>
 639:Generated_Source\PSoC6\pdl\drivers/peripheral/syslib/cy_syslib.h ****                                     }   \
 640:Generated_Source\PSoC6\pdl\drivers/peripheral/syslib/cy_syslib.h ****                                     while(0)
 641:Generated_Source\PSoC6\pdl\drivers/peripheral/syslib/cy_syslib.h **** 
 642:Generated_Source\PSoC6\pdl\drivers/peripheral/syslib/cy_syslib.h **** 
 643:Generated_Source\PSoC6\pdl\drivers/peripheral/syslib/cy_syslib.h **** /*******************************************************************************
 644:Generated_Source\PSoC6\pdl\drivers/peripheral/syslib/cy_syslib.h **** * Macro Name: CY_GET_REG32(addr)
 645:Generated_Source\PSoC6\pdl\drivers/peripheral/syslib/cy_syslib.h **** ****************************************************************************//**
 646:Generated_Source\PSoC6\pdl\drivers/peripheral/syslib/cy_syslib.h **** *
 647:Generated_Source\PSoC6\pdl\drivers/peripheral/syslib/cy_syslib.h **** * Reads the 32-bit value from the specified register. The address is the little
 648:Generated_Source\PSoC6\pdl\drivers/peripheral/syslib/cy_syslib.h **** * endian order (LSB in lowest address).
 649:Generated_Source\PSoC6\pdl\drivers/peripheral/syslib/cy_syslib.h **** *
 650:Generated_Source\PSoC6\pdl\drivers/peripheral/syslib/cy_syslib.h **** * \param addr  The register address.
 651:Generated_Source\PSoC6\pdl\drivers/peripheral/syslib/cy_syslib.h **** *
 652:Generated_Source\PSoC6\pdl\drivers/peripheral/syslib/cy_syslib.h **** * \return The read value.
 653:Generated_Source\PSoC6\pdl\drivers/peripheral/syslib/cy_syslib.h **** *
 654:Generated_Source\PSoC6\pdl\drivers/peripheral/syslib/cy_syslib.h **** *******************************************************************************/
 655:Generated_Source\PSoC6\pdl\drivers/peripheral/syslib/cy_syslib.h **** #define CY_GET_REG32(addr)          (*((const volatile uint32_t *)(addr)))
 656:Generated_Source\PSoC6\pdl\drivers/peripheral/syslib/cy_syslib.h **** 
 657:Generated_Source\PSoC6\pdl\drivers/peripheral/syslib/cy_syslib.h **** 
 658:Generated_Source\PSoC6\pdl\drivers/peripheral/syslib/cy_syslib.h **** /*******************************************************************************
 659:Generated_Source\PSoC6\pdl\drivers/peripheral/syslib/cy_syslib.h **** * Macro Name: CY_SET_REG32(addr, value)
 660:Generated_Source\PSoC6\pdl\drivers/peripheral/syslib/cy_syslib.h **** ****************************************************************************//**
 661:Generated_Source\PSoC6\pdl\drivers/peripheral/syslib/cy_syslib.h **** *
 662:Generated_Source\PSoC6\pdl\drivers/peripheral/syslib/cy_syslib.h **** * Writes the 32-bit value to the specified register. The address is the little
 663:Generated_Source\PSoC6\pdl\drivers/peripheral/syslib/cy_syslib.h **** * endian order (LSB in lowest address).
 664:Generated_Source\PSoC6\pdl\drivers/peripheral/syslib/cy_syslib.h **** *
 665:Generated_Source\PSoC6\pdl\drivers/peripheral/syslib/cy_syslib.h **** * \param addr  The register address.
 666:Generated_Source\PSoC6\pdl\drivers/peripheral/syslib/cy_syslib.h **** *
 667:Generated_Source\PSoC6\pdl\drivers/peripheral/syslib/cy_syslib.h **** * \param value The value to write.
 668:Generated_Source\PSoC6\pdl\drivers/peripheral/syslib/cy_syslib.h **** *
 669:Generated_Source\PSoC6\pdl\drivers/peripheral/syslib/cy_syslib.h **** *******************************************************************************/
 670:Generated_Source\PSoC6\pdl\drivers/peripheral/syslib/cy_syslib.h **** #define CY_SET_REG32(addr, value)   (*((volatile uint32_t *)(addr)) = (uint32_t)(value))
 671:Generated_Source\PSoC6\pdl\drivers/peripheral/syslib/cy_syslib.h **** 
 672:Generated_Source\PSoC6\pdl\drivers/peripheral/syslib/cy_syslib.h **** 
 673:Generated_Source\PSoC6\pdl\drivers/peripheral/syslib/cy_syslib.h **** /**
 674:Generated_Source\PSoC6\pdl\drivers/peripheral/syslib/cy_syslib.h **** * \defgroup group_syslib_macros_assert Assert Classes and Levels
 675:Generated_Source\PSoC6\pdl\drivers/peripheral/syslib/cy_syslib.h **** * \{
 676:Generated_Source\PSoC6\pdl\drivers/peripheral/syslib/cy_syslib.h **** * Defines for the Assert Classes and Levels
 677:Generated_Source\PSoC6\pdl\drivers/peripheral/syslib/cy_syslib.h **** */
 678:Generated_Source\PSoC6\pdl\drivers/peripheral/syslib/cy_syslib.h **** 
ARM GAS  C:\Users\Rolf\AppData\Local\Temp\ccafVfle.s 			page 40


 679:Generated_Source\PSoC6\pdl\drivers/peripheral/syslib/cy_syslib.h **** /** 
 680:Generated_Source\PSoC6\pdl\drivers/peripheral/syslib/cy_syslib.h **** * Class 1 - The highest class, safety-critical functions which rely on parameters that could be
 681:Generated_Source\PSoC6\pdl\drivers/peripheral/syslib/cy_syslib.h **** * changed between different PSoC devices
 682:Generated_Source\PSoC6\pdl\drivers/peripheral/syslib/cy_syslib.h **** */
 683:Generated_Source\PSoC6\pdl\drivers/peripheral/syslib/cy_syslib.h **** #define CY_ASSERT_CLASS_1           (1U)
 684:Generated_Source\PSoC6\pdl\drivers/peripheral/syslib/cy_syslib.h **** 
 685:Generated_Source\PSoC6\pdl\drivers/peripheral/syslib/cy_syslib.h **** /** Class 2 - Functions that have fixed limits such as counter periods (16-bits/32-bits etc.) */
 686:Generated_Source\PSoC6\pdl\drivers/peripheral/syslib/cy_syslib.h **** #define CY_ASSERT_CLASS_2           (2U)
 687:Generated_Source\PSoC6\pdl\drivers/peripheral/syslib/cy_syslib.h **** 
 688:Generated_Source\PSoC6\pdl\drivers/peripheral/syslib/cy_syslib.h **** /** Class 3 - Functions that accept enums as constant parameters */
 689:Generated_Source\PSoC6\pdl\drivers/peripheral/syslib/cy_syslib.h **** #define CY_ASSERT_CLASS_3           (3U)
 690:Generated_Source\PSoC6\pdl\drivers/peripheral/syslib/cy_syslib.h **** 
 691:Generated_Source\PSoC6\pdl\drivers/peripheral/syslib/cy_syslib.h **** #ifndef CY_ASSERT_LEVEL
 692:Generated_Source\PSoC6\pdl\drivers/peripheral/syslib/cy_syslib.h ****     /** The user-definable assert level from compiler command-line argument (similarly to DEBUG / N
 693:Generated_Source\PSoC6\pdl\drivers/peripheral/syslib/cy_syslib.h ****     #define CY_ASSERT_LEVEL         CY_ASSERT_CLASS_3
 694:Generated_Source\PSoC6\pdl\drivers/peripheral/syslib/cy_syslib.h **** #endif /* CY_ASSERT_LEVEL */
 695:Generated_Source\PSoC6\pdl\drivers/peripheral/syslib/cy_syslib.h **** 
 696:Generated_Source\PSoC6\pdl\drivers/peripheral/syslib/cy_syslib.h **** #if (CY_ASSERT_LEVEL == CY_ASSERT_CLASS_1)
 697:Generated_Source\PSoC6\pdl\drivers/peripheral/syslib/cy_syslib.h ****     #define CY_ASSERT_L1(x)         CY_ASSERT(x)     /**< Assert Level 1 */
 698:Generated_Source\PSoC6\pdl\drivers/peripheral/syslib/cy_syslib.h ****     #define CY_ASSERT_L2(x)         do{} while(0)    /**< Assert Level 2 */
 699:Generated_Source\PSoC6\pdl\drivers/peripheral/syslib/cy_syslib.h ****     #define CY_ASSERT_L3(x)         do{} while(0)    /**< Assert Level 3 */
 700:Generated_Source\PSoC6\pdl\drivers/peripheral/syslib/cy_syslib.h **** #elif (CY_ASSERT_LEVEL == CY_ASSERT_CLASS_2)
 701:Generated_Source\PSoC6\pdl\drivers/peripheral/syslib/cy_syslib.h ****     #define CY_ASSERT_L1(x)         CY_ASSERT(x)     /**< Assert Level 1 */
 702:Generated_Source\PSoC6\pdl\drivers/peripheral/syslib/cy_syslib.h ****     #define CY_ASSERT_L2(x)         CY_ASSERT(x)     /**< Assert Level 2 */
 703:Generated_Source\PSoC6\pdl\drivers/peripheral/syslib/cy_syslib.h ****     #define CY_ASSERT_L3(x)         do{} while(0)    /**< Assert Level 3 */
 704:Generated_Source\PSoC6\pdl\drivers/peripheral/syslib/cy_syslib.h **** #else /* Default is Level 3 */
 705:Generated_Source\PSoC6\pdl\drivers/peripheral/syslib/cy_syslib.h ****     #define CY_ASSERT_L1(x)         CY_ASSERT(x)     /**< Assert Level 1 */
 706:Generated_Source\PSoC6\pdl\drivers/peripheral/syslib/cy_syslib.h ****     #define CY_ASSERT_L2(x)         CY_ASSERT(x)     /**< Assert Level 2 */
 707:Generated_Source\PSoC6\pdl\drivers/peripheral/syslib/cy_syslib.h ****     #define CY_ASSERT_L3(x)         CY_ASSERT(x)     /**< Assert Level 3 */
 708:Generated_Source\PSoC6\pdl\drivers/peripheral/syslib/cy_syslib.h **** #endif /* CY_ASSERT_LEVEL == CY_ASSERT_CLASS_1 */
 709:Generated_Source\PSoC6\pdl\drivers/peripheral/syslib/cy_syslib.h **** 
 710:Generated_Source\PSoC6\pdl\drivers/peripheral/syslib/cy_syslib.h **** /** \} group_syslib_macros_assert */
 711:Generated_Source\PSoC6\pdl\drivers/peripheral/syslib/cy_syslib.h **** 
 712:Generated_Source\PSoC6\pdl\drivers/peripheral/syslib/cy_syslib.h **** 
 713:Generated_Source\PSoC6\pdl\drivers/peripheral/syslib/cy_syslib.h **** /*******************************************************************************
 714:Generated_Source\PSoC6\pdl\drivers/peripheral/syslib/cy_syslib.h **** * Macro Name: CY_ASSERT
 715:Generated_Source\PSoC6\pdl\drivers/peripheral/syslib/cy_syslib.h **** ****************************************************************************//**
 716:Generated_Source\PSoC6\pdl\drivers/peripheral/syslib/cy_syslib.h **** *
 717:Generated_Source\PSoC6\pdl\drivers/peripheral/syslib/cy_syslib.h **** *  The macro that evaluates the expression and, if it is false (evaluates to 0),
 718:Generated_Source\PSoC6\pdl\drivers/peripheral/syslib/cy_syslib.h **** *  the processor is halted. Cy_SysLib_AssertFailed() is called when the logical
 719:Generated_Source\PSoC6\pdl\drivers/peripheral/syslib/cy_syslib.h **** *  expression is false to store the ASSERT location and halt the processor.
 720:Generated_Source\PSoC6\pdl\drivers/peripheral/syslib/cy_syslib.h **** *
 721:Generated_Source\PSoC6\pdl\drivers/peripheral/syslib/cy_syslib.h **** * \param x  The logical expression. Asserts if false.
 722:Generated_Source\PSoC6\pdl\drivers/peripheral/syslib/cy_syslib.h **** * \note This macro is evaluated unless NDEBUG is not defined.
 723:Generated_Source\PSoC6\pdl\drivers/peripheral/syslib/cy_syslib.h **** *       If NDEBUG is defined, just empty do while cycle is generated for this
 724:Generated_Source\PSoC6\pdl\drivers/peripheral/syslib/cy_syslib.h **** *       macro for the sake of consistency and to avoid MISRA violation.
 725:Generated_Source\PSoC6\pdl\drivers/peripheral/syslib/cy_syslib.h **** *       NDEBUG is defined by default for a Release build setting and not defined
 726:Generated_Source\PSoC6\pdl\drivers/peripheral/syslib/cy_syslib.h **** *       for a Debug build setting.
 727:Generated_Source\PSoC6\pdl\drivers/peripheral/syslib/cy_syslib.h **** *
 728:Generated_Source\PSoC6\pdl\drivers/peripheral/syslib/cy_syslib.h **** *******************************************************************************/
 729:Generated_Source\PSoC6\pdl\drivers/peripheral/syslib/cy_syslib.h **** #if !defined(NDEBUG)
 730:Generated_Source\PSoC6\pdl\drivers/peripheral/syslib/cy_syslib.h ****     #define CY_ASSERT(x)    do  \
 731:Generated_Source\PSoC6\pdl\drivers/peripheral/syslib/cy_syslib.h ****                             {   \
 732:Generated_Source\PSoC6\pdl\drivers/peripheral/syslib/cy_syslib.h ****                                 if(!(x)) \
 733:Generated_Source\PSoC6\pdl\drivers/peripheral/syslib/cy_syslib.h ****                                 { \
 734:Generated_Source\PSoC6\pdl\drivers/peripheral/syslib/cy_syslib.h ****                                     Cy_SysLib_AssertFailed((char_t *) __FILE__, (uint32_t) __LINE__
 735:Generated_Source\PSoC6\pdl\drivers/peripheral/syslib/cy_syslib.h ****                                 } \
ARM GAS  C:\Users\Rolf\AppData\Local\Temp\ccafVfle.s 			page 41


 736:Generated_Source\PSoC6\pdl\drivers/peripheral/syslib/cy_syslib.h ****                             } while(0)
 737:Generated_Source\PSoC6\pdl\drivers/peripheral/syslib/cy_syslib.h **** #else
 738:Generated_Source\PSoC6\pdl\drivers/peripheral/syslib/cy_syslib.h ****     #define CY_ASSERT(x)    do  \
 739:Generated_Source\PSoC6\pdl\drivers/peripheral/syslib/cy_syslib.h ****                             {   \
 740:Generated_Source\PSoC6\pdl\drivers/peripheral/syslib/cy_syslib.h ****                             } while(0)
 741:Generated_Source\PSoC6\pdl\drivers/peripheral/syslib/cy_syslib.h **** #endif  /* !defined(NDEBUG) */
 742:Generated_Source\PSoC6\pdl\drivers/peripheral/syslib/cy_syslib.h **** 
 743:Generated_Source\PSoC6\pdl\drivers/peripheral/syslib/cy_syslib.h **** 
 744:Generated_Source\PSoC6\pdl\drivers/peripheral/syslib/cy_syslib.h **** /*******************************************************************************
 745:Generated_Source\PSoC6\pdl\drivers/peripheral/syslib/cy_syslib.h **** * Macro Name: _CLR_SET_FLD32U
 746:Generated_Source\PSoC6\pdl\drivers/peripheral/syslib/cy_syslib.h **** ****************************************************************************//**
 747:Generated_Source\PSoC6\pdl\drivers/peripheral/syslib/cy_syslib.h **** *
 748:Generated_Source\PSoC6\pdl\drivers/peripheral/syslib/cy_syslib.h **** *  The macro for setting a register with a name field and value for providing
 749:Generated_Source\PSoC6\pdl\drivers/peripheral/syslib/cy_syslib.h **** *  get-clear-modify-write operations.
 750:Generated_Source\PSoC6\pdl\drivers/peripheral/syslib/cy_syslib.h **** *  Returns a resulting value to be assigned to the register.
 751:Generated_Source\PSoC6\pdl\drivers/peripheral/syslib/cy_syslib.h **** *
 752:Generated_Source\PSoC6\pdl\drivers/peripheral/syslib/cy_syslib.h **** *******************************************************************************/
 753:Generated_Source\PSoC6\pdl\drivers/peripheral/syslib/cy_syslib.h **** #define _CLR_SET_FLD32U(reg, field, value) (((reg) & ((uint32_t)(~(field ## _Msk)))) | (_VAL2FLD(fi
 754:Generated_Source\PSoC6\pdl\drivers/peripheral/syslib/cy_syslib.h **** 
 755:Generated_Source\PSoC6\pdl\drivers/peripheral/syslib/cy_syslib.h **** 
 756:Generated_Source\PSoC6\pdl\drivers/peripheral/syslib/cy_syslib.h **** /*******************************************************************************
 757:Generated_Source\PSoC6\pdl\drivers/peripheral/syslib/cy_syslib.h **** * Macro Name: CY_REG32_CLR_SET
 758:Generated_Source\PSoC6\pdl\drivers/peripheral/syslib/cy_syslib.h **** ****************************************************************************//**
 759:Generated_Source\PSoC6\pdl\drivers/peripheral/syslib/cy_syslib.h **** *
 760:Generated_Source\PSoC6\pdl\drivers/peripheral/syslib/cy_syslib.h **** *  Uses _CLR_SET_FLD32U macro for providing get-clear-modify-write 
 761:Generated_Source\PSoC6\pdl\drivers/peripheral/syslib/cy_syslib.h **** *  operations with a name field and value and writes a resulting value 
 762:Generated_Source\PSoC6\pdl\drivers/peripheral/syslib/cy_syslib.h **** *  to the 32-bit register.
 763:Generated_Source\PSoC6\pdl\drivers/peripheral/syslib/cy_syslib.h **** *
 764:Generated_Source\PSoC6\pdl\drivers/peripheral/syslib/cy_syslib.h **** *******************************************************************************/
 765:Generated_Source\PSoC6\pdl\drivers/peripheral/syslib/cy_syslib.h **** #define CY_REG32_CLR_SET(reg, field, value) ((reg) = _CLR_SET_FLD32U((reg), field, (value)))
 766:Generated_Source\PSoC6\pdl\drivers/peripheral/syslib/cy_syslib.h **** 
 767:Generated_Source\PSoC6\pdl\drivers/peripheral/syslib/cy_syslib.h **** 
 768:Generated_Source\PSoC6\pdl\drivers/peripheral/syslib/cy_syslib.h **** /*******************************************************************************
 769:Generated_Source\PSoC6\pdl\drivers/peripheral/syslib/cy_syslib.h **** * Macro Name: _CLR_SET_FLD16U
 770:Generated_Source\PSoC6\pdl\drivers/peripheral/syslib/cy_syslib.h **** ****************************************************************************//**
 771:Generated_Source\PSoC6\pdl\drivers/peripheral/syslib/cy_syslib.h **** *
 772:Generated_Source\PSoC6\pdl\drivers/peripheral/syslib/cy_syslib.h **** *  The macro for setting a 16-bit register with a name field and value for providing
 773:Generated_Source\PSoC6\pdl\drivers/peripheral/syslib/cy_syslib.h **** *  get-clear-modify-write operations.
 774:Generated_Source\PSoC6\pdl\drivers/peripheral/syslib/cy_syslib.h **** *  Returns a resulting value to be assigned to the 16-bit register.
 775:Generated_Source\PSoC6\pdl\drivers/peripheral/syslib/cy_syslib.h **** *
 776:Generated_Source\PSoC6\pdl\drivers/peripheral/syslib/cy_syslib.h **** *******************************************************************************/
 777:Generated_Source\PSoC6\pdl\drivers/peripheral/syslib/cy_syslib.h **** #define _CLR_SET_FLD16U(reg, field, value) ((uint16_t)(((reg) & ((uint16_t)(~(field ## _Msk)))) |  
 778:Generated_Source\PSoC6\pdl\drivers/peripheral/syslib/cy_syslib.h ****                                                        ((uint16_t)_VAL2FLD(field, value))))
 779:Generated_Source\PSoC6\pdl\drivers/peripheral/syslib/cy_syslib.h ****                                                        
 780:Generated_Source\PSoC6\pdl\drivers/peripheral/syslib/cy_syslib.h ****                                                        
 781:Generated_Source\PSoC6\pdl\drivers/peripheral/syslib/cy_syslib.h **** /*******************************************************************************
 782:Generated_Source\PSoC6\pdl\drivers/peripheral/syslib/cy_syslib.h **** * Macro Name: CY_REG16_CLR_SET
 783:Generated_Source\PSoC6\pdl\drivers/peripheral/syslib/cy_syslib.h **** ****************************************************************************//**
 784:Generated_Source\PSoC6\pdl\drivers/peripheral/syslib/cy_syslib.h **** *
 785:Generated_Source\PSoC6\pdl\drivers/peripheral/syslib/cy_syslib.h **** *  Uses _CLR_SET_FLD16U macro for providing get-clear-modify-write 
 786:Generated_Source\PSoC6\pdl\drivers/peripheral/syslib/cy_syslib.h **** *  operations with a name field and value and writes a resulting value 
 787:Generated_Source\PSoC6\pdl\drivers/peripheral/syslib/cy_syslib.h **** *  to the 16-bit register.
 788:Generated_Source\PSoC6\pdl\drivers/peripheral/syslib/cy_syslib.h **** *
 789:Generated_Source\PSoC6\pdl\drivers/peripheral/syslib/cy_syslib.h **** *******************************************************************************/
 790:Generated_Source\PSoC6\pdl\drivers/peripheral/syslib/cy_syslib.h **** #define CY_REG16_CLR_SET(reg, field, value) ((reg) = _CLR_SET_FLD16U((reg), field, (value)))
 791:Generated_Source\PSoC6\pdl\drivers/peripheral/syslib/cy_syslib.h **** 
 792:Generated_Source\PSoC6\pdl\drivers/peripheral/syslib/cy_syslib.h **** 
ARM GAS  C:\Users\Rolf\AppData\Local\Temp\ccafVfle.s 			page 42


 793:Generated_Source\PSoC6\pdl\drivers/peripheral/syslib/cy_syslib.h **** /*******************************************************************************
 794:Generated_Source\PSoC6\pdl\drivers/peripheral/syslib/cy_syslib.h **** * Macro Name: _CLR_SET_FLD8U
 795:Generated_Source\PSoC6\pdl\drivers/peripheral/syslib/cy_syslib.h **** ****************************************************************************//**
 796:Generated_Source\PSoC6\pdl\drivers/peripheral/syslib/cy_syslib.h **** *
 797:Generated_Source\PSoC6\pdl\drivers/peripheral/syslib/cy_syslib.h **** *  The macro for setting a 8-bit register with a name field and value for providing
 798:Generated_Source\PSoC6\pdl\drivers/peripheral/syslib/cy_syslib.h **** *  get-clear-modify-write operations.
 799:Generated_Source\PSoC6\pdl\drivers/peripheral/syslib/cy_syslib.h **** *  Returns a resulting value to be assigned to the 8-bit register.
 800:Generated_Source\PSoC6\pdl\drivers/peripheral/syslib/cy_syslib.h **** *
 801:Generated_Source\PSoC6\pdl\drivers/peripheral/syslib/cy_syslib.h **** *******************************************************************************/
 802:Generated_Source\PSoC6\pdl\drivers/peripheral/syslib/cy_syslib.h **** #define _CLR_SET_FLD8U(reg, field, value) ((uint8_t)(((reg) & ((uint8_t)(~(field ## _Msk)))) |  \
 803:Generated_Source\PSoC6\pdl\drivers/peripheral/syslib/cy_syslib.h ****                                                      ((uint8_t)_VAL2FLD(field, value))))
 804:Generated_Source\PSoC6\pdl\drivers/peripheral/syslib/cy_syslib.h ****                                                      
 805:Generated_Source\PSoC6\pdl\drivers/peripheral/syslib/cy_syslib.h ****                                                      
 806:Generated_Source\PSoC6\pdl\drivers/peripheral/syslib/cy_syslib.h **** /*******************************************************************************
 807:Generated_Source\PSoC6\pdl\drivers/peripheral/syslib/cy_syslib.h **** * Macro Name: CY_REG8_CLR_SET
 808:Generated_Source\PSoC6\pdl\drivers/peripheral/syslib/cy_syslib.h **** ****************************************************************************//**
 809:Generated_Source\PSoC6\pdl\drivers/peripheral/syslib/cy_syslib.h **** *
 810:Generated_Source\PSoC6\pdl\drivers/peripheral/syslib/cy_syslib.h **** *  Uses _CLR_SET_FLD8U macro for providing get-clear-modify-write 
 811:Generated_Source\PSoC6\pdl\drivers/peripheral/syslib/cy_syslib.h **** *  operations with a name field and value and writes a resulting value 
 812:Generated_Source\PSoC6\pdl\drivers/peripheral/syslib/cy_syslib.h **** *  to the 8-bit register.
 813:Generated_Source\PSoC6\pdl\drivers/peripheral/syslib/cy_syslib.h **** *
 814:Generated_Source\PSoC6\pdl\drivers/peripheral/syslib/cy_syslib.h **** *******************************************************************************/
 815:Generated_Source\PSoC6\pdl\drivers/peripheral/syslib/cy_syslib.h **** #define CY_REG8_CLR_SET(reg, field, value) ((reg) = _CLR_SET_FLD8U((reg), field, (value)))
 816:Generated_Source\PSoC6\pdl\drivers/peripheral/syslib/cy_syslib.h **** 
 817:Generated_Source\PSoC6\pdl\drivers/peripheral/syslib/cy_syslib.h **** 
 818:Generated_Source\PSoC6\pdl\drivers/peripheral/syslib/cy_syslib.h **** /*******************************************************************************
 819:Generated_Source\PSoC6\pdl\drivers/peripheral/syslib/cy_syslib.h **** * Macro Name: _BOOL2FLD
 820:Generated_Source\PSoC6\pdl\drivers/peripheral/syslib/cy_syslib.h **** ****************************************************************************//**
 821:Generated_Source\PSoC6\pdl\drivers/peripheral/syslib/cy_syslib.h **** *
 822:Generated_Source\PSoC6\pdl\drivers/peripheral/syslib/cy_syslib.h **** *  Returns a field mask if the value is not false.
 823:Generated_Source\PSoC6\pdl\drivers/peripheral/syslib/cy_syslib.h **** *  Returns 0, if the value is false.
 824:Generated_Source\PSoC6\pdl\drivers/peripheral/syslib/cy_syslib.h **** *
 825:Generated_Source\PSoC6\pdl\drivers/peripheral/syslib/cy_syslib.h **** *******************************************************************************/
 826:Generated_Source\PSoC6\pdl\drivers/peripheral/syslib/cy_syslib.h **** #define _BOOL2FLD(field, value) (((value) != false) ? (field ## _Msk) : 0UL)
 827:Generated_Source\PSoC6\pdl\drivers/peripheral/syslib/cy_syslib.h **** 
 828:Generated_Source\PSoC6\pdl\drivers/peripheral/syslib/cy_syslib.h **** 
 829:Generated_Source\PSoC6\pdl\drivers/peripheral/syslib/cy_syslib.h **** /*******************************************************************************
 830:Generated_Source\PSoC6\pdl\drivers/peripheral/syslib/cy_syslib.h **** * Macro Name: _FLD2BOOL
 831:Generated_Source\PSoC6\pdl\drivers/peripheral/syslib/cy_syslib.h **** ****************************************************************************//**
 832:Generated_Source\PSoC6\pdl\drivers/peripheral/syslib/cy_syslib.h **** *
 833:Generated_Source\PSoC6\pdl\drivers/peripheral/syslib/cy_syslib.h **** *  Returns true, if the value includes the field mask.
 834:Generated_Source\PSoC6\pdl\drivers/peripheral/syslib/cy_syslib.h **** *  Returns false, if the value doesn't include the field mask.
 835:Generated_Source\PSoC6\pdl\drivers/peripheral/syslib/cy_syslib.h **** *
 836:Generated_Source\PSoC6\pdl\drivers/peripheral/syslib/cy_syslib.h **** *******************************************************************************/
 837:Generated_Source\PSoC6\pdl\drivers/peripheral/syslib/cy_syslib.h **** #define _FLD2BOOL(field, value) (((value) & (field ## _Msk)) != 0UL)
 838:Generated_Source\PSoC6\pdl\drivers/peripheral/syslib/cy_syslib.h **** 
 839:Generated_Source\PSoC6\pdl\drivers/peripheral/syslib/cy_syslib.h **** 
 840:Generated_Source\PSoC6\pdl\drivers/peripheral/syslib/cy_syslib.h **** /******************************************************************************
 841:Generated_Source\PSoC6\pdl\drivers/peripheral/syslib/cy_syslib.h **** * Constants
 842:Generated_Source\PSoC6\pdl\drivers/peripheral/syslib/cy_syslib.h **** *****************************************************************************/
 843:Generated_Source\PSoC6\pdl\drivers/peripheral/syslib/cy_syslib.h **** /** Defines a 32-kHz clock delay */
 844:Generated_Source\PSoC6\pdl\drivers/peripheral/syslib/cy_syslib.h **** #define CY_DELAY_MS_OVERFLOW            (0x8000U)
 845:Generated_Source\PSoC6\pdl\drivers/peripheral/syslib/cy_syslib.h **** 
 846:Generated_Source\PSoC6\pdl\drivers/peripheral/syslib/cy_syslib.h **** /**
 847:Generated_Source\PSoC6\pdl\drivers/peripheral/syslib/cy_syslib.h **** * \defgroup group_syslib_macros_reset_cause Reset cause
 848:Generated_Source\PSoC6\pdl\drivers/peripheral/syslib/cy_syslib.h **** * \{
 849:Generated_Source\PSoC6\pdl\drivers/peripheral/syslib/cy_syslib.h **** * Define RESET_CAUSE mask values
ARM GAS  C:\Users\Rolf\AppData\Local\Temp\ccafVfle.s 			page 43


 850:Generated_Source\PSoC6\pdl\drivers/peripheral/syslib/cy_syslib.h **** */
 851:Generated_Source\PSoC6\pdl\drivers/peripheral/syslib/cy_syslib.h **** /** A basic WatchDog Timer (WDT) reset has occurred since the last power cycle. */
 852:Generated_Source\PSoC6\pdl\drivers/peripheral/syslib/cy_syslib.h **** #define CY_SYSLIB_RESET_HWWDT           (0x0001U)
 853:Generated_Source\PSoC6\pdl\drivers/peripheral/syslib/cy_syslib.h **** /** The fault logging system requested a reset from its Active logic. */
 854:Generated_Source\PSoC6\pdl\drivers/peripheral/syslib/cy_syslib.h **** #define CY_SYSLIB_RESET_ACT_FAULT       (0x0002U)
 855:Generated_Source\PSoC6\pdl\drivers/peripheral/syslib/cy_syslib.h **** /** The fault logging system requested a reset from its Deep-Sleep logic. */
 856:Generated_Source\PSoC6\pdl\drivers/peripheral/syslib/cy_syslib.h **** #define CY_SYSLIB_RESET_DPSLP_FAULT     (0x0004U)
 857:Generated_Source\PSoC6\pdl\drivers/peripheral/syslib/cy_syslib.h **** /** The CPU requested a system reset through it's SYSRESETREQ. This can be done via a debugger prob
 858:Generated_Source\PSoC6\pdl\drivers/peripheral/syslib/cy_syslib.h **** #define CY_SYSLIB_RESET_SOFT            (0x0010U)
 859:Generated_Source\PSoC6\pdl\drivers/peripheral/syslib/cy_syslib.h **** /** The Multi-Counter Watchdog timer #0 reset has occurred since the last power cycle. */
 860:Generated_Source\PSoC6\pdl\drivers/peripheral/syslib/cy_syslib.h **** #define CY_SYSLIB_RESET_SWWDT0          (0x0020U)
 861:Generated_Source\PSoC6\pdl\drivers/peripheral/syslib/cy_syslib.h **** /** The Multi-Counter Watchdog timer #1 reset has occurred since the last power cycle. */
 862:Generated_Source\PSoC6\pdl\drivers/peripheral/syslib/cy_syslib.h **** #define CY_SYSLIB_RESET_SWWDT1          (0x0040U)
 863:Generated_Source\PSoC6\pdl\drivers/peripheral/syslib/cy_syslib.h **** /** The Multi-Counter Watchdog timer #2 reset has occurred since the last power cycle. */
 864:Generated_Source\PSoC6\pdl\drivers/peripheral/syslib/cy_syslib.h **** #define CY_SYSLIB_RESET_SWWDT2          (0x0080U)
 865:Generated_Source\PSoC6\pdl\drivers/peripheral/syslib/cy_syslib.h **** /** The Multi-Counter Watchdog timer #3 reset has occurred since the last power cycle. */
 866:Generated_Source\PSoC6\pdl\drivers/peripheral/syslib/cy_syslib.h **** #define CY_SYSLIB_RESET_SWWDT3          (0x0100U)
 867:Generated_Source\PSoC6\pdl\drivers/peripheral/syslib/cy_syslib.h **** /** The reset has occurred on a wakeup from Hibernate power mode. */
 868:Generated_Source\PSoC6\pdl\drivers/peripheral/syslib/cy_syslib.h **** #define CY_SYSLIB_RESET_HIB_WAKEUP      (0x40000UL)
 869:Generated_Source\PSoC6\pdl\drivers/peripheral/syslib/cy_syslib.h **** 
 870:Generated_Source\PSoC6\pdl\drivers/peripheral/syslib/cy_syslib.h **** /** \} group_syslib_macros_reset_cause */
 871:Generated_Source\PSoC6\pdl\drivers/peripheral/syslib/cy_syslib.h **** 
 872:Generated_Source\PSoC6\pdl\drivers/peripheral/syslib/cy_syslib.h **** /** Bit[31:24] Opcode = 0x1B (SoftReset)
 873:Generated_Source\PSoC6\pdl\drivers/peripheral/syslib/cy_syslib.h ****  *  Bit[7:1]   Type   = 1    (Only CM4 reset)
 874:Generated_Source\PSoC6\pdl\drivers/peripheral/syslib/cy_syslib.h ****  */
 875:Generated_Source\PSoC6\pdl\drivers/peripheral/syslib/cy_syslib.h **** #define CY_IPC_DATA_FOR_CM4_SOFT_RESET  (0x1B000002UL)
 876:Generated_Source\PSoC6\pdl\drivers/peripheral/syslib/cy_syslib.h **** 
 877:Generated_Source\PSoC6\pdl\drivers/peripheral/syslib/cy_syslib.h **** /**
 878:Generated_Source\PSoC6\pdl\drivers/peripheral/syslib/cy_syslib.h **** * \defgroup group_syslib_macros_unique_id Unique ID
 879:Generated_Source\PSoC6\pdl\drivers/peripheral/syslib/cy_syslib.h **** * \{
 880:Generated_Source\PSoC6\pdl\drivers/peripheral/syslib/cy_syslib.h **** * Unique ID fields positions
 881:Generated_Source\PSoC6\pdl\drivers/peripheral/syslib/cy_syslib.h **** */
 882:Generated_Source\PSoC6\pdl\drivers/peripheral/syslib/cy_syslib.h **** #define CY_UNIQUE_ID_DIE_YEAR_Pos       (57U)    /**< The position of the DIE_YEAR  field in the si
 883:Generated_Source\PSoC6\pdl\drivers/peripheral/syslib/cy_syslib.h **** #define CY_UNIQUE_ID_DIE_MINOR_Pos      (56U)    /**< The position of the DIE_MINOR field in the si
 884:Generated_Source\PSoC6\pdl\drivers/peripheral/syslib/cy_syslib.h **** #define CY_UNIQUE_ID_DIE_SORT_Pos       (48U)    /**< The position of the DIE_SORT  field in the si
 885:Generated_Source\PSoC6\pdl\drivers/peripheral/syslib/cy_syslib.h **** #define CY_UNIQUE_ID_DIE_Y_Pos          (40U)    /**< The position of the DIE_Y     field in the si
 886:Generated_Source\PSoC6\pdl\drivers/peripheral/syslib/cy_syslib.h **** #define CY_UNIQUE_ID_DIE_X_Pos          (32U)    /**< The position of the DIE_X     field in the si
 887:Generated_Source\PSoC6\pdl\drivers/peripheral/syslib/cy_syslib.h **** #define CY_UNIQUE_ID_DIE_WAFER_Pos      (24U)    /**< The position of the DIE_WAFER field in the si
 888:Generated_Source\PSoC6\pdl\drivers/peripheral/syslib/cy_syslib.h **** #define CY_UNIQUE_ID_DIE_LOT_2_Pos      (16U)    /**< The position of the DIE_LOT_2 field in the si
 889:Generated_Source\PSoC6\pdl\drivers/peripheral/syslib/cy_syslib.h **** #define CY_UNIQUE_ID_DIE_LOT_1_Pos      (8U)     /**< The position of the DIE_LOT_1 field in the si
 890:Generated_Source\PSoC6\pdl\drivers/peripheral/syslib/cy_syslib.h **** #define CY_UNIQUE_ID_DIE_LOT_0_Pos      (0U)     /**< The position of the DIE_LOT_0 field in the si
 891:Generated_Source\PSoC6\pdl\drivers/peripheral/syslib/cy_syslib.h **** 
 892:Generated_Source\PSoC6\pdl\drivers/peripheral/syslib/cy_syslib.h **** /** \} group_syslib_macros_unique_id */
 893:Generated_Source\PSoC6\pdl\drivers/peripheral/syslib/cy_syslib.h **** 
 894:Generated_Source\PSoC6\pdl\drivers/peripheral/syslib/cy_syslib.h **** /** \} group_syslib_macros */
 895:Generated_Source\PSoC6\pdl\drivers/peripheral/syslib/cy_syslib.h **** 
 896:Generated_Source\PSoC6\pdl\drivers/peripheral/syslib/cy_syslib.h **** /******************************************************************************
 897:Generated_Source\PSoC6\pdl\drivers/peripheral/syslib/cy_syslib.h **** * Function prototypes
 898:Generated_Source\PSoC6\pdl\drivers/peripheral/syslib/cy_syslib.h **** ******************************************************************************/
 899:Generated_Source\PSoC6\pdl\drivers/peripheral/syslib/cy_syslib.h **** 
 900:Generated_Source\PSoC6\pdl\drivers/peripheral/syslib/cy_syslib.h **** /**
 901:Generated_Source\PSoC6\pdl\drivers/peripheral/syslib/cy_syslib.h **** * \addtogroup group_syslib_functions
 902:Generated_Source\PSoC6\pdl\drivers/peripheral/syslib/cy_syslib.h **** * \{
 903:Generated_Source\PSoC6\pdl\drivers/peripheral/syslib/cy_syslib.h **** */
 904:Generated_Source\PSoC6\pdl\drivers/peripheral/syslib/cy_syslib.h **** 
 905:Generated_Source\PSoC6\pdl\drivers/peripheral/syslib/cy_syslib.h **** void Cy_SysLib_Delay(uint32_t milliseconds);
 906:Generated_Source\PSoC6\pdl\drivers/peripheral/syslib/cy_syslib.h **** void Cy_SysLib_DelayUs(uint16_t microseconds);
ARM GAS  C:\Users\Rolf\AppData\Local\Temp\ccafVfle.s 			page 44


 907:Generated_Source\PSoC6\pdl\drivers/peripheral/syslib/cy_syslib.h **** /** Delays for the specified number of cycles.
 908:Generated_Source\PSoC6\pdl\drivers/peripheral/syslib/cy_syslib.h ****  *  The function is implemented in the assembler for each supported compiler.
 909:Generated_Source\PSoC6\pdl\drivers/peripheral/syslib/cy_syslib.h ****  *  \param cycles  The number of cycles to delay.
 910:Generated_Source\PSoC6\pdl\drivers/peripheral/syslib/cy_syslib.h ****  */
 911:Generated_Source\PSoC6\pdl\drivers/peripheral/syslib/cy_syslib.h **** void Cy_SysLib_DelayCycles(uint32_t cycles);
 912:Generated_Source\PSoC6\pdl\drivers/peripheral/syslib/cy_syslib.h **** __NO_RETURN void Cy_SysLib_Halt(uint32_t reason);
 913:Generated_Source\PSoC6\pdl\drivers/peripheral/syslib/cy_syslib.h **** #if !defined(NDEBUG) || defined(CY_DOXYGEN)
 914:Generated_Source\PSoC6\pdl\drivers/peripheral/syslib/cy_syslib.h ****     void Cy_SysLib_AssertFailed(const char_t * file, uint32_t line);
 915:Generated_Source\PSoC6\pdl\drivers/peripheral/syslib/cy_syslib.h **** #endif  /* !defined(NDEBUG) || defined(CY_DOXYGEN) */
 916:Generated_Source\PSoC6\pdl\drivers/peripheral/syslib/cy_syslib.h **** void Cy_SysLib_ClearFlashCacheAndBuffer(void);
 917:Generated_Source\PSoC6\pdl\drivers/peripheral/syslib/cy_syslib.h **** cy_en_syslib_status_t Cy_SysLib_ResetBackupDomain(void);
 918:Generated_Source\PSoC6\pdl\drivers/peripheral/syslib/cy_syslib.h **** uint32_t Cy_SysLib_GetResetReason(void);
 919:Generated_Source\PSoC6\pdl\drivers/peripheral/syslib/cy_syslib.h **** void Cy_SysLib_ClearResetReason(void);
 920:Generated_Source\PSoC6\pdl\drivers/peripheral/syslib/cy_syslib.h **** uint64_t Cy_SysLib_GetUniqueId(void);
 921:Generated_Source\PSoC6\pdl\drivers/peripheral/syslib/cy_syslib.h **** #if (CY_CPU_CORTEX_M0P)
 922:Generated_Source\PSoC6\pdl\drivers/peripheral/syslib/cy_syslib.h ****     void Cy_SysLib_SoftResetCM4(void);
 923:Generated_Source\PSoC6\pdl\drivers/peripheral/syslib/cy_syslib.h **** #endif /* CY_CPU_CORTEX_M0P */
 924:Generated_Source\PSoC6\pdl\drivers/peripheral/syslib/cy_syslib.h **** #if (CY_ARM_FAULT_DEBUG == CY_ARM_FAULT_DEBUG_ENABLED) || defined(CY_DOXYGEN)
 925:Generated_Source\PSoC6\pdl\drivers/peripheral/syslib/cy_syslib.h ****     void Cy_SysLib_FaultHandler(uint32_t const *faultStackAddr);
 926:Generated_Source\PSoC6\pdl\drivers/peripheral/syslib/cy_syslib.h ****     void Cy_SysLib_ProcessingFault(void);
 927:Generated_Source\PSoC6\pdl\drivers/peripheral/syslib/cy_syslib.h **** #endif /* (CY_ARM_FAULT_DEBUG == CY_ARM_FAULT_DEBUG_ENABLED) */
 928:Generated_Source\PSoC6\pdl\drivers/peripheral/syslib/cy_syslib.h **** void Cy_SysLib_SetWaitStates(bool ulpMode, uint32_t clkHfMHz);
 929:Generated_Source\PSoC6\pdl\drivers/peripheral/syslib/cy_syslib.h **** 
 930:Generated_Source\PSoC6\pdl\drivers/peripheral/syslib/cy_syslib.h **** 
 931:Generated_Source\PSoC6\pdl\drivers/peripheral/syslib/cy_syslib.h **** /*******************************************************************************
 932:Generated_Source\PSoC6\pdl\drivers/peripheral/syslib/cy_syslib.h **** * Function Name: Cy_SysLib_EnterCriticalSection
 933:Generated_Source\PSoC6\pdl\drivers/peripheral/syslib/cy_syslib.h **** ****************************************************************************//**
 934:Generated_Source\PSoC6\pdl\drivers/peripheral/syslib/cy_syslib.h **** *
 935:Generated_Source\PSoC6\pdl\drivers/peripheral/syslib/cy_syslib.h **** *  Cy_SysLib_EnterCriticalSection disables interrupts and returns a value
 936:Generated_Source\PSoC6\pdl\drivers/peripheral/syslib/cy_syslib.h **** *  indicating whether the interrupts were previously enabled.
 937:Generated_Source\PSoC6\pdl\drivers/peripheral/syslib/cy_syslib.h **** *
 938:Generated_Source\PSoC6\pdl\drivers/peripheral/syslib/cy_syslib.h **** *  \return Returns the current interrupt status. Returns 0 if the interrupts
 939:Generated_Source\PSoC6\pdl\drivers/peripheral/syslib/cy_syslib.h **** *          were previously enabled or 1 if the interrupts were previously
 940:Generated_Source\PSoC6\pdl\drivers/peripheral/syslib/cy_syslib.h **** *          disabled.
 941:Generated_Source\PSoC6\pdl\drivers/peripheral/syslib/cy_syslib.h **** *
 942:Generated_Source\PSoC6\pdl\drivers/peripheral/syslib/cy_syslib.h **** *  \note Implementation of Cy_SysLib_EnterCriticalSection manipulates the IRQ
 943:Generated_Source\PSoC6\pdl\drivers/peripheral/syslib/cy_syslib.h **** *        enable bit with interrupts still enabled.
 944:Generated_Source\PSoC6\pdl\drivers/peripheral/syslib/cy_syslib.h **** *
 945:Generated_Source\PSoC6\pdl\drivers/peripheral/syslib/cy_syslib.h **** *******************************************************************************/
 946:Generated_Source\PSoC6\pdl\drivers/peripheral/syslib/cy_syslib.h **** uint32_t Cy_SysLib_EnterCriticalSection(void);
 947:Generated_Source\PSoC6\pdl\drivers/peripheral/syslib/cy_syslib.h **** 
 948:Generated_Source\PSoC6\pdl\drivers/peripheral/syslib/cy_syslib.h **** 
 949:Generated_Source\PSoC6\pdl\drivers/peripheral/syslib/cy_syslib.h **** /*******************************************************************************
 950:Generated_Source\PSoC6\pdl\drivers/peripheral/syslib/cy_syslib.h **** * Function Name: Cy_SysLib_ExitCriticalSection
 951:Generated_Source\PSoC6\pdl\drivers/peripheral/syslib/cy_syslib.h **** ****************************************************************************//**
 952:Generated_Source\PSoC6\pdl\drivers/peripheral/syslib/cy_syslib.h **** *
 953:Generated_Source\PSoC6\pdl\drivers/peripheral/syslib/cy_syslib.h **** *  Re-enables the interrupts if they were enabled before
 954:Generated_Source\PSoC6\pdl\drivers/peripheral/syslib/cy_syslib.h **** *  Cy_SysLib_EnterCriticalSection() was called. The argument should be the value
 955:Generated_Source\PSoC6\pdl\drivers/peripheral/syslib/cy_syslib.h **** *  returned from \ref Cy_SysLib_EnterCriticalSection().
 956:Generated_Source\PSoC6\pdl\drivers/peripheral/syslib/cy_syslib.h **** *
 957:Generated_Source\PSoC6\pdl\drivers/peripheral/syslib/cy_syslib.h **** *  \param savedIntrStatus  Puts the saved interrupts status returned by
 958:Generated_Source\PSoC6\pdl\drivers/peripheral/syslib/cy_syslib.h **** *                          the \ref Cy_SysLib_EnterCriticalSection().
 959:Generated_Source\PSoC6\pdl\drivers/peripheral/syslib/cy_syslib.h **** *
 960:Generated_Source\PSoC6\pdl\drivers/peripheral/syslib/cy_syslib.h **** *******************************************************************************/
 961:Generated_Source\PSoC6\pdl\drivers/peripheral/syslib/cy_syslib.h **** void Cy_SysLib_ExitCriticalSection(uint32_t savedIntrStatus);
 962:Generated_Source\PSoC6\pdl\drivers/peripheral/syslib/cy_syslib.h **** 
 963:Generated_Source\PSoC6\pdl\drivers/peripheral/syslib/cy_syslib.h **** 
ARM GAS  C:\Users\Rolf\AppData\Local\Temp\ccafVfle.s 			page 45


 964:Generated_Source\PSoC6\pdl\drivers/peripheral/syslib/cy_syslib.h **** /** \cond INTERNAL */
 965:Generated_Source\PSoC6\pdl\drivers/peripheral/syslib/cy_syslib.h **** #define CY_SYSLIB_DEVICE_REV_0A       (0x21U)  /**< The device TO *A Revision ID */
 966:Generated_Source\PSoC6\pdl\drivers/peripheral/syslib/cy_syslib.h **** #define CY_SYSLIB_DEVICE_PSOC6ABLE2   (0x100U) /**< The PSoC6 BLE2 device Family ID */
 967:Generated_Source\PSoC6\pdl\drivers/peripheral/syslib/cy_syslib.h **** 
 968:Generated_Source\PSoC6\pdl\drivers/peripheral/syslib/cy_syslib.h **** 
 969:Generated_Source\PSoC6\pdl\drivers/peripheral/syslib/cy_syslib.h **** /*******************************************************************************
 970:Generated_Source\PSoC6\pdl\drivers/peripheral/syslib/cy_syslib.h **** * Function Name: Cy_SysLib_GetDeviceRevision
 971:Generated_Source\PSoC6\pdl\drivers/peripheral/syslib/cy_syslib.h **** ****************************************************************************//**
 972:Generated_Source\PSoC6\pdl\drivers/peripheral/syslib/cy_syslib.h **** *
 973:Generated_Source\PSoC6\pdl\drivers/peripheral/syslib/cy_syslib.h **** * This function returns a device Revision ID.
 974:Generated_Source\PSoC6\pdl\drivers/peripheral/syslib/cy_syslib.h **** *
 975:Generated_Source\PSoC6\pdl\drivers/peripheral/syslib/cy_syslib.h **** * \return  A device Revision ID.
 976:Generated_Source\PSoC6\pdl\drivers/peripheral/syslib/cy_syslib.h **** *
 977:Generated_Source\PSoC6\pdl\drivers/peripheral/syslib/cy_syslib.h **** *******************************************************************************/
 978:Generated_Source\PSoC6\pdl\drivers/peripheral/syslib/cy_syslib.h **** __STATIC_INLINE uint8_t Cy_SysLib_GetDeviceRevision(void)
 979:Generated_Source\PSoC6\pdl\drivers/peripheral/syslib/cy_syslib.h **** {
 980:Generated_Source\PSoC6\pdl\drivers/peripheral/syslib/cy_syslib.h ****     return ((SFLASH_SI_REVISION_ID == 0UL) ? CY_SYSLIB_DEVICE_REV_0A : SFLASH_SI_REVISION_ID);
 503              		.loc 3 980 0
 504 0054 B023     		movs	r3, #176
 505 0056 5B05     		lsls	r3, r3, #21
 506 0058 5B78     		ldrb	r3, [r3, #1]
 507 005a 002B     		cmp	r3, #0
 508 005c 04D0     		beq	.L30
 509 005e B023     		movs	r3, #176
 510 0060 5B05     		lsls	r3, r3, #21
 511 0062 5B78     		ldrb	r3, [r3, #1]
 512 0064 DBB2     		uxtb	r3, r3
 513 0066 00E0     		b	.L27
 514              	.L30:
 515 0068 2123     		movs	r3, #33
 516              	.L27:
 517              	.LBE15:
 518              	.LBE14:
 188:system_psoc6_cm0plus.c ****     {
 519              		.loc 1 188 0
 520 006a 212B     		cmp	r3, #33
 521 006c 03D1     		bne	.L28
 191:system_psoc6_cm0plus.c ****         /* Release IPC structure #7 to avoid deadlocks in case of SW or WDT reset during Deep-Sleep
 522              		.loc 1 191 0
 523 006e 124B     		ldr	r3, .L31+20
 524 0070 0022     		movs	r2, #0
 525 0072 DA60     		str	r2, [r3, #12]
 193:system_psoc6_cm0plus.c ****     }
 526              		.loc 1 193 0
 527 0074 5A60     		str	r2, [r3, #4]
 528              	.L28:
 201:system_psoc6_cm0plus.c **** 
 529              		.loc 1 201 0
 530 0076 114C     		ldr	r4, .L31+24
 531 0078 2200     		movs	r2, r4
 532 007a 8021     		movs	r1, #128
 533 007c 0420     		movs	r0, #4
 534 007e FFF7FEFF 		bl	Cy_IPC_Sema_Init
 535              	.LVL58:
 221:system_psoc6_cm0plus.c **** 
 536              		.loc 1 221 0
 537 0082 2000     		movs	r0, r4
ARM GAS  C:\Users\Rolf\AppData\Local\Temp\ccafVfle.s 			page 46


 538 0084 1030     		adds	r0, r0, #16
 539 0086 FFF7FEFF 		bl	Cy_IPC_Pipe_Config
 540              	.LVL59:
 248:system_psoc6_cm0plus.c ****     {
 541              		.loc 1 248 0
 542 008a 0D4B     		ldr	r3, .L31+28
 543 008c 1A68     		ldr	r2, [r3]
 544 008e 5123     		movs	r3, #81
 545 0090 D35C     		ldrb	r3, [r2, r3]
 546 0092 002B     		cmp	r3, #0
 547 0094 02D0     		beq	.L29
 250:system_psoc6_cm0plus.c ****     }
 548              		.loc 1 250 0
 549 0096 0B48     		ldr	r0, .L31+32
 550 0098 FFF7FEFF 		bl	Cy_IPC_Pipe_Init
 551              	.LVL60:
 552              	.L29:
 254:system_psoc6_cm0plus.c **** #endif /* defined(CY_DEVICE_PSOC6ABLE2) */
 553              		.loc 1 254 0
 554 009c FFF7FEFF 		bl	Cy_Flash_Init
 555              	.LVL61:
 258:system_psoc6_cm0plus.c **** 
 556              		.loc 1 258 0
 557              		@ sp needed
 558 00a0 10BD     		pop	{r4, pc}
 559              	.L32:
 560 00a2 C046     		.align	2
 561              	.L31:
 562 00a4 00000000 		.word	cy_deviceIpBlockCfgPSoC6_01
 563 00a8 00002640 		.word	1076232192
 564 00ac 01000200 		.word	131073
 565 00b0 84050000 		.word	1412
 566 00b4 8C050000 		.word	1420
 567 00b8 E0002340 		.word	1076035808
 568 00bc 00000000 		.word	.LANCHOR1
 569 00c0 00000000 		.word	cy_device
 570 00c4 00000000 		.word	.LANCHOR2
 571              		.cfi_endproc
 572              	.LFE73:
 573              		.size	SystemInit, .-SystemInit
 574              		.section	.text.Cy_SysGetCM4Status,"ax",%progbits
 575              		.align	2
 576              		.global	Cy_SysGetCM4Status
 577              		.code	16
 578              		.thumb_func
 579              		.type	Cy_SysGetCM4Status, %function
 580              	Cy_SysGetCM4Status:
 581              	.LFB76:
 459:system_psoc6_cm0plus.c ****     uint32_t regValue;
 582              		.loc 1 459 0
 583              		.cfi_startproc
 584              		@ args = 0, pretend = 0, frame = 0
 585              		@ frame_needed = 0, uses_anonymous_args = 0
 586              		@ link register save eliminated.
 463:system_psoc6_cm0plus.c **** 
 587              		.loc 1 463 0
 588 0000 8023     		movs	r3, #128
ARM GAS  C:\Users\Rolf\AppData\Local\Temp\ccafVfle.s 			page 47


 589 0002 024A     		ldr	r2, .L34
 590 0004 D358     		ldr	r3, [r2, r3]
 591 0006 0320     		movs	r0, #3
 592 0008 1840     		ands	r0, r3
 593              	.LVL62:
 466:system_psoc6_cm0plus.c **** 
 594              		.loc 1 466 0
 595              		@ sp needed
 596 000a 7047     		bx	lr
 597              	.L35:
 598              		.align	2
 599              	.L34:
 600 000c 00002140 		.word	1075904512
 601              		.cfi_endproc
 602              	.LFE76:
 603              		.size	Cy_SysGetCM4Status, .-Cy_SysGetCM4Status
 604              		.section	.text.Cy_SysDisableCM4,"ax",%progbits
 605              		.align	2
 606              		.global	Cy_SysDisableCM4
 607              		.code	16
 608              		.thumb_func
 609              		.type	Cy_SysDisableCM4, %function
 610              	Cy_SysDisableCM4:
 611              	.LFB78:
 529:system_psoc6_cm0plus.c ****     uint32_t interruptState;
 612              		.loc 1 529 0
 613              		.cfi_startproc
 614              		@ args = 0, pretend = 0, frame = 0
 615              		@ frame_needed = 0, uses_anonymous_args = 0
 616 0000 10B5     		push	{r4, lr}
 617              		.cfi_def_cfa_offset 8
 618              		.cfi_offset 4, -8
 619              		.cfi_offset 14, -4
 533:system_psoc6_cm0plus.c **** 
 620              		.loc 1 533 0
 621 0002 FFF7FEFF 		bl	Cy_SysLib_EnterCriticalSection
 622              	.LVL63:
 535:system_psoc6_cm0plus.c ****     regValue |= _VAL2FLD(CPUSS_CM4_PWR_CTL_VECTKEYSTAT, CY_SYS_CM4_PWR_CTL_KEY_OPEN);
 623              		.loc 1 535 0
 624 0006 0849     		ldr	r1, .L38
 625 0008 8022     		movs	r2, #128
 626 000a 8C58     		ldr	r4, [r1, r2]
 627 000c 074B     		ldr	r3, .L38+4
 628 000e 2340     		ands	r3, r4
 629              	.LVL64:
 536:system_psoc6_cm0plus.c ****     regValue |= CY_SYS_CM4_STATUS_DISABLED;
 630              		.loc 1 536 0
 631 0010 074C     		ldr	r4, .L38+8
 632 0012 2343     		orrs	r3, r4
 633              	.LVL65:
 538:system_psoc6_cm0plus.c **** 
 634              		.loc 1 538 0
 635 0014 8B50     		str	r3, [r1, r2]
 636              	.LVL66:
 637              	.L37:
 540:system_psoc6_cm0plus.c ****     {
 638              		.loc 1 540 0 discriminator 1
ARM GAS  C:\Users\Rolf\AppData\Local\Temp\ccafVfle.s 			page 48


 639 0016 8823     		movs	r3, #136
 640 0018 034A     		ldr	r2, .L38
 641 001a D358     		ldr	r3, [r2, r3]
 642 001c DB06     		lsls	r3, r3, #27
 643 001e FAD5     		bpl	.L37
 545:system_psoc6_cm0plus.c **** }
 644              		.loc 1 545 0
 645 0020 FFF7FEFF 		bl	Cy_SysLib_ExitCriticalSection
 646              	.LVL67:
 546:system_psoc6_cm0plus.c **** 
 647              		.loc 1 546 0
 648              		@ sp needed
 649 0024 10BD     		pop	{r4, pc}
 650              	.L39:
 651 0026 C046     		.align	2
 652              	.L38:
 653 0028 00002140 		.word	1075904512
 654 002c FCFF0000 		.word	65532
 655 0030 0000FA05 		.word	100270080
 656              		.cfi_endproc
 657              	.LFE78:
 658              		.size	Cy_SysDisableCM4, .-Cy_SysDisableCM4
 659              		.section	.text.Cy_SysRetainCM4,"ax",%progbits
 660              		.align	2
 661              		.global	Cy_SysRetainCM4
 662              		.code	16
 663              		.thumb_func
 664              		.type	Cy_SysRetainCM4, %function
 665              	Cy_SysRetainCM4:
 666              	.LFB79:
 567:system_psoc6_cm0plus.c ****     uint32_t interruptState;
 667              		.loc 1 567 0
 668              		.cfi_startproc
 669              		@ args = 0, pretend = 0, frame = 0
 670              		@ frame_needed = 0, uses_anonymous_args = 0
 671 0000 10B5     		push	{r4, lr}
 672              		.cfi_def_cfa_offset 8
 673              		.cfi_offset 4, -8
 674              		.cfi_offset 14, -4
 571:system_psoc6_cm0plus.c **** 
 675              		.loc 1 571 0
 676 0002 FFF7FEFF 		bl	Cy_SysLib_EnterCriticalSection
 677              	.LVL68:
 573:system_psoc6_cm0plus.c ****     regValue |= _VAL2FLD(CPUSS_CM4_PWR_CTL_VECTKEYSTAT, CY_SYS_CM4_PWR_CTL_KEY_OPEN);
 678              		.loc 1 573 0
 679 0006 0549     		ldr	r1, .L41
 680 0008 8022     		movs	r2, #128
 681 000a 8C58     		ldr	r4, [r1, r2]
 682 000c 044B     		ldr	r3, .L41+4
 683 000e 2340     		ands	r3, r4
 684              	.LVL69:
 575:system_psoc6_cm0plus.c ****     CPUSS->CM4_PWR_CTL = regValue;
 685              		.loc 1 575 0
 686 0010 044C     		ldr	r4, .L41+8
 687 0012 2343     		orrs	r3, r4
 688              	.LVL70:
 576:system_psoc6_cm0plus.c **** 
ARM GAS  C:\Users\Rolf\AppData\Local\Temp\ccafVfle.s 			page 49


 689              		.loc 1 576 0
 690 0014 8B50     		str	r3, [r1, r2]
 578:system_psoc6_cm0plus.c **** }
 691              		.loc 1 578 0
 692 0016 FFF7FEFF 		bl	Cy_SysLib_ExitCriticalSection
 693              	.LVL71:
 579:system_psoc6_cm0plus.c **** 
 694              		.loc 1 579 0
 695              		@ sp needed
 696 001a 10BD     		pop	{r4, pc}
 697              	.L42:
 698              		.align	2
 699              	.L41:
 700 001c 00002140 		.word	1075904512
 701 0020 FCFF0000 		.word	65532
 702 0024 0200FA05 		.word	100270082
 703              		.cfi_endproc
 704              	.LFE79:
 705              		.size	Cy_SysRetainCM4, .-Cy_SysRetainCM4
 706              		.section	.text.Cy_SysResetCM4,"ax",%progbits
 707              		.align	2
 708              		.global	Cy_SysResetCM4
 709              		.code	16
 710              		.thumb_func
 711              		.type	Cy_SysResetCM4, %function
 712              	Cy_SysResetCM4:
 713              	.LFB80:
 599:system_psoc6_cm0plus.c ****     uint32_t interruptState;
 714              		.loc 1 599 0
 715              		.cfi_startproc
 716              		@ args = 0, pretend = 0, frame = 0
 717              		@ frame_needed = 0, uses_anonymous_args = 0
 718 0000 10B5     		push	{r4, lr}
 719              		.cfi_def_cfa_offset 8
 720              		.cfi_offset 4, -8
 721              		.cfi_offset 14, -4
 603:system_psoc6_cm0plus.c **** 
 722              		.loc 1 603 0
 723 0002 FFF7FEFF 		bl	Cy_SysLib_EnterCriticalSection
 724              	.LVL72:
 605:system_psoc6_cm0plus.c ****     regValue |= _VAL2FLD(CPUSS_CM4_PWR_CTL_VECTKEYSTAT, CY_SYS_CM4_PWR_CTL_KEY_OPEN);
 725              		.loc 1 605 0
 726 0006 0849     		ldr	r1, .L45
 727 0008 8022     		movs	r2, #128
 728 000a 8C58     		ldr	r4, [r1, r2]
 729 000c 074B     		ldr	r3, .L45+4
 730 000e 2340     		ands	r3, r4
 731              	.LVL73:
 607:system_psoc6_cm0plus.c ****     CPUSS->CM4_PWR_CTL = regValue;
 732              		.loc 1 607 0
 733 0010 074C     		ldr	r4, .L45+8
 734 0012 2343     		orrs	r3, r4
 735              	.LVL74:
 608:system_psoc6_cm0plus.c **** 
 736              		.loc 1 608 0
 737 0014 8B50     		str	r3, [r1, r2]
 738              	.LVL75:
ARM GAS  C:\Users\Rolf\AppData\Local\Temp\ccafVfle.s 			page 50


 739              	.L44:
 610:system_psoc6_cm0plus.c ****     {
 740              		.loc 1 610 0 discriminator 1
 741 0016 8823     		movs	r3, #136
 742 0018 034A     		ldr	r2, .L45
 743 001a D358     		ldr	r3, [r2, r3]
 744 001c DB06     		lsls	r3, r3, #27
 745 001e FAD5     		bpl	.L44
 615:system_psoc6_cm0plus.c **** }
 746              		.loc 1 615 0
 747 0020 FFF7FEFF 		bl	Cy_SysLib_ExitCriticalSection
 748              	.LVL76:
 616:system_psoc6_cm0plus.c **** #endif /* #if (CY_SYSTEM_CPU_CM0P == 1UL) || defined(CY_DOXYGEN) */
 749              		.loc 1 616 0
 750              		@ sp needed
 751 0024 10BD     		pop	{r4, pc}
 752              	.L46:
 753 0026 C046     		.align	2
 754              	.L45:
 755 0028 00002140 		.word	1075904512
 756 002c FCFF0000 		.word	65532
 757 0030 0100FA05 		.word	100270081
 758              		.cfi_endproc
 759              	.LFE80:
 760              		.size	Cy_SysResetCM4, .-Cy_SysResetCM4
 761              		.section	.text.Cy_SysEnableCM4,"ax",%progbits
 762              		.align	2
 763              		.global	Cy_SysEnableCM4
 764              		.code	16
 765              		.thumb_func
 766              		.type	Cy_SysEnableCM4, %function
 767              	Cy_SysEnableCM4:
 768              	.LFB77:
 482:system_psoc6_cm0plus.c ****     uint32_t regValue;
 769              		.loc 1 482 0
 770              		.cfi_startproc
 771              		@ args = 0, pretend = 0, frame = 0
 772              		@ frame_needed = 0, uses_anonymous_args = 0
 773              	.LVL77:
 774 0000 70B5     		push	{r4, r5, r6, lr}
 775              		.cfi_def_cfa_offset 16
 776              		.cfi_offset 4, -16
 777              		.cfi_offset 5, -12
 778              		.cfi_offset 6, -8
 779              		.cfi_offset 14, -4
 780 0002 0500     		movs	r5, r0
 487:system_psoc6_cm0plus.c **** 
 781              		.loc 1 487 0
 782 0004 8305     		lsls	r3, r0, #22
 783 0006 04D0     		beq	.L48
 487:system_psoc6_cm0plus.c **** 
 784              		.loc 1 487 0 is_stmt 0 discriminator 1
 785 0008 E821     		movs	r1, #232
 786 000a FF31     		adds	r1, r1, #255
 787 000c 0F48     		ldr	r0, .L51
 788              	.LVL78:
 789 000e FFF7FEFF 		bl	Cy_SysLib_AssertFailed
ARM GAS  C:\Users\Rolf\AppData\Local\Temp\ccafVfle.s 			page 51


 790              	.LVL79:
 791              	.L48:
 489:system_psoc6_cm0plus.c **** 
 792              		.loc 1 489 0 is_stmt 1
 793 0012 FFF7FEFF 		bl	Cy_SysLib_EnterCriticalSection
 794              	.LVL80:
 795 0016 0400     		movs	r4, r0
 796              	.LVL81:
 491:system_psoc6_cm0plus.c ****     if (CY_SYS_CM4_STATUS_ENABLED == cpuState)
 797              		.loc 1 491 0
 798 0018 FFF7FEFF 		bl	Cy_SysGetCM4Status
 799              	.LVL82:
 492:system_psoc6_cm0plus.c ****     {
 800              		.loc 1 492 0
 801 001c 0328     		cmp	r0, #3
 802 001e 01D1     		bne	.L49
 494:system_psoc6_cm0plus.c ****     }
 803              		.loc 1 494 0
 804 0020 FFF7FEFF 		bl	Cy_SysResetCM4
 805              	.LVL83:
 806              	.L49:
 497:system_psoc6_cm0plus.c **** 
 807              		.loc 1 497 0
 808 0024 0A4A     		ldr	r2, .L51+4
 809 0026 B023     		movs	r3, #176
 810 0028 9B00     		lsls	r3, r3, #2
 811 002a D550     		str	r5, [r2, r3]
 499:system_psoc6_cm0plus.c ****     regValue |= _VAL2FLD(CPUSS_CM4_PWR_CTL_VECTKEYSTAT, CY_SYS_CM4_PWR_CTL_KEY_OPEN);
 812              		.loc 1 499 0
 813 002c 8021     		movs	r1, #128
 814 002e 5058     		ldr	r0, [r2, r1]
 815 0030 084B     		ldr	r3, .L51+8
 816 0032 0340     		ands	r3, r0
 817              	.LVL84:
 501:system_psoc6_cm0plus.c ****     CPUSS->CM4_PWR_CTL = regValue;
 818              		.loc 1 501 0
 819 0034 0848     		ldr	r0, .L51+12
 820 0036 0343     		orrs	r3, r0
 821              	.LVL85:
 502:system_psoc6_cm0plus.c **** 
 822              		.loc 1 502 0
 823 0038 5350     		str	r3, [r2, r1]
 824              	.LVL86:
 825              	.L50:
 504:system_psoc6_cm0plus.c ****     {
 826              		.loc 1 504 0 discriminator 1
 827 003a 8823     		movs	r3, #136
 828 003c 044A     		ldr	r2, .L51+4
 829 003e D358     		ldr	r3, [r2, r3]
 830 0040 DB06     		lsls	r3, r3, #27
 831 0042 FAD5     		bpl	.L50
 509:system_psoc6_cm0plus.c **** }
 832              		.loc 1 509 0
 833 0044 2000     		movs	r0, r4
 834 0046 FFF7FEFF 		bl	Cy_SysLib_ExitCriticalSection
 835              	.LVL87:
 510:system_psoc6_cm0plus.c **** 
ARM GAS  C:\Users\Rolf\AppData\Local\Temp\ccafVfle.s 			page 52


 836              		.loc 1 510 0
 837              		@ sp needed
 838              	.LVL88:
 839              	.LVL89:
 840 004a 70BD     		pop	{r4, r5, r6, pc}
 841              	.L52:
 842              		.align	2
 843              	.L51:
 844 004c 00000000 		.word	.LC6
 845 0050 00002140 		.word	1075904512
 846 0054 FCFF0000 		.word	65532
 847 0058 0300FA05 		.word	100270083
 848              		.cfi_endproc
 849              	.LFE77:
 850              		.size	Cy_SysEnableCM4, .-Cy_SysEnableCM4
 851              		.global	cy_delay32kMs
 852              		.global	cy_delayFreqMhz
 853              		.global	cy_delayFreqKhz
 854              		.global	cy_delayFreqHz
 855              		.global	cy_BleEcoClockFreqHz
 856              		.global	cy_PeriClkFreqHz
 857              		.global	cy_Hfclk0FreqHz
 858              		.global	SystemCoreClock
 859              		.section	.rodata
 860              		.align	2
 861              		.set	.LANCHOR2,. + 0
 862              		.type	systemIpcPipeConfigCm0.10615, %object
 863              		.size	systemIpcPipeConfigCm0.10615, 52
 864              	systemIpcPipeConfigCm0.10615:
 865 0000 03000000 		.word	3
 866 0004 01000000 		.word	1
 867 0008 01000000 		.word	1
 868 000c 00000000 		.word	0
 869 0010 05036000 		.word	6292229
 870 0014 04000000 		.word	4
 871 0018 01000000 		.word	1
 872 001c 00000000 		.word	0
 873 0020 01000000 		.word	1
 874 0024 06046000 		.word	6292486
 875 0028 08000000 		.word	8
 876 002c 70010000 		.word	systemIpcPipeSysCbArray.10614
 877 0030 00000000 		.word	Cy_SysIpcPipeIsrCm0
 878              		.data
 879              		.align	2
 880              		.set	.LANCHOR0,. + 0
 881              		.type	cy_BleEcoClockFreqHz, %object
 882              		.size	cy_BleEcoClockFreqHz, 4
 883              	cy_BleEcoClockFreqHz:
 884 0000 0048E801 		.word	32000000
 885              		.type	cy_Hfclk0FreqHz, %object
 886              		.size	cy_Hfclk0FreqHz, 4
 887              	cy_Hfclk0FreqHz:
 888 0004 00127A00 		.word	8000000
 889              		.type	cy_PeriClkFreqHz, %object
 890              		.size	cy_PeriClkFreqHz, 4
 891              	cy_PeriClkFreqHz:
 892 0008 00093D00 		.word	4000000
ARM GAS  C:\Users\Rolf\AppData\Local\Temp\ccafVfle.s 			page 53


 893              		.type	SystemCoreClock, %object
 894              		.size	SystemCoreClock, 4
 895              	SystemCoreClock:
 896 000c 00093D00 		.word	4000000
 897              		.type	cy_delayFreqHz, %object
 898              		.size	cy_delayFreqHz, 4
 899              	cy_delayFreqHz:
 900 0010 00093D00 		.word	4000000
 901              		.type	cy_delayFreqMhz, %object
 902              		.size	cy_delayFreqMhz, 1
 903              	cy_delayFreqMhz:
 904 0014 04       		.byte	4
 905 0015 000000   		.space	3
 906              		.type	cy_delayFreqKhz, %object
 907              		.size	cy_delayFreqKhz, 4
 908              	cy_delayFreqKhz:
 909 0018 A00F0000 		.word	4000
 910              		.type	cy_delay32kMs, %object
 911              		.size	cy_delay32kMs, 4
 912              	cy_delay32kMs:
 913 001c 0000D007 		.word	131072000
 914              		.section	.rodata.str1.4,"aMS",%progbits,1
 915              		.align	2
 916              	.LC6:
 917 0000 73797374 		.ascii	"system_psoc6_cm0plus.c\000"
 917      656D5F70 
 917      736F6336 
 917      5F636D30 
 917      706C7573 
 918              		.bss
 919              		.align	2
 920              		.set	.LANCHOR1,. + 0
 921              		.type	ipcSemaArray.10612, %object
 922              		.size	ipcSemaArray.10612, 16
 923              	ipcSemaArray.10612:
 924 0000 00000000 		.space	16
 924      00000000 
 924      00000000 
 924      00000000 
 925              		.type	systemIpcPipeEpArray.10613, %object
 926              		.size	systemIpcPipeEpArray.10613, 352
 927              	systemIpcPipeEpArray.10613:
 928 0010 00000000 		.space	352
 928      00000000 
 928      00000000 
 928      00000000 
 928      00000000 
 929              		.type	systemIpcPipeSysCbArray.10614, %object
 930              		.size	systemIpcPipeSysCbArray.10614, 32
 931              	systemIpcPipeSysCbArray.10614:
 932 0170 00000000 		.space	32
 932      00000000 
 932      00000000 
 932      00000000 
 932      00000000 
 933              		.text
 934              	.Letext0:
ARM GAS  C:\Users\Rolf\AppData\Local\Temp\ccafVfle.s 			page 54


 935              		.file 4 "c:\\program files (x86)\\cypress\\psoc creator\\4.4\\4.4\\psoc creator\\import\\gnu\\arm\
 936              		.file 5 "c:\\program files (x86)\\cypress\\psoc creator\\4.4\\4.4\\psoc creator\\import\\gnu\\arm\
 937              		.file 6 "Generated_Source\\PSoC6\\pdl\\devices/psoc6/include/cy8c6347bzi_bld53.h"
 938              		.file 7 "Generated_Source\\PSoC6\\pdl\\devices/psoc6/include/ip/cyip_sflash.h"
 939              		.file 8 "Generated_Source\\PSoC6\\pdl\\devices/psoc6/include/ip/cyip_cpuss.h"
 940              		.file 9 "Generated_Source\\PSoC6\\pdl\\devices/psoc6/include/ip/cyip_ipc.h"
 941              		.file 10 "Generated_Source\\PSoC6\\pdl\\devices/psoc6/include/ip/cyip_srss.h"
