ARM GAS  C:\Users\Rolf\AppData\Local\Temp\cc6dsmLn.s 			page 1


   1              		.syntax unified
   2              		.cpu cortex-m4
   3              		.eabi_attribute 27, 1
   4              		.fpu fpv4-sp-d16
   5              		.eabi_attribute 20, 1
   6              		.eabi_attribute 21, 1
   7              		.eabi_attribute 23, 3
   8              		.eabi_attribute 24, 1
   9              		.eabi_attribute 25, 1
  10              		.eabi_attribute 26, 1
  11              		.eabi_attribute 30, 1
  12              		.eabi_attribute 34, 1
  13              		.eabi_attribute 18, 4
  14              		.thumb
  15              		.syntax unified
  16              		.file	"CapSense_Structure.c"
  17              		.text
  18              	.Ltext0:
  19              		.cfi_sections	.debug_frame
  20              		.section	.text.DsParseParamId,"ax",%progbits
  21              		.align	2
  22              		.thumb
  23              		.thumb_func
  24              		.type	DsParseParamId, %function
  25              	DsParseParamId:
  26              	.LFB133:
  27              		.file 1 "Generated_Source\\PSoC6\\CapSense_Structure.c"
   1:Generated_Source\PSoC6/CapSense_Structure.c **** /***************************************************************************//**
   2:Generated_Source\PSoC6/CapSense_Structure.c **** * \file CapSense_Structure.c
   3:Generated_Source\PSoC6/CapSense_Structure.c **** * \version 3.0
   4:Generated_Source\PSoC6/CapSense_Structure.c **** *
   5:Generated_Source\PSoC6/CapSense_Structure.c **** * \brief
   6:Generated_Source\PSoC6/CapSense_Structure.c **** *   This file defines the data structure global variables and provides implementation
   7:Generated_Source\PSoC6/CapSense_Structure.c **** *   for the high-level and low-level APIs of the Data Structure module.
   8:Generated_Source\PSoC6/CapSense_Structure.c **** *
   9:Generated_Source\PSoC6/CapSense_Structure.c **** * \see CapSense v3.0 Datasheet
  10:Generated_Source\PSoC6/CapSense_Structure.c **** *
  11:Generated_Source\PSoC6/CapSense_Structure.c **** *//*****************************************************************************
  12:Generated_Source\PSoC6/CapSense_Structure.c **** * Copyright (2016-2017), Cypress Semiconductor Corporation.
  13:Generated_Source\PSoC6/CapSense_Structure.c **** ********************************************************************************
  14:Generated_Source\PSoC6/CapSense_Structure.c **** * This software is owned by Cypress Semiconductor Corporation (Cypress) and is
  15:Generated_Source\PSoC6/CapSense_Structure.c **** * protected by and subject to worldwide patent protection (United States and
  16:Generated_Source\PSoC6/CapSense_Structure.c **** * foreign), United States copyright laws and international treaty provisions.
  17:Generated_Source\PSoC6/CapSense_Structure.c **** * Cypress hereby grants to licensee a personal, non-exclusive, non-transferable
  18:Generated_Source\PSoC6/CapSense_Structure.c **** * license to copy, use, modify, create derivative works of, and compile the
  19:Generated_Source\PSoC6/CapSense_Structure.c **** * Cypress Source Code and derivative works for the sole purpose of creating
  20:Generated_Source\PSoC6/CapSense_Structure.c **** * custom software in support of licensee product to be used only in conjunction
  21:Generated_Source\PSoC6/CapSense_Structure.c **** * with a Cypress integrated circuit as specified in the applicable agreement.
  22:Generated_Source\PSoC6/CapSense_Structure.c **** * Any reproduction, modification, translation, compilation, or representation of
  23:Generated_Source\PSoC6/CapSense_Structure.c **** * this software except as specified above is prohibited without the express
  24:Generated_Source\PSoC6/CapSense_Structure.c **** * written permission of Cypress.
  25:Generated_Source\PSoC6/CapSense_Structure.c **** *
  26:Generated_Source\PSoC6/CapSense_Structure.c **** * Disclaimer: CYPRESS MAKES NO WARRANTY OF ANY KIND, EXPRESS OR IMPLIED, WITH
  27:Generated_Source\PSoC6/CapSense_Structure.c **** * REGARD TO THIS MATERIAL, INCLUDING, BUT NOT LIMITED TO, THE IMPLIED
  28:Generated_Source\PSoC6/CapSense_Structure.c **** * WARRANTIES OF MERCHANTABILITY AND FITNESS FOR A PARTICULAR PURPOSE.
  29:Generated_Source\PSoC6/CapSense_Structure.c **** * Cypress reserves the right to make changes without further notice to the
  30:Generated_Source\PSoC6/CapSense_Structure.c **** * materials described herein. Cypress does not assume any liability arising out
ARM GAS  C:\Users\Rolf\AppData\Local\Temp\cc6dsmLn.s 			page 2


  31:Generated_Source\PSoC6/CapSense_Structure.c **** * of the application or use of any product or circuit described herein. Cypress
  32:Generated_Source\PSoC6/CapSense_Structure.c **** * does not authorize its products for use as critical components in life-support
  33:Generated_Source\PSoC6/CapSense_Structure.c **** * systems where a malfunction or failure may reasonably be expected to result in
  34:Generated_Source\PSoC6/CapSense_Structure.c **** * significant injury to the user. The inclusion of Cypress' product in a life-
  35:Generated_Source\PSoC6/CapSense_Structure.c **** * support systems application implies that the manufacturer assumes all risk of
  36:Generated_Source\PSoC6/CapSense_Structure.c **** * such use and in doing so indemnifies Cypress against all charges. Use may be
  37:Generated_Source\PSoC6/CapSense_Structure.c **** * limited by and subject to the applicable Cypress software license agreement.
  38:Generated_Source\PSoC6/CapSense_Structure.c **** *******************************************************************************/
  39:Generated_Source\PSoC6/CapSense_Structure.c **** 
  40:Generated_Source\PSoC6/CapSense_Structure.c **** #include "syslib/cy_syslib.h"
  41:Generated_Source\PSoC6/CapSense_Structure.c **** #include <stddef.h>
  42:Generated_Source\PSoC6/CapSense_Structure.c **** #include <string.h>
  43:Generated_Source\PSoC6/CapSense_Structure.c **** #include "cyfitter_gpio.h"
  44:Generated_Source\PSoC6/CapSense_Structure.c **** 
  45:Generated_Source\PSoC6/CapSense_Structure.c **** #include "CapSense_Structure.h"
  46:Generated_Source\PSoC6/CapSense_Structure.c **** #include "CapSense_Configuration.h"
  47:Generated_Source\PSoC6/CapSense_Structure.c **** 
  48:Generated_Source\PSoC6/CapSense_Structure.c **** #if (0u != CapSense_ADC_EN)
  49:Generated_Source\PSoC6/CapSense_Structure.c ****     #include "CapSense_Adc.h"
  50:Generated_Source\PSoC6/CapSense_Structure.c **** #endif /* (0u != CapSense_ADC_EN) */
  51:Generated_Source\PSoC6/CapSense_Structure.c **** 
  52:Generated_Source\PSoC6/CapSense_Structure.c **** #if (CapSense_ENABLE == CapSense_SELF_TEST_EN)
  53:Generated_Source\PSoC6/CapSense_Structure.c ****     #include "CapSense_SelfTest.h"
  54:Generated_Source\PSoC6/CapSense_Structure.c **** #endif
  55:Generated_Source\PSoC6/CapSense_Structure.c **** 
  56:Generated_Source\PSoC6/CapSense_Structure.c **** #if (CapSense_ENABLE == CapSense_CENTROID_5X5_CSD_EN)
  57:Generated_Source\PSoC6/CapSense_Structure.c ****     #include "CapSense_AdvancedCentroid_LL.h"
  58:Generated_Source\PSoC6/CapSense_Structure.c **** #endif
  59:Generated_Source\PSoC6/CapSense_Structure.c **** 
  60:Generated_Source\PSoC6/CapSense_Structure.c **** #if (CapSense_ENABLE == CapSense_GES_GLOBAL_EN)
  61:Generated_Source\PSoC6/CapSense_Structure.c ****     #include "CapSense_Gesture.h"
  62:Generated_Source\PSoC6/CapSense_Structure.c **** #endif /* (CapSense_ENABLE == CapSense_GES_GLOBAL_EN) */
  63:Generated_Source\PSoC6/CapSense_Structure.c **** 
  64:Generated_Source\PSoC6/CapSense_Structure.c **** /*******************************************************************************
  65:Generated_Source\PSoC6/CapSense_Structure.c **** * Defines the RAM Data Structure variables and their init data in flash
  66:Generated_Source\PSoC6/CapSense_Structure.c **** *******************************************************************************/
  67:Generated_Source\PSoC6/CapSense_Structure.c **** /**
  68:Generated_Source\PSoC6/CapSense_Structure.c **** * \cond SECTION_GLOBAL_VARIABLES
  69:Generated_Source\PSoC6/CapSense_Structure.c **** * \addtogroup group_global_variables
  70:Generated_Source\PSoC6/CapSense_Structure.c **** * \{
  71:Generated_Source\PSoC6/CapSense_Structure.c **** */
  72:Generated_Source\PSoC6/CapSense_Structure.c **** 
  73:Generated_Source\PSoC6/CapSense_Structure.c **** /**
  74:Generated_Source\PSoC6/CapSense_Structure.c **** * The variable that contains the CapSense configuration, settings and
  75:Generated_Source\PSoC6/CapSense_Structure.c **** * scanning results. CapSense_dsRam represents RAM Data Structure.
  76:Generated_Source\PSoC6/CapSense_Structure.c **** */
  77:Generated_Source\PSoC6/CapSense_Structure.c **** CapSense_RAM_STRUCT CapSense_dsRam;
  78:Generated_Source\PSoC6/CapSense_Structure.c **** /** \}
  79:Generated_Source\PSoC6/CapSense_Structure.c **** * \endcond */
  80:Generated_Source\PSoC6/CapSense_Structure.c **** 
  81:Generated_Source\PSoC6/CapSense_Structure.c **** /*******************************************************************************
  82:Generated_Source\PSoC6/CapSense_Structure.c **** * Declares Widget's De-bounce Counters
  83:Generated_Source\PSoC6/CapSense_Structure.c **** *******************************************************************************/
  84:Generated_Source\PSoC6/CapSense_Structure.c **** static uint8 CapSense_debounceButton0[CapSense_BUTTON0_NUM_SENSORS];
  85:Generated_Source\PSoC6/CapSense_Structure.c **** 
  86:Generated_Source\PSoC6/CapSense_Structure.c **** 
  87:Generated_Source\PSoC6/CapSense_Structure.c **** /*******************************************************************************
ARM GAS  C:\Users\Rolf\AppData\Local\Temp\cc6dsmLn.s 			page 3


  88:Generated_Source\PSoC6/CapSense_Structure.c **** * Defines and initializes the Flash Data Structure
  89:Generated_Source\PSoC6/CapSense_Structure.c **** *******************************************************************************/
  90:Generated_Source\PSoC6/CapSense_Structure.c **** 
  91:Generated_Source\PSoC6/CapSense_Structure.c **** 
  92:Generated_Source\PSoC6/CapSense_Structure.c **** 
  93:Generated_Source\PSoC6/CapSense_Structure.c **** /**
  94:Generated_Source\PSoC6/CapSense_Structure.c **** * \cond SECTION_API_CONSTANTS
  95:Generated_Source\PSoC6/CapSense_Structure.c **** * \addtogroup group_api_constants
  96:Generated_Source\PSoC6/CapSense_Structure.c **** * \{
  97:Generated_Source\PSoC6/CapSense_Structure.c **** */
  98:Generated_Source\PSoC6/CapSense_Structure.c **** /**
  99:Generated_Source\PSoC6/CapSense_Structure.c **** * Constant for the FLASH Data Structure
 100:Generated_Source\PSoC6/CapSense_Structure.c **** */
 101:Generated_Source\PSoC6/CapSense_Structure.c **** const CapSense_FLASH_STRUCT CapSense_dsFlash =
 102:Generated_Source\PSoC6/CapSense_Structure.c **** {
 103:Generated_Source\PSoC6/CapSense_Structure.c ****     /* Flash Widget Initialization Data */
 104:Generated_Source\PSoC6/CapSense_Structure.c ****     {
 105:Generated_Source\PSoC6/CapSense_Structure.c ****         { /* Button0 */
 106:Generated_Source\PSoC6/CapSense_Structure.c ****             &CapSense_ioList[0u],
 107:Generated_Source\PSoC6/CapSense_Structure.c ****             (void *)&CapSense_dsRam.wdgtList.button0,
 108:Generated_Source\PSoC6/CapSense_Structure.c ****             CapSense_dsRam.snsList.button0,
 109:Generated_Source\PSoC6/CapSense_Structure.c ****             (void *)0u,
 110:Generated_Source\PSoC6/CapSense_Structure.c ****             CapSense_debounceButton0,
 111:Generated_Source\PSoC6/CapSense_Structure.c ****             CapSense_BUTTON0_STATIC_CONFIG,
 112:Generated_Source\PSoC6/CapSense_Structure.c ****             CapSense_BUTTON0_NUM_SENSORS,
 113:Generated_Source\PSoC6/CapSense_Structure.c ****             (uint8)CapSense_WD_BUTTON_E,
 114:Generated_Source\PSoC6/CapSense_Structure.c ****             CapSense_BUTTON0_NUM_SENSORS,
 115:Generated_Source\PSoC6/CapSense_Structure.c ****         },
 116:Generated_Source\PSoC6/CapSense_Structure.c ****     },
 117:Generated_Source\PSoC6/CapSense_Structure.c **** };
 118:Generated_Source\PSoC6/CapSense_Structure.c **** 
 119:Generated_Source\PSoC6/CapSense_Structure.c **** /**
 120:Generated_Source\PSoC6/CapSense_Structure.c **** * The array of the pointers to the electrode specific register.
 121:Generated_Source\PSoC6/CapSense_Structure.c **** */
 122:Generated_Source\PSoC6/CapSense_Structure.c **** const CapSense_FLASH_IO_STRUCT CapSense_ioList[CapSense_TOTAL_ELECTRODES] =
 123:Generated_Source\PSoC6/CapSense_Structure.c **** {
 124:Generated_Source\PSoC6/CapSense_Structure.c ****     { /* 0: Button0_Sns0 */
 125:Generated_Source\PSoC6/CapSense_Structure.c ****         CapSense_Sns_0_PORT,
 126:Generated_Source\PSoC6/CapSense_Structure.c ****         (uint8)CapSense_Sns_0_NUM,
 127:Generated_Source\PSoC6/CapSense_Structure.c ****     },
 128:Generated_Source\PSoC6/CapSense_Structure.c **** };
 129:Generated_Source\PSoC6/CapSense_Structure.c **** 
 130:Generated_Source\PSoC6/CapSense_Structure.c **** 
 131:Generated_Source\PSoC6/CapSense_Structure.c **** 
 132:Generated_Source\PSoC6/CapSense_Structure.c **** /** \}
 133:Generated_Source\PSoC6/CapSense_Structure.c **** * \endcond */
 134:Generated_Source\PSoC6/CapSense_Structure.c **** 
 135:Generated_Source\PSoC6/CapSense_Structure.c **** /* Initialization data for RAM widget list */
 136:Generated_Source\PSoC6/CapSense_Structure.c **** const CapSense_RAM_WD_LIST_STRUCT CapSense_ramWidgetInit =
 137:Generated_Source\PSoC6/CapSense_Structure.c **** {
 138:Generated_Source\PSoC6/CapSense_Structure.c ****     { /* Button0 */
 139:Generated_Source\PSoC6/CapSense_Structure.c ****         CapSense_BUTTON0_RESOLUTION,
 140:Generated_Source\PSoC6/CapSense_Structure.c ****         CapSense_BUTTON0_FINGER_TH,
 141:Generated_Source\PSoC6/CapSense_Structure.c ****         CapSense_BUTTON0_NOISE_TH,
 142:Generated_Source\PSoC6/CapSense_Structure.c ****         CapSense_BUTTON0_NNOISE_TH,
 143:Generated_Source\PSoC6/CapSense_Structure.c ****         CapSense_BUTTON0_HYSTERESIS,
 144:Generated_Source\PSoC6/CapSense_Structure.c ****         CapSense_BUTTON0_ON_DEBOUNCE,
ARM GAS  C:\Users\Rolf\AppData\Local\Temp\cc6dsmLn.s 			page 4


 145:Generated_Source\PSoC6/CapSense_Structure.c ****         CapSense_BUTTON0_LOW_BSLN_RST,
 146:Generated_Source\PSoC6/CapSense_Structure.c ****         {
 147:Generated_Source\PSoC6/CapSense_Structure.c ****             CapSense_BUTTON0_IDAC_MOD0,
 148:Generated_Source\PSoC6/CapSense_Structure.c ****         },
 149:Generated_Source\PSoC6/CapSense_Structure.c ****         CapSense_BUTTON0_SNS_CLK,
 150:Generated_Source\PSoC6/CapSense_Structure.c ****         CapSense_BUTTON0_SNS_CLK_SOURCE,
 151:Generated_Source\PSoC6/CapSense_Structure.c ****     },
 152:Generated_Source\PSoC6/CapSense_Structure.c **** };
 153:Generated_Source\PSoC6/CapSense_Structure.c **** 
 154:Generated_Source\PSoC6/CapSense_Structure.c **** 
 155:Generated_Source\PSoC6/CapSense_Structure.c **** /* IDAC Initialization Data */
 156:Generated_Source\PSoC6/CapSense_Structure.c **** const uint8 CapSense_ramIdacInit[CapSense_TOTAL_SENSORS] =
 157:Generated_Source\PSoC6/CapSense_Structure.c **** {
 158:Generated_Source\PSoC6/CapSense_Structure.c ****     /* Button0 */
 159:Generated_Source\PSoC6/CapSense_Structure.c ****     CapSense_BUTTON0_SNS0_IDAC_COMP0,
 160:Generated_Source\PSoC6/CapSense_Structure.c **** };
 161:Generated_Source\PSoC6/CapSense_Structure.c **** 
 162:Generated_Source\PSoC6/CapSense_Structure.c **** 
 163:Generated_Source\PSoC6/CapSense_Structure.c **** 
 164:Generated_Source\PSoC6/CapSense_Structure.c **** /*******************************************************************************
 165:Generated_Source\PSoC6/CapSense_Structure.c **** * Defines internal data types and statements
 166:Generated_Source\PSoC6/CapSense_Structure.c **** *******************************************************************************/
 167:Generated_Source\PSoC6/CapSense_Structure.c **** #define PARAM_TYPE_OFFSET       (30u)
 168:Generated_Source\PSoC6/CapSense_Structure.c **** #define PARAM_TYPE_MASK         (3Lu << PARAM_TYPE_OFFSET)
 169:Generated_Source\PSoC6/CapSense_Structure.c **** #define PARAM_RWBIT_OFFSET      (29u)
 170:Generated_Source\PSoC6/CapSense_Structure.c **** #define PARAM_RWBIT_MASK        (1Lu << PARAM_RWBIT_OFFSET)
 171:Generated_Source\PSoC6/CapSense_Structure.c **** #define PARAM_FBIT_OFFSET       (28u)
 172:Generated_Source\PSoC6/CapSense_Structure.c **** #define PARAM_FBIT_MASK         (1Lu << PARAM_FBIT_OFFSET)
 173:Generated_Source\PSoC6/CapSense_Structure.c **** #define PARAM_UBIT_OFFSET       (23u)
 174:Generated_Source\PSoC6/CapSense_Structure.c **** #define PARAM_UBIT_MASK         (1Lu << PARAM_UBIT_OFFSET)
 175:Generated_Source\PSoC6/CapSense_Structure.c **** #define PARAM_WDID_OFFSET       (16u)
 176:Generated_Source\PSoC6/CapSense_Structure.c **** #define PARAM_WDID_MASK         (0x7FLu << PARAM_WDID_OFFSET)
 177:Generated_Source\PSoC6/CapSense_Structure.c **** #define PARAM_CRC_OFFSET        (24u)
 178:Generated_Source\PSoC6/CapSense_Structure.c **** #define PARAM_CRC_MASK          (0x0FLu << PARAM_CRC_OFFSET)
 179:Generated_Source\PSoC6/CapSense_Structure.c **** 
 180:Generated_Source\PSoC6/CapSense_Structure.c **** /* Defines align masks for uint16 and uint32 */
 181:Generated_Source\PSoC6/CapSense_Structure.c **** #define UINT16_ALIGN_MASK       (1Lu)
 182:Generated_Source\PSoC6/CapSense_Structure.c **** #define UINT32_ALIGN_MASK       (3Lu)
 183:Generated_Source\PSoC6/CapSense_Structure.c **** 
 184:Generated_Source\PSoC6/CapSense_Structure.c **** /* Defines supported parameter types */
 185:Generated_Source\PSoC6/CapSense_Structure.c **** #define DS_PARAM_TYPE_UINT8     (0x01u)
 186:Generated_Source\PSoC6/CapSense_Structure.c **** #define DS_PARAM_TYPE_UINT16    (0x02u)
 187:Generated_Source\PSoC6/CapSense_Structure.c **** #define DS_PARAM_TYPE_UINT32    (0x03u)
 188:Generated_Source\PSoC6/CapSense_Structure.c **** 
 189:Generated_Source\PSoC6/CapSense_Structure.c **** 
 190:Generated_Source\PSoC6/CapSense_Structure.c **** /* Defines PARAM_ID structure */
 191:Generated_Source\PSoC6/CapSense_Structure.c **** typedef struct
 192:Generated_Source\PSoC6/CapSense_Structure.c **** {
 193:Generated_Source\PSoC6/CapSense_Structure.c ****     uint16 offset;      /* parameter offset */
 194:Generated_Source\PSoC6/CapSense_Structure.c ****     uint8  widgetId;    /* widget Id parameter belongs to */
 195:Generated_Source\PSoC6/CapSense_Structure.c ****     uint8  affectsCrc;  /* parameter affects widget CRC */
 196:Generated_Source\PSoC6/CapSense_Structure.c ****     uint8  crc;         /* parameter CRC */
 197:Generated_Source\PSoC6/CapSense_Structure.c ****     uint8  flash;       /* parameter located in FLASH flag */
 198:Generated_Source\PSoC6/CapSense_Structure.c ****     uint8  rw;          /* parameter is read/write flag */
 199:Generated_Source\PSoC6/CapSense_Structure.c ****     uint8  type;        /* parameter type: uint8/uint16/uint32 */
 200:Generated_Source\PSoC6/CapSense_Structure.c **** } PARAM_ID_STRUCT;
 201:Generated_Source\PSoC6/CapSense_Structure.c **** 
ARM GAS  C:\Users\Rolf\AppData\Local\Temp\cc6dsmLn.s 			page 5


 202:Generated_Source\PSoC6/CapSense_Structure.c **** 
 203:Generated_Source\PSoC6/CapSense_Structure.c **** /*******************************************************************************
 204:Generated_Source\PSoC6/CapSense_Structure.c **** * Static Function Prototypes
 205:Generated_Source\PSoC6/CapSense_Structure.c **** *******************************************************************************/
 206:Generated_Source\PSoC6/CapSense_Structure.c **** /**
 207:Generated_Source\PSoC6/CapSense_Structure.c **** * \cond SECTION_CYSENSE_INTERNAL
 208:Generated_Source\PSoC6/CapSense_Structure.c **** * \addtogroup group_cysense_internal
 209:Generated_Source\PSoC6/CapSense_Structure.c **** * \{
 210:Generated_Source\PSoC6/CapSense_Structure.c **** */
 211:Generated_Source\PSoC6/CapSense_Structure.c **** 
 212:Generated_Source\PSoC6/CapSense_Structure.c **** 
 213:Generated_Source\PSoC6/CapSense_Structure.c **** 
 214:Generated_Source\PSoC6/CapSense_Structure.c **** static cy_status DsParseParamId(uint32 paramId, PARAM_ID_STRUCT *pData);
 215:Generated_Source\PSoC6/CapSense_Structure.c **** 
 216:Generated_Source\PSoC6/CapSense_Structure.c **** /** \}
 217:Generated_Source\PSoC6/CapSense_Structure.c **** * \endcond */
 218:Generated_Source\PSoC6/CapSense_Structure.c **** 
 219:Generated_Source\PSoC6/CapSense_Structure.c **** 
 220:Generated_Source\PSoC6/CapSense_Structure.c **** /*******************************************************************************
 221:Generated_Source\PSoC6/CapSense_Structure.c **** * Function Name: CapSense_DsInitialize
 222:Generated_Source\PSoC6/CapSense_Structure.c **** ****************************************************************************//**
 223:Generated_Source\PSoC6/CapSense_Structure.c **** *
 224:Generated_Source\PSoC6/CapSense_Structure.c **** * \brief
 225:Generated_Source\PSoC6/CapSense_Structure.c **** *   This function initializes the Data Structure storage.
 226:Generated_Source\PSoC6/CapSense_Structure.c **** *
 227:Generated_Source\PSoC6/CapSense_Structure.c **** * \details
 228:Generated_Source\PSoC6/CapSense_Structure.c **** *   This function copies the default widget configuration parameters
 229:Generated_Source\PSoC6/CapSense_Structure.c **** *   from the Flash storage into the RAM Data Structure.
 230:Generated_Source\PSoC6/CapSense_Structure.c **** *
 231:Generated_Source\PSoC6/CapSense_Structure.c **** *******************************************************************************/
 232:Generated_Source\PSoC6/CapSense_Structure.c **** void CapSense_DsInitialize(void)
 233:Generated_Source\PSoC6/CapSense_Structure.c **** {
 234:Generated_Source\PSoC6/CapSense_Structure.c ****     #if ((CapSense_ENABLE == CapSense_CSX_EN) || \
 235:Generated_Source\PSoC6/CapSense_Structure.c ****          (CapSense_ENABLE == CapSense_CSD_IDAC_COMP_EN) || \
 236:Generated_Source\PSoC6/CapSense_Structure.c ****         ((CapSense_ENABLE == CapSense_CSX_EN) && \
 237:Generated_Source\PSoC6/CapSense_Structure.c ****          (CapSense_ENABLE == CapSense_CSX_SKIP_OVSMPL_SPECIFIC_NODES)))
 238:Generated_Source\PSoC6/CapSense_Structure.c ****         uint32 snsId;
 239:Generated_Source\PSoC6/CapSense_Structure.c ****         uint32 wdgtId;
 240:Generated_Source\PSoC6/CapSense_Structure.c ****         CapSense_RAM_SNS_STRUCT * ptrSnsTmp;
 241:Generated_Source\PSoC6/CapSense_Structure.c ****         CapSense_FLASH_WD_STRUCT const * ptrFlashWdgt;
 242:Generated_Source\PSoC6/CapSense_Structure.c ****     #endif
 243:Generated_Source\PSoC6/CapSense_Structure.c **** 
 244:Generated_Source\PSoC6/CapSense_Structure.c ****     #if ((CapSense_ENABLE == CapSense_CSX_EN) && \
 245:Generated_Source\PSoC6/CapSense_Structure.c ****          (CapSense_ENABLE == CapSense_CSX_SKIP_OVSMPL_SPECIFIC_NODES))
 246:Generated_Source\PSoC6/CapSense_Structure.c ****         uint16 subConvNumber;
 247:Generated_Source\PSoC6/CapSense_Structure.c ****     #endif
 248:Generated_Source\PSoC6/CapSense_Structure.c **** 
 249:Generated_Source\PSoC6/CapSense_Structure.c ****     #if (0u != CapSense_CSX_EN) || (0 != CapSense_CSD_IDAC_COMP_EN)
 250:Generated_Source\PSoC6/CapSense_Structure.c ****         uint8 const * ptrIdacInit = CapSense_ramIdacInit;
 251:Generated_Source\PSoC6/CapSense_Structure.c ****     #endif
 252:Generated_Source\PSoC6/CapSense_Structure.c **** 
 253:Generated_Source\PSoC6/CapSense_Structure.c ****     /* Reset RAM data structure content */
 254:Generated_Source\PSoC6/CapSense_Structure.c ****     (void)memset(&CapSense_dsRam, 0, sizeof(CapSense_dsRam));
 255:Generated_Source\PSoC6/CapSense_Structure.c **** 
 256:Generated_Source\PSoC6/CapSense_Structure.c ****     /* Initialize configId, deviceId and hwClock registers */
 257:Generated_Source\PSoC6/CapSense_Structure.c ****     CapSense_dsRam.configId = CapSense_CONFIG_ID;
 258:Generated_Source\PSoC6/CapSense_Structure.c ****     CapSense_dsRam.deviceId = CapSense_DEVICE_ID;
ARM GAS  C:\Users\Rolf\AppData\Local\Temp\cc6dsmLn.s 			page 6


 259:Generated_Source\PSoC6/CapSense_Structure.c ****     CapSense_dsRam.hwClock = CapSense_HW_CLOCK;
 260:Generated_Source\PSoC6/CapSense_Structure.c **** 
 261:Generated_Source\PSoC6/CapSense_Structure.c ****     /* Initialize global RAM data */
 262:Generated_Source\PSoC6/CapSense_Structure.c ****     CapSense_dsRam.csd0Config = CapSense_CSD0_CONFIG;
 263:Generated_Source\PSoC6/CapSense_Structure.c **** 
 264:Generated_Source\PSoC6/CapSense_Structure.c ****     #if (0u != CapSense_TOTAL_CSD_WIDGETS)
 265:Generated_Source\PSoC6/CapSense_Structure.c ****         CapSense_dsRam.modCsdClk = CapSense_CSD_SCANSPEED_DIVIDER;
 266:Generated_Source\PSoC6/CapSense_Structure.c **** 
 267:Generated_Source\PSoC6/CapSense_Structure.c ****         #if (0u != CapSense_CSD_COMMON_SNS_CLK_EN)
 268:Generated_Source\PSoC6/CapSense_Structure.c ****             CapSense_dsRam.snsCsdClk = CapSense_CSD_SNS_CLK_DIVIDER;
 269:Generated_Source\PSoC6/CapSense_Structure.c ****         #endif /* #if (0u != CapSense_CSD_COMMON_SNS_CLK_EN) */
 270:Generated_Source\PSoC6/CapSense_Structure.c ****     #endif /* #if (0u != CapSense_TOTAL_CSD_WIDGETS) */
 271:Generated_Source\PSoC6/CapSense_Structure.c **** 
 272:Generated_Source\PSoC6/CapSense_Structure.c ****     #if (0u != CapSense_CSX_EN)
 273:Generated_Source\PSoC6/CapSense_Structure.c ****         CapSense_dsRam.modCsxClk = CapSense_CSX_SCANSPEED_DIVIDER;
 274:Generated_Source\PSoC6/CapSense_Structure.c **** 
 275:Generated_Source\PSoC6/CapSense_Structure.c ****         #if (0u != CapSense_CSX_COMMON_TX_CLK_EN)
 276:Generated_Source\PSoC6/CapSense_Structure.c ****             CapSense_dsRam.snsCsxClk = CapSense_CSX_TX_CLK_DIVIDER;
 277:Generated_Source\PSoC6/CapSense_Structure.c ****         #endif /* #if (0u != CapSense_CSX_COMMON_TX_CLK_EN) */
 278:Generated_Source\PSoC6/CapSense_Structure.c ****     #endif /* #if (0u != CapSense_CSX_EN) */
 279:Generated_Source\PSoC6/CapSense_Structure.c **** 
 280:Generated_Source\PSoC6/CapSense_Structure.c ****     #if (0u != CapSense_SELF_TEST_EN)
 281:Generated_Source\PSoC6/CapSense_Structure.c ****         CapSense_dsRam.glbCrc = CapSense_GLB_CRC;
 282:Generated_Source\PSoC6/CapSense_Structure.c ****     #endif /* #if (0u != CapSense_SELF_TEST_EN) */
 283:Generated_Source\PSoC6/CapSense_Structure.c **** 
 284:Generated_Source\PSoC6/CapSense_Structure.c ****     /* Initialize RAM widget data */
 285:Generated_Source\PSoC6/CapSense_Structure.c ****     CapSense_dsRam.wdgtList = CapSense_ramWidgetInit;
 286:Generated_Source\PSoC6/CapSense_Structure.c **** 
 287:Generated_Source\PSoC6/CapSense_Structure.c ****     /* Initialize Gesture configuration structure */
 288:Generated_Source\PSoC6/CapSense_Structure.c ****     #if ((0u != CapSense_GES_GLOBAL_EN) || (0u != CapSense_BALLISTIC_MULTIPLIER_EN))
 289:Generated_Source\PSoC6/CapSense_Structure.c ****         CapSense_dsRam.timestampInterval = CapSense_TIMESTAMP_INTERVAL;
 290:Generated_Source\PSoC6/CapSense_Structure.c ****     #endif /* ((0u != CapSense_GES_GLOBAL_EN) || (0u != CapSense_BALLISTIC_MULTIPLIER_EN)) */
 291:Generated_Source\PSoC6/CapSense_Structure.c **** 
 292:Generated_Source\PSoC6/CapSense_Structure.c ****     #if (0u != CapSense_GES_GLOBAL_EN)
 293:Generated_Source\PSoC6/CapSense_Structure.c ****         CapSense_dsRam.gestures = CapSense_ramGesturesInit;
 294:Generated_Source\PSoC6/CapSense_Structure.c ****     #endif /* (0u != CapSense_GES_GLOBAL_EN) */
 295:Generated_Source\PSoC6/CapSense_Structure.c **** 
 296:Generated_Source\PSoC6/CapSense_Structure.c ****     #if (0u != CapSense_BALLISTIC_MULTIPLIER_EN)
 297:Generated_Source\PSoC6/CapSense_Structure.c ****         CapSense_dsRam.ballisticConfig = CapSense_ramBallisticInit;
 298:Generated_Source\PSoC6/CapSense_Structure.c ****     #endif /* (0u != CapSense_BALLISTIC_MULTIPLIER_EN) */
 299:Generated_Source\PSoC6/CapSense_Structure.c **** 
 300:Generated_Source\PSoC6/CapSense_Structure.c ****     #if (0u != CapSense_CSX_EN) || (0 != CapSense_CSD_IDAC_COMP_EN)
 301:Generated_Source\PSoC6/CapSense_Structure.c ****         /* Initialize IDAC data */
 302:Generated_Source\PSoC6/CapSense_Structure.c ****         ptrFlashWdgt = CapSense_dsFlash.wdgtArray;
 303:Generated_Source\PSoC6/CapSense_Structure.c **** 
 304:Generated_Source\PSoC6/CapSense_Structure.c ****         for (wdgtId = CapSense_TOTAL_WIDGETS; wdgtId-- > 0u; )
 305:Generated_Source\PSoC6/CapSense_Structure.c ****         {
 306:Generated_Source\PSoC6/CapSense_Structure.c ****             ptrSnsTmp = ptrFlashWdgt->ptr2SnsRam;
 307:Generated_Source\PSoC6/CapSense_Structure.c **** 
 308:Generated_Source\PSoC6/CapSense_Structure.c ****             for (snsId = CapSense_GET_SNS_CNT_BY_PTR(ptrFlashWdgt); snsId-- > 0u;)
 309:Generated_Source\PSoC6/CapSense_Structure.c ****             {
 310:Generated_Source\PSoC6/CapSense_Structure.c ****                 ptrSnsTmp->idacComp[0u] = *ptrIdacInit;
 311:Generated_Source\PSoC6/CapSense_Structure.c ****                 ptrIdacInit++;
 312:Generated_Source\PSoC6/CapSense_Structure.c **** 
 313:Generated_Source\PSoC6/CapSense_Structure.c ****                 #if (0u != CapSense_MULTI_FREQ_SCAN_EN)
 314:Generated_Source\PSoC6/CapSense_Structure.c ****                     ptrSnsTmp->idacComp[1u] = *ptrIdacInit;
 315:Generated_Source\PSoC6/CapSense_Structure.c ****                     ptrIdacInit++;
ARM GAS  C:\Users\Rolf\AppData\Local\Temp\cc6dsmLn.s 			page 7


 316:Generated_Source\PSoC6/CapSense_Structure.c **** 
 317:Generated_Source\PSoC6/CapSense_Structure.c ****                     ptrSnsTmp->idacComp[2u] = *ptrIdacInit;
 318:Generated_Source\PSoC6/CapSense_Structure.c ****                     ptrIdacInit++;
 319:Generated_Source\PSoC6/CapSense_Structure.c ****                 #endif /* #if (0u != CapSense_MULTI_FREQ_SCAN_EN) */
 320:Generated_Source\PSoC6/CapSense_Structure.c **** 
 321:Generated_Source\PSoC6/CapSense_Structure.c ****                 ptrSnsTmp++;
 322:Generated_Source\PSoC6/CapSense_Structure.c ****             }
 323:Generated_Source\PSoC6/CapSense_Structure.c **** 
 324:Generated_Source\PSoC6/CapSense_Structure.c ****             ptrFlashWdgt++; /* Move to next widget */
 325:Generated_Source\PSoC6/CapSense_Structure.c ****         }
 326:Generated_Source\PSoC6/CapSense_Structure.c ****     #endif /*(0u != CapSense_CSX_EN) || (0 != CapSense_CSD_IDAC_COMP_EN)*/
 327:Generated_Source\PSoC6/CapSense_Structure.c **** 
 328:Generated_Source\PSoC6/CapSense_Structure.c ****     #if ((CapSense_ENABLE == CapSense_CSX_EN) && \
 329:Generated_Source\PSoC6/CapSense_Structure.c ****          (CapSense_ENABLE == CapSense_CSX_SKIP_OVSMPL_SPECIFIC_NODES))
 330:Generated_Source\PSoC6/CapSense_Structure.c ****         /* Initialize Sub-Conversion Number for each node of each CSX widget */
 331:Generated_Source\PSoC6/CapSense_Structure.c ****         ptrFlashWdgt = CapSense_dsFlash.wdgtArray;
 332:Generated_Source\PSoC6/CapSense_Structure.c ****         for (wdgtId = CapSense_TOTAL_WIDGETS; wdgtId-- > 0u;)
 333:Generated_Source\PSoC6/CapSense_Structure.c ****         {
 334:Generated_Source\PSoC6/CapSense_Structure.c ****             /* Check for widget sense method */
 335:Generated_Source\PSoC6/CapSense_Structure.c ****             if (CapSense_SENSE_METHOD_CSX_E == CapSense_GET_SENSE_METHOD(ptrFlashWdgt))
 336:Generated_Source\PSoC6/CapSense_Structure.c ****             {
 337:Generated_Source\PSoC6/CapSense_Structure.c ****                 /* Take the sub-convesion number of a CSX widget and initialize each node of this w
 338:Generated_Source\PSoC6/CapSense_Structure.c ****                 subConvNumber = ((CapSense_RAM_WD_BASE_STRUCT *)(ptrFlashWdgt->ptr2WdgtRam))->resol
 339:Generated_Source\PSoC6/CapSense_Structure.c ****                 ptrSnsTmp = ptrFlashWdgt->ptr2SnsRam;
 340:Generated_Source\PSoC6/CapSense_Structure.c ****                 for (snsId = CapSense_GET_SNS_CNT_BY_PTR(ptrFlashWdgt); snsId-- > 0u;)
 341:Generated_Source\PSoC6/CapSense_Structure.c ****                 {
 342:Generated_Source\PSoC6/CapSense_Structure.c ****                     ptrSnsTmp->subConvNum = subConvNumber;
 343:Generated_Source\PSoC6/CapSense_Structure.c ****                     ptrSnsTmp++;
 344:Generated_Source\PSoC6/CapSense_Structure.c ****                 }
 345:Generated_Source\PSoC6/CapSense_Structure.c ****             }
 346:Generated_Source\PSoC6/CapSense_Structure.c ****             /* Move to the next widget */
 347:Generated_Source\PSoC6/CapSense_Structure.c ****             ptrFlashWdgt++;
 348:Generated_Source\PSoC6/CapSense_Structure.c ****         }
 349:Generated_Source\PSoC6/CapSense_Structure.c ****     #endif /* ((CapSense_ENABLE == CapSense_CSX_EN) && \
 350:Generated_Source\PSoC6/CapSense_Structure.c ****                (CapSense_ENABLE == CapSense_CSX_SKIP_OVSMPL_SPECIFIC_NODES)) */
 351:Generated_Source\PSoC6/CapSense_Structure.c **** 
 352:Generated_Source\PSoC6/CapSense_Structure.c ****     #if (0u != CapSense_ADC_EN)
 353:Generated_Source\PSoC6/CapSense_Structure.c ****         CapSense_AdcDsInitialize();
 354:Generated_Source\PSoC6/CapSense_Structure.c ****     #endif /* (0u != CapSense_ADC_EN) */
 355:Generated_Source\PSoC6/CapSense_Structure.c **** }
 356:Generated_Source\PSoC6/CapSense_Structure.c **** 
 357:Generated_Source\PSoC6/CapSense_Structure.c **** 
 358:Generated_Source\PSoC6/CapSense_Structure.c **** #if (0u != CapSense_ADC_EN)
 359:Generated_Source\PSoC6/CapSense_Structure.c ****     /*******************************************************************************
 360:Generated_Source\PSoC6/CapSense_Structure.c ****     * Function Name: CapSense_AdcDsInitialize
 361:Generated_Source\PSoC6/CapSense_Structure.c ****     ****************************************************************************//**
 362:Generated_Source\PSoC6/CapSense_Structure.c ****     *
 363:Generated_Source\PSoC6/CapSense_Structure.c ****     * \brief
 364:Generated_Source\PSoC6/CapSense_Structure.c ****     *   Configures the initial Adc datastructure members.
 365:Generated_Source\PSoC6/CapSense_Structure.c ****     *
 366:Generated_Source\PSoC6/CapSense_Structure.c ****     *******************************************************************************/
 367:Generated_Source\PSoC6/CapSense_Structure.c ****     void CapSense_AdcDsInitialize(void)
 368:Generated_Source\PSoC6/CapSense_Structure.c ****     {
 369:Generated_Source\PSoC6/CapSense_Structure.c ****         CapSense_dsRam.adcResolution = CapSense_ADC_RESOLUTION;
 370:Generated_Source\PSoC6/CapSense_Structure.c ****         CapSense_dsRam.adcIdac = (uint8)(CapSense_ADC_IDAC_DEFAULT);
 371:Generated_Source\PSoC6/CapSense_Structure.c ****         CapSense_dsRam.adcActiveCh = CapSense_AdcNO_CHANNEL;
 372:Generated_Source\PSoC6/CapSense_Structure.c ****     }
ARM GAS  C:\Users\Rolf\AppData\Local\Temp\cc6dsmLn.s 			page 8


 373:Generated_Source\PSoC6/CapSense_Structure.c **** #endif /* (0u != CapSense_ADC_EN) */
 374:Generated_Source\PSoC6/CapSense_Structure.c **** 
 375:Generated_Source\PSoC6/CapSense_Structure.c **** 
 376:Generated_Source\PSoC6/CapSense_Structure.c **** /*******************************************************************************
 377:Generated_Source\PSoC6/CapSense_Structure.c **** * Function Name: DsParseParamId
 378:Generated_Source\PSoC6/CapSense_Structure.c **** ****************************************************************************//**
 379:Generated_Source\PSoC6/CapSense_Structure.c **** *
 380:Generated_Source\PSoC6/CapSense_Structure.c **** * \brief
 381:Generated_Source\PSoC6/CapSense_Structure.c **** *   This function parses the parameter ID and checks its correctness.
 382:Generated_Source\PSoC6/CapSense_Structure.c **** *
 383:Generated_Source\PSoC6/CapSense_Structure.c **** * \details
 384:Generated_Source\PSoC6/CapSense_Structure.c **** *   This function checks the parameter CRC if the self-test is enabled,
 385:Generated_Source\PSoC6/CapSense_Structure.c **** *   validates the offset value and parameter type.
 386:Generated_Source\PSoC6/CapSense_Structure.c **** *
 387:Generated_Source\PSoC6/CapSense_Structure.c **** * \param paramId The parameter to parse.
 388:Generated_Source\PSoC6/CapSense_Structure.c **** * \param pData   The pointer to the structure that will hold parsed data.
 389:Generated_Source\PSoC6/CapSense_Structure.c **** *
 390:Generated_Source\PSoC6/CapSense_Structure.c **** * \return CY_RET_SUCCESS     If the parameter is valid
 391:Generated_Source\PSoC6/CapSense_Structure.c **** *         CY_RET_BAD_PARAM   If  the parameter is invalid
 392:Generated_Source\PSoC6/CapSense_Structure.c **** *
 393:Generated_Source\PSoC6/CapSense_Structure.c **** *******************************************************************************/
 394:Generated_Source\PSoC6/CapSense_Structure.c **** static cy_status DsParseParamId(uint32 paramId, PARAM_ID_STRUCT *pData)
 395:Generated_Source\PSoC6/CapSense_Structure.c **** {
  28              		.loc 1 395 0
  29              		.cfi_startproc
  30              		@ args = 0, pretend = 0, frame = 0
  31              		@ frame_needed = 0, uses_anonymous_args = 0
  32              		@ link register save eliminated.
  33              	.LVL0:
  34 0000 30B4     		push	{r4, r5}
  35              		.cfi_def_cfa_offset 8
  36              		.cfi_offset 4, -8
  37              		.cfi_offset 5, -4
  38              	.LVL1:
 396:Generated_Source\PSoC6/CapSense_Structure.c ****     cy_status result = CY_RET_SUCCESS;
 397:Generated_Source\PSoC6/CapSense_Structure.c **** 
 398:Generated_Source\PSoC6/CapSense_Structure.c ****     #if (0u != CapSense_SELF_TEST_EN)
 399:Generated_Source\PSoC6/CapSense_Structure.c ****         const uint8 crcTable[] =
 400:Generated_Source\PSoC6/CapSense_Structure.c ****         {
 401:Generated_Source\PSoC6/CapSense_Structure.c ****             0x00u, 0x09u, 0x0Bu, 0x02u, 0x0Fu, 0x06u, 0x04u, 0x0Du,
 402:Generated_Source\PSoC6/CapSense_Structure.c ****             0x07u, 0x0Eu, 0x0Cu, 0x05u, 0x08u, 0x01u, 0x03u, 0x0Au
 403:Generated_Source\PSoC6/CapSense_Structure.c ****         };
 404:Generated_Source\PSoC6/CapSense_Structure.c **** 
 405:Generated_Source\PSoC6/CapSense_Structure.c ****         uint32 i;
 406:Generated_Source\PSoC6/CapSense_Structure.c ****         uint32 actualCrc = 0u;
 407:Generated_Source\PSoC6/CapSense_Structure.c ****         uint32 crcIndex;
 408:Generated_Source\PSoC6/CapSense_Structure.c ****     #endif /* #if (0u != CapSense_SELF_TEST_EN) */
 409:Generated_Source\PSoC6/CapSense_Structure.c **** 
 410:Generated_Source\PSoC6/CapSense_Structure.c ****     /* Extract parameter data */
 411:Generated_Source\PSoC6/CapSense_Structure.c ****     pData->offset     = CY_LO16(paramId);
  39              		.loc 1 411 0
  40 0002 82B2     		uxth	r2, r0
  41 0004 0A80     		strh	r2, [r1]	@ movhi
 412:Generated_Source\PSoC6/CapSense_Structure.c ****     pData->affectsCrc = CY_LO8((paramId & PARAM_UBIT_MASK)  >> PARAM_UBIT_OFFSET);
  42              		.loc 1 412 0
  43 0006 C0F3C053 		ubfx	r3, r0, #23, #1
  44 000a CB70     		strb	r3, [r1, #3]
ARM GAS  C:\Users\Rolf\AppData\Local\Temp\cc6dsmLn.s 			page 9


 413:Generated_Source\PSoC6/CapSense_Structure.c ****     pData->widgetId   = CY_LO8((paramId & PARAM_WDID_MASK)  >> PARAM_WDID_OFFSET);
  45              		.loc 1 413 0
  46 000c C0F30643 		ubfx	r3, r0, #16, #7
  47 0010 8B70     		strb	r3, [r1, #2]
 414:Generated_Source\PSoC6/CapSense_Structure.c ****     pData->type       = CY_LO8((paramId & PARAM_TYPE_MASK)  >> PARAM_TYPE_OFFSET);
  48              		.loc 1 414 0
  49 0012 830F     		lsrs	r3, r0, #30
  50 0014 CB71     		strb	r3, [r1, #7]
 415:Generated_Source\PSoC6/CapSense_Structure.c ****     pData->flash      = CY_LO8((paramId & PARAM_FBIT_MASK)  >> PARAM_FBIT_OFFSET);
  51              		.loc 1 415 0
  52 0016 C0F30074 		ubfx	r4, r0, #28, #1
  53 001a 4C71     		strb	r4, [r1, #5]
 416:Generated_Source\PSoC6/CapSense_Structure.c ****     pData->rw         = CY_LO8((paramId & PARAM_RWBIT_MASK) >> PARAM_RWBIT_OFFSET);
  54              		.loc 1 416 0
  55 001c C0F34075 		ubfx	r5, r0, #29, #1
  56 0020 8D71     		strb	r5, [r1, #6]
 417:Generated_Source\PSoC6/CapSense_Structure.c ****     pData->crc        = CY_LO8((paramId & PARAM_CRC_MASK)   >> PARAM_CRC_OFFSET);
  57              		.loc 1 417 0
  58 0022 C0F30360 		ubfx	r0, r0, #24, #4
  59              	.LVL2:
  60 0026 0871     		strb	r0, [r1, #4]
 418:Generated_Source\PSoC6/CapSense_Structure.c **** 
 419:Generated_Source\PSoC6/CapSense_Structure.c ****     /* Check parameter CRC if self-test is enabled */
 420:Generated_Source\PSoC6/CapSense_Structure.c ****     #if (0u != CapSense_SELF_TEST_EN)
 421:Generated_Source\PSoC6/CapSense_Structure.c **** 
 422:Generated_Source\PSoC6/CapSense_Structure.c ****         /* Calculate CRC for bits 0..24.
 423:Generated_Source\PSoC6/CapSense_Structure.c ****          * The CRC is calculated using nibbles (4-bits).
 424:Generated_Source\PSoC6/CapSense_Structure.c ****          * So for 0..24 bits there are in total 6 nibbles. */
 425:Generated_Source\PSoC6/CapSense_Structure.c ****         for (i = 6u; i > 0u; i--)
 426:Generated_Source\PSoC6/CapSense_Structure.c ****         {
 427:Generated_Source\PSoC6/CapSense_Structure.c ****             crcIndex = actualCrc ^ (paramId & 0x0Fu);
 428:Generated_Source\PSoC6/CapSense_Structure.c ****             actualCrc = crcTable[crcIndex];
 429:Generated_Source\PSoC6/CapSense_Structure.c ****             paramId >>= 4u;
 430:Generated_Source\PSoC6/CapSense_Structure.c ****         }
 431:Generated_Source\PSoC6/CapSense_Structure.c **** 
 432:Generated_Source\PSoC6/CapSense_Structure.c ****         /* Add bits 28..32 */
 433:Generated_Source\PSoC6/CapSense_Structure.c ****         crcIndex = actualCrc ^ ((paramId >> 4u) & 0x0Fu);
 434:Generated_Source\PSoC6/CapSense_Structure.c ****         actualCrc = crcTable[crcIndex];
 435:Generated_Source\PSoC6/CapSense_Structure.c **** 
 436:Generated_Source\PSoC6/CapSense_Structure.c ****         /* Add bits 24..28 (CRC) */
 437:Generated_Source\PSoC6/CapSense_Structure.c ****         crcIndex = actualCrc ^ (paramId & 0x0Fu);
 438:Generated_Source\PSoC6/CapSense_Structure.c ****         actualCrc = crcTable[crcIndex];
 439:Generated_Source\PSoC6/CapSense_Structure.c **** 
 440:Generated_Source\PSoC6/CapSense_Structure.c ****         if (0u != actualCrc)
 441:Generated_Source\PSoC6/CapSense_Structure.c ****         {
 442:Generated_Source\PSoC6/CapSense_Structure.c ****             /* CRC mismatch */
 443:Generated_Source\PSoC6/CapSense_Structure.c ****             result = CY_RET_BAD_PARAM;
 444:Generated_Source\PSoC6/CapSense_Structure.c ****         }
 445:Generated_Source\PSoC6/CapSense_Structure.c **** 
 446:Generated_Source\PSoC6/CapSense_Structure.c ****         if ((CY_RET_SUCCESS == result) &&
 447:Generated_Source\PSoC6/CapSense_Structure.c ****             (0u != pData->affectsCrc) && (pData->widgetId >= CapSense_TOTAL_WIDGETS ))
 448:Generated_Source\PSoC6/CapSense_Structure.c ****         {
 449:Generated_Source\PSoC6/CapSense_Structure.c ****             /* Wrong widgetId for protected parameter */
 450:Generated_Source\PSoC6/CapSense_Structure.c ****             result = CY_RET_BAD_PARAM;
 451:Generated_Source\PSoC6/CapSense_Structure.c ****         }
 452:Generated_Source\PSoC6/CapSense_Structure.c **** 
 453:Generated_Source\PSoC6/CapSense_Structure.c ****         /* Check offset value range */
ARM GAS  C:\Users\Rolf\AppData\Local\Temp\cc6dsmLn.s 			page 10


 454:Generated_Source\PSoC6/CapSense_Structure.c ****         if (CY_RET_SUCCESS == result)
 455:Generated_Source\PSoC6/CapSense_Structure.c ****         {
 456:Generated_Source\PSoC6/CapSense_Structure.c ****             if (0u == pData->flash)
 457:Generated_Source\PSoC6/CapSense_Structure.c ****             {
 458:Generated_Source\PSoC6/CapSense_Structure.c ****                 /* Check offset for RAM Data Structure range */
 459:Generated_Source\PSoC6/CapSense_Structure.c ****                 if (pData->offset >= sizeof(CapSense_dsRam))
 460:Generated_Source\PSoC6/CapSense_Structure.c ****                 {
 461:Generated_Source\PSoC6/CapSense_Structure.c ****                     result = CY_RET_BAD_PARAM;
 462:Generated_Source\PSoC6/CapSense_Structure.c ****                 }
 463:Generated_Source\PSoC6/CapSense_Structure.c ****             }
 464:Generated_Source\PSoC6/CapSense_Structure.c ****             else
 465:Generated_Source\PSoC6/CapSense_Structure.c ****             {
 466:Generated_Source\PSoC6/CapSense_Structure.c ****                 /* Check offset for Flash Data Structure range */
 467:Generated_Source\PSoC6/CapSense_Structure.c ****                 if (pData->offset >= sizeof(CapSense_dsFlash))
 468:Generated_Source\PSoC6/CapSense_Structure.c ****                 {
 469:Generated_Source\PSoC6/CapSense_Structure.c ****                     result = CY_RET_BAD_PARAM;
 470:Generated_Source\PSoC6/CapSense_Structure.c ****                 }
 471:Generated_Source\PSoC6/CapSense_Structure.c **** 
 472:Generated_Source\PSoC6/CapSense_Structure.c ****                 /* Check if it is marked as Read Only */
 473:Generated_Source\PSoC6/CapSense_Structure.c ****                 if (0u != pData->rw)
 474:Generated_Source\PSoC6/CapSense_Structure.c ****                 {
 475:Generated_Source\PSoC6/CapSense_Structure.c ****                     result = CY_RET_BAD_PARAM;
 476:Generated_Source\PSoC6/CapSense_Structure.c ****                 }
 477:Generated_Source\PSoC6/CapSense_Structure.c ****             }
 478:Generated_Source\PSoC6/CapSense_Structure.c ****         }
 479:Generated_Source\PSoC6/CapSense_Structure.c ****     #else /* #if (0u != CapSense_SELF_TEST_EN) */
 480:Generated_Source\PSoC6/CapSense_Structure.c ****         /* Check offset value range */
 481:Generated_Source\PSoC6/CapSense_Structure.c ****         if (0u == pData->flash)
  61              		.loc 1 481 0
  62 0028 1CB9     		cbnz	r4, .L2
 482:Generated_Source\PSoC6/CapSense_Structure.c ****         {
 483:Generated_Source\PSoC6/CapSense_Structure.c ****             /* Check offset for RAM Data Structure range */
 484:Generated_Source\PSoC6/CapSense_Structure.c ****             if (pData->offset >= sizeof(CapSense_dsRam))
  63              		.loc 1 484 0
  64 002a 3B2A     		cmp	r2, #59
  65 002c 08D8     		bhi	.L9
 396:Generated_Source\PSoC6/CapSense_Structure.c **** 
  66              		.loc 1 396 0
  67 002e 0020     		movs	r0, #0
  68 0030 09E0     		b	.L3
  69              	.L2:
 485:Generated_Source\PSoC6/CapSense_Structure.c ****             {
 486:Generated_Source\PSoC6/CapSense_Structure.c ****                 result = CY_RET_BAD_PARAM;
 487:Generated_Source\PSoC6/CapSense_Structure.c ****             }
 488:Generated_Source\PSoC6/CapSense_Structure.c ****         }
 489:Generated_Source\PSoC6/CapSense_Structure.c ****         else
 490:Generated_Source\PSoC6/CapSense_Structure.c ****         {
 491:Generated_Source\PSoC6/CapSense_Structure.c ****             /* Check offset for Flash Data Structure range */
 492:Generated_Source\PSoC6/CapSense_Structure.c ****             if (pData->offset >= sizeof(CapSense_dsFlash))
  70              		.loc 1 492 0
  71 0032 1B2A     		cmp	r2, #27
  72 0034 01D8     		bhi	.L10
 396:Generated_Source\PSoC6/CapSense_Structure.c **** 
  73              		.loc 1 396 0
  74 0036 0020     		movs	r0, #0
  75 0038 00E0     		b	.L4
  76              	.L10:
ARM GAS  C:\Users\Rolf\AppData\Local\Temp\cc6dsmLn.s 			page 11


 493:Generated_Source\PSoC6/CapSense_Structure.c ****             {
 494:Generated_Source\PSoC6/CapSense_Structure.c ****                 result = CY_RET_BAD_PARAM;
  77              		.loc 1 494 0
  78 003a 0120     		movs	r0, #1
  79              	.L4:
  80              	.LVL3:
 495:Generated_Source\PSoC6/CapSense_Structure.c ****             }
 496:Generated_Source\PSoC6/CapSense_Structure.c **** 
 497:Generated_Source\PSoC6/CapSense_Structure.c ****             /* Check if it is marked as Read Only */
 498:Generated_Source\PSoC6/CapSense_Structure.c ****             if (0u != pData->rw)
  81              		.loc 1 498 0
  82 003c 15B9     		cbnz	r5, .L11
  83 003e 02E0     		b	.L3
  84              	.LVL4:
  85              	.L9:
 486:Generated_Source\PSoC6/CapSense_Structure.c ****             }
  86              		.loc 1 486 0
  87 0040 0120     		movs	r0, #1
  88 0042 00E0     		b	.L3
  89              	.LVL5:
  90              	.L11:
 499:Generated_Source\PSoC6/CapSense_Structure.c ****             {
 500:Generated_Source\PSoC6/CapSense_Structure.c ****                 result = CY_RET_BAD_PARAM;
  91              		.loc 1 500 0
  92 0044 0120     		movs	r0, #1
  93              	.LVL6:
  94              	.L3:
 501:Generated_Source\PSoC6/CapSense_Structure.c ****             }
 502:Generated_Source\PSoC6/CapSense_Structure.c ****         }
 503:Generated_Source\PSoC6/CapSense_Structure.c ****     #endif /* #if (0u != CapSense_SELF_TEST_EN) */
 504:Generated_Source\PSoC6/CapSense_Structure.c **** 
 505:Generated_Source\PSoC6/CapSense_Structure.c ****     if (CY_RET_SUCCESS == result)
  95              		.loc 1 505 0
  96 0046 98B9     		cbnz	r0, .L5
 506:Generated_Source\PSoC6/CapSense_Structure.c ****     {
 507:Generated_Source\PSoC6/CapSense_Structure.c ****         /* Check parameter type, offset alignment */
 508:Generated_Source\PSoC6/CapSense_Structure.c ****         switch (pData->type)
  97              		.loc 1 508 0
  98 0048 022B     		cmp	r3, #2
  99 004a 04D0     		beq	.L6
 100 004c 032B     		cmp	r3, #3
 101 004e 06D0     		beq	.L7
 102 0050 012B     		cmp	r3, #1
 103 0052 08D1     		bne	.L15
 104 0054 0CE0     		b	.L5
 105              	.L6:
 509:Generated_Source\PSoC6/CapSense_Structure.c ****         {
 510:Generated_Source\PSoC6/CapSense_Structure.c ****         case DS_PARAM_TYPE_UINT16:
 511:Generated_Source\PSoC6/CapSense_Structure.c ****             if (0u != (pData->offset & UINT16_ALIGN_MASK))
 106              		.loc 1 511 0
 107 0056 12F0010F 		tst	r2, #1
 108 005a 06D1     		bne	.L13
 109 005c 08E0     		b	.L5
 110              	.L7:
 512:Generated_Source\PSoC6/CapSense_Structure.c ****             {
 513:Generated_Source\PSoC6/CapSense_Structure.c ****                 result = CY_RET_BAD_PARAM;
 514:Generated_Source\PSoC6/CapSense_Structure.c ****             }
ARM GAS  C:\Users\Rolf\AppData\Local\Temp\cc6dsmLn.s 			page 12


 515:Generated_Source\PSoC6/CapSense_Structure.c ****             break;
 516:Generated_Source\PSoC6/CapSense_Structure.c **** 
 517:Generated_Source\PSoC6/CapSense_Structure.c ****         case DS_PARAM_TYPE_UINT32:
 518:Generated_Source\PSoC6/CapSense_Structure.c ****             if (0u != (pData->offset & UINT32_ALIGN_MASK))
 111              		.loc 1 518 0
 112 005e 12F0030F 		tst	r2, #3
 113 0062 04D1     		bne	.L14
 114 0064 04E0     		b	.L5
 115              	.L15:
 519:Generated_Source\PSoC6/CapSense_Structure.c ****             {
 520:Generated_Source\PSoC6/CapSense_Structure.c ****                 result = CY_RET_BAD_PARAM;
 521:Generated_Source\PSoC6/CapSense_Structure.c ****             }
 522:Generated_Source\PSoC6/CapSense_Structure.c ****             break;
 523:Generated_Source\PSoC6/CapSense_Structure.c **** 
 524:Generated_Source\PSoC6/CapSense_Structure.c ****         case DS_PARAM_TYPE_UINT8:
 525:Generated_Source\PSoC6/CapSense_Structure.c ****             break;
 526:Generated_Source\PSoC6/CapSense_Structure.c **** 
 527:Generated_Source\PSoC6/CapSense_Structure.c ****         default:
 528:Generated_Source\PSoC6/CapSense_Structure.c ****             result = CY_RET_BAD_PARAM;
 116              		.loc 1 528 0
 117 0066 0120     		movs	r0, #1
 118              	.LVL7:
 119 0068 02E0     		b	.L5
 120              	.LVL8:
 121              	.L13:
 513:Generated_Source\PSoC6/CapSense_Structure.c ****             }
 122              		.loc 1 513 0
 123 006a 0120     		movs	r0, #1
 124              	.LVL9:
 125 006c 00E0     		b	.L5
 126              	.LVL10:
 127              	.L14:
 520:Generated_Source\PSoC6/CapSense_Structure.c ****             }
 128              		.loc 1 520 0
 129 006e 0120     		movs	r0, #1
 130              	.LVL11:
 131              	.L5:
 529:Generated_Source\PSoC6/CapSense_Structure.c ****             break;
 530:Generated_Source\PSoC6/CapSense_Structure.c ****         }
 531:Generated_Source\PSoC6/CapSense_Structure.c ****     }
 532:Generated_Source\PSoC6/CapSense_Structure.c **** 
 533:Generated_Source\PSoC6/CapSense_Structure.c ****     return result;
 534:Generated_Source\PSoC6/CapSense_Structure.c **** }
 132              		.loc 1 534 0
 133 0070 30BC     		pop	{r4, r5}
 134              		.cfi_restore 5
 135              		.cfi_restore 4
 136              		.cfi_def_cfa_offset 0
 137 0072 7047     		bx	lr
 138              		.cfi_endproc
 139              	.LFE133:
 140              		.size	DsParseParamId, .-DsParseParamId
 141              		.section	.text.CapSense_DsInitialize,"ax",%progbits
 142              		.align	2
 143              		.global	CapSense_DsInitialize
 144              		.thumb
 145              		.thumb_func
ARM GAS  C:\Users\Rolf\AppData\Local\Temp\cc6dsmLn.s 			page 13


 146              		.type	CapSense_DsInitialize, %function
 147              	CapSense_DsInitialize:
 148              	.LFB132:
 233:Generated_Source\PSoC6/CapSense_Structure.c ****     #if ((CapSense_ENABLE == CapSense_CSX_EN) || \
 149              		.loc 1 233 0
 150              		.cfi_startproc
 151              		@ args = 0, pretend = 0, frame = 0
 152              		@ frame_needed = 0, uses_anonymous_args = 0
 153 0000 F8B5     		push	{r3, r4, r5, r6, r7, lr}
 154              		.cfi_def_cfa_offset 24
 155              		.cfi_offset 3, -24
 156              		.cfi_offset 4, -20
 157              		.cfi_offset 5, -16
 158              		.cfi_offset 6, -12
 159              		.cfi_offset 7, -8
 160              		.cfi_offset 14, -4
 161              	.LVL12:
 254:Generated_Source\PSoC6/CapSense_Structure.c **** 
 162              		.loc 1 254 0
 163 0002 194D     		ldr	r5, .L23
 164 0004 3C22     		movs	r2, #60
 165 0006 0021     		movs	r1, #0
 166 0008 2846     		mov	r0, r5
 167 000a FFF7FEFF 		bl	memset
 168              	.LVL13:
 257:Generated_Source\PSoC6/CapSense_Structure.c ****     CapSense_dsRam.deviceId = CapSense_DEVICE_ID;
 169              		.loc 1 257 0
 170 000e 45F25A03 		movw	r3, #20570
 171 0012 2B80     		strh	r3, [r5]	@ movhi
 258:Generated_Source\PSoC6/CapSense_Structure.c ****     CapSense_dsRam.hwClock = CapSense_HW_CLOCK;
 172              		.loc 1 258 0
 173 0014 4FF41063 		mov	r3, #2304
 174 0018 6B80     		strh	r3, [r5, #2]	@ movhi
 259:Generated_Source\PSoC6/CapSense_Structure.c **** 
 175              		.loc 1 259 0
 176 001a 4FF47A73 		mov	r3, #1000
 177 001e AB80     		strh	r3, [r5, #4]	@ movhi
 262:Generated_Source\PSoC6/CapSense_Structure.c **** 
 178              		.loc 1 262 0
 179 0020 0823     		movs	r3, #8
 180 0022 6B83     		strh	r3, [r5, #26]	@ movhi
 265:Generated_Source\PSoC6/CapSense_Structure.c **** 
 181              		.loc 1 265 0
 182 0024 0123     		movs	r3, #1
 183 0026 2B77     		strb	r3, [r5, #28]
 285:Generated_Source\PSoC6/CapSense_Structure.c **** 
 184              		.loc 1 285 0
 185 0028 104C     		ldr	r4, .L23+4
 186 002a 04F12006 		add	r6, r4, #32
 187 002e 07CE     		ldmia	r6!, {r0, r1, r2}
 188 0030 C5F81E00 		str	r0, [r5, #30]	@ unaligned
 189 0034 C5F82210 		str	r1, [r5, #34]	@ unaligned
 190 0038 C5F82620 		str	r2, [r5, #38]	@ unaligned
 191 003c 3288     		ldrh	r2, [r6]	@ unaligned
 192 003e 6A85     		strh	r2, [r5, #42]	@ unaligned
 193              	.LVL14:
 250:Generated_Source\PSoC6/CapSense_Structure.c ****     #endif
ARM GAS  C:\Users\Rolf\AppData\Local\Temp\cc6dsmLn.s 			page 14


 194              		.loc 1 250 0
 195 0040 2146     		mov	r1, r4
 302:Generated_Source\PSoC6/CapSense_Structure.c **** 
 196              		.loc 1 302 0
 197 0042 0434     		adds	r4, r4, #4
 304:Generated_Source\PSoC6/CapSense_Structure.c ****         {
 198              		.loc 1 304 0
 199 0044 0CE0     		b	.L18
 200              	.LVL15:
 201              	.L21:
 306:Generated_Source\PSoC6/CapSense_Structure.c **** 
 202              		.loc 1 306 0
 203 0046 A268     		ldr	r2, [r4, #8]
 204              	.LVL16:
 308:Generated_Source\PSoC6/CapSense_Structure.c ****             {
 205              		.loc 1 308 0
 206 0048 238B     		ldrh	r3, [r4, #24]
 207              	.LVL17:
 208 004a 04E0     		b	.L19
 209              	.LVL18:
 210              	.L20:
 310:Generated_Source\PSoC6/CapSense_Structure.c ****                 ptrIdacInit++;
 211              		.loc 1 310 0
 212 004c 11F8013B 		ldrb	r3, [r1], #1	@ zero_extendqisi2
 213              	.LVL19:
 214 0050 5372     		strb	r3, [r2, #9]
 215              	.LVL20:
 321:Generated_Source\PSoC6/CapSense_Structure.c ****             }
 216              		.loc 1 321 0
 217 0052 0A32     		adds	r2, r2, #10
 218              	.LVL21:
 308:Generated_Source\PSoC6/CapSense_Structure.c ****             {
 219              		.loc 1 308 0
 220 0054 0346     		mov	r3, r0
 221              	.LVL22:
 222              	.L19:
 308:Generated_Source\PSoC6/CapSense_Structure.c ****             {
 223              		.loc 1 308 0 is_stmt 0 discriminator 1
 224 0056 581E     		subs	r0, r3, #1
 225              	.LVL23:
 226 0058 002B     		cmp	r3, #0
 227 005a F7D1     		bne	.L20
 324:Generated_Source\PSoC6/CapSense_Structure.c ****         }
 228              		.loc 1 324 0 is_stmt 1
 229 005c 1C34     		adds	r4, r4, #28
 230              	.LVL24:
 304:Generated_Source\PSoC6/CapSense_Structure.c ****         {
 231              		.loc 1 304 0
 232 005e 2B46     		mov	r3, r5
 233              	.LVL25:
 234              	.L18:
 304:Generated_Source\PSoC6/CapSense_Structure.c ****         {
 235              		.loc 1 304 0 is_stmt 0 discriminator 1
 236 0060 5D1E     		subs	r5, r3, #1
 237              	.LVL26:
 238 0062 002B     		cmp	r3, #0
 239 0064 EFD1     		bne	.L21
ARM GAS  C:\Users\Rolf\AppData\Local\Temp\cc6dsmLn.s 			page 15


 355:Generated_Source\PSoC6/CapSense_Structure.c **** 
 240              		.loc 1 355 0 is_stmt 1
 241 0066 F8BD     		pop	{r3, r4, r5, r6, r7, pc}
 242              	.LVL27:
 243              	.L24:
 244              		.align	2
 245              	.L23:
 246 0068 00000000 		.word	CapSense_dsRam
 247 006c 00000000 		.word	.LANCHOR0
 248              		.cfi_endproc
 249              	.LFE132:
 250              		.size	CapSense_DsInitialize, .-CapSense_DsInitialize
 251              		.section	.text.CapSense_GetParam,"ax",%progbits
 252              		.align	2
 253              		.global	CapSense_GetParam
 254              		.thumb
 255              		.thumb_func
 256              		.type	CapSense_GetParam, %function
 257              	CapSense_GetParam:
 258              	.LFB134:
 535:Generated_Source\PSoC6/CapSense_Structure.c **** 
 536:Generated_Source\PSoC6/CapSense_Structure.c **** /*******************************************************************************
 537:Generated_Source\PSoC6/CapSense_Structure.c **** * Function Name: CapSense_GetParam
 538:Generated_Source\PSoC6/CapSense_Structure.c **** ****************************************************************************//**
 539:Generated_Source\PSoC6/CapSense_Structure.c **** *
 540:Generated_Source\PSoC6/CapSense_Structure.c **** * \brief
 541:Generated_Source\PSoC6/CapSense_Structure.c **** *  Gets the specified parameter value from the \ref group_structures.
 542:Generated_Source\PSoC6/CapSense_Structure.c **** *
 543:Generated_Source\PSoC6/CapSense_Structure.c **** * \details
 544:Generated_Source\PSoC6/CapSense_Structure.c **** *  This function gets the value of the specified parameter by the paramId
 545:Generated_Source\PSoC6/CapSense_Structure.c **** *  argument. The paramId for each register is available in the
 546:Generated_Source\PSoC6/CapSense_Structure.c **** *  CapSense RegisterMap header file as
 547:Generated_Source\PSoC6/CapSense_Structure.c **** *  CapSense_<ParameterName>_PARAM_ID. The paramId is a special
 548:Generated_Source\PSoC6/CapSense_Structure.c **** *  enumerated value generated by the customizer. The format of paramId is as
 549:Generated_Source\PSoC6/CapSense_Structure.c **** *  follows:
 550:Generated_Source\PSoC6/CapSense_Structure.c **** *    1. [ byte 3 byte 2 byte 1 byte 0 ]
 551:Generated_Source\PSoC6/CapSense_Structure.c **** *    2. [ TTWFCCCC UIIIIIII MMMMMMMM LLLLLLLL ]
 552:Generated_Source\PSoC6/CapSense_Structure.c **** *    3. T - encodes the parameter type:
 553:Generated_Source\PSoC6/CapSense_Structure.c **** *      - 01b: uint8
 554:Generated_Source\PSoC6/CapSense_Structure.c **** *      - 10b: uint16
 555:Generated_Source\PSoC6/CapSense_Structure.c **** *      - 11b: uint32
 556:Generated_Source\PSoC6/CapSense_Structure.c **** *    4. W - indicates whether the parameter is writable:
 557:Generated_Source\PSoC6/CapSense_Structure.c **** *      - 0: ReadOnly
 558:Generated_Source\PSoC6/CapSense_Structure.c **** *      - 1: Read/Write
 559:Generated_Source\PSoC6/CapSense_Structure.c **** *    5. C - 4 bit CRC (X^3 + 1) of the whole paramId word, the C bits are
 560:Generated_Source\PSoC6/CapSense_Structure.c **** *       filled with 0s when the CRC is calculated.
 561:Generated_Source\PSoC6/CapSense_Structure.c **** *    6. U - indicates if the parameter affects the RAM Widget Object CRC.
 562:Generated_Source\PSoC6/CapSense_Structure.c **** *    7. I - specifies that the widgetId parameter belongs to
 563:Generated_Source\PSoC6/CapSense_Structure.c **** *    8. M,L - the parameter offset MSB and LSB accordingly in:
 564:Generated_Source\PSoC6/CapSense_Structure.c **** *      - Flash Data Structure if W bit is 0.
 565:Generated_Source\PSoC6/CapSense_Structure.c **** *      - RAM Data Structure if W bit is 1.
 566:Generated_Source\PSoC6/CapSense_Structure.c **** *
 567:Generated_Source\PSoC6/CapSense_Structure.c **** *  Refer to the \ref group_structures section for details of the data structure
 568:Generated_Source\PSoC6/CapSense_Structure.c **** *  organization and examples of its register access.
 569:Generated_Source\PSoC6/CapSense_Structure.c **** *
 570:Generated_Source\PSoC6/CapSense_Structure.c **** * \param paramId
 571:Generated_Source\PSoC6/CapSense_Structure.c **** *  Specifies the ID of parameter to get its value.
ARM GAS  C:\Users\Rolf\AppData\Local\Temp\cc6dsmLn.s 			page 16


 572:Generated_Source\PSoC6/CapSense_Structure.c **** *  A macro for the parameter ID can be found in the CapSense RegisterMap header
 573:Generated_Source\PSoC6/CapSense_Structure.c **** *  file defined as CapSense_<ParameterName>_PARAM_ID.
 574:Generated_Source\PSoC6/CapSense_Structure.c **** *
 575:Generated_Source\PSoC6/CapSense_Structure.c **** * \param  value
 576:Generated_Source\PSoC6/CapSense_Structure.c **** *  The pointer to a variable to be updated with the obtained value.
 577:Generated_Source\PSoC6/CapSense_Structure.c **** *
 578:Generated_Source\PSoC6/CapSense_Structure.c **** * \return
 579:Generated_Source\PSoC6/CapSense_Structure.c **** *  Returns the status of the operation:
 580:Generated_Source\PSoC6/CapSense_Structure.c **** *    - CY_RET_SUCCESS - The operation is successfully completed.
 581:Generated_Source\PSoC6/CapSense_Structure.c **** *    - CY_RET_BAD_PARAM - The input parameter is invalid.
 582:Generated_Source\PSoC6/CapSense_Structure.c **** *
 583:Generated_Source\PSoC6/CapSense_Structure.c **** *******************************************************************************/
 584:Generated_Source\PSoC6/CapSense_Structure.c **** cy_status CapSense_GetParam(uint32 paramId, uint32 *value)
 585:Generated_Source\PSoC6/CapSense_Structure.c **** {
 259              		.loc 1 585 0
 260              		.cfi_startproc
 261              		@ args = 0, pretend = 0, frame = 8
 262              		@ frame_needed = 0, uses_anonymous_args = 0
 263              	.LVL28:
 264 0000 30B5     		push	{r4, r5, lr}
 265              		.cfi_def_cfa_offset 12
 266              		.cfi_offset 4, -12
 267              		.cfi_offset 5, -8
 268              		.cfi_offset 14, -4
 269 0002 83B0     		sub	sp, sp, #12
 270              		.cfi_def_cfa_offset 24
 271 0004 0D46     		mov	r5, r1
 586:Generated_Source\PSoC6/CapSense_Structure.c ****     PARAM_ID_STRUCT pData;
 587:Generated_Source\PSoC6/CapSense_Structure.c ****     cy_status result;
 588:Generated_Source\PSoC6/CapSense_Structure.c **** 
 589:Generated_Source\PSoC6/CapSense_Structure.c ****     union
 590:Generated_Source\PSoC6/CapSense_Structure.c ****     {
 591:Generated_Source\PSoC6/CapSense_Structure.c ****         volatile void   const * ptr;
 592:Generated_Source\PSoC6/CapSense_Structure.c ****         volatile uint8  const * ptrUint8;
 593:Generated_Source\PSoC6/CapSense_Structure.c ****         volatile uint16 const * ptrUint16;
 594:Generated_Source\PSoC6/CapSense_Structure.c ****         volatile uint32 const * ptrUint32;
 595:Generated_Source\PSoC6/CapSense_Structure.c ****     } ptrData;
 596:Generated_Source\PSoC6/CapSense_Structure.c **** 
 597:Generated_Source\PSoC6/CapSense_Structure.c ****     result = DsParseParamId(paramId, &pData);
 272              		.loc 1 597 0
 273 0006 6946     		mov	r1, sp
 274              	.LVL29:
 275 0008 FFF7FEFF 		bl	DsParseParamId
 276              	.LVL30:
 598:Generated_Source\PSoC6/CapSense_Structure.c **** 
 599:Generated_Source\PSoC6/CapSense_Structure.c ****     /* Parse and validate paramId */
 600:Generated_Source\PSoC6/CapSense_Structure.c ****     if (CY_RET_SUCCESS == result)
 277              		.loc 1 600 0
 278 000c 0446     		mov	r4, r0
 279 000e F8B9     		cbnz	r0, .L26
 601:Generated_Source\PSoC6/CapSense_Structure.c ****     {
 602:Generated_Source\PSoC6/CapSense_Structure.c ****         /* Get base address of parameter */
 603:Generated_Source\PSoC6/CapSense_Structure.c ****         if (0u == pData.flash)
 280              		.loc 1 603 0
 281 0010 9DF80530 		ldrb	r3, [sp, #5]	@ zero_extendqisi2
 282 0014 0BB9     		cbnz	r3, .L27
 604:Generated_Source\PSoC6/CapSense_Structure.c ****         {
ARM GAS  C:\Users\Rolf\AppData\Local\Temp\cc6dsmLn.s 			page 17


 605:Generated_Source\PSoC6/CapSense_Structure.c ****             ptrData.ptr = &CapSense_dsRam;
 283              		.loc 1 605 0
 284 0016 1049     		ldr	r1, .L33
 285              	.LVL31:
 286 0018 00E0     		b	.L28
 287              	.L27:
 606:Generated_Source\PSoC6/CapSense_Structure.c ****         }
 607:Generated_Source\PSoC6/CapSense_Structure.c ****         else
 608:Generated_Source\PSoC6/CapSense_Structure.c ****         {
 609:Generated_Source\PSoC6/CapSense_Structure.c ****             ptrData.ptr = &CapSense_dsFlash;
 288              		.loc 1 609 0
 289 001a 1049     		ldr	r1, .L33+4
 290              	.L28:
 610:Generated_Source\PSoC6/CapSense_Structure.c ****         }
 611:Generated_Source\PSoC6/CapSense_Structure.c **** 
 612:Generated_Source\PSoC6/CapSense_Structure.c ****         /* Add offset to base address */
 613:Generated_Source\PSoC6/CapSense_Structure.c ****         ptrData.ptrUint8 += pData.offset;
 291              		.loc 1 613 0
 292 001c BDF80020 		ldrh	r2, [sp]
 293              	.LVL32:
 294 0020 8818     		adds	r0, r1, r2
 295              	.LVL33:
 614:Generated_Source\PSoC6/CapSense_Structure.c **** 
 615:Generated_Source\PSoC6/CapSense_Structure.c ****         /* Read data */
 616:Generated_Source\PSoC6/CapSense_Structure.c ****         if (DS_PARAM_TYPE_UINT8 == pData.type)
 296              		.loc 1 616 0
 297 0022 9DF80730 		ldrb	r3, [sp, #7]	@ zero_extendqisi2
 298 0026 012B     		cmp	r3, #1
 299 0028 02D1     		bne	.L29
 617:Generated_Source\PSoC6/CapSense_Structure.c ****         {
 618:Generated_Source\PSoC6/CapSense_Structure.c ****             *value = (uint32) (*ptrData.ptrUint8);
 300              		.loc 1 618 0
 301 002a 8B5C     		ldrb	r3, [r1, r2]	@ zero_extendqisi2
 302 002c 2B60     		str	r3, [r5]
 303 002e 0FE0     		b	.L26
 304              	.L29:
 619:Generated_Source\PSoC6/CapSense_Structure.c ****         }
 620:Generated_Source\PSoC6/CapSense_Structure.c ****         else if (DS_PARAM_TYPE_UINT16 == pData.type)
 305              		.loc 1 620 0
 306 0030 022B     		cmp	r3, #2
 307 0032 03D1     		bne	.L30
 621:Generated_Source\PSoC6/CapSense_Structure.c ****         {
 622:Generated_Source\PSoC6/CapSense_Structure.c ****             *value = (uint32) (*ptrData.ptrUint16);
 308              		.loc 1 622 0
 309 0034 0388     		ldrh	r3, [r0]
 310 0036 9BB2     		uxth	r3, r3
 311 0038 2B60     		str	r3, [r5]
 312 003a 09E0     		b	.L26
 313              	.L30:
 623:Generated_Source\PSoC6/CapSense_Structure.c ****         }
 624:Generated_Source\PSoC6/CapSense_Structure.c ****         else if (DS_PARAM_TYPE_UINT32 == pData.type)
 314              		.loc 1 624 0
 315 003c 032B     		cmp	r3, #3
 316 003e 02D1     		bne	.L31
 625:Generated_Source\PSoC6/CapSense_Structure.c ****         {
 626:Generated_Source\PSoC6/CapSense_Structure.c ****             *value = *ptrData.ptrUint32;
 317              		.loc 1 626 0
ARM GAS  C:\Users\Rolf\AppData\Local\Temp\cc6dsmLn.s 			page 18


 318 0040 0368     		ldr	r3, [r0]
 319 0042 2B60     		str	r3, [r5]
 320 0044 04E0     		b	.L26
 321              	.L31:
 627:Generated_Source\PSoC6/CapSense_Structure.c ****         }
 628:Generated_Source\PSoC6/CapSense_Structure.c ****         else
 629:Generated_Source\PSoC6/CapSense_Structure.c ****         {
 630:Generated_Source\PSoC6/CapSense_Structure.c ****             /* Parameter comes here already validated. */
 631:Generated_Source\PSoC6/CapSense_Structure.c ****             CY_ASSERT(0 != 0);
 322              		.loc 1 631 0 discriminator 1
 323 0046 40F27721 		movw	r1, #631
 324              	.LVL34:
 325 004a 0548     		ldr	r0, .L33+8
 326 004c FFF7FEFF 		bl	Cy_SysLib_AssertFailed
 327              	.LVL35:
 328              	.L26:
 632:Generated_Source\PSoC6/CapSense_Structure.c ****         }
 633:Generated_Source\PSoC6/CapSense_Structure.c ****     }
 634:Generated_Source\PSoC6/CapSense_Structure.c **** 
 635:Generated_Source\PSoC6/CapSense_Structure.c ****     return result;
 636:Generated_Source\PSoC6/CapSense_Structure.c **** }
 329              		.loc 1 636 0
 330 0050 2046     		mov	r0, r4
 331 0052 03B0     		add	sp, sp, #12
 332              		.cfi_def_cfa_offset 12
 333              		@ sp needed
 334 0054 30BD     		pop	{r4, r5, pc}
 335              	.LVL36:
 336              	.L34:
 337 0056 00BF     		.align	2
 338              	.L33:
 339 0058 00000000 		.word	CapSense_dsRam
 340 005c 04000000 		.word	.LANCHOR0+4
 341 0060 00000000 		.word	.LC0
 342              		.cfi_endproc
 343              	.LFE134:
 344              		.size	CapSense_GetParam, .-CapSense_GetParam
 345              		.section	.text.CapSense_SetParam,"ax",%progbits
 346              		.align	2
 347              		.global	CapSense_SetParam
 348              		.thumb
 349              		.thumb_func
 350              		.type	CapSense_SetParam, %function
 351              	CapSense_SetParam:
 352              	.LFB135:
 637:Generated_Source\PSoC6/CapSense_Structure.c **** 
 638:Generated_Source\PSoC6/CapSense_Structure.c **** 
 639:Generated_Source\PSoC6/CapSense_Structure.c **** /*******************************************************************************
 640:Generated_Source\PSoC6/CapSense_Structure.c **** * Function Name: CapSense_SetParam
 641:Generated_Source\PSoC6/CapSense_Structure.c **** ****************************************************************************//**
 642:Generated_Source\PSoC6/CapSense_Structure.c **** *
 643:Generated_Source\PSoC6/CapSense_Structure.c **** * \brief
 644:Generated_Source\PSoC6/CapSense_Structure.c **** *  Sets a new value for the specified parameter in the \ref group_structures.
 645:Generated_Source\PSoC6/CapSense_Structure.c **** *
 646:Generated_Source\PSoC6/CapSense_Structure.c **** * \details
 647:Generated_Source\PSoC6/CapSense_Structure.c **** *  This function sets the value of the specified parameter by the paramId
 648:Generated_Source\PSoC6/CapSense_Structure.c **** *  argument. The paramId for each register is available in the
ARM GAS  C:\Users\Rolf\AppData\Local\Temp\cc6dsmLn.s 			page 19


 649:Generated_Source\PSoC6/CapSense_Structure.c **** *  CapSense RegisterMap header file as
 650:Generated_Source\PSoC6/CapSense_Structure.c **** *  CapSense_<ParameterName>_PARAM_ID. The paramId is a special
 651:Generated_Source\PSoC6/CapSense_Structure.c **** *  enumerated value generated by the customizer. The format of paramId is as
 652:Generated_Source\PSoC6/CapSense_Structure.c **** *  follows:
 653:Generated_Source\PSoC6/CapSense_Structure.c **** *    1. [ byte 3 byte 2 byte 1 byte 0 ]
 654:Generated_Source\PSoC6/CapSense_Structure.c **** *    2. [ TTWFCCCC UIIIIIII MMMMMMMM LLLLLLLL ]
 655:Generated_Source\PSoC6/CapSense_Structure.c **** *    3. T - encodes the parameter type:
 656:Generated_Source\PSoC6/CapSense_Structure.c **** *      - 01b: uint8
 657:Generated_Source\PSoC6/CapSense_Structure.c **** *      - 10b: uint16
 658:Generated_Source\PSoC6/CapSense_Structure.c **** *      - 11b: uint32
 659:Generated_Source\PSoC6/CapSense_Structure.c **** *    4. W - indicates whether the parameter is writable:
 660:Generated_Source\PSoC6/CapSense_Structure.c **** *      - 0: ReadOnly
 661:Generated_Source\PSoC6/CapSense_Structure.c **** *      - 1: Read/Write
 662:Generated_Source\PSoC6/CapSense_Structure.c **** *    5. C - 4 bit CRC (X^3 + 1) of the whole paramId word, the C bits are
 663:Generated_Source\PSoC6/CapSense_Structure.c **** *       filled with 0s when the CRC is calculated.
 664:Generated_Source\PSoC6/CapSense_Structure.c **** *    6. U - indicates if the parameter affects the RAM Widget Object CRC.
 665:Generated_Source\PSoC6/CapSense_Structure.c **** *    7. I - specifies that the widgetId parameter belongs to
 666:Generated_Source\PSoC6/CapSense_Structure.c **** *    8. M,L - the parameter offset MSB and LSB accordingly in:
 667:Generated_Source\PSoC6/CapSense_Structure.c **** *      - Flash Data Structure if W bit is 0.
 668:Generated_Source\PSoC6/CapSense_Structure.c **** *      - RAM Data Structure if W bit is 1.
 669:Generated_Source\PSoC6/CapSense_Structure.c **** *
 670:Generated_Source\PSoC6/CapSense_Structure.c **** *  Refer to the \ref group_structures section for details of the data structure
 671:Generated_Source\PSoC6/CapSense_Structure.c **** *  organization and examples of its register access.
 672:Generated_Source\PSoC6/CapSense_Structure.c **** *
 673:Generated_Source\PSoC6/CapSense_Structure.c **** *  This function writes specified value into the desired register without
 674:Generated_Source\PSoC6/CapSense_Structure.c **** *  other registers update. It is application layer responsibility to keep all
 675:Generated_Source\PSoC6/CapSense_Structure.c **** *  the data structure registers aligned. Repeated call of
 676:Generated_Source\PSoC6/CapSense_Structure.c **** *  CapSense_Start() function helps aligning dependent register values.
 677:Generated_Source\PSoC6/CapSense_Structure.c **** *
 678:Generated_Source\PSoC6/CapSense_Structure.c **** * \param paramId
 679:Generated_Source\PSoC6/CapSense_Structure.c **** *  Specifies the ID of parameter to set its value.
 680:Generated_Source\PSoC6/CapSense_Structure.c **** *  A macro for the parameter ID can be found in the CapSense RegisterMap header
 681:Generated_Source\PSoC6/CapSense_Structure.c **** *  file defined as CapSense_<ParameterName>_PARAM_ID.
 682:Generated_Source\PSoC6/CapSense_Structure.c **** 
 683:Generated_Source\PSoC6/CapSense_Structure.c **** * \param value
 684:Generated_Source\PSoC6/CapSense_Structure.c **** *  Specifies the new parameter's value.
 685:Generated_Source\PSoC6/CapSense_Structure.c **** *
 686:Generated_Source\PSoC6/CapSense_Structure.c **** * \return
 687:Generated_Source\PSoC6/CapSense_Structure.c **** *  Returns the status of the operation:
 688:Generated_Source\PSoC6/CapSense_Structure.c **** *    - CY_RET_SUCCESS - The operation is successfully completed.
 689:Generated_Source\PSoC6/CapSense_Structure.c **** *    - CY_RET_BAD_PARAM - The input parameter is invalid.
 690:Generated_Source\PSoC6/CapSense_Structure.c **** *
 691:Generated_Source\PSoC6/CapSense_Structure.c **** *******************************************************************************/
 692:Generated_Source\PSoC6/CapSense_Structure.c **** cy_status CapSense_SetParam(uint32 paramId, uint32 value)
 693:Generated_Source\PSoC6/CapSense_Structure.c **** {
 353              		.loc 1 693 0
 354              		.cfi_startproc
 355              		@ args = 0, pretend = 0, frame = 8
 356              		@ frame_needed = 0, uses_anonymous_args = 0
 357              	.LVL37:
 358 0000 30B5     		push	{r4, r5, lr}
 359              		.cfi_def_cfa_offset 12
 360              		.cfi_offset 4, -12
 361              		.cfi_offset 5, -8
 362              		.cfi_offset 14, -4
 363 0002 83B0     		sub	sp, sp, #12
 364              		.cfi_def_cfa_offset 24
ARM GAS  C:\Users\Rolf\AppData\Local\Temp\cc6dsmLn.s 			page 20


 365 0004 0D46     		mov	r5, r1
 694:Generated_Source\PSoC6/CapSense_Structure.c ****     cy_status result;
 695:Generated_Source\PSoC6/CapSense_Structure.c ****     PARAM_ID_STRUCT pData;
 696:Generated_Source\PSoC6/CapSense_Structure.c **** 
 697:Generated_Source\PSoC6/CapSense_Structure.c ****     union
 698:Generated_Source\PSoC6/CapSense_Structure.c ****     {
 699:Generated_Source\PSoC6/CapSense_Structure.c ****         volatile void   * ptr;
 700:Generated_Source\PSoC6/CapSense_Structure.c ****         volatile uint8  * ptrUint8;
 701:Generated_Source\PSoC6/CapSense_Structure.c ****         volatile uint16 * ptrUint16;
 702:Generated_Source\PSoC6/CapSense_Structure.c ****         volatile uint32 * ptrUint32;
 703:Generated_Source\PSoC6/CapSense_Structure.c ****     } ptrData;
 704:Generated_Source\PSoC6/CapSense_Structure.c **** 
 705:Generated_Source\PSoC6/CapSense_Structure.c ****     result = DsParseParamId(paramId, &pData);
 366              		.loc 1 705 0
 367 0006 6946     		mov	r1, sp
 368              	.LVL38:
 369 0008 FFF7FEFF 		bl	DsParseParamId
 370              	.LVL39:
 706:Generated_Source\PSoC6/CapSense_Structure.c **** 
 707:Generated_Source\PSoC6/CapSense_Structure.c ****     /* verify if parameter is writable */
 708:Generated_Source\PSoC6/CapSense_Structure.c ****     if (CY_RET_SUCCESS == result)
 371              		.loc 1 708 0
 372 000c 0446     		mov	r4, r0
 373 000e 18B9     		cbnz	r0, .L36
 709:Generated_Source\PSoC6/CapSense_Structure.c ****     {
 710:Generated_Source\PSoC6/CapSense_Structure.c ****         if (0u == pData.rw)
 374              		.loc 1 710 0
 375 0010 9DF80630 		ldrb	r3, [sp, #6]	@ zero_extendqisi2
 376 0014 03B9     		cbnz	r3, .L36
 711:Generated_Source\PSoC6/CapSense_Structure.c ****         {
 712:Generated_Source\PSoC6/CapSense_Structure.c ****             result = CY_RET_BAD_PARAM;
 377              		.loc 1 712 0
 378 0016 0124     		movs	r4, #1
 379              	.L36:
 380              	.LVL40:
 713:Generated_Source\PSoC6/CapSense_Structure.c ****         }
 714:Generated_Source\PSoC6/CapSense_Structure.c ****     }
 715:Generated_Source\PSoC6/CapSense_Structure.c **** 
 716:Generated_Source\PSoC6/CapSense_Structure.c ****     /* Parse and validate paramId */
 717:Generated_Source\PSoC6/CapSense_Structure.c ****     if (CY_RET_SUCCESS == result)
 381              		.loc 1 717 0
 382 0018 BCB9     		cbnz	r4, .L37
 718:Generated_Source\PSoC6/CapSense_Structure.c ****     {
 719:Generated_Source\PSoC6/CapSense_Structure.c ****         /* Get base address of parameter */
 720:Generated_Source\PSoC6/CapSense_Structure.c ****         ptrData.ptr = &CapSense_dsRam;
 721:Generated_Source\PSoC6/CapSense_Structure.c **** 
 722:Generated_Source\PSoC6/CapSense_Structure.c ****         /* Add offset to base address */
 723:Generated_Source\PSoC6/CapSense_Structure.c ****         ptrData.ptrUint8 += pData.offset;
 383              		.loc 1 723 0
 384 001a BDF80010 		ldrh	r1, [sp]
 385 001e 0C4A     		ldr	r2, .L43
 724:Generated_Source\PSoC6/CapSense_Structure.c **** 
 725:Generated_Source\PSoC6/CapSense_Structure.c ****         /* Write data */
 726:Generated_Source\PSoC6/CapSense_Structure.c ****         if (DS_PARAM_TYPE_UINT8 == pData.type)
 386              		.loc 1 726 0
 387 0020 9DF80730 		ldrb	r3, [sp, #7]	@ zero_extendqisi2
 388 0024 012B     		cmp	r3, #1
ARM GAS  C:\Users\Rolf\AppData\Local\Temp\cc6dsmLn.s 			page 21


 389 0026 02D1     		bne	.L38
 727:Generated_Source\PSoC6/CapSense_Structure.c ****         {
 728:Generated_Source\PSoC6/CapSense_Structure.c ****             *ptrData.ptrUint8 = CY_LO8(value);
 390              		.loc 1 728 0
 391 0028 EDB2     		uxtb	r5, r5
 392              	.LVL41:
 393 002a 8D54     		strb	r5, [r1, r2]
 394 002c 0DE0     		b	.L37
 395              	.LVL42:
 396              	.L38:
 729:Generated_Source\PSoC6/CapSense_Structure.c ****         }
 730:Generated_Source\PSoC6/CapSense_Structure.c ****         else if (DS_PARAM_TYPE_UINT16 == pData.type)
 397              		.loc 1 730 0
 398 002e 022B     		cmp	r3, #2
 399 0030 02D1     		bne	.L39
 731:Generated_Source\PSoC6/CapSense_Structure.c ****         {
 732:Generated_Source\PSoC6/CapSense_Structure.c ****             *ptrData.ptrUint16 = CY_LO16(value);
 400              		.loc 1 732 0
 401 0032 ADB2     		uxth	r5, r5
 402              	.LVL43:
 403 0034 8D52     		strh	r5, [r1, r2]	@ movhi
 404 0036 08E0     		b	.L37
 405              	.LVL44:
 406              	.L39:
 733:Generated_Source\PSoC6/CapSense_Structure.c ****         }
 734:Generated_Source\PSoC6/CapSense_Structure.c ****         else if (DS_PARAM_TYPE_UINT32 == pData.type)
 407              		.loc 1 734 0
 408 0038 032B     		cmp	r3, #3
 409 003a 01D1     		bne	.L40
 735:Generated_Source\PSoC6/CapSense_Structure.c ****         {
 736:Generated_Source\PSoC6/CapSense_Structure.c ****             *ptrData.ptrUint32 = value;
 410              		.loc 1 736 0
 411 003c 8D50     		str	r5, [r1, r2]
 412 003e 04E0     		b	.L37
 413              	.L40:
 737:Generated_Source\PSoC6/CapSense_Structure.c ****         }
 738:Generated_Source\PSoC6/CapSense_Structure.c ****         else
 739:Generated_Source\PSoC6/CapSense_Structure.c ****         {
 740:Generated_Source\PSoC6/CapSense_Structure.c ****             /* Parameter comes here already validated. */
 741:Generated_Source\PSoC6/CapSense_Structure.c ****             CY_ASSERT(0 != 0);
 414              		.loc 1 741 0 discriminator 1
 415 0040 40F2E521 		movw	r1, #741
 416 0044 0348     		ldr	r0, .L43+4
 417 0046 FFF7FEFF 		bl	Cy_SysLib_AssertFailed
 418              	.LVL45:
 419              	.L37:
 742:Generated_Source\PSoC6/CapSense_Structure.c ****         }
 743:Generated_Source\PSoC6/CapSense_Structure.c **** 
 744:Generated_Source\PSoC6/CapSense_Structure.c ****         #if (CapSense_ENABLE == (CapSense_TST_WDGT_CRC_EN || CapSense_TST_GLOBAL_CRC_EN))
 745:Generated_Source\PSoC6/CapSense_Structure.c ****             /* Update widget or global CRC if self-test is enabled and parameter affects it */
 746:Generated_Source\PSoC6/CapSense_Structure.c ****             if (0u != pData.affectsCrc)
 747:Generated_Source\PSoC6/CapSense_Structure.c ****             {
 748:Generated_Source\PSoC6/CapSense_Structure.c ****                 if ((ptrData.ptrUint16 >= &CapSense_dsRam.csd0Config) &&
 749:Generated_Source\PSoC6/CapSense_Structure.c ****                     (ptrData.ptrUint16 <  &CapSense_dsRam.glbCrc))
 750:Generated_Source\PSoC6/CapSense_Structure.c ****                 {
 751:Generated_Source\PSoC6/CapSense_Structure.c **** 
 752:Generated_Source\PSoC6/CapSense_Structure.c ****                     #if (CapSense_ENABLE == CapSense_TST_GLOBAL_CRC_EN)
ARM GAS  C:\Users\Rolf\AppData\Local\Temp\cc6dsmLn.s 			page 22


 753:Generated_Source\PSoC6/CapSense_Structure.c ****                         CapSense_DsUpdateGlobalCrc();
 754:Generated_Source\PSoC6/CapSense_Structure.c ****                     #endif /* (CapSense_ENABLE == CapSense_TST_GLOBAL_CRC_EN) */
 755:Generated_Source\PSoC6/CapSense_Structure.c **** 
 756:Generated_Source\PSoC6/CapSense_Structure.c ****                 }
 757:Generated_Source\PSoC6/CapSense_Structure.c ****                 else
 758:Generated_Source\PSoC6/CapSense_Structure.c ****                 {
 759:Generated_Source\PSoC6/CapSense_Structure.c ****                     #if (CapSense_ENABLE == CapSense_TST_WDGT_CRC_EN)
 760:Generated_Source\PSoC6/CapSense_Structure.c ****                         CapSense_DsUpdateWidgetCrc((uint32)pData.widgetId);
 761:Generated_Source\PSoC6/CapSense_Structure.c ****                     #endif /* (CapSense_ENABLE == CapSense_TST_WDGT_CRC_EN) */
 762:Generated_Source\PSoC6/CapSense_Structure.c ****                 }
 763:Generated_Source\PSoC6/CapSense_Structure.c ****             }
 764:Generated_Source\PSoC6/CapSense_Structure.c ****         #endif /* (CapSense_ENABLE == (CapSense_TST_WDGT_CRC_EN || CapSense_TST_GLOBAL_CRC_EN)) */
 765:Generated_Source\PSoC6/CapSense_Structure.c ****     }
 766:Generated_Source\PSoC6/CapSense_Structure.c **** 
 767:Generated_Source\PSoC6/CapSense_Structure.c ****     return result;
 768:Generated_Source\PSoC6/CapSense_Structure.c **** }
 420              		.loc 1 768 0
 421 004a 2046     		mov	r0, r4
 422 004c 03B0     		add	sp, sp, #12
 423              		.cfi_def_cfa_offset 12
 424              		@ sp needed
 425 004e 30BD     		pop	{r4, r5, pc}
 426              	.LVL46:
 427              	.L44:
 428              		.align	2
 429              	.L43:
 430 0050 00000000 		.word	CapSense_dsRam
 431 0054 00000000 		.word	.LC0
 432              		.cfi_endproc
 433              	.LFE135:
 434              		.size	CapSense_SetParam, .-CapSense_SetParam
 435              		.section	.text.CapSense_IsAnyWidgetActive,"ax",%progbits
 436              		.align	2
 437              		.global	CapSense_IsAnyWidgetActive
 438              		.thumb
 439              		.thumb_func
 440              		.type	CapSense_IsAnyWidgetActive, %function
 441              	CapSense_IsAnyWidgetActive:
 442              	.LFB136:
 769:Generated_Source\PSoC6/CapSense_Structure.c **** 
 770:Generated_Source\PSoC6/CapSense_Structure.c **** /*******************************************************************************
 771:Generated_Source\PSoC6/CapSense_Structure.c **** * Function Name: CapSense_IsAnyWidgetActive
 772:Generated_Source\PSoC6/CapSense_Structure.c **** ****************************************************************************//**
 773:Generated_Source\PSoC6/CapSense_Structure.c **** *
 774:Generated_Source\PSoC6/CapSense_Structure.c **** * \brief
 775:Generated_Source\PSoC6/CapSense_Structure.c **** *  Reports if any widget has detected a touch.
 776:Generated_Source\PSoC6/CapSense_Structure.c **** *
 777:Generated_Source\PSoC6/CapSense_Structure.c **** * \details
 778:Generated_Source\PSoC6/CapSense_Structure.c **** *  This function reports if any widget has detected a touch or not by extracting
 779:Generated_Source\PSoC6/CapSense_Structure.c **** *  information from the wdgtStatus registers
 780:Generated_Source\PSoC6/CapSense_Structure.c **** *  (CapSense_WDGT_STATUS<X>_VALUE). This function does not process a
 781:Generated_Source\PSoC6/CapSense_Structure.c **** *  widget but extracts processed results from the \ref group_structures.
 782:Generated_Source\PSoC6/CapSense_Structure.c **** *
 783:Generated_Source\PSoC6/CapSense_Structure.c **** * \return
 784:Generated_Source\PSoC6/CapSense_Structure.c **** *   Returns the touch detection status of all the widgets:
 785:Generated_Source\PSoC6/CapSense_Structure.c **** *     - Zero - No touch is detected in all the widgets or sensors.
 786:Generated_Source\PSoC6/CapSense_Structure.c **** *     - Non-zero - At least one widget or sensor detected a touch.
ARM GAS  C:\Users\Rolf\AppData\Local\Temp\cc6dsmLn.s 			page 23


 787:Generated_Source\PSoC6/CapSense_Structure.c **** *
 788:Generated_Source\PSoC6/CapSense_Structure.c **** *******************************************************************************/
 789:Generated_Source\PSoC6/CapSense_Structure.c **** uint32 CapSense_IsAnyWidgetActive(void)
 790:Generated_Source\PSoC6/CapSense_Structure.c **** {
 443              		.loc 1 790 0
 444              		.cfi_startproc
 445              		@ args = 0, pretend = 0, frame = 0
 446              		@ frame_needed = 0, uses_anonymous_args = 0
 447              		@ link register save eliminated.
 448              	.LVL47:
 791:Generated_Source\PSoC6/CapSense_Structure.c ****     uint32 result = 0Lu;
 792:Generated_Source\PSoC6/CapSense_Structure.c ****     uint32 wdWord;
 793:Generated_Source\PSoC6/CapSense_Structure.c **** 
 794:Generated_Source\PSoC6/CapSense_Structure.c ****     for (wdWord = CapSense_WDGT_STATUS_WORDS; wdWord-- > 0u;)
 449              		.loc 1 794 0
 450 0000 0123     		movs	r3, #1
 791:Generated_Source\PSoC6/CapSense_Structure.c ****     uint32 result = 0Lu;
 451              		.loc 1 791 0
 452 0002 0020     		movs	r0, #0
 453              		.loc 1 794 0
 454 0004 06E0     		b	.L46
 455              	.LVL48:
 456              	.L47:
 795:Generated_Source\PSoC6/CapSense_Structure.c ****     {
 796:Generated_Source\PSoC6/CapSense_Structure.c ****         result |= CapSense_dsRam.wdgtStatus[wdWord];
 457              		.loc 1 796 0
 458 0006 111D     		adds	r1, r2, #4
 459 0008 044B     		ldr	r3, .L48
 460 000a 03EB8103 		add	r3, r3, r1, lsl #2
 461 000e 5B68     		ldr	r3, [r3, #4]
 462 0010 1843     		orrs	r0, r0, r3
 463              	.LVL49:
 794:Generated_Source\PSoC6/CapSense_Structure.c ****     {
 464              		.loc 1 794 0
 465 0012 1346     		mov	r3, r2
 466              	.LVL50:
 467              	.L46:
 794:Generated_Source\PSoC6/CapSense_Structure.c ****     {
 468              		.loc 1 794 0 is_stmt 0 discriminator 1
 469 0014 5A1E     		subs	r2, r3, #1
 470              	.LVL51:
 471 0016 002B     		cmp	r3, #0
 472 0018 F5D1     		bne	.L47
 797:Generated_Source\PSoC6/CapSense_Structure.c ****     }
 798:Generated_Source\PSoC6/CapSense_Structure.c **** 
 799:Generated_Source\PSoC6/CapSense_Structure.c ****     return result;
 800:Generated_Source\PSoC6/CapSense_Structure.c **** }
 473              		.loc 1 800 0 is_stmt 1
 474 001a 7047     		bx	lr
 475              	.L49:
 476              		.align	2
 477              	.L48:
 478 001c 00000000 		.word	CapSense_dsRam
 479              		.cfi_endproc
 480              	.LFE136:
 481              		.size	CapSense_IsAnyWidgetActive, .-CapSense_IsAnyWidgetActive
 482              		.section	.text.CapSense_IsWidgetActive,"ax",%progbits
ARM GAS  C:\Users\Rolf\AppData\Local\Temp\cc6dsmLn.s 			page 24


 483              		.align	2
 484              		.global	CapSense_IsWidgetActive
 485              		.thumb
 486              		.thumb_func
 487              		.type	CapSense_IsWidgetActive, %function
 488              	CapSense_IsWidgetActive:
 489              	.LFB137:
 801:Generated_Source\PSoC6/CapSense_Structure.c **** 
 802:Generated_Source\PSoC6/CapSense_Structure.c **** 
 803:Generated_Source\PSoC6/CapSense_Structure.c **** /*******************************************************************************
 804:Generated_Source\PSoC6/CapSense_Structure.c **** * Function Name: CapSense_IsWidgetActive
 805:Generated_Source\PSoC6/CapSense_Structure.c **** ****************************************************************************//**
 806:Generated_Source\PSoC6/CapSense_Structure.c **** *
 807:Generated_Source\PSoC6/CapSense_Structure.c **** * \brief
 808:Generated_Source\PSoC6/CapSense_Structure.c **** *  Reports if the specified widget detects a touch on any of its sensors.
 809:Generated_Source\PSoC6/CapSense_Structure.c **** *
 810:Generated_Source\PSoC6/CapSense_Structure.c **** * \details
 811:Generated_Source\PSoC6/CapSense_Structure.c **** *  This function reports if the specified widget has detected a touch or not by
 812:Generated_Source\PSoC6/CapSense_Structure.c **** *  extracting information from the wdgtStatus registers
 813:Generated_Source\PSoC6/CapSense_Structure.c **** *  (CapSense_WDGT_STATUS<X>_VALUE). This function does not process the
 814:Generated_Source\PSoC6/CapSense_Structure.c **** *  widget but extracts processed results from the \ref group_structures.
 815:Generated_Source\PSoC6/CapSense_Structure.c **** *
 816:Generated_Source\PSoC6/CapSense_Structure.c **** * \param widgetId
 817:Generated_Source\PSoC6/CapSense_Structure.c **** *  Specifies the ID number of the widget to get its status.
 818:Generated_Source\PSoC6/CapSense_Structure.c **** *  A macro for the widget ID can be found in the CapSense Configuration header
 819:Generated_Source\PSoC6/CapSense_Structure.c **** *  file defined as CapSense_<WidgetName>_WDGT_ID.
 820:Generated_Source\PSoC6/CapSense_Structure.c **** *
 821:Generated_Source\PSoC6/CapSense_Structure.c **** * \return
 822:Generated_Source\PSoC6/CapSense_Structure.c **** *  Returns the touch detection status of the specified widgets:
 823:Generated_Source\PSoC6/CapSense_Structure.c **** *    - Zero - No touch is detected in the specified widget or a wrong widgetId
 824:Generated_Source\PSoC6/CapSense_Structure.c **** *      is specified.
 825:Generated_Source\PSoC6/CapSense_Structure.c **** *    - Non-zero if at least one sensor of the specified widget is active, i.e.
 826:Generated_Source\PSoC6/CapSense_Structure.c **** *      a touch is detected.
 827:Generated_Source\PSoC6/CapSense_Structure.c **** *
 828:Generated_Source\PSoC6/CapSense_Structure.c **** *******************************************************************************/
 829:Generated_Source\PSoC6/CapSense_Structure.c **** uint32 CapSense_IsWidgetActive(uint32 widgetId)
 830:Generated_Source\PSoC6/CapSense_Structure.c **** {
 490              		.loc 1 830 0
 491              		.cfi_startproc
 492              		@ args = 0, pretend = 0, frame = 0
 493              		@ frame_needed = 0, uses_anonymous_args = 0
 494              		@ link register save eliminated.
 495              	.LVL52:
 831:Generated_Source\PSoC6/CapSense_Structure.c ****     uint32 result = 0Lu;
 832:Generated_Source\PSoC6/CapSense_Structure.c **** 
 833:Generated_Source\PSoC6/CapSense_Structure.c ****     if (widgetId < CapSense_TOTAL_WIDGETS)
 496              		.loc 1 833 0
 497 0000 0346     		mov	r3, r0
 498 0002 60B9     		cbnz	r0, .L52
 834:Generated_Source\PSoC6/CapSense_Structure.c ****     {
 835:Generated_Source\PSoC6/CapSense_Structure.c ****         result = CapSense_GET_WIDGET_ACTIVE_STATUS(widgetId);
 499              		.loc 1 835 0
 500 0004 00F01F00 		and	r0, r0, #31
 501              	.LVL53:
 502 0008 0122     		movs	r2, #1
 503 000a 02FA00F0 		lsl	r0, r2, r0
 504 000e 5B09     		lsrs	r3, r3, #5
ARM GAS  C:\Users\Rolf\AppData\Local\Temp\cc6dsmLn.s 			page 25


 505              	.LVL54:
 506 0010 0433     		adds	r3, r3, #4
 507 0012 044A     		ldr	r2, .L53
 508 0014 02EB8303 		add	r3, r2, r3, lsl #2
 509 0018 5B68     		ldr	r3, [r3, #4]
 510 001a 1840     		ands	r0, r0, r3
 511              	.LVL55:
 512 001c 7047     		bx	lr
 513              	.LVL56:
 514              	.L52:
 831:Generated_Source\PSoC6/CapSense_Structure.c ****     uint32 result = 0Lu;
 515              		.loc 1 831 0
 516 001e 0020     		movs	r0, #0
 517              	.LVL57:
 836:Generated_Source\PSoC6/CapSense_Structure.c ****     }
 837:Generated_Source\PSoC6/CapSense_Structure.c ****     return result;
 838:Generated_Source\PSoC6/CapSense_Structure.c **** }
 518              		.loc 1 838 0
 519 0020 7047     		bx	lr
 520              	.L54:
 521 0022 00BF     		.align	2
 522              	.L53:
 523 0024 00000000 		.word	CapSense_dsRam
 524              		.cfi_endproc
 525              	.LFE137:
 526              		.size	CapSense_IsWidgetActive, .-CapSense_IsWidgetActive
 527              		.section	.text.CapSense_IsSensorActive,"ax",%progbits
 528              		.align	2
 529              		.global	CapSense_IsSensorActive
 530              		.thumb
 531              		.thumb_func
 532              		.type	CapSense_IsSensorActive, %function
 533              	CapSense_IsSensorActive:
 534              	.LFB138:
 839:Generated_Source\PSoC6/CapSense_Structure.c **** 
 840:Generated_Source\PSoC6/CapSense_Structure.c **** 
 841:Generated_Source\PSoC6/CapSense_Structure.c **** /*******************************************************************************
 842:Generated_Source\PSoC6/CapSense_Structure.c **** * Function Name: CapSense_IsSensorActive
 843:Generated_Source\PSoC6/CapSense_Structure.c **** ****************************************************************************//**
 844:Generated_Source\PSoC6/CapSense_Structure.c **** *
 845:Generated_Source\PSoC6/CapSense_Structure.c **** * \brief
 846:Generated_Source\PSoC6/CapSense_Structure.c **** *  Reports if the specified sensor in the widget detects a touch.
 847:Generated_Source\PSoC6/CapSense_Structure.c **** *
 848:Generated_Source\PSoC6/CapSense_Structure.c **** * \details
 849:Generated_Source\PSoC6/CapSense_Structure.c **** *  This function reports if the specified sensor in the widget has detected a
 850:Generated_Source\PSoC6/CapSense_Structure.c **** *  touch or not by extracting information from the wdgtStatus registers
 851:Generated_Source\PSoC6/CapSense_Structure.c **** *  (CapSense_WDGT_STATUS<X>_VALUE). This function does not process the
 852:Generated_Source\PSoC6/CapSense_Structure.c **** *  widget or sensor but extracts processed results from the \ref group_structures.
 853:Generated_Source\PSoC6/CapSense_Structure.c **** *
 854:Generated_Source\PSoC6/CapSense_Structure.c **** *  For proximity sensors, this function returns the proximity detection status. To
 855:Generated_Source\PSoC6/CapSense_Structure.c **** *  get the finger touch status of proximity sensors, use the
 856:Generated_Source\PSoC6/CapSense_Structure.c **** *  CapSense_IsProximitySensorActive() function.
 857:Generated_Source\PSoC6/CapSense_Structure.c **** *
 858:Generated_Source\PSoC6/CapSense_Structure.c **** * \param widgetId
 859:Generated_Source\PSoC6/CapSense_Structure.c **** *  Specifies the ID number of the widget.
 860:Generated_Source\PSoC6/CapSense_Structure.c **** *  A macro for the widget ID can be found in the CapSense Configuration header
 861:Generated_Source\PSoC6/CapSense_Structure.c **** *  file defined as CapSense_<WidgetName>_WDGT_ID.
ARM GAS  C:\Users\Rolf\AppData\Local\Temp\cc6dsmLn.s 			page 26


 862:Generated_Source\PSoC6/CapSense_Structure.c **** 
 863:Generated_Source\PSoC6/CapSense_Structure.c **** * \param sensorId
 864:Generated_Source\PSoC6/CapSense_Structure.c **** *  Specifies the ID number of the sensor within the widget to get its touch
 865:Generated_Source\PSoC6/CapSense_Structure.c **** *  detection status.
 866:Generated_Source\PSoC6/CapSense_Structure.c **** *  A macro for the sensor ID within the specified widget can be found in the
 867:Generated_Source\PSoC6/CapSense_Structure.c **** *  CapSense Configuration header file defined as
 868:Generated_Source\PSoC6/CapSense_Structure.c **** *  CapSense_<WidgetName>_SNS<SensorNumber>_ID.
 869:Generated_Source\PSoC6/CapSense_Structure.c **** *
 870:Generated_Source\PSoC6/CapSense_Structure.c **** * \return
 871:Generated_Source\PSoC6/CapSense_Structure.c **** *  Returns the touch detection status of the specified sensor / widget:
 872:Generated_Source\PSoC6/CapSense_Structure.c **** *    - Zero if no touch is detected in the specified sensor / widget or a wrong
 873:Generated_Source\PSoC6/CapSense_Structure.c **** *      widget ID / sensor ID is specified.
 874:Generated_Source\PSoC6/CapSense_Structure.c **** *    - Non-zero if the specified sensor is active i.e. touch is detected. If the
 875:Generated_Source\PSoC6/CapSense_Structure.c **** *      specific sensor belongs to a proximity widget, the proximity detection
 876:Generated_Source\PSoC6/CapSense_Structure.c **** *      status is returned.
 877:Generated_Source\PSoC6/CapSense_Structure.c **** *
 878:Generated_Source\PSoC6/CapSense_Structure.c **** *******************************************************************************/
 879:Generated_Source\PSoC6/CapSense_Structure.c **** uint32 CapSense_IsSensorActive(uint32 widgetId, uint32 sensorId)
 880:Generated_Source\PSoC6/CapSense_Structure.c **** {
 535              		.loc 1 880 0
 536              		.cfi_startproc
 537              		@ args = 0, pretend = 0, frame = 0
 538              		@ frame_needed = 0, uses_anonymous_args = 0
 539              		@ link register save eliminated.
 540              	.LVL58:
 881:Generated_Source\PSoC6/CapSense_Structure.c ****     uint32 result = 0Lu;
 882:Generated_Source\PSoC6/CapSense_Structure.c **** 
 883:Generated_Source\PSoC6/CapSense_Structure.c ****     if ((widgetId < CapSense_TOTAL_WIDGETS) &&
 541              		.loc 1 883 0
 542 0000 0346     		mov	r3, r0
 543 0002 80B9     		cbnz	r0, .L57
 884:Generated_Source\PSoC6/CapSense_Structure.c ****         (sensorId < CapSense_GET_SENSOR_COUNT(widgetId)))
 544              		.loc 1 884 0 discriminator 1
 545 0004 C0EBC000 		rsb	r0, r0, r0, lsl #3
 546              	.LVL59:
 547 0008 8200     		lsls	r2, r0, #2
 548 000a 0948     		ldr	r0, .L59
 549 000c 0244     		add	r2, r2, r0
 550 000e 928B     		ldrh	r2, [r2, #28]
 883:Generated_Source\PSoC6/CapSense_Structure.c ****         (sensorId < CapSense_GET_SENSOR_COUNT(widgetId)))
 551              		.loc 1 883 0 discriminator 1
 552 0010 8A42     		cmp	r2, r1
 553 0012 0AD9     		bls	.L58
 885:Generated_Source\PSoC6/CapSense_Structure.c ****     {
 886:Generated_Source\PSoC6/CapSense_Structure.c ****         #if (CapSense_ENABLE == CapSense_PROXIMITY_WIDGET_EN)
 887:Generated_Source\PSoC6/CapSense_Structure.c ****             if (CapSense_WD_PROXIMITY_E ==
 888:Generated_Source\PSoC6/CapSense_Structure.c ****                 (CapSense_WD_TYPE_ENUM)CapSense_dsFlash.wdgtArray[widgetId].wdgtType)
 889:Generated_Source\PSoC6/CapSense_Structure.c ****             {
 890:Generated_Source\PSoC6/CapSense_Structure.c ****                 sensorId = CapSense_PROX_STS_OFFSET(sensorId);
 891:Generated_Source\PSoC6/CapSense_Structure.c ****             }
 892:Generated_Source\PSoC6/CapSense_Structure.c ****         #endif /* (CapSense_ENABLE != CapSense_PROXIMITY_WIDGET_EN) */
 893:Generated_Source\PSoC6/CapSense_Structure.c ****         result = CapSense_dsRam.snsStatus[widgetId] & (1Lu << sensorId);
 554              		.loc 1 893 0
 555 0014 074A     		ldr	r2, .L59+4
 556 0016 1344     		add	r3, r3, r2
 557              	.LVL60:
 558 0018 1B7E     		ldrb	r3, [r3, #24]	@ zero_extendqisi2
ARM GAS  C:\Users\Rolf\AppData\Local\Temp\cc6dsmLn.s 			page 27


 559              	.LVL61:
 560 001a 0120     		movs	r0, #1
 561 001c 00FA01F1 		lsl	r1, r0, r1
 562              	.LVL62:
 563 0020 03EA0100 		and	r0, r3, r1
 564              	.LVL63:
 565 0024 7047     		bx	lr
 566              	.LVL64:
 567              	.L57:
 881:Generated_Source\PSoC6/CapSense_Structure.c **** 
 568              		.loc 1 881 0
 569 0026 0020     		movs	r0, #0
 570              	.LVL65:
 571 0028 7047     		bx	lr
 572              	.L58:
 573 002a 0020     		movs	r0, #0
 574              	.LVL66:
 894:Generated_Source\PSoC6/CapSense_Structure.c ****     }
 895:Generated_Source\PSoC6/CapSense_Structure.c **** 
 896:Generated_Source\PSoC6/CapSense_Structure.c ****     return result;
 897:Generated_Source\PSoC6/CapSense_Structure.c **** }
 575              		.loc 1 897 0
 576 002c 7047     		bx	lr
 577              	.L60:
 578 002e 00BF     		.align	2
 579              	.L59:
 580 0030 00000000 		.word	.LANCHOR0
 581 0034 00000000 		.word	CapSense_dsRam
 582              		.cfi_endproc
 583              	.LFE138:
 584              		.size	CapSense_IsSensorActive, .-CapSense_IsSensorActive
 585              		.global	CapSense_ramIdacInit
 586              		.global	CapSense_ramWidgetInit
 587              		.global	CapSense_ioList
 588              		.global	CapSense_dsFlash
 589              		.comm	CapSense_dsRam,60,4
 590              		.section	.rodata
 591              		.align	2
 592              		.set	.LANCHOR0,. + 0
 593              		.type	CapSense_ramIdacInit, %object
 594              		.size	CapSense_ramIdacInit, 1
 595              	CapSense_ramIdacInit:
 596 0000 20       		.byte	32
 597 0001 000000   		.space	3
 598              		.type	CapSense_dsFlash, %object
 599              		.size	CapSense_dsFlash, 28
 600              	CapSense_dsFlash:
 601 0004 00000000 		.word	CapSense_ioList
 602 0008 1E000000 		.word	CapSense_dsRam+30
 603 000c 2C000000 		.word	CapSense_dsRam+44
 604 0010 00000000 		.word	0
 605 0014 00000000 		.word	CapSense_debounceButton0
 606 0018 01280000 		.word	10241
 607 001c 0100     		.short	1
 608 001e 01       		.byte	1
 609 001f 01       		.byte	1
 610              		.type	CapSense_ramWidgetInit, %object
ARM GAS  C:\Users\Rolf\AppData\Local\Temp\cc6dsmLn.s 			page 28


 611              		.size	CapSense_ramWidgetInit, 14
 612              	CapSense_ramWidgetInit:
 613 0020 0D00     		.short	13
 614 0022 E803     		.short	1000
 615 0024 1B       		.byte	27
 616 0025 1B       		.byte	27
 617 0026 06       		.byte	6
 618 0027 03       		.byte	3
 619 0028 1E       		.byte	30
 620 0029 20       		.byte	32
 621 002a 0400     		.short	4
 622 002c 00       		.byte	0
 623 002d 00       		.space	1
 624 002e 0000     		.space	2
 625              		.type	CapSense_ioList, %object
 626              		.size	CapSense_ioList, 8
 627              	CapSense_ioList:
 628 0030 80043240 		.word	1077019776
 629 0034 00       		.byte	0
 630 0035 000000   		.space	3
 631              		.section	.rodata.str1.4,"aMS",%progbits,1
 632              		.align	2
 633              	.LC0:
 634 0000 47656E65 		.ascii	"Generated_Source\\PSoC6\\CapSense_Structure.c\000"
 634      72617465 
 634      645F536F 
 634      75726365 
 634      5C50536F 
 635              		.bss
 636              		.align	2
 637              		.type	CapSense_debounceButton0, %object
 638              		.size	CapSense_debounceButton0, 1
 639              	CapSense_debounceButton0:
 640 0000 00       		.space	1
 641              		.text
 642              	.Letext0:
 643              		.file 2 "c:\\program files (x86)\\cypress\\psoc creator\\4.4\\4.4\\psoc creator\\import\\gnu\\arm\
 644              		.file 3 "c:\\program files (x86)\\cypress\\psoc creator\\4.4\\4.4\\psoc creator\\import\\gnu\\arm\
 645              		.file 4 "Generated_Source\\PSoC6\\pdl\\devices/psoc6/include/ip/cyip_gpio.h"
 646              		.file 5 "Generated_Source\\PSoC6\\pdl\\devices/psoc6/include/psoc6_01_config.h"
 647              		.file 6 "Generated_Source\\PSoC6\\pdl\\drivers/peripheral/syslib/cy_syslib.h"
 648              		.file 7 "Generated_Source\\PSoC6\\CapSense_Configuration.h"
 649              		.file 8 "Generated_Source\\PSoC6\\CapSense_Structure.h"
 650              		.file 9 "Generated_Source\\PSoC6\\pdl\\cmsis/include/core_cm4.h"