ARM GAS  C:\Users\Rolf\AppData\Local\Temp\cchK4Yuu.s 			page 1


   1              		.syntax unified
   2              		.cpu cortex-m4
   3              		.eabi_attribute 27, 1
   4              		.fpu fpv4-sp-d16
   5              		.eabi_attribute 20, 1
   6              		.eabi_attribute 21, 1
   7              		.eabi_attribute 23, 3
   8              		.eabi_attribute 24, 1
   9              		.eabi_attribute 25, 1
  10              		.eabi_attribute 26, 1
  11              		.eabi_attribute 30, 1
  12              		.eabi_attribute 34, 1
  13              		.eabi_attribute 18, 4
  14              		.thumb
  15              		.syntax unified
  16              		.file	"I2C_CapSense.c"
  17              		.text
  18              	.Ltext0:
  19              		.cfi_sections	.debug_frame
  20              		.section	.text.I2C_CapSense_Interrupt,"ax",%progbits
  21              		.align	2
  22              		.thumb
  23              		.thumb_func
  24              		.type	I2C_CapSense_Interrupt, %function
  25              	I2C_CapSense_Interrupt:
  26              	.LFB227:
  27              		.file 1 "Generated_Source\\PSoC6\\I2C_CapSense.h"
   1:Generated_Source\PSoC6/I2C_CapSense.h **** /***************************************************************************//**
   2:Generated_Source\PSoC6/I2C_CapSense.h **** * \file I2C_CapSense.c
   3:Generated_Source\PSoC6/I2C_CapSense.h **** * \version 2.0
   4:Generated_Source\PSoC6/I2C_CapSense.h **** *
   5:Generated_Source\PSoC6/I2C_CapSense.h **** *  This file provides constants and parameter values for the EZI2C component.
   6:Generated_Source\PSoC6/I2C_CapSense.h **** *
   7:Generated_Source\PSoC6/I2C_CapSense.h **** ********************************************************************************
   8:Generated_Source\PSoC6/I2C_CapSense.h **** * \copyright
   9:Generated_Source\PSoC6/I2C_CapSense.h **** * Copyright 2016-2017, Cypress Semiconductor Corporation. All rights reserved.
  10:Generated_Source\PSoC6/I2C_CapSense.h **** * You may use this file only in accordance with the license, terms, conditions,
  11:Generated_Source\PSoC6/I2C_CapSense.h **** * disclaimers, and limitations in the end user license agreement accompanying
  12:Generated_Source\PSoC6/I2C_CapSense.h **** * the software package with which this file was provided.
  13:Generated_Source\PSoC6/I2C_CapSense.h **** *******************************************************************************/
  14:Generated_Source\PSoC6/I2C_CapSense.h **** 
  15:Generated_Source\PSoC6/I2C_CapSense.h **** #if !defined(I2C_CapSense_CY_SCB_EZI2C_PDL_H)
  16:Generated_Source\PSoC6/I2C_CapSense.h **** #define I2C_CapSense_CY_SCB_EZI2C_PDL_H
  17:Generated_Source\PSoC6/I2C_CapSense.h **** 
  18:Generated_Source\PSoC6/I2C_CapSense.h **** #include "cyfitter.h"
  19:Generated_Source\PSoC6/I2C_CapSense.h **** #include "scb/cy_scb_ezi2c.h"
  20:Generated_Source\PSoC6/I2C_CapSense.h **** 
  21:Generated_Source\PSoC6/I2C_CapSense.h **** #if defined(__cplusplus)
  22:Generated_Source\PSoC6/I2C_CapSense.h **** extern "C" {
  23:Generated_Source\PSoC6/I2C_CapSense.h **** #endif
  24:Generated_Source\PSoC6/I2C_CapSense.h **** 
  25:Generated_Source\PSoC6/I2C_CapSense.h **** /***************************************
  26:Generated_Source\PSoC6/I2C_CapSense.h **** *   Initial Parameter Constants
  27:Generated_Source\PSoC6/I2C_CapSense.h **** ****************************************/
  28:Generated_Source\PSoC6/I2C_CapSense.h **** 
  29:Generated_Source\PSoC6/I2C_CapSense.h **** #define I2C_CapSense_ENABLE_SECOND_ADDR  (0U)
  30:Generated_Source\PSoC6/I2C_CapSense.h **** 
ARM GAS  C:\Users\Rolf\AppData\Local\Temp\cchK4Yuu.s 			page 2


  31:Generated_Source\PSoC6/I2C_CapSense.h **** 
  32:Generated_Source\PSoC6/I2C_CapSense.h **** /***************************************
  33:Generated_Source\PSoC6/I2C_CapSense.h **** *        Function Prototypes
  34:Generated_Source\PSoC6/I2C_CapSense.h **** ***************************************/
  35:Generated_Source\PSoC6/I2C_CapSense.h **** /**
  36:Generated_Source\PSoC6/I2C_CapSense.h **** * \addtogroup group_general
  37:Generated_Source\PSoC6/I2C_CapSense.h **** * @{
  38:Generated_Source\PSoC6/I2C_CapSense.h **** */
  39:Generated_Source\PSoC6/I2C_CapSense.h **** /* Component only APIs. */
  40:Generated_Source\PSoC6/I2C_CapSense.h **** void I2C_CapSense_Start(void);
  41:Generated_Source\PSoC6/I2C_CapSense.h **** 
  42:Generated_Source\PSoC6/I2C_CapSense.h **** /* Basic functions. */
  43:Generated_Source\PSoC6/I2C_CapSense.h **** __STATIC_INLINE cy_en_scb_ezi2c_status_t I2C_CapSense_Init(cy_stc_scb_ezi2c_config_t const *config)
  44:Generated_Source\PSoC6/I2C_CapSense.h **** __STATIC_INLINE void I2C_CapSense_DeInit (void);
  45:Generated_Source\PSoC6/I2C_CapSense.h **** __STATIC_INLINE void I2C_CapSense_Enable (void);
  46:Generated_Source\PSoC6/I2C_CapSense.h **** __STATIC_INLINE void I2C_CapSense_Disable(void);
  47:Generated_Source\PSoC6/I2C_CapSense.h **** 
  48:Generated_Source\PSoC6/I2C_CapSense.h **** __STATIC_INLINE uint32_t I2C_CapSense_GetActivity(void);
  49:Generated_Source\PSoC6/I2C_CapSense.h **** 
  50:Generated_Source\PSoC6/I2C_CapSense.h **** /* Configuration functions for address 1 */
  51:Generated_Source\PSoC6/I2C_CapSense.h **** __STATIC_INLINE void     I2C_CapSense_SetAddress1(uint8_t addr);
  52:Generated_Source\PSoC6/I2C_CapSense.h **** __STATIC_INLINE uint32_t I2C_CapSense_GetAddress1(void);
  53:Generated_Source\PSoC6/I2C_CapSense.h **** __STATIC_INLINE void     I2C_CapSense_SetBuffer1(uint8_t* buffer, uint32_t size, uint32_t rwBoundar
  54:Generated_Source\PSoC6/I2C_CapSense.h **** 
  55:Generated_Source\PSoC6/I2C_CapSense.h **** #if (I2C_CapSense_ENABLE_SECOND_ADDR)
  56:Generated_Source\PSoC6/I2C_CapSense.h **** /* Configuration functions for address 2 */
  57:Generated_Source\PSoC6/I2C_CapSense.h **** __STATIC_INLINE void     I2C_CapSense_SetAddress2(uint8_t addr);
  58:Generated_Source\PSoC6/I2C_CapSense.h **** __STATIC_INLINE uint32_t I2C_CapSense_GetAddress2(void);
  59:Generated_Source\PSoC6/I2C_CapSense.h **** __STATIC_INLINE void     I2C_CapSense_SetBuffer2(uint8_t* buffer, uint32_t size, uint32_t rwBoundar
  60:Generated_Source\PSoC6/I2C_CapSense.h **** #endif /* (I2C_CapSense_ENABLE_SECOND_ADDR) */
  61:Generated_Source\PSoC6/I2C_CapSense.h **** 
  62:Generated_Source\PSoC6/I2C_CapSense.h **** __STATIC_INLINE void I2C_CapSense_Interrupt(void);
  63:Generated_Source\PSoC6/I2C_CapSense.h **** /** @} group_general */
  64:Generated_Source\PSoC6/I2C_CapSense.h **** 
  65:Generated_Source\PSoC6/I2C_CapSense.h **** 
  66:Generated_Source\PSoC6/I2C_CapSense.h **** /***************************************
  67:Generated_Source\PSoC6/I2C_CapSense.h **** *    Variables with External Linkage
  68:Generated_Source\PSoC6/I2C_CapSense.h **** ***************************************/
  69:Generated_Source\PSoC6/I2C_CapSense.h **** /**
  70:Generated_Source\PSoC6/I2C_CapSense.h **** * \addtogroup group_globals
  71:Generated_Source\PSoC6/I2C_CapSense.h **** * @{
  72:Generated_Source\PSoC6/I2C_CapSense.h **** */
  73:Generated_Source\PSoC6/I2C_CapSense.h **** extern uint8_t I2C_CapSense_initVar;
  74:Generated_Source\PSoC6/I2C_CapSense.h **** extern cy_stc_scb_ezi2c_config_t const I2C_CapSense_config;
  75:Generated_Source\PSoC6/I2C_CapSense.h **** extern cy_stc_scb_ezi2c_context_t I2C_CapSense_context;
  76:Generated_Source\PSoC6/I2C_CapSense.h **** /** @} group_globals */
  77:Generated_Source\PSoC6/I2C_CapSense.h **** 
  78:Generated_Source\PSoC6/I2C_CapSense.h **** 
  79:Generated_Source\PSoC6/I2C_CapSense.h **** /***************************************
  80:Generated_Source\PSoC6/I2C_CapSense.h **** *         Preprocessor Macros
  81:Generated_Source\PSoC6/I2C_CapSense.h **** ***************************************/
  82:Generated_Source\PSoC6/I2C_CapSense.h **** /**
  83:Generated_Source\PSoC6/I2C_CapSense.h **** * \addtogroup group_macros
  84:Generated_Source\PSoC6/I2C_CapSense.h **** * @{
  85:Generated_Source\PSoC6/I2C_CapSense.h **** */
  86:Generated_Source\PSoC6/I2C_CapSense.h **** /** The pointer to the base address of the SCB instance */
  87:Generated_Source\PSoC6/I2C_CapSense.h **** #define I2C_CapSense_HW     ((CySCB_Type *) I2C_CapSense_SCB__HW)
ARM GAS  C:\Users\Rolf\AppData\Local\Temp\cchK4Yuu.s 			page 3


  88:Generated_Source\PSoC6/I2C_CapSense.h **** /** @} group_macros */
  89:Generated_Source\PSoC6/I2C_CapSense.h **** 
  90:Generated_Source\PSoC6/I2C_CapSense.h **** 
  91:Generated_Source\PSoC6/I2C_CapSense.h **** /***************************************
  92:Generated_Source\PSoC6/I2C_CapSense.h **** *    In-line Function Implementation
  93:Generated_Source\PSoC6/I2C_CapSense.h **** ***************************************/
  94:Generated_Source\PSoC6/I2C_CapSense.h **** 
  95:Generated_Source\PSoC6/I2C_CapSense.h **** /*******************************************************************************
  96:Generated_Source\PSoC6/I2C_CapSense.h **** * Function Name: I2C_CapSense_Init
  97:Generated_Source\PSoC6/I2C_CapSense.h **** ****************************************************************************//**
  98:Generated_Source\PSoC6/I2C_CapSense.h **** *
  99:Generated_Source\PSoC6/I2C_CapSense.h **** * Invokes the Cy_SCB_EZI2C_Init() PDL driver function.
 100:Generated_Source\PSoC6/I2C_CapSense.h **** *
 101:Generated_Source\PSoC6/I2C_CapSense.h **** *******************************************************************************/
 102:Generated_Source\PSoC6/I2C_CapSense.h **** __STATIC_INLINE cy_en_scb_ezi2c_status_t I2C_CapSense_Init(cy_stc_scb_ezi2c_config_t const *config)
 103:Generated_Source\PSoC6/I2C_CapSense.h **** {
 104:Generated_Source\PSoC6/I2C_CapSense.h ****     return Cy_SCB_EZI2C_Init(I2C_CapSense_HW, config, &I2C_CapSense_context);
 105:Generated_Source\PSoC6/I2C_CapSense.h **** }
 106:Generated_Source\PSoC6/I2C_CapSense.h **** 
 107:Generated_Source\PSoC6/I2C_CapSense.h **** 
 108:Generated_Source\PSoC6/I2C_CapSense.h **** /*******************************************************************************
 109:Generated_Source\PSoC6/I2C_CapSense.h **** *  Function Name: I2C_CapSense_DeInit
 110:Generated_Source\PSoC6/I2C_CapSense.h **** ****************************************************************************//**
 111:Generated_Source\PSoC6/I2C_CapSense.h **** *
 112:Generated_Source\PSoC6/I2C_CapSense.h **** * Invokes the Cy_SCB_EZI2C_DeInit() PDL driver function.
 113:Generated_Source\PSoC6/I2C_CapSense.h **** *
 114:Generated_Source\PSoC6/I2C_CapSense.h **** *******************************************************************************/
 115:Generated_Source\PSoC6/I2C_CapSense.h **** __STATIC_INLINE void I2C_CapSense_DeInit(void)
 116:Generated_Source\PSoC6/I2C_CapSense.h **** {
 117:Generated_Source\PSoC6/I2C_CapSense.h ****     Cy_SCB_EZI2C_DeInit(I2C_CapSense_HW);
 118:Generated_Source\PSoC6/I2C_CapSense.h **** }
 119:Generated_Source\PSoC6/I2C_CapSense.h **** 
 120:Generated_Source\PSoC6/I2C_CapSense.h **** 
 121:Generated_Source\PSoC6/I2C_CapSense.h **** /*******************************************************************************
 122:Generated_Source\PSoC6/I2C_CapSense.h **** * Function Name: I2C_CapSense_Enable
 123:Generated_Source\PSoC6/I2C_CapSense.h **** ****************************************************************************//**
 124:Generated_Source\PSoC6/I2C_CapSense.h **** *
 125:Generated_Source\PSoC6/I2C_CapSense.h **** * Invokes the Cy_SCB_EZI2C_Enable() PDL driver function.
 126:Generated_Source\PSoC6/I2C_CapSense.h **** *
 127:Generated_Source\PSoC6/I2C_CapSense.h **** *******************************************************************************/
 128:Generated_Source\PSoC6/I2C_CapSense.h **** __STATIC_INLINE void I2C_CapSense_Enable(void)
 129:Generated_Source\PSoC6/I2C_CapSense.h **** {
 130:Generated_Source\PSoC6/I2C_CapSense.h ****     Cy_SCB_EZI2C_Enable(I2C_CapSense_HW);
 131:Generated_Source\PSoC6/I2C_CapSense.h **** }
 132:Generated_Source\PSoC6/I2C_CapSense.h **** 
 133:Generated_Source\PSoC6/I2C_CapSense.h **** 
 134:Generated_Source\PSoC6/I2C_CapSense.h **** /*******************************************************************************
 135:Generated_Source\PSoC6/I2C_CapSense.h **** * Function Name: I2C_CapSense_Disable
 136:Generated_Source\PSoC6/I2C_CapSense.h **** ****************************************************************************//**
 137:Generated_Source\PSoC6/I2C_CapSense.h **** *
 138:Generated_Source\PSoC6/I2C_CapSense.h **** * Invokes the Cy_SCB_EZI2C_Disable() PDL driver function.
 139:Generated_Source\PSoC6/I2C_CapSense.h **** *
 140:Generated_Source\PSoC6/I2C_CapSense.h **** *******************************************************************************/
 141:Generated_Source\PSoC6/I2C_CapSense.h **** __STATIC_INLINE void I2C_CapSense_Disable(void)
 142:Generated_Source\PSoC6/I2C_CapSense.h **** {
 143:Generated_Source\PSoC6/I2C_CapSense.h ****     Cy_SCB_EZI2C_Disable(I2C_CapSense_HW, &I2C_CapSense_context);
 144:Generated_Source\PSoC6/I2C_CapSense.h **** }
ARM GAS  C:\Users\Rolf\AppData\Local\Temp\cchK4Yuu.s 			page 4


 145:Generated_Source\PSoC6/I2C_CapSense.h **** 
 146:Generated_Source\PSoC6/I2C_CapSense.h **** 
 147:Generated_Source\PSoC6/I2C_CapSense.h **** /*******************************************************************************
 148:Generated_Source\PSoC6/I2C_CapSense.h **** * Function Name: I2C_CapSense_GetActivity
 149:Generated_Source\PSoC6/I2C_CapSense.h **** ****************************************************************************//**
 150:Generated_Source\PSoC6/I2C_CapSense.h **** *
 151:Generated_Source\PSoC6/I2C_CapSense.h **** * Invokes the Cy_SCB_EZI2C_GetActivity() PDL driver function.
 152:Generated_Source\PSoC6/I2C_CapSense.h **** *
 153:Generated_Source\PSoC6/I2C_CapSense.h **** *******************************************************************************/
 154:Generated_Source\PSoC6/I2C_CapSense.h **** __STATIC_INLINE uint32_t I2C_CapSense_GetActivity(void)
 155:Generated_Source\PSoC6/I2C_CapSense.h **** {
 156:Generated_Source\PSoC6/I2C_CapSense.h ****     return Cy_SCB_EZI2C_GetActivity(I2C_CapSense_HW, &I2C_CapSense_context);
 157:Generated_Source\PSoC6/I2C_CapSense.h **** }
 158:Generated_Source\PSoC6/I2C_CapSense.h **** 
 159:Generated_Source\PSoC6/I2C_CapSense.h **** 
 160:Generated_Source\PSoC6/I2C_CapSense.h **** /*******************************************************************************
 161:Generated_Source\PSoC6/I2C_CapSense.h **** * Function Name: I2C_CapSense_SetAddress1
 162:Generated_Source\PSoC6/I2C_CapSense.h **** ****************************************************************************//**
 163:Generated_Source\PSoC6/I2C_CapSense.h **** *
 164:Generated_Source\PSoC6/I2C_CapSense.h **** * Invokes the Cy_SCB_EZI2C_SetAddress1() PDL driver function.
 165:Generated_Source\PSoC6/I2C_CapSense.h **** *
 166:Generated_Source\PSoC6/I2C_CapSense.h **** *******************************************************************************/
 167:Generated_Source\PSoC6/I2C_CapSense.h **** __STATIC_INLINE void I2C_CapSense_SetAddress1(uint8_t addr)
 168:Generated_Source\PSoC6/I2C_CapSense.h **** {
 169:Generated_Source\PSoC6/I2C_CapSense.h ****     Cy_SCB_EZI2C_SetAddress1(I2C_CapSense_HW, addr, &I2C_CapSense_context);
 170:Generated_Source\PSoC6/I2C_CapSense.h **** }
 171:Generated_Source\PSoC6/I2C_CapSense.h **** 
 172:Generated_Source\PSoC6/I2C_CapSense.h **** 
 173:Generated_Source\PSoC6/I2C_CapSense.h **** /*******************************************************************************
 174:Generated_Source\PSoC6/I2C_CapSense.h **** * Function Name: I2C_CapSense_GetAddress1
 175:Generated_Source\PSoC6/I2C_CapSense.h **** ****************************************************************************//**
 176:Generated_Source\PSoC6/I2C_CapSense.h **** *
 177:Generated_Source\PSoC6/I2C_CapSense.h **** * Invokes the Cy_SCB_EZI2C_GetAddress1() PDL driver function.
 178:Generated_Source\PSoC6/I2C_CapSense.h **** *
 179:Generated_Source\PSoC6/I2C_CapSense.h **** *******************************************************************************/
 180:Generated_Source\PSoC6/I2C_CapSense.h **** __STATIC_INLINE uint32_t I2C_CapSense_GetAddress1(void)
 181:Generated_Source\PSoC6/I2C_CapSense.h **** {
 182:Generated_Source\PSoC6/I2C_CapSense.h ****     return Cy_SCB_EZI2C_GetAddress1(I2C_CapSense_HW, &I2C_CapSense_context);
 183:Generated_Source\PSoC6/I2C_CapSense.h **** }
 184:Generated_Source\PSoC6/I2C_CapSense.h **** 
 185:Generated_Source\PSoC6/I2C_CapSense.h **** 
 186:Generated_Source\PSoC6/I2C_CapSense.h **** /*******************************************************************************
 187:Generated_Source\PSoC6/I2C_CapSense.h **** * Function Name: I2C_CapSense_SetBuffer1
 188:Generated_Source\PSoC6/I2C_CapSense.h **** ****************************************************************************//**
 189:Generated_Source\PSoC6/I2C_CapSense.h **** *
 190:Generated_Source\PSoC6/I2C_CapSense.h **** * Invokes the Cy_SCB_EZI2C_SetBuffer1() PDL driver function.
 191:Generated_Source\PSoC6/I2C_CapSense.h **** *
 192:Generated_Source\PSoC6/I2C_CapSense.h **** *******************************************************************************/
 193:Generated_Source\PSoC6/I2C_CapSense.h **** __STATIC_INLINE void I2C_CapSense_SetBuffer1(uint8_t* buffer, uint32_t size, uint32_t rwBoundary)
 194:Generated_Source\PSoC6/I2C_CapSense.h **** {
 195:Generated_Source\PSoC6/I2C_CapSense.h ****     Cy_SCB_EZI2C_SetBuffer1(I2C_CapSense_HW, buffer, size, rwBoundary, &I2C_CapSense_context);
 196:Generated_Source\PSoC6/I2C_CapSense.h **** }
 197:Generated_Source\PSoC6/I2C_CapSense.h **** 
 198:Generated_Source\PSoC6/I2C_CapSense.h **** 
 199:Generated_Source\PSoC6/I2C_CapSense.h **** #if (I2C_CapSense_ENABLE_SECOND_ADDR)
 200:Generated_Source\PSoC6/I2C_CapSense.h **** /*******************************************************************************
 201:Generated_Source\PSoC6/I2C_CapSense.h **** * Function Name: I2C_CapSense_SetAddress2
ARM GAS  C:\Users\Rolf\AppData\Local\Temp\cchK4Yuu.s 			page 5


 202:Generated_Source\PSoC6/I2C_CapSense.h **** ****************************************************************************//**
 203:Generated_Source\PSoC6/I2C_CapSense.h **** *
 204:Generated_Source\PSoC6/I2C_CapSense.h **** * Invokes the Cy_SCB_EZI2C_SlaveGetAddress2() PDL driver function.
 205:Generated_Source\PSoC6/I2C_CapSense.h **** *
 206:Generated_Source\PSoC6/I2C_CapSense.h **** *******************************************************************************/
 207:Generated_Source\PSoC6/I2C_CapSense.h **** __STATIC_INLINE void I2C_CapSense_SetAddress2(uint8_t addr)
 208:Generated_Source\PSoC6/I2C_CapSense.h **** {
 209:Generated_Source\PSoC6/I2C_CapSense.h ****     Cy_SCB_EZI2C_SetAddress2(I2C_CapSense_HW, addr, &I2C_CapSense_context);
 210:Generated_Source\PSoC6/I2C_CapSense.h **** }
 211:Generated_Source\PSoC6/I2C_CapSense.h **** 
 212:Generated_Source\PSoC6/I2C_CapSense.h **** 
 213:Generated_Source\PSoC6/I2C_CapSense.h **** /*******************************************************************************
 214:Generated_Source\PSoC6/I2C_CapSense.h **** * Function Name: I2C_CapSense_GetAddress2
 215:Generated_Source\PSoC6/I2C_CapSense.h **** ****************************************************************************//**
 216:Generated_Source\PSoC6/I2C_CapSense.h **** *
 217:Generated_Source\PSoC6/I2C_CapSense.h **** * Invokes the Cy_SCB_EZI2C_SlaveGetAddress2() PDL driver function.
 218:Generated_Source\PSoC6/I2C_CapSense.h **** *
 219:Generated_Source\PSoC6/I2C_CapSense.h **** *******************************************************************************/
 220:Generated_Source\PSoC6/I2C_CapSense.h **** __STATIC_INLINE uint32_t I2C_CapSense_GetAddress2(void)
 221:Generated_Source\PSoC6/I2C_CapSense.h **** {
 222:Generated_Source\PSoC6/I2C_CapSense.h ****     return Cy_SCB_EZI2C_GetAddress2(I2C_CapSense_HW, &I2C_CapSense_context);
 223:Generated_Source\PSoC6/I2C_CapSense.h **** }
 224:Generated_Source\PSoC6/I2C_CapSense.h **** 
 225:Generated_Source\PSoC6/I2C_CapSense.h **** 
 226:Generated_Source\PSoC6/I2C_CapSense.h **** /*******************************************************************************
 227:Generated_Source\PSoC6/I2C_CapSense.h **** * Function Name: I2C_CapSense_SetBuffer2
 228:Generated_Source\PSoC6/I2C_CapSense.h **** ****************************************************************************//**
 229:Generated_Source\PSoC6/I2C_CapSense.h **** *
 230:Generated_Source\PSoC6/I2C_CapSense.h **** * Invokes the Cy_SCB_EZI2C_SetBuffer2() PDL driver function.
 231:Generated_Source\PSoC6/I2C_CapSense.h **** *
 232:Generated_Source\PSoC6/I2C_CapSense.h **** *******************************************************************************/
 233:Generated_Source\PSoC6/I2C_CapSense.h **** __STATIC_INLINE void I2C_CapSense_SetBuffer2(uint8_t* buffer, uint32_t size, uint32_t rwBoundary)
 234:Generated_Source\PSoC6/I2C_CapSense.h **** {
 235:Generated_Source\PSoC6/I2C_CapSense.h ****     Cy_SCB_EZI2C_SetBuffer2(I2C_CapSense_HW, buffer, size, rwBoundary, &I2C_CapSense_context);
 236:Generated_Source\PSoC6/I2C_CapSense.h **** }
 237:Generated_Source\PSoC6/I2C_CapSense.h **** #endif /* (I2C_CapSense_ENABLE_SECOND_ADDR) */
 238:Generated_Source\PSoC6/I2C_CapSense.h **** 
 239:Generated_Source\PSoC6/I2C_CapSense.h **** 
 240:Generated_Source\PSoC6/I2C_CapSense.h **** /*******************************************************************************
 241:Generated_Source\PSoC6/I2C_CapSense.h **** * Function Name: I2C_CapSense_Interrupt
 242:Generated_Source\PSoC6/I2C_CapSense.h **** ****************************************************************************//**
 243:Generated_Source\PSoC6/I2C_CapSense.h **** *
 244:Generated_Source\PSoC6/I2C_CapSense.h **** * Invokes the Cy_SCB_EZI2C_Interrupt() PDL driver function.
 245:Generated_Source\PSoC6/I2C_CapSense.h **** *
 246:Generated_Source\PSoC6/I2C_CapSense.h **** *******************************************************************************/
 247:Generated_Source\PSoC6/I2C_CapSense.h **** __STATIC_INLINE void I2C_CapSense_Interrupt(void)
 248:Generated_Source\PSoC6/I2C_CapSense.h **** {
  28              		.loc 1 248 0
  29              		.cfi_startproc
  30              		@ args = 0, pretend = 0, frame = 0
  31              		@ frame_needed = 0, uses_anonymous_args = 0
  32 0000 08B5     		push	{r3, lr}
  33              		.cfi_def_cfa_offset 8
  34              		.cfi_offset 3, -8
  35              		.cfi_offset 14, -4
 249:Generated_Source\PSoC6/I2C_CapSense.h ****     Cy_SCB_EZI2C_Interrupt(I2C_CapSense_HW, &I2C_CapSense_context);
  36              		.loc 1 249 0
ARM GAS  C:\Users\Rolf\AppData\Local\Temp\cchK4Yuu.s 			page 6


  37 0002 0249     		ldr	r1, .L3
  38 0004 0248     		ldr	r0, .L3+4
  39 0006 FFF7FEFF 		bl	Cy_SCB_EZI2C_Interrupt
  40              	.LVL0:
  41 000a 08BD     		pop	{r3, pc}
  42              	.L4:
  43              		.align	2
  44              	.L3:
  45 000c 00000000 		.word	I2C_CapSense_context
  46 0010 00006240 		.word	1080164352
  47              		.cfi_endproc
  48              	.LFE227:
  49              		.size	I2C_CapSense_Interrupt, .-I2C_CapSense_Interrupt
  50              		.section	.text.I2C_CapSense_Start,"ax",%progbits
  51              		.align	2
  52              		.global	I2C_CapSense_Start
  53              		.thumb
  54              		.thumb_func
  55              		.type	I2C_CapSense_Start, %function
  56              	I2C_CapSense_Start:
  57              	.LFB231:
  58              		.file 2 "Generated_Source\\PSoC6\\I2C_CapSense.c"
   1:Generated_Source\PSoC6/I2C_CapSense.c **** /***************************************************************************//**
   2:Generated_Source\PSoC6/I2C_CapSense.c **** * \file I2C_CapSense.c
   3:Generated_Source\PSoC6/I2C_CapSense.c **** * \version 2.0
   4:Generated_Source\PSoC6/I2C_CapSense.c **** *
   5:Generated_Source\PSoC6/I2C_CapSense.c **** *  This file provides the source code to the API for the EZI2C Component.
   6:Generated_Source\PSoC6/I2C_CapSense.c **** *
   7:Generated_Source\PSoC6/I2C_CapSense.c **** ********************************************************************************
   8:Generated_Source\PSoC6/I2C_CapSense.c **** * \copyright
   9:Generated_Source\PSoC6/I2C_CapSense.c **** * Copyright 2016-2017, Cypress Semiconductor Corporation. All rights reserved.
  10:Generated_Source\PSoC6/I2C_CapSense.c **** * You may use this file only in accordance with the license, terms, conditions,
  11:Generated_Source\PSoC6/I2C_CapSense.c **** * disclaimers, and limitations in the end user license agreement accompanying
  12:Generated_Source\PSoC6/I2C_CapSense.c **** * the software package with which this file was provided.
  13:Generated_Source\PSoC6/I2C_CapSense.c **** *******************************************************************************/
  14:Generated_Source\PSoC6/I2C_CapSense.c **** 
  15:Generated_Source\PSoC6/I2C_CapSense.c **** #include "I2C_CapSense.h"
  16:Generated_Source\PSoC6/I2C_CapSense.c **** #include "sysint/cy_sysint.h"
  17:Generated_Source\PSoC6/I2C_CapSense.c **** #include "cyfitter_sysint.h"
  18:Generated_Source\PSoC6/I2C_CapSense.c **** #include "cyfitter_sysint_cfg.h"
  19:Generated_Source\PSoC6/I2C_CapSense.c **** 
  20:Generated_Source\PSoC6/I2C_CapSense.c **** #if defined(__cplusplus)
  21:Generated_Source\PSoC6/I2C_CapSense.c **** extern "C" {
  22:Generated_Source\PSoC6/I2C_CapSense.c **** #endif
  23:Generated_Source\PSoC6/I2C_CapSense.c **** 
  24:Generated_Source\PSoC6/I2C_CapSense.c **** /***************************************
  25:Generated_Source\PSoC6/I2C_CapSense.c **** *     Global variables
  26:Generated_Source\PSoC6/I2C_CapSense.c **** ***************************************/
  27:Generated_Source\PSoC6/I2C_CapSense.c **** 
  28:Generated_Source\PSoC6/I2C_CapSense.c **** /** I2C_CapSense_initVar indicates whether the I2C_CapSense
  29:Generated_Source\PSoC6/I2C_CapSense.c **** *  component has been initialized. The variable is initialized to 0
  30:Generated_Source\PSoC6/I2C_CapSense.c **** *  and set to 1 the first time I2C_CapSense_Start() is called.
  31:Generated_Source\PSoC6/I2C_CapSense.c **** *  This allows  the component to restart without reinitialization
  32:Generated_Source\PSoC6/I2C_CapSense.c **** *  after the first call to the I2C_CapSense_Start() routine.
  33:Generated_Source\PSoC6/I2C_CapSense.c **** *
  34:Generated_Source\PSoC6/I2C_CapSense.c **** *  If re-initialization of the component is required, then the
  35:Generated_Source\PSoC6/I2C_CapSense.c **** *  I2C_CapSense_Init() function can be called before the
ARM GAS  C:\Users\Rolf\AppData\Local\Temp\cchK4Yuu.s 			page 7


  36:Generated_Source\PSoC6/I2C_CapSense.c **** *  I2C_CapSense_Start() or I2C_CapSense_Enable() function.
  37:Generated_Source\PSoC6/I2C_CapSense.c **** */
  38:Generated_Source\PSoC6/I2C_CapSense.c **** uint8_t I2C_CapSense_initVar = 0U;
  39:Generated_Source\PSoC6/I2C_CapSense.c **** 
  40:Generated_Source\PSoC6/I2C_CapSense.c **** /** The instance-specific configuration structure.
  41:Generated_Source\PSoC6/I2C_CapSense.c **** * The pointer to this structure should be passed to Cy_SCB_EZI2C_Init function
  42:Generated_Source\PSoC6/I2C_CapSense.c **** * to initialize component with GUI selected settings.
  43:Generated_Source\PSoC6/I2C_CapSense.c **** */
  44:Generated_Source\PSoC6/I2C_CapSense.c **** cy_stc_scb_ezi2c_config_t const I2C_CapSense_config =
  45:Generated_Source\PSoC6/I2C_CapSense.c **** {
  46:Generated_Source\PSoC6/I2C_CapSense.c ****     .numberOfAddresses = CY_SCB_EZI2C_ONE_ADDRESS,
  47:Generated_Source\PSoC6/I2C_CapSense.c ****     .slaveAddress1     = 0x8U,
  48:Generated_Source\PSoC6/I2C_CapSense.c ****     .slaveAddress2     = 0U,
  49:Generated_Source\PSoC6/I2C_CapSense.c ****     .subAddressSize    = CY_SCB_EZI2C_SUB_ADDR16_BITS,
  50:Generated_Source\PSoC6/I2C_CapSense.c **** 
  51:Generated_Source\PSoC6/I2C_CapSense.c ****     .enableWakeFromSleep = false
  52:Generated_Source\PSoC6/I2C_CapSense.c **** };
  53:Generated_Source\PSoC6/I2C_CapSense.c **** 
  54:Generated_Source\PSoC6/I2C_CapSense.c **** /** The instance-specific context structure.
  55:Generated_Source\PSoC6/I2C_CapSense.c **** * It is used while the driver operation for internal configuration and
  56:Generated_Source\PSoC6/I2C_CapSense.c **** * data keeping for the EZI2C. The user should not modify anything in this 
  57:Generated_Source\PSoC6/I2C_CapSense.c **** * structure.
  58:Generated_Source\PSoC6/I2C_CapSense.c **** */
  59:Generated_Source\PSoC6/I2C_CapSense.c **** cy_stc_scb_ezi2c_context_t I2C_CapSense_context;
  60:Generated_Source\PSoC6/I2C_CapSense.c **** 
  61:Generated_Source\PSoC6/I2C_CapSense.c **** 
  62:Generated_Source\PSoC6/I2C_CapSense.c **** /*******************************************************************************
  63:Generated_Source\PSoC6/I2C_CapSense.c **** * Function Name: I2C_CapSense_Start
  64:Generated_Source\PSoC6/I2C_CapSense.c **** ****************************************************************************//**
  65:Generated_Source\PSoC6/I2C_CapSense.c **** *
  66:Generated_Source\PSoC6/I2C_CapSense.c **** * Invokes I2C_CapSense_Init() and I2C_CapSense_Enable().
  67:Generated_Source\PSoC6/I2C_CapSense.c **** * Also configures interrupt and low and high oversampling phases.
  68:Generated_Source\PSoC6/I2C_CapSense.c **** * After this function call the component is enabled and ready for operation.
  69:Generated_Source\PSoC6/I2C_CapSense.c **** * This is the preferred method to begin component operation.
  70:Generated_Source\PSoC6/I2C_CapSense.c **** *
  71:Generated_Source\PSoC6/I2C_CapSense.c **** * \globalvars
  72:Generated_Source\PSoC6/I2C_CapSense.c **** * \ref I2C_CapSense_initVar - used to check initial configuration,
  73:Generated_Source\PSoC6/I2C_CapSense.c **** * modified  on first function call.
  74:Generated_Source\PSoC6/I2C_CapSense.c **** *
  75:Generated_Source\PSoC6/I2C_CapSense.c **** *******************************************************************************/
  76:Generated_Source\PSoC6/I2C_CapSense.c **** void I2C_CapSense_Start(void)
  77:Generated_Source\PSoC6/I2C_CapSense.c **** {
  59              		.loc 2 77 0
  60              		.cfi_startproc
  61              		@ args = 0, pretend = 0, frame = 0
  62              		@ frame_needed = 0, uses_anonymous_args = 0
  63 0000 08B5     		push	{r3, lr}
  64              		.cfi_def_cfa_offset 8
  65              		.cfi_offset 3, -8
  66              		.cfi_offset 14, -4
  78:Generated_Source\PSoC6/I2C_CapSense.c ****     if (0U == I2C_CapSense_initVar)
  67              		.loc 2 78 0
  68 0002 114B     		ldr	r3, .L9
  69 0004 1B78     		ldrb	r3, [r3]	@ zero_extendqisi2
  70 0006 5BB9     		cbnz	r3, .L6
  79:Generated_Source\PSoC6/I2C_CapSense.c ****     {
  80:Generated_Source\PSoC6/I2C_CapSense.c ****         /* Configure component */
ARM GAS  C:\Users\Rolf\AppData\Local\Temp\cchK4Yuu.s 			page 8


  81:Generated_Source\PSoC6/I2C_CapSense.c ****         (void) Cy_SCB_EZI2C_Init(I2C_CapSense_HW, &I2C_CapSense_config, &I2C_CapSense_context);
  71              		.loc 2 81 0
  72 0008 104A     		ldr	r2, .L9+4
  73 000a 1149     		ldr	r1, .L9+8
  74 000c 1148     		ldr	r0, .L9+12
  75 000e FFF7FEFF 		bl	Cy_SCB_EZI2C_Init
  76              	.LVL1:
  82:Generated_Source\PSoC6/I2C_CapSense.c **** 
  83:Generated_Source\PSoC6/I2C_CapSense.c ****         /* Hook interrupt service routine */
  84:Generated_Source\PSoC6/I2C_CapSense.c ****         #if defined(I2C_CapSense_SCB_IRQ__INTC_ASSIGNED)
  85:Generated_Source\PSoC6/I2C_CapSense.c ****             (void) Cy_SysInt_Init(&I2C_CapSense_SCB_IRQ_cfg, &I2C_CapSense_Interrupt);
  77              		.loc 2 85 0
  78 0012 1149     		ldr	r1, .L9+16
  79 0014 1148     		ldr	r0, .L9+20
  80 0016 FFF7FEFF 		bl	Cy_SysInt_Init
  81              	.LVL2:
  86:Generated_Source\PSoC6/I2C_CapSense.c ****         #endif /* (I2C_CapSense_SCB_IRQ__INTC_ASSIGNED) */
  87:Generated_Source\PSoC6/I2C_CapSense.c **** 
  88:Generated_Source\PSoC6/I2C_CapSense.c ****         I2C_CapSense_initVar = 1U;
  82              		.loc 2 88 0
  83 001a 0122     		movs	r2, #1
  84 001c 0A4B     		ldr	r3, .L9
  85 001e 1A70     		strb	r2, [r3]
  86              	.L6:
  89:Generated_Source\PSoC6/I2C_CapSense.c ****     }
  90:Generated_Source\PSoC6/I2C_CapSense.c **** 
  91:Generated_Source\PSoC6/I2C_CapSense.c ****     /* Enable interrupt in NVIC */
  92:Generated_Source\PSoC6/I2C_CapSense.c ****     #if defined(I2C_CapSense_SCB_IRQ__INTC_ASSIGNED)
  93:Generated_Source\PSoC6/I2C_CapSense.c ****         NVIC_EnableIRQ((IRQn_Type) I2C_CapSense_SCB_IRQ_cfg.intrSrc);
  87              		.loc 2 93 0
  88 0020 0E4B     		ldr	r3, .L9+20
  89 0022 B3F90030 		ldrsh	r3, [r3]
  90              	.LVL3:
  91              	.LBB6:
  92              	.LBB7:
  93              		.file 3 "Generated_Source\\PSoC6\\pdl\\cmsis/include/core_cm4.h"
   1:Generated_Source\PSoC6\pdl\cmsis/include/core_cm4.h **** /**************************************************************************//**
   2:Generated_Source\PSoC6\pdl\cmsis/include/core_cm4.h ****  * @file     core_cm4.h
   3:Generated_Source\PSoC6\pdl\cmsis/include/core_cm4.h ****  * @brief    CMSIS Cortex-M4 Core Peripheral Access Layer Header File
   4:Generated_Source\PSoC6\pdl\cmsis/include/core_cm4.h ****  * @version  V5.0.5
   5:Generated_Source\PSoC6\pdl\cmsis/include/core_cm4.h ****  * @date     08. January 2018
   6:Generated_Source\PSoC6\pdl\cmsis/include/core_cm4.h ****  ******************************************************************************/
   7:Generated_Source\PSoC6\pdl\cmsis/include/core_cm4.h **** /*
   8:Generated_Source\PSoC6\pdl\cmsis/include/core_cm4.h ****  * Copyright (c) 2009-2017 ARM Limited. All rights reserved.
   9:Generated_Source\PSoC6\pdl\cmsis/include/core_cm4.h ****  *
  10:Generated_Source\PSoC6\pdl\cmsis/include/core_cm4.h ****  * SPDX-License-Identifier: Apache-2.0
  11:Generated_Source\PSoC6\pdl\cmsis/include/core_cm4.h ****  *
  12:Generated_Source\PSoC6\pdl\cmsis/include/core_cm4.h ****  * Licensed under the Apache License, Version 2.0 (the License); you may
  13:Generated_Source\PSoC6\pdl\cmsis/include/core_cm4.h ****  * not use this file except in compliance with the License.
  14:Generated_Source\PSoC6\pdl\cmsis/include/core_cm4.h ****  * You may obtain a copy of the License at
  15:Generated_Source\PSoC6\pdl\cmsis/include/core_cm4.h ****  *
  16:Generated_Source\PSoC6\pdl\cmsis/include/core_cm4.h ****  * www.apache.org/licenses/LICENSE-2.0
  17:Generated_Source\PSoC6\pdl\cmsis/include/core_cm4.h ****  *
  18:Generated_Source\PSoC6\pdl\cmsis/include/core_cm4.h ****  * Unless required by applicable law or agreed to in writing, software
  19:Generated_Source\PSoC6\pdl\cmsis/include/core_cm4.h ****  * distributed under the License is distributed on an AS IS BASIS, WITHOUT
  20:Generated_Source\PSoC6\pdl\cmsis/include/core_cm4.h ****  * WARRANTIES OR CONDITIONS OF ANY KIND, either express or implied.
  21:Generated_Source\PSoC6\pdl\cmsis/include/core_cm4.h ****  * See the License for the specific language governing permissions and
ARM GAS  C:\Users\Rolf\AppData\Local\Temp\cchK4Yuu.s 			page 9


  22:Generated_Source\PSoC6\pdl\cmsis/include/core_cm4.h ****  * limitations under the License.
  23:Generated_Source\PSoC6\pdl\cmsis/include/core_cm4.h ****  */
  24:Generated_Source\PSoC6\pdl\cmsis/include/core_cm4.h **** 
  25:Generated_Source\PSoC6\pdl\cmsis/include/core_cm4.h **** #if   defined ( __ICCARM__ )
  26:Generated_Source\PSoC6\pdl\cmsis/include/core_cm4.h ****   #pragma system_include         /* treat file as system include file for MISRA check */
  27:Generated_Source\PSoC6\pdl\cmsis/include/core_cm4.h **** #elif defined (__clang__)
  28:Generated_Source\PSoC6\pdl\cmsis/include/core_cm4.h ****   #pragma clang system_header   /* treat file as system include file */
  29:Generated_Source\PSoC6\pdl\cmsis/include/core_cm4.h **** #endif
  30:Generated_Source\PSoC6\pdl\cmsis/include/core_cm4.h **** 
  31:Generated_Source\PSoC6\pdl\cmsis/include/core_cm4.h **** #ifndef __CORE_CM4_H_GENERIC
  32:Generated_Source\PSoC6\pdl\cmsis/include/core_cm4.h **** #define __CORE_CM4_H_GENERIC
  33:Generated_Source\PSoC6\pdl\cmsis/include/core_cm4.h **** 
  34:Generated_Source\PSoC6\pdl\cmsis/include/core_cm4.h **** #include <stdint.h>
  35:Generated_Source\PSoC6\pdl\cmsis/include/core_cm4.h **** 
  36:Generated_Source\PSoC6\pdl\cmsis/include/core_cm4.h **** #ifdef __cplusplus
  37:Generated_Source\PSoC6\pdl\cmsis/include/core_cm4.h ****  extern "C" {
  38:Generated_Source\PSoC6\pdl\cmsis/include/core_cm4.h **** #endif
  39:Generated_Source\PSoC6\pdl\cmsis/include/core_cm4.h **** 
  40:Generated_Source\PSoC6\pdl\cmsis/include/core_cm4.h **** /**
  41:Generated_Source\PSoC6\pdl\cmsis/include/core_cm4.h ****   \page CMSIS_MISRA_Exceptions  MISRA-C:2004 Compliance Exceptions
  42:Generated_Source\PSoC6\pdl\cmsis/include/core_cm4.h ****   CMSIS violates the following MISRA-C:2004 rules:
  43:Generated_Source\PSoC6\pdl\cmsis/include/core_cm4.h **** 
  44:Generated_Source\PSoC6\pdl\cmsis/include/core_cm4.h ****    \li Required Rule 8.5, object/function definition in header file.<br>
  45:Generated_Source\PSoC6\pdl\cmsis/include/core_cm4.h ****      Function definitions in header files are used to allow 'inlining'.
  46:Generated_Source\PSoC6\pdl\cmsis/include/core_cm4.h **** 
  47:Generated_Source\PSoC6\pdl\cmsis/include/core_cm4.h ****    \li Required Rule 18.4, declaration of union type or object of union type: '{...}'.<br>
  48:Generated_Source\PSoC6\pdl\cmsis/include/core_cm4.h ****      Unions are used for effective representation of core registers.
  49:Generated_Source\PSoC6\pdl\cmsis/include/core_cm4.h **** 
  50:Generated_Source\PSoC6\pdl\cmsis/include/core_cm4.h ****    \li Advisory Rule 19.7, Function-like macro defined.<br>
  51:Generated_Source\PSoC6\pdl\cmsis/include/core_cm4.h ****      Function-like macros are used to allow more efficient code.
  52:Generated_Source\PSoC6\pdl\cmsis/include/core_cm4.h ****  */
  53:Generated_Source\PSoC6\pdl\cmsis/include/core_cm4.h **** 
  54:Generated_Source\PSoC6\pdl\cmsis/include/core_cm4.h **** 
  55:Generated_Source\PSoC6\pdl\cmsis/include/core_cm4.h **** /*******************************************************************************
  56:Generated_Source\PSoC6\pdl\cmsis/include/core_cm4.h ****  *                 CMSIS definitions
  57:Generated_Source\PSoC6\pdl\cmsis/include/core_cm4.h ****  ******************************************************************************/
  58:Generated_Source\PSoC6\pdl\cmsis/include/core_cm4.h **** /**
  59:Generated_Source\PSoC6\pdl\cmsis/include/core_cm4.h ****   \ingroup Cortex_M4
  60:Generated_Source\PSoC6\pdl\cmsis/include/core_cm4.h ****   @{
  61:Generated_Source\PSoC6\pdl\cmsis/include/core_cm4.h ****  */
  62:Generated_Source\PSoC6\pdl\cmsis/include/core_cm4.h **** 
  63:Generated_Source\PSoC6\pdl\cmsis/include/core_cm4.h **** #include "cmsis_version.h"
  64:Generated_Source\PSoC6\pdl\cmsis/include/core_cm4.h ****  
  65:Generated_Source\PSoC6\pdl\cmsis/include/core_cm4.h **** /* CMSIS CM4 definitions */
  66:Generated_Source\PSoC6\pdl\cmsis/include/core_cm4.h **** #define __CM4_CMSIS_VERSION_MAIN  (__CM_CMSIS_VERSION_MAIN)              /*!< \deprecated [31:16] C
  67:Generated_Source\PSoC6\pdl\cmsis/include/core_cm4.h **** #define __CM4_CMSIS_VERSION_SUB   (__CM_CMSIS_VERSION_SUB)               /*!< \deprecated [15:0]  C
  68:Generated_Source\PSoC6\pdl\cmsis/include/core_cm4.h **** #define __CM4_CMSIS_VERSION       ((__CM4_CMSIS_VERSION_MAIN << 16U) | \
  69:Generated_Source\PSoC6\pdl\cmsis/include/core_cm4.h ****                                     __CM4_CMSIS_VERSION_SUB           )  /*!< \deprecated CMSIS HAL
  70:Generated_Source\PSoC6\pdl\cmsis/include/core_cm4.h **** 
  71:Generated_Source\PSoC6\pdl\cmsis/include/core_cm4.h **** #define __CORTEX_M                (4U)                                   /*!< Cortex-M Core */
  72:Generated_Source\PSoC6\pdl\cmsis/include/core_cm4.h **** 
  73:Generated_Source\PSoC6\pdl\cmsis/include/core_cm4.h **** /** __FPU_USED indicates whether an FPU is used or not.
  74:Generated_Source\PSoC6\pdl\cmsis/include/core_cm4.h ****     For this, __FPU_PRESENT has to be checked prior to making use of FPU specific registers and fun
  75:Generated_Source\PSoC6\pdl\cmsis/include/core_cm4.h **** */
  76:Generated_Source\PSoC6\pdl\cmsis/include/core_cm4.h **** #if defined ( __CC_ARM )
  77:Generated_Source\PSoC6\pdl\cmsis/include/core_cm4.h ****   #if defined __TARGET_FPU_VFP
  78:Generated_Source\PSoC6\pdl\cmsis/include/core_cm4.h ****     #if defined (__FPU_PRESENT) && (__FPU_PRESENT == 1U)
ARM GAS  C:\Users\Rolf\AppData\Local\Temp\cchK4Yuu.s 			page 10


  79:Generated_Source\PSoC6\pdl\cmsis/include/core_cm4.h ****       #define __FPU_USED       1U
  80:Generated_Source\PSoC6\pdl\cmsis/include/core_cm4.h ****     #else
  81:Generated_Source\PSoC6\pdl\cmsis/include/core_cm4.h ****       #error "Compiler generates FPU instructions for a device without an FPU (check __FPU_PRESENT)
  82:Generated_Source\PSoC6\pdl\cmsis/include/core_cm4.h ****       #define __FPU_USED       0U
  83:Generated_Source\PSoC6\pdl\cmsis/include/core_cm4.h ****     #endif
  84:Generated_Source\PSoC6\pdl\cmsis/include/core_cm4.h ****   #else
  85:Generated_Source\PSoC6\pdl\cmsis/include/core_cm4.h ****     #define __FPU_USED         0U
  86:Generated_Source\PSoC6\pdl\cmsis/include/core_cm4.h ****   #endif
  87:Generated_Source\PSoC6\pdl\cmsis/include/core_cm4.h **** 
  88:Generated_Source\PSoC6\pdl\cmsis/include/core_cm4.h **** #elif defined (__ARMCC_VERSION) && (__ARMCC_VERSION >= 6010050)
  89:Generated_Source\PSoC6\pdl\cmsis/include/core_cm4.h ****   #if defined __ARM_PCS_VFP
  90:Generated_Source\PSoC6\pdl\cmsis/include/core_cm4.h ****     #if defined (__FPU_PRESENT) && (__FPU_PRESENT == 1U)
  91:Generated_Source\PSoC6\pdl\cmsis/include/core_cm4.h ****       #define __FPU_USED       1U
  92:Generated_Source\PSoC6\pdl\cmsis/include/core_cm4.h ****     #else
  93:Generated_Source\PSoC6\pdl\cmsis/include/core_cm4.h ****       #warning "Compiler generates FPU instructions for a device without an FPU (check __FPU_PRESEN
  94:Generated_Source\PSoC6\pdl\cmsis/include/core_cm4.h ****       #define __FPU_USED       0U
  95:Generated_Source\PSoC6\pdl\cmsis/include/core_cm4.h ****     #endif
  96:Generated_Source\PSoC6\pdl\cmsis/include/core_cm4.h ****   #else
  97:Generated_Source\PSoC6\pdl\cmsis/include/core_cm4.h ****     #define __FPU_USED         0U
  98:Generated_Source\PSoC6\pdl\cmsis/include/core_cm4.h ****   #endif
  99:Generated_Source\PSoC6\pdl\cmsis/include/core_cm4.h **** 
 100:Generated_Source\PSoC6\pdl\cmsis/include/core_cm4.h **** #elif defined ( __GNUC__ )
 101:Generated_Source\PSoC6\pdl\cmsis/include/core_cm4.h ****   #if defined (__VFP_FP__) && !defined(__SOFTFP__)
 102:Generated_Source\PSoC6\pdl\cmsis/include/core_cm4.h ****     #if defined (__FPU_PRESENT) && (__FPU_PRESENT == 1U)
 103:Generated_Source\PSoC6\pdl\cmsis/include/core_cm4.h ****       #define __FPU_USED       1U
 104:Generated_Source\PSoC6\pdl\cmsis/include/core_cm4.h ****     #else
 105:Generated_Source\PSoC6\pdl\cmsis/include/core_cm4.h ****       #error "Compiler generates FPU instructions for a device without an FPU (check __FPU_PRESENT)
 106:Generated_Source\PSoC6\pdl\cmsis/include/core_cm4.h ****       #define __FPU_USED       0U
 107:Generated_Source\PSoC6\pdl\cmsis/include/core_cm4.h ****     #endif
 108:Generated_Source\PSoC6\pdl\cmsis/include/core_cm4.h ****   #else
 109:Generated_Source\PSoC6\pdl\cmsis/include/core_cm4.h ****     #define __FPU_USED         0U
 110:Generated_Source\PSoC6\pdl\cmsis/include/core_cm4.h ****   #endif
 111:Generated_Source\PSoC6\pdl\cmsis/include/core_cm4.h **** 
 112:Generated_Source\PSoC6\pdl\cmsis/include/core_cm4.h **** #elif defined ( __ICCARM__ )
 113:Generated_Source\PSoC6\pdl\cmsis/include/core_cm4.h ****   #if defined __ARMVFP__
 114:Generated_Source\PSoC6\pdl\cmsis/include/core_cm4.h ****     #if defined (__FPU_PRESENT) && (__FPU_PRESENT == 1U)
 115:Generated_Source\PSoC6\pdl\cmsis/include/core_cm4.h ****       #define __FPU_USED       1U
 116:Generated_Source\PSoC6\pdl\cmsis/include/core_cm4.h ****     #else
 117:Generated_Source\PSoC6\pdl\cmsis/include/core_cm4.h ****       #error "Compiler generates FPU instructions for a device without an FPU (check __FPU_PRESENT)
 118:Generated_Source\PSoC6\pdl\cmsis/include/core_cm4.h ****       #define __FPU_USED       0U
 119:Generated_Source\PSoC6\pdl\cmsis/include/core_cm4.h ****     #endif
 120:Generated_Source\PSoC6\pdl\cmsis/include/core_cm4.h ****   #else
 121:Generated_Source\PSoC6\pdl\cmsis/include/core_cm4.h ****     #define __FPU_USED         0U
 122:Generated_Source\PSoC6\pdl\cmsis/include/core_cm4.h ****   #endif
 123:Generated_Source\PSoC6\pdl\cmsis/include/core_cm4.h **** 
 124:Generated_Source\PSoC6\pdl\cmsis/include/core_cm4.h **** #elif defined ( __TI_ARM__ )
 125:Generated_Source\PSoC6\pdl\cmsis/include/core_cm4.h ****   #if defined __TI_VFP_SUPPORT__
 126:Generated_Source\PSoC6\pdl\cmsis/include/core_cm4.h ****     #if defined (__FPU_PRESENT) && (__FPU_PRESENT == 1U)
 127:Generated_Source\PSoC6\pdl\cmsis/include/core_cm4.h ****       #define __FPU_USED       1U
 128:Generated_Source\PSoC6\pdl\cmsis/include/core_cm4.h ****     #else
 129:Generated_Source\PSoC6\pdl\cmsis/include/core_cm4.h ****       #error "Compiler generates FPU instructions for a device without an FPU (check __FPU_PRESENT)
 130:Generated_Source\PSoC6\pdl\cmsis/include/core_cm4.h ****       #define __FPU_USED       0U
 131:Generated_Source\PSoC6\pdl\cmsis/include/core_cm4.h ****     #endif
 132:Generated_Source\PSoC6\pdl\cmsis/include/core_cm4.h ****   #else
 133:Generated_Source\PSoC6\pdl\cmsis/include/core_cm4.h ****     #define __FPU_USED         0U
 134:Generated_Source\PSoC6\pdl\cmsis/include/core_cm4.h ****   #endif
 135:Generated_Source\PSoC6\pdl\cmsis/include/core_cm4.h **** 
ARM GAS  C:\Users\Rolf\AppData\Local\Temp\cchK4Yuu.s 			page 11


 136:Generated_Source\PSoC6\pdl\cmsis/include/core_cm4.h **** #elif defined ( __TASKING__ )
 137:Generated_Source\PSoC6\pdl\cmsis/include/core_cm4.h ****   #if defined __FPU_VFP__
 138:Generated_Source\PSoC6\pdl\cmsis/include/core_cm4.h ****     #if defined (__FPU_PRESENT) && (__FPU_PRESENT == 1U)
 139:Generated_Source\PSoC6\pdl\cmsis/include/core_cm4.h ****       #define __FPU_USED       1U
 140:Generated_Source\PSoC6\pdl\cmsis/include/core_cm4.h ****     #else
 141:Generated_Source\PSoC6\pdl\cmsis/include/core_cm4.h ****       #error "Compiler generates FPU instructions for a device without an FPU (check __FPU_PRESENT)
 142:Generated_Source\PSoC6\pdl\cmsis/include/core_cm4.h ****       #define __FPU_USED       0U
 143:Generated_Source\PSoC6\pdl\cmsis/include/core_cm4.h ****     #endif
 144:Generated_Source\PSoC6\pdl\cmsis/include/core_cm4.h ****   #else
 145:Generated_Source\PSoC6\pdl\cmsis/include/core_cm4.h ****     #define __FPU_USED         0U
 146:Generated_Source\PSoC6\pdl\cmsis/include/core_cm4.h ****   #endif
 147:Generated_Source\PSoC6\pdl\cmsis/include/core_cm4.h **** 
 148:Generated_Source\PSoC6\pdl\cmsis/include/core_cm4.h **** #elif defined ( __CSMC__ )
 149:Generated_Source\PSoC6\pdl\cmsis/include/core_cm4.h ****   #if ( __CSMC__ & 0x400U)
 150:Generated_Source\PSoC6\pdl\cmsis/include/core_cm4.h ****     #if defined (__FPU_PRESENT) && (__FPU_PRESENT == 1U)
 151:Generated_Source\PSoC6\pdl\cmsis/include/core_cm4.h ****       #define __FPU_USED       1U
 152:Generated_Source\PSoC6\pdl\cmsis/include/core_cm4.h ****     #else
 153:Generated_Source\PSoC6\pdl\cmsis/include/core_cm4.h ****       #error "Compiler generates FPU instructions for a device without an FPU (check __FPU_PRESENT)
 154:Generated_Source\PSoC6\pdl\cmsis/include/core_cm4.h ****       #define __FPU_USED       0U
 155:Generated_Source\PSoC6\pdl\cmsis/include/core_cm4.h ****     #endif
 156:Generated_Source\PSoC6\pdl\cmsis/include/core_cm4.h ****   #else
 157:Generated_Source\PSoC6\pdl\cmsis/include/core_cm4.h ****     #define __FPU_USED         0U
 158:Generated_Source\PSoC6\pdl\cmsis/include/core_cm4.h ****   #endif
 159:Generated_Source\PSoC6\pdl\cmsis/include/core_cm4.h **** 
 160:Generated_Source\PSoC6\pdl\cmsis/include/core_cm4.h **** #endif
 161:Generated_Source\PSoC6\pdl\cmsis/include/core_cm4.h **** 
 162:Generated_Source\PSoC6\pdl\cmsis/include/core_cm4.h **** #include "cmsis_compiler.h"               /* CMSIS compiler specific defines */
 163:Generated_Source\PSoC6\pdl\cmsis/include/core_cm4.h **** 
 164:Generated_Source\PSoC6\pdl\cmsis/include/core_cm4.h **** 
 165:Generated_Source\PSoC6\pdl\cmsis/include/core_cm4.h **** #ifdef __cplusplus
 166:Generated_Source\PSoC6\pdl\cmsis/include/core_cm4.h **** }
 167:Generated_Source\PSoC6\pdl\cmsis/include/core_cm4.h **** #endif
 168:Generated_Source\PSoC6\pdl\cmsis/include/core_cm4.h **** 
 169:Generated_Source\PSoC6\pdl\cmsis/include/core_cm4.h **** #endif /* __CORE_CM4_H_GENERIC */
 170:Generated_Source\PSoC6\pdl\cmsis/include/core_cm4.h **** 
 171:Generated_Source\PSoC6\pdl\cmsis/include/core_cm4.h **** #ifndef __CMSIS_GENERIC
 172:Generated_Source\PSoC6\pdl\cmsis/include/core_cm4.h **** 
 173:Generated_Source\PSoC6\pdl\cmsis/include/core_cm4.h **** #ifndef __CORE_CM4_H_DEPENDANT
 174:Generated_Source\PSoC6\pdl\cmsis/include/core_cm4.h **** #define __CORE_CM4_H_DEPENDANT
 175:Generated_Source\PSoC6\pdl\cmsis/include/core_cm4.h **** 
 176:Generated_Source\PSoC6\pdl\cmsis/include/core_cm4.h **** #ifdef __cplusplus
 177:Generated_Source\PSoC6\pdl\cmsis/include/core_cm4.h ****  extern "C" {
 178:Generated_Source\PSoC6\pdl\cmsis/include/core_cm4.h **** #endif
 179:Generated_Source\PSoC6\pdl\cmsis/include/core_cm4.h **** 
 180:Generated_Source\PSoC6\pdl\cmsis/include/core_cm4.h **** /* check device defines and use defaults */
 181:Generated_Source\PSoC6\pdl\cmsis/include/core_cm4.h **** #if defined __CHECK_DEVICE_DEFINES
 182:Generated_Source\PSoC6\pdl\cmsis/include/core_cm4.h ****   #ifndef __CM4_REV
 183:Generated_Source\PSoC6\pdl\cmsis/include/core_cm4.h ****     #define __CM4_REV               0x0000U
 184:Generated_Source\PSoC6\pdl\cmsis/include/core_cm4.h ****     #warning "__CM4_REV not defined in device header file; using default!"
 185:Generated_Source\PSoC6\pdl\cmsis/include/core_cm4.h ****   #endif
 186:Generated_Source\PSoC6\pdl\cmsis/include/core_cm4.h **** 
 187:Generated_Source\PSoC6\pdl\cmsis/include/core_cm4.h ****   #ifndef __FPU_PRESENT
 188:Generated_Source\PSoC6\pdl\cmsis/include/core_cm4.h ****     #define __FPU_PRESENT             0U
 189:Generated_Source\PSoC6\pdl\cmsis/include/core_cm4.h ****     #warning "__FPU_PRESENT not defined in device header file; using default!"
 190:Generated_Source\PSoC6\pdl\cmsis/include/core_cm4.h ****   #endif
 191:Generated_Source\PSoC6\pdl\cmsis/include/core_cm4.h **** 
 192:Generated_Source\PSoC6\pdl\cmsis/include/core_cm4.h ****   #ifndef __MPU_PRESENT
ARM GAS  C:\Users\Rolf\AppData\Local\Temp\cchK4Yuu.s 			page 12


 193:Generated_Source\PSoC6\pdl\cmsis/include/core_cm4.h ****     #define __MPU_PRESENT             0U
 194:Generated_Source\PSoC6\pdl\cmsis/include/core_cm4.h ****     #warning "__MPU_PRESENT not defined in device header file; using default!"
 195:Generated_Source\PSoC6\pdl\cmsis/include/core_cm4.h ****   #endif
 196:Generated_Source\PSoC6\pdl\cmsis/include/core_cm4.h **** 
 197:Generated_Source\PSoC6\pdl\cmsis/include/core_cm4.h ****   #ifndef __NVIC_PRIO_BITS
 198:Generated_Source\PSoC6\pdl\cmsis/include/core_cm4.h ****     #define __NVIC_PRIO_BITS          3U
 199:Generated_Source\PSoC6\pdl\cmsis/include/core_cm4.h ****     #warning "__NVIC_PRIO_BITS not defined in device header file; using default!"
 200:Generated_Source\PSoC6\pdl\cmsis/include/core_cm4.h ****   #endif
 201:Generated_Source\PSoC6\pdl\cmsis/include/core_cm4.h **** 
 202:Generated_Source\PSoC6\pdl\cmsis/include/core_cm4.h ****   #ifndef __Vendor_SysTickConfig
 203:Generated_Source\PSoC6\pdl\cmsis/include/core_cm4.h ****     #define __Vendor_SysTickConfig    0U
 204:Generated_Source\PSoC6\pdl\cmsis/include/core_cm4.h ****     #warning "__Vendor_SysTickConfig not defined in device header file; using default!"
 205:Generated_Source\PSoC6\pdl\cmsis/include/core_cm4.h ****   #endif
 206:Generated_Source\PSoC6\pdl\cmsis/include/core_cm4.h **** #endif
 207:Generated_Source\PSoC6\pdl\cmsis/include/core_cm4.h **** 
 208:Generated_Source\PSoC6\pdl\cmsis/include/core_cm4.h **** /* IO definitions (access restrictions to peripheral registers) */
 209:Generated_Source\PSoC6\pdl\cmsis/include/core_cm4.h **** /**
 210:Generated_Source\PSoC6\pdl\cmsis/include/core_cm4.h ****     \defgroup CMSIS_glob_defs CMSIS Global Defines
 211:Generated_Source\PSoC6\pdl\cmsis/include/core_cm4.h **** 
 212:Generated_Source\PSoC6\pdl\cmsis/include/core_cm4.h ****     <strong>IO Type Qualifiers</strong> are used
 213:Generated_Source\PSoC6\pdl\cmsis/include/core_cm4.h ****     \li to specify the access to peripheral variables.
 214:Generated_Source\PSoC6\pdl\cmsis/include/core_cm4.h ****     \li for automatic generation of peripheral register debug information.
 215:Generated_Source\PSoC6\pdl\cmsis/include/core_cm4.h **** */
 216:Generated_Source\PSoC6\pdl\cmsis/include/core_cm4.h **** #ifdef __cplusplus
 217:Generated_Source\PSoC6\pdl\cmsis/include/core_cm4.h ****   #define   __I     volatile             /*!< Defines 'read only' permissions */
 218:Generated_Source\PSoC6\pdl\cmsis/include/core_cm4.h **** #else
 219:Generated_Source\PSoC6\pdl\cmsis/include/core_cm4.h ****   #define   __I     volatile const       /*!< Defines 'read only' permissions */
 220:Generated_Source\PSoC6\pdl\cmsis/include/core_cm4.h **** #endif
 221:Generated_Source\PSoC6\pdl\cmsis/include/core_cm4.h **** #define     __O     volatile             /*!< Defines 'write only' permissions */
 222:Generated_Source\PSoC6\pdl\cmsis/include/core_cm4.h **** #define     __IO    volatile             /*!< Defines 'read / write' permissions */
 223:Generated_Source\PSoC6\pdl\cmsis/include/core_cm4.h **** 
 224:Generated_Source\PSoC6\pdl\cmsis/include/core_cm4.h **** /* following defines should be used for structure members */
 225:Generated_Source\PSoC6\pdl\cmsis/include/core_cm4.h **** #define     __IM     volatile const      /*! Defines 'read only' structure member permissions */
 226:Generated_Source\PSoC6\pdl\cmsis/include/core_cm4.h **** #define     __OM     volatile            /*! Defines 'write only' structure member permissions */
 227:Generated_Source\PSoC6\pdl\cmsis/include/core_cm4.h **** #define     __IOM    volatile            /*! Defines 'read / write' structure member permissions */
 228:Generated_Source\PSoC6\pdl\cmsis/include/core_cm4.h **** 
 229:Generated_Source\PSoC6\pdl\cmsis/include/core_cm4.h **** /*@} end of group Cortex_M4 */
 230:Generated_Source\PSoC6\pdl\cmsis/include/core_cm4.h **** 
 231:Generated_Source\PSoC6\pdl\cmsis/include/core_cm4.h **** 
 232:Generated_Source\PSoC6\pdl\cmsis/include/core_cm4.h **** 
 233:Generated_Source\PSoC6\pdl\cmsis/include/core_cm4.h **** /*******************************************************************************
 234:Generated_Source\PSoC6\pdl\cmsis/include/core_cm4.h ****  *                 Register Abstraction
 235:Generated_Source\PSoC6\pdl\cmsis/include/core_cm4.h ****   Core Register contain:
 236:Generated_Source\PSoC6\pdl\cmsis/include/core_cm4.h ****   - Core Register
 237:Generated_Source\PSoC6\pdl\cmsis/include/core_cm4.h ****   - Core NVIC Register
 238:Generated_Source\PSoC6\pdl\cmsis/include/core_cm4.h ****   - Core SCB Register
 239:Generated_Source\PSoC6\pdl\cmsis/include/core_cm4.h ****   - Core SysTick Register
 240:Generated_Source\PSoC6\pdl\cmsis/include/core_cm4.h ****   - Core Debug Register
 241:Generated_Source\PSoC6\pdl\cmsis/include/core_cm4.h ****   - Core MPU Register
 242:Generated_Source\PSoC6\pdl\cmsis/include/core_cm4.h ****   - Core FPU Register
 243:Generated_Source\PSoC6\pdl\cmsis/include/core_cm4.h ****  ******************************************************************************/
 244:Generated_Source\PSoC6\pdl\cmsis/include/core_cm4.h **** /**
 245:Generated_Source\PSoC6\pdl\cmsis/include/core_cm4.h ****   \defgroup CMSIS_core_register Defines and Type Definitions
 246:Generated_Source\PSoC6\pdl\cmsis/include/core_cm4.h ****   \brief Type definitions and defines for Cortex-M processor based devices.
 247:Generated_Source\PSoC6\pdl\cmsis/include/core_cm4.h **** */
 248:Generated_Source\PSoC6\pdl\cmsis/include/core_cm4.h **** 
 249:Generated_Source\PSoC6\pdl\cmsis/include/core_cm4.h **** /**
ARM GAS  C:\Users\Rolf\AppData\Local\Temp\cchK4Yuu.s 			page 13


 250:Generated_Source\PSoC6\pdl\cmsis/include/core_cm4.h ****   \ingroup    CMSIS_core_register
 251:Generated_Source\PSoC6\pdl\cmsis/include/core_cm4.h ****   \defgroup   CMSIS_CORE  Status and Control Registers
 252:Generated_Source\PSoC6\pdl\cmsis/include/core_cm4.h ****   \brief      Core Register type definitions.
 253:Generated_Source\PSoC6\pdl\cmsis/include/core_cm4.h ****   @{
 254:Generated_Source\PSoC6\pdl\cmsis/include/core_cm4.h ****  */
 255:Generated_Source\PSoC6\pdl\cmsis/include/core_cm4.h **** 
 256:Generated_Source\PSoC6\pdl\cmsis/include/core_cm4.h **** /**
 257:Generated_Source\PSoC6\pdl\cmsis/include/core_cm4.h ****   \brief  Union type to access the Application Program Status Register (APSR).
 258:Generated_Source\PSoC6\pdl\cmsis/include/core_cm4.h ****  */
 259:Generated_Source\PSoC6\pdl\cmsis/include/core_cm4.h **** typedef union
 260:Generated_Source\PSoC6\pdl\cmsis/include/core_cm4.h **** {
 261:Generated_Source\PSoC6\pdl\cmsis/include/core_cm4.h ****   struct
 262:Generated_Source\PSoC6\pdl\cmsis/include/core_cm4.h ****   {
 263:Generated_Source\PSoC6\pdl\cmsis/include/core_cm4.h ****     uint32_t _reserved0:16;              /*!< bit:  0..15  Reserved */
 264:Generated_Source\PSoC6\pdl\cmsis/include/core_cm4.h ****     uint32_t GE:4;                       /*!< bit: 16..19  Greater than or Equal flags */
 265:Generated_Source\PSoC6\pdl\cmsis/include/core_cm4.h ****     uint32_t _reserved1:7;               /*!< bit: 20..26  Reserved */
 266:Generated_Source\PSoC6\pdl\cmsis/include/core_cm4.h ****     uint32_t Q:1;                        /*!< bit:     27  Saturation condition flag */
 267:Generated_Source\PSoC6\pdl\cmsis/include/core_cm4.h ****     uint32_t V:1;                        /*!< bit:     28  Overflow condition code flag */
 268:Generated_Source\PSoC6\pdl\cmsis/include/core_cm4.h ****     uint32_t C:1;                        /*!< bit:     29  Carry condition code flag */
 269:Generated_Source\PSoC6\pdl\cmsis/include/core_cm4.h ****     uint32_t Z:1;                        /*!< bit:     30  Zero condition code flag */
 270:Generated_Source\PSoC6\pdl\cmsis/include/core_cm4.h ****     uint32_t N:1;                        /*!< bit:     31  Negative condition code flag */
 271:Generated_Source\PSoC6\pdl\cmsis/include/core_cm4.h ****   } b;                                   /*!< Structure used for bit  access */
 272:Generated_Source\PSoC6\pdl\cmsis/include/core_cm4.h ****   uint32_t w;                            /*!< Type      used for word access */
 273:Generated_Source\PSoC6\pdl\cmsis/include/core_cm4.h **** } APSR_Type;
 274:Generated_Source\PSoC6\pdl\cmsis/include/core_cm4.h **** 
 275:Generated_Source\PSoC6\pdl\cmsis/include/core_cm4.h **** /* APSR Register Definitions */
 276:Generated_Source\PSoC6\pdl\cmsis/include/core_cm4.h **** #define APSR_N_Pos                         31U                                            /*!< APSR
 277:Generated_Source\PSoC6\pdl\cmsis/include/core_cm4.h **** #define APSR_N_Msk                         (1UL << APSR_N_Pos)                            /*!< APSR
 278:Generated_Source\PSoC6\pdl\cmsis/include/core_cm4.h **** 
 279:Generated_Source\PSoC6\pdl\cmsis/include/core_cm4.h **** #define APSR_Z_Pos                         30U                                            /*!< APSR
 280:Generated_Source\PSoC6\pdl\cmsis/include/core_cm4.h **** #define APSR_Z_Msk                         (1UL << APSR_Z_Pos)                            /*!< APSR
 281:Generated_Source\PSoC6\pdl\cmsis/include/core_cm4.h **** 
 282:Generated_Source\PSoC6\pdl\cmsis/include/core_cm4.h **** #define APSR_C_Pos                         29U                                            /*!< APSR
 283:Generated_Source\PSoC6\pdl\cmsis/include/core_cm4.h **** #define APSR_C_Msk                         (1UL << APSR_C_Pos)                            /*!< APSR
 284:Generated_Source\PSoC6\pdl\cmsis/include/core_cm4.h **** 
 285:Generated_Source\PSoC6\pdl\cmsis/include/core_cm4.h **** #define APSR_V_Pos                         28U                                            /*!< APSR
 286:Generated_Source\PSoC6\pdl\cmsis/include/core_cm4.h **** #define APSR_V_Msk                         (1UL << APSR_V_Pos)                            /*!< APSR
 287:Generated_Source\PSoC6\pdl\cmsis/include/core_cm4.h **** 
 288:Generated_Source\PSoC6\pdl\cmsis/include/core_cm4.h **** #define APSR_Q_Pos                         27U                                            /*!< APSR
 289:Generated_Source\PSoC6\pdl\cmsis/include/core_cm4.h **** #define APSR_Q_Msk                         (1UL << APSR_Q_Pos)                            /*!< APSR
 290:Generated_Source\PSoC6\pdl\cmsis/include/core_cm4.h **** 
 291:Generated_Source\PSoC6\pdl\cmsis/include/core_cm4.h **** #define APSR_GE_Pos                        16U                                            /*!< APSR
 292:Generated_Source\PSoC6\pdl\cmsis/include/core_cm4.h **** #define APSR_GE_Msk                        (0xFUL << APSR_GE_Pos)                         /*!< APSR
 293:Generated_Source\PSoC6\pdl\cmsis/include/core_cm4.h **** 
 294:Generated_Source\PSoC6\pdl\cmsis/include/core_cm4.h **** 
 295:Generated_Source\PSoC6\pdl\cmsis/include/core_cm4.h **** /**
 296:Generated_Source\PSoC6\pdl\cmsis/include/core_cm4.h ****   \brief  Union type to access the Interrupt Program Status Register (IPSR).
 297:Generated_Source\PSoC6\pdl\cmsis/include/core_cm4.h ****  */
 298:Generated_Source\PSoC6\pdl\cmsis/include/core_cm4.h **** typedef union
 299:Generated_Source\PSoC6\pdl\cmsis/include/core_cm4.h **** {
 300:Generated_Source\PSoC6\pdl\cmsis/include/core_cm4.h ****   struct
 301:Generated_Source\PSoC6\pdl\cmsis/include/core_cm4.h ****   {
 302:Generated_Source\PSoC6\pdl\cmsis/include/core_cm4.h ****     uint32_t ISR:9;                      /*!< bit:  0.. 8  Exception number */
 303:Generated_Source\PSoC6\pdl\cmsis/include/core_cm4.h ****     uint32_t _reserved0:23;              /*!< bit:  9..31  Reserved */
 304:Generated_Source\PSoC6\pdl\cmsis/include/core_cm4.h ****   } b;                                   /*!< Structure used for bit  access */
 305:Generated_Source\PSoC6\pdl\cmsis/include/core_cm4.h ****   uint32_t w;                            /*!< Type      used for word access */
 306:Generated_Source\PSoC6\pdl\cmsis/include/core_cm4.h **** } IPSR_Type;
ARM GAS  C:\Users\Rolf\AppData\Local\Temp\cchK4Yuu.s 			page 14


 307:Generated_Source\PSoC6\pdl\cmsis/include/core_cm4.h **** 
 308:Generated_Source\PSoC6\pdl\cmsis/include/core_cm4.h **** /* IPSR Register Definitions */
 309:Generated_Source\PSoC6\pdl\cmsis/include/core_cm4.h **** #define IPSR_ISR_Pos                        0U                                            /*!< IPSR
 310:Generated_Source\PSoC6\pdl\cmsis/include/core_cm4.h **** #define IPSR_ISR_Msk                       (0x1FFUL /*<< IPSR_ISR_Pos*/)                  /*!< IPSR
 311:Generated_Source\PSoC6\pdl\cmsis/include/core_cm4.h **** 
 312:Generated_Source\PSoC6\pdl\cmsis/include/core_cm4.h **** 
 313:Generated_Source\PSoC6\pdl\cmsis/include/core_cm4.h **** /**
 314:Generated_Source\PSoC6\pdl\cmsis/include/core_cm4.h ****   \brief  Union type to access the Special-Purpose Program Status Registers (xPSR).
 315:Generated_Source\PSoC6\pdl\cmsis/include/core_cm4.h ****  */
 316:Generated_Source\PSoC6\pdl\cmsis/include/core_cm4.h **** typedef union
 317:Generated_Source\PSoC6\pdl\cmsis/include/core_cm4.h **** {
 318:Generated_Source\PSoC6\pdl\cmsis/include/core_cm4.h ****   struct
 319:Generated_Source\PSoC6\pdl\cmsis/include/core_cm4.h ****   {
 320:Generated_Source\PSoC6\pdl\cmsis/include/core_cm4.h ****     uint32_t ISR:9;                      /*!< bit:  0.. 8  Exception number */
 321:Generated_Source\PSoC6\pdl\cmsis/include/core_cm4.h ****     uint32_t _reserved0:1;               /*!< bit:      9  Reserved */
 322:Generated_Source\PSoC6\pdl\cmsis/include/core_cm4.h ****     uint32_t ICI_IT_1:6;                 /*!< bit: 10..15  ICI/IT part 1 */
 323:Generated_Source\PSoC6\pdl\cmsis/include/core_cm4.h ****     uint32_t GE:4;                       /*!< bit: 16..19  Greater than or Equal flags */
 324:Generated_Source\PSoC6\pdl\cmsis/include/core_cm4.h ****     uint32_t _reserved1:4;               /*!< bit: 20..23  Reserved */
 325:Generated_Source\PSoC6\pdl\cmsis/include/core_cm4.h ****     uint32_t T:1;                        /*!< bit:     24  Thumb bit */
 326:Generated_Source\PSoC6\pdl\cmsis/include/core_cm4.h ****     uint32_t ICI_IT_2:2;                 /*!< bit: 25..26  ICI/IT part 2 */
 327:Generated_Source\PSoC6\pdl\cmsis/include/core_cm4.h ****     uint32_t Q:1;                        /*!< bit:     27  Saturation condition flag */
 328:Generated_Source\PSoC6\pdl\cmsis/include/core_cm4.h ****     uint32_t V:1;                        /*!< bit:     28  Overflow condition code flag */
 329:Generated_Source\PSoC6\pdl\cmsis/include/core_cm4.h ****     uint32_t C:1;                        /*!< bit:     29  Carry condition code flag */
 330:Generated_Source\PSoC6\pdl\cmsis/include/core_cm4.h ****     uint32_t Z:1;                        /*!< bit:     30  Zero condition code flag */
 331:Generated_Source\PSoC6\pdl\cmsis/include/core_cm4.h ****     uint32_t N:1;                        /*!< bit:     31  Negative condition code flag */
 332:Generated_Source\PSoC6\pdl\cmsis/include/core_cm4.h ****   } b;                                   /*!< Structure used for bit  access */
 333:Generated_Source\PSoC6\pdl\cmsis/include/core_cm4.h ****   uint32_t w;                            /*!< Type      used for word access */
 334:Generated_Source\PSoC6\pdl\cmsis/include/core_cm4.h **** } xPSR_Type;
 335:Generated_Source\PSoC6\pdl\cmsis/include/core_cm4.h **** 
 336:Generated_Source\PSoC6\pdl\cmsis/include/core_cm4.h **** /* xPSR Register Definitions */
 337:Generated_Source\PSoC6\pdl\cmsis/include/core_cm4.h **** #define xPSR_N_Pos                         31U                                            /*!< xPSR
 338:Generated_Source\PSoC6\pdl\cmsis/include/core_cm4.h **** #define xPSR_N_Msk                         (1UL << xPSR_N_Pos)                            /*!< xPSR
 339:Generated_Source\PSoC6\pdl\cmsis/include/core_cm4.h **** 
 340:Generated_Source\PSoC6\pdl\cmsis/include/core_cm4.h **** #define xPSR_Z_Pos                         30U                                            /*!< xPSR
 341:Generated_Source\PSoC6\pdl\cmsis/include/core_cm4.h **** #define xPSR_Z_Msk                         (1UL << xPSR_Z_Pos)                            /*!< xPSR
 342:Generated_Source\PSoC6\pdl\cmsis/include/core_cm4.h **** 
 343:Generated_Source\PSoC6\pdl\cmsis/include/core_cm4.h **** #define xPSR_C_Pos                         29U                                            /*!< xPSR
 344:Generated_Source\PSoC6\pdl\cmsis/include/core_cm4.h **** #define xPSR_C_Msk                         (1UL << xPSR_C_Pos)                            /*!< xPSR
 345:Generated_Source\PSoC6\pdl\cmsis/include/core_cm4.h **** 
 346:Generated_Source\PSoC6\pdl\cmsis/include/core_cm4.h **** #define xPSR_V_Pos                         28U                                            /*!< xPSR
 347:Generated_Source\PSoC6\pdl\cmsis/include/core_cm4.h **** #define xPSR_V_Msk                         (1UL << xPSR_V_Pos)                            /*!< xPSR
 348:Generated_Source\PSoC6\pdl\cmsis/include/core_cm4.h **** 
 349:Generated_Source\PSoC6\pdl\cmsis/include/core_cm4.h **** #define xPSR_Q_Pos                         27U                                            /*!< xPSR
 350:Generated_Source\PSoC6\pdl\cmsis/include/core_cm4.h **** #define xPSR_Q_Msk                         (1UL << xPSR_Q_Pos)                            /*!< xPSR
 351:Generated_Source\PSoC6\pdl\cmsis/include/core_cm4.h **** 
 352:Generated_Source\PSoC6\pdl\cmsis/include/core_cm4.h **** #define xPSR_ICI_IT_2_Pos                  25U                                            /*!< xPSR
 353:Generated_Source\PSoC6\pdl\cmsis/include/core_cm4.h **** #define xPSR_ICI_IT_2_Msk                  (3UL << xPSR_ICI_IT_2_Pos)                     /*!< xPSR
 354:Generated_Source\PSoC6\pdl\cmsis/include/core_cm4.h **** 
 355:Generated_Source\PSoC6\pdl\cmsis/include/core_cm4.h **** #define xPSR_T_Pos                         24U                                            /*!< xPSR
 356:Generated_Source\PSoC6\pdl\cmsis/include/core_cm4.h **** #define xPSR_T_Msk                         (1UL << xPSR_T_Pos)                            /*!< xPSR
 357:Generated_Source\PSoC6\pdl\cmsis/include/core_cm4.h **** 
 358:Generated_Source\PSoC6\pdl\cmsis/include/core_cm4.h **** #define xPSR_GE_Pos                        16U                                            /*!< xPSR
 359:Generated_Source\PSoC6\pdl\cmsis/include/core_cm4.h **** #define xPSR_GE_Msk                        (0xFUL << xPSR_GE_Pos)                         /*!< xPSR
 360:Generated_Source\PSoC6\pdl\cmsis/include/core_cm4.h **** 
 361:Generated_Source\PSoC6\pdl\cmsis/include/core_cm4.h **** #define xPSR_ICI_IT_1_Pos                  10U                                            /*!< xPSR
 362:Generated_Source\PSoC6\pdl\cmsis/include/core_cm4.h **** #define xPSR_ICI_IT_1_Msk                  (0x3FUL << xPSR_ICI_IT_1_Pos)                  /*!< xPSR
 363:Generated_Source\PSoC6\pdl\cmsis/include/core_cm4.h **** 
ARM GAS  C:\Users\Rolf\AppData\Local\Temp\cchK4Yuu.s 			page 15


 364:Generated_Source\PSoC6\pdl\cmsis/include/core_cm4.h **** #define xPSR_ISR_Pos                        0U                                            /*!< xPSR
 365:Generated_Source\PSoC6\pdl\cmsis/include/core_cm4.h **** #define xPSR_ISR_Msk                       (0x1FFUL /*<< xPSR_ISR_Pos*/)                  /*!< xPSR
 366:Generated_Source\PSoC6\pdl\cmsis/include/core_cm4.h **** 
 367:Generated_Source\PSoC6\pdl\cmsis/include/core_cm4.h **** 
 368:Generated_Source\PSoC6\pdl\cmsis/include/core_cm4.h **** /**
 369:Generated_Source\PSoC6\pdl\cmsis/include/core_cm4.h ****   \brief  Union type to access the Control Registers (CONTROL).
 370:Generated_Source\PSoC6\pdl\cmsis/include/core_cm4.h ****  */
 371:Generated_Source\PSoC6\pdl\cmsis/include/core_cm4.h **** typedef union
 372:Generated_Source\PSoC6\pdl\cmsis/include/core_cm4.h **** {
 373:Generated_Source\PSoC6\pdl\cmsis/include/core_cm4.h ****   struct
 374:Generated_Source\PSoC6\pdl\cmsis/include/core_cm4.h ****   {
 375:Generated_Source\PSoC6\pdl\cmsis/include/core_cm4.h ****     uint32_t nPRIV:1;                    /*!< bit:      0  Execution privilege in Thread mode */
 376:Generated_Source\PSoC6\pdl\cmsis/include/core_cm4.h ****     uint32_t SPSEL:1;                    /*!< bit:      1  Stack to be used */
 377:Generated_Source\PSoC6\pdl\cmsis/include/core_cm4.h ****     uint32_t FPCA:1;                     /*!< bit:      2  FP extension active flag */
 378:Generated_Source\PSoC6\pdl\cmsis/include/core_cm4.h ****     uint32_t _reserved0:29;              /*!< bit:  3..31  Reserved */
 379:Generated_Source\PSoC6\pdl\cmsis/include/core_cm4.h ****   } b;                                   /*!< Structure used for bit  access */
 380:Generated_Source\PSoC6\pdl\cmsis/include/core_cm4.h ****   uint32_t w;                            /*!< Type      used for word access */
 381:Generated_Source\PSoC6\pdl\cmsis/include/core_cm4.h **** } CONTROL_Type;
 382:Generated_Source\PSoC6\pdl\cmsis/include/core_cm4.h **** 
 383:Generated_Source\PSoC6\pdl\cmsis/include/core_cm4.h **** /* CONTROL Register Definitions */
 384:Generated_Source\PSoC6\pdl\cmsis/include/core_cm4.h **** #define CONTROL_FPCA_Pos                    2U                                            /*!< CONT
 385:Generated_Source\PSoC6\pdl\cmsis/include/core_cm4.h **** #define CONTROL_FPCA_Msk                   (1UL << CONTROL_FPCA_Pos)                      /*!< CONT
 386:Generated_Source\PSoC6\pdl\cmsis/include/core_cm4.h **** 
 387:Generated_Source\PSoC6\pdl\cmsis/include/core_cm4.h **** #define CONTROL_SPSEL_Pos                   1U                                            /*!< CONT
 388:Generated_Source\PSoC6\pdl\cmsis/include/core_cm4.h **** #define CONTROL_SPSEL_Msk                  (1UL << CONTROL_SPSEL_Pos)                     /*!< CONT
 389:Generated_Source\PSoC6\pdl\cmsis/include/core_cm4.h **** 
 390:Generated_Source\PSoC6\pdl\cmsis/include/core_cm4.h **** #define CONTROL_nPRIV_Pos                   0U                                            /*!< CONT
 391:Generated_Source\PSoC6\pdl\cmsis/include/core_cm4.h **** #define CONTROL_nPRIV_Msk                  (1UL /*<< CONTROL_nPRIV_Pos*/)                 /*!< CONT
 392:Generated_Source\PSoC6\pdl\cmsis/include/core_cm4.h **** 
 393:Generated_Source\PSoC6\pdl\cmsis/include/core_cm4.h **** /*@} end of group CMSIS_CORE */
 394:Generated_Source\PSoC6\pdl\cmsis/include/core_cm4.h **** 
 395:Generated_Source\PSoC6\pdl\cmsis/include/core_cm4.h **** 
 396:Generated_Source\PSoC6\pdl\cmsis/include/core_cm4.h **** /**
 397:Generated_Source\PSoC6\pdl\cmsis/include/core_cm4.h ****   \ingroup    CMSIS_core_register
 398:Generated_Source\PSoC6\pdl\cmsis/include/core_cm4.h ****   \defgroup   CMSIS_NVIC  Nested Vectored Interrupt Controller (NVIC)
 399:Generated_Source\PSoC6\pdl\cmsis/include/core_cm4.h ****   \brief      Type definitions for the NVIC Registers
 400:Generated_Source\PSoC6\pdl\cmsis/include/core_cm4.h ****   @{
 401:Generated_Source\PSoC6\pdl\cmsis/include/core_cm4.h ****  */
 402:Generated_Source\PSoC6\pdl\cmsis/include/core_cm4.h **** 
 403:Generated_Source\PSoC6\pdl\cmsis/include/core_cm4.h **** /**
 404:Generated_Source\PSoC6\pdl\cmsis/include/core_cm4.h ****   \brief  Structure type to access the Nested Vectored Interrupt Controller (NVIC).
 405:Generated_Source\PSoC6\pdl\cmsis/include/core_cm4.h ****  */
 406:Generated_Source\PSoC6\pdl\cmsis/include/core_cm4.h **** typedef struct
 407:Generated_Source\PSoC6\pdl\cmsis/include/core_cm4.h **** {
 408:Generated_Source\PSoC6\pdl\cmsis/include/core_cm4.h ****   __IOM uint32_t ISER[8U];               /*!< Offset: 0x000 (R/W)  Interrupt Set Enable Register */
 409:Generated_Source\PSoC6\pdl\cmsis/include/core_cm4.h ****         uint32_t RESERVED0[24U];
 410:Generated_Source\PSoC6\pdl\cmsis/include/core_cm4.h ****   __IOM uint32_t ICER[8U];               /*!< Offset: 0x080 (R/W)  Interrupt Clear Enable Register 
 411:Generated_Source\PSoC6\pdl\cmsis/include/core_cm4.h ****         uint32_t RSERVED1[24U];
 412:Generated_Source\PSoC6\pdl\cmsis/include/core_cm4.h ****   __IOM uint32_t ISPR[8U];               /*!< Offset: 0x100 (R/W)  Interrupt Set Pending Register *
 413:Generated_Source\PSoC6\pdl\cmsis/include/core_cm4.h ****         uint32_t RESERVED2[24U];
 414:Generated_Source\PSoC6\pdl\cmsis/include/core_cm4.h ****   __IOM uint32_t ICPR[8U];               /*!< Offset: 0x180 (R/W)  Interrupt Clear Pending Register
 415:Generated_Source\PSoC6\pdl\cmsis/include/core_cm4.h ****         uint32_t RESERVED3[24U];
 416:Generated_Source\PSoC6\pdl\cmsis/include/core_cm4.h ****   __IOM uint32_t IABR[8U];               /*!< Offset: 0x200 (R/W)  Interrupt Active bit Register */
 417:Generated_Source\PSoC6\pdl\cmsis/include/core_cm4.h ****         uint32_t RESERVED4[56U];
 418:Generated_Source\PSoC6\pdl\cmsis/include/core_cm4.h ****   __IOM uint8_t  IP[240U];               /*!< Offset: 0x300 (R/W)  Interrupt Priority Register (8Bi
 419:Generated_Source\PSoC6\pdl\cmsis/include/core_cm4.h ****         uint32_t RESERVED5[644U];
 420:Generated_Source\PSoC6\pdl\cmsis/include/core_cm4.h ****   __OM  uint32_t STIR;                   /*!< Offset: 0xE00 ( /W)  Software Trigger Interrupt Regis
ARM GAS  C:\Users\Rolf\AppData\Local\Temp\cchK4Yuu.s 			page 16


 421:Generated_Source\PSoC6\pdl\cmsis/include/core_cm4.h **** }  NVIC_Type;
 422:Generated_Source\PSoC6\pdl\cmsis/include/core_cm4.h **** 
 423:Generated_Source\PSoC6\pdl\cmsis/include/core_cm4.h **** /* Software Triggered Interrupt Register Definitions */
 424:Generated_Source\PSoC6\pdl\cmsis/include/core_cm4.h **** #define NVIC_STIR_INTID_Pos                 0U                                         /*!< STIR: I
 425:Generated_Source\PSoC6\pdl\cmsis/include/core_cm4.h **** #define NVIC_STIR_INTID_Msk                (0x1FFUL /*<< NVIC_STIR_INTID_Pos*/)        /*!< STIR: I
 426:Generated_Source\PSoC6\pdl\cmsis/include/core_cm4.h **** 
 427:Generated_Source\PSoC6\pdl\cmsis/include/core_cm4.h **** /*@} end of group CMSIS_NVIC */
 428:Generated_Source\PSoC6\pdl\cmsis/include/core_cm4.h **** 
 429:Generated_Source\PSoC6\pdl\cmsis/include/core_cm4.h **** 
 430:Generated_Source\PSoC6\pdl\cmsis/include/core_cm4.h **** /**
 431:Generated_Source\PSoC6\pdl\cmsis/include/core_cm4.h ****   \ingroup  CMSIS_core_register
 432:Generated_Source\PSoC6\pdl\cmsis/include/core_cm4.h ****   \defgroup CMSIS_SCB     System Control Block (SCB)
 433:Generated_Source\PSoC6\pdl\cmsis/include/core_cm4.h ****   \brief    Type definitions for the System Control Block Registers
 434:Generated_Source\PSoC6\pdl\cmsis/include/core_cm4.h ****   @{
 435:Generated_Source\PSoC6\pdl\cmsis/include/core_cm4.h ****  */
 436:Generated_Source\PSoC6\pdl\cmsis/include/core_cm4.h **** 
 437:Generated_Source\PSoC6\pdl\cmsis/include/core_cm4.h **** /**
 438:Generated_Source\PSoC6\pdl\cmsis/include/core_cm4.h ****   \brief  Structure type to access the System Control Block (SCB).
 439:Generated_Source\PSoC6\pdl\cmsis/include/core_cm4.h ****  */
 440:Generated_Source\PSoC6\pdl\cmsis/include/core_cm4.h **** typedef struct
 441:Generated_Source\PSoC6\pdl\cmsis/include/core_cm4.h **** {
 442:Generated_Source\PSoC6\pdl\cmsis/include/core_cm4.h ****   __IM  uint32_t CPUID;                  /*!< Offset: 0x000 (R/ )  CPUID Base Register */
 443:Generated_Source\PSoC6\pdl\cmsis/include/core_cm4.h ****   __IOM uint32_t ICSR;                   /*!< Offset: 0x004 (R/W)  Interrupt Control and State Regi
 444:Generated_Source\PSoC6\pdl\cmsis/include/core_cm4.h ****   __IOM uint32_t VTOR;                   /*!< Offset: 0x008 (R/W)  Vector Table Offset Register */
 445:Generated_Source\PSoC6\pdl\cmsis/include/core_cm4.h ****   __IOM uint32_t AIRCR;                  /*!< Offset: 0x00C (R/W)  Application Interrupt and Reset 
 446:Generated_Source\PSoC6\pdl\cmsis/include/core_cm4.h ****   __IOM uint32_t SCR;                    /*!< Offset: 0x010 (R/W)  System Control Register */
 447:Generated_Source\PSoC6\pdl\cmsis/include/core_cm4.h ****   __IOM uint32_t CCR;                    /*!< Offset: 0x014 (R/W)  Configuration Control Register *
 448:Generated_Source\PSoC6\pdl\cmsis/include/core_cm4.h ****   __IOM uint8_t  SHP[12U];               /*!< Offset: 0x018 (R/W)  System Handlers Priority Registe
 449:Generated_Source\PSoC6\pdl\cmsis/include/core_cm4.h ****   __IOM uint32_t SHCSR;                  /*!< Offset: 0x024 (R/W)  System Handler Control and State
 450:Generated_Source\PSoC6\pdl\cmsis/include/core_cm4.h ****   __IOM uint32_t CFSR;                   /*!< Offset: 0x028 (R/W)  Configurable Fault Status Regist
 451:Generated_Source\PSoC6\pdl\cmsis/include/core_cm4.h ****   __IOM uint32_t HFSR;                   /*!< Offset: 0x02C (R/W)  HardFault Status Register */
 452:Generated_Source\PSoC6\pdl\cmsis/include/core_cm4.h ****   __IOM uint32_t DFSR;                   /*!< Offset: 0x030 (R/W)  Debug Fault Status Register */
 453:Generated_Source\PSoC6\pdl\cmsis/include/core_cm4.h ****   __IOM uint32_t MMFAR;                  /*!< Offset: 0x034 (R/W)  MemManage Fault Address Register
 454:Generated_Source\PSoC6\pdl\cmsis/include/core_cm4.h ****   __IOM uint32_t BFAR;                   /*!< Offset: 0x038 (R/W)  BusFault Address Register */
 455:Generated_Source\PSoC6\pdl\cmsis/include/core_cm4.h ****   __IOM uint32_t AFSR;                   /*!< Offset: 0x03C (R/W)  Auxiliary Fault Status Register 
 456:Generated_Source\PSoC6\pdl\cmsis/include/core_cm4.h ****   __IM  uint32_t PFR[2U];                /*!< Offset: 0x040 (R/ )  Processor Feature Register */
 457:Generated_Source\PSoC6\pdl\cmsis/include/core_cm4.h ****   __IM  uint32_t DFR;                    /*!< Offset: 0x048 (R/ )  Debug Feature Register */
 458:Generated_Source\PSoC6\pdl\cmsis/include/core_cm4.h ****   __IM  uint32_t ADR;                    /*!< Offset: 0x04C (R/ )  Auxiliary Feature Register */
 459:Generated_Source\PSoC6\pdl\cmsis/include/core_cm4.h ****   __IM  uint32_t MMFR[4U];               /*!< Offset: 0x050 (R/ )  Memory Model Feature Register */
 460:Generated_Source\PSoC6\pdl\cmsis/include/core_cm4.h ****   __IM  uint32_t ISAR[5U];               /*!< Offset: 0x060 (R/ )  Instruction Set Attributes Regis
 461:Generated_Source\PSoC6\pdl\cmsis/include/core_cm4.h ****         uint32_t RESERVED0[5U];
 462:Generated_Source\PSoC6\pdl\cmsis/include/core_cm4.h ****   __IOM uint32_t CPACR;                  /*!< Offset: 0x088 (R/W)  Coprocessor Access Control Regis
 463:Generated_Source\PSoC6\pdl\cmsis/include/core_cm4.h **** } SCB_Type;
 464:Generated_Source\PSoC6\pdl\cmsis/include/core_cm4.h **** 
 465:Generated_Source\PSoC6\pdl\cmsis/include/core_cm4.h **** /* SCB CPUID Register Definitions */
 466:Generated_Source\PSoC6\pdl\cmsis/include/core_cm4.h **** #define SCB_CPUID_IMPLEMENTER_Pos          24U                                            /*!< SCB 
 467:Generated_Source\PSoC6\pdl\cmsis/include/core_cm4.h **** #define SCB_CPUID_IMPLEMENTER_Msk          (0xFFUL << SCB_CPUID_IMPLEMENTER_Pos)          /*!< SCB 
 468:Generated_Source\PSoC6\pdl\cmsis/include/core_cm4.h **** 
 469:Generated_Source\PSoC6\pdl\cmsis/include/core_cm4.h **** #define SCB_CPUID_VARIANT_Pos              20U                                            /*!< SCB 
 470:Generated_Source\PSoC6\pdl\cmsis/include/core_cm4.h **** #define SCB_CPUID_VARIANT_Msk              (0xFUL << SCB_CPUID_VARIANT_Pos)               /*!< SCB 
 471:Generated_Source\PSoC6\pdl\cmsis/include/core_cm4.h **** 
 472:Generated_Source\PSoC6\pdl\cmsis/include/core_cm4.h **** #define SCB_CPUID_ARCHITECTURE_Pos         16U                                            /*!< SCB 
 473:Generated_Source\PSoC6\pdl\cmsis/include/core_cm4.h **** #define SCB_CPUID_ARCHITECTURE_Msk         (0xFUL << SCB_CPUID_ARCHITECTURE_Pos)          /*!< SCB 
 474:Generated_Source\PSoC6\pdl\cmsis/include/core_cm4.h **** 
 475:Generated_Source\PSoC6\pdl\cmsis/include/core_cm4.h **** #define SCB_CPUID_PARTNO_Pos                4U                                            /*!< SCB 
 476:Generated_Source\PSoC6\pdl\cmsis/include/core_cm4.h **** #define SCB_CPUID_PARTNO_Msk               (0xFFFUL << SCB_CPUID_PARTNO_Pos)              /*!< SCB 
 477:Generated_Source\PSoC6\pdl\cmsis/include/core_cm4.h **** 
ARM GAS  C:\Users\Rolf\AppData\Local\Temp\cchK4Yuu.s 			page 17


 478:Generated_Source\PSoC6\pdl\cmsis/include/core_cm4.h **** #define SCB_CPUID_REVISION_Pos              0U                                            /*!< SCB 
 479:Generated_Source\PSoC6\pdl\cmsis/include/core_cm4.h **** #define SCB_CPUID_REVISION_Msk             (0xFUL /*<< SCB_CPUID_REVISION_Pos*/)          /*!< SCB 
 480:Generated_Source\PSoC6\pdl\cmsis/include/core_cm4.h **** 
 481:Generated_Source\PSoC6\pdl\cmsis/include/core_cm4.h **** /* SCB Interrupt Control State Register Definitions */
 482:Generated_Source\PSoC6\pdl\cmsis/include/core_cm4.h **** #define SCB_ICSR_NMIPENDSET_Pos            31U                                            /*!< SCB 
 483:Generated_Source\PSoC6\pdl\cmsis/include/core_cm4.h **** #define SCB_ICSR_NMIPENDSET_Msk            (1UL << SCB_ICSR_NMIPENDSET_Pos)               /*!< SCB 
 484:Generated_Source\PSoC6\pdl\cmsis/include/core_cm4.h **** 
 485:Generated_Source\PSoC6\pdl\cmsis/include/core_cm4.h **** #define SCB_ICSR_PENDSVSET_Pos             28U                                            /*!< SCB 
 486:Generated_Source\PSoC6\pdl\cmsis/include/core_cm4.h **** #define SCB_ICSR_PENDSVSET_Msk             (1UL << SCB_ICSR_PENDSVSET_Pos)                /*!< SCB 
 487:Generated_Source\PSoC6\pdl\cmsis/include/core_cm4.h **** 
 488:Generated_Source\PSoC6\pdl\cmsis/include/core_cm4.h **** #define SCB_ICSR_PENDSVCLR_Pos             27U                                            /*!< SCB 
 489:Generated_Source\PSoC6\pdl\cmsis/include/core_cm4.h **** #define SCB_ICSR_PENDSVCLR_Msk             (1UL << SCB_ICSR_PENDSVCLR_Pos)                /*!< SCB 
 490:Generated_Source\PSoC6\pdl\cmsis/include/core_cm4.h **** 
 491:Generated_Source\PSoC6\pdl\cmsis/include/core_cm4.h **** #define SCB_ICSR_PENDSTSET_Pos             26U                                            /*!< SCB 
 492:Generated_Source\PSoC6\pdl\cmsis/include/core_cm4.h **** #define SCB_ICSR_PENDSTSET_Msk             (1UL << SCB_ICSR_PENDSTSET_Pos)                /*!< SCB 
 493:Generated_Source\PSoC6\pdl\cmsis/include/core_cm4.h **** 
 494:Generated_Source\PSoC6\pdl\cmsis/include/core_cm4.h **** #define SCB_ICSR_PENDSTCLR_Pos             25U                                            /*!< SCB 
 495:Generated_Source\PSoC6\pdl\cmsis/include/core_cm4.h **** #define SCB_ICSR_PENDSTCLR_Msk             (1UL << SCB_ICSR_PENDSTCLR_Pos)                /*!< SCB 
 496:Generated_Source\PSoC6\pdl\cmsis/include/core_cm4.h **** 
 497:Generated_Source\PSoC6\pdl\cmsis/include/core_cm4.h **** #define SCB_ICSR_ISRPREEMPT_Pos            23U                                            /*!< SCB 
 498:Generated_Source\PSoC6\pdl\cmsis/include/core_cm4.h **** #define SCB_ICSR_ISRPREEMPT_Msk            (1UL << SCB_ICSR_ISRPREEMPT_Pos)               /*!< SCB 
 499:Generated_Source\PSoC6\pdl\cmsis/include/core_cm4.h **** 
 500:Generated_Source\PSoC6\pdl\cmsis/include/core_cm4.h **** #define SCB_ICSR_ISRPENDING_Pos            22U                                            /*!< SCB 
 501:Generated_Source\PSoC6\pdl\cmsis/include/core_cm4.h **** #define SCB_ICSR_ISRPENDING_Msk            (1UL << SCB_ICSR_ISRPENDING_Pos)               /*!< SCB 
 502:Generated_Source\PSoC6\pdl\cmsis/include/core_cm4.h **** 
 503:Generated_Source\PSoC6\pdl\cmsis/include/core_cm4.h **** #define SCB_ICSR_VECTPENDING_Pos           12U                                            /*!< SCB 
 504:Generated_Source\PSoC6\pdl\cmsis/include/core_cm4.h **** #define SCB_ICSR_VECTPENDING_Msk           (0x1FFUL << SCB_ICSR_VECTPENDING_Pos)          /*!< SCB 
 505:Generated_Source\PSoC6\pdl\cmsis/include/core_cm4.h **** 
 506:Generated_Source\PSoC6\pdl\cmsis/include/core_cm4.h **** #define SCB_ICSR_RETTOBASE_Pos             11U                                            /*!< SCB 
 507:Generated_Source\PSoC6\pdl\cmsis/include/core_cm4.h **** #define SCB_ICSR_RETTOBASE_Msk             (1UL << SCB_ICSR_RETTOBASE_Pos)                /*!< SCB 
 508:Generated_Source\PSoC6\pdl\cmsis/include/core_cm4.h **** 
 509:Generated_Source\PSoC6\pdl\cmsis/include/core_cm4.h **** #define SCB_ICSR_VECTACTIVE_Pos             0U                                            /*!< SCB 
 510:Generated_Source\PSoC6\pdl\cmsis/include/core_cm4.h **** #define SCB_ICSR_VECTACTIVE_Msk            (0x1FFUL /*<< SCB_ICSR_VECTACTIVE_Pos*/)       /*!< SCB 
 511:Generated_Source\PSoC6\pdl\cmsis/include/core_cm4.h **** 
 512:Generated_Source\PSoC6\pdl\cmsis/include/core_cm4.h **** /* SCB Vector Table Offset Register Definitions */
 513:Generated_Source\PSoC6\pdl\cmsis/include/core_cm4.h **** #define SCB_VTOR_TBLOFF_Pos                 7U                                            /*!< SCB 
 514:Generated_Source\PSoC6\pdl\cmsis/include/core_cm4.h **** #define SCB_VTOR_TBLOFF_Msk                (0x1FFFFFFUL << SCB_VTOR_TBLOFF_Pos)           /*!< SCB 
 515:Generated_Source\PSoC6\pdl\cmsis/include/core_cm4.h **** 
 516:Generated_Source\PSoC6\pdl\cmsis/include/core_cm4.h **** /* SCB Application Interrupt and Reset Control Register Definitions */
 517:Generated_Source\PSoC6\pdl\cmsis/include/core_cm4.h **** #define SCB_AIRCR_VECTKEY_Pos              16U                                            /*!< SCB 
 518:Generated_Source\PSoC6\pdl\cmsis/include/core_cm4.h **** #define SCB_AIRCR_VECTKEY_Msk              (0xFFFFUL << SCB_AIRCR_VECTKEY_Pos)            /*!< SCB 
 519:Generated_Source\PSoC6\pdl\cmsis/include/core_cm4.h **** 
 520:Generated_Source\PSoC6\pdl\cmsis/include/core_cm4.h **** #define SCB_AIRCR_VECTKEYSTAT_Pos          16U                                            /*!< SCB 
 521:Generated_Source\PSoC6\pdl\cmsis/include/core_cm4.h **** #define SCB_AIRCR_VECTKEYSTAT_Msk          (0xFFFFUL << SCB_AIRCR_VECTKEYSTAT_Pos)        /*!< SCB 
 522:Generated_Source\PSoC6\pdl\cmsis/include/core_cm4.h **** 
 523:Generated_Source\PSoC6\pdl\cmsis/include/core_cm4.h **** #define SCB_AIRCR_ENDIANESS_Pos            15U                                            /*!< SCB 
 524:Generated_Source\PSoC6\pdl\cmsis/include/core_cm4.h **** #define SCB_AIRCR_ENDIANESS_Msk            (1UL << SCB_AIRCR_ENDIANESS_Pos)               /*!< SCB 
 525:Generated_Source\PSoC6\pdl\cmsis/include/core_cm4.h **** 
 526:Generated_Source\PSoC6\pdl\cmsis/include/core_cm4.h **** #define SCB_AIRCR_PRIGROUP_Pos              8U                                            /*!< SCB 
 527:Generated_Source\PSoC6\pdl\cmsis/include/core_cm4.h **** #define SCB_AIRCR_PRIGROUP_Msk             (7UL << SCB_AIRCR_PRIGROUP_Pos)                /*!< SCB 
 528:Generated_Source\PSoC6\pdl\cmsis/include/core_cm4.h **** 
 529:Generated_Source\PSoC6\pdl\cmsis/include/core_cm4.h **** #define SCB_AIRCR_SYSRESETREQ_Pos           2U                                            /*!< SCB 
 530:Generated_Source\PSoC6\pdl\cmsis/include/core_cm4.h **** #define SCB_AIRCR_SYSRESETREQ_Msk          (1UL << SCB_AIRCR_SYSRESETREQ_Pos)             /*!< SCB 
 531:Generated_Source\PSoC6\pdl\cmsis/include/core_cm4.h **** 
 532:Generated_Source\PSoC6\pdl\cmsis/include/core_cm4.h **** #define SCB_AIRCR_VECTCLRACTIVE_Pos         1U                                            /*!< SCB 
 533:Generated_Source\PSoC6\pdl\cmsis/include/core_cm4.h **** #define SCB_AIRCR_VECTCLRACTIVE_Msk        (1UL << SCB_AIRCR_VECTCLRACTIVE_Pos)           /*!< SCB 
 534:Generated_Source\PSoC6\pdl\cmsis/include/core_cm4.h **** 
ARM GAS  C:\Users\Rolf\AppData\Local\Temp\cchK4Yuu.s 			page 18


 535:Generated_Source\PSoC6\pdl\cmsis/include/core_cm4.h **** #define SCB_AIRCR_VECTRESET_Pos             0U                                            /*!< SCB 
 536:Generated_Source\PSoC6\pdl\cmsis/include/core_cm4.h **** #define SCB_AIRCR_VECTRESET_Msk            (1UL /*<< SCB_AIRCR_VECTRESET_Pos*/)           /*!< SCB 
 537:Generated_Source\PSoC6\pdl\cmsis/include/core_cm4.h **** 
 538:Generated_Source\PSoC6\pdl\cmsis/include/core_cm4.h **** /* SCB System Control Register Definitions */
 539:Generated_Source\PSoC6\pdl\cmsis/include/core_cm4.h **** #define SCB_SCR_SEVONPEND_Pos               4U                                            /*!< SCB 
 540:Generated_Source\PSoC6\pdl\cmsis/include/core_cm4.h **** #define SCB_SCR_SEVONPEND_Msk              (1UL << SCB_SCR_SEVONPEND_Pos)                 /*!< SCB 
 541:Generated_Source\PSoC6\pdl\cmsis/include/core_cm4.h **** 
 542:Generated_Source\PSoC6\pdl\cmsis/include/core_cm4.h **** #define SCB_SCR_SLEEPDEEP_Pos               2U                                            /*!< SCB 
 543:Generated_Source\PSoC6\pdl\cmsis/include/core_cm4.h **** #define SCB_SCR_SLEEPDEEP_Msk              (1UL << SCB_SCR_SLEEPDEEP_Pos)                 /*!< SCB 
 544:Generated_Source\PSoC6\pdl\cmsis/include/core_cm4.h **** 
 545:Generated_Source\PSoC6\pdl\cmsis/include/core_cm4.h **** #define SCB_SCR_SLEEPONEXIT_Pos             1U                                            /*!< SCB 
 546:Generated_Source\PSoC6\pdl\cmsis/include/core_cm4.h **** #define SCB_SCR_SLEEPONEXIT_Msk            (1UL << SCB_SCR_SLEEPONEXIT_Pos)               /*!< SCB 
 547:Generated_Source\PSoC6\pdl\cmsis/include/core_cm4.h **** 
 548:Generated_Source\PSoC6\pdl\cmsis/include/core_cm4.h **** /* SCB Configuration Control Register Definitions */
 549:Generated_Source\PSoC6\pdl\cmsis/include/core_cm4.h **** #define SCB_CCR_STKALIGN_Pos                9U                                            /*!< SCB 
 550:Generated_Source\PSoC6\pdl\cmsis/include/core_cm4.h **** #define SCB_CCR_STKALIGN_Msk               (1UL << SCB_CCR_STKALIGN_Pos)                  /*!< SCB 
 551:Generated_Source\PSoC6\pdl\cmsis/include/core_cm4.h **** 
 552:Generated_Source\PSoC6\pdl\cmsis/include/core_cm4.h **** #define SCB_CCR_BFHFNMIGN_Pos               8U                                            /*!< SCB 
 553:Generated_Source\PSoC6\pdl\cmsis/include/core_cm4.h **** #define SCB_CCR_BFHFNMIGN_Msk              (1UL << SCB_CCR_BFHFNMIGN_Pos)                 /*!< SCB 
 554:Generated_Source\PSoC6\pdl\cmsis/include/core_cm4.h **** 
 555:Generated_Source\PSoC6\pdl\cmsis/include/core_cm4.h **** #define SCB_CCR_DIV_0_TRP_Pos               4U                                            /*!< SCB 
 556:Generated_Source\PSoC6\pdl\cmsis/include/core_cm4.h **** #define SCB_CCR_DIV_0_TRP_Msk              (1UL << SCB_CCR_DIV_0_TRP_Pos)                 /*!< SCB 
 557:Generated_Source\PSoC6\pdl\cmsis/include/core_cm4.h **** 
 558:Generated_Source\PSoC6\pdl\cmsis/include/core_cm4.h **** #define SCB_CCR_UNALIGN_TRP_Pos             3U                                            /*!< SCB 
 559:Generated_Source\PSoC6\pdl\cmsis/include/core_cm4.h **** #define SCB_CCR_UNALIGN_TRP_Msk            (1UL << SCB_CCR_UNALIGN_TRP_Pos)               /*!< SCB 
 560:Generated_Source\PSoC6\pdl\cmsis/include/core_cm4.h **** 
 561:Generated_Source\PSoC6\pdl\cmsis/include/core_cm4.h **** #define SCB_CCR_USERSETMPEND_Pos            1U                                            /*!< SCB 
 562:Generated_Source\PSoC6\pdl\cmsis/include/core_cm4.h **** #define SCB_CCR_USERSETMPEND_Msk           (1UL << SCB_CCR_USERSETMPEND_Pos)              /*!< SCB 
 563:Generated_Source\PSoC6\pdl\cmsis/include/core_cm4.h **** 
 564:Generated_Source\PSoC6\pdl\cmsis/include/core_cm4.h **** #define SCB_CCR_NONBASETHRDENA_Pos          0U                                            /*!< SCB 
 565:Generated_Source\PSoC6\pdl\cmsis/include/core_cm4.h **** #define SCB_CCR_NONBASETHRDENA_Msk         (1UL /*<< SCB_CCR_NONBASETHRDENA_Pos*/)        /*!< SCB 
 566:Generated_Source\PSoC6\pdl\cmsis/include/core_cm4.h **** 
 567:Generated_Source\PSoC6\pdl\cmsis/include/core_cm4.h **** /* SCB System Handler Control and State Register Definitions */
 568:Generated_Source\PSoC6\pdl\cmsis/include/core_cm4.h **** #define SCB_SHCSR_USGFAULTENA_Pos          18U                                            /*!< SCB 
 569:Generated_Source\PSoC6\pdl\cmsis/include/core_cm4.h **** #define SCB_SHCSR_USGFAULTENA_Msk          (1UL << SCB_SHCSR_USGFAULTENA_Pos)             /*!< SCB 
 570:Generated_Source\PSoC6\pdl\cmsis/include/core_cm4.h **** 
 571:Generated_Source\PSoC6\pdl\cmsis/include/core_cm4.h **** #define SCB_SHCSR_BUSFAULTENA_Pos          17U                                            /*!< SCB 
 572:Generated_Source\PSoC6\pdl\cmsis/include/core_cm4.h **** #define SCB_SHCSR_BUSFAULTENA_Msk          (1UL << SCB_SHCSR_BUSFAULTENA_Pos)             /*!< SCB 
 573:Generated_Source\PSoC6\pdl\cmsis/include/core_cm4.h **** 
 574:Generated_Source\PSoC6\pdl\cmsis/include/core_cm4.h **** #define SCB_SHCSR_MEMFAULTENA_Pos          16U                                            /*!< SCB 
 575:Generated_Source\PSoC6\pdl\cmsis/include/core_cm4.h **** #define SCB_SHCSR_MEMFAULTENA_Msk          (1UL << SCB_SHCSR_MEMFAULTENA_Pos)             /*!< SCB 
 576:Generated_Source\PSoC6\pdl\cmsis/include/core_cm4.h **** 
 577:Generated_Source\PSoC6\pdl\cmsis/include/core_cm4.h **** #define SCB_SHCSR_SVCALLPENDED_Pos         15U                                            /*!< SCB 
 578:Generated_Source\PSoC6\pdl\cmsis/include/core_cm4.h **** #define SCB_SHCSR_SVCALLPENDED_Msk         (1UL << SCB_SHCSR_SVCALLPENDED_Pos)            /*!< SCB 
 579:Generated_Source\PSoC6\pdl\cmsis/include/core_cm4.h **** 
 580:Generated_Source\PSoC6\pdl\cmsis/include/core_cm4.h **** #define SCB_SHCSR_BUSFAULTPENDED_Pos       14U                                            /*!< SCB 
 581:Generated_Source\PSoC6\pdl\cmsis/include/core_cm4.h **** #define SCB_SHCSR_BUSFAULTPENDED_Msk       (1UL << SCB_SHCSR_BUSFAULTPENDED_Pos)          /*!< SCB 
 582:Generated_Source\PSoC6\pdl\cmsis/include/core_cm4.h **** 
 583:Generated_Source\PSoC6\pdl\cmsis/include/core_cm4.h **** #define SCB_SHCSR_MEMFAULTPENDED_Pos       13U                                            /*!< SCB 
 584:Generated_Source\PSoC6\pdl\cmsis/include/core_cm4.h **** #define SCB_SHCSR_MEMFAULTPENDED_Msk       (1UL << SCB_SHCSR_MEMFAULTPENDED_Pos)          /*!< SCB 
 585:Generated_Source\PSoC6\pdl\cmsis/include/core_cm4.h **** 
 586:Generated_Source\PSoC6\pdl\cmsis/include/core_cm4.h **** #define SCB_SHCSR_USGFAULTPENDED_Pos       12U                                            /*!< SCB 
 587:Generated_Source\PSoC6\pdl\cmsis/include/core_cm4.h **** #define SCB_SHCSR_USGFAULTPENDED_Msk       (1UL << SCB_SHCSR_USGFAULTPENDED_Pos)          /*!< SCB 
 588:Generated_Source\PSoC6\pdl\cmsis/include/core_cm4.h **** 
 589:Generated_Source\PSoC6\pdl\cmsis/include/core_cm4.h **** #define SCB_SHCSR_SYSTICKACT_Pos           11U                                            /*!< SCB 
 590:Generated_Source\PSoC6\pdl\cmsis/include/core_cm4.h **** #define SCB_SHCSR_SYSTICKACT_Msk           (1UL << SCB_SHCSR_SYSTICKACT_Pos)              /*!< SCB 
 591:Generated_Source\PSoC6\pdl\cmsis/include/core_cm4.h **** 
ARM GAS  C:\Users\Rolf\AppData\Local\Temp\cchK4Yuu.s 			page 19


 592:Generated_Source\PSoC6\pdl\cmsis/include/core_cm4.h **** #define SCB_SHCSR_PENDSVACT_Pos            10U                                            /*!< SCB 
 593:Generated_Source\PSoC6\pdl\cmsis/include/core_cm4.h **** #define SCB_SHCSR_PENDSVACT_Msk            (1UL << SCB_SHCSR_PENDSVACT_Pos)               /*!< SCB 
 594:Generated_Source\PSoC6\pdl\cmsis/include/core_cm4.h **** 
 595:Generated_Source\PSoC6\pdl\cmsis/include/core_cm4.h **** #define SCB_SHCSR_MONITORACT_Pos            8U                                            /*!< SCB 
 596:Generated_Source\PSoC6\pdl\cmsis/include/core_cm4.h **** #define SCB_SHCSR_MONITORACT_Msk           (1UL << SCB_SHCSR_MONITORACT_Pos)              /*!< SCB 
 597:Generated_Source\PSoC6\pdl\cmsis/include/core_cm4.h **** 
 598:Generated_Source\PSoC6\pdl\cmsis/include/core_cm4.h **** #define SCB_SHCSR_SVCALLACT_Pos             7U                                            /*!< SCB 
 599:Generated_Source\PSoC6\pdl\cmsis/include/core_cm4.h **** #define SCB_SHCSR_SVCALLACT_Msk            (1UL << SCB_SHCSR_SVCALLACT_Pos)               /*!< SCB 
 600:Generated_Source\PSoC6\pdl\cmsis/include/core_cm4.h **** 
 601:Generated_Source\PSoC6\pdl\cmsis/include/core_cm4.h **** #define SCB_SHCSR_USGFAULTACT_Pos           3U                                            /*!< SCB 
 602:Generated_Source\PSoC6\pdl\cmsis/include/core_cm4.h **** #define SCB_SHCSR_USGFAULTACT_Msk          (1UL << SCB_SHCSR_USGFAULTACT_Pos)             /*!< SCB 
 603:Generated_Source\PSoC6\pdl\cmsis/include/core_cm4.h **** 
 604:Generated_Source\PSoC6\pdl\cmsis/include/core_cm4.h **** #define SCB_SHCSR_BUSFAULTACT_Pos           1U                                            /*!< SCB 
 605:Generated_Source\PSoC6\pdl\cmsis/include/core_cm4.h **** #define SCB_SHCSR_BUSFAULTACT_Msk          (1UL << SCB_SHCSR_BUSFAULTACT_Pos)             /*!< SCB 
 606:Generated_Source\PSoC6\pdl\cmsis/include/core_cm4.h **** 
 607:Generated_Source\PSoC6\pdl\cmsis/include/core_cm4.h **** #define SCB_SHCSR_MEMFAULTACT_Pos           0U                                            /*!< SCB 
 608:Generated_Source\PSoC6\pdl\cmsis/include/core_cm4.h **** #define SCB_SHCSR_MEMFAULTACT_Msk          (1UL /*<< SCB_SHCSR_MEMFAULTACT_Pos*/)         /*!< SCB 
 609:Generated_Source\PSoC6\pdl\cmsis/include/core_cm4.h **** 
 610:Generated_Source\PSoC6\pdl\cmsis/include/core_cm4.h **** /* SCB Configurable Fault Status Register Definitions */
 611:Generated_Source\PSoC6\pdl\cmsis/include/core_cm4.h **** #define SCB_CFSR_USGFAULTSR_Pos            16U                                            /*!< SCB 
 612:Generated_Source\PSoC6\pdl\cmsis/include/core_cm4.h **** #define SCB_CFSR_USGFAULTSR_Msk            (0xFFFFUL << SCB_CFSR_USGFAULTSR_Pos)          /*!< SCB 
 613:Generated_Source\PSoC6\pdl\cmsis/include/core_cm4.h **** 
 614:Generated_Source\PSoC6\pdl\cmsis/include/core_cm4.h **** #define SCB_CFSR_BUSFAULTSR_Pos             8U                                            /*!< SCB 
 615:Generated_Source\PSoC6\pdl\cmsis/include/core_cm4.h **** #define SCB_CFSR_BUSFAULTSR_Msk            (0xFFUL << SCB_CFSR_BUSFAULTSR_Pos)            /*!< SCB 
 616:Generated_Source\PSoC6\pdl\cmsis/include/core_cm4.h **** 
 617:Generated_Source\PSoC6\pdl\cmsis/include/core_cm4.h **** #define SCB_CFSR_MEMFAULTSR_Pos             0U                                            /*!< SCB 
 618:Generated_Source\PSoC6\pdl\cmsis/include/core_cm4.h **** #define SCB_CFSR_MEMFAULTSR_Msk            (0xFFUL /*<< SCB_CFSR_MEMFAULTSR_Pos*/)        /*!< SCB 
 619:Generated_Source\PSoC6\pdl\cmsis/include/core_cm4.h **** 
 620:Generated_Source\PSoC6\pdl\cmsis/include/core_cm4.h **** /* MemManage Fault Status Register (part of SCB Configurable Fault Status Register) */
 621:Generated_Source\PSoC6\pdl\cmsis/include/core_cm4.h **** #define SCB_CFSR_MMARVALID_Pos             (SCB_SHCSR_MEMFAULTACT_Pos + 7U)               /*!< SCB 
 622:Generated_Source\PSoC6\pdl\cmsis/include/core_cm4.h **** #define SCB_CFSR_MMARVALID_Msk             (1UL << SCB_CFSR_MMARVALID_Pos)                /*!< SCB 
 623:Generated_Source\PSoC6\pdl\cmsis/include/core_cm4.h **** 
 624:Generated_Source\PSoC6\pdl\cmsis/include/core_cm4.h **** #define SCB_CFSR_MLSPERR_Pos               (SCB_SHCSR_MEMFAULTACT_Pos + 5U)               /*!< SCB 
 625:Generated_Source\PSoC6\pdl\cmsis/include/core_cm4.h **** #define SCB_CFSR_MLSPERR_Msk               (1UL << SCB_CFSR_MLSPERR_Pos)                  /*!< SCB 
 626:Generated_Source\PSoC6\pdl\cmsis/include/core_cm4.h **** 
 627:Generated_Source\PSoC6\pdl\cmsis/include/core_cm4.h **** #define SCB_CFSR_MSTKERR_Pos               (SCB_SHCSR_MEMFAULTACT_Pos + 4U)               /*!< SCB 
 628:Generated_Source\PSoC6\pdl\cmsis/include/core_cm4.h **** #define SCB_CFSR_MSTKERR_Msk               (1UL << SCB_CFSR_MSTKERR_Pos)                  /*!< SCB 
 629:Generated_Source\PSoC6\pdl\cmsis/include/core_cm4.h **** 
 630:Generated_Source\PSoC6\pdl\cmsis/include/core_cm4.h **** #define SCB_CFSR_MUNSTKERR_Pos             (SCB_SHCSR_MEMFAULTACT_Pos + 3U)               /*!< SCB 
 631:Generated_Source\PSoC6\pdl\cmsis/include/core_cm4.h **** #define SCB_CFSR_MUNSTKERR_Msk             (1UL << SCB_CFSR_MUNSTKERR_Pos)                /*!< SCB 
 632:Generated_Source\PSoC6\pdl\cmsis/include/core_cm4.h **** 
 633:Generated_Source\PSoC6\pdl\cmsis/include/core_cm4.h **** #define SCB_CFSR_DACCVIOL_Pos              (SCB_SHCSR_MEMFAULTACT_Pos + 1U)               /*!< SCB 
 634:Generated_Source\PSoC6\pdl\cmsis/include/core_cm4.h **** #define SCB_CFSR_DACCVIOL_Msk              (1UL << SCB_CFSR_DACCVIOL_Pos)                 /*!< SCB 
 635:Generated_Source\PSoC6\pdl\cmsis/include/core_cm4.h **** 
 636:Generated_Source\PSoC6\pdl\cmsis/include/core_cm4.h **** #define SCB_CFSR_IACCVIOL_Pos              (SCB_SHCSR_MEMFAULTACT_Pos + 0U)               /*!< SCB 
 637:Generated_Source\PSoC6\pdl\cmsis/include/core_cm4.h **** #define SCB_CFSR_IACCVIOL_Msk              (1UL /*<< SCB_CFSR_IACCVIOL_Pos*/)             /*!< SCB 
 638:Generated_Source\PSoC6\pdl\cmsis/include/core_cm4.h **** 
 639:Generated_Source\PSoC6\pdl\cmsis/include/core_cm4.h **** /* BusFault Status Register (part of SCB Configurable Fault Status Register) */
 640:Generated_Source\PSoC6\pdl\cmsis/include/core_cm4.h **** #define SCB_CFSR_BFARVALID_Pos            (SCB_CFSR_BUSFAULTSR_Pos + 7U)                  /*!< SCB 
 641:Generated_Source\PSoC6\pdl\cmsis/include/core_cm4.h **** #define SCB_CFSR_BFARVALID_Msk            (1UL << SCB_CFSR_BFARVALID_Pos)                 /*!< SCB 
 642:Generated_Source\PSoC6\pdl\cmsis/include/core_cm4.h **** 
 643:Generated_Source\PSoC6\pdl\cmsis/include/core_cm4.h **** #define SCB_CFSR_LSPERR_Pos               (SCB_CFSR_BUSFAULTSR_Pos + 5U)                  /*!< SCB 
 644:Generated_Source\PSoC6\pdl\cmsis/include/core_cm4.h **** #define SCB_CFSR_LSPERR_Msk               (1UL << SCB_CFSR_LSPERR_Pos)                    /*!< SCB 
 645:Generated_Source\PSoC6\pdl\cmsis/include/core_cm4.h **** 
 646:Generated_Source\PSoC6\pdl\cmsis/include/core_cm4.h **** #define SCB_CFSR_STKERR_Pos               (SCB_CFSR_BUSFAULTSR_Pos + 4U)                  /*!< SCB 
 647:Generated_Source\PSoC6\pdl\cmsis/include/core_cm4.h **** #define SCB_CFSR_STKERR_Msk               (1UL << SCB_CFSR_STKERR_Pos)                    /*!< SCB 
 648:Generated_Source\PSoC6\pdl\cmsis/include/core_cm4.h **** 
ARM GAS  C:\Users\Rolf\AppData\Local\Temp\cchK4Yuu.s 			page 20


 649:Generated_Source\PSoC6\pdl\cmsis/include/core_cm4.h **** #define SCB_CFSR_UNSTKERR_Pos             (SCB_CFSR_BUSFAULTSR_Pos + 3U)                  /*!< SCB 
 650:Generated_Source\PSoC6\pdl\cmsis/include/core_cm4.h **** #define SCB_CFSR_UNSTKERR_Msk             (1UL << SCB_CFSR_UNSTKERR_Pos)                  /*!< SCB 
 651:Generated_Source\PSoC6\pdl\cmsis/include/core_cm4.h **** 
 652:Generated_Source\PSoC6\pdl\cmsis/include/core_cm4.h **** #define SCB_CFSR_IMPRECISERR_Pos          (SCB_CFSR_BUSFAULTSR_Pos + 2U)                  /*!< SCB 
 653:Generated_Source\PSoC6\pdl\cmsis/include/core_cm4.h **** #define SCB_CFSR_IMPRECISERR_Msk          (1UL << SCB_CFSR_IMPRECISERR_Pos)               /*!< SCB 
 654:Generated_Source\PSoC6\pdl\cmsis/include/core_cm4.h **** 
 655:Generated_Source\PSoC6\pdl\cmsis/include/core_cm4.h **** #define SCB_CFSR_PRECISERR_Pos            (SCB_CFSR_BUSFAULTSR_Pos + 1U)                  /*!< SCB 
 656:Generated_Source\PSoC6\pdl\cmsis/include/core_cm4.h **** #define SCB_CFSR_PRECISERR_Msk            (1UL << SCB_CFSR_PRECISERR_Pos)                 /*!< SCB 
 657:Generated_Source\PSoC6\pdl\cmsis/include/core_cm4.h **** 
 658:Generated_Source\PSoC6\pdl\cmsis/include/core_cm4.h **** #define SCB_CFSR_IBUSERR_Pos              (SCB_CFSR_BUSFAULTSR_Pos + 0U)                  /*!< SCB 
 659:Generated_Source\PSoC6\pdl\cmsis/include/core_cm4.h **** #define SCB_CFSR_IBUSERR_Msk              (1UL << SCB_CFSR_IBUSERR_Pos)                   /*!< SCB 
 660:Generated_Source\PSoC6\pdl\cmsis/include/core_cm4.h **** 
 661:Generated_Source\PSoC6\pdl\cmsis/include/core_cm4.h **** /* UsageFault Status Register (part of SCB Configurable Fault Status Register) */
 662:Generated_Source\PSoC6\pdl\cmsis/include/core_cm4.h **** #define SCB_CFSR_DIVBYZERO_Pos            (SCB_CFSR_USGFAULTSR_Pos + 9U)                  /*!< SCB 
 663:Generated_Source\PSoC6\pdl\cmsis/include/core_cm4.h **** #define SCB_CFSR_DIVBYZERO_Msk            (1UL << SCB_CFSR_DIVBYZERO_Pos)                 /*!< SCB 
 664:Generated_Source\PSoC6\pdl\cmsis/include/core_cm4.h **** 
 665:Generated_Source\PSoC6\pdl\cmsis/include/core_cm4.h **** #define SCB_CFSR_UNALIGNED_Pos            (SCB_CFSR_USGFAULTSR_Pos + 8U)                  /*!< SCB 
 666:Generated_Source\PSoC6\pdl\cmsis/include/core_cm4.h **** #define SCB_CFSR_UNALIGNED_Msk            (1UL << SCB_CFSR_UNALIGNED_Pos)                 /*!< SCB 
 667:Generated_Source\PSoC6\pdl\cmsis/include/core_cm4.h **** 
 668:Generated_Source\PSoC6\pdl\cmsis/include/core_cm4.h **** #define SCB_CFSR_NOCP_Pos                 (SCB_CFSR_USGFAULTSR_Pos + 3U)                  /*!< SCB 
 669:Generated_Source\PSoC6\pdl\cmsis/include/core_cm4.h **** #define SCB_CFSR_NOCP_Msk                 (1UL << SCB_CFSR_NOCP_Pos)                      /*!< SCB 
 670:Generated_Source\PSoC6\pdl\cmsis/include/core_cm4.h **** 
 671:Generated_Source\PSoC6\pdl\cmsis/include/core_cm4.h **** #define SCB_CFSR_INVPC_Pos                (SCB_CFSR_USGFAULTSR_Pos + 2U)                  /*!< SCB 
 672:Generated_Source\PSoC6\pdl\cmsis/include/core_cm4.h **** #define SCB_CFSR_INVPC_Msk                (1UL << SCB_CFSR_INVPC_Pos)                     /*!< SCB 
 673:Generated_Source\PSoC6\pdl\cmsis/include/core_cm4.h **** 
 674:Generated_Source\PSoC6\pdl\cmsis/include/core_cm4.h **** #define SCB_CFSR_INVSTATE_Pos             (SCB_CFSR_USGFAULTSR_Pos + 1U)                  /*!< SCB 
 675:Generated_Source\PSoC6\pdl\cmsis/include/core_cm4.h **** #define SCB_CFSR_INVSTATE_Msk             (1UL << SCB_CFSR_INVSTATE_Pos)                  /*!< SCB 
 676:Generated_Source\PSoC6\pdl\cmsis/include/core_cm4.h **** 
 677:Generated_Source\PSoC6\pdl\cmsis/include/core_cm4.h **** #define SCB_CFSR_UNDEFINSTR_Pos           (SCB_CFSR_USGFAULTSR_Pos + 0U)                  /*!< SCB 
 678:Generated_Source\PSoC6\pdl\cmsis/include/core_cm4.h **** #define SCB_CFSR_UNDEFINSTR_Msk           (1UL << SCB_CFSR_UNDEFINSTR_Pos)                /*!< SCB 
 679:Generated_Source\PSoC6\pdl\cmsis/include/core_cm4.h **** 
 680:Generated_Source\PSoC6\pdl\cmsis/include/core_cm4.h **** /* SCB Hard Fault Status Register Definitions */
 681:Generated_Source\PSoC6\pdl\cmsis/include/core_cm4.h **** #define SCB_HFSR_DEBUGEVT_Pos              31U                                            /*!< SCB 
 682:Generated_Source\PSoC6\pdl\cmsis/include/core_cm4.h **** #define SCB_HFSR_DEBUGEVT_Msk              (1UL << SCB_HFSR_DEBUGEVT_Pos)                 /*!< SCB 
 683:Generated_Source\PSoC6\pdl\cmsis/include/core_cm4.h **** 
 684:Generated_Source\PSoC6\pdl\cmsis/include/core_cm4.h **** #define SCB_HFSR_FORCED_Pos                30U                                            /*!< SCB 
 685:Generated_Source\PSoC6\pdl\cmsis/include/core_cm4.h **** #define SCB_HFSR_FORCED_Msk                (1UL << SCB_HFSR_FORCED_Pos)                   /*!< SCB 
 686:Generated_Source\PSoC6\pdl\cmsis/include/core_cm4.h **** 
 687:Generated_Source\PSoC6\pdl\cmsis/include/core_cm4.h **** #define SCB_HFSR_VECTTBL_Pos                1U                                            /*!< SCB 
 688:Generated_Source\PSoC6\pdl\cmsis/include/core_cm4.h **** #define SCB_HFSR_VECTTBL_Msk               (1UL << SCB_HFSR_VECTTBL_Pos)                  /*!< SCB 
 689:Generated_Source\PSoC6\pdl\cmsis/include/core_cm4.h **** 
 690:Generated_Source\PSoC6\pdl\cmsis/include/core_cm4.h **** /* SCB Debug Fault Status Register Definitions */
 691:Generated_Source\PSoC6\pdl\cmsis/include/core_cm4.h **** #define SCB_DFSR_EXTERNAL_Pos               4U                                            /*!< SCB 
 692:Generated_Source\PSoC6\pdl\cmsis/include/core_cm4.h **** #define SCB_DFSR_EXTERNAL_Msk              (1UL << SCB_DFSR_EXTERNAL_Pos)                 /*!< SCB 
 693:Generated_Source\PSoC6\pdl\cmsis/include/core_cm4.h **** 
 694:Generated_Source\PSoC6\pdl\cmsis/include/core_cm4.h **** #define SCB_DFSR_VCATCH_Pos                 3U                                            /*!< SCB 
 695:Generated_Source\PSoC6\pdl\cmsis/include/core_cm4.h **** #define SCB_DFSR_VCATCH_Msk                (1UL << SCB_DFSR_VCATCH_Pos)                   /*!< SCB 
 696:Generated_Source\PSoC6\pdl\cmsis/include/core_cm4.h **** 
 697:Generated_Source\PSoC6\pdl\cmsis/include/core_cm4.h **** #define SCB_DFSR_DWTTRAP_Pos                2U                                            /*!< SCB 
 698:Generated_Source\PSoC6\pdl\cmsis/include/core_cm4.h **** #define SCB_DFSR_DWTTRAP_Msk               (1UL << SCB_DFSR_DWTTRAP_Pos)                  /*!< SCB 
 699:Generated_Source\PSoC6\pdl\cmsis/include/core_cm4.h **** 
 700:Generated_Source\PSoC6\pdl\cmsis/include/core_cm4.h **** #define SCB_DFSR_BKPT_Pos                   1U                                            /*!< SCB 
 701:Generated_Source\PSoC6\pdl\cmsis/include/core_cm4.h **** #define SCB_DFSR_BKPT_Msk                  (1UL << SCB_DFSR_BKPT_Pos)                     /*!< SCB 
 702:Generated_Source\PSoC6\pdl\cmsis/include/core_cm4.h **** 
 703:Generated_Source\PSoC6\pdl\cmsis/include/core_cm4.h **** #define SCB_DFSR_HALTED_Pos                 0U                                            /*!< SCB 
 704:Generated_Source\PSoC6\pdl\cmsis/include/core_cm4.h **** #define SCB_DFSR_HALTED_Msk                (1UL /*<< SCB_DFSR_HALTED_Pos*/)               /*!< SCB 
 705:Generated_Source\PSoC6\pdl\cmsis/include/core_cm4.h **** 
ARM GAS  C:\Users\Rolf\AppData\Local\Temp\cchK4Yuu.s 			page 21


 706:Generated_Source\PSoC6\pdl\cmsis/include/core_cm4.h **** /*@} end of group CMSIS_SCB */
 707:Generated_Source\PSoC6\pdl\cmsis/include/core_cm4.h **** 
 708:Generated_Source\PSoC6\pdl\cmsis/include/core_cm4.h **** 
 709:Generated_Source\PSoC6\pdl\cmsis/include/core_cm4.h **** /**
 710:Generated_Source\PSoC6\pdl\cmsis/include/core_cm4.h ****   \ingroup  CMSIS_core_register
 711:Generated_Source\PSoC6\pdl\cmsis/include/core_cm4.h ****   \defgroup CMSIS_SCnSCB System Controls not in SCB (SCnSCB)
 712:Generated_Source\PSoC6\pdl\cmsis/include/core_cm4.h ****   \brief    Type definitions for the System Control and ID Register not in the SCB
 713:Generated_Source\PSoC6\pdl\cmsis/include/core_cm4.h ****   @{
 714:Generated_Source\PSoC6\pdl\cmsis/include/core_cm4.h ****  */
 715:Generated_Source\PSoC6\pdl\cmsis/include/core_cm4.h **** 
 716:Generated_Source\PSoC6\pdl\cmsis/include/core_cm4.h **** /**
 717:Generated_Source\PSoC6\pdl\cmsis/include/core_cm4.h ****   \brief  Structure type to access the System Control and ID Register not in the SCB.
 718:Generated_Source\PSoC6\pdl\cmsis/include/core_cm4.h ****  */
 719:Generated_Source\PSoC6\pdl\cmsis/include/core_cm4.h **** typedef struct
 720:Generated_Source\PSoC6\pdl\cmsis/include/core_cm4.h **** {
 721:Generated_Source\PSoC6\pdl\cmsis/include/core_cm4.h ****         uint32_t RESERVED0[1U];
 722:Generated_Source\PSoC6\pdl\cmsis/include/core_cm4.h ****   __IM  uint32_t ICTR;                   /*!< Offset: 0x004 (R/ )  Interrupt Controller Type Regist
 723:Generated_Source\PSoC6\pdl\cmsis/include/core_cm4.h ****   __IOM uint32_t ACTLR;                  /*!< Offset: 0x008 (R/W)  Auxiliary Control Register */
 724:Generated_Source\PSoC6\pdl\cmsis/include/core_cm4.h **** } SCnSCB_Type;
 725:Generated_Source\PSoC6\pdl\cmsis/include/core_cm4.h **** 
 726:Generated_Source\PSoC6\pdl\cmsis/include/core_cm4.h **** /* Interrupt Controller Type Register Definitions */
 727:Generated_Source\PSoC6\pdl\cmsis/include/core_cm4.h **** #define SCnSCB_ICTR_INTLINESNUM_Pos         0U                                         /*!< ICTR: I
 728:Generated_Source\PSoC6\pdl\cmsis/include/core_cm4.h **** #define SCnSCB_ICTR_INTLINESNUM_Msk        (0xFUL /*<< SCnSCB_ICTR_INTLINESNUM_Pos*/)  /*!< ICTR: I
 729:Generated_Source\PSoC6\pdl\cmsis/include/core_cm4.h **** 
 730:Generated_Source\PSoC6\pdl\cmsis/include/core_cm4.h **** /* Auxiliary Control Register Definitions */
 731:Generated_Source\PSoC6\pdl\cmsis/include/core_cm4.h **** #define SCnSCB_ACTLR_DISOOFP_Pos            9U                                         /*!< ACTLR: 
 732:Generated_Source\PSoC6\pdl\cmsis/include/core_cm4.h **** #define SCnSCB_ACTLR_DISOOFP_Msk           (1UL << SCnSCB_ACTLR_DISOOFP_Pos)           /*!< ACTLR: 
 733:Generated_Source\PSoC6\pdl\cmsis/include/core_cm4.h **** 
 734:Generated_Source\PSoC6\pdl\cmsis/include/core_cm4.h **** #define SCnSCB_ACTLR_DISFPCA_Pos            8U                                         /*!< ACTLR: 
 735:Generated_Source\PSoC6\pdl\cmsis/include/core_cm4.h **** #define SCnSCB_ACTLR_DISFPCA_Msk           (1UL << SCnSCB_ACTLR_DISFPCA_Pos)           /*!< ACTLR: 
 736:Generated_Source\PSoC6\pdl\cmsis/include/core_cm4.h **** 
 737:Generated_Source\PSoC6\pdl\cmsis/include/core_cm4.h **** #define SCnSCB_ACTLR_DISFOLD_Pos            2U                                         /*!< ACTLR: 
 738:Generated_Source\PSoC6\pdl\cmsis/include/core_cm4.h **** #define SCnSCB_ACTLR_DISFOLD_Msk           (1UL << SCnSCB_ACTLR_DISFOLD_Pos)           /*!< ACTLR: 
 739:Generated_Source\PSoC6\pdl\cmsis/include/core_cm4.h **** 
 740:Generated_Source\PSoC6\pdl\cmsis/include/core_cm4.h **** #define SCnSCB_ACTLR_DISDEFWBUF_Pos         1U                                         /*!< ACTLR: 
 741:Generated_Source\PSoC6\pdl\cmsis/include/core_cm4.h **** #define SCnSCB_ACTLR_DISDEFWBUF_Msk        (1UL << SCnSCB_ACTLR_DISDEFWBUF_Pos)        /*!< ACTLR: 
 742:Generated_Source\PSoC6\pdl\cmsis/include/core_cm4.h **** 
 743:Generated_Source\PSoC6\pdl\cmsis/include/core_cm4.h **** #define SCnSCB_ACTLR_DISMCYCINT_Pos         0U                                         /*!< ACTLR: 
 744:Generated_Source\PSoC6\pdl\cmsis/include/core_cm4.h **** #define SCnSCB_ACTLR_DISMCYCINT_Msk        (1UL /*<< SCnSCB_ACTLR_DISMCYCINT_Pos*/)    /*!< ACTLR: 
 745:Generated_Source\PSoC6\pdl\cmsis/include/core_cm4.h **** 
 746:Generated_Source\PSoC6\pdl\cmsis/include/core_cm4.h **** /*@} end of group CMSIS_SCnotSCB */
 747:Generated_Source\PSoC6\pdl\cmsis/include/core_cm4.h **** 
 748:Generated_Source\PSoC6\pdl\cmsis/include/core_cm4.h **** 
 749:Generated_Source\PSoC6\pdl\cmsis/include/core_cm4.h **** /**
 750:Generated_Source\PSoC6\pdl\cmsis/include/core_cm4.h ****   \ingroup  CMSIS_core_register
 751:Generated_Source\PSoC6\pdl\cmsis/include/core_cm4.h ****   \defgroup CMSIS_SysTick     System Tick Timer (SysTick)
 752:Generated_Source\PSoC6\pdl\cmsis/include/core_cm4.h ****   \brief    Type definitions for the System Timer Registers.
 753:Generated_Source\PSoC6\pdl\cmsis/include/core_cm4.h ****   @{
 754:Generated_Source\PSoC6\pdl\cmsis/include/core_cm4.h ****  */
 755:Generated_Source\PSoC6\pdl\cmsis/include/core_cm4.h **** 
 756:Generated_Source\PSoC6\pdl\cmsis/include/core_cm4.h **** /**
 757:Generated_Source\PSoC6\pdl\cmsis/include/core_cm4.h ****   \brief  Structure type to access the System Timer (SysTick).
 758:Generated_Source\PSoC6\pdl\cmsis/include/core_cm4.h ****  */
 759:Generated_Source\PSoC6\pdl\cmsis/include/core_cm4.h **** typedef struct
 760:Generated_Source\PSoC6\pdl\cmsis/include/core_cm4.h **** {
 761:Generated_Source\PSoC6\pdl\cmsis/include/core_cm4.h ****   __IOM uint32_t CTRL;                   /*!< Offset: 0x000 (R/W)  SysTick Control and Status Regis
 762:Generated_Source\PSoC6\pdl\cmsis/include/core_cm4.h ****   __IOM uint32_t LOAD;                   /*!< Offset: 0x004 (R/W)  SysTick Reload Value Register */
ARM GAS  C:\Users\Rolf\AppData\Local\Temp\cchK4Yuu.s 			page 22


 763:Generated_Source\PSoC6\pdl\cmsis/include/core_cm4.h ****   __IOM uint32_t VAL;                    /*!< Offset: 0x008 (R/W)  SysTick Current Value Register *
 764:Generated_Source\PSoC6\pdl\cmsis/include/core_cm4.h ****   __IM  uint32_t CALIB;                  /*!< Offset: 0x00C (R/ )  SysTick Calibration Register */
 765:Generated_Source\PSoC6\pdl\cmsis/include/core_cm4.h **** } SysTick_Type;
 766:Generated_Source\PSoC6\pdl\cmsis/include/core_cm4.h **** 
 767:Generated_Source\PSoC6\pdl\cmsis/include/core_cm4.h **** /* SysTick Control / Status Register Definitions */
 768:Generated_Source\PSoC6\pdl\cmsis/include/core_cm4.h **** #define SysTick_CTRL_COUNTFLAG_Pos         16U                                            /*!< SysT
 769:Generated_Source\PSoC6\pdl\cmsis/include/core_cm4.h **** #define SysTick_CTRL_COUNTFLAG_Msk         (1UL << SysTick_CTRL_COUNTFLAG_Pos)            /*!< SysT
 770:Generated_Source\PSoC6\pdl\cmsis/include/core_cm4.h **** 
 771:Generated_Source\PSoC6\pdl\cmsis/include/core_cm4.h **** #define SysTick_CTRL_CLKSOURCE_Pos          2U                                            /*!< SysT
 772:Generated_Source\PSoC6\pdl\cmsis/include/core_cm4.h **** #define SysTick_CTRL_CLKSOURCE_Msk         (1UL << SysTick_CTRL_CLKSOURCE_Pos)            /*!< SysT
 773:Generated_Source\PSoC6\pdl\cmsis/include/core_cm4.h **** 
 774:Generated_Source\PSoC6\pdl\cmsis/include/core_cm4.h **** #define SysTick_CTRL_TICKINT_Pos            1U                                            /*!< SysT
 775:Generated_Source\PSoC6\pdl\cmsis/include/core_cm4.h **** #define SysTick_CTRL_TICKINT_Msk           (1UL << SysTick_CTRL_TICKINT_Pos)              /*!< SysT
 776:Generated_Source\PSoC6\pdl\cmsis/include/core_cm4.h **** 
 777:Generated_Source\PSoC6\pdl\cmsis/include/core_cm4.h **** #define SysTick_CTRL_ENABLE_Pos             0U                                            /*!< SysT
 778:Generated_Source\PSoC6\pdl\cmsis/include/core_cm4.h **** #define SysTick_CTRL_ENABLE_Msk            (1UL /*<< SysTick_CTRL_ENABLE_Pos*/)           /*!< SysT
 779:Generated_Source\PSoC6\pdl\cmsis/include/core_cm4.h **** 
 780:Generated_Source\PSoC6\pdl\cmsis/include/core_cm4.h **** /* SysTick Reload Register Definitions */
 781:Generated_Source\PSoC6\pdl\cmsis/include/core_cm4.h **** #define SysTick_LOAD_RELOAD_Pos             0U                                            /*!< SysT
 782:Generated_Source\PSoC6\pdl\cmsis/include/core_cm4.h **** #define SysTick_LOAD_RELOAD_Msk            (0xFFFFFFUL /*<< SysTick_LOAD_RELOAD_Pos*/)    /*!< SysT
 783:Generated_Source\PSoC6\pdl\cmsis/include/core_cm4.h **** 
 784:Generated_Source\PSoC6\pdl\cmsis/include/core_cm4.h **** /* SysTick Current Register Definitions */
 785:Generated_Source\PSoC6\pdl\cmsis/include/core_cm4.h **** #define SysTick_VAL_CURRENT_Pos             0U                                            /*!< SysT
 786:Generated_Source\PSoC6\pdl\cmsis/include/core_cm4.h **** #define SysTick_VAL_CURRENT_Msk            (0xFFFFFFUL /*<< SysTick_VAL_CURRENT_Pos*/)    /*!< SysT
 787:Generated_Source\PSoC6\pdl\cmsis/include/core_cm4.h **** 
 788:Generated_Source\PSoC6\pdl\cmsis/include/core_cm4.h **** /* SysTick Calibration Register Definitions */
 789:Generated_Source\PSoC6\pdl\cmsis/include/core_cm4.h **** #define SysTick_CALIB_NOREF_Pos            31U                                            /*!< SysT
 790:Generated_Source\PSoC6\pdl\cmsis/include/core_cm4.h **** #define SysTick_CALIB_NOREF_Msk            (1UL << SysTick_CALIB_NOREF_Pos)               /*!< SysT
 791:Generated_Source\PSoC6\pdl\cmsis/include/core_cm4.h **** 
 792:Generated_Source\PSoC6\pdl\cmsis/include/core_cm4.h **** #define SysTick_CALIB_SKEW_Pos             30U                                            /*!< SysT
 793:Generated_Source\PSoC6\pdl\cmsis/include/core_cm4.h **** #define SysTick_CALIB_SKEW_Msk             (1UL << SysTick_CALIB_SKEW_Pos)                /*!< SysT
 794:Generated_Source\PSoC6\pdl\cmsis/include/core_cm4.h **** 
 795:Generated_Source\PSoC6\pdl\cmsis/include/core_cm4.h **** #define SysTick_CALIB_TENMS_Pos             0U                                            /*!< SysT
 796:Generated_Source\PSoC6\pdl\cmsis/include/core_cm4.h **** #define SysTick_CALIB_TENMS_Msk            (0xFFFFFFUL /*<< SysTick_CALIB_TENMS_Pos*/)    /*!< SysT
 797:Generated_Source\PSoC6\pdl\cmsis/include/core_cm4.h **** 
 798:Generated_Source\PSoC6\pdl\cmsis/include/core_cm4.h **** /*@} end of group CMSIS_SysTick */
 799:Generated_Source\PSoC6\pdl\cmsis/include/core_cm4.h **** 
 800:Generated_Source\PSoC6\pdl\cmsis/include/core_cm4.h **** 
 801:Generated_Source\PSoC6\pdl\cmsis/include/core_cm4.h **** /**
 802:Generated_Source\PSoC6\pdl\cmsis/include/core_cm4.h ****   \ingroup  CMSIS_core_register
 803:Generated_Source\PSoC6\pdl\cmsis/include/core_cm4.h ****   \defgroup CMSIS_ITM     Instrumentation Trace Macrocell (ITM)
 804:Generated_Source\PSoC6\pdl\cmsis/include/core_cm4.h ****   \brief    Type definitions for the Instrumentation Trace Macrocell (ITM)
 805:Generated_Source\PSoC6\pdl\cmsis/include/core_cm4.h ****   @{
 806:Generated_Source\PSoC6\pdl\cmsis/include/core_cm4.h ****  */
 807:Generated_Source\PSoC6\pdl\cmsis/include/core_cm4.h **** 
 808:Generated_Source\PSoC6\pdl\cmsis/include/core_cm4.h **** /**
 809:Generated_Source\PSoC6\pdl\cmsis/include/core_cm4.h ****   \brief  Structure type to access the Instrumentation Trace Macrocell Register (ITM).
 810:Generated_Source\PSoC6\pdl\cmsis/include/core_cm4.h ****  */
 811:Generated_Source\PSoC6\pdl\cmsis/include/core_cm4.h **** typedef struct
 812:Generated_Source\PSoC6\pdl\cmsis/include/core_cm4.h **** {
 813:Generated_Source\PSoC6\pdl\cmsis/include/core_cm4.h ****   __OM  union
 814:Generated_Source\PSoC6\pdl\cmsis/include/core_cm4.h ****   {
 815:Generated_Source\PSoC6\pdl\cmsis/include/core_cm4.h ****     __OM  uint8_t    u8;                 /*!< Offset: 0x000 ( /W)  ITM Stimulus Port 8-bit */
 816:Generated_Source\PSoC6\pdl\cmsis/include/core_cm4.h ****     __OM  uint16_t   u16;                /*!< Offset: 0x000 ( /W)  ITM Stimulus Port 16-bit */
 817:Generated_Source\PSoC6\pdl\cmsis/include/core_cm4.h ****     __OM  uint32_t   u32;                /*!< Offset: 0x000 ( /W)  ITM Stimulus Port 32-bit */
 818:Generated_Source\PSoC6\pdl\cmsis/include/core_cm4.h ****   }  PORT [32U];                         /*!< Offset: 0x000 ( /W)  ITM Stimulus Port Registers */
 819:Generated_Source\PSoC6\pdl\cmsis/include/core_cm4.h ****         uint32_t RESERVED0[864U];
ARM GAS  C:\Users\Rolf\AppData\Local\Temp\cchK4Yuu.s 			page 23


 820:Generated_Source\PSoC6\pdl\cmsis/include/core_cm4.h ****   __IOM uint32_t TER;                    /*!< Offset: 0xE00 (R/W)  ITM Trace Enable Register */
 821:Generated_Source\PSoC6\pdl\cmsis/include/core_cm4.h ****         uint32_t RESERVED1[15U];
 822:Generated_Source\PSoC6\pdl\cmsis/include/core_cm4.h ****   __IOM uint32_t TPR;                    /*!< Offset: 0xE40 (R/W)  ITM Trace Privilege Register */
 823:Generated_Source\PSoC6\pdl\cmsis/include/core_cm4.h ****         uint32_t RESERVED2[15U];
 824:Generated_Source\PSoC6\pdl\cmsis/include/core_cm4.h ****   __IOM uint32_t TCR;                    /*!< Offset: 0xE80 (R/W)  ITM Trace Control Register */
 825:Generated_Source\PSoC6\pdl\cmsis/include/core_cm4.h ****         uint32_t RESERVED3[29U];
 826:Generated_Source\PSoC6\pdl\cmsis/include/core_cm4.h ****   __OM  uint32_t IWR;                    /*!< Offset: 0xEF8 ( /W)  ITM Integration Write Register *
 827:Generated_Source\PSoC6\pdl\cmsis/include/core_cm4.h ****   __IM  uint32_t IRR;                    /*!< Offset: 0xEFC (R/ )  ITM Integration Read Register */
 828:Generated_Source\PSoC6\pdl\cmsis/include/core_cm4.h ****   __IOM uint32_t IMCR;                   /*!< Offset: 0xF00 (R/W)  ITM Integration Mode Control Reg
 829:Generated_Source\PSoC6\pdl\cmsis/include/core_cm4.h ****         uint32_t RESERVED4[43U];
 830:Generated_Source\PSoC6\pdl\cmsis/include/core_cm4.h ****   __OM  uint32_t LAR;                    /*!< Offset: 0xFB0 ( /W)  ITM Lock Access Register */
 831:Generated_Source\PSoC6\pdl\cmsis/include/core_cm4.h ****   __IM  uint32_t LSR;                    /*!< Offset: 0xFB4 (R/ )  ITM Lock Status Register */
 832:Generated_Source\PSoC6\pdl\cmsis/include/core_cm4.h ****         uint32_t RESERVED5[6U];
 833:Generated_Source\PSoC6\pdl\cmsis/include/core_cm4.h ****   __IM  uint32_t PID4;                   /*!< Offset: 0xFD0 (R/ )  ITM Peripheral Identification Re
 834:Generated_Source\PSoC6\pdl\cmsis/include/core_cm4.h ****   __IM  uint32_t PID5;                   /*!< Offset: 0xFD4 (R/ )  ITM Peripheral Identification Re
 835:Generated_Source\PSoC6\pdl\cmsis/include/core_cm4.h ****   __IM  uint32_t PID6;                   /*!< Offset: 0xFD8 (R/ )  ITM Peripheral Identification Re
 836:Generated_Source\PSoC6\pdl\cmsis/include/core_cm4.h ****   __IM  uint32_t PID7;                   /*!< Offset: 0xFDC (R/ )  ITM Peripheral Identification Re
 837:Generated_Source\PSoC6\pdl\cmsis/include/core_cm4.h ****   __IM  uint32_t PID0;                   /*!< Offset: 0xFE0 (R/ )  ITM Peripheral Identification Re
 838:Generated_Source\PSoC6\pdl\cmsis/include/core_cm4.h ****   __IM  uint32_t PID1;                   /*!< Offset: 0xFE4 (R/ )  ITM Peripheral Identification Re
 839:Generated_Source\PSoC6\pdl\cmsis/include/core_cm4.h ****   __IM  uint32_t PID2;                   /*!< Offset: 0xFE8 (R/ )  ITM Peripheral Identification Re
 840:Generated_Source\PSoC6\pdl\cmsis/include/core_cm4.h ****   __IM  uint32_t PID3;                   /*!< Offset: 0xFEC (R/ )  ITM Peripheral Identification Re
 841:Generated_Source\PSoC6\pdl\cmsis/include/core_cm4.h ****   __IM  uint32_t CID0;                   /*!< Offset: 0xFF0 (R/ )  ITM Component  Identification Re
 842:Generated_Source\PSoC6\pdl\cmsis/include/core_cm4.h ****   __IM  uint32_t CID1;                   /*!< Offset: 0xFF4 (R/ )  ITM Component  Identification Re
 843:Generated_Source\PSoC6\pdl\cmsis/include/core_cm4.h ****   __IM  uint32_t CID2;                   /*!< Offset: 0xFF8 (R/ )  ITM Component  Identification Re
 844:Generated_Source\PSoC6\pdl\cmsis/include/core_cm4.h ****   __IM  uint32_t CID3;                   /*!< Offset: 0xFFC (R/ )  ITM Component  Identification Re
 845:Generated_Source\PSoC6\pdl\cmsis/include/core_cm4.h **** } ITM_Type;
 846:Generated_Source\PSoC6\pdl\cmsis/include/core_cm4.h **** 
 847:Generated_Source\PSoC6\pdl\cmsis/include/core_cm4.h **** /* ITM Trace Privilege Register Definitions */
 848:Generated_Source\PSoC6\pdl\cmsis/include/core_cm4.h **** #define ITM_TPR_PRIVMASK_Pos                0U                                            /*!< ITM 
 849:Generated_Source\PSoC6\pdl\cmsis/include/core_cm4.h **** #define ITM_TPR_PRIVMASK_Msk               (0xFFFFFFFFUL /*<< ITM_TPR_PRIVMASK_Pos*/)     /*!< ITM 
 850:Generated_Source\PSoC6\pdl\cmsis/include/core_cm4.h **** 
 851:Generated_Source\PSoC6\pdl\cmsis/include/core_cm4.h **** /* ITM Trace Control Register Definitions */
 852:Generated_Source\PSoC6\pdl\cmsis/include/core_cm4.h **** #define ITM_TCR_BUSY_Pos                   23U                                            /*!< ITM 
 853:Generated_Source\PSoC6\pdl\cmsis/include/core_cm4.h **** #define ITM_TCR_BUSY_Msk                   (1UL << ITM_TCR_BUSY_Pos)                      /*!< ITM 
 854:Generated_Source\PSoC6\pdl\cmsis/include/core_cm4.h **** 
 855:Generated_Source\PSoC6\pdl\cmsis/include/core_cm4.h **** #define ITM_TCR_TraceBusID_Pos             16U                                            /*!< ITM 
 856:Generated_Source\PSoC6\pdl\cmsis/include/core_cm4.h **** #define ITM_TCR_TraceBusID_Msk             (0x7FUL << ITM_TCR_TraceBusID_Pos)             /*!< ITM 
 857:Generated_Source\PSoC6\pdl\cmsis/include/core_cm4.h **** 
 858:Generated_Source\PSoC6\pdl\cmsis/include/core_cm4.h **** #define ITM_TCR_GTSFREQ_Pos                10U                                            /*!< ITM 
 859:Generated_Source\PSoC6\pdl\cmsis/include/core_cm4.h **** #define ITM_TCR_GTSFREQ_Msk                (3UL << ITM_TCR_GTSFREQ_Pos)                   /*!< ITM 
 860:Generated_Source\PSoC6\pdl\cmsis/include/core_cm4.h **** 
 861:Generated_Source\PSoC6\pdl\cmsis/include/core_cm4.h **** #define ITM_TCR_TSPrescale_Pos              8U                                            /*!< ITM 
 862:Generated_Source\PSoC6\pdl\cmsis/include/core_cm4.h **** #define ITM_TCR_TSPrescale_Msk             (3UL << ITM_TCR_TSPrescale_Pos)                /*!< ITM 
 863:Generated_Source\PSoC6\pdl\cmsis/include/core_cm4.h **** 
 864:Generated_Source\PSoC6\pdl\cmsis/include/core_cm4.h **** #define ITM_TCR_SWOENA_Pos                  4U                                            /*!< ITM 
 865:Generated_Source\PSoC6\pdl\cmsis/include/core_cm4.h **** #define ITM_TCR_SWOENA_Msk                 (1UL << ITM_TCR_SWOENA_Pos)                    /*!< ITM 
 866:Generated_Source\PSoC6\pdl\cmsis/include/core_cm4.h **** 
 867:Generated_Source\PSoC6\pdl\cmsis/include/core_cm4.h **** #define ITM_TCR_DWTENA_Pos                  3U                                            /*!< ITM 
 868:Generated_Source\PSoC6\pdl\cmsis/include/core_cm4.h **** #define ITM_TCR_DWTENA_Msk                 (1UL << ITM_TCR_DWTENA_Pos)                    /*!< ITM 
 869:Generated_Source\PSoC6\pdl\cmsis/include/core_cm4.h **** 
 870:Generated_Source\PSoC6\pdl\cmsis/include/core_cm4.h **** #define ITM_TCR_SYNCENA_Pos                 2U                                            /*!< ITM 
 871:Generated_Source\PSoC6\pdl\cmsis/include/core_cm4.h **** #define ITM_TCR_SYNCENA_Msk                (1UL << ITM_TCR_SYNCENA_Pos)                   /*!< ITM 
 872:Generated_Source\PSoC6\pdl\cmsis/include/core_cm4.h **** 
 873:Generated_Source\PSoC6\pdl\cmsis/include/core_cm4.h **** #define ITM_TCR_TSENA_Pos                   1U                                            /*!< ITM 
 874:Generated_Source\PSoC6\pdl\cmsis/include/core_cm4.h **** #define ITM_TCR_TSENA_Msk                  (1UL << ITM_TCR_TSENA_Pos)                     /*!< ITM 
 875:Generated_Source\PSoC6\pdl\cmsis/include/core_cm4.h **** 
 876:Generated_Source\PSoC6\pdl\cmsis/include/core_cm4.h **** #define ITM_TCR_ITMENA_Pos                  0U                                            /*!< ITM 
ARM GAS  C:\Users\Rolf\AppData\Local\Temp\cchK4Yuu.s 			page 24


 877:Generated_Source\PSoC6\pdl\cmsis/include/core_cm4.h **** #define ITM_TCR_ITMENA_Msk                 (1UL /*<< ITM_TCR_ITMENA_Pos*/)                /*!< ITM 
 878:Generated_Source\PSoC6\pdl\cmsis/include/core_cm4.h **** 
 879:Generated_Source\PSoC6\pdl\cmsis/include/core_cm4.h **** /* ITM Integration Write Register Definitions */
 880:Generated_Source\PSoC6\pdl\cmsis/include/core_cm4.h **** #define ITM_IWR_ATVALIDM_Pos                0U                                            /*!< ITM 
 881:Generated_Source\PSoC6\pdl\cmsis/include/core_cm4.h **** #define ITM_IWR_ATVALIDM_Msk               (1UL /*<< ITM_IWR_ATVALIDM_Pos*/)              /*!< ITM 
 882:Generated_Source\PSoC6\pdl\cmsis/include/core_cm4.h **** 
 883:Generated_Source\PSoC6\pdl\cmsis/include/core_cm4.h **** /* ITM Integration Read Register Definitions */
 884:Generated_Source\PSoC6\pdl\cmsis/include/core_cm4.h **** #define ITM_IRR_ATREADYM_Pos                0U                                            /*!< ITM 
 885:Generated_Source\PSoC6\pdl\cmsis/include/core_cm4.h **** #define ITM_IRR_ATREADYM_Msk               (1UL /*<< ITM_IRR_ATREADYM_Pos*/)              /*!< ITM 
 886:Generated_Source\PSoC6\pdl\cmsis/include/core_cm4.h **** 
 887:Generated_Source\PSoC6\pdl\cmsis/include/core_cm4.h **** /* ITM Integration Mode Control Register Definitions */
 888:Generated_Source\PSoC6\pdl\cmsis/include/core_cm4.h **** #define ITM_IMCR_INTEGRATION_Pos            0U                                            /*!< ITM 
 889:Generated_Source\PSoC6\pdl\cmsis/include/core_cm4.h **** #define ITM_IMCR_INTEGRATION_Msk           (1UL /*<< ITM_IMCR_INTEGRATION_Pos*/)          /*!< ITM 
 890:Generated_Source\PSoC6\pdl\cmsis/include/core_cm4.h **** 
 891:Generated_Source\PSoC6\pdl\cmsis/include/core_cm4.h **** /* ITM Lock Status Register Definitions */
 892:Generated_Source\PSoC6\pdl\cmsis/include/core_cm4.h **** #define ITM_LSR_ByteAcc_Pos                 2U                                            /*!< ITM 
 893:Generated_Source\PSoC6\pdl\cmsis/include/core_cm4.h **** #define ITM_LSR_ByteAcc_Msk                (1UL << ITM_LSR_ByteAcc_Pos)                   /*!< ITM 
 894:Generated_Source\PSoC6\pdl\cmsis/include/core_cm4.h **** 
 895:Generated_Source\PSoC6\pdl\cmsis/include/core_cm4.h **** #define ITM_LSR_Access_Pos                  1U                                            /*!< ITM 
 896:Generated_Source\PSoC6\pdl\cmsis/include/core_cm4.h **** #define ITM_LSR_Access_Msk                 (1UL << ITM_LSR_Access_Pos)                    /*!< ITM 
 897:Generated_Source\PSoC6\pdl\cmsis/include/core_cm4.h **** 
 898:Generated_Source\PSoC6\pdl\cmsis/include/core_cm4.h **** #define ITM_LSR_Present_Pos                 0U                                            /*!< ITM 
 899:Generated_Source\PSoC6\pdl\cmsis/include/core_cm4.h **** #define ITM_LSR_Present_Msk                (1UL /*<< ITM_LSR_Present_Pos*/)               /*!< ITM 
 900:Generated_Source\PSoC6\pdl\cmsis/include/core_cm4.h **** 
 901:Generated_Source\PSoC6\pdl\cmsis/include/core_cm4.h **** /*@}*/ /* end of group CMSIS_ITM */
 902:Generated_Source\PSoC6\pdl\cmsis/include/core_cm4.h **** 
 903:Generated_Source\PSoC6\pdl\cmsis/include/core_cm4.h **** 
 904:Generated_Source\PSoC6\pdl\cmsis/include/core_cm4.h **** /**
 905:Generated_Source\PSoC6\pdl\cmsis/include/core_cm4.h ****   \ingroup  CMSIS_core_register
 906:Generated_Source\PSoC6\pdl\cmsis/include/core_cm4.h ****   \defgroup CMSIS_DWT     Data Watchpoint and Trace (DWT)
 907:Generated_Source\PSoC6\pdl\cmsis/include/core_cm4.h ****   \brief    Type definitions for the Data Watchpoint and Trace (DWT)
 908:Generated_Source\PSoC6\pdl\cmsis/include/core_cm4.h ****   @{
 909:Generated_Source\PSoC6\pdl\cmsis/include/core_cm4.h ****  */
 910:Generated_Source\PSoC6\pdl\cmsis/include/core_cm4.h **** 
 911:Generated_Source\PSoC6\pdl\cmsis/include/core_cm4.h **** /**
 912:Generated_Source\PSoC6\pdl\cmsis/include/core_cm4.h ****   \brief  Structure type to access the Data Watchpoint and Trace Register (DWT).
 913:Generated_Source\PSoC6\pdl\cmsis/include/core_cm4.h ****  */
 914:Generated_Source\PSoC6\pdl\cmsis/include/core_cm4.h **** typedef struct
 915:Generated_Source\PSoC6\pdl\cmsis/include/core_cm4.h **** {
 916:Generated_Source\PSoC6\pdl\cmsis/include/core_cm4.h ****   __IOM uint32_t CTRL;                   /*!< Offset: 0x000 (R/W)  Control Register */
 917:Generated_Source\PSoC6\pdl\cmsis/include/core_cm4.h ****   __IOM uint32_t CYCCNT;                 /*!< Offset: 0x004 (R/W)  Cycle Count Register */
 918:Generated_Source\PSoC6\pdl\cmsis/include/core_cm4.h ****   __IOM uint32_t CPICNT;                 /*!< Offset: 0x008 (R/W)  CPI Count Register */
 919:Generated_Source\PSoC6\pdl\cmsis/include/core_cm4.h ****   __IOM uint32_t EXCCNT;                 /*!< Offset: 0x00C (R/W)  Exception Overhead Count Registe
 920:Generated_Source\PSoC6\pdl\cmsis/include/core_cm4.h ****   __IOM uint32_t SLEEPCNT;               /*!< Offset: 0x010 (R/W)  Sleep Count Register */
 921:Generated_Source\PSoC6\pdl\cmsis/include/core_cm4.h ****   __IOM uint32_t LSUCNT;                 /*!< Offset: 0x014 (R/W)  LSU Count Register */
 922:Generated_Source\PSoC6\pdl\cmsis/include/core_cm4.h ****   __IOM uint32_t FOLDCNT;                /*!< Offset: 0x018 (R/W)  Folded-instruction Count Registe
 923:Generated_Source\PSoC6\pdl\cmsis/include/core_cm4.h ****   __IM  uint32_t PCSR;                   /*!< Offset: 0x01C (R/ )  Program Counter Sample Register 
 924:Generated_Source\PSoC6\pdl\cmsis/include/core_cm4.h ****   __IOM uint32_t COMP0;                  /*!< Offset: 0x020 (R/W)  Comparator Register 0 */
 925:Generated_Source\PSoC6\pdl\cmsis/include/core_cm4.h ****   __IOM uint32_t MASK0;                  /*!< Offset: 0x024 (R/W)  Mask Register 0 */
 926:Generated_Source\PSoC6\pdl\cmsis/include/core_cm4.h ****   __IOM uint32_t FUNCTION0;              /*!< Offset: 0x028 (R/W)  Function Register 0 */
 927:Generated_Source\PSoC6\pdl\cmsis/include/core_cm4.h ****         uint32_t RESERVED0[1U];
 928:Generated_Source\PSoC6\pdl\cmsis/include/core_cm4.h ****   __IOM uint32_t COMP1;                  /*!< Offset: 0x030 (R/W)  Comparator Register 1 */
 929:Generated_Source\PSoC6\pdl\cmsis/include/core_cm4.h ****   __IOM uint32_t MASK1;                  /*!< Offset: 0x034 (R/W)  Mask Register 1 */
 930:Generated_Source\PSoC6\pdl\cmsis/include/core_cm4.h ****   __IOM uint32_t FUNCTION1;              /*!< Offset: 0x038 (R/W)  Function Register 1 */
 931:Generated_Source\PSoC6\pdl\cmsis/include/core_cm4.h ****         uint32_t RESERVED1[1U];
 932:Generated_Source\PSoC6\pdl\cmsis/include/core_cm4.h ****   __IOM uint32_t COMP2;                  /*!< Offset: 0x040 (R/W)  Comparator Register 2 */
 933:Generated_Source\PSoC6\pdl\cmsis/include/core_cm4.h ****   __IOM uint32_t MASK2;                  /*!< Offset: 0x044 (R/W)  Mask Register 2 */
ARM GAS  C:\Users\Rolf\AppData\Local\Temp\cchK4Yuu.s 			page 25


 934:Generated_Source\PSoC6\pdl\cmsis/include/core_cm4.h ****   __IOM uint32_t FUNCTION2;              /*!< Offset: 0x048 (R/W)  Function Register 2 */
 935:Generated_Source\PSoC6\pdl\cmsis/include/core_cm4.h ****         uint32_t RESERVED2[1U];
 936:Generated_Source\PSoC6\pdl\cmsis/include/core_cm4.h ****   __IOM uint32_t COMP3;                  /*!< Offset: 0x050 (R/W)  Comparator Register 3 */
 937:Generated_Source\PSoC6\pdl\cmsis/include/core_cm4.h ****   __IOM uint32_t MASK3;                  /*!< Offset: 0x054 (R/W)  Mask Register 3 */
 938:Generated_Source\PSoC6\pdl\cmsis/include/core_cm4.h ****   __IOM uint32_t FUNCTION3;              /*!< Offset: 0x058 (R/W)  Function Register 3 */
 939:Generated_Source\PSoC6\pdl\cmsis/include/core_cm4.h **** } DWT_Type;
 940:Generated_Source\PSoC6\pdl\cmsis/include/core_cm4.h **** 
 941:Generated_Source\PSoC6\pdl\cmsis/include/core_cm4.h **** /* DWT Control Register Definitions */
 942:Generated_Source\PSoC6\pdl\cmsis/include/core_cm4.h **** #define DWT_CTRL_NUMCOMP_Pos               28U                                         /*!< DWT CTR
 943:Generated_Source\PSoC6\pdl\cmsis/include/core_cm4.h **** #define DWT_CTRL_NUMCOMP_Msk               (0xFUL << DWT_CTRL_NUMCOMP_Pos)             /*!< DWT CTR
 944:Generated_Source\PSoC6\pdl\cmsis/include/core_cm4.h **** 
 945:Generated_Source\PSoC6\pdl\cmsis/include/core_cm4.h **** #define DWT_CTRL_NOTRCPKT_Pos              27U                                         /*!< DWT CTR
 946:Generated_Source\PSoC6\pdl\cmsis/include/core_cm4.h **** #define DWT_CTRL_NOTRCPKT_Msk              (0x1UL << DWT_CTRL_NOTRCPKT_Pos)            /*!< DWT CTR
 947:Generated_Source\PSoC6\pdl\cmsis/include/core_cm4.h **** 
 948:Generated_Source\PSoC6\pdl\cmsis/include/core_cm4.h **** #define DWT_CTRL_NOEXTTRIG_Pos             26U                                         /*!< DWT CTR
 949:Generated_Source\PSoC6\pdl\cmsis/include/core_cm4.h **** #define DWT_CTRL_NOEXTTRIG_Msk             (0x1UL << DWT_CTRL_NOEXTTRIG_Pos)           /*!< DWT CTR
 950:Generated_Source\PSoC6\pdl\cmsis/include/core_cm4.h **** 
 951:Generated_Source\PSoC6\pdl\cmsis/include/core_cm4.h **** #define DWT_CTRL_NOCYCCNT_Pos              25U                                         /*!< DWT CTR
 952:Generated_Source\PSoC6\pdl\cmsis/include/core_cm4.h **** #define DWT_CTRL_NOCYCCNT_Msk              (0x1UL << DWT_CTRL_NOCYCCNT_Pos)            /*!< DWT CTR
 953:Generated_Source\PSoC6\pdl\cmsis/include/core_cm4.h **** 
 954:Generated_Source\PSoC6\pdl\cmsis/include/core_cm4.h **** #define DWT_CTRL_NOPRFCNT_Pos              24U                                         /*!< DWT CTR
 955:Generated_Source\PSoC6\pdl\cmsis/include/core_cm4.h **** #define DWT_CTRL_NOPRFCNT_Msk              (0x1UL << DWT_CTRL_NOPRFCNT_Pos)            /*!< DWT CTR
 956:Generated_Source\PSoC6\pdl\cmsis/include/core_cm4.h **** 
 957:Generated_Source\PSoC6\pdl\cmsis/include/core_cm4.h **** #define DWT_CTRL_CYCEVTENA_Pos             22U                                         /*!< DWT CTR
 958:Generated_Source\PSoC6\pdl\cmsis/include/core_cm4.h **** #define DWT_CTRL_CYCEVTENA_Msk             (0x1UL << DWT_CTRL_CYCEVTENA_Pos)           /*!< DWT CTR
 959:Generated_Source\PSoC6\pdl\cmsis/include/core_cm4.h **** 
 960:Generated_Source\PSoC6\pdl\cmsis/include/core_cm4.h **** #define DWT_CTRL_FOLDEVTENA_Pos            21U                                         /*!< DWT CTR
 961:Generated_Source\PSoC6\pdl\cmsis/include/core_cm4.h **** #define DWT_CTRL_FOLDEVTENA_Msk            (0x1UL << DWT_CTRL_FOLDEVTENA_Pos)          /*!< DWT CTR
 962:Generated_Source\PSoC6\pdl\cmsis/include/core_cm4.h **** 
 963:Generated_Source\PSoC6\pdl\cmsis/include/core_cm4.h **** #define DWT_CTRL_LSUEVTENA_Pos             20U                                         /*!< DWT CTR
 964:Generated_Source\PSoC6\pdl\cmsis/include/core_cm4.h **** #define DWT_CTRL_LSUEVTENA_Msk             (0x1UL << DWT_CTRL_LSUEVTENA_Pos)           /*!< DWT CTR
 965:Generated_Source\PSoC6\pdl\cmsis/include/core_cm4.h **** 
 966:Generated_Source\PSoC6\pdl\cmsis/include/core_cm4.h **** #define DWT_CTRL_SLEEPEVTENA_Pos           19U                                         /*!< DWT CTR
 967:Generated_Source\PSoC6\pdl\cmsis/include/core_cm4.h **** #define DWT_CTRL_SLEEPEVTENA_Msk           (0x1UL << DWT_CTRL_SLEEPEVTENA_Pos)         /*!< DWT CTR
 968:Generated_Source\PSoC6\pdl\cmsis/include/core_cm4.h **** 
 969:Generated_Source\PSoC6\pdl\cmsis/include/core_cm4.h **** #define DWT_CTRL_EXCEVTENA_Pos             18U                                         /*!< DWT CTR
 970:Generated_Source\PSoC6\pdl\cmsis/include/core_cm4.h **** #define DWT_CTRL_EXCEVTENA_Msk             (0x1UL << DWT_CTRL_EXCEVTENA_Pos)           /*!< DWT CTR
 971:Generated_Source\PSoC6\pdl\cmsis/include/core_cm4.h **** 
 972:Generated_Source\PSoC6\pdl\cmsis/include/core_cm4.h **** #define DWT_CTRL_CPIEVTENA_Pos             17U                                         /*!< DWT CTR
 973:Generated_Source\PSoC6\pdl\cmsis/include/core_cm4.h **** #define DWT_CTRL_CPIEVTENA_Msk             (0x1UL << DWT_CTRL_CPIEVTENA_Pos)           /*!< DWT CTR
 974:Generated_Source\PSoC6\pdl\cmsis/include/core_cm4.h **** 
 975:Generated_Source\PSoC6\pdl\cmsis/include/core_cm4.h **** #define DWT_CTRL_EXCTRCENA_Pos             16U                                         /*!< DWT CTR
 976:Generated_Source\PSoC6\pdl\cmsis/include/core_cm4.h **** #define DWT_CTRL_EXCTRCENA_Msk             (0x1UL << DWT_CTRL_EXCTRCENA_Pos)           /*!< DWT CTR
 977:Generated_Source\PSoC6\pdl\cmsis/include/core_cm4.h **** 
 978:Generated_Source\PSoC6\pdl\cmsis/include/core_cm4.h **** #define DWT_CTRL_PCSAMPLENA_Pos            12U                                         /*!< DWT CTR
 979:Generated_Source\PSoC6\pdl\cmsis/include/core_cm4.h **** #define DWT_CTRL_PCSAMPLENA_Msk            (0x1UL << DWT_CTRL_PCSAMPLENA_Pos)          /*!< DWT CTR
 980:Generated_Source\PSoC6\pdl\cmsis/include/core_cm4.h **** 
 981:Generated_Source\PSoC6\pdl\cmsis/include/core_cm4.h **** #define DWT_CTRL_SYNCTAP_Pos               10U                                         /*!< DWT CTR
 982:Generated_Source\PSoC6\pdl\cmsis/include/core_cm4.h **** #define DWT_CTRL_SYNCTAP_Msk               (0x3UL << DWT_CTRL_SYNCTAP_Pos)             /*!< DWT CTR
 983:Generated_Source\PSoC6\pdl\cmsis/include/core_cm4.h **** 
 984:Generated_Source\PSoC6\pdl\cmsis/include/core_cm4.h **** #define DWT_CTRL_CYCTAP_Pos                 9U                                         /*!< DWT CTR
 985:Generated_Source\PSoC6\pdl\cmsis/include/core_cm4.h **** #define DWT_CTRL_CYCTAP_Msk                (0x1UL << DWT_CTRL_CYCTAP_Pos)              /*!< DWT CTR
 986:Generated_Source\PSoC6\pdl\cmsis/include/core_cm4.h **** 
 987:Generated_Source\PSoC6\pdl\cmsis/include/core_cm4.h **** #define DWT_CTRL_POSTINIT_Pos               5U                                         /*!< DWT CTR
 988:Generated_Source\PSoC6\pdl\cmsis/include/core_cm4.h **** #define DWT_CTRL_POSTINIT_Msk              (0xFUL << DWT_CTRL_POSTINIT_Pos)            /*!< DWT CTR
 989:Generated_Source\PSoC6\pdl\cmsis/include/core_cm4.h **** 
 990:Generated_Source\PSoC6\pdl\cmsis/include/core_cm4.h **** #define DWT_CTRL_POSTPRESET_Pos             1U                                         /*!< DWT CTR
ARM GAS  C:\Users\Rolf\AppData\Local\Temp\cchK4Yuu.s 			page 26


 991:Generated_Source\PSoC6\pdl\cmsis/include/core_cm4.h **** #define DWT_CTRL_POSTPRESET_Msk            (0xFUL << DWT_CTRL_POSTPRESET_Pos)          /*!< DWT CTR
 992:Generated_Source\PSoC6\pdl\cmsis/include/core_cm4.h **** 
 993:Generated_Source\PSoC6\pdl\cmsis/include/core_cm4.h **** #define DWT_CTRL_CYCCNTENA_Pos              0U                                         /*!< DWT CTR
 994:Generated_Source\PSoC6\pdl\cmsis/include/core_cm4.h **** #define DWT_CTRL_CYCCNTENA_Msk             (0x1UL /*<< DWT_CTRL_CYCCNTENA_Pos*/)       /*!< DWT CTR
 995:Generated_Source\PSoC6\pdl\cmsis/include/core_cm4.h **** 
 996:Generated_Source\PSoC6\pdl\cmsis/include/core_cm4.h **** /* DWT CPI Count Register Definitions */
 997:Generated_Source\PSoC6\pdl\cmsis/include/core_cm4.h **** #define DWT_CPICNT_CPICNT_Pos               0U                                         /*!< DWT CPI
 998:Generated_Source\PSoC6\pdl\cmsis/include/core_cm4.h **** #define DWT_CPICNT_CPICNT_Msk              (0xFFUL /*<< DWT_CPICNT_CPICNT_Pos*/)       /*!< DWT CPI
 999:Generated_Source\PSoC6\pdl\cmsis/include/core_cm4.h **** 
1000:Generated_Source\PSoC6\pdl\cmsis/include/core_cm4.h **** /* DWT Exception Overhead Count Register Definitions */
1001:Generated_Source\PSoC6\pdl\cmsis/include/core_cm4.h **** #define DWT_EXCCNT_EXCCNT_Pos               0U                                         /*!< DWT EXC
1002:Generated_Source\PSoC6\pdl\cmsis/include/core_cm4.h **** #define DWT_EXCCNT_EXCCNT_Msk              (0xFFUL /*<< DWT_EXCCNT_EXCCNT_Pos*/)       /*!< DWT EXC
1003:Generated_Source\PSoC6\pdl\cmsis/include/core_cm4.h **** 
1004:Generated_Source\PSoC6\pdl\cmsis/include/core_cm4.h **** /* DWT Sleep Count Register Definitions */
1005:Generated_Source\PSoC6\pdl\cmsis/include/core_cm4.h **** #define DWT_SLEEPCNT_SLEEPCNT_Pos           0U                                         /*!< DWT SLE
1006:Generated_Source\PSoC6\pdl\cmsis/include/core_cm4.h **** #define DWT_SLEEPCNT_SLEEPCNT_Msk          (0xFFUL /*<< DWT_SLEEPCNT_SLEEPCNT_Pos*/)   /*!< DWT SLE
1007:Generated_Source\PSoC6\pdl\cmsis/include/core_cm4.h **** 
1008:Generated_Source\PSoC6\pdl\cmsis/include/core_cm4.h **** /* DWT LSU Count Register Definitions */
1009:Generated_Source\PSoC6\pdl\cmsis/include/core_cm4.h **** #define DWT_LSUCNT_LSUCNT_Pos               0U                                         /*!< DWT LSU
1010:Generated_Source\PSoC6\pdl\cmsis/include/core_cm4.h **** #define DWT_LSUCNT_LSUCNT_Msk              (0xFFUL /*<< DWT_LSUCNT_LSUCNT_Pos*/)       /*!< DWT LSU
1011:Generated_Source\PSoC6\pdl\cmsis/include/core_cm4.h **** 
1012:Generated_Source\PSoC6\pdl\cmsis/include/core_cm4.h **** /* DWT Folded-instruction Count Register Definitions */
1013:Generated_Source\PSoC6\pdl\cmsis/include/core_cm4.h **** #define DWT_FOLDCNT_FOLDCNT_Pos             0U                                         /*!< DWT FOL
1014:Generated_Source\PSoC6\pdl\cmsis/include/core_cm4.h **** #define DWT_FOLDCNT_FOLDCNT_Msk            (0xFFUL /*<< DWT_FOLDCNT_FOLDCNT_Pos*/)     /*!< DWT FOL
1015:Generated_Source\PSoC6\pdl\cmsis/include/core_cm4.h **** 
1016:Generated_Source\PSoC6\pdl\cmsis/include/core_cm4.h **** /* DWT Comparator Mask Register Definitions */
1017:Generated_Source\PSoC6\pdl\cmsis/include/core_cm4.h **** #define DWT_MASK_MASK_Pos                   0U                                         /*!< DWT MAS
1018:Generated_Source\PSoC6\pdl\cmsis/include/core_cm4.h **** #define DWT_MASK_MASK_Msk                  (0x1FUL /*<< DWT_MASK_MASK_Pos*/)           /*!< DWT MAS
1019:Generated_Source\PSoC6\pdl\cmsis/include/core_cm4.h **** 
1020:Generated_Source\PSoC6\pdl\cmsis/include/core_cm4.h **** /* DWT Comparator Function Register Definitions */
1021:Generated_Source\PSoC6\pdl\cmsis/include/core_cm4.h **** #define DWT_FUNCTION_MATCHED_Pos           24U                                         /*!< DWT FUN
1022:Generated_Source\PSoC6\pdl\cmsis/include/core_cm4.h **** #define DWT_FUNCTION_MATCHED_Msk           (0x1UL << DWT_FUNCTION_MATCHED_Pos)         /*!< DWT FUN
1023:Generated_Source\PSoC6\pdl\cmsis/include/core_cm4.h **** 
1024:Generated_Source\PSoC6\pdl\cmsis/include/core_cm4.h **** #define DWT_FUNCTION_DATAVADDR1_Pos        16U                                         /*!< DWT FUN
1025:Generated_Source\PSoC6\pdl\cmsis/include/core_cm4.h **** #define DWT_FUNCTION_DATAVADDR1_Msk        (0xFUL << DWT_FUNCTION_DATAVADDR1_Pos)      /*!< DWT FUN
1026:Generated_Source\PSoC6\pdl\cmsis/include/core_cm4.h **** 
1027:Generated_Source\PSoC6\pdl\cmsis/include/core_cm4.h **** #define DWT_FUNCTION_DATAVADDR0_Pos        12U                                         /*!< DWT FUN
1028:Generated_Source\PSoC6\pdl\cmsis/include/core_cm4.h **** #define DWT_FUNCTION_DATAVADDR0_Msk        (0xFUL << DWT_FUNCTION_DATAVADDR0_Pos)      /*!< DWT FUN
1029:Generated_Source\PSoC6\pdl\cmsis/include/core_cm4.h **** 
1030:Generated_Source\PSoC6\pdl\cmsis/include/core_cm4.h **** #define DWT_FUNCTION_DATAVSIZE_Pos         10U                                         /*!< DWT FUN
1031:Generated_Source\PSoC6\pdl\cmsis/include/core_cm4.h **** #define DWT_FUNCTION_DATAVSIZE_Msk         (0x3UL << DWT_FUNCTION_DATAVSIZE_Pos)       /*!< DWT FUN
1032:Generated_Source\PSoC6\pdl\cmsis/include/core_cm4.h **** 
1033:Generated_Source\PSoC6\pdl\cmsis/include/core_cm4.h **** #define DWT_FUNCTION_LNK1ENA_Pos            9U                                         /*!< DWT FUN
1034:Generated_Source\PSoC6\pdl\cmsis/include/core_cm4.h **** #define DWT_FUNCTION_LNK1ENA_Msk           (0x1UL << DWT_FUNCTION_LNK1ENA_Pos)         /*!< DWT FUN
1035:Generated_Source\PSoC6\pdl\cmsis/include/core_cm4.h **** 
1036:Generated_Source\PSoC6\pdl\cmsis/include/core_cm4.h **** #define DWT_FUNCTION_DATAVMATCH_Pos         8U                                         /*!< DWT FUN
1037:Generated_Source\PSoC6\pdl\cmsis/include/core_cm4.h **** #define DWT_FUNCTION_DATAVMATCH_Msk        (0x1UL << DWT_FUNCTION_DATAVMATCH_Pos)      /*!< DWT FUN
1038:Generated_Source\PSoC6\pdl\cmsis/include/core_cm4.h **** 
1039:Generated_Source\PSoC6\pdl\cmsis/include/core_cm4.h **** #define DWT_FUNCTION_CYCMATCH_Pos           7U                                         /*!< DWT FUN
1040:Generated_Source\PSoC6\pdl\cmsis/include/core_cm4.h **** #define DWT_FUNCTION_CYCMATCH_Msk          (0x1UL << DWT_FUNCTION_CYCMATCH_Pos)        /*!< DWT FUN
1041:Generated_Source\PSoC6\pdl\cmsis/include/core_cm4.h **** 
1042:Generated_Source\PSoC6\pdl\cmsis/include/core_cm4.h **** #define DWT_FUNCTION_EMITRANGE_Pos          5U                                         /*!< DWT FUN
1043:Generated_Source\PSoC6\pdl\cmsis/include/core_cm4.h **** #define DWT_FUNCTION_EMITRANGE_Msk         (0x1UL << DWT_FUNCTION_EMITRANGE_Pos)       /*!< DWT FUN
1044:Generated_Source\PSoC6\pdl\cmsis/include/core_cm4.h **** 
1045:Generated_Source\PSoC6\pdl\cmsis/include/core_cm4.h **** #define DWT_FUNCTION_FUNCTION_Pos           0U                                         /*!< DWT FUN
1046:Generated_Source\PSoC6\pdl\cmsis/include/core_cm4.h **** #define DWT_FUNCTION_FUNCTION_Msk          (0xFUL /*<< DWT_FUNCTION_FUNCTION_Pos*/)    /*!< DWT FUN
1047:Generated_Source\PSoC6\pdl\cmsis/include/core_cm4.h **** 
ARM GAS  C:\Users\Rolf\AppData\Local\Temp\cchK4Yuu.s 			page 27


1048:Generated_Source\PSoC6\pdl\cmsis/include/core_cm4.h **** /*@}*/ /* end of group CMSIS_DWT */
1049:Generated_Source\PSoC6\pdl\cmsis/include/core_cm4.h **** 
1050:Generated_Source\PSoC6\pdl\cmsis/include/core_cm4.h **** 
1051:Generated_Source\PSoC6\pdl\cmsis/include/core_cm4.h **** /**
1052:Generated_Source\PSoC6\pdl\cmsis/include/core_cm4.h ****   \ingroup  CMSIS_core_register
1053:Generated_Source\PSoC6\pdl\cmsis/include/core_cm4.h ****   \defgroup CMSIS_TPI     Trace Port Interface (TPI)
1054:Generated_Source\PSoC6\pdl\cmsis/include/core_cm4.h ****   \brief    Type definitions for the Trace Port Interface (TPI)
1055:Generated_Source\PSoC6\pdl\cmsis/include/core_cm4.h ****   @{
1056:Generated_Source\PSoC6\pdl\cmsis/include/core_cm4.h ****  */
1057:Generated_Source\PSoC6\pdl\cmsis/include/core_cm4.h **** 
1058:Generated_Source\PSoC6\pdl\cmsis/include/core_cm4.h **** /**
1059:Generated_Source\PSoC6\pdl\cmsis/include/core_cm4.h ****   \brief  Structure type to access the Trace Port Interface Register (TPI).
1060:Generated_Source\PSoC6\pdl\cmsis/include/core_cm4.h ****  */
1061:Generated_Source\PSoC6\pdl\cmsis/include/core_cm4.h **** typedef struct
1062:Generated_Source\PSoC6\pdl\cmsis/include/core_cm4.h **** {
1063:Generated_Source\PSoC6\pdl\cmsis/include/core_cm4.h ****   __IOM uint32_t SSPSR;                  /*!< Offset: 0x000 (R/ )  Supported Parallel Port Size Reg
1064:Generated_Source\PSoC6\pdl\cmsis/include/core_cm4.h ****   __IOM uint32_t CSPSR;                  /*!< Offset: 0x004 (R/W)  Current Parallel Port Size Regis
1065:Generated_Source\PSoC6\pdl\cmsis/include/core_cm4.h ****         uint32_t RESERVED0[2U];
1066:Generated_Source\PSoC6\pdl\cmsis/include/core_cm4.h ****   __IOM uint32_t ACPR;                   /*!< Offset: 0x010 (R/W)  Asynchronous Clock Prescaler Reg
1067:Generated_Source\PSoC6\pdl\cmsis/include/core_cm4.h ****         uint32_t RESERVED1[55U];
1068:Generated_Source\PSoC6\pdl\cmsis/include/core_cm4.h ****   __IOM uint32_t SPPR;                   /*!< Offset: 0x0F0 (R/W)  Selected Pin Protocol Register *
1069:Generated_Source\PSoC6\pdl\cmsis/include/core_cm4.h ****         uint32_t RESERVED2[131U];
1070:Generated_Source\PSoC6\pdl\cmsis/include/core_cm4.h ****   __IM  uint32_t FFSR;                   /*!< Offset: 0x300 (R/ )  Formatter and Flush Status Regis
1071:Generated_Source\PSoC6\pdl\cmsis/include/core_cm4.h ****   __IOM uint32_t FFCR;                   /*!< Offset: 0x304 (R/W)  Formatter and Flush Control Regi
1072:Generated_Source\PSoC6\pdl\cmsis/include/core_cm4.h ****   __IM  uint32_t FSCR;                   /*!< Offset: 0x308 (R/ )  Formatter Synchronization Counte
1073:Generated_Source\PSoC6\pdl\cmsis/include/core_cm4.h ****         uint32_t RESERVED3[759U];
1074:Generated_Source\PSoC6\pdl\cmsis/include/core_cm4.h ****   __IM  uint32_t TRIGGER;                /*!< Offset: 0xEE8 (R/ )  TRIGGER */
1075:Generated_Source\PSoC6\pdl\cmsis/include/core_cm4.h ****   __IM  uint32_t FIFO0;                  /*!< Offset: 0xEEC (R/ )  Integration ETM Data */
1076:Generated_Source\PSoC6\pdl\cmsis/include/core_cm4.h ****   __IM  uint32_t ITATBCTR2;              /*!< Offset: 0xEF0 (R/ )  ITATBCTR2 */
1077:Generated_Source\PSoC6\pdl\cmsis/include/core_cm4.h ****         uint32_t RESERVED4[1U];
1078:Generated_Source\PSoC6\pdl\cmsis/include/core_cm4.h ****   __IM  uint32_t ITATBCTR0;              /*!< Offset: 0xEF8 (R/ )  ITATBCTR0 */
1079:Generated_Source\PSoC6\pdl\cmsis/include/core_cm4.h ****   __IM  uint32_t FIFO1;                  /*!< Offset: 0xEFC (R/ )  Integration ITM Data */
1080:Generated_Source\PSoC6\pdl\cmsis/include/core_cm4.h ****   __IOM uint32_t ITCTRL;                 /*!< Offset: 0xF00 (R/W)  Integration Mode Control */
1081:Generated_Source\PSoC6\pdl\cmsis/include/core_cm4.h ****         uint32_t RESERVED5[39U];
1082:Generated_Source\PSoC6\pdl\cmsis/include/core_cm4.h ****   __IOM uint32_t CLAIMSET;               /*!< Offset: 0xFA0 (R/W)  Claim tag set */
1083:Generated_Source\PSoC6\pdl\cmsis/include/core_cm4.h ****   __IOM uint32_t CLAIMCLR;               /*!< Offset: 0xFA4 (R/W)  Claim tag clear */
1084:Generated_Source\PSoC6\pdl\cmsis/include/core_cm4.h ****         uint32_t RESERVED7[8U];
1085:Generated_Source\PSoC6\pdl\cmsis/include/core_cm4.h ****   __IM  uint32_t DEVID;                  /*!< Offset: 0xFC8 (R/ )  TPIU_DEVID */
1086:Generated_Source\PSoC6\pdl\cmsis/include/core_cm4.h ****   __IM  uint32_t DEVTYPE;                /*!< Offset: 0xFCC (R/ )  TPIU_DEVTYPE */
1087:Generated_Source\PSoC6\pdl\cmsis/include/core_cm4.h **** } TPI_Type;
1088:Generated_Source\PSoC6\pdl\cmsis/include/core_cm4.h **** 
1089:Generated_Source\PSoC6\pdl\cmsis/include/core_cm4.h **** /* TPI Asynchronous Clock Prescaler Register Definitions */
1090:Generated_Source\PSoC6\pdl\cmsis/include/core_cm4.h **** #define TPI_ACPR_PRESCALER_Pos              0U                                         /*!< @Deprec
1091:Generated_Source\PSoC6\pdl\cmsis/include/core_cm4.h **** #define TPI_ACPR_PRESCALER_Msk             (0x1FFFUL /*<< TPI_ACPR_PRESCALER_Pos*/)    /*!< @Deprec
1092:Generated_Source\PSoC6\pdl\cmsis/include/core_cm4.h **** 
1093:Generated_Source\PSoC6\pdl\cmsis/include/core_cm4.h **** #define TPI_ACPR_SWOSCALER_Pos              0U                                         /*!< TPI ACP
1094:Generated_Source\PSoC6\pdl\cmsis/include/core_cm4.h **** #define TPI_ACPR_SWOSCALER_Msk             (0xFFFFUL /*<< TPI_ACPR_SWOSCALER_Pos*/)    /*!< TPI ACP
1095:Generated_Source\PSoC6\pdl\cmsis/include/core_cm4.h **** 
1096:Generated_Source\PSoC6\pdl\cmsis/include/core_cm4.h **** /* TPI Selected Pin Protocol Register Definitions */
1097:Generated_Source\PSoC6\pdl\cmsis/include/core_cm4.h **** #define TPI_SPPR_TXMODE_Pos                 0U                                         /*!< TPI SPP
1098:Generated_Source\PSoC6\pdl\cmsis/include/core_cm4.h **** #define TPI_SPPR_TXMODE_Msk                (0x3UL /*<< TPI_SPPR_TXMODE_Pos*/)          /*!< TPI SPP
1099:Generated_Source\PSoC6\pdl\cmsis/include/core_cm4.h **** 
1100:Generated_Source\PSoC6\pdl\cmsis/include/core_cm4.h **** /* TPI Formatter and Flush Status Register Definitions */
1101:Generated_Source\PSoC6\pdl\cmsis/include/core_cm4.h **** #define TPI_FFSR_FtNonStop_Pos              3U                                         /*!< TPI FFS
1102:Generated_Source\PSoC6\pdl\cmsis/include/core_cm4.h **** #define TPI_FFSR_FtNonStop_Msk             (0x1UL << TPI_FFSR_FtNonStop_Pos)           /*!< TPI FFS
1103:Generated_Source\PSoC6\pdl\cmsis/include/core_cm4.h **** 
1104:Generated_Source\PSoC6\pdl\cmsis/include/core_cm4.h **** #define TPI_FFSR_TCPresent_Pos              2U                                         /*!< TPI FFS
ARM GAS  C:\Users\Rolf\AppData\Local\Temp\cchK4Yuu.s 			page 28


1105:Generated_Source\PSoC6\pdl\cmsis/include/core_cm4.h **** #define TPI_FFSR_TCPresent_Msk             (0x1UL << TPI_FFSR_TCPresent_Pos)           /*!< TPI FFS
1106:Generated_Source\PSoC6\pdl\cmsis/include/core_cm4.h **** 
1107:Generated_Source\PSoC6\pdl\cmsis/include/core_cm4.h **** #define TPI_FFSR_FtStopped_Pos              1U                                         /*!< TPI FFS
1108:Generated_Source\PSoC6\pdl\cmsis/include/core_cm4.h **** #define TPI_FFSR_FtStopped_Msk             (0x1UL << TPI_FFSR_FtStopped_Pos)           /*!< TPI FFS
1109:Generated_Source\PSoC6\pdl\cmsis/include/core_cm4.h **** 
1110:Generated_Source\PSoC6\pdl\cmsis/include/core_cm4.h **** #define TPI_FFSR_FlInProg_Pos               0U                                         /*!< TPI FFS
1111:Generated_Source\PSoC6\pdl\cmsis/include/core_cm4.h **** #define TPI_FFSR_FlInProg_Msk              (0x1UL /*<< TPI_FFSR_FlInProg_Pos*/)        /*!< TPI FFS
1112:Generated_Source\PSoC6\pdl\cmsis/include/core_cm4.h **** 
1113:Generated_Source\PSoC6\pdl\cmsis/include/core_cm4.h **** /* TPI Formatter and Flush Control Register Definitions */
1114:Generated_Source\PSoC6\pdl\cmsis/include/core_cm4.h **** #define TPI_FFCR_TrigIn_Pos                 8U                                         /*!< TPI FFC
1115:Generated_Source\PSoC6\pdl\cmsis/include/core_cm4.h **** #define TPI_FFCR_TrigIn_Msk                (0x1UL << TPI_FFCR_TrigIn_Pos)              /*!< TPI FFC
1116:Generated_Source\PSoC6\pdl\cmsis/include/core_cm4.h **** 
1117:Generated_Source\PSoC6\pdl\cmsis/include/core_cm4.h **** #define TPI_FFCR_EnFCont_Pos                1U                                         /*!< TPI FFC
1118:Generated_Source\PSoC6\pdl\cmsis/include/core_cm4.h **** #define TPI_FFCR_EnFCont_Msk               (0x1UL << TPI_FFCR_EnFCont_Pos)             /*!< TPI FFC
1119:Generated_Source\PSoC6\pdl\cmsis/include/core_cm4.h **** 
1120:Generated_Source\PSoC6\pdl\cmsis/include/core_cm4.h **** /* TPI TRIGGER Register Definitions */
1121:Generated_Source\PSoC6\pdl\cmsis/include/core_cm4.h **** #define TPI_TRIGGER_TRIGGER_Pos             0U                                         /*!< TPI TRI
1122:Generated_Source\PSoC6\pdl\cmsis/include/core_cm4.h **** #define TPI_TRIGGER_TRIGGER_Msk            (0x1UL /*<< TPI_TRIGGER_TRIGGER_Pos*/)      /*!< TPI TRI
1123:Generated_Source\PSoC6\pdl\cmsis/include/core_cm4.h **** 
1124:Generated_Source\PSoC6\pdl\cmsis/include/core_cm4.h **** /* TPI Integration ETM Data Register Definitions (FIFO0) */
1125:Generated_Source\PSoC6\pdl\cmsis/include/core_cm4.h **** #define TPI_FIFO0_ITM_ATVALID_Pos          29U                                         /*!< TPI FIF
1126:Generated_Source\PSoC6\pdl\cmsis/include/core_cm4.h **** #define TPI_FIFO0_ITM_ATVALID_Msk          (0x3UL << TPI_FIFO0_ITM_ATVALID_Pos)        /*!< TPI FIF
1127:Generated_Source\PSoC6\pdl\cmsis/include/core_cm4.h **** 
1128:Generated_Source\PSoC6\pdl\cmsis/include/core_cm4.h **** #define TPI_FIFO0_ITM_bytecount_Pos        27U                                         /*!< TPI FIF
1129:Generated_Source\PSoC6\pdl\cmsis/include/core_cm4.h **** #define TPI_FIFO0_ITM_bytecount_Msk        (0x3UL << TPI_FIFO0_ITM_bytecount_Pos)      /*!< TPI FIF
1130:Generated_Source\PSoC6\pdl\cmsis/include/core_cm4.h **** 
1131:Generated_Source\PSoC6\pdl\cmsis/include/core_cm4.h **** #define TPI_FIFO0_ETM_ATVALID_Pos          26U                                         /*!< TPI FIF
1132:Generated_Source\PSoC6\pdl\cmsis/include/core_cm4.h **** #define TPI_FIFO0_ETM_ATVALID_Msk          (0x3UL << TPI_FIFO0_ETM_ATVALID_Pos)        /*!< TPI FIF
1133:Generated_Source\PSoC6\pdl\cmsis/include/core_cm4.h **** 
1134:Generated_Source\PSoC6\pdl\cmsis/include/core_cm4.h **** #define TPI_FIFO0_ETM_bytecount_Pos        24U                                         /*!< TPI FIF
1135:Generated_Source\PSoC6\pdl\cmsis/include/core_cm4.h **** #define TPI_FIFO0_ETM_bytecount_Msk        (0x3UL << TPI_FIFO0_ETM_bytecount_Pos)      /*!< TPI FIF
1136:Generated_Source\PSoC6\pdl\cmsis/include/core_cm4.h **** 
1137:Generated_Source\PSoC6\pdl\cmsis/include/core_cm4.h **** #define TPI_FIFO0_ETM2_Pos                 16U                                         /*!< TPI FIF
1138:Generated_Source\PSoC6\pdl\cmsis/include/core_cm4.h **** #define TPI_FIFO0_ETM2_Msk                 (0xFFUL << TPI_FIFO0_ETM2_Pos)              /*!< TPI FIF
1139:Generated_Source\PSoC6\pdl\cmsis/include/core_cm4.h **** 
1140:Generated_Source\PSoC6\pdl\cmsis/include/core_cm4.h **** #define TPI_FIFO0_ETM1_Pos                  8U                                         /*!< TPI FIF
1141:Generated_Source\PSoC6\pdl\cmsis/include/core_cm4.h **** #define TPI_FIFO0_ETM1_Msk                 (0xFFUL << TPI_FIFO0_ETM1_Pos)              /*!< TPI FIF
1142:Generated_Source\PSoC6\pdl\cmsis/include/core_cm4.h **** 
1143:Generated_Source\PSoC6\pdl\cmsis/include/core_cm4.h **** #define TPI_FIFO0_ETM0_Pos                  0U                                         /*!< TPI FIF
1144:Generated_Source\PSoC6\pdl\cmsis/include/core_cm4.h **** #define TPI_FIFO0_ETM0_Msk                 (0xFFUL /*<< TPI_FIFO0_ETM0_Pos*/)          /*!< TPI FIF
1145:Generated_Source\PSoC6\pdl\cmsis/include/core_cm4.h **** 
1146:Generated_Source\PSoC6\pdl\cmsis/include/core_cm4.h **** /* TPI ITATBCTR2 Register Definitions */
1147:Generated_Source\PSoC6\pdl\cmsis/include/core_cm4.h **** #define TPI_ITATBCTR2_ATREADY_Pos           0U                                         /*!< TPI ITA
1148:Generated_Source\PSoC6\pdl\cmsis/include/core_cm4.h **** #define TPI_ITATBCTR2_ATREADY_Msk          (0x1UL /*<< TPI_ITATBCTR2_ATREADY_Pos*/)    /*!< TPI ITA
1149:Generated_Source\PSoC6\pdl\cmsis/include/core_cm4.h **** 
1150:Generated_Source\PSoC6\pdl\cmsis/include/core_cm4.h **** /* TPI Integration ITM Data Register Definitions (FIFO1) */
1151:Generated_Source\PSoC6\pdl\cmsis/include/core_cm4.h **** #define TPI_FIFO1_ITM_ATVALID_Pos          29U                                         /*!< TPI FIF
1152:Generated_Source\PSoC6\pdl\cmsis/include/core_cm4.h **** #define TPI_FIFO1_ITM_ATVALID_Msk          (0x3UL << TPI_FIFO1_ITM_ATVALID_Pos)        /*!< TPI FIF
1153:Generated_Source\PSoC6\pdl\cmsis/include/core_cm4.h **** 
1154:Generated_Source\PSoC6\pdl\cmsis/include/core_cm4.h **** #define TPI_FIFO1_ITM_bytecount_Pos        27U                                         /*!< TPI FIF
1155:Generated_Source\PSoC6\pdl\cmsis/include/core_cm4.h **** #define TPI_FIFO1_ITM_bytecount_Msk        (0x3UL << TPI_FIFO1_ITM_bytecount_Pos)      /*!< TPI FIF
1156:Generated_Source\PSoC6\pdl\cmsis/include/core_cm4.h **** 
1157:Generated_Source\PSoC6\pdl\cmsis/include/core_cm4.h **** #define TPI_FIFO1_ETM_ATVALID_Pos          26U                                         /*!< TPI FIF
1158:Generated_Source\PSoC6\pdl\cmsis/include/core_cm4.h **** #define TPI_FIFO1_ETM_ATVALID_Msk          (0x3UL << TPI_FIFO1_ETM_ATVALID_Pos)        /*!< TPI FIF
1159:Generated_Source\PSoC6\pdl\cmsis/include/core_cm4.h **** 
1160:Generated_Source\PSoC6\pdl\cmsis/include/core_cm4.h **** #define TPI_FIFO1_ETM_bytecount_Pos        24U                                         /*!< TPI FIF
1161:Generated_Source\PSoC6\pdl\cmsis/include/core_cm4.h **** #define TPI_FIFO1_ETM_bytecount_Msk        (0x3UL << TPI_FIFO1_ETM_bytecount_Pos)      /*!< TPI FIF
ARM GAS  C:\Users\Rolf\AppData\Local\Temp\cchK4Yuu.s 			page 29


1162:Generated_Source\PSoC6\pdl\cmsis/include/core_cm4.h **** 
1163:Generated_Source\PSoC6\pdl\cmsis/include/core_cm4.h **** #define TPI_FIFO1_ITM2_Pos                 16U                                         /*!< TPI FIF
1164:Generated_Source\PSoC6\pdl\cmsis/include/core_cm4.h **** #define TPI_FIFO1_ITM2_Msk                 (0xFFUL << TPI_FIFO1_ITM2_Pos)              /*!< TPI FIF
1165:Generated_Source\PSoC6\pdl\cmsis/include/core_cm4.h **** 
1166:Generated_Source\PSoC6\pdl\cmsis/include/core_cm4.h **** #define TPI_FIFO1_ITM1_Pos                  8U                                         /*!< TPI FIF
1167:Generated_Source\PSoC6\pdl\cmsis/include/core_cm4.h **** #define TPI_FIFO1_ITM1_Msk                 (0xFFUL << TPI_FIFO1_ITM1_Pos)              /*!< TPI FIF
1168:Generated_Source\PSoC6\pdl\cmsis/include/core_cm4.h **** 
1169:Generated_Source\PSoC6\pdl\cmsis/include/core_cm4.h **** #define TPI_FIFO1_ITM0_Pos                  0U                                         /*!< TPI FIF
1170:Generated_Source\PSoC6\pdl\cmsis/include/core_cm4.h **** #define TPI_FIFO1_ITM0_Msk                 (0xFFUL /*<< TPI_FIFO1_ITM0_Pos*/)          /*!< TPI FIF
1171:Generated_Source\PSoC6\pdl\cmsis/include/core_cm4.h **** 
1172:Generated_Source\PSoC6\pdl\cmsis/include/core_cm4.h **** /* TPI ITATBCTR0 Register Definitions */
1173:Generated_Source\PSoC6\pdl\cmsis/include/core_cm4.h **** #define TPI_ITATBCTR0_ATREADY_Pos           0U                                         /*!< TPI ITA
1174:Generated_Source\PSoC6\pdl\cmsis/include/core_cm4.h **** #define TPI_ITATBCTR0_ATREADY_Msk          (0x1UL /*<< TPI_ITATBCTR0_ATREADY_Pos*/)    /*!< TPI ITA
1175:Generated_Source\PSoC6\pdl\cmsis/include/core_cm4.h **** 
1176:Generated_Source\PSoC6\pdl\cmsis/include/core_cm4.h **** /* TPI Integration Mode Control Register Definitions */
1177:Generated_Source\PSoC6\pdl\cmsis/include/core_cm4.h **** #define TPI_ITCTRL_Mode_Pos                 0U                                         /*!< TPI ITC
1178:Generated_Source\PSoC6\pdl\cmsis/include/core_cm4.h **** #define TPI_ITCTRL_Mode_Msk                (0x1UL /*<< TPI_ITCTRL_Mode_Pos*/)          /*!< TPI ITC
1179:Generated_Source\PSoC6\pdl\cmsis/include/core_cm4.h **** 
1180:Generated_Source\PSoC6\pdl\cmsis/include/core_cm4.h **** /* TPI DEVID Register Definitions */
1181:Generated_Source\PSoC6\pdl\cmsis/include/core_cm4.h **** #define TPI_DEVID_NRZVALID_Pos             11U                                         /*!< TPI DEV
1182:Generated_Source\PSoC6\pdl\cmsis/include/core_cm4.h **** #define TPI_DEVID_NRZVALID_Msk             (0x1UL << TPI_DEVID_NRZVALID_Pos)           /*!< TPI DEV
1183:Generated_Source\PSoC6\pdl\cmsis/include/core_cm4.h **** 
1184:Generated_Source\PSoC6\pdl\cmsis/include/core_cm4.h **** #define TPI_DEVID_MANCVALID_Pos            10U                                         /*!< TPI DEV
1185:Generated_Source\PSoC6\pdl\cmsis/include/core_cm4.h **** #define TPI_DEVID_MANCVALID_Msk            (0x1UL << TPI_DEVID_MANCVALID_Pos)          /*!< TPI DEV
1186:Generated_Source\PSoC6\pdl\cmsis/include/core_cm4.h **** 
1187:Generated_Source\PSoC6\pdl\cmsis/include/core_cm4.h **** #define TPI_DEVID_PTINVALID_Pos             9U                                         /*!< TPI DEV
1188:Generated_Source\PSoC6\pdl\cmsis/include/core_cm4.h **** #define TPI_DEVID_PTINVALID_Msk            (0x1UL << TPI_DEVID_PTINVALID_Pos)          /*!< TPI DEV
1189:Generated_Source\PSoC6\pdl\cmsis/include/core_cm4.h **** 
1190:Generated_Source\PSoC6\pdl\cmsis/include/core_cm4.h **** #define TPI_DEVID_MinBufSz_Pos              6U                                         /*!< TPI DEV
1191:Generated_Source\PSoC6\pdl\cmsis/include/core_cm4.h **** #define TPI_DEVID_MinBufSz_Msk             (0x7UL << TPI_DEVID_MinBufSz_Pos)           /*!< TPI DEV
1192:Generated_Source\PSoC6\pdl\cmsis/include/core_cm4.h **** 
1193:Generated_Source\PSoC6\pdl\cmsis/include/core_cm4.h **** #define TPI_DEVID_AsynClkIn_Pos             5U                                         /*!< TPI DEV
1194:Generated_Source\PSoC6\pdl\cmsis/include/core_cm4.h **** #define TPI_DEVID_AsynClkIn_Msk            (0x1UL << TPI_DEVID_AsynClkIn_Pos)          /*!< TPI DEV
1195:Generated_Source\PSoC6\pdl\cmsis/include/core_cm4.h **** 
1196:Generated_Source\PSoC6\pdl\cmsis/include/core_cm4.h **** #define TPI_DEVID_NrTraceInput_Pos          0U                                         /*!< TPI DEV
1197:Generated_Source\PSoC6\pdl\cmsis/include/core_cm4.h **** #define TPI_DEVID_NrTraceInput_Msk         (0x1FUL /*<< TPI_DEVID_NrTraceInput_Pos*/)  /*!< TPI DEV
1198:Generated_Source\PSoC6\pdl\cmsis/include/core_cm4.h **** 
1199:Generated_Source\PSoC6\pdl\cmsis/include/core_cm4.h **** /* TPI DEVTYPE Register Definitions */
1200:Generated_Source\PSoC6\pdl\cmsis/include/core_cm4.h **** #define TPI_DEVTYPE_MajorType_Pos           4U                                         /*!< TPI DEV
1201:Generated_Source\PSoC6\pdl\cmsis/include/core_cm4.h **** #define TPI_DEVTYPE_MajorType_Msk          (0xFUL << TPI_DEVTYPE_MajorType_Pos)        /*!< TPI DEV
1202:Generated_Source\PSoC6\pdl\cmsis/include/core_cm4.h **** 
1203:Generated_Source\PSoC6\pdl\cmsis/include/core_cm4.h **** #define TPI_DEVTYPE_SubType_Pos             0U                                         /*!< TPI DEV
1204:Generated_Source\PSoC6\pdl\cmsis/include/core_cm4.h **** #define TPI_DEVTYPE_SubType_Msk            (0xFUL /*<< TPI_DEVTYPE_SubType_Pos*/)      /*!< TPI DEV
1205:Generated_Source\PSoC6\pdl\cmsis/include/core_cm4.h **** 
1206:Generated_Source\PSoC6\pdl\cmsis/include/core_cm4.h **** /*@}*/ /* end of group CMSIS_TPI */
1207:Generated_Source\PSoC6\pdl\cmsis/include/core_cm4.h **** 
1208:Generated_Source\PSoC6\pdl\cmsis/include/core_cm4.h **** 
1209:Generated_Source\PSoC6\pdl\cmsis/include/core_cm4.h **** #if defined (__MPU_PRESENT) && (__MPU_PRESENT == 1U)
1210:Generated_Source\PSoC6\pdl\cmsis/include/core_cm4.h **** /**
1211:Generated_Source\PSoC6\pdl\cmsis/include/core_cm4.h ****   \ingroup  CMSIS_core_register
1212:Generated_Source\PSoC6\pdl\cmsis/include/core_cm4.h ****   \defgroup CMSIS_MPU     Memory Protection Unit (MPU)
1213:Generated_Source\PSoC6\pdl\cmsis/include/core_cm4.h ****   \brief    Type definitions for the Memory Protection Unit (MPU)
1214:Generated_Source\PSoC6\pdl\cmsis/include/core_cm4.h ****   @{
1215:Generated_Source\PSoC6\pdl\cmsis/include/core_cm4.h ****  */
1216:Generated_Source\PSoC6\pdl\cmsis/include/core_cm4.h **** 
1217:Generated_Source\PSoC6\pdl\cmsis/include/core_cm4.h **** /**
1218:Generated_Source\PSoC6\pdl\cmsis/include/core_cm4.h ****   \brief  Structure type to access the Memory Protection Unit (MPU).
ARM GAS  C:\Users\Rolf\AppData\Local\Temp\cchK4Yuu.s 			page 30


1219:Generated_Source\PSoC6\pdl\cmsis/include/core_cm4.h ****  */
1220:Generated_Source\PSoC6\pdl\cmsis/include/core_cm4.h **** typedef struct
1221:Generated_Source\PSoC6\pdl\cmsis/include/core_cm4.h **** {
1222:Generated_Source\PSoC6\pdl\cmsis/include/core_cm4.h ****   __IM  uint32_t TYPE;                   /*!< Offset: 0x000 (R/ )  MPU Type Register */
1223:Generated_Source\PSoC6\pdl\cmsis/include/core_cm4.h ****   __IOM uint32_t CTRL;                   /*!< Offset: 0x004 (R/W)  MPU Control Register */
1224:Generated_Source\PSoC6\pdl\cmsis/include/core_cm4.h ****   __IOM uint32_t RNR;                    /*!< Offset: 0x008 (R/W)  MPU Region RNRber Register */
1225:Generated_Source\PSoC6\pdl\cmsis/include/core_cm4.h ****   __IOM uint32_t RBAR;                   /*!< Offset: 0x00C (R/W)  MPU Region Base Address Register
1226:Generated_Source\PSoC6\pdl\cmsis/include/core_cm4.h ****   __IOM uint32_t RASR;                   /*!< Offset: 0x010 (R/W)  MPU Region Attribute and Size Re
1227:Generated_Source\PSoC6\pdl\cmsis/include/core_cm4.h ****   __IOM uint32_t RBAR_A1;                /*!< Offset: 0x014 (R/W)  MPU Alias 1 Region Base Address 
1228:Generated_Source\PSoC6\pdl\cmsis/include/core_cm4.h ****   __IOM uint32_t RASR_A1;                /*!< Offset: 0x018 (R/W)  MPU Alias 1 Region Attribute and
1229:Generated_Source\PSoC6\pdl\cmsis/include/core_cm4.h ****   __IOM uint32_t RBAR_A2;                /*!< Offset: 0x01C (R/W)  MPU Alias 2 Region Base Address 
1230:Generated_Source\PSoC6\pdl\cmsis/include/core_cm4.h ****   __IOM uint32_t RASR_A2;                /*!< Offset: 0x020 (R/W)  MPU Alias 2 Region Attribute and
1231:Generated_Source\PSoC6\pdl\cmsis/include/core_cm4.h ****   __IOM uint32_t RBAR_A3;                /*!< Offset: 0x024 (R/W)  MPU Alias 3 Region Base Address 
1232:Generated_Source\PSoC6\pdl\cmsis/include/core_cm4.h ****   __IOM uint32_t RASR_A3;                /*!< Offset: 0x028 (R/W)  MPU Alias 3 Region Attribute and
1233:Generated_Source\PSoC6\pdl\cmsis/include/core_cm4.h **** } MPU_Type;
1234:Generated_Source\PSoC6\pdl\cmsis/include/core_cm4.h **** 
1235:Generated_Source\PSoC6\pdl\cmsis/include/core_cm4.h **** #define MPU_TYPE_RALIASES                  4U
1236:Generated_Source\PSoC6\pdl\cmsis/include/core_cm4.h **** 
1237:Generated_Source\PSoC6\pdl\cmsis/include/core_cm4.h **** /* MPU Type Register Definitions */
1238:Generated_Source\PSoC6\pdl\cmsis/include/core_cm4.h **** #define MPU_TYPE_IREGION_Pos               16U                                            /*!< MPU 
1239:Generated_Source\PSoC6\pdl\cmsis/include/core_cm4.h **** #define MPU_TYPE_IREGION_Msk               (0xFFUL << MPU_TYPE_IREGION_Pos)               /*!< MPU 
1240:Generated_Source\PSoC6\pdl\cmsis/include/core_cm4.h **** 
1241:Generated_Source\PSoC6\pdl\cmsis/include/core_cm4.h **** #define MPU_TYPE_DREGION_Pos                8U                                            /*!< MPU 
1242:Generated_Source\PSoC6\pdl\cmsis/include/core_cm4.h **** #define MPU_TYPE_DREGION_Msk               (0xFFUL << MPU_TYPE_DREGION_Pos)               /*!< MPU 
1243:Generated_Source\PSoC6\pdl\cmsis/include/core_cm4.h **** 
1244:Generated_Source\PSoC6\pdl\cmsis/include/core_cm4.h **** #define MPU_TYPE_SEPARATE_Pos               0U                                            /*!< MPU 
1245:Generated_Source\PSoC6\pdl\cmsis/include/core_cm4.h **** #define MPU_TYPE_SEPARATE_Msk              (1UL /*<< MPU_TYPE_SEPARATE_Pos*/)             /*!< MPU 
1246:Generated_Source\PSoC6\pdl\cmsis/include/core_cm4.h **** 
1247:Generated_Source\PSoC6\pdl\cmsis/include/core_cm4.h **** /* MPU Control Register Definitions */
1248:Generated_Source\PSoC6\pdl\cmsis/include/core_cm4.h **** #define MPU_CTRL_PRIVDEFENA_Pos             2U                                            /*!< MPU 
1249:Generated_Source\PSoC6\pdl\cmsis/include/core_cm4.h **** #define MPU_CTRL_PRIVDEFENA_Msk            (1UL << MPU_CTRL_PRIVDEFENA_Pos)               /*!< MPU 
1250:Generated_Source\PSoC6\pdl\cmsis/include/core_cm4.h **** 
1251:Generated_Source\PSoC6\pdl\cmsis/include/core_cm4.h **** #define MPU_CTRL_HFNMIENA_Pos               1U                                            /*!< MPU 
1252:Generated_Source\PSoC6\pdl\cmsis/include/core_cm4.h **** #define MPU_CTRL_HFNMIENA_Msk              (1UL << MPU_CTRL_HFNMIENA_Pos)                 /*!< MPU 
1253:Generated_Source\PSoC6\pdl\cmsis/include/core_cm4.h **** 
1254:Generated_Source\PSoC6\pdl\cmsis/include/core_cm4.h **** #define MPU_CTRL_ENABLE_Pos                 0U                                            /*!< MPU 
1255:Generated_Source\PSoC6\pdl\cmsis/include/core_cm4.h **** #define MPU_CTRL_ENABLE_Msk                (1UL /*<< MPU_CTRL_ENABLE_Pos*/)               /*!< MPU 
1256:Generated_Source\PSoC6\pdl\cmsis/include/core_cm4.h **** 
1257:Generated_Source\PSoC6\pdl\cmsis/include/core_cm4.h **** /* MPU Region Number Register Definitions */
1258:Generated_Source\PSoC6\pdl\cmsis/include/core_cm4.h **** #define MPU_RNR_REGION_Pos                  0U                                            /*!< MPU 
1259:Generated_Source\PSoC6\pdl\cmsis/include/core_cm4.h **** #define MPU_RNR_REGION_Msk                 (0xFFUL /*<< MPU_RNR_REGION_Pos*/)             /*!< MPU 
1260:Generated_Source\PSoC6\pdl\cmsis/include/core_cm4.h **** 
1261:Generated_Source\PSoC6\pdl\cmsis/include/core_cm4.h **** /* MPU Region Base Address Register Definitions */
1262:Generated_Source\PSoC6\pdl\cmsis/include/core_cm4.h **** #define MPU_RBAR_ADDR_Pos                   5U                                            /*!< MPU 
1263:Generated_Source\PSoC6\pdl\cmsis/include/core_cm4.h **** #define MPU_RBAR_ADDR_Msk                  (0x7FFFFFFUL << MPU_RBAR_ADDR_Pos)             /*!< MPU 
1264:Generated_Source\PSoC6\pdl\cmsis/include/core_cm4.h **** 
1265:Generated_Source\PSoC6\pdl\cmsis/include/core_cm4.h **** #define MPU_RBAR_VALID_Pos                  4U                                            /*!< MPU 
1266:Generated_Source\PSoC6\pdl\cmsis/include/core_cm4.h **** #define MPU_RBAR_VALID_Msk                 (1UL << MPU_RBAR_VALID_Pos)                    /*!< MPU 
1267:Generated_Source\PSoC6\pdl\cmsis/include/core_cm4.h **** 
1268:Generated_Source\PSoC6\pdl\cmsis/include/core_cm4.h **** #define MPU_RBAR_REGION_Pos                 0U                                            /*!< MPU 
1269:Generated_Source\PSoC6\pdl\cmsis/include/core_cm4.h **** #define MPU_RBAR_REGION_Msk                (0xFUL /*<< MPU_RBAR_REGION_Pos*/)             /*!< MPU 
1270:Generated_Source\PSoC6\pdl\cmsis/include/core_cm4.h **** 
1271:Generated_Source\PSoC6\pdl\cmsis/include/core_cm4.h **** /* MPU Region Attribute and Size Register Definitions */
1272:Generated_Source\PSoC6\pdl\cmsis/include/core_cm4.h **** #define MPU_RASR_ATTRS_Pos                 16U                                            /*!< MPU 
1273:Generated_Source\PSoC6\pdl\cmsis/include/core_cm4.h **** #define MPU_RASR_ATTRS_Msk                 (0xFFFFUL << MPU_RASR_ATTRS_Pos)               /*!< MPU 
1274:Generated_Source\PSoC6\pdl\cmsis/include/core_cm4.h **** 
1275:Generated_Source\PSoC6\pdl\cmsis/include/core_cm4.h **** #define MPU_RASR_XN_Pos                    28U                                            /*!< MPU 
ARM GAS  C:\Users\Rolf\AppData\Local\Temp\cchK4Yuu.s 			page 31


1276:Generated_Source\PSoC6\pdl\cmsis/include/core_cm4.h **** #define MPU_RASR_XN_Msk                    (1UL << MPU_RASR_XN_Pos)                       /*!< MPU 
1277:Generated_Source\PSoC6\pdl\cmsis/include/core_cm4.h **** 
1278:Generated_Source\PSoC6\pdl\cmsis/include/core_cm4.h **** #define MPU_RASR_AP_Pos                    24U                                            /*!< MPU 
1279:Generated_Source\PSoC6\pdl\cmsis/include/core_cm4.h **** #define MPU_RASR_AP_Msk                    (0x7UL << MPU_RASR_AP_Pos)                     /*!< MPU 
1280:Generated_Source\PSoC6\pdl\cmsis/include/core_cm4.h **** 
1281:Generated_Source\PSoC6\pdl\cmsis/include/core_cm4.h **** #define MPU_RASR_TEX_Pos                   19U                                            /*!< MPU 
1282:Generated_Source\PSoC6\pdl\cmsis/include/core_cm4.h **** #define MPU_RASR_TEX_Msk                   (0x7UL << MPU_RASR_TEX_Pos)                    /*!< MPU 
1283:Generated_Source\PSoC6\pdl\cmsis/include/core_cm4.h **** 
1284:Generated_Source\PSoC6\pdl\cmsis/include/core_cm4.h **** #define MPU_RASR_S_Pos                     18U                                            /*!< MPU 
1285:Generated_Source\PSoC6\pdl\cmsis/include/core_cm4.h **** #define MPU_RASR_S_Msk                     (1UL << MPU_RASR_S_Pos)                        /*!< MPU 
1286:Generated_Source\PSoC6\pdl\cmsis/include/core_cm4.h **** 
1287:Generated_Source\PSoC6\pdl\cmsis/include/core_cm4.h **** #define MPU_RASR_C_Pos                     17U                                            /*!< MPU 
1288:Generated_Source\PSoC6\pdl\cmsis/include/core_cm4.h **** #define MPU_RASR_C_Msk                     (1UL << MPU_RASR_C_Pos)                        /*!< MPU 
1289:Generated_Source\PSoC6\pdl\cmsis/include/core_cm4.h **** 
1290:Generated_Source\PSoC6\pdl\cmsis/include/core_cm4.h **** #define MPU_RASR_B_Pos                     16U                                            /*!< MPU 
1291:Generated_Source\PSoC6\pdl\cmsis/include/core_cm4.h **** #define MPU_RASR_B_Msk                     (1UL << MPU_RASR_B_Pos)                        /*!< MPU 
1292:Generated_Source\PSoC6\pdl\cmsis/include/core_cm4.h **** 
1293:Generated_Source\PSoC6\pdl\cmsis/include/core_cm4.h **** #define MPU_RASR_SRD_Pos                    8U                                            /*!< MPU 
1294:Generated_Source\PSoC6\pdl\cmsis/include/core_cm4.h **** #define MPU_RASR_SRD_Msk                   (0xFFUL << MPU_RASR_SRD_Pos)                   /*!< MPU 
1295:Generated_Source\PSoC6\pdl\cmsis/include/core_cm4.h **** 
1296:Generated_Source\PSoC6\pdl\cmsis/include/core_cm4.h **** #define MPU_RASR_SIZE_Pos                   1U                                            /*!< MPU 
1297:Generated_Source\PSoC6\pdl\cmsis/include/core_cm4.h **** #define MPU_RASR_SIZE_Msk                  (0x1FUL << MPU_RASR_SIZE_Pos)                  /*!< MPU 
1298:Generated_Source\PSoC6\pdl\cmsis/include/core_cm4.h **** 
1299:Generated_Source\PSoC6\pdl\cmsis/include/core_cm4.h **** #define MPU_RASR_ENABLE_Pos                 0U                                            /*!< MPU 
1300:Generated_Source\PSoC6\pdl\cmsis/include/core_cm4.h **** #define MPU_RASR_ENABLE_Msk                (1UL /*<< MPU_RASR_ENABLE_Pos*/)               /*!< MPU 
1301:Generated_Source\PSoC6\pdl\cmsis/include/core_cm4.h **** 
1302:Generated_Source\PSoC6\pdl\cmsis/include/core_cm4.h **** /*@} end of group CMSIS_MPU */
1303:Generated_Source\PSoC6\pdl\cmsis/include/core_cm4.h **** #endif /* defined (__MPU_PRESENT) && (__MPU_PRESENT == 1U) */
1304:Generated_Source\PSoC6\pdl\cmsis/include/core_cm4.h **** 
1305:Generated_Source\PSoC6\pdl\cmsis/include/core_cm4.h **** 
1306:Generated_Source\PSoC6\pdl\cmsis/include/core_cm4.h **** /**
1307:Generated_Source\PSoC6\pdl\cmsis/include/core_cm4.h ****   \ingroup  CMSIS_core_register
1308:Generated_Source\PSoC6\pdl\cmsis/include/core_cm4.h ****   \defgroup CMSIS_FPU     Floating Point Unit (FPU)
1309:Generated_Source\PSoC6\pdl\cmsis/include/core_cm4.h ****   \brief    Type definitions for the Floating Point Unit (FPU)
1310:Generated_Source\PSoC6\pdl\cmsis/include/core_cm4.h ****   @{
1311:Generated_Source\PSoC6\pdl\cmsis/include/core_cm4.h ****  */
1312:Generated_Source\PSoC6\pdl\cmsis/include/core_cm4.h **** 
1313:Generated_Source\PSoC6\pdl\cmsis/include/core_cm4.h **** /**
1314:Generated_Source\PSoC6\pdl\cmsis/include/core_cm4.h ****   \brief  Structure type to access the Floating Point Unit (FPU).
1315:Generated_Source\PSoC6\pdl\cmsis/include/core_cm4.h ****  */
1316:Generated_Source\PSoC6\pdl\cmsis/include/core_cm4.h **** typedef struct
1317:Generated_Source\PSoC6\pdl\cmsis/include/core_cm4.h **** {
1318:Generated_Source\PSoC6\pdl\cmsis/include/core_cm4.h ****         uint32_t RESERVED0[1U];
1319:Generated_Source\PSoC6\pdl\cmsis/include/core_cm4.h ****   __IOM uint32_t FPCCR;                  /*!< Offset: 0x004 (R/W)  Floating-Point Context Control R
1320:Generated_Source\PSoC6\pdl\cmsis/include/core_cm4.h ****   __IOM uint32_t FPCAR;                  /*!< Offset: 0x008 (R/W)  Floating-Point Context Address R
1321:Generated_Source\PSoC6\pdl\cmsis/include/core_cm4.h ****   __IOM uint32_t FPDSCR;                 /*!< Offset: 0x00C (R/W)  Floating-Point Default Status Co
1322:Generated_Source\PSoC6\pdl\cmsis/include/core_cm4.h ****   __IM  uint32_t MVFR0;                  /*!< Offset: 0x010 (R/ )  Media and FP Feature Register 0 
1323:Generated_Source\PSoC6\pdl\cmsis/include/core_cm4.h ****   __IM  uint32_t MVFR1;                  /*!< Offset: 0x014 (R/ )  Media and FP Feature Register 1 
1324:Generated_Source\PSoC6\pdl\cmsis/include/core_cm4.h **** } FPU_Type;
1325:Generated_Source\PSoC6\pdl\cmsis/include/core_cm4.h **** 
1326:Generated_Source\PSoC6\pdl\cmsis/include/core_cm4.h **** /* Floating-Point Context Control Register Definitions */
1327:Generated_Source\PSoC6\pdl\cmsis/include/core_cm4.h **** #define FPU_FPCCR_ASPEN_Pos                31U                                            /*!< FPCC
1328:Generated_Source\PSoC6\pdl\cmsis/include/core_cm4.h **** #define FPU_FPCCR_ASPEN_Msk                (1UL << FPU_FPCCR_ASPEN_Pos)                   /*!< FPCC
1329:Generated_Source\PSoC6\pdl\cmsis/include/core_cm4.h **** 
1330:Generated_Source\PSoC6\pdl\cmsis/include/core_cm4.h **** #define FPU_FPCCR_LSPEN_Pos                30U                                            /*!< FPCC
1331:Generated_Source\PSoC6\pdl\cmsis/include/core_cm4.h **** #define FPU_FPCCR_LSPEN_Msk                (1UL << FPU_FPCCR_LSPEN_Pos)                   /*!< FPCC
1332:Generated_Source\PSoC6\pdl\cmsis/include/core_cm4.h **** 
ARM GAS  C:\Users\Rolf\AppData\Local\Temp\cchK4Yuu.s 			page 32


1333:Generated_Source\PSoC6\pdl\cmsis/include/core_cm4.h **** #define FPU_FPCCR_MONRDY_Pos                8U                                            /*!< FPCC
1334:Generated_Source\PSoC6\pdl\cmsis/include/core_cm4.h **** #define FPU_FPCCR_MONRDY_Msk               (1UL << FPU_FPCCR_MONRDY_Pos)                  /*!< FPCC
1335:Generated_Source\PSoC6\pdl\cmsis/include/core_cm4.h **** 
1336:Generated_Source\PSoC6\pdl\cmsis/include/core_cm4.h **** #define FPU_FPCCR_BFRDY_Pos                 6U                                            /*!< FPCC
1337:Generated_Source\PSoC6\pdl\cmsis/include/core_cm4.h **** #define FPU_FPCCR_BFRDY_Msk                (1UL << FPU_FPCCR_BFRDY_Pos)                   /*!< FPCC
1338:Generated_Source\PSoC6\pdl\cmsis/include/core_cm4.h **** 
1339:Generated_Source\PSoC6\pdl\cmsis/include/core_cm4.h **** #define FPU_FPCCR_MMRDY_Pos                 5U                                            /*!< FPCC
1340:Generated_Source\PSoC6\pdl\cmsis/include/core_cm4.h **** #define FPU_FPCCR_MMRDY_Msk                (1UL << FPU_FPCCR_MMRDY_Pos)                   /*!< FPCC
1341:Generated_Source\PSoC6\pdl\cmsis/include/core_cm4.h **** 
1342:Generated_Source\PSoC6\pdl\cmsis/include/core_cm4.h **** #define FPU_FPCCR_HFRDY_Pos                 4U                                            /*!< FPCC
1343:Generated_Source\PSoC6\pdl\cmsis/include/core_cm4.h **** #define FPU_FPCCR_HFRDY_Msk                (1UL << FPU_FPCCR_HFRDY_Pos)                   /*!< FPCC
1344:Generated_Source\PSoC6\pdl\cmsis/include/core_cm4.h **** 
1345:Generated_Source\PSoC6\pdl\cmsis/include/core_cm4.h **** #define FPU_FPCCR_THREAD_Pos                3U                                            /*!< FPCC
1346:Generated_Source\PSoC6\pdl\cmsis/include/core_cm4.h **** #define FPU_FPCCR_THREAD_Msk               (1UL << FPU_FPCCR_THREAD_Pos)                  /*!< FPCC
1347:Generated_Source\PSoC6\pdl\cmsis/include/core_cm4.h **** 
1348:Generated_Source\PSoC6\pdl\cmsis/include/core_cm4.h **** #define FPU_FPCCR_USER_Pos                  1U                                            /*!< FPCC
1349:Generated_Source\PSoC6\pdl\cmsis/include/core_cm4.h **** #define FPU_FPCCR_USER_Msk                 (1UL << FPU_FPCCR_USER_Pos)                    /*!< FPCC
1350:Generated_Source\PSoC6\pdl\cmsis/include/core_cm4.h **** 
1351:Generated_Source\PSoC6\pdl\cmsis/include/core_cm4.h **** #define FPU_FPCCR_LSPACT_Pos                0U                                            /*!< FPCC
1352:Generated_Source\PSoC6\pdl\cmsis/include/core_cm4.h **** #define FPU_FPCCR_LSPACT_Msk               (1UL /*<< FPU_FPCCR_LSPACT_Pos*/)              /*!< FPCC
1353:Generated_Source\PSoC6\pdl\cmsis/include/core_cm4.h **** 
1354:Generated_Source\PSoC6\pdl\cmsis/include/core_cm4.h **** /* Floating-Point Context Address Register Definitions */
1355:Generated_Source\PSoC6\pdl\cmsis/include/core_cm4.h **** #define FPU_FPCAR_ADDRESS_Pos               3U                                            /*!< FPCA
1356:Generated_Source\PSoC6\pdl\cmsis/include/core_cm4.h **** #define FPU_FPCAR_ADDRESS_Msk              (0x1FFFFFFFUL << FPU_FPCAR_ADDRESS_Pos)        /*!< FPCA
1357:Generated_Source\PSoC6\pdl\cmsis/include/core_cm4.h **** 
1358:Generated_Source\PSoC6\pdl\cmsis/include/core_cm4.h **** /* Floating-Point Default Status Control Register Definitions */
1359:Generated_Source\PSoC6\pdl\cmsis/include/core_cm4.h **** #define FPU_FPDSCR_AHP_Pos                 26U                                            /*!< FPDS
1360:Generated_Source\PSoC6\pdl\cmsis/include/core_cm4.h **** #define FPU_FPDSCR_AHP_Msk                 (1UL << FPU_FPDSCR_AHP_Pos)                    /*!< FPDS
1361:Generated_Source\PSoC6\pdl\cmsis/include/core_cm4.h **** 
1362:Generated_Source\PSoC6\pdl\cmsis/include/core_cm4.h **** #define FPU_FPDSCR_DN_Pos                  25U                                            /*!< FPDS
1363:Generated_Source\PSoC6\pdl\cmsis/include/core_cm4.h **** #define FPU_FPDSCR_DN_Msk                  (1UL << FPU_FPDSCR_DN_Pos)                     /*!< FPDS
1364:Generated_Source\PSoC6\pdl\cmsis/include/core_cm4.h **** 
1365:Generated_Source\PSoC6\pdl\cmsis/include/core_cm4.h **** #define FPU_FPDSCR_FZ_Pos                  24U                                            /*!< FPDS
1366:Generated_Source\PSoC6\pdl\cmsis/include/core_cm4.h **** #define FPU_FPDSCR_FZ_Msk                  (1UL << FPU_FPDSCR_FZ_Pos)                     /*!< FPDS
1367:Generated_Source\PSoC6\pdl\cmsis/include/core_cm4.h **** 
1368:Generated_Source\PSoC6\pdl\cmsis/include/core_cm4.h **** #define FPU_FPDSCR_RMode_Pos               22U                                            /*!< FPDS
1369:Generated_Source\PSoC6\pdl\cmsis/include/core_cm4.h **** #define FPU_FPDSCR_RMode_Msk               (3UL << FPU_FPDSCR_RMode_Pos)                  /*!< FPDS
1370:Generated_Source\PSoC6\pdl\cmsis/include/core_cm4.h **** 
1371:Generated_Source\PSoC6\pdl\cmsis/include/core_cm4.h **** /* Media and FP Feature Register 0 Definitions */
1372:Generated_Source\PSoC6\pdl\cmsis/include/core_cm4.h **** #define FPU_MVFR0_FP_rounding_modes_Pos    28U                                            /*!< MVFR
1373:Generated_Source\PSoC6\pdl\cmsis/include/core_cm4.h **** #define FPU_MVFR0_FP_rounding_modes_Msk    (0xFUL << FPU_MVFR0_FP_rounding_modes_Pos)     /*!< MVFR
1374:Generated_Source\PSoC6\pdl\cmsis/include/core_cm4.h **** 
1375:Generated_Source\PSoC6\pdl\cmsis/include/core_cm4.h **** #define FPU_MVFR0_Short_vectors_Pos        24U                                            /*!< MVFR
1376:Generated_Source\PSoC6\pdl\cmsis/include/core_cm4.h **** #define FPU_MVFR0_Short_vectors_Msk        (0xFUL << FPU_MVFR0_Short_vectors_Pos)         /*!< MVFR
1377:Generated_Source\PSoC6\pdl\cmsis/include/core_cm4.h **** 
1378:Generated_Source\PSoC6\pdl\cmsis/include/core_cm4.h **** #define FPU_MVFR0_Square_root_Pos          20U                                            /*!< MVFR
1379:Generated_Source\PSoC6\pdl\cmsis/include/core_cm4.h **** #define FPU_MVFR0_Square_root_Msk          (0xFUL << FPU_MVFR0_Square_root_Pos)           /*!< MVFR
1380:Generated_Source\PSoC6\pdl\cmsis/include/core_cm4.h **** 
1381:Generated_Source\PSoC6\pdl\cmsis/include/core_cm4.h **** #define FPU_MVFR0_Divide_Pos               16U                                            /*!< MVFR
1382:Generated_Source\PSoC6\pdl\cmsis/include/core_cm4.h **** #define FPU_MVFR0_Divide_Msk               (0xFUL << FPU_MVFR0_Divide_Pos)                /*!< MVFR
1383:Generated_Source\PSoC6\pdl\cmsis/include/core_cm4.h **** 
1384:Generated_Source\PSoC6\pdl\cmsis/include/core_cm4.h **** #define FPU_MVFR0_FP_excep_trapping_Pos    12U                                            /*!< MVFR
1385:Generated_Source\PSoC6\pdl\cmsis/include/core_cm4.h **** #define FPU_MVFR0_FP_excep_trapping_Msk    (0xFUL << FPU_MVFR0_FP_excep_trapping_Pos)     /*!< MVFR
1386:Generated_Source\PSoC6\pdl\cmsis/include/core_cm4.h **** 
1387:Generated_Source\PSoC6\pdl\cmsis/include/core_cm4.h **** #define FPU_MVFR0_Double_precision_Pos      8U                                            /*!< MVFR
1388:Generated_Source\PSoC6\pdl\cmsis/include/core_cm4.h **** #define FPU_MVFR0_Double_precision_Msk     (0xFUL << FPU_MVFR0_Double_precision_Pos)      /*!< MVFR
1389:Generated_Source\PSoC6\pdl\cmsis/include/core_cm4.h **** 
ARM GAS  C:\Users\Rolf\AppData\Local\Temp\cchK4Yuu.s 			page 33


1390:Generated_Source\PSoC6\pdl\cmsis/include/core_cm4.h **** #define FPU_MVFR0_Single_precision_Pos      4U                                            /*!< MVFR
1391:Generated_Source\PSoC6\pdl\cmsis/include/core_cm4.h **** #define FPU_MVFR0_Single_precision_Msk     (0xFUL << FPU_MVFR0_Single_precision_Pos)      /*!< MVFR
1392:Generated_Source\PSoC6\pdl\cmsis/include/core_cm4.h **** 
1393:Generated_Source\PSoC6\pdl\cmsis/include/core_cm4.h **** #define FPU_MVFR0_A_SIMD_registers_Pos      0U                                            /*!< MVFR
1394:Generated_Source\PSoC6\pdl\cmsis/include/core_cm4.h **** #define FPU_MVFR0_A_SIMD_registers_Msk     (0xFUL /*<< FPU_MVFR0_A_SIMD_registers_Pos*/)  /*!< MVFR
1395:Generated_Source\PSoC6\pdl\cmsis/include/core_cm4.h **** 
1396:Generated_Source\PSoC6\pdl\cmsis/include/core_cm4.h **** /* Media and FP Feature Register 1 Definitions */
1397:Generated_Source\PSoC6\pdl\cmsis/include/core_cm4.h **** #define FPU_MVFR1_FP_fused_MAC_Pos         28U                                            /*!< MVFR
1398:Generated_Source\PSoC6\pdl\cmsis/include/core_cm4.h **** #define FPU_MVFR1_FP_fused_MAC_Msk         (0xFUL << FPU_MVFR1_FP_fused_MAC_Pos)          /*!< MVFR
1399:Generated_Source\PSoC6\pdl\cmsis/include/core_cm4.h **** 
1400:Generated_Source\PSoC6\pdl\cmsis/include/core_cm4.h **** #define FPU_MVFR1_FP_HPFP_Pos              24U                                            /*!< MVFR
1401:Generated_Source\PSoC6\pdl\cmsis/include/core_cm4.h **** #define FPU_MVFR1_FP_HPFP_Msk              (0xFUL << FPU_MVFR1_FP_HPFP_Pos)               /*!< MVFR
1402:Generated_Source\PSoC6\pdl\cmsis/include/core_cm4.h **** 
1403:Generated_Source\PSoC6\pdl\cmsis/include/core_cm4.h **** #define FPU_MVFR1_D_NaN_mode_Pos            4U                                            /*!< MVFR
1404:Generated_Source\PSoC6\pdl\cmsis/include/core_cm4.h **** #define FPU_MVFR1_D_NaN_mode_Msk           (0xFUL << FPU_MVFR1_D_NaN_mode_Pos)            /*!< MVFR
1405:Generated_Source\PSoC6\pdl\cmsis/include/core_cm4.h **** 
1406:Generated_Source\PSoC6\pdl\cmsis/include/core_cm4.h **** #define FPU_MVFR1_FtZ_mode_Pos              0U                                            /*!< MVFR
1407:Generated_Source\PSoC6\pdl\cmsis/include/core_cm4.h **** #define FPU_MVFR1_FtZ_mode_Msk             (0xFUL /*<< FPU_MVFR1_FtZ_mode_Pos*/)          /*!< MVFR
1408:Generated_Source\PSoC6\pdl\cmsis/include/core_cm4.h **** 
1409:Generated_Source\PSoC6\pdl\cmsis/include/core_cm4.h **** /*@} end of group CMSIS_FPU */
1410:Generated_Source\PSoC6\pdl\cmsis/include/core_cm4.h **** 
1411:Generated_Source\PSoC6\pdl\cmsis/include/core_cm4.h **** 
1412:Generated_Source\PSoC6\pdl\cmsis/include/core_cm4.h **** /**
1413:Generated_Source\PSoC6\pdl\cmsis/include/core_cm4.h ****   \ingroup  CMSIS_core_register
1414:Generated_Source\PSoC6\pdl\cmsis/include/core_cm4.h ****   \defgroup CMSIS_CoreDebug       Core Debug Registers (CoreDebug)
1415:Generated_Source\PSoC6\pdl\cmsis/include/core_cm4.h ****   \brief    Type definitions for the Core Debug Registers
1416:Generated_Source\PSoC6\pdl\cmsis/include/core_cm4.h ****   @{
1417:Generated_Source\PSoC6\pdl\cmsis/include/core_cm4.h ****  */
1418:Generated_Source\PSoC6\pdl\cmsis/include/core_cm4.h **** 
1419:Generated_Source\PSoC6\pdl\cmsis/include/core_cm4.h **** /**
1420:Generated_Source\PSoC6\pdl\cmsis/include/core_cm4.h ****   \brief  Structure type to access the Core Debug Register (CoreDebug).
1421:Generated_Source\PSoC6\pdl\cmsis/include/core_cm4.h ****  */
1422:Generated_Source\PSoC6\pdl\cmsis/include/core_cm4.h **** typedef struct
1423:Generated_Source\PSoC6\pdl\cmsis/include/core_cm4.h **** {
1424:Generated_Source\PSoC6\pdl\cmsis/include/core_cm4.h ****   __IOM uint32_t DHCSR;                  /*!< Offset: 0x000 (R/W)  Debug Halting Control and Status
1425:Generated_Source\PSoC6\pdl\cmsis/include/core_cm4.h ****   __OM  uint32_t DCRSR;                  /*!< Offset: 0x004 ( /W)  Debug Core Register Selector Reg
1426:Generated_Source\PSoC6\pdl\cmsis/include/core_cm4.h ****   __IOM uint32_t DCRDR;                  /*!< Offset: 0x008 (R/W)  Debug Core Register Data Registe
1427:Generated_Source\PSoC6\pdl\cmsis/include/core_cm4.h ****   __IOM uint32_t DEMCR;                  /*!< Offset: 0x00C (R/W)  Debug Exception and Monitor Cont
1428:Generated_Source\PSoC6\pdl\cmsis/include/core_cm4.h **** } CoreDebug_Type;
1429:Generated_Source\PSoC6\pdl\cmsis/include/core_cm4.h **** 
1430:Generated_Source\PSoC6\pdl\cmsis/include/core_cm4.h **** /* Debug Halting Control and Status Register Definitions */
1431:Generated_Source\PSoC6\pdl\cmsis/include/core_cm4.h **** #define CoreDebug_DHCSR_DBGKEY_Pos         16U                                            /*!< Core
1432:Generated_Source\PSoC6\pdl\cmsis/include/core_cm4.h **** #define CoreDebug_DHCSR_DBGKEY_Msk         (0xFFFFUL << CoreDebug_DHCSR_DBGKEY_Pos)       /*!< Core
1433:Generated_Source\PSoC6\pdl\cmsis/include/core_cm4.h **** 
1434:Generated_Source\PSoC6\pdl\cmsis/include/core_cm4.h **** #define CoreDebug_DHCSR_S_RESET_ST_Pos     25U                                            /*!< Core
1435:Generated_Source\PSoC6\pdl\cmsis/include/core_cm4.h **** #define CoreDebug_DHCSR_S_RESET_ST_Msk     (1UL << CoreDebug_DHCSR_S_RESET_ST_Pos)        /*!< Core
1436:Generated_Source\PSoC6\pdl\cmsis/include/core_cm4.h **** 
1437:Generated_Source\PSoC6\pdl\cmsis/include/core_cm4.h **** #define CoreDebug_DHCSR_S_RETIRE_ST_Pos    24U                                            /*!< Core
1438:Generated_Source\PSoC6\pdl\cmsis/include/core_cm4.h **** #define CoreDebug_DHCSR_S_RETIRE_ST_Msk    (1UL << CoreDebug_DHCSR_S_RETIRE_ST_Pos)       /*!< Core
1439:Generated_Source\PSoC6\pdl\cmsis/include/core_cm4.h **** 
1440:Generated_Source\PSoC6\pdl\cmsis/include/core_cm4.h **** #define CoreDebug_DHCSR_S_LOCKUP_Pos       19U                                            /*!< Core
1441:Generated_Source\PSoC6\pdl\cmsis/include/core_cm4.h **** #define CoreDebug_DHCSR_S_LOCKUP_Msk       (1UL << CoreDebug_DHCSR_S_LOCKUP_Pos)          /*!< Core
1442:Generated_Source\PSoC6\pdl\cmsis/include/core_cm4.h **** 
1443:Generated_Source\PSoC6\pdl\cmsis/include/core_cm4.h **** #define CoreDebug_DHCSR_S_SLEEP_Pos        18U                                            /*!< Core
1444:Generated_Source\PSoC6\pdl\cmsis/include/core_cm4.h **** #define CoreDebug_DHCSR_S_SLEEP_Msk        (1UL << CoreDebug_DHCSR_S_SLEEP_Pos)           /*!< Core
1445:Generated_Source\PSoC6\pdl\cmsis/include/core_cm4.h **** 
1446:Generated_Source\PSoC6\pdl\cmsis/include/core_cm4.h **** #define CoreDebug_DHCSR_S_HALT_Pos         17U                                            /*!< Core
ARM GAS  C:\Users\Rolf\AppData\Local\Temp\cchK4Yuu.s 			page 34


1447:Generated_Source\PSoC6\pdl\cmsis/include/core_cm4.h **** #define CoreDebug_DHCSR_S_HALT_Msk         (1UL << CoreDebug_DHCSR_S_HALT_Pos)            /*!< Core
1448:Generated_Source\PSoC6\pdl\cmsis/include/core_cm4.h **** 
1449:Generated_Source\PSoC6\pdl\cmsis/include/core_cm4.h **** #define CoreDebug_DHCSR_S_REGRDY_Pos       16U                                            /*!< Core
1450:Generated_Source\PSoC6\pdl\cmsis/include/core_cm4.h **** #define CoreDebug_DHCSR_S_REGRDY_Msk       (1UL << CoreDebug_DHCSR_S_REGRDY_Pos)          /*!< Core
1451:Generated_Source\PSoC6\pdl\cmsis/include/core_cm4.h **** 
1452:Generated_Source\PSoC6\pdl\cmsis/include/core_cm4.h **** #define CoreDebug_DHCSR_C_SNAPSTALL_Pos     5U                                            /*!< Core
1453:Generated_Source\PSoC6\pdl\cmsis/include/core_cm4.h **** #define CoreDebug_DHCSR_C_SNAPSTALL_Msk    (1UL << CoreDebug_DHCSR_C_SNAPSTALL_Pos)       /*!< Core
1454:Generated_Source\PSoC6\pdl\cmsis/include/core_cm4.h **** 
1455:Generated_Source\PSoC6\pdl\cmsis/include/core_cm4.h **** #define CoreDebug_DHCSR_C_MASKINTS_Pos      3U                                            /*!< Core
1456:Generated_Source\PSoC6\pdl\cmsis/include/core_cm4.h **** #define CoreDebug_DHCSR_C_MASKINTS_Msk     (1UL << CoreDebug_DHCSR_C_MASKINTS_Pos)        /*!< Core
1457:Generated_Source\PSoC6\pdl\cmsis/include/core_cm4.h **** 
1458:Generated_Source\PSoC6\pdl\cmsis/include/core_cm4.h **** #define CoreDebug_DHCSR_C_STEP_Pos          2U                                            /*!< Core
1459:Generated_Source\PSoC6\pdl\cmsis/include/core_cm4.h **** #define CoreDebug_DHCSR_C_STEP_Msk         (1UL << CoreDebug_DHCSR_C_STEP_Pos)            /*!< Core
1460:Generated_Source\PSoC6\pdl\cmsis/include/core_cm4.h **** 
1461:Generated_Source\PSoC6\pdl\cmsis/include/core_cm4.h **** #define CoreDebug_DHCSR_C_HALT_Pos          1U                                            /*!< Core
1462:Generated_Source\PSoC6\pdl\cmsis/include/core_cm4.h **** #define CoreDebug_DHCSR_C_HALT_Msk         (1UL << CoreDebug_DHCSR_C_HALT_Pos)            /*!< Core
1463:Generated_Source\PSoC6\pdl\cmsis/include/core_cm4.h **** 
1464:Generated_Source\PSoC6\pdl\cmsis/include/core_cm4.h **** #define CoreDebug_DHCSR_C_DEBUGEN_Pos       0U                                            /*!< Core
1465:Generated_Source\PSoC6\pdl\cmsis/include/core_cm4.h **** #define CoreDebug_DHCSR_C_DEBUGEN_Msk      (1UL /*<< CoreDebug_DHCSR_C_DEBUGEN_Pos*/)     /*!< Core
1466:Generated_Source\PSoC6\pdl\cmsis/include/core_cm4.h **** 
1467:Generated_Source\PSoC6\pdl\cmsis/include/core_cm4.h **** /* Debug Core Register Selector Register Definitions */
1468:Generated_Source\PSoC6\pdl\cmsis/include/core_cm4.h **** #define CoreDebug_DCRSR_REGWnR_Pos         16U                                            /*!< Core
1469:Generated_Source\PSoC6\pdl\cmsis/include/core_cm4.h **** #define CoreDebug_DCRSR_REGWnR_Msk         (1UL << CoreDebug_DCRSR_REGWnR_Pos)            /*!< Core
1470:Generated_Source\PSoC6\pdl\cmsis/include/core_cm4.h **** 
1471:Generated_Source\PSoC6\pdl\cmsis/include/core_cm4.h **** #define CoreDebug_DCRSR_REGSEL_Pos          0U                                            /*!< Core
1472:Generated_Source\PSoC6\pdl\cmsis/include/core_cm4.h **** #define CoreDebug_DCRSR_REGSEL_Msk         (0x1FUL /*<< CoreDebug_DCRSR_REGSEL_Pos*/)     /*!< Core
1473:Generated_Source\PSoC6\pdl\cmsis/include/core_cm4.h **** 
1474:Generated_Source\PSoC6\pdl\cmsis/include/core_cm4.h **** /* Debug Exception and Monitor Control Register Definitions */
1475:Generated_Source\PSoC6\pdl\cmsis/include/core_cm4.h **** #define CoreDebug_DEMCR_TRCENA_Pos         24U                                            /*!< Core
1476:Generated_Source\PSoC6\pdl\cmsis/include/core_cm4.h **** #define CoreDebug_DEMCR_TRCENA_Msk         (1UL << CoreDebug_DEMCR_TRCENA_Pos)            /*!< Core
1477:Generated_Source\PSoC6\pdl\cmsis/include/core_cm4.h **** 
1478:Generated_Source\PSoC6\pdl\cmsis/include/core_cm4.h **** #define CoreDebug_DEMCR_MON_REQ_Pos        19U                                            /*!< Core
1479:Generated_Source\PSoC6\pdl\cmsis/include/core_cm4.h **** #define CoreDebug_DEMCR_MON_REQ_Msk        (1UL << CoreDebug_DEMCR_MON_REQ_Pos)           /*!< Core
1480:Generated_Source\PSoC6\pdl\cmsis/include/core_cm4.h **** 
1481:Generated_Source\PSoC6\pdl\cmsis/include/core_cm4.h **** #define CoreDebug_DEMCR_MON_STEP_Pos       18U                                            /*!< Core
1482:Generated_Source\PSoC6\pdl\cmsis/include/core_cm4.h **** #define CoreDebug_DEMCR_MON_STEP_Msk       (1UL << CoreDebug_DEMCR_MON_STEP_Pos)          /*!< Core
1483:Generated_Source\PSoC6\pdl\cmsis/include/core_cm4.h **** 
1484:Generated_Source\PSoC6\pdl\cmsis/include/core_cm4.h **** #define CoreDebug_DEMCR_MON_PEND_Pos       17U                                            /*!< Core
1485:Generated_Source\PSoC6\pdl\cmsis/include/core_cm4.h **** #define CoreDebug_DEMCR_MON_PEND_Msk       (1UL << CoreDebug_DEMCR_MON_PEND_Pos)          /*!< Core
1486:Generated_Source\PSoC6\pdl\cmsis/include/core_cm4.h **** 
1487:Generated_Source\PSoC6\pdl\cmsis/include/core_cm4.h **** #define CoreDebug_DEMCR_MON_EN_Pos         16U                                            /*!< Core
1488:Generated_Source\PSoC6\pdl\cmsis/include/core_cm4.h **** #define CoreDebug_DEMCR_MON_EN_Msk         (1UL << CoreDebug_DEMCR_MON_EN_Pos)            /*!< Core
1489:Generated_Source\PSoC6\pdl\cmsis/include/core_cm4.h **** 
1490:Generated_Source\PSoC6\pdl\cmsis/include/core_cm4.h **** #define CoreDebug_DEMCR_VC_HARDERR_Pos     10U                                            /*!< Core
1491:Generated_Source\PSoC6\pdl\cmsis/include/core_cm4.h **** #define CoreDebug_DEMCR_VC_HARDERR_Msk     (1UL << CoreDebug_DEMCR_VC_HARDERR_Pos)        /*!< Core
1492:Generated_Source\PSoC6\pdl\cmsis/include/core_cm4.h **** 
1493:Generated_Source\PSoC6\pdl\cmsis/include/core_cm4.h **** #define CoreDebug_DEMCR_VC_INTERR_Pos       9U                                            /*!< Core
1494:Generated_Source\PSoC6\pdl\cmsis/include/core_cm4.h **** #define CoreDebug_DEMCR_VC_INTERR_Msk      (1UL << CoreDebug_DEMCR_VC_INTERR_Pos)         /*!< Core
1495:Generated_Source\PSoC6\pdl\cmsis/include/core_cm4.h **** 
1496:Generated_Source\PSoC6\pdl\cmsis/include/core_cm4.h **** #define CoreDebug_DEMCR_VC_BUSERR_Pos       8U                                            /*!< Core
1497:Generated_Source\PSoC6\pdl\cmsis/include/core_cm4.h **** #define CoreDebug_DEMCR_VC_BUSERR_Msk      (1UL << CoreDebug_DEMCR_VC_BUSERR_Pos)         /*!< Core
1498:Generated_Source\PSoC6\pdl\cmsis/include/core_cm4.h **** 
1499:Generated_Source\PSoC6\pdl\cmsis/include/core_cm4.h **** #define CoreDebug_DEMCR_VC_STATERR_Pos      7U                                            /*!< Core
1500:Generated_Source\PSoC6\pdl\cmsis/include/core_cm4.h **** #define CoreDebug_DEMCR_VC_STATERR_Msk     (1UL << CoreDebug_DEMCR_VC_STATERR_Pos)        /*!< Core
1501:Generated_Source\PSoC6\pdl\cmsis/include/core_cm4.h **** 
1502:Generated_Source\PSoC6\pdl\cmsis/include/core_cm4.h **** #define CoreDebug_DEMCR_VC_CHKERR_Pos       6U                                            /*!< Core
1503:Generated_Source\PSoC6\pdl\cmsis/include/core_cm4.h **** #define CoreDebug_DEMCR_VC_CHKERR_Msk      (1UL << CoreDebug_DEMCR_VC_CHKERR_Pos)         /*!< Core
ARM GAS  C:\Users\Rolf\AppData\Local\Temp\cchK4Yuu.s 			page 35


1504:Generated_Source\PSoC6\pdl\cmsis/include/core_cm4.h **** 
1505:Generated_Source\PSoC6\pdl\cmsis/include/core_cm4.h **** #define CoreDebug_DEMCR_VC_NOCPERR_Pos      5U                                            /*!< Core
1506:Generated_Source\PSoC6\pdl\cmsis/include/core_cm4.h **** #define CoreDebug_DEMCR_VC_NOCPERR_Msk     (1UL << CoreDebug_DEMCR_VC_NOCPERR_Pos)        /*!< Core
1507:Generated_Source\PSoC6\pdl\cmsis/include/core_cm4.h **** 
1508:Generated_Source\PSoC6\pdl\cmsis/include/core_cm4.h **** #define CoreDebug_DEMCR_VC_MMERR_Pos        4U                                            /*!< Core
1509:Generated_Source\PSoC6\pdl\cmsis/include/core_cm4.h **** #define CoreDebug_DEMCR_VC_MMERR_Msk       (1UL << CoreDebug_DEMCR_VC_MMERR_Pos)          /*!< Core
1510:Generated_Source\PSoC6\pdl\cmsis/include/core_cm4.h **** 
1511:Generated_Source\PSoC6\pdl\cmsis/include/core_cm4.h **** #define CoreDebug_DEMCR_VC_CORERESET_Pos    0U                                            /*!< Core
1512:Generated_Source\PSoC6\pdl\cmsis/include/core_cm4.h **** #define CoreDebug_DEMCR_VC_CORERESET_Msk   (1UL /*<< CoreDebug_DEMCR_VC_CORERESET_Pos*/)  /*!< Core
1513:Generated_Source\PSoC6\pdl\cmsis/include/core_cm4.h **** 
1514:Generated_Source\PSoC6\pdl\cmsis/include/core_cm4.h **** /*@} end of group CMSIS_CoreDebug */
1515:Generated_Source\PSoC6\pdl\cmsis/include/core_cm4.h **** 
1516:Generated_Source\PSoC6\pdl\cmsis/include/core_cm4.h **** 
1517:Generated_Source\PSoC6\pdl\cmsis/include/core_cm4.h **** /**
1518:Generated_Source\PSoC6\pdl\cmsis/include/core_cm4.h ****   \ingroup    CMSIS_core_register
1519:Generated_Source\PSoC6\pdl\cmsis/include/core_cm4.h ****   \defgroup   CMSIS_core_bitfield     Core register bit field macros
1520:Generated_Source\PSoC6\pdl\cmsis/include/core_cm4.h ****   \brief      Macros for use with bit field definitions (xxx_Pos, xxx_Msk).
1521:Generated_Source\PSoC6\pdl\cmsis/include/core_cm4.h ****   @{
1522:Generated_Source\PSoC6\pdl\cmsis/include/core_cm4.h ****  */
1523:Generated_Source\PSoC6\pdl\cmsis/include/core_cm4.h **** 
1524:Generated_Source\PSoC6\pdl\cmsis/include/core_cm4.h **** /**
1525:Generated_Source\PSoC6\pdl\cmsis/include/core_cm4.h ****   \brief   Mask and shift a bit field value for use in a register bit range.
1526:Generated_Source\PSoC6\pdl\cmsis/include/core_cm4.h ****   \param[in] field  Name of the register bit field.
1527:Generated_Source\PSoC6\pdl\cmsis/include/core_cm4.h ****   \param[in] value  Value of the bit field. This parameter is interpreted as an uint32_t type.
1528:Generated_Source\PSoC6\pdl\cmsis/include/core_cm4.h ****   \return           Masked and shifted value.
1529:Generated_Source\PSoC6\pdl\cmsis/include/core_cm4.h **** */
1530:Generated_Source\PSoC6\pdl\cmsis/include/core_cm4.h **** #define _VAL2FLD(field, value)    (((uint32_t)(value) << field ## _Pos) & field ## _Msk)
1531:Generated_Source\PSoC6\pdl\cmsis/include/core_cm4.h **** 
1532:Generated_Source\PSoC6\pdl\cmsis/include/core_cm4.h **** /**
1533:Generated_Source\PSoC6\pdl\cmsis/include/core_cm4.h ****   \brief     Mask and shift a register value to extract a bit filed value.
1534:Generated_Source\PSoC6\pdl\cmsis/include/core_cm4.h ****   \param[in] field  Name of the register bit field.
1535:Generated_Source\PSoC6\pdl\cmsis/include/core_cm4.h ****   \param[in] value  Value of register. This parameter is interpreted as an uint32_t type.
1536:Generated_Source\PSoC6\pdl\cmsis/include/core_cm4.h ****   \return           Masked and shifted bit field value.
1537:Generated_Source\PSoC6\pdl\cmsis/include/core_cm4.h **** */
1538:Generated_Source\PSoC6\pdl\cmsis/include/core_cm4.h **** #define _FLD2VAL(field, value)    (((uint32_t)(value) & field ## _Msk) >> field ## _Pos)
1539:Generated_Source\PSoC6\pdl\cmsis/include/core_cm4.h **** 
1540:Generated_Source\PSoC6\pdl\cmsis/include/core_cm4.h **** /*@} end of group CMSIS_core_bitfield */
1541:Generated_Source\PSoC6\pdl\cmsis/include/core_cm4.h **** 
1542:Generated_Source\PSoC6\pdl\cmsis/include/core_cm4.h **** 
1543:Generated_Source\PSoC6\pdl\cmsis/include/core_cm4.h **** /**
1544:Generated_Source\PSoC6\pdl\cmsis/include/core_cm4.h ****   \ingroup    CMSIS_core_register
1545:Generated_Source\PSoC6\pdl\cmsis/include/core_cm4.h ****   \defgroup   CMSIS_core_base     Core Definitions
1546:Generated_Source\PSoC6\pdl\cmsis/include/core_cm4.h ****   \brief      Definitions for base addresses, unions, and structures.
1547:Generated_Source\PSoC6\pdl\cmsis/include/core_cm4.h ****   @{
1548:Generated_Source\PSoC6\pdl\cmsis/include/core_cm4.h ****  */
1549:Generated_Source\PSoC6\pdl\cmsis/include/core_cm4.h **** 
1550:Generated_Source\PSoC6\pdl\cmsis/include/core_cm4.h **** /* Memory mapping of Core Hardware */
1551:Generated_Source\PSoC6\pdl\cmsis/include/core_cm4.h **** #define SCS_BASE            (0xE000E000UL)                            /*!< System Control Space Bas
1552:Generated_Source\PSoC6\pdl\cmsis/include/core_cm4.h **** #define ITM_BASE            (0xE0000000UL)                            /*!< ITM Base Address */
1553:Generated_Source\PSoC6\pdl\cmsis/include/core_cm4.h **** #define DWT_BASE            (0xE0001000UL)                            /*!< DWT Base Address */
1554:Generated_Source\PSoC6\pdl\cmsis/include/core_cm4.h **** #define TPI_BASE            (0xE0040000UL)                            /*!< TPI Base Address */
1555:Generated_Source\PSoC6\pdl\cmsis/include/core_cm4.h **** #define CoreDebug_BASE      (0xE000EDF0UL)                            /*!< Core Debug Base Address 
1556:Generated_Source\PSoC6\pdl\cmsis/include/core_cm4.h **** #define SysTick_BASE        (SCS_BASE +  0x0010UL)                    /*!< SysTick Base Address */
1557:Generated_Source\PSoC6\pdl\cmsis/include/core_cm4.h **** #define NVIC_BASE           (SCS_BASE +  0x0100UL)                    /*!< NVIC Base Address */
1558:Generated_Source\PSoC6\pdl\cmsis/include/core_cm4.h **** #define SCB_BASE            (SCS_BASE +  0x0D00UL)                    /*!< System Control Block Bas
1559:Generated_Source\PSoC6\pdl\cmsis/include/core_cm4.h **** 
1560:Generated_Source\PSoC6\pdl\cmsis/include/core_cm4.h **** #define SCnSCB              ((SCnSCB_Type    *)     SCS_BASE      )   /*!< System control Register 
ARM GAS  C:\Users\Rolf\AppData\Local\Temp\cchK4Yuu.s 			page 36


1561:Generated_Source\PSoC6\pdl\cmsis/include/core_cm4.h **** #define SCB                 ((SCB_Type       *)     SCB_BASE      )   /*!< SCB configuration struct
1562:Generated_Source\PSoC6\pdl\cmsis/include/core_cm4.h **** #define SysTick             ((SysTick_Type   *)     SysTick_BASE  )   /*!< SysTick configuration st
1563:Generated_Source\PSoC6\pdl\cmsis/include/core_cm4.h **** #define NVIC                ((NVIC_Type      *)     NVIC_BASE     )   /*!< NVIC configuration struc
1564:Generated_Source\PSoC6\pdl\cmsis/include/core_cm4.h **** #define ITM                 ((ITM_Type       *)     ITM_BASE      )   /*!< ITM configuration struct
1565:Generated_Source\PSoC6\pdl\cmsis/include/core_cm4.h **** #define DWT                 ((DWT_Type       *)     DWT_BASE      )   /*!< DWT configuration struct
1566:Generated_Source\PSoC6\pdl\cmsis/include/core_cm4.h **** #define TPI                 ((TPI_Type       *)     TPI_BASE      )   /*!< TPI configuration struct
1567:Generated_Source\PSoC6\pdl\cmsis/include/core_cm4.h **** #define CoreDebug           ((CoreDebug_Type *)     CoreDebug_BASE)   /*!< Core Debug configuration
1568:Generated_Source\PSoC6\pdl\cmsis/include/core_cm4.h **** 
1569:Generated_Source\PSoC6\pdl\cmsis/include/core_cm4.h **** #if defined (__MPU_PRESENT) && (__MPU_PRESENT == 1U)
1570:Generated_Source\PSoC6\pdl\cmsis/include/core_cm4.h ****   #define MPU_BASE          (SCS_BASE +  0x0D90UL)                    /*!< Memory Protection Unit *
1571:Generated_Source\PSoC6\pdl\cmsis/include/core_cm4.h ****   #define MPU               ((MPU_Type       *)     MPU_BASE      )   /*!< Memory Protection Unit *
1572:Generated_Source\PSoC6\pdl\cmsis/include/core_cm4.h **** #endif
1573:Generated_Source\PSoC6\pdl\cmsis/include/core_cm4.h **** 
1574:Generated_Source\PSoC6\pdl\cmsis/include/core_cm4.h **** #define FPU_BASE            (SCS_BASE +  0x0F30UL)                    /*!< Floating Point Unit */
1575:Generated_Source\PSoC6\pdl\cmsis/include/core_cm4.h **** #define FPU                 ((FPU_Type       *)     FPU_BASE      )   /*!< Floating Point Unit */
1576:Generated_Source\PSoC6\pdl\cmsis/include/core_cm4.h **** 
1577:Generated_Source\PSoC6\pdl\cmsis/include/core_cm4.h **** /*@} */
1578:Generated_Source\PSoC6\pdl\cmsis/include/core_cm4.h **** 
1579:Generated_Source\PSoC6\pdl\cmsis/include/core_cm4.h **** 
1580:Generated_Source\PSoC6\pdl\cmsis/include/core_cm4.h **** 
1581:Generated_Source\PSoC6\pdl\cmsis/include/core_cm4.h **** /*******************************************************************************
1582:Generated_Source\PSoC6\pdl\cmsis/include/core_cm4.h ****  *                Hardware Abstraction Layer
1583:Generated_Source\PSoC6\pdl\cmsis/include/core_cm4.h ****   Core Function Interface contains:
1584:Generated_Source\PSoC6\pdl\cmsis/include/core_cm4.h ****   - Core NVIC Functions
1585:Generated_Source\PSoC6\pdl\cmsis/include/core_cm4.h ****   - Core SysTick Functions
1586:Generated_Source\PSoC6\pdl\cmsis/include/core_cm4.h ****   - Core Debug Functions
1587:Generated_Source\PSoC6\pdl\cmsis/include/core_cm4.h ****   - Core Register Access Functions
1588:Generated_Source\PSoC6\pdl\cmsis/include/core_cm4.h ****  ******************************************************************************/
1589:Generated_Source\PSoC6\pdl\cmsis/include/core_cm4.h **** /**
1590:Generated_Source\PSoC6\pdl\cmsis/include/core_cm4.h ****   \defgroup CMSIS_Core_FunctionInterface Functions and Instructions Reference
1591:Generated_Source\PSoC6\pdl\cmsis/include/core_cm4.h **** */
1592:Generated_Source\PSoC6\pdl\cmsis/include/core_cm4.h **** 
1593:Generated_Source\PSoC6\pdl\cmsis/include/core_cm4.h **** 
1594:Generated_Source\PSoC6\pdl\cmsis/include/core_cm4.h **** 
1595:Generated_Source\PSoC6\pdl\cmsis/include/core_cm4.h **** /* ##########################   NVIC functions  #################################### */
1596:Generated_Source\PSoC6\pdl\cmsis/include/core_cm4.h **** /**
1597:Generated_Source\PSoC6\pdl\cmsis/include/core_cm4.h ****   \ingroup  CMSIS_Core_FunctionInterface
1598:Generated_Source\PSoC6\pdl\cmsis/include/core_cm4.h ****   \defgroup CMSIS_Core_NVICFunctions NVIC Functions
1599:Generated_Source\PSoC6\pdl\cmsis/include/core_cm4.h ****   \brief    Functions that manage interrupts and exceptions via the NVIC.
1600:Generated_Source\PSoC6\pdl\cmsis/include/core_cm4.h ****   @{
1601:Generated_Source\PSoC6\pdl\cmsis/include/core_cm4.h ****  */
1602:Generated_Source\PSoC6\pdl\cmsis/include/core_cm4.h **** 
1603:Generated_Source\PSoC6\pdl\cmsis/include/core_cm4.h **** #ifdef CMSIS_NVIC_VIRTUAL
1604:Generated_Source\PSoC6\pdl\cmsis/include/core_cm4.h ****   #ifndef CMSIS_NVIC_VIRTUAL_HEADER_FILE
1605:Generated_Source\PSoC6\pdl\cmsis/include/core_cm4.h ****     #define CMSIS_NVIC_VIRTUAL_HEADER_FILE "cmsis_nvic_virtual.h"
1606:Generated_Source\PSoC6\pdl\cmsis/include/core_cm4.h ****   #endif
1607:Generated_Source\PSoC6\pdl\cmsis/include/core_cm4.h ****   #include CMSIS_NVIC_VIRTUAL_HEADER_FILE
1608:Generated_Source\PSoC6\pdl\cmsis/include/core_cm4.h **** #else
1609:Generated_Source\PSoC6\pdl\cmsis/include/core_cm4.h ****   #define NVIC_SetPriorityGrouping    __NVIC_SetPriorityGrouping
1610:Generated_Source\PSoC6\pdl\cmsis/include/core_cm4.h ****   #define NVIC_GetPriorityGrouping    __NVIC_GetPriorityGrouping
1611:Generated_Source\PSoC6\pdl\cmsis/include/core_cm4.h ****   #define NVIC_EnableIRQ              __NVIC_EnableIRQ
1612:Generated_Source\PSoC6\pdl\cmsis/include/core_cm4.h ****   #define NVIC_GetEnableIRQ           __NVIC_GetEnableIRQ
1613:Generated_Source\PSoC6\pdl\cmsis/include/core_cm4.h ****   #define NVIC_DisableIRQ             __NVIC_DisableIRQ
1614:Generated_Source\PSoC6\pdl\cmsis/include/core_cm4.h ****   #define NVIC_GetPendingIRQ          __NVIC_GetPendingIRQ
1615:Generated_Source\PSoC6\pdl\cmsis/include/core_cm4.h ****   #define NVIC_SetPendingIRQ          __NVIC_SetPendingIRQ
1616:Generated_Source\PSoC6\pdl\cmsis/include/core_cm4.h ****   #define NVIC_ClearPendingIRQ        __NVIC_ClearPendingIRQ
1617:Generated_Source\PSoC6\pdl\cmsis/include/core_cm4.h ****   #define NVIC_GetActive              __NVIC_GetActive
ARM GAS  C:\Users\Rolf\AppData\Local\Temp\cchK4Yuu.s 			page 37


1618:Generated_Source\PSoC6\pdl\cmsis/include/core_cm4.h ****   #define NVIC_SetPriority            __NVIC_SetPriority
1619:Generated_Source\PSoC6\pdl\cmsis/include/core_cm4.h ****   #define NVIC_GetPriority            __NVIC_GetPriority
1620:Generated_Source\PSoC6\pdl\cmsis/include/core_cm4.h ****   #define NVIC_SystemReset            __NVIC_SystemReset
1621:Generated_Source\PSoC6\pdl\cmsis/include/core_cm4.h **** #endif /* CMSIS_NVIC_VIRTUAL */
1622:Generated_Source\PSoC6\pdl\cmsis/include/core_cm4.h **** 
1623:Generated_Source\PSoC6\pdl\cmsis/include/core_cm4.h **** #ifdef CMSIS_VECTAB_VIRTUAL
1624:Generated_Source\PSoC6\pdl\cmsis/include/core_cm4.h ****   #ifndef CMSIS_VECTAB_VIRTUAL_HEADER_FILE
1625:Generated_Source\PSoC6\pdl\cmsis/include/core_cm4.h ****    #define CMSIS_VECTAB_VIRTUAL_HEADER_FILE "cmsis_vectab_virtual.h"
1626:Generated_Source\PSoC6\pdl\cmsis/include/core_cm4.h ****   #endif
1627:Generated_Source\PSoC6\pdl\cmsis/include/core_cm4.h ****   #include CMSIS_VECTAB_VIRTUAL_HEADER_FILE
1628:Generated_Source\PSoC6\pdl\cmsis/include/core_cm4.h **** #else
1629:Generated_Source\PSoC6\pdl\cmsis/include/core_cm4.h ****   #define NVIC_SetVector              __NVIC_SetVector
1630:Generated_Source\PSoC6\pdl\cmsis/include/core_cm4.h ****   #define NVIC_GetVector              __NVIC_GetVector
1631:Generated_Source\PSoC6\pdl\cmsis/include/core_cm4.h **** #endif  /* (CMSIS_VECTAB_VIRTUAL) */
1632:Generated_Source\PSoC6\pdl\cmsis/include/core_cm4.h **** 
1633:Generated_Source\PSoC6\pdl\cmsis/include/core_cm4.h **** #define NVIC_USER_IRQ_OFFSET          16
1634:Generated_Source\PSoC6\pdl\cmsis/include/core_cm4.h **** 
1635:Generated_Source\PSoC6\pdl\cmsis/include/core_cm4.h **** 
1636:Generated_Source\PSoC6\pdl\cmsis/include/core_cm4.h **** 
1637:Generated_Source\PSoC6\pdl\cmsis/include/core_cm4.h **** /**
1638:Generated_Source\PSoC6\pdl\cmsis/include/core_cm4.h ****   \brief   Set Priority Grouping
1639:Generated_Source\PSoC6\pdl\cmsis/include/core_cm4.h ****   \details Sets the priority grouping field using the required unlock sequence.
1640:Generated_Source\PSoC6\pdl\cmsis/include/core_cm4.h ****            The parameter PriorityGroup is assigned to the field SCB->AIRCR [10:8] PRIGROUP field.
1641:Generated_Source\PSoC6\pdl\cmsis/include/core_cm4.h ****            Only values from 0..7 are used.
1642:Generated_Source\PSoC6\pdl\cmsis/include/core_cm4.h ****            In case of a conflict between priority grouping and available
1643:Generated_Source\PSoC6\pdl\cmsis/include/core_cm4.h ****            priority bits (__NVIC_PRIO_BITS), the smallest possible priority group is set.
1644:Generated_Source\PSoC6\pdl\cmsis/include/core_cm4.h ****   \param [in]      PriorityGroup  Priority grouping field.
1645:Generated_Source\PSoC6\pdl\cmsis/include/core_cm4.h ****  */
1646:Generated_Source\PSoC6\pdl\cmsis/include/core_cm4.h **** __STATIC_INLINE void __NVIC_SetPriorityGrouping(uint32_t PriorityGroup)
1647:Generated_Source\PSoC6\pdl\cmsis/include/core_cm4.h **** {
1648:Generated_Source\PSoC6\pdl\cmsis/include/core_cm4.h ****   uint32_t reg_value;
1649:Generated_Source\PSoC6\pdl\cmsis/include/core_cm4.h ****   uint32_t PriorityGroupTmp = (PriorityGroup & (uint32_t)0x07UL);             /* only values 0..7 a
1650:Generated_Source\PSoC6\pdl\cmsis/include/core_cm4.h **** 
1651:Generated_Source\PSoC6\pdl\cmsis/include/core_cm4.h ****   reg_value  =  SCB->AIRCR;                                                   /* read old register 
1652:Generated_Source\PSoC6\pdl\cmsis/include/core_cm4.h ****   reg_value &= ~((uint32_t)(SCB_AIRCR_VECTKEY_Msk | SCB_AIRCR_PRIGROUP_Msk)); /* clear bits to chan
1653:Generated_Source\PSoC6\pdl\cmsis/include/core_cm4.h ****   reg_value  =  (reg_value                                   |
1654:Generated_Source\PSoC6\pdl\cmsis/include/core_cm4.h ****                 ((uint32_t)0x5FAUL << SCB_AIRCR_VECTKEY_Pos) |
1655:Generated_Source\PSoC6\pdl\cmsis/include/core_cm4.h ****                 (PriorityGroupTmp << SCB_AIRCR_PRIGROUP_Pos)  );              /* Insert write key a
1656:Generated_Source\PSoC6\pdl\cmsis/include/core_cm4.h ****   SCB->AIRCR =  reg_value;
1657:Generated_Source\PSoC6\pdl\cmsis/include/core_cm4.h **** }
1658:Generated_Source\PSoC6\pdl\cmsis/include/core_cm4.h **** 
1659:Generated_Source\PSoC6\pdl\cmsis/include/core_cm4.h **** 
1660:Generated_Source\PSoC6\pdl\cmsis/include/core_cm4.h **** /**
1661:Generated_Source\PSoC6\pdl\cmsis/include/core_cm4.h ****   \brief   Get Priority Grouping
1662:Generated_Source\PSoC6\pdl\cmsis/include/core_cm4.h ****   \details Reads the priority grouping field from the NVIC Interrupt Controller.
1663:Generated_Source\PSoC6\pdl\cmsis/include/core_cm4.h ****   \return                Priority grouping field (SCB->AIRCR [10:8] PRIGROUP field).
1664:Generated_Source\PSoC6\pdl\cmsis/include/core_cm4.h ****  */
1665:Generated_Source\PSoC6\pdl\cmsis/include/core_cm4.h **** __STATIC_INLINE uint32_t __NVIC_GetPriorityGrouping(void)
1666:Generated_Source\PSoC6\pdl\cmsis/include/core_cm4.h **** {
1667:Generated_Source\PSoC6\pdl\cmsis/include/core_cm4.h ****   return ((uint32_t)((SCB->AIRCR & SCB_AIRCR_PRIGROUP_Msk) >> SCB_AIRCR_PRIGROUP_Pos));
1668:Generated_Source\PSoC6\pdl\cmsis/include/core_cm4.h **** }
1669:Generated_Source\PSoC6\pdl\cmsis/include/core_cm4.h **** 
1670:Generated_Source\PSoC6\pdl\cmsis/include/core_cm4.h **** 
1671:Generated_Source\PSoC6\pdl\cmsis/include/core_cm4.h **** /**
1672:Generated_Source\PSoC6\pdl\cmsis/include/core_cm4.h ****   \brief   Enable Interrupt
1673:Generated_Source\PSoC6\pdl\cmsis/include/core_cm4.h ****   \details Enables a device specific interrupt in the NVIC interrupt controller.
1674:Generated_Source\PSoC6\pdl\cmsis/include/core_cm4.h ****   \param [in]      IRQn  Device specific interrupt number.
ARM GAS  C:\Users\Rolf\AppData\Local\Temp\cchK4Yuu.s 			page 38


1675:Generated_Source\PSoC6\pdl\cmsis/include/core_cm4.h ****   \note    IRQn must not be negative.
1676:Generated_Source\PSoC6\pdl\cmsis/include/core_cm4.h ****  */
1677:Generated_Source\PSoC6\pdl\cmsis/include/core_cm4.h **** __STATIC_INLINE void __NVIC_EnableIRQ(IRQn_Type IRQn)
1678:Generated_Source\PSoC6\pdl\cmsis/include/core_cm4.h **** {
1679:Generated_Source\PSoC6\pdl\cmsis/include/core_cm4.h ****   if ((int32_t)(IRQn) >= 0)
  94              		.loc 3 1679 0
  95 0026 002B     		cmp	r3, #0
  96 0028 08DB     		blt	.L7
1680:Generated_Source\PSoC6\pdl\cmsis/include/core_cm4.h ****   {
1681:Generated_Source\PSoC6\pdl\cmsis/include/core_cm4.h ****     NVIC->ISER[(((uint32_t)IRQn) >> 5UL)] = (uint32_t)(1UL << (((uint32_t)IRQn) & 0x1FUL));
  97              		.loc 3 1681 0
  98 002a 5909     		lsrs	r1, r3, #5
  99 002c 03F01F03 		and	r3, r3, #31
 100              	.LVL4:
 101 0030 0122     		movs	r2, #1
 102 0032 02FA03F3 		lsl	r3, r2, r3
 103 0036 0A4A     		ldr	r2, .L9+24
 104 0038 42F82130 		str	r3, [r2, r1, lsl #2]
 105              	.L7:
 106              	.LVL5:
 107              	.LBE7:
 108              	.LBE6:
 109              	.LBB8:
 110              	.LBB9:
 111              		.file 4 "Generated_Source\\PSoC6\\pdl\\drivers/peripheral/scb/cy_scb_ezi2c.h"
   1:Generated_Source\PSoC6\pdl\drivers/peripheral/scb/cy_scb_ezi2c.h **** /***************************************************************************//**
   2:Generated_Source\PSoC6\pdl\drivers/peripheral/scb/cy_scb_ezi2c.h **** * \file cy_scb_ezi2c.h
   3:Generated_Source\PSoC6\pdl\drivers/peripheral/scb/cy_scb_ezi2c.h **** * \version 2.30
   4:Generated_Source\PSoC6\pdl\drivers/peripheral/scb/cy_scb_ezi2c.h **** *
   5:Generated_Source\PSoC6\pdl\drivers/peripheral/scb/cy_scb_ezi2c.h **** * Provides EZI2C API declarations of the SCB driver.
   6:Generated_Source\PSoC6\pdl\drivers/peripheral/scb/cy_scb_ezi2c.h **** *
   7:Generated_Source\PSoC6\pdl\drivers/peripheral/scb/cy_scb_ezi2c.h **** ********************************************************************************
   8:Generated_Source\PSoC6\pdl\drivers/peripheral/scb/cy_scb_ezi2c.h **** * \copyright
   9:Generated_Source\PSoC6\pdl\drivers/peripheral/scb/cy_scb_ezi2c.h **** * Copyright 2016-2021, Cypress Semiconductor Corporation.  All rights reserved.
  10:Generated_Source\PSoC6\pdl\drivers/peripheral/scb/cy_scb_ezi2c.h **** * You may use this file only in accordance with the license, terms, conditions,
  11:Generated_Source\PSoC6\pdl\drivers/peripheral/scb/cy_scb_ezi2c.h **** * disclaimers, and limitations in the end user license agreement accompanying
  12:Generated_Source\PSoC6\pdl\drivers/peripheral/scb/cy_scb_ezi2c.h **** * the software package with which this file was provided.
  13:Generated_Source\PSoC6\pdl\drivers/peripheral/scb/cy_scb_ezi2c.h **** *******************************************************************************/
  14:Generated_Source\PSoC6\pdl\drivers/peripheral/scb/cy_scb_ezi2c.h **** 
  15:Generated_Source\PSoC6\pdl\drivers/peripheral/scb/cy_scb_ezi2c.h **** /**
  16:Generated_Source\PSoC6\pdl\drivers/peripheral/scb/cy_scb_ezi2c.h **** * \addtogroup group_scb_ezi2c
  17:Generated_Source\PSoC6\pdl\drivers/peripheral/scb/cy_scb_ezi2c.h **** * \{
  18:Generated_Source\PSoC6\pdl\drivers/peripheral/scb/cy_scb_ezi2c.h **** * Driver API for EZI2C Slave Peripheral
  19:Generated_Source\PSoC6\pdl\drivers/peripheral/scb/cy_scb_ezi2c.h **** *
  20:Generated_Source\PSoC6\pdl\drivers/peripheral/scb/cy_scb_ezi2c.h **** * The functions and other declarations used in this part of the driver are in
  21:Generated_Source\PSoC6\pdl\drivers/peripheral/scb/cy_scb_ezi2c.h **** * cy_scb_ezi2c.h. You can also include cy_pdl.h (ModusToolbox only) to get access
  22:Generated_Source\PSoC6\pdl\drivers/peripheral/scb/cy_scb_ezi2c.h **** * to all functions and declarations in the PDL.
  23:Generated_Source\PSoC6\pdl\drivers/peripheral/scb/cy_scb_ezi2c.h **** *
  24:Generated_Source\PSoC6\pdl\drivers/peripheral/scb/cy_scb_ezi2c.h **** * I2C - The Inter-Integrated Circuit (I2C) bus is an industry-standard.
  25:Generated_Source\PSoC6\pdl\drivers/peripheral/scb/cy_scb_ezi2c.h **** *
  26:Generated_Source\PSoC6\pdl\drivers/peripheral/scb/cy_scb_ezi2c.h **** * The EZI2C slave peripheral driver provides an API to implement the I2C slave
  27:Generated_Source\PSoC6\pdl\drivers/peripheral/scb/cy_scb_ezi2c.h **** * device based on the SCB hardware block. This slave device emulates a common
  28:Generated_Source\PSoC6\pdl\drivers/peripheral/scb/cy_scb_ezi2c.h **** * I2C EEPROM interface that acts like dual-port memory between the external
  29:Generated_Source\PSoC6\pdl\drivers/peripheral/scb/cy_scb_ezi2c.h **** * master and your code. I2C devices based on the SCB hardware are compatible
  30:Generated_Source\PSoC6\pdl\drivers/peripheral/scb/cy_scb_ezi2c.h **** * with the I2C Standard mode, Fast mode, and Fast mode Plus specifications, as
  31:Generated_Source\PSoC6\pdl\drivers/peripheral/scb/cy_scb_ezi2c.h **** * defined in the I2C bus specification.
  32:Generated_Source\PSoC6\pdl\drivers/peripheral/scb/cy_scb_ezi2c.h **** *
ARM GAS  C:\Users\Rolf\AppData\Local\Temp\cchK4Yuu.s 			page 39


  33:Generated_Source\PSoC6\pdl\drivers/peripheral/scb/cy_scb_ezi2c.h **** * Features:
  34:Generated_Source\PSoC6\pdl\drivers/peripheral/scb/cy_scb_ezi2c.h **** * * An industry-standard I2C bus interface
  35:Generated_Source\PSoC6\pdl\drivers/peripheral/scb/cy_scb_ezi2c.h **** * * Supports standard data rates of 100/400/1000 kbps
  36:Generated_Source\PSoC6\pdl\drivers/peripheral/scb/cy_scb_ezi2c.h **** * * Emulates a common I2C EEPROM Interface
  37:Generated_Source\PSoC6\pdl\drivers/peripheral/scb/cy_scb_ezi2c.h **** * * Acts like dual-port memory between the external master and your code
  38:Generated_Source\PSoC6\pdl\drivers/peripheral/scb/cy_scb_ezi2c.h **** * * Supports Hardware Address Match
  39:Generated_Source\PSoC6\pdl\drivers/peripheral/scb/cy_scb_ezi2c.h **** * * Supports two hardware addresses with separate buffers
  40:Generated_Source\PSoC6\pdl\drivers/peripheral/scb/cy_scb_ezi2c.h **** * * Supports Wake from Deep Sleep on address match
  41:Generated_Source\PSoC6\pdl\drivers/peripheral/scb/cy_scb_ezi2c.h **** * * Simple to set up and use; does not require calling EZI2C API
  42:Generated_Source\PSoC6\pdl\drivers/peripheral/scb/cy_scb_ezi2c.h **** *   at run time.
  43:Generated_Source\PSoC6\pdl\drivers/peripheral/scb/cy_scb_ezi2c.h **** *
  44:Generated_Source\PSoC6\pdl\drivers/peripheral/scb/cy_scb_ezi2c.h **** ********************************************************************************
  45:Generated_Source\PSoC6\pdl\drivers/peripheral/scb/cy_scb_ezi2c.h **** * \section group_scb_ezi2c_configuration Configuration Considerations
  46:Generated_Source\PSoC6\pdl\drivers/peripheral/scb/cy_scb_ezi2c.h **** ********************************************************************************
  47:Generated_Source\PSoC6\pdl\drivers/peripheral/scb/cy_scb_ezi2c.h **** * The EZI2C slave driver configuration can be divided to number of sequential
  48:Generated_Source\PSoC6\pdl\drivers/peripheral/scb/cy_scb_ezi2c.h **** * steps listed below:
  49:Generated_Source\PSoC6\pdl\drivers/peripheral/scb/cy_scb_ezi2c.h **** * * \ref group_scb_ezi2c_config
  50:Generated_Source\PSoC6\pdl\drivers/peripheral/scb/cy_scb_ezi2c.h **** * * \ref group_scb_ezi2c_pins
  51:Generated_Source\PSoC6\pdl\drivers/peripheral/scb/cy_scb_ezi2c.h **** * * \ref group_scb_ezi2c_clock
  52:Generated_Source\PSoC6\pdl\drivers/peripheral/scb/cy_scb_ezi2c.h **** * * \ref group_scb_ezi2c_data_rate
  53:Generated_Source\PSoC6\pdl\drivers/peripheral/scb/cy_scb_ezi2c.h **** * * \ref group_scb_ezi2c_intr
  54:Generated_Source\PSoC6\pdl\drivers/peripheral/scb/cy_scb_ezi2c.h **** * * \ref group_scb_ezi2c_enable
  55:Generated_Source\PSoC6\pdl\drivers/peripheral/scb/cy_scb_ezi2c.h **** *
  56:Generated_Source\PSoC6\pdl\drivers/peripheral/scb/cy_scb_ezi2c.h **** * \note
  57:Generated_Source\PSoC6\pdl\drivers/peripheral/scb/cy_scb_ezi2c.h **** * EZI2C slave driver is built on top of the SCB hardware block. The SCB3
  58:Generated_Source\PSoC6\pdl\drivers/peripheral/scb/cy_scb_ezi2c.h **** * instance is used as an example for all code snippets. Modify the code to
  59:Generated_Source\PSoC6\pdl\drivers/peripheral/scb/cy_scb_ezi2c.h **** * match your design.
  60:Generated_Source\PSoC6\pdl\drivers/peripheral/scb/cy_scb_ezi2c.h **** *
  61:Generated_Source\PSoC6\pdl\drivers/peripheral/scb/cy_scb_ezi2c.h **** ********************************************************************************
  62:Generated_Source\PSoC6\pdl\drivers/peripheral/scb/cy_scb_ezi2c.h **** * \subsection group_scb_ezi2c_config Configure EZI2C slave
  63:Generated_Source\PSoC6\pdl\drivers/peripheral/scb/cy_scb_ezi2c.h **** ********************************************************************************
  64:Generated_Source\PSoC6\pdl\drivers/peripheral/scb/cy_scb_ezi2c.h **** * To set up the EZI2C slave driver, provide the configuration parameters in the
  65:Generated_Source\PSoC6\pdl\drivers/peripheral/scb/cy_scb_ezi2c.h **** * \ref cy_stc_scb_ezi2c_config_t structure. The primary slave address
  66:Generated_Source\PSoC6\pdl\drivers/peripheral/scb/cy_scb_ezi2c.h **** * slaveAddress1 must be provided. The other parameters are optional for
  67:Generated_Source\PSoC6\pdl\drivers/peripheral/scb/cy_scb_ezi2c.h **** * operation. To initialize the driver, call \ref Cy_SCB_EZI2C_Init
  68:Generated_Source\PSoC6\pdl\drivers/peripheral/scb/cy_scb_ezi2c.h **** * function providing a pointer to the populated \ref cy_stc_scb_ezi2c_config_t
  69:Generated_Source\PSoC6\pdl\drivers/peripheral/scb/cy_scb_ezi2c.h **** * structure and the allocated \ref cy_stc_scb_ezi2c_context_t structure.
  70:Generated_Source\PSoC6\pdl\drivers/peripheral/scb/cy_scb_ezi2c.h **** *
  71:Generated_Source\PSoC6\pdl\drivers/peripheral/scb/cy_scb_ezi2c.h **** * \snippet SCB_CompDatasheet_sut_01_revA.cydsn\ezi2c_snippets.c EZI2C_CFG
  72:Generated_Source\PSoC6\pdl\drivers/peripheral/scb/cy_scb_ezi2c.h **** *
  73:Generated_Source\PSoC6\pdl\drivers/peripheral/scb/cy_scb_ezi2c.h **** * Set up the EZI2C slave buffer before enabling its
  74:Generated_Source\PSoC6\pdl\drivers/peripheral/scb/cy_scb_ezi2c.h **** * operation by using \ref Cy_SCB_EZI2C_SetBuffer1 for the primary slave address
  75:Generated_Source\PSoC6\pdl\drivers/peripheral/scb/cy_scb_ezi2c.h **** * and \ref Cy_SCB_EZI2C_SetBuffer2 for the secondary (if the secondary is enabled).
  76:Generated_Source\PSoC6\pdl\drivers/peripheral/scb/cy_scb_ezi2c.h **** *
  77:Generated_Source\PSoC6\pdl\drivers/peripheral/scb/cy_scb_ezi2c.h **** * \snippet SCB_CompDatasheet_sut_01_revA.cydsn\ezi2c_snippets.c EZI2C_CFG_BUFFER
  78:Generated_Source\PSoC6\pdl\drivers/peripheral/scb/cy_scb_ezi2c.h **** *
  79:Generated_Source\PSoC6\pdl\drivers/peripheral/scb/cy_scb_ezi2c.h **** ********************************************************************************
  80:Generated_Source\PSoC6\pdl\drivers/peripheral/scb/cy_scb_ezi2c.h **** * \subsection group_scb_ezi2c_pins Assign and Configure Pins
  81:Generated_Source\PSoC6\pdl\drivers/peripheral/scb/cy_scb_ezi2c.h **** ********************************************************************************
  82:Generated_Source\PSoC6\pdl\drivers/peripheral/scb/cy_scb_ezi2c.h **** * Only dedicated SCB pins can be used for I2C operation. The HSIOM
  83:Generated_Source\PSoC6\pdl\drivers/peripheral/scb/cy_scb_ezi2c.h **** * register must be configured to connect dedicated SCB I2C pins to the
  84:Generated_Source\PSoC6\pdl\drivers/peripheral/scb/cy_scb_ezi2c.h **** * SCB block. Also the I2C pins must be configured in Open-Drain, Drives Low mode
  85:Generated_Source\PSoC6\pdl\drivers/peripheral/scb/cy_scb_ezi2c.h **** * (this pin configuration implies usage of external pull-up resistors):
  86:Generated_Source\PSoC6\pdl\drivers/peripheral/scb/cy_scb_ezi2c.h **** *
  87:Generated_Source\PSoC6\pdl\drivers/peripheral/scb/cy_scb_ezi2c.h **** * \snippet SCB_CompDatasheet_sut_01_revA.cydsn\ezi2c_snippets.c EZI2C_CFG_PINS
  88:Generated_Source\PSoC6\pdl\drivers/peripheral/scb/cy_scb_ezi2c.h **** *
  89:Generated_Source\PSoC6\pdl\drivers/peripheral/scb/cy_scb_ezi2c.h **** * \note
ARM GAS  C:\Users\Rolf\AppData\Local\Temp\cchK4Yuu.s 			page 40


  90:Generated_Source\PSoC6\pdl\drivers/peripheral/scb/cy_scb_ezi2c.h **** * The alternative pins configuration is Resistive Pull-ups which implies usage
  91:Generated_Source\PSoC6\pdl\drivers/peripheral/scb/cy_scb_ezi2c.h **** * internal pull-up resistors. This configuration is not recommended because
  92:Generated_Source\PSoC6\pdl\drivers/peripheral/scb/cy_scb_ezi2c.h **** * resistor value is fixed and cannot be used for all supported data rates.
  93:Generated_Source\PSoC6\pdl\drivers/peripheral/scb/cy_scb_ezi2c.h **** * Refer to device datasheet parameter RPULLUP for resistor value specifications.
  94:Generated_Source\PSoC6\pdl\drivers/peripheral/scb/cy_scb_ezi2c.h **** *
  95:Generated_Source\PSoC6\pdl\drivers/peripheral/scb/cy_scb_ezi2c.h **** ********************************************************************************
  96:Generated_Source\PSoC6\pdl\drivers/peripheral/scb/cy_scb_ezi2c.h **** * \subsection group_scb_ezi2c_clock Assign Clock Divider
  97:Generated_Source\PSoC6\pdl\drivers/peripheral/scb/cy_scb_ezi2c.h **** ********************************************************************************
  98:Generated_Source\PSoC6\pdl\drivers/peripheral/scb/cy_scb_ezi2c.h **** * A clock source must be connected to the SCB block to oversample input and
  99:Generated_Source\PSoC6\pdl\drivers/peripheral/scb/cy_scb_ezi2c.h **** * output signals, in this document this clock will be referred as clk_scb.
 100:Generated_Source\PSoC6\pdl\drivers/peripheral/scb/cy_scb_ezi2c.h **** * You must use one of the 8-bit or 16-bit dividers. Use the \ref group_sysclk
 101:Generated_Source\PSoC6\pdl\drivers/peripheral/scb/cy_scb_ezi2c.h **** * driver API to do this.
 102:Generated_Source\PSoC6\pdl\drivers/peripheral/scb/cy_scb_ezi2c.h **** *
 103:Generated_Source\PSoC6\pdl\drivers/peripheral/scb/cy_scb_ezi2c.h **** * \snippet SCB_CompDatasheet_sut_01_revA.cydsn\ezi2c_snippets.c EZI2C_CFG_ASSIGN_CLOCK
 104:Generated_Source\PSoC6\pdl\drivers/peripheral/scb/cy_scb_ezi2c.h **** *
 105:Generated_Source\PSoC6\pdl\drivers/peripheral/scb/cy_scb_ezi2c.h **** ********************************************************************************
 106:Generated_Source\PSoC6\pdl\drivers/peripheral/scb/cy_scb_ezi2c.h **** * \subsection group_scb_ezi2c_data_rate Configure Data Rate
 107:Generated_Source\PSoC6\pdl\drivers/peripheral/scb/cy_scb_ezi2c.h **** ********************************************************************************
 108:Generated_Source\PSoC6\pdl\drivers/peripheral/scb/cy_scb_ezi2c.h **** * To get EZI2C slave to operate at the desired data rate, the clk_scb must be
 109:Generated_Source\PSoC6\pdl\drivers/peripheral/scb/cy_scb_ezi2c.h **** * fast enough to provide sufficient oversampling. Use the
 110:Generated_Source\PSoC6\pdl\drivers/peripheral/scb/cy_scb_ezi2c.h **** * \ref group_sysclk driver API to do this.
 111:Generated_Source\PSoC6\pdl\drivers/peripheral/scb/cy_scb_ezi2c.h **** *
 112:Generated_Source\PSoC6\pdl\drivers/peripheral/scb/cy_scb_ezi2c.h **** * <b>Refer to the technical reference manual (TRM) section I2C sub-section
 113:Generated_Source\PSoC6\pdl\drivers/peripheral/scb/cy_scb_ezi2c.h **** * Oversampling and Bit Rate to get information about how to configure the
 114:Generated_Source\PSoC6\pdl\drivers/peripheral/scb/cy_scb_ezi2c.h **** * I2C to run at the desired data rate</b>.
 115:Generated_Source\PSoC6\pdl\drivers/peripheral/scb/cy_scb_ezi2c.h **** *
 116:Generated_Source\PSoC6\pdl\drivers/peripheral/scb/cy_scb_ezi2c.h **** * \snippet SCB_CompDatasheet_sut_01_revA.cydsn\ezi2c_snippets.c EZI2C_CFG_DATA_RATE
 117:Generated_Source\PSoC6\pdl\drivers/peripheral/scb/cy_scb_ezi2c.h **** *
 118:Generated_Source\PSoC6\pdl\drivers/peripheral/scb/cy_scb_ezi2c.h **** ********************************************************************************
 119:Generated_Source\PSoC6\pdl\drivers/peripheral/scb/cy_scb_ezi2c.h **** * \subsection group_scb_ezi2c_intr Configure Interrupt
 120:Generated_Source\PSoC6\pdl\drivers/peripheral/scb/cy_scb_ezi2c.h **** ********************************************************************************
 121:Generated_Source\PSoC6\pdl\drivers/peripheral/scb/cy_scb_ezi2c.h **** * The interrupt is mandatory for the EZI2C slave operation.
 122:Generated_Source\PSoC6\pdl\drivers/peripheral/scb/cy_scb_ezi2c.h **** * The \ref Cy_SCB_EZI2C_Interrupt function must be called in the interrupt
 123:Generated_Source\PSoC6\pdl\drivers/peripheral/scb/cy_scb_ezi2c.h **** * handler for the selected SCB instance. Also, this interrupt must be enabled
 124:Generated_Source\PSoC6\pdl\drivers/peripheral/scb/cy_scb_ezi2c.h **** * in the NVIC or it will not work.
 125:Generated_Source\PSoC6\pdl\drivers/peripheral/scb/cy_scb_ezi2c.h **** *
 126:Generated_Source\PSoC6\pdl\drivers/peripheral/scb/cy_scb_ezi2c.h **** * \snippet SCB_CompDatasheet_sut_01_revA.cydsn\ezi2c_snippets.c EZI2C_INTR_A
 127:Generated_Source\PSoC6\pdl\drivers/peripheral/scb/cy_scb_ezi2c.h **** * \snippet SCB_CompDatasheet_sut_01_revA.cydsn\ezi2c_snippets.c EZI2C_INTR_B
 128:Generated_Source\PSoC6\pdl\drivers/peripheral/scb/cy_scb_ezi2c.h **** *
 129:Generated_Source\PSoC6\pdl\drivers/peripheral/scb/cy_scb_ezi2c.h **** ********************************************************************************
 130:Generated_Source\PSoC6\pdl\drivers/peripheral/scb/cy_scb_ezi2c.h **** * \subsection group_scb_ezi2c_enable Enable EZI2C slave
