ARM GAS  C:\Users\Rolf\AppData\Local\Temp\ccPMJUbQ.s 			page 1


   1              		.syntax unified
   2              		.cpu cortex-m0plus
   3              		.fpu softvfp
   4              		.eabi_attribute 20, 1
   5              		.eabi_attribute 21, 1
   6              		.eabi_attribute 23, 3
   7              		.eabi_attribute 24, 1
   8              		.eabi_attribute 25, 1
   9              		.eabi_attribute 26, 1
  10              		.eabi_attribute 30, 1
  11              		.eabi_attribute 34, 0
  12              		.eabi_attribute 18, 4
  13              		.thumb
  14              		.syntax unified
  15              		.file	"CapSense_Processing.c"
  16              		.text
  17              	.Ltext0:
  18              		.cfi_sections	.debug_frame
  19              		.section	.text.CapSense_DpInitialize,"ax",%progbits
  20              		.align	2
  21              		.global	CapSense_DpInitialize
  22              		.code	16
  23              		.thumb_func
  24              		.type	CapSense_DpInitialize, %function
  25              	CapSense_DpInitialize:
  26              	.LFB45:
  27              		.file 1 "Generated_Source\\PSoC6\\CapSense_Processing.c"
   1:Generated_Source\PSoC6/CapSense_Processing.c **** /***************************************************************************//**
   2:Generated_Source\PSoC6/CapSense_Processing.c **** * \file CapSense_Processing.c
   3:Generated_Source\PSoC6/CapSense_Processing.c **** * \version 3.0
   4:Generated_Source\PSoC6/CapSense_Processing.c **** *
   5:Generated_Source\PSoC6/CapSense_Processing.c **** * \brief
   6:Generated_Source\PSoC6/CapSense_Processing.c **** *   This file provides the source code for the Data Processing module APIs
   7:Generated_Source\PSoC6/CapSense_Processing.c **** *   of the Component. The Data Processing module is responsible for the
   8:Generated_Source\PSoC6/CapSense_Processing.c **** *   low level raw counts processing provided by the sensing module, maintaining
   9:Generated_Source\PSoC6/CapSense_Processing.c **** *   baseline and difference values and performing high-level widget processing
  10:Generated_Source\PSoC6/CapSense_Processing.c **** *   like updating button status or calculating slider position.
  11:Generated_Source\PSoC6/CapSense_Processing.c **** *
  12:Generated_Source\PSoC6/CapSense_Processing.c **** * \see CapSense v3.0 Datasheet
  13:Generated_Source\PSoC6/CapSense_Processing.c **** *
  14:Generated_Source\PSoC6/CapSense_Processing.c **** *//*****************************************************************************
  15:Generated_Source\PSoC6/CapSense_Processing.c **** * Copyright (2016-2017), Cypress Semiconductor Corporation.
  16:Generated_Source\PSoC6/CapSense_Processing.c **** ********************************************************************************
  17:Generated_Source\PSoC6/CapSense_Processing.c **** * This software is owned by Cypress Semiconductor Corporation (Cypress) and is
  18:Generated_Source\PSoC6/CapSense_Processing.c **** * protected by and subject to worldwide patent protection (United States and
  19:Generated_Source\PSoC6/CapSense_Processing.c **** * foreign), United States copyright laws and international treaty provisions.
  20:Generated_Source\PSoC6/CapSense_Processing.c **** * Cypress hereby grants to licensee a personal, non-exclusive, non-transferable
  21:Generated_Source\PSoC6/CapSense_Processing.c **** * license to copy, use, modify, create derivative works of, and compile the
  22:Generated_Source\PSoC6/CapSense_Processing.c **** * Cypress Source Code and derivative works for the sole purpose of creating
  23:Generated_Source\PSoC6/CapSense_Processing.c **** * custom software in support of licensee product to be used only in conjunction
  24:Generated_Source\PSoC6/CapSense_Processing.c **** * with a Cypress integrated circuit as specified in the applicable agreement.
  25:Generated_Source\PSoC6/CapSense_Processing.c **** * Any reproduction, modification, translation, compilation, or representation of
  26:Generated_Source\PSoC6/CapSense_Processing.c **** * this software except as specified above is prohibited without the express
  27:Generated_Source\PSoC6/CapSense_Processing.c **** * written permission of Cypress.
  28:Generated_Source\PSoC6/CapSense_Processing.c **** *
  29:Generated_Source\PSoC6/CapSense_Processing.c **** * Disclaimer: CYPRESS MAKES NO WARRANTY OF ANY KIND, EXPRESS OR IMPLIED, WITH
  30:Generated_Source\PSoC6/CapSense_Processing.c **** * REGARD TO THIS MATERIAL, INCLUDING, BUT NOT LIMITED TO, THE IMPLIED
ARM GAS  C:\Users\Rolf\AppData\Local\Temp\ccPMJUbQ.s 			page 2


  31:Generated_Source\PSoC6/CapSense_Processing.c **** * WARRANTIES OF MERCHANTABILITY AND FITNESS FOR A PARTICULAR PURPOSE.
  32:Generated_Source\PSoC6/CapSense_Processing.c **** * Cypress reserves the right to make changes without further notice to the
  33:Generated_Source\PSoC6/CapSense_Processing.c **** * materials described herein. Cypress does not assume any liability arising out
  34:Generated_Source\PSoC6/CapSense_Processing.c **** * of the application or use of any product or circuit described herein. Cypress
  35:Generated_Source\PSoC6/CapSense_Processing.c **** * does not authorize its products for use as critical components in life-support
  36:Generated_Source\PSoC6/CapSense_Processing.c **** * systems where a malfunction or failure may reasonably be expected to result in
  37:Generated_Source\PSoC6/CapSense_Processing.c **** * significant injury to the user. The inclusion of Cypress' product in a life-
  38:Generated_Source\PSoC6/CapSense_Processing.c **** * support systems application implies that the manufacturer assumes all risk of
  39:Generated_Source\PSoC6/CapSense_Processing.c **** * such use and in doing so indemnifies Cypress against all charges. Use may be
  40:Generated_Source\PSoC6/CapSense_Processing.c **** * limited by and subject to the applicable Cypress software license agreement.
  41:Generated_Source\PSoC6/CapSense_Processing.c **** *******************************************************************************/
  42:Generated_Source\PSoC6/CapSense_Processing.c **** 
  43:Generated_Source\PSoC6/CapSense_Processing.c **** #include "syslib/cy_syslib.h"
  44:Generated_Source\PSoC6/CapSense_Processing.c **** #include <stddef.h>
  45:Generated_Source\PSoC6/CapSense_Processing.c **** #include <string.h>
  46:Generated_Source\PSoC6/CapSense_Processing.c **** #include "CapSense_Configuration.h"
  47:Generated_Source\PSoC6/CapSense_Processing.c **** #include "CapSense_Processing.h"
  48:Generated_Source\PSoC6/CapSense_Processing.c **** #include "CapSense_Filter.h"
  49:Generated_Source\PSoC6/CapSense_Processing.c **** 
  50:Generated_Source\PSoC6/CapSense_Processing.c **** #if (0u != CapSense_CENTROID_EN)
  51:Generated_Source\PSoC6/CapSense_Processing.c ****     #include "CapSense_Centroid_LL.h"
  52:Generated_Source\PSoC6/CapSense_Processing.c **** #endif /* (0 != CapSense_CENTROID_EN) */
  53:Generated_Source\PSoC6/CapSense_Processing.c **** 
  54:Generated_Source\PSoC6/CapSense_Processing.c **** #if (0 != (CapSense_CSD_AUTOTUNE & CapSense_CSD_SS_TH_EN))
  55:Generated_Source\PSoC6/CapSense_Processing.c ****     #include "CapSense_SmartSense_LL.h"
  56:Generated_Source\PSoC6/CapSense_Processing.c **** #endif /* (0 != (CapSense_CSD_AUTOTUNE & CapSense_CSD_SS_TH_EN)) */
  57:Generated_Source\PSoC6/CapSense_Processing.c **** 
  58:Generated_Source\PSoC6/CapSense_Processing.c **** #if (CapSense_ENABLE == CapSense_SELF_TEST_EN)
  59:Generated_Source\PSoC6/CapSense_Processing.c ****     #include "CapSense_SelfTest.h"
  60:Generated_Source\PSoC6/CapSense_Processing.c **** #endif
  61:Generated_Source\PSoC6/CapSense_Processing.c **** 
  62:Generated_Source\PSoC6/CapSense_Processing.c **** #if (CapSense_ENABLE == CapSense_CENTROID_5X5_CSD_EN)
  63:Generated_Source\PSoC6/CapSense_Processing.c ****     #include "CapSense_AdvancedCentroid_LL.h"
  64:Generated_Source\PSoC6/CapSense_Processing.c **** #endif
  65:Generated_Source\PSoC6/CapSense_Processing.c **** 
  66:Generated_Source\PSoC6/CapSense_Processing.c **** #if (CapSense_ENABLE == CapSense_POS_ADAPTIVE_IIR_FILTER_EN)
  67:Generated_Source\PSoC6/CapSense_Processing.c ****     #include "CapSense_AdaptiveFilter_LL.h"
  68:Generated_Source\PSoC6/CapSense_Processing.c **** #endif
  69:Generated_Source\PSoC6/CapSense_Processing.c **** 
  70:Generated_Source\PSoC6/CapSense_Processing.c **** #if(CapSense_ENABLE == CapSense_BALLISTIC_MULTIPLIER_EN)
  71:Generated_Source\PSoC6/CapSense_Processing.c ****     #include "CapSense_Gesture.h"
  72:Generated_Source\PSoC6/CapSense_Processing.c **** #endif
  73:Generated_Source\PSoC6/CapSense_Processing.c **** 
  74:Generated_Source\PSoC6/CapSense_Processing.c **** /**************************************************************************************************
  75:Generated_Source\PSoC6/CapSense_Processing.c **** * Local definition
  76:Generated_Source\PSoC6/CapSense_Processing.c **** ***************************************************************************************************
  77:Generated_Source\PSoC6/CapSense_Processing.c **** 
  78:Generated_Source\PSoC6/CapSense_Processing.c **** /* UINT32 constant with all odd bits set. It is used by the processing function of the Proximity wi
  79:Generated_Source\PSoC6/CapSense_Processing.c **** *  determine type of the status bit: odd bits report proximity status; even bits report touch statu
  80:Generated_Source\PSoC6/CapSense_Processing.c **** */
  81:Generated_Source\PSoC6/CapSense_Processing.c **** #define UINT32_ODD_BITS_CONST       (0x55555555u)
  82:Generated_Source\PSoC6/CapSense_Processing.c **** 
  83:Generated_Source\PSoC6/CapSense_Processing.c **** /* Default value for the Off Debounce counter when the Off Debounce is disabled */
  84:Generated_Source\PSoC6/CapSense_Processing.c **** #define DEFAULT_OFF_DEBOUNCE_VALUE  (1u)
  85:Generated_Source\PSoC6/CapSense_Processing.c **** #define PERCENTAGE_100              (100u)
  86:Generated_Source\PSoC6/CapSense_Processing.c **** #define TEMP_BUFFER_MSB_SHIFT       (16)
  87:Generated_Source\PSoC6/CapSense_Processing.c **** 
ARM GAS  C:\Users\Rolf\AppData\Local\Temp\ccPMJUbQ.s 			page 3


  88:Generated_Source\PSoC6/CapSense_Processing.c **** /**************************************************************************************************
  89:Generated_Source\PSoC6/CapSense_Processing.c **** * Local variables
  90:Generated_Source\PSoC6/CapSense_Processing.c **** ***************************************************************************************************
  91:Generated_Source\PSoC6/CapSense_Processing.c **** #if (0u != CapSense_CSX_MULTIPHASE_TX_EN)
  92:Generated_Source\PSoC6/CapSense_Processing.c ****     static uint16 deconvRowData[CapSense_CSX_MAX_TX_PHASE_LENGTH];
  93:Generated_Source\PSoC6/CapSense_Processing.c **** #endif
  94:Generated_Source\PSoC6/CapSense_Processing.c **** 
  95:Generated_Source\PSoC6/CapSense_Processing.c **** 
  96:Generated_Source\PSoC6/CapSense_Processing.c **** /**************************************************************************************************
  97:Generated_Source\PSoC6/CapSense_Processing.c **** * Static Function Prototypes
  98:Generated_Source\PSoC6/CapSense_Processing.c **** ***************************************************************************************************
  99:Generated_Source\PSoC6/CapSense_Processing.c **** /**
 100:Generated_Source\PSoC6/CapSense_Processing.c **** * \cond SECTION_CYSENSE_INTERNAL
 101:Generated_Source\PSoC6/CapSense_Processing.c **** * \addtogroup group_cysense_internal
 102:Generated_Source\PSoC6/CapSense_Processing.c **** * \{
 103:Generated_Source\PSoC6/CapSense_Processing.c **** */
 104:Generated_Source\PSoC6/CapSense_Processing.c **** #if (0u != CapSense_TOTAL_LINEAR_SLIDERS)
 105:Generated_Source\PSoC6/CapSense_Processing.c ****     __STATIC_INLINE void DpUpdateLinSlider(
 106:Generated_Source\PSoC6/CapSense_Processing.c ****                         const uint16 newPos[], uint32 numTouches,
 107:Generated_Source\PSoC6/CapSense_Processing.c ****                         CapSense_FLASH_WD_STRUCT const *ptrFlashWdgt,
 108:Generated_Source\PSoC6/CapSense_Processing.c ****                         CapSense_RAM_WD_SLIDER_STRUCT *ptrRamWdgt);
 109:Generated_Source\PSoC6/CapSense_Processing.c **** #endif /* #if (0u != CapSense_TOTAL_LINEAR_SLIDERS) */
 110:Generated_Source\PSoC6/CapSense_Processing.c **** 
 111:Generated_Source\PSoC6/CapSense_Processing.c **** #if (0u != CapSense_TOTAL_RADIAL_SLIDERS)
 112:Generated_Source\PSoC6/CapSense_Processing.c ****     __STATIC_INLINE void DpUpdateRadSlider(
 113:Generated_Source\PSoC6/CapSense_Processing.c ****                         const uint16 newPos[], uint32 numTouches,
 114:Generated_Source\PSoC6/CapSense_Processing.c ****                         CapSense_FLASH_WD_STRUCT const * ptrFlashWdgt,
 115:Generated_Source\PSoC6/CapSense_Processing.c ****                         CapSense_RAM_WD_SLIDER_STRUCT *ptrRamWdgt);
 116:Generated_Source\PSoC6/CapSense_Processing.c **** #endif /* #if (0u != CapSense_TOTAL_RADIAL_SLIDERS) */
 117:Generated_Source\PSoC6/CapSense_Processing.c **** 
 118:Generated_Source\PSoC6/CapSense_Processing.c **** #if (0u != CapSense_CSD_TOUCHPAD_WIDGET_EN)
 119:Generated_Source\PSoC6/CapSense_Processing.c ****     __STATIC_INLINE void CapSense_DpInitCsdTouchpad(CapSense_FLASH_WD_STRUCT const * ptrFlashWdgt);
 120:Generated_Source\PSoC6/CapSense_Processing.c **** #endif /* #if (0u != CapSense_CSD_TOUCHPAD_WIDGET_EN) */
 121:Generated_Source\PSoC6/CapSense_Processing.c **** 
 122:Generated_Source\PSoC6/CapSense_Processing.c **** #if (0u != CapSense_CSX_TOUCHPAD_WIDGET_EN)
 123:Generated_Source\PSoC6/CapSense_Processing.c ****     __STATIC_INLINE void CapSense_DpInitCsxTouchpad(CapSense_FLASH_WD_STRUCT const * ptrFlashWdgt);
 124:Generated_Source\PSoC6/CapSense_Processing.c **** #endif /* #if (0u != CapSense_CSX_TOUCHPAD_WIDGET_EN) */
 125:Generated_Source\PSoC6/CapSense_Processing.c **** 
 126:Generated_Source\PSoC6/CapSense_Processing.c **** #if (0u != CapSense_SLIDER_WIDGET_EN)
 127:Generated_Source\PSoC6/CapSense_Processing.c ****     __STATIC_INLINE void CapSense_DpInitSlider(CapSense_FLASH_WD_STRUCT const * ptrFlashWdgt);
 128:Generated_Source\PSoC6/CapSense_Processing.c **** #endif /* #if (0u != CapSense_SLIDER_WIDGET_EN) */
 129:Generated_Source\PSoC6/CapSense_Processing.c **** 
 130:Generated_Source\PSoC6/CapSense_Processing.c **** #if (0u != CapSense_CSD_MATRIX_WIDGET_EN)
 131:Generated_Source\PSoC6/CapSense_Processing.c ****     __STATIC_INLINE void CapSense_DpInitCsdMatrix(CapSense_FLASH_WD_STRUCT const * ptrFlashWdgt);
 132:Generated_Source\PSoC6/CapSense_Processing.c **** #endif /* #if (0u != CapSense_CSD_MATRIX_WIDGET_EN) */
 133:Generated_Source\PSoC6/CapSense_Processing.c **** 
 134:Generated_Source\PSoC6/CapSense_Processing.c **** /** \}
 135:Generated_Source\PSoC6/CapSense_Processing.c **** * \endcond */
 136:Generated_Source\PSoC6/CapSense_Processing.c **** 
 137:Generated_Source\PSoC6/CapSense_Processing.c **** #if (0u != CapSense_CSD_TOUCHPAD_WIDGET_EN)
 138:Generated_Source\PSoC6/CapSense_Processing.c **** /*******************************************************************************
 139:Generated_Source\PSoC6/CapSense_Processing.c **** * Function Name: CapSense_DpInitCsdTouchpad
 140:Generated_Source\PSoC6/CapSense_Processing.c **** ****************************************************************************//**
 141:Generated_Source\PSoC6/CapSense_Processing.c **** *
 142:Generated_Source\PSoC6/CapSense_Processing.c **** * \brief
 143:Generated_Source\PSoC6/CapSense_Processing.c **** *  Performs initialization of the CSD touchpad widget.
 144:Generated_Source\PSoC6/CapSense_Processing.c **** *   - Resets the position data to NONE
ARM GAS  C:\Users\Rolf\AppData\Local\Temp\ccPMJUbQ.s 			page 4


 145:Generated_Source\PSoC6/CapSense_Processing.c **** *   - Initializes the position filter history if enabled.
 146:Generated_Source\PSoC6/CapSense_Processing.c **** *
 147:Generated_Source\PSoC6/CapSense_Processing.c **** * \details
 148:Generated_Source\PSoC6/CapSense_Processing.c **** *  The position data is always reset to the CapSense_TOUCHPAD_POS_NONE value.
 149:Generated_Source\PSoC6/CapSense_Processing.c **** *  The same happens to the position filter history data if enabled.
 150:Generated_Source\PSoC6/CapSense_Processing.c **** *
 151:Generated_Source\PSoC6/CapSense_Processing.c **** *******************************************************************************/
 152:Generated_Source\PSoC6/CapSense_Processing.c **** __STATIC_INLINE void CapSense_DpInitCsdTouchpad(CapSense_FLASH_WD_STRUCT const * ptrFlashWdgt)
 153:Generated_Source\PSoC6/CapSense_Processing.c **** {
 154:Generated_Source\PSoC6/CapSense_Processing.c ****     #if (CapSense_ENABLE == CapSense_CENTROID_5X5_CSD_EN)
 155:Generated_Source\PSoC6/CapSense_Processing.c ****         uint32 touchIndex;
 156:Generated_Source\PSoC6/CapSense_Processing.c ****     #endif
 157:Generated_Source\PSoC6/CapSense_Processing.c **** 
 158:Generated_Source\PSoC6/CapSense_Processing.c ****     CapSense_RAM_WD_CSD_TOUCHPAD_STRUCT *ptrWdTouchpad;
 159:Generated_Source\PSoC6/CapSense_Processing.c **** 
 160:Generated_Source\PSoC6/CapSense_Processing.c ****     #if (0u != CapSense_POSITION_FILTER_EN)
 161:Generated_Source\PSoC6/CapSense_Processing.c ****         CapSense_TOUCHPAD_POS_HISTORY_STRUCT *ptrHistory;
 162:Generated_Source\PSoC6/CapSense_Processing.c ****     #endif  /* #if (0u != CapSense_POSITION_FILTER_EN) */
 163:Generated_Source\PSoC6/CapSense_Processing.c **** 
 164:Generated_Source\PSoC6/CapSense_Processing.c ****     #if (0u != CapSense_POS_ADAPTIVE_IIR_FILTER_EN)
 165:Generated_Source\PSoC6/CapSense_Processing.c ****         ADAPTIVE_FILTER_CONTEXT_STRUCT adpContext;
 166:Generated_Source\PSoC6/CapSense_Processing.c ****     #endif /* (0u != CapSense_POS_ADAPTIVE_IIR_FILTER_EN) */
 167:Generated_Source\PSoC6/CapSense_Processing.c **** 
 168:Generated_Source\PSoC6/CapSense_Processing.c ****     ptrWdTouchpad = ptrFlashWdgt->ptr2WdgtRam;
 169:Generated_Source\PSoC6/CapSense_Processing.c **** 
 170:Generated_Source\PSoC6/CapSense_Processing.c ****     /* Reset position data */
 171:Generated_Source\PSoC6/CapSense_Processing.c ****     #if (CapSense_ENABLE == CapSense_CENTROID_5X5_CSD_EN)
 172:Generated_Source\PSoC6/CapSense_Processing.c ****         #if (CapSense_ENABLE == CapSense_CENTROID_3X3_CSD_EN)
 173:Generated_Source\PSoC6/CapSense_Processing.c ****             if (0u != (ptrFlashWdgt->staticConfig & CapSense_CENTROID_5X5_MASK))
 174:Generated_Source\PSoC6/CapSense_Processing.c ****             {
 175:Generated_Source\PSoC6/CapSense_Processing.c ****         #endif
 176:Generated_Source\PSoC6/CapSense_Processing.c **** 
 177:Generated_Source\PSoC6/CapSense_Processing.c ****         ptrWdTouchpad->position.touchNum = 0u;
 178:Generated_Source\PSoC6/CapSense_Processing.c **** 
 179:Generated_Source\PSoC6/CapSense_Processing.c ****         #if (0u != CapSense_POSITION_FILTER_EN)
 180:Generated_Source\PSoC6/CapSense_Processing.c ****             ptrHistory = ptrFlashWdgt->ptr2PosHistory;
 181:Generated_Source\PSoC6/CapSense_Processing.c ****         #endif /* (0u != CapSense_POSITION_FILTER_EN) */
 182:Generated_Source\PSoC6/CapSense_Processing.c **** 
 183:Generated_Source\PSoC6/CapSense_Processing.c ****         for (touchIndex = 0u; touchIndex < ADVANCED_CENTROID_MAX_TOUCHES; touchIndex++)
 184:Generated_Source\PSoC6/CapSense_Processing.c ****         {
 185:Generated_Source\PSoC6/CapSense_Processing.c ****             ptrWdTouchpad->position.pos[touchIndex].x = ADVANCED_CENTROID_POSITION_NONE;
 186:Generated_Source\PSoC6/CapSense_Processing.c ****             ptrWdTouchpad->position.pos[touchIndex].y = ADVANCED_CENTROID_POSITION_NONE;
 187:Generated_Source\PSoC6/CapSense_Processing.c ****             ptrWdTouchpad->position.pos[touchIndex].zX = ADVANCED_CENTROID_POSITION_NONE;
 188:Generated_Source\PSoC6/CapSense_Processing.c ****             ptrWdTouchpad->position.pos[touchIndex].zY = ADVANCED_CENTROID_POSITION_NONE;
 189:Generated_Source\PSoC6/CapSense_Processing.c **** 
 190:Generated_Source\PSoC6/CapSense_Processing.c ****             /* Clear position filter history data if available */
 191:Generated_Source\PSoC6/CapSense_Processing.c ****             #if (0u != CapSense_POSITION_FILTER_EN)
 192:Generated_Source\PSoC6/CapSense_Processing.c ****                 if (NULL != ptrHistory)
 193:Generated_Source\PSoC6/CapSense_Processing.c ****                 {
 194:Generated_Source\PSoC6/CapSense_Processing.c ****                     CapSense_InitPosFiltersDd(&ptrHistory[touchIndex], CapSense_TOUCHPAD_POS_NONE, 
 195:Generated_Source\PSoC6/CapSense_Processing.c ****                     #if (0u != CapSense_POS_ADAPTIVE_IIR_FILTER_EN)
 196:Generated_Source\PSoC6/CapSense_Processing.c ****                         AdaptiveFilter_Initialize(&ptrWdTouchpad->aiirConfig, &adpContext);
 197:Generated_Source\PSoC6/CapSense_Processing.c ****                         ptrHistory[touchIndex].xPos.posAIIRCoeff = adpContext.coefficient;
 198:Generated_Source\PSoC6/CapSense_Processing.c ****                         ptrHistory[touchIndex].yPos.posAIIRCoeff = adpContext.coefficient;
 199:Generated_Source\PSoC6/CapSense_Processing.c ****                     #endif /* (0u != CapSense_POS_ADAPTIVE_IIR_FILTER_EN) */
 200:Generated_Source\PSoC6/CapSense_Processing.c ****                 }
 201:Generated_Source\PSoC6/CapSense_Processing.c ****             #endif /* (0u != CapSense_POSITION_FILTER_EN) */
ARM GAS  C:\Users\Rolf\AppData\Local\Temp\ccPMJUbQ.s 			page 5


 202:Generated_Source\PSoC6/CapSense_Processing.c ****         }
 203:Generated_Source\PSoC6/CapSense_Processing.c **** 
 204:Generated_Source\PSoC6/CapSense_Processing.c ****         #if (CapSense_ENABLE == CapSense_CENTROID_3X3_CSD_EN)
 205:Generated_Source\PSoC6/CapSense_Processing.c ****             }
 206:Generated_Source\PSoC6/CapSense_Processing.c ****         #endif
 207:Generated_Source\PSoC6/CapSense_Processing.c ****     #endif
 208:Generated_Source\PSoC6/CapSense_Processing.c **** 
 209:Generated_Source\PSoC6/CapSense_Processing.c ****     #if (CapSense_ENABLE == CapSense_CENTROID_3X3_CSD_EN)
 210:Generated_Source\PSoC6/CapSense_Processing.c ****         if (0u != (ptrFlashWdgt->staticConfig & CapSense_CENTROID_3X3_MASK))
 211:Generated_Source\PSoC6/CapSense_Processing.c ****         {
 212:Generated_Source\PSoC6/CapSense_Processing.c ****             ptrWdTouchpad->posX = CapSense_TOUCHPAD_POS_NONE;
 213:Generated_Source\PSoC6/CapSense_Processing.c ****             ptrWdTouchpad->posY = CapSense_TOUCHPAD_POS_NONE;
 214:Generated_Source\PSoC6/CapSense_Processing.c **** 
 215:Generated_Source\PSoC6/CapSense_Processing.c ****             /* Clear position filter history data if available */
 216:Generated_Source\PSoC6/CapSense_Processing.c ****             #if (0u != CapSense_POSITION_FILTER_EN)
 217:Generated_Source\PSoC6/CapSense_Processing.c ****                 ptrHistory = ptrFlashWdgt->ptr2PosHistory;
 218:Generated_Source\PSoC6/CapSense_Processing.c ****                 CapSense_InitPosFiltersDd(ptrHistory, CapSense_TOUCHPAD_POS_NONE, CapSense_TOUCHPAD
 219:Generated_Source\PSoC6/CapSense_Processing.c **** 
 220:Generated_Source\PSoC6/CapSense_Processing.c ****                 #if (0u != CapSense_POS_ADAPTIVE_IIR_FILTER_EN)
 221:Generated_Source\PSoC6/CapSense_Processing.c ****                     if (NULL != ptrHistory)
 222:Generated_Source\PSoC6/CapSense_Processing.c ****                     {
 223:Generated_Source\PSoC6/CapSense_Processing.c ****                         AdaptiveFilter_Initialize(&ptrWdTouchpad->aiirConfig, &adpContext);
 224:Generated_Source\PSoC6/CapSense_Processing.c ****                         ptrHistory->xPos.posAIIRCoeff = adpContext.coefficient;
 225:Generated_Source\PSoC6/CapSense_Processing.c ****                         ptrHistory->yPos.posAIIRCoeff = adpContext.coefficient;
 226:Generated_Source\PSoC6/CapSense_Processing.c ****                     }
 227:Generated_Source\PSoC6/CapSense_Processing.c ****                 #endif /* (0u != CapSense_POS_ADAPTIVE_IIR_FILTER_EN) */
 228:Generated_Source\PSoC6/CapSense_Processing.c ****             #endif /* (0u != CapSense_POSITION_FILTER_EN) */
 229:Generated_Source\PSoC6/CapSense_Processing.c ****         }
 230:Generated_Source\PSoC6/CapSense_Processing.c ****     #endif
 231:Generated_Source\PSoC6/CapSense_Processing.c **** }
 232:Generated_Source\PSoC6/CapSense_Processing.c **** #endif /* #if (0u != CapSense_CSD_TOUCHPAD_WIDGET_EN) */
 233:Generated_Source\PSoC6/CapSense_Processing.c **** 
 234:Generated_Source\PSoC6/CapSense_Processing.c **** #if (0u != CapSense_CSX_TOUCHPAD_WIDGET_EN)
 235:Generated_Source\PSoC6/CapSense_Processing.c **** /*******************************************************************************
 236:Generated_Source\PSoC6/CapSense_Processing.c **** * Function Name: CapSense_DpInitCsxTouchpad
 237:Generated_Source\PSoC6/CapSense_Processing.c **** ****************************************************************************//**
 238:Generated_Source\PSoC6/CapSense_Processing.c **** *
 239:Generated_Source\PSoC6/CapSense_Processing.c **** * \brief
 240:Generated_Source\PSoC6/CapSense_Processing.c **** *  Performs initialization of the CSX touchpad widget i.e. Resets the position data to NONE.
 241:Generated_Source\PSoC6/CapSense_Processing.c **** *
 242:Generated_Source\PSoC6/CapSense_Processing.c **** * \details
 243:Generated_Source\PSoC6/CapSense_Processing.c **** *  The position data is always reset to the CapSense_TOUCHPAD_POS_NONE value.
 244:Generated_Source\PSoC6/CapSense_Processing.c **** *
 245:Generated_Source\PSoC6/CapSense_Processing.c **** *******************************************************************************/
 246:Generated_Source\PSoC6/CapSense_Processing.c **** __STATIC_INLINE void CapSense_DpInitCsxTouchpad(CapSense_FLASH_WD_STRUCT const * ptrFlashWdgt)
 247:Generated_Source\PSoC6/CapSense_Processing.c **** {
 248:Generated_Source\PSoC6/CapSense_Processing.c ****     CapSense_RAM_WD_CSX_TOUCHPAD_STRUCT *ptrWdTouchpad;
 249:Generated_Source\PSoC6/CapSense_Processing.c **** 
 250:Generated_Source\PSoC6/CapSense_Processing.c ****     #if (0u != CapSense_POSITION_FILTER_EN)
 251:Generated_Source\PSoC6/CapSense_Processing.c ****         uint32 touchIndex;
 252:Generated_Source\PSoC6/CapSense_Processing.c ****         CapSense_TOUCHPAD_POS_HISTORY_STRUCT *ptrHistory;
 253:Generated_Source\PSoC6/CapSense_Processing.c ****     #endif  /* #if (0u != CapSense_POSITION_FILTER_EN) */
 254:Generated_Source\PSoC6/CapSense_Processing.c **** 
 255:Generated_Source\PSoC6/CapSense_Processing.c ****     #if (0u != CapSense_POS_ADAPTIVE_IIR_FILTER_EN)
 256:Generated_Source\PSoC6/CapSense_Processing.c ****         ADAPTIVE_FILTER_CONTEXT_STRUCT adpContext;
 257:Generated_Source\PSoC6/CapSense_Processing.c ****     #endif /* (0u != CapSense_POS_ADAPTIVE_IIR_FILTER_EN) */
 258:Generated_Source\PSoC6/CapSense_Processing.c **** 
ARM GAS  C:\Users\Rolf\AppData\Local\Temp\ccPMJUbQ.s 			page 6


 259:Generated_Source\PSoC6/CapSense_Processing.c ****     ptrWdTouchpad = ptrFlashWdgt->ptr2WdgtRam;
 260:Generated_Source\PSoC6/CapSense_Processing.c **** 
 261:Generated_Source\PSoC6/CapSense_Processing.c ****     #if (0u != CapSense_POSITION_FILTER_EN)
 262:Generated_Source\PSoC6/CapSense_Processing.c ****         ptrHistory = ptrFlashWdgt->ptr2PosHistory;
 263:Generated_Source\PSoC6/CapSense_Processing.c ****     #endif /* (0u != CapSense_POSITION_FILTER_EN) */
 264:Generated_Source\PSoC6/CapSense_Processing.c **** 
 265:Generated_Source\PSoC6/CapSense_Processing.c ****     /* Reset position data for finger */
 266:Generated_Source\PSoC6/CapSense_Processing.c ****     ptrWdTouchpad->touch[0u].x = CapSense_TOUCHPAD_POS_NONE;
 267:Generated_Source\PSoC6/CapSense_Processing.c ****     ptrWdTouchpad->touch[0u].y = CapSense_TOUCHPAD_POS_NONE;
 268:Generated_Source\PSoC6/CapSense_Processing.c ****     ptrWdTouchpad->touch[0u].z = CY_LO8(CapSense_TOUCHPAD_POS_NONE);
 269:Generated_Source\PSoC6/CapSense_Processing.c **** 
 270:Generated_Source\PSoC6/CapSense_Processing.c ****     #if (CapSense_CSX_MAX_FINGERS > 1u)
 271:Generated_Source\PSoC6/CapSense_Processing.c ****         ptrWdTouchpad->touch[1u].x = CapSense_TOUCHPAD_POS_NONE;
 272:Generated_Source\PSoC6/CapSense_Processing.c ****         ptrWdTouchpad->touch[1u].y = CapSense_TOUCHPAD_POS_NONE;
 273:Generated_Source\PSoC6/CapSense_Processing.c ****         ptrWdTouchpad->touch[1u].z = CY_LO8(CapSense_TOUCHPAD_POS_NONE);
 274:Generated_Source\PSoC6/CapSense_Processing.c ****     #endif /* #if (CapSense_CSX_MAX_FINGERS > 1u) */
 275:Generated_Source\PSoC6/CapSense_Processing.c **** 
 276:Generated_Source\PSoC6/CapSense_Processing.c ****     #if (CapSense_CSX_MAX_FINGERS > 2u)
 277:Generated_Source\PSoC6/CapSense_Processing.c ****         ptrWdTouchpad->touch[2u].x = CapSense_TOUCHPAD_POS_NONE;
 278:Generated_Source\PSoC6/CapSense_Processing.c ****         ptrWdTouchpad->touch[2u].y = CapSense_TOUCHPAD_POS_NONE;
 279:Generated_Source\PSoC6/CapSense_Processing.c ****         ptrWdTouchpad->touch[2u].z = CY_LO8(CapSense_TOUCHPAD_POS_NONE);
 280:Generated_Source\PSoC6/CapSense_Processing.c ****     #endif /* #if (CapSense_CSX_MAX_FINGERS > 2u) */
 281:Generated_Source\PSoC6/CapSense_Processing.c **** 
 282:Generated_Source\PSoC6/CapSense_Processing.c ****     #if (0u != CapSense_POSITION_FILTER_EN)
 283:Generated_Source\PSoC6/CapSense_Processing.c ****         for (touchIndex = 0u; touchIndex < CapSense_CSX_MAX_FINGERS; touchIndex++)
 284:Generated_Source\PSoC6/CapSense_Processing.c ****         {
 285:Generated_Source\PSoC6/CapSense_Processing.c ****             if (NULL != ptrHistory)
 286:Generated_Source\PSoC6/CapSense_Processing.c ****             {
 287:Generated_Source\PSoC6/CapSense_Processing.c ****                 /* Clear position filter history data if available */
 288:Generated_Source\PSoC6/CapSense_Processing.c ****                 CapSense_InitPosFiltersDd(&ptrHistory[touchIndex], CapSense_TOUCHPAD_POS_NONE, CapS
 289:Generated_Source\PSoC6/CapSense_Processing.c ****                 #if (0u != CapSense_POS_ADAPTIVE_IIR_FILTER_EN)
 290:Generated_Source\PSoC6/CapSense_Processing.c ****                     AdaptiveFilter_Initialize(&ptrWdTouchpad->aiirConfig, &adpContext);
 291:Generated_Source\PSoC6/CapSense_Processing.c ****                     ptrHistory[touchIndex].xPos.posAIIRCoeff = adpContext.coefficient;
 292:Generated_Source\PSoC6/CapSense_Processing.c ****                     ptrHistory[touchIndex].yPos.posAIIRCoeff = adpContext.coefficient;
 293:Generated_Source\PSoC6/CapSense_Processing.c ****                 #endif /* (0u != CapSense_POS_ADAPTIVE_IIR_FILTER_EN) */
 294:Generated_Source\PSoC6/CapSense_Processing.c ****             }
 295:Generated_Source\PSoC6/CapSense_Processing.c ****         }
 296:Generated_Source\PSoC6/CapSense_Processing.c ****     #endif /* (0u != CapSense_POSITION_FILTER_EN) */
 297:Generated_Source\PSoC6/CapSense_Processing.c **** }
 298:Generated_Source\PSoC6/CapSense_Processing.c **** #endif /* #if (0u != CapSense_CSX_TOUCHPAD_WIDGET_EN) */
 299:Generated_Source\PSoC6/CapSense_Processing.c **** 
 300:Generated_Source\PSoC6/CapSense_Processing.c **** #if (0u != CapSense_SLIDER_WIDGET_EN)
 301:Generated_Source\PSoC6/CapSense_Processing.c **** /*******************************************************************************
 302:Generated_Source\PSoC6/CapSense_Processing.c **** * Function Name: CapSense_DpInitSlider
 303:Generated_Source\PSoC6/CapSense_Processing.c **** ****************************************************************************//**
 304:Generated_Source\PSoC6/CapSense_Processing.c **** *
 305:Generated_Source\PSoC6/CapSense_Processing.c **** * \brief
 306:Generated_Source\PSoC6/CapSense_Processing.c **** *  Performs initialization of the Radial and Linear Slider widget.
 307:Generated_Source\PSoC6/CapSense_Processing.c **** *   - Resets the position data to NONE
 308:Generated_Source\PSoC6/CapSense_Processing.c **** *   - Initializes the position filter history to NONE if enabled.
 309:Generated_Source\PSoC6/CapSense_Processing.c **** *
 310:Generated_Source\PSoC6/CapSense_Processing.c **** * \details
 311:Generated_Source\PSoC6/CapSense_Processing.c **** *  Position data is always reset to the CapSense_SLIDER_POS_NONE value.
 312:Generated_Source\PSoC6/CapSense_Processing.c **** *  The same happens to the position filter history data if enabled.
 313:Generated_Source\PSoC6/CapSense_Processing.c **** *
 314:Generated_Source\PSoC6/CapSense_Processing.c **** *******************************************************************************/
 315:Generated_Source\PSoC6/CapSense_Processing.c **** __STATIC_INLINE void CapSense_DpInitSlider(CapSense_FLASH_WD_STRUCT const * ptrFlashWdgt)
ARM GAS  C:\Users\Rolf\AppData\Local\Temp\ccPMJUbQ.s 			page 7


 316:Generated_Source\PSoC6/CapSense_Processing.c **** {
 317:Generated_Source\PSoC6/CapSense_Processing.c ****     uint32 idx;
 318:Generated_Source\PSoC6/CapSense_Processing.c ****     CapSense_RAM_WD_SLIDER_STRUCT *ptrWdSlider;
 319:Generated_Source\PSoC6/CapSense_Processing.c **** 
 320:Generated_Source\PSoC6/CapSense_Processing.c ****     #if (0u != CapSense_POSITION_FILTER_EN)
 321:Generated_Source\PSoC6/CapSense_Processing.c ****         CapSense_SLIDER_POS_HISTORY_STRUCT *ptrHistory;
 322:Generated_Source\PSoC6/CapSense_Processing.c ****     #endif /* #if (0u != CapSense_POSITION_FILTER_EN) */
 323:Generated_Source\PSoC6/CapSense_Processing.c **** 
 324:Generated_Source\PSoC6/CapSense_Processing.c ****     #if (0u != CapSense_POS_ADAPTIVE_IIR_FILTER_EN)
 325:Generated_Source\PSoC6/CapSense_Processing.c ****         ADAPTIVE_FILTER_CONTEXT_STRUCT context;
 326:Generated_Source\PSoC6/CapSense_Processing.c ****     #endif /* (0u != CapSense_POS_ADAPTIVE_IIR_FILTER_EN) */
 327:Generated_Source\PSoC6/CapSense_Processing.c **** 
 328:Generated_Source\PSoC6/CapSense_Processing.c ****     ptrWdSlider = ptrFlashWdgt->ptr2WdgtRam;
 329:Generated_Source\PSoC6/CapSense_Processing.c **** 
 330:Generated_Source\PSoC6/CapSense_Processing.c ****     /* Reset slider position data to NONE */
 331:Generated_Source\PSoC6/CapSense_Processing.c ****     for (idx = 0u; idx < CapSense_NUM_CENTROIDS; idx++)
 332:Generated_Source\PSoC6/CapSense_Processing.c ****     {
 333:Generated_Source\PSoC6/CapSense_Processing.c ****         ptrWdSlider->position[idx] = CapSense_SLIDER_POS_NONE;
 334:Generated_Source\PSoC6/CapSense_Processing.c **** 
 335:Generated_Source\PSoC6/CapSense_Processing.c ****         #if (0u != CapSense_POSITION_FILTER_EN)
 336:Generated_Source\PSoC6/CapSense_Processing.c ****             ptrHistory = ptrFlashWdgt->ptr2PosHistory;
 337:Generated_Source\PSoC6/CapSense_Processing.c ****             if (NULL != ptrHistory)
 338:Generated_Source\PSoC6/CapSense_Processing.c ****             {
 339:Generated_Source\PSoC6/CapSense_Processing.c ****                 CapSense_InitPosFiltersSd(&ptrHistory[idx], CapSense_SLIDER_POS_NONE);
 340:Generated_Source\PSoC6/CapSense_Processing.c ****                 #if (0u != CapSense_POS_ADAPTIVE_IIR_FILTER_EN)
 341:Generated_Source\PSoC6/CapSense_Processing.c ****                     AdaptiveFilter_Initialize(&ptrWdSlider->aiirConfig, &context);
 342:Generated_Source\PSoC6/CapSense_Processing.c ****                     ptrHistory->posAIIRCoeff = context.coefficient;
 343:Generated_Source\PSoC6/CapSense_Processing.c ****                 #endif /* (0u != CapSense_POS_ADAPTIVE_IIR_FILTER_EN) */
 344:Generated_Source\PSoC6/CapSense_Processing.c ****             }
 345:Generated_Source\PSoC6/CapSense_Processing.c **** 
 346:Generated_Source\PSoC6/CapSense_Processing.c ****         #endif /* #if (0u != CapSense_POSITION_FILTER_EN) */
 347:Generated_Source\PSoC6/CapSense_Processing.c ****     }
 348:Generated_Source\PSoC6/CapSense_Processing.c **** }
 349:Generated_Source\PSoC6/CapSense_Processing.c **** #endif /* #if (0u != CapSense_SLIDER_WIDGET_EN) */
 350:Generated_Source\PSoC6/CapSense_Processing.c **** 
 351:Generated_Source\PSoC6/CapSense_Processing.c **** #if (0u != CapSense_CSD_MATRIX_WIDGET_EN)
 352:Generated_Source\PSoC6/CapSense_Processing.c **** /*******************************************************************************
 353:Generated_Source\PSoC6/CapSense_Processing.c **** * Function Name: CapSense_DpInitCsdMatrix
 354:Generated_Source\PSoC6/CapSense_Processing.c **** ****************************************************************************//**
 355:Generated_Source\PSoC6/CapSense_Processing.c **** *
 356:Generated_Source\PSoC6/CapSense_Processing.c **** * \brief
 357:Generated_Source\PSoC6/CapSense_Processing.c **** *  Performs initialization of the CSD Matrix Buttons widget.
 358:Generated_Source\PSoC6/CapSense_Processing.c **** *   - Resets the active button position data to NONE.
 359:Generated_Source\PSoC6/CapSense_Processing.c **** *
 360:Generated_Source\PSoC6/CapSense_Processing.c **** * \details
 361:Generated_Source\PSoC6/CapSense_Processing.c **** *  Position data is always reset to the CapSense_MATRIX_POS_NONE value.
 362:Generated_Source\PSoC6/CapSense_Processing.c **** *
 363:Generated_Source\PSoC6/CapSense_Processing.c **** *******************************************************************************/
 364:Generated_Source\PSoC6/CapSense_Processing.c **** __STATIC_INLINE void CapSense_DpInitCsdMatrix(CapSense_FLASH_WD_STRUCT const * ptrFlashWdgt)
 365:Generated_Source\PSoC6/CapSense_Processing.c **** {
 366:Generated_Source\PSoC6/CapSense_Processing.c ****     CapSense_RAM_WD_CSD_MATRIX_STRUCT *ptrRamWdgt;
 367:Generated_Source\PSoC6/CapSense_Processing.c **** 
 368:Generated_Source\PSoC6/CapSense_Processing.c ****     ptrRamWdgt = (CapSense_RAM_WD_CSD_MATRIX_STRUCT *)ptrFlashWdgt->ptr2WdgtRam;
 369:Generated_Source\PSoC6/CapSense_Processing.c **** 
 370:Generated_Source\PSoC6/CapSense_Processing.c ****     /* Reset sensor id, row and col registers in data structure */
 371:Generated_Source\PSoC6/CapSense_Processing.c ****     ptrRamWdgt->posRow   = CapSense_MATRIX_POS_NONE;
 372:Generated_Source\PSoC6/CapSense_Processing.c ****     ptrRamWdgt->posCol   = CapSense_MATRIX_POS_NONE;
ARM GAS  C:\Users\Rolf\AppData\Local\Temp\ccPMJUbQ.s 			page 8


 373:Generated_Source\PSoC6/CapSense_Processing.c ****     ptrRamWdgt->posSnsId = CapSense_MATRIX_POS_NONE;
 374:Generated_Source\PSoC6/CapSense_Processing.c **** }
 375:Generated_Source\PSoC6/CapSense_Processing.c **** #endif /* #if (0u != CapSense_CSD_MATRIX_WIDGET_EN) */
 376:Generated_Source\PSoC6/CapSense_Processing.c **** 
 377:Generated_Source\PSoC6/CapSense_Processing.c **** /*******************************************************************************
 378:Generated_Source\PSoC6/CapSense_Processing.c **** * Function Name: CapSense_DpInitialize
 379:Generated_Source\PSoC6/CapSense_Processing.c **** ****************************************************************************//**
 380:Generated_Source\PSoC6/CapSense_Processing.c **** *
 381:Generated_Source\PSoC6/CapSense_Processing.c **** * \brief
 382:Generated_Source\PSoC6/CapSense_Processing.c **** *  Performs initialization of the data processing FW module:
 383:Generated_Source\PSoC6/CapSense_Processing.c **** *   - Resets the de-bounce counters of all the widgets
 384:Generated_Source\PSoC6/CapSense_Processing.c **** *   - Resets the position filter history for slider and touchpad widgets
 385:Generated_Source\PSoC6/CapSense_Processing.c **** *   - Clears widget and sensor statuses
 386:Generated_Source\PSoC6/CapSense_Processing.c **** *   - Enables all the widgets.
 387:Generated_Source\PSoC6/CapSense_Processing.c **** *
 388:Generated_Source\PSoC6/CapSense_Processing.c **** * \details
 389:Generated_Source\PSoC6/CapSense_Processing.c **** *  The Button and Matrix Button widgets have individual de-bounce counter per
 390:Generated_Source\PSoC6/CapSense_Processing.c **** *  sensor for the CSD widgets and per node for the CSX widgets.
 391:Generated_Source\PSoC6/CapSense_Processing.c **** *
 392:Generated_Source\PSoC6/CapSense_Processing.c **** *  The Slider and Touchpad widgets have a single de-bounce counter per widget.
 393:Generated_Source\PSoC6/CapSense_Processing.c **** *
 394:Generated_Source\PSoC6/CapSense_Processing.c **** *  The Proximity widget has two de-bounce counters per sensor. One for the
 395:Generated_Source\PSoC6/CapSense_Processing.c **** *  proximity event and second for the touch event.
 396:Generated_Source\PSoC6/CapSense_Processing.c **** *
 397:Generated_Source\PSoC6/CapSense_Processing.c **** *  All debounce counters during initialization are set to the value of the
 398:Generated_Source\PSoC6/CapSense_Processing.c **** *  onDebounce widget parameter.
 399:Generated_Source\PSoC6/CapSense_Processing.c **** *
 400:Generated_Source\PSoC6/CapSense_Processing.c **** *******************************************************************************/
 401:Generated_Source\PSoC6/CapSense_Processing.c **** void CapSense_DpInitialize(void)
 402:Generated_Source\PSoC6/CapSense_Processing.c **** {
  28              		.loc 1 402 0
  29              		.cfi_startproc
  30              		@ args = 0, pretend = 0, frame = 0
  31              		@ frame_needed = 0, uses_anonymous_args = 0
  32 0000 70B5     		push	{r4, r5, r6, lr}
  33              		.cfi_def_cfa_offset 16
  34              		.cfi_offset 4, -16
  35              		.cfi_offset 5, -12
  36              		.cfi_offset 6, -8
  37              		.cfi_offset 14, -4
  38              	.LVL0:
 403:Generated_Source\PSoC6/CapSense_Processing.c ****     uint32 wdgtId;
 404:Generated_Source\PSoC6/CapSense_Processing.c ****     CapSense_WD_TYPE_ENUM widgetType;
 405:Generated_Source\PSoC6/CapSense_Processing.c ****     CapSense_RAM_WD_BASE_STRUCT * ptrRamWdgt;
 406:Generated_Source\PSoC6/CapSense_Processing.c ****     CapSense_FLASH_WD_STRUCT const * ptrFlashWdgt;
 407:Generated_Source\PSoC6/CapSense_Processing.c **** 
 408:Generated_Source\PSoC6/CapSense_Processing.c ****     for (wdgtId = 0u; wdgtId < CapSense_WDGT_STATUS_WORDS; wdgtId++)
  39              		.loc 1 408 0
  40 0002 0023     		movs	r3, #0
  41 0004 09E0     		b	.L2
  42              	.LVL1:
  43              	.L3:
 409:Generated_Source\PSoC6/CapSense_Processing.c ****     {
 410:Generated_Source\PSoC6/CapSense_Processing.c ****         /* Clear widget status */
 411:Generated_Source\PSoC6/CapSense_Processing.c ****         CapSense_dsRam.wdgtStatus[wdgtId] = 0u;
  44              		.loc 1 411 0 discriminator 3
  45 0006 1249     		ldr	r1, .L8
ARM GAS  C:\Users\Rolf\AppData\Local\Temp\ccPMJUbQ.s 			page 9


  46 0008 1A1D     		adds	r2, r3, #4
  47 000a 9200     		lsls	r2, r2, #2
  48 000c 8818     		adds	r0, r1, r2
  49 000e 0024     		movs	r4, #0
  50 0010 4460     		str	r4, [r0, #4]
 412:Generated_Source\PSoC6/CapSense_Processing.c **** 
 413:Generated_Source\PSoC6/CapSense_Processing.c ****         /* Enable all the widgets */
 414:Generated_Source\PSoC6/CapSense_Processing.c ****         CapSense_dsRam.wdgtEnable[wdgtId] = 0xFFFFFFFFLu;
  51              		.loc 1 414 0 discriminator 3
  52 0012 0120     		movs	r0, #1
  53 0014 4042     		rsbs	r0, r0, #0
  54 0016 5050     		str	r0, [r2, r1]
 408:Generated_Source\PSoC6/CapSense_Processing.c ****     {
  55              		.loc 1 408 0 discriminator 3
  56 0018 0133     		adds	r3, r3, #1
  57              	.LVL2:
  58              	.L2:
 408:Generated_Source\PSoC6/CapSense_Processing.c ****     {
  59              		.loc 1 408 0 is_stmt 0 discriminator 1
  60 001a 002B     		cmp	r3, #0
  61 001c F3D0     		beq	.L3
  62 001e 0D4C     		ldr	r4, .L8+4
  63 0020 0123     		movs	r3, #1
  64              	.LVL3:
  65 0022 10E0     		b	.L4
  66              	.LVL4:
  67              	.L7:
 415:Generated_Source\PSoC6/CapSense_Processing.c **** 
 416:Generated_Source\PSoC6/CapSense_Processing.c ****         /* Set all the widgets to working state if the Self-Test is not enabled */
 417:Generated_Source\PSoC6/CapSense_Processing.c ****         #if (0u != CapSense_SELF_TEST_EN)
 418:Generated_Source\PSoC6/CapSense_Processing.c ****             CapSense_dsRam.wdgtWorking[wdgtId] = 0xFFFFFFFFLu;
 419:Generated_Source\PSoC6/CapSense_Processing.c ****         #endif /* #if (0u == CapSense_SELF_TEST_EN) */
 420:Generated_Source\PSoC6/CapSense_Processing.c ****     }
 421:Generated_Source\PSoC6/CapSense_Processing.c **** 
 422:Generated_Source\PSoC6/CapSense_Processing.c ****     ptrFlashWdgt = CapSense_dsFlash.wdgtArray;
 423:Generated_Source\PSoC6/CapSense_Processing.c **** 
 424:Generated_Source\PSoC6/CapSense_Processing.c ****     for (wdgtId = CapSense_TOTAL_WIDGETS; wdgtId-- > 0u; )
 425:Generated_Source\PSoC6/CapSense_Processing.c ****     {
 426:Generated_Source\PSoC6/CapSense_Processing.c ****         ptrRamWdgt = (CapSense_RAM_WD_BASE_STRUCT *)ptrFlashWdgt->ptr2WdgtRam;
  68              		.loc 1 426 0 is_stmt 1
  69 0024 6668     		ldr	r6, [r4, #4]
  70              	.LVL5:
 427:Generated_Source\PSoC6/CapSense_Processing.c ****         widgetType = (CapSense_WD_TYPE_ENUM)ptrFlashWdgt->wdgtType;
  71              		.loc 1 427 0
  72 0026 A27E     		ldrb	r2, [r4, #26]
  73              	.LVL6:
 428:Generated_Source\PSoC6/CapSense_Processing.c **** 
 429:Generated_Source\PSoC6/CapSense_Processing.c ****         /* Clear all sensor statuses */
 430:Generated_Source\PSoC6/CapSense_Processing.c ****         CapSense_dsRam.snsStatus[wdgtId] = 0u;
  74              		.loc 1 430 0
  75 0028 094B     		ldr	r3, .L8
  76 002a 5B19     		adds	r3, r3, r5
  77 002c 0021     		movs	r1, #0
  78 002e 1976     		strb	r1, [r3, #24]
 431:Generated_Source\PSoC6/CapSense_Processing.c **** 
 432:Generated_Source\PSoC6/CapSense_Processing.c ****         /* Reset de-bounce counters */
 433:Generated_Source\PSoC6/CapSense_Processing.c ****         switch (widgetType)
ARM GAS  C:\Users\Rolf\AppData\Local\Temp\ccPMJUbQ.s 			page 10


  79              		.loc 1 433 0
  80 0030 012A     		cmp	r2, #1
  81 0032 06D1     		bne	.L5
 434:Generated_Source\PSoC6/CapSense_Processing.c ****         {
 435:Generated_Source\PSoC6/CapSense_Processing.c ****         #if (0u != CapSense_MATRIX_WIDGET_EN)
 436:Generated_Source\PSoC6/CapSense_Processing.c ****             case CapSense_WD_MATRIX_BUTTON_E:
 437:Generated_Source\PSoC6/CapSense_Processing.c ****                 #if (0u != CapSense_CSD_MATRIX_WIDGET_EN)
 438:Generated_Source\PSoC6/CapSense_Processing.c ****                     if (CapSense_SENSE_METHOD_CSD_E == CapSense_GET_SENSE_METHOD(ptrFlashWdgt))
 439:Generated_Source\PSoC6/CapSense_Processing.c ****                     {
 440:Generated_Source\PSoC6/CapSense_Processing.c ****                         CapSense_DpInitCsdMatrix(ptrFlashWdgt);
 441:Generated_Source\PSoC6/CapSense_Processing.c ****                     }
 442:Generated_Source\PSoC6/CapSense_Processing.c ****                 #endif /* #if (0u != CapSense_CSD_MATRIX_WIDGET_EN) */
 443:Generated_Source\PSoC6/CapSense_Processing.c **** 
 444:Generated_Source\PSoC6/CapSense_Processing.c ****                 if (NULL != ptrFlashWdgt->ptr2DebounceArr)
 445:Generated_Source\PSoC6/CapSense_Processing.c ****                 {
 446:Generated_Source\PSoC6/CapSense_Processing.c ****                     /* Initialize array of debounce counters */
 447:Generated_Source\PSoC6/CapSense_Processing.c ****                     (void)memset(ptrFlashWdgt->ptr2DebounceArr,
 448:Generated_Source\PSoC6/CapSense_Processing.c ****                                  (int32)ptrRamWdgt->onDebounce,
 449:Generated_Source\PSoC6/CapSense_Processing.c ****                                  (size_t)ptrFlashWdgt->totalNumSns);
 450:Generated_Source\PSoC6/CapSense_Processing.c ****                 }
 451:Generated_Source\PSoC6/CapSense_Processing.c ****                 break;
 452:Generated_Source\PSoC6/CapSense_Processing.c ****         #endif /* #if (0u != CapSense_MATRIX_WIDGET_EN) */
 453:Generated_Source\PSoC6/CapSense_Processing.c **** 
 454:Generated_Source\PSoC6/CapSense_Processing.c ****         #if (0u != CapSense_BUTTON_WIDGET_EN)
 455:Generated_Source\PSoC6/CapSense_Processing.c ****             case CapSense_WD_BUTTON_E:
 456:Generated_Source\PSoC6/CapSense_Processing.c ****                 if (NULL != ptrFlashWdgt->ptr2DebounceArr)
  82              		.loc 1 456 0
  83 0034 2069     		ldr	r0, [r4, #16]
  84 0036 0028     		cmp	r0, #0
  85 0038 03D0     		beq	.L5
 457:Generated_Source\PSoC6/CapSense_Processing.c ****                 {
 458:Generated_Source\PSoC6/CapSense_Processing.c ****                     /* Initialize array of debounce counters */
 459:Generated_Source\PSoC6/CapSense_Processing.c ****                     (void)memset(ptrFlashWdgt->ptr2DebounceArr,
 460:Generated_Source\PSoC6/CapSense_Processing.c ****                                  (int32)ptrRamWdgt->onDebounce,
  86              		.loc 1 460 0
  87 003a F179     		ldrb	r1, [r6, #7]
 461:Generated_Source\PSoC6/CapSense_Processing.c ****                                  (size_t)ptrFlashWdgt->totalNumSns);
  88              		.loc 1 461 0
  89 003c 228B     		ldrh	r2, [r4, #24]
  90              	.LVL7:
 459:Generated_Source\PSoC6/CapSense_Processing.c ****                                  (int32)ptrRamWdgt->onDebounce,
  91              		.loc 1 459 0
  92 003e FFF7FEFF 		bl	memset
  93              	.LVL8:
  94              	.L5:
 462:Generated_Source\PSoC6/CapSense_Processing.c ****                 }
 463:Generated_Source\PSoC6/CapSense_Processing.c ****                 break;
 464:Generated_Source\PSoC6/CapSense_Processing.c ****         #endif /* #if (0u != CapSense_BUTTON_WIDGET_EN) */
 465:Generated_Source\PSoC6/CapSense_Processing.c **** 
 466:Generated_Source\PSoC6/CapSense_Processing.c ****         #if (0u != CapSense_SLIDER_WIDGET_EN)
 467:Generated_Source\PSoC6/CapSense_Processing.c ****             case CapSense_WD_LINEAR_SLIDER_E:
 468:Generated_Source\PSoC6/CapSense_Processing.c ****             case CapSense_WD_RADIAL_SLIDER_E:
 469:Generated_Source\PSoC6/CapSense_Processing.c ****                 if (NULL != ptrFlashWdgt->ptr2DebounceArr)
 470:Generated_Source\PSoC6/CapSense_Processing.c ****                 {
 471:Generated_Source\PSoC6/CapSense_Processing.c ****                     /* Initialize single debounce counter of slider */
 472:Generated_Source\PSoC6/CapSense_Processing.c ****                     *(uint8 *)(ptrFlashWdgt->ptr2DebounceArr) = ptrRamWdgt->onDebounce;
 473:Generated_Source\PSoC6/CapSense_Processing.c ****                 }
ARM GAS  C:\Users\Rolf\AppData\Local\Temp\ccPMJUbQ.s 			page 11


 474:Generated_Source\PSoC6/CapSense_Processing.c **** 
 475:Generated_Source\PSoC6/CapSense_Processing.c ****                 CapSense_DpInitSlider(ptrFlashWdgt);
 476:Generated_Source\PSoC6/CapSense_Processing.c **** 
 477:Generated_Source\PSoC6/CapSense_Processing.c ****                 break;
 478:Generated_Source\PSoC6/CapSense_Processing.c ****         #endif /* #if (0u != CapSense_SLIDER_WIDGET_EN) */
 479:Generated_Source\PSoC6/CapSense_Processing.c **** 
 480:Generated_Source\PSoC6/CapSense_Processing.c ****         #if (0u != CapSense_TOUCHPAD_WIDGET_EN)
 481:Generated_Source\PSoC6/CapSense_Processing.c ****             case CapSense_WD_TOUCHPAD_E:
 482:Generated_Source\PSoC6/CapSense_Processing.c ****                 if (NULL != ptrFlashWdgt->ptr2DebounceArr)
 483:Generated_Source\PSoC6/CapSense_Processing.c ****                 {
 484:Generated_Source\PSoC6/CapSense_Processing.c ****                     /* Initialize single debounce counter of touchpad */
 485:Generated_Source\PSoC6/CapSense_Processing.c ****                     *(uint8 *)(ptrFlashWdgt->ptr2DebounceArr) = ptrRamWdgt->onDebounce;
 486:Generated_Source\PSoC6/CapSense_Processing.c ****                 }
 487:Generated_Source\PSoC6/CapSense_Processing.c **** 
 488:Generated_Source\PSoC6/CapSense_Processing.c ****                 #if (0u != CapSense_CSD_TOUCHPAD_WIDGET_EN)
 489:Generated_Source\PSoC6/CapSense_Processing.c ****                     if (CapSense_SENSE_METHOD_CSD_E == CapSense_GET_SENSE_METHOD(ptrFlashWdgt))
 490:Generated_Source\PSoC6/CapSense_Processing.c ****                     {
 491:Generated_Source\PSoC6/CapSense_Processing.c ****                         CapSense_DpInitCsdTouchpad(ptrFlashWdgt);
 492:Generated_Source\PSoC6/CapSense_Processing.c ****                     }
 493:Generated_Source\PSoC6/CapSense_Processing.c ****                 #endif /* #if (0u != CapSense_CSD_TOUCHPAD_WIDGET_EN) */
 494:Generated_Source\PSoC6/CapSense_Processing.c **** 
 495:Generated_Source\PSoC6/CapSense_Processing.c ****                 #if (0u != CapSense_CSX_TOUCHPAD_WIDGET_EN)
 496:Generated_Source\PSoC6/CapSense_Processing.c ****                     if (CapSense_SENSE_METHOD_CSX_E == CapSense_GET_SENSE_METHOD(ptrFlashWdgt))
 497:Generated_Source\PSoC6/CapSense_Processing.c ****                     {
 498:Generated_Source\PSoC6/CapSense_Processing.c ****                         CapSense_DpInitCsxTouchpad(ptrFlashWdgt);
 499:Generated_Source\PSoC6/CapSense_Processing.c ****                     }
 500:Generated_Source\PSoC6/CapSense_Processing.c ****                 #endif /* #if (0u != CapSense_CSX_TOUCHPAD_WIDGET_EN) */
 501:Generated_Source\PSoC6/CapSense_Processing.c **** 
 502:Generated_Source\PSoC6/CapSense_Processing.c ****                 break;
 503:Generated_Source\PSoC6/CapSense_Processing.c ****         #endif /* #if (0u != CapSense_TOUCHPAD_WIDGET_EN) */
 504:Generated_Source\PSoC6/CapSense_Processing.c **** 
 505:Generated_Source\PSoC6/CapSense_Processing.c ****         #if (0u != CapSense_PROXIMITY_WIDGET_EN)
 506:Generated_Source\PSoC6/CapSense_Processing.c ****             case CapSense_WD_PROXIMITY_E:
 507:Generated_Source\PSoC6/CapSense_Processing.c ****                 if (NULL != ptrFlashWdgt->ptr2DebounceArr)
 508:Generated_Source\PSoC6/CapSense_Processing.c ****                 {
 509:Generated_Source\PSoC6/CapSense_Processing.c ****                     /* Proximity widgets have 2 de-bounce counters per sensor.
 510:Generated_Source\PSoC6/CapSense_Processing.c ****                      * Therefore the number of sensors is multiplied by 2.
 511:Generated_Source\PSoC6/CapSense_Processing.c ****                      */
 512:Generated_Source\PSoC6/CapSense_Processing.c ****                    (void)memset(ptrFlashWdgt->ptr2DebounceArr,
 513:Generated_Source\PSoC6/CapSense_Processing.c ****                                 (int32)ptrRamWdgt->onDebounce,
 514:Generated_Source\PSoC6/CapSense_Processing.c ****                                 (size_t)ptrFlashWdgt->totalNumSns * 2u);
 515:Generated_Source\PSoC6/CapSense_Processing.c ****                 }
 516:Generated_Source\PSoC6/CapSense_Processing.c ****                 break;
 517:Generated_Source\PSoC6/CapSense_Processing.c ****         #endif /* #if (0u != CapSense_PROXIMITY_WIDGET_EN) */
 518:Generated_Source\PSoC6/CapSense_Processing.c **** 
 519:Generated_Source\PSoC6/CapSense_Processing.c ****             default:
 520:Generated_Source\PSoC6/CapSense_Processing.c ****                 break;
 521:Generated_Source\PSoC6/CapSense_Processing.c ****         }
 522:Generated_Source\PSoC6/CapSense_Processing.c **** 
 523:Generated_Source\PSoC6/CapSense_Processing.c ****         /* Move to next widget */
 524:Generated_Source\PSoC6/CapSense_Processing.c ****         ptrFlashWdgt++;
  95              		.loc 1 524 0
  96 0042 1C34     		adds	r4, r4, #28
  97              	.LVL9:
 424:Generated_Source\PSoC6/CapSense_Processing.c ****     {
  98              		.loc 1 424 0
  99 0044 2B00     		movs	r3, r5
ARM GAS  C:\Users\Rolf\AppData\Local\Temp\ccPMJUbQ.s 			page 12


 100              	.LVL10:
 101              	.L4:
 424:Generated_Source\PSoC6/CapSense_Processing.c ****     {
 102              		.loc 1 424 0 is_stmt 0 discriminator 1
 103 0046 5D1E     		subs	r5, r3, #1
 104              	.LVL11:
 105 0048 002B     		cmp	r3, #0
 106 004a EBD1     		bne	.L7
 525:Generated_Source\PSoC6/CapSense_Processing.c ****     }
 526:Generated_Source\PSoC6/CapSense_Processing.c **** }
 107              		.loc 1 526 0 is_stmt 1
 108              		@ sp needed
 109              	.LVL12:
 110              	.LVL13:
 111 004c 70BD     		pop	{r4, r5, r6, pc}
 112              	.L9:
 113 004e C046     		.align	2
 114              	.L8:
 115 0050 00000000 		.word	CapSense_dsRam
 116 0054 00000000 		.word	CapSense_dsFlash
 117              		.cfi_endproc
 118              	.LFE45:
 119              		.size	CapSense_DpInitialize, .-CapSense_DpInitialize
 120              		.section	.text.CapSense_DpUpdateDifferences,"ax",%progbits
 121              		.align	2
 122              		.global	CapSense_DpUpdateDifferences
 123              		.code	16
 124              		.thumb_func
 125              		.type	CapSense_DpUpdateDifferences, %function
 126              	CapSense_DpUpdateDifferences:
 127              	.LFB49:
 527:Generated_Source\PSoC6/CapSense_Processing.c **** 
 528:Generated_Source\PSoC6/CapSense_Processing.c **** #if (0u != CapSense_TOTAL_CSX_WIDGETS)
 529:Generated_Source\PSoC6/CapSense_Processing.c **** /*******************************************************************************
 530:Generated_Source\PSoC6/CapSense_Processing.c **** * Function Name: CapSense_DpProcessCsxWidgetRawCounts
 531:Generated_Source\PSoC6/CapSense_Processing.c **** ****************************************************************************//**
 532:Generated_Source\PSoC6/CapSense_Processing.c **** *
 533:Generated_Source\PSoC6/CapSense_Processing.c **** * \brief
 534:Generated_Source\PSoC6/CapSense_Processing.c **** *  Performs default processing of the CSX raw counts.
 535:Generated_Source\PSoC6/CapSense_Processing.c **** *
 536:Generated_Source\PSoC6/CapSense_Processing.c **** * \details
 537:Generated_Source\PSoC6/CapSense_Processing.c **** *  Performs default processing of the CSX raw counts:
 538:Generated_Source\PSoC6/CapSense_Processing.c **** *   - Run Filters
 539:Generated_Source\PSoC6/CapSense_Processing.c **** *   - Update Baselines
 540:Generated_Source\PSoC6/CapSense_Processing.c **** *   - Update Differences
 541:Generated_Source\PSoC6/CapSense_Processing.c **** *   - Update Status.
 542:Generated_Source\PSoC6/CapSense_Processing.c **** *  The same process is applied to all the sensors of the specified widget.
 543:Generated_Source\PSoC6/CapSense_Processing.c **** *
 544:Generated_Source\PSoC6/CapSense_Processing.c **** * \param ptrFlashWdgt The pointer to the Flash widget structure.
 545:Generated_Source\PSoC6/CapSense_Processing.c **** *
 546:Generated_Source\PSoC6/CapSense_Processing.c **** * \return
 547:Generated_Source\PSoC6/CapSense_Processing.c **** *  Returns the status of the specified widget processing operation:
 548:Generated_Source\PSoC6/CapSense_Processing.c **** *  - CY_RET_SUCCESS if operation was successfully completed;
 549:Generated_Source\PSoC6/CapSense_Processing.c **** *  - CapSense_PROCESS_BASELINE_FAILED if baseline processing of any
 550:Generated_Source\PSoC6/CapSense_Processing.c **** *    sensor of the specified widget failed. The result is concatenated with the index
 551:Generated_Source\PSoC6/CapSense_Processing.c **** *    of failed sensor.
 552:Generated_Source\PSoC6/CapSense_Processing.c **** *
ARM GAS  C:\Users\Rolf\AppData\Local\Temp\ccPMJUbQ.s 			page 13


 553:Generated_Source\PSoC6/CapSense_Processing.c **** *******************************************************************************/
 554:Generated_Source\PSoC6/CapSense_Processing.c **** uint32 CapSense_DpProcessCsxWidgetRawCounts(CapSense_FLASH_WD_STRUCT const *ptrFlashWdgt)
 555:Generated_Source\PSoC6/CapSense_Processing.c **** {
 556:Generated_Source\PSoC6/CapSense_Processing.c ****     uint32 result = CY_RET_SUCCESS;
 557:Generated_Source\PSoC6/CapSense_Processing.c ****     uint32 widgetType;
 558:Generated_Source\PSoC6/CapSense_Processing.c ****     uint32 snsCount;
 559:Generated_Source\PSoC6/CapSense_Processing.c ****     CapSense_RAM_SNS_STRUCT *ptrSnsTmp;
 560:Generated_Source\PSoC6/CapSense_Processing.c ****     CapSense_RAM_WD_BASE_STRUCT *ptrRamWdgt;
 561:Generated_Source\PSoC6/CapSense_Processing.c **** 
 562:Generated_Source\PSoC6/CapSense_Processing.c ****     #if (CapSense_ENABLE == CapSense_RC_FILTER_EN)
 563:Generated_Source\PSoC6/CapSense_Processing.c ****         CapSense_PTR_FILTER_VARIANT fltrHistV;
 564:Generated_Source\PSoC6/CapSense_Processing.c **** 
 565:Generated_Source\PSoC6/CapSense_Processing.c ****         fltrHistV.ptr = ptrFlashWdgt->ptr2FltrHistory;
 566:Generated_Source\PSoC6/CapSense_Processing.c ****     #endif /* #if (CapSense_ENABLE == CapSense_RC_FILTER_EN) */
 567:Generated_Source\PSoC6/CapSense_Processing.c **** 
 568:Generated_Source\PSoC6/CapSense_Processing.c ****     ptrSnsTmp = ptrFlashWdgt->ptr2SnsRam;
 569:Generated_Source\PSoC6/CapSense_Processing.c ****     snsCount = ptrFlashWdgt->totalNumSns;
 570:Generated_Source\PSoC6/CapSense_Processing.c ****     ptrRamWdgt = (CapSense_RAM_WD_BASE_STRUCT *)ptrFlashWdgt->ptr2WdgtRam;
 571:Generated_Source\PSoC6/CapSense_Processing.c ****     widgetType = ptrFlashWdgt->wdgtType;
 572:Generated_Source\PSoC6/CapSense_Processing.c **** 
 573:Generated_Source\PSoC6/CapSense_Processing.c ****     /* Run deconvolution algorithm for the widgets with multiphase TX support */
 574:Generated_Source\PSoC6/CapSense_Processing.c ****     #if (0u != CapSense_CSX_MULTIPHASE_TX_EN)
 575:Generated_Source\PSoC6/CapSense_Processing.c ****         if (0u != (ptrFlashWdgt->staticConfig & CapSense_MULTIPHASE_TX_MASK))
 576:Generated_Source\PSoC6/CapSense_Processing.c ****         {
 577:Generated_Source\PSoC6/CapSense_Processing.c ****             CapSense_DpDeconvolution(ptrFlashWdgt);
 578:Generated_Source\PSoC6/CapSense_Processing.c ****         }
 579:Generated_Source\PSoC6/CapSense_Processing.c ****     #endif  /* #if (0u != CapSense_CSX_MULTIPHASE_TX_EN) */
 580:Generated_Source\PSoC6/CapSense_Processing.c **** 
 581:Generated_Source\PSoC6/CapSense_Processing.c ****     for (;snsCount-- > 0u;)
 582:Generated_Source\PSoC6/CapSense_Processing.c ****     {
 583:Generated_Source\PSoC6/CapSense_Processing.c ****         #if (CapSense_ENABLE == CapSense_RC_FILTER_EN)
 584:Generated_Source\PSoC6/CapSense_Processing.c ****             CapSense_FtRunEnabledFiltersInternal(fltrHistV, ptrSnsTmp, widgetType);
 585:Generated_Source\PSoC6/CapSense_Processing.c ****             #if (CapSense_ALP_FILTER_EN)
 586:Generated_Source\PSoC6/CapSense_Processing.c ****                 CapSense_ConfigRunALPInternal(fltrHistV, ptrRamWdgt, ptrSnsTmp, widgetType);
 587:Generated_Source\PSoC6/CapSense_Processing.c ****             #endif
 588:Generated_Source\PSoC6/CapSense_Processing.c ****         #endif /* #if (CapSense_ENABLE == CapSense_RC_FILTER_EN) */
 589:Generated_Source\PSoC6/CapSense_Processing.c **** 
 590:Generated_Source\PSoC6/CapSense_Processing.c ****         result = CapSense_FtUpdateBaseline(ptrRamWdgt, ptrSnsTmp, widgetType);
 591:Generated_Source\PSoC6/CapSense_Processing.c **** 
 592:Generated_Source\PSoC6/CapSense_Processing.c ****         #if (CapSense_ENABLE == CapSense_TST_BSLN_DUPLICATION_EN)
 593:Generated_Source\PSoC6/CapSense_Processing.c ****             if (CY_RET_SUCCESS != result)
 594:Generated_Source\PSoC6/CapSense_Processing.c ****             {
 595:Generated_Source\PSoC6/CapSense_Processing.c ****                 result = snsCount | CapSense_PROCESS_BASELINE_FAILED;
 596:Generated_Source\PSoC6/CapSense_Processing.c ****             }
 597:Generated_Source\PSoC6/CapSense_Processing.c ****         #endif /* (CapSense_ENABLE == CapSense_TST_BSLN_DUPLICATION_EN) */
 598:Generated_Source\PSoC6/CapSense_Processing.c **** 
 599:Generated_Source\PSoC6/CapSense_Processing.c ****         CapSense_DpUpdateDifferences(ptrRamWdgt, ptrSnsTmp);
 600:Generated_Source\PSoC6/CapSense_Processing.c **** 
 601:Generated_Source\PSoC6/CapSense_Processing.c ****         /* Move pointers to the next sensor and filter history objects */
 602:Generated_Source\PSoC6/CapSense_Processing.c ****         ptrSnsTmp++;
 603:Generated_Source\PSoC6/CapSense_Processing.c ****         
 604:Generated_Source\PSoC6/CapSense_Processing.c ****         #if (CapSense_ENABLE == CapSense_RC_FILTER_EN)
 605:Generated_Source\PSoC6/CapSense_Processing.c ****             CapSense_INC_REG_FLTR_OBJ(fltrHistV);
 606:Generated_Source\PSoC6/CapSense_Processing.c ****         #endif /* #if (CapSense_ENABLE == CapSense_RC_FILTER_EN) */
 607:Generated_Source\PSoC6/CapSense_Processing.c ****     }
 608:Generated_Source\PSoC6/CapSense_Processing.c ****     return result;
 609:Generated_Source\PSoC6/CapSense_Processing.c **** }
ARM GAS  C:\Users\Rolf\AppData\Local\Temp\ccPMJUbQ.s 			page 14


 610:Generated_Source\PSoC6/CapSense_Processing.c **** 
 611:Generated_Source\PSoC6/CapSense_Processing.c **** /*******************************************************************************
 612:Generated_Source\PSoC6/CapSense_Processing.c **** * Function Name: CapSense_DpProcessCsxSensorRawCountsExt
 613:Generated_Source\PSoC6/CapSense_Processing.c **** ****************************************************************************//**
 614:Generated_Source\PSoC6/CapSense_Processing.c **** *
 615:Generated_Source\PSoC6/CapSense_Processing.c **** * \brief
 616:Generated_Source\PSoC6/CapSense_Processing.c **** *   Performs customized processing of the CSX sensor raw counts.
 617:Generated_Source\PSoC6/CapSense_Processing.c **** *
 618:Generated_Source\PSoC6/CapSense_Processing.c **** * \details
 619:Generated_Source\PSoC6/CapSense_Processing.c **** *   Performs customized processing of the CSX sensor raw counts.
 620:Generated_Source\PSoC6/CapSense_Processing.c **** *
 621:Generated_Source\PSoC6/CapSense_Processing.c **** *   If all bits are set at once the default processing order will take place.
 622:Generated_Source\PSoC6/CapSense_Processing.c **** *   For the custom order this API can be called multiple times and execute one task at a time.
 623:Generated_Source\PSoC6/CapSense_Processing.c **** *
 624:Generated_Source\PSoC6/CapSense_Processing.c **** * \param ptrFlashWdgt The pointer to the Flash Widget Object.
 625:Generated_Source\PSoC6/CapSense_Processing.c **** * \param curSnsPtr    The pointer to the specific RAM Sensor Object.
 626:Generated_Source\PSoC6/CapSense_Processing.c **** * \param fltrHistV    The pointer to the Filter History Object in RAM associated with specific sens
 627:Generated_Source\PSoC6/CapSense_Processing.c **** * \param mode         The bit-mask with the data processing tasks to be executed.
 628:Generated_Source\PSoC6/CapSense_Processing.c **** *   The mode parameters can take the following values:
 629:Generated_Source\PSoC6/CapSense_Processing.c **** *    - CapSense_PROCESS_FILTER     (0x01) Run Firmware Filter
 630:Generated_Source\PSoC6/CapSense_Processing.c **** *    - CapSense_PROCESS_BASELINE   (0x02) Update Baselines
 631:Generated_Source\PSoC6/CapSense_Processing.c **** *    - CapSense_PROCESS_DIFFCOUNTS (0x04) Update Difference Counts
 632:Generated_Source\PSoC6/CapSense_Processing.c **** *    - CapSense_PROCESS_ALL               Execute all tasks
 633:Generated_Source\PSoC6/CapSense_Processing.c **** *
 634:Generated_Source\PSoC6/CapSense_Processing.c **** * \return
 635:Generated_Source\PSoC6/CapSense_Processing.c **** *  Returns the status of the specified sensor processing operation:
 636:Generated_Source\PSoC6/CapSense_Processing.c **** *  - CY_RET_SUCCESS if operation was successfully completed;
 637:Generated_Source\PSoC6/CapSense_Processing.c **** *  - CapSense_PROCESS_BASELINE_FAILED if baseline processing of any
 638:Generated_Source\PSoC6/CapSense_Processing.c **** *    sensor of the specified widget failed. The result is concatenated with the index
 639:Generated_Source\PSoC6/CapSense_Processing.c **** *    of failed sensor.
 640:Generated_Source\PSoC6/CapSense_Processing.c **** *
 641:Generated_Source\PSoC6/CapSense_Processing.c **** *******************************************************************************/
 642:Generated_Source\PSoC6/CapSense_Processing.c **** uint32 CapSense_DpProcessCsxSensorRawCountsExt(
 643:Generated_Source\PSoC6/CapSense_Processing.c ****                 CapSense_FLASH_WD_STRUCT const *ptrFlashWdgt,
 644:Generated_Source\PSoC6/CapSense_Processing.c ****                 CapSense_RAM_SNS_STRUCT *curSnsPtr,
 645:Generated_Source\PSoC6/CapSense_Processing.c ****                 CapSense_PTR_FILTER_VARIANT fltrHistV,
 646:Generated_Source\PSoC6/CapSense_Processing.c ****                 uint32 mode)
 647:Generated_Source\PSoC6/CapSense_Processing.c **** {
 648:Generated_Source\PSoC6/CapSense_Processing.c ****     uint32  result = CY_RET_SUCCESS;
 649:Generated_Source\PSoC6/CapSense_Processing.c ****     uint32  widgetType;
 650:Generated_Source\PSoC6/CapSense_Processing.c ****     CapSense_RAM_WD_BASE_STRUCT *ptrRamWdgt;
 651:Generated_Source\PSoC6/CapSense_Processing.c **** 
 652:Generated_Source\PSoC6/CapSense_Processing.c ****     widgetType = ptrFlashWdgt->wdgtType;
 653:Generated_Source\PSoC6/CapSense_Processing.c ****     ptrRamWdgt = (CapSense_RAM_WD_BASE_STRUCT *)ptrFlashWdgt->ptr2WdgtRam;
 654:Generated_Source\PSoC6/CapSense_Processing.c **** 
 655:Generated_Source\PSoC6/CapSense_Processing.c ****     #if (CapSense_ENABLE == CapSense_RC_FILTER_EN)
 656:Generated_Source\PSoC6/CapSense_Processing.c ****         if (0u != (mode & CapSense_PROCESS_FILTER))
 657:Generated_Source\PSoC6/CapSense_Processing.c ****         {
 658:Generated_Source\PSoC6/CapSense_Processing.c ****             CapSense_FtRunEnabledFiltersInternal(fltrHistV, curSnsPtr, widgetType);
 659:Generated_Source\PSoC6/CapSense_Processing.c ****             #if (CapSense_ALP_FILTER_EN)
 660:Generated_Source\PSoC6/CapSense_Processing.c ****                 CapSense_ConfigRunALPInternal(fltrHistV, ptrRamWdgt, curSnsPtr, widgetType);
 661:Generated_Source\PSoC6/CapSense_Processing.c ****             #endif
 662:Generated_Source\PSoC6/CapSense_Processing.c ****         }
 663:Generated_Source\PSoC6/CapSense_Processing.c ****     #else
 664:Generated_Source\PSoC6/CapSense_Processing.c ****         (void)fltrHistV; /* This parameter is unused in such configurations */
 665:Generated_Source\PSoC6/CapSense_Processing.c ****     #endif /* #if (CapSense_ENABLE == CapSense_RC_FILTER_EN) */
 666:Generated_Source\PSoC6/CapSense_Processing.c **** 
ARM GAS  C:\Users\Rolf\AppData\Local\Temp\ccPMJUbQ.s 			page 15


 667:Generated_Source\PSoC6/CapSense_Processing.c ****     if (0u != (mode & CapSense_PROCESS_BASELINE))
 668:Generated_Source\PSoC6/CapSense_Processing.c ****     {
 669:Generated_Source\PSoC6/CapSense_Processing.c ****         result = CapSense_FtUpdateBaseline(ptrRamWdgt, curSnsPtr, widgetType);
 670:Generated_Source\PSoC6/CapSense_Processing.c ****     }
 671:Generated_Source\PSoC6/CapSense_Processing.c **** 
 672:Generated_Source\PSoC6/CapSense_Processing.c ****     if (0u != (mode & CapSense_PROCESS_DIFFCOUNTS))
 673:Generated_Source\PSoC6/CapSense_Processing.c ****     {
 674:Generated_Source\PSoC6/CapSense_Processing.c ****         CapSense_DpUpdateDifferences(ptrRamWdgt, curSnsPtr);
 675:Generated_Source\PSoC6/CapSense_Processing.c ****     }
 676:Generated_Source\PSoC6/CapSense_Processing.c ****     return result;
 677:Generated_Source\PSoC6/CapSense_Processing.c **** }
 678:Generated_Source\PSoC6/CapSense_Processing.c **** 
 679:Generated_Source\PSoC6/CapSense_Processing.c **** 
 680:Generated_Source\PSoC6/CapSense_Processing.c **** /*******************************************************************************
 681:Generated_Source\PSoC6/CapSense_Processing.c **** * Function Name: CapSense_DpProcessCsxWidgetStatus
 682:Generated_Source\PSoC6/CapSense_Processing.c **** ****************************************************************************//**
 683:Generated_Source\PSoC6/CapSense_Processing.c **** *
 684:Generated_Source\PSoC6/CapSense_Processing.c **** * \brief
 685:Generated_Source\PSoC6/CapSense_Processing.c **** *   Updates the status of the CSX widget in the Data Structure.
 686:Generated_Source\PSoC6/CapSense_Processing.c **** *
 687:Generated_Source\PSoC6/CapSense_Processing.c **** * \details
 688:Generated_Source\PSoC6/CapSense_Processing.c **** *  This API determines the type of widget and runs the appropriate function
 689:Generated_Source\PSoC6/CapSense_Processing.c **** *  that implements the status update algorithm for this type of widget.
 690:Generated_Source\PSoC6/CapSense_Processing.c **** *
 691:Generated_Source\PSoC6/CapSense_Processing.c **** *  When the widget-specific processing completes this API updates the snsStatus
 692:Generated_Source\PSoC6/CapSense_Processing.c **** *  and wdgtStatus registers in the data structure. The wdgtStatus register
 693:Generated_Source\PSoC6/CapSense_Processing.c **** *  is a bitmask were each bit corresponds to the specific widget identified by
 694:Generated_Source\PSoC6/CapSense_Processing.c **** *  the widget index. When the bit is set the widget is active (touched);
 695:Generated_Source\PSoC6/CapSense_Processing.c **** *
 696:Generated_Source\PSoC6/CapSense_Processing.c **** *  Depending on the type of widget the snsStatus register may contain either
 697:Generated_Source\PSoC6/CapSense_Processing.c **** *  status of each widget node (active/non-active) or in case of the CSX Touchpad
 698:Generated_Source\PSoC6/CapSense_Processing.c **** *  is contains the number of touches. In both cases 0 means that widget is not
 699:Generated_Source\PSoC6/CapSense_Processing.c **** *  active.
 700:Generated_Source\PSoC6/CapSense_Processing.c **** *
 701:Generated_Source\PSoC6/CapSense_Processing.c **** * \param widgetId     The widget ID number.
 702:Generated_Source\PSoC6/CapSense_Processing.c **** * \param ptrFlashWdgt The pointer to the Flash Widget Object.
 703:Generated_Source\PSoC6/CapSense_Processing.c **** *
 704:Generated_Source\PSoC6/CapSense_Processing.c **** *******************************************************************************/
 705:Generated_Source\PSoC6/CapSense_Processing.c **** void CapSense_DpProcessCsxWidgetStatus(uint32 widgetId, CapSense_FLASH_WD_STRUCT const *ptrFlashWdg
 706:Generated_Source\PSoC6/CapSense_Processing.c **** {
 707:Generated_Source\PSoC6/CapSense_Processing.c ****     uint32 sensorStatus;
 708:Generated_Source\PSoC6/CapSense_Processing.c ****     uint32 wdStatusIndex;
 709:Generated_Source\PSoC6/CapSense_Processing.c ****     uint32 wdStatusMask;
 710:Generated_Source\PSoC6/CapSense_Processing.c ****     CapSense_WD_TYPE_ENUM widgetType;
 711:Generated_Source\PSoC6/CapSense_Processing.c **** 
 712:Generated_Source\PSoC6/CapSense_Processing.c ****     widgetType = (CapSense_WD_TYPE_ENUM)ptrFlashWdgt->wdgtType;
 713:Generated_Source\PSoC6/CapSense_Processing.c ****     sensorStatus = CapSense_dsRam.snsStatus[widgetId];
 714:Generated_Source\PSoC6/CapSense_Processing.c **** 
 715:Generated_Source\PSoC6/CapSense_Processing.c ****     switch (widgetType)
 716:Generated_Source\PSoC6/CapSense_Processing.c ****     {
 717:Generated_Source\PSoC6/CapSense_Processing.c ****     #if (0u != CapSense_BUTTON_WIDGET_EN)
 718:Generated_Source\PSoC6/CapSense_Processing.c ****         case CapSense_WD_BUTTON_E:
 719:Generated_Source\PSoC6/CapSense_Processing.c ****             sensorStatus = CapSense_DpProcessButton(sensorStatus, ptrFlashWdgt);
 720:Generated_Source\PSoC6/CapSense_Processing.c ****             break;
 721:Generated_Source\PSoC6/CapSense_Processing.c ****     #endif /* #if (0u != CapSense_BUTTON_WIDGET_EN) */
 722:Generated_Source\PSoC6/CapSense_Processing.c **** 
 723:Generated_Source\PSoC6/CapSense_Processing.c ****     #if (0u != CapSense_CSX_MATRIX_WIDGET_EN)
ARM GAS  C:\Users\Rolf\AppData\Local\Temp\ccPMJUbQ.s 			page 16


 724:Generated_Source\PSoC6/CapSense_Processing.c ****         case CapSense_WD_MATRIX_BUTTON_E:
 725:Generated_Source\PSoC6/CapSense_Processing.c ****             sensorStatus = CapSense_DpProcessButton(sensorStatus, ptrFlashWdgt);
 726:Generated_Source\PSoC6/CapSense_Processing.c ****             break;
 727:Generated_Source\PSoC6/CapSense_Processing.c ****     #endif /* #if (0u != CapSense_CSX_MATRIX_WIDGET_EN) */
 728:Generated_Source\PSoC6/CapSense_Processing.c **** 
 729:Generated_Source\PSoC6/CapSense_Processing.c ****     #if (0u != CapSense_CSX_TOUCHPAD_WIDGET_EN)
 730:Generated_Source\PSoC6/CapSense_Processing.c ****         case CapSense_WD_TOUCHPAD_E:
 731:Generated_Source\PSoC6/CapSense_Processing.c ****             sensorStatus = CapSense_DpProcessCsxTouchpad(sensorStatus, ptrFlashWdgt);
 732:Generated_Source\PSoC6/CapSense_Processing.c ****             break;
 733:Generated_Source\PSoC6/CapSense_Processing.c ****     #endif /* #if (0u != CapSense_CSX_TOUCHPAD_WIDGET_EN) */
 734:Generated_Source\PSoC6/CapSense_Processing.c **** 
 735:Generated_Source\PSoC6/CapSense_Processing.c ****     default:
 736:Generated_Source\PSoC6/CapSense_Processing.c ****         CY_ASSERT(0 != 0);
 737:Generated_Source\PSoC6/CapSense_Processing.c ****         break;
 738:Generated_Source\PSoC6/CapSense_Processing.c ****     }
 739:Generated_Source\PSoC6/CapSense_Processing.c **** 
 740:Generated_Source\PSoC6/CapSense_Processing.c ****     /* Update sensor status in the data structure */
 741:Generated_Source\PSoC6/CapSense_Processing.c ****     CapSense_dsRam.snsStatus[widgetId] = (CapSense_SNS_STS_TYPE)sensorStatus;
 742:Generated_Source\PSoC6/CapSense_Processing.c **** 
 743:Generated_Source\PSoC6/CapSense_Processing.c ****     /* The next two lines calculate index and bitmask of the widget status bit in the wdgtStatus ar
 744:Generated_Source\PSoC6/CapSense_Processing.c ****     wdStatusIndex = CapSense_GET_WDGT_STATUS_INDEX(widgetId);
 745:Generated_Source\PSoC6/CapSense_Processing.c ****     wdStatusMask = CapSense_GET_WDGT_STATUS_MASK(widgetId);
 746:Generated_Source\PSoC6/CapSense_Processing.c **** 
 747:Generated_Source\PSoC6/CapSense_Processing.c ****     /* Check if there are active sensors and update widget status accordingly */
 748:Generated_Source\PSoC6/CapSense_Processing.c ****     if (0u == sensorStatus)
 749:Generated_Source\PSoC6/CapSense_Processing.c ****     {
 750:Generated_Source\PSoC6/CapSense_Processing.c ****         CapSense_dsRam.wdgtStatus[wdStatusIndex] &= ~wdStatusMask;
 751:Generated_Source\PSoC6/CapSense_Processing.c ****     }
 752:Generated_Source\PSoC6/CapSense_Processing.c ****     else
 753:Generated_Source\PSoC6/CapSense_Processing.c ****     {
 754:Generated_Source\PSoC6/CapSense_Processing.c ****         CapSense_dsRam.wdgtStatus[wdStatusIndex] |= wdStatusMask;
 755:Generated_Source\PSoC6/CapSense_Processing.c ****     }
 756:Generated_Source\PSoC6/CapSense_Processing.c **** }
 757:Generated_Source\PSoC6/CapSense_Processing.c **** #endif /* #if CapSense_TOTAL_CSX_WIDGETS */
 758:Generated_Source\PSoC6/CapSense_Processing.c **** 
 759:Generated_Source\PSoC6/CapSense_Processing.c **** #if (0u != CapSense_TOTAL_CSD_WIDGETS)
 760:Generated_Source\PSoC6/CapSense_Processing.c **** /*******************************************************************************
 761:Generated_Source\PSoC6/CapSense_Processing.c **** * Function Name: CapSense_DpProcessCsdWidgetRawCounts
 762:Generated_Source\PSoC6/CapSense_Processing.c **** ****************************************************************************//**
 763:Generated_Source\PSoC6/CapSense_Processing.c **** *
 764:Generated_Source\PSoC6/CapSense_Processing.c **** * \brief
 765:Generated_Source\PSoC6/CapSense_Processing.c **** *   Performs default processing for the CSD widget raw counts.
 766:Generated_Source\PSoC6/CapSense_Processing.c **** *
 767:Generated_Source\PSoC6/CapSense_Processing.c **** * \details
 768:Generated_Source\PSoC6/CapSense_Processing.c **** *   Performs default processing for the CSD widget raw counts:
 769:Generated_Source\PSoC6/CapSense_Processing.c **** *    - Run Filters
 770:Generated_Source\PSoC6/CapSense_Processing.c **** *    - Update Thresholds (FW Auto-tuning)
 771:Generated_Source\PSoC6/CapSense_Processing.c **** *    - Update Baselines
 772:Generated_Source\PSoC6/CapSense_Processing.c **** *    - Update Differences.
 773:Generated_Source\PSoC6/CapSense_Processing.c **** *   The process is applied to all widget's sensors.
 774:Generated_Source\PSoC6/CapSense_Processing.c **** *
 775:Generated_Source\PSoC6/CapSense_Processing.c **** * \param ptrFlashWdgt The pointer to the Flash Widget Object.
 776:Generated_Source\PSoC6/CapSense_Processing.c **** *
 777:Generated_Source\PSoC6/CapSense_Processing.c **** * \return
 778:Generated_Source\PSoC6/CapSense_Processing.c **** *  Returns the status of the specified widget processing operation:
 779:Generated_Source\PSoC6/CapSense_Processing.c **** *  - CY_RET_SUCCESS if operation was successfully completed;
 780:Generated_Source\PSoC6/CapSense_Processing.c **** *  - CapSense_PROCESS_BASELINE_FAILED if baseline processing of any
ARM GAS  C:\Users\Rolf\AppData\Local\Temp\ccPMJUbQ.s 			page 17


 781:Generated_Source\PSoC6/CapSense_Processing.c **** *    sensor of the specified widget failed. The result is concatenated with the index
 782:Generated_Source\PSoC6/CapSense_Processing.c **** *    of failed sensor.
 783:Generated_Source\PSoC6/CapSense_Processing.c **** *
 784:Generated_Source\PSoC6/CapSense_Processing.c **** *******************************************************************************/
 785:Generated_Source\PSoC6/CapSense_Processing.c **** uint32 CapSense_DpProcessCsdWidgetRawCounts(CapSense_FLASH_WD_STRUCT const *ptrFlashWdgt)
 786:Generated_Source\PSoC6/CapSense_Processing.c **** {
 787:Generated_Source\PSoC6/CapSense_Processing.c ****     uint32  result = CY_RET_SUCCESS;
 788:Generated_Source\PSoC6/CapSense_Processing.c **** 
 789:Generated_Source\PSoC6/CapSense_Processing.c ****     #if (CapSense_ENABLE == CapSense_TST_BSLN_DUPLICATION_EN)
 790:Generated_Source\PSoC6/CapSense_Processing.c ****         uint32 bslnTstResult = CY_RET_SUCCESS;
 791:Generated_Source\PSoC6/CapSense_Processing.c ****     #endif /* (CapSense_ENABLE == CapSense_TST_BSLN_DUPLICATION_EN) */
 792:Generated_Source\PSoC6/CapSense_Processing.c **** 
 793:Generated_Source\PSoC6/CapSense_Processing.c ****     uint32  widgetType;
 794:Generated_Source\PSoC6/CapSense_Processing.c ****     uint32  snsId;
 795:Generated_Source\PSoC6/CapSense_Processing.c ****     CapSense_RAM_SNS_STRUCT *ptrSnsTmp;
 796:Generated_Source\PSoC6/CapSense_Processing.c ****     CapSense_RAM_WD_BASE_STRUCT *ptrRamWdgt;
 797:Generated_Source\PSoC6/CapSense_Processing.c **** 
 798:Generated_Source\PSoC6/CapSense_Processing.c ****     #if (0u != (CapSense_CSD_AUTOTUNE & CapSense_CSD_SS_TH_EN))
 799:Generated_Source\PSoC6/CapSense_Processing.c ****         /* The noise envelope data is available only when Full CSD Auto-Tuning is enabled */
 800:Generated_Source\PSoC6/CapSense_Processing.c ****         SMARTSENSE_CSD_NOISE_ENVELOPE_STRUCT *ptrNoiseEnvelope;
 801:Generated_Source\PSoC6/CapSense_Processing.c ****         #if (CapSense_ENABLE == CapSense_PROXIMITY_WIDGET_EN)
 802:Generated_Source\PSoC6/CapSense_Processing.c ****             uint32  proximityThreshold;
 803:Generated_Source\PSoC6/CapSense_Processing.c ****         #endif /* (0 != CapSense_PROXIMITY_WIDGET_EN) */
 804:Generated_Source\PSoC6/CapSense_Processing.c ****     #endif /* #if (0u != (CapSense_CSD_AUTOTUNE & CapSense_CSD_SS_TH_EN)) */
 805:Generated_Source\PSoC6/CapSense_Processing.c **** 
 806:Generated_Source\PSoC6/CapSense_Processing.c ****     #if (CapSense_ENABLE == CapSense_RC_FILTER_EN)
 807:Generated_Source\PSoC6/CapSense_Processing.c ****         CapSense_PTR_FILTER_VARIANT fltrHistV;
 808:Generated_Source\PSoC6/CapSense_Processing.c **** 
 809:Generated_Source\PSoC6/CapSense_Processing.c ****         /* Determine if widget type is proximity */
 810:Generated_Source\PSoC6/CapSense_Processing.c ****         uint32 isProxWdgt = (CapSense_GET_WIDGET_TYPE(ptrFlashWdgt) == CapSense_WD_PROXIMITY_E) ? 1
 811:Generated_Source\PSoC6/CapSense_Processing.c **** 
 812:Generated_Source\PSoC6/CapSense_Processing.c ****         /* Get pointer to the filter history object */
 813:Generated_Source\PSoC6/CapSense_Processing.c ****         fltrHistV.ptr = ptrFlashWdgt->ptr2FltrHistory;
 814:Generated_Source\PSoC6/CapSense_Processing.c ****     #endif /* #if (CapSense_ENABLE == CapSense_RC_FILTER_EN) */
 815:Generated_Source\PSoC6/CapSense_Processing.c **** 
 816:Generated_Source\PSoC6/CapSense_Processing.c ****     ptrSnsTmp = ptrFlashWdgt->ptr2SnsRam;
 817:Generated_Source\PSoC6/CapSense_Processing.c ****     ptrRamWdgt = (CapSense_RAM_WD_BASE_STRUCT *)ptrFlashWdgt->ptr2WdgtRam;
 818:Generated_Source\PSoC6/CapSense_Processing.c ****     widgetType = ptrFlashWdgt->wdgtType;
 819:Generated_Source\PSoC6/CapSense_Processing.c **** 
 820:Generated_Source\PSoC6/CapSense_Processing.c ****     #if (0u != (CapSense_CSD_AUTOTUNE & CapSense_CSD_SS_TH_EN))
 821:Generated_Source\PSoC6/CapSense_Processing.c ****         ptrNoiseEnvelope = ptrFlashWdgt->ptr2NoiseEnvlp;
 822:Generated_Source\PSoC6/CapSense_Processing.c ****     #endif /* #if (0u != (CapSense_CSD_AUTOTUNE & CapSense_CSD_SS_TH_EN)) */
 823:Generated_Source\PSoC6/CapSense_Processing.c **** 
 824:Generated_Source\PSoC6/CapSense_Processing.c ****     /* Iterate through all widget's sensors */
 825:Generated_Source\PSoC6/CapSense_Processing.c ****     for(snsId = 0u; snsId < ptrFlashWdgt->totalNumSns; snsId++)
 826:Generated_Source\PSoC6/CapSense_Processing.c ****     {
 827:Generated_Source\PSoC6/CapSense_Processing.c ****         /* Run all enabled filter on specified widget's sensor */
 828:Generated_Source\PSoC6/CapSense_Processing.c ****         #if (CapSense_ENABLE == CapSense_RC_FILTER_EN)
 829:Generated_Source\PSoC6/CapSense_Processing.c ****             CapSense_FtRunEnabledFiltersInternal(fltrHistV, ptrSnsTmp, widgetType);
 830:Generated_Source\PSoC6/CapSense_Processing.c ****             #if (CapSense_ALP_FILTER_EN)
 831:Generated_Source\PSoC6/CapSense_Processing.c ****                 CapSense_ConfigRunALPInternal(fltrHistV, ptrRamWdgt, ptrSnsTmp, widgetType);
 832:Generated_Source\PSoC6/CapSense_Processing.c ****             #endif
 833:Generated_Source\PSoC6/CapSense_Processing.c ****         #endif /* #if (CapSense_ENABLE == CapSense_RC_FILTER_EN) */
 834:Generated_Source\PSoC6/CapSense_Processing.c **** 
 835:Generated_Source\PSoC6/CapSense_Processing.c ****         /* Run auto-tuning activities */
 836:Generated_Source\PSoC6/CapSense_Processing.c ****         #if (0u != (CapSense_CSD_AUTOTUNE & CapSense_CSD_SS_TH_EN))
 837:Generated_Source\PSoC6/CapSense_Processing.c ****             SmartSense_RunNoiseEnvelope(ptrSnsTmp->raw[0u], ptrRamWdgt->sigPFC, ptrNoiseEnvelope);
ARM GAS  C:\Users\Rolf\AppData\Local\Temp\ccPMJUbQ.s 			page 18


 838:Generated_Source\PSoC6/CapSense_Processing.c ****             CapSense_DpUpdateThresholds(ptrRamWdgt, ptrNoiseEnvelope, snsId);
 839:Generated_Source\PSoC6/CapSense_Processing.c **** 
 840:Generated_Source\PSoC6/CapSense_Processing.c ****             /* Calculate Proximity Touch Threshold in SmartSense mode based on Finger Threshold and
 841:Generated_Source\PSoC6/CapSense_Processing.c ****             #if (CapSense_ENABLE == CapSense_PROXIMITY_WIDGET_EN)
 842:Generated_Source\PSoC6/CapSense_Processing.c ****                 if (CapSense_WD_PROXIMITY_E == CapSense_GET_WIDGET_TYPE(ptrFlashWdgt))
 843:Generated_Source\PSoC6/CapSense_Processing.c ****                 {
 844:Generated_Source\PSoC6/CapSense_Processing.c ****                     proximityThreshold = ((uint32)ptrRamWdgt->fingerTh * CapSense_PROX_TOUCH_COEFF)
 845:Generated_Source\PSoC6/CapSense_Processing.c ****                     if ((((1Lu) << CapSense_THRESHOLD_SIZE) - 1u) < proximityThreshold)
 846:Generated_Source\PSoC6/CapSense_Processing.c ****                     {
 847:Generated_Source\PSoC6/CapSense_Processing.c ****                         proximityThreshold = ((1Lu) << CapSense_THRESHOLD_SIZE) - 1u;
 848:Generated_Source\PSoC6/CapSense_Processing.c ****                     }
 849:Generated_Source\PSoC6/CapSense_Processing.c ****                     ((CapSense_RAM_WD_PROXIMITY_STRUCT *)ptrFlashWdgt->ptr2WdgtRam)->proxTouchTh =
 850:Generated_Source\PSoC6/CapSense_Processing.c ****                         (CapSense_THRESHOLD_TYPE)proximityThreshold;
 851:Generated_Source\PSoC6/CapSense_Processing.c ****                 }
 852:Generated_Source\PSoC6/CapSense_Processing.c ****             #endif /* (0 != CapSense_PROXIMITY_WIDGET_EN) */
 853:Generated_Source\PSoC6/CapSense_Processing.c **** 
 854:Generated_Source\PSoC6/CapSense_Processing.c ****             /* Move to next noise-envelope object */
 855:Generated_Source\PSoC6/CapSense_Processing.c ****             ptrNoiseEnvelope++;
 856:Generated_Source\PSoC6/CapSense_Processing.c ****         #endif /* (0u != (CapSense_CSD_AUTOTUNE & CapSense_CSD_SS_TH_EN)) */
 857:Generated_Source\PSoC6/CapSense_Processing.c **** 
 858:Generated_Source\PSoC6/CapSense_Processing.c ****         #if (CapSense_ENABLE == CapSense_TST_BSLN_DUPLICATION_EN)
 859:Generated_Source\PSoC6/CapSense_Processing.c ****             bslnTstResult = CapSense_FtUpdateBaseline(ptrRamWdgt, ptrSnsTmp, widgetType);
 860:Generated_Source\PSoC6/CapSense_Processing.c ****             if ((CY_RET_SUCCESS != bslnTstResult) && (CY_RET_SUCCESS == result))
 861:Generated_Source\PSoC6/CapSense_Processing.c ****             {
 862:Generated_Source\PSoC6/CapSense_Processing.c ****                 result = snsId | CapSense_PROCESS_BASELINE_FAILED;
 863:Generated_Source\PSoC6/CapSense_Processing.c ****             }
 864:Generated_Source\PSoC6/CapSense_Processing.c ****         #else /* (CapSense_ENABLE == CapSense_TST_BSLN_DUPLICATION_EN) */
 865:Generated_Source\PSoC6/CapSense_Processing.c ****             result = CapSense_FtUpdateBaseline(ptrRamWdgt, ptrSnsTmp, widgetType);
 866:Generated_Source\PSoC6/CapSense_Processing.c ****         #endif /* (CapSense_ENABLE == CapSense_TST_BSLN_DUPLICATION_EN) */
 867:Generated_Source\PSoC6/CapSense_Processing.c **** 
 868:Generated_Source\PSoC6/CapSense_Processing.c ****         CapSense_DpUpdateDifferences(ptrRamWdgt, ptrSnsTmp);
 869:Generated_Source\PSoC6/CapSense_Processing.c **** 
 870:Generated_Source\PSoC6/CapSense_Processing.c ****         /* Move to next sensor object */
 871:Generated_Source\PSoC6/CapSense_Processing.c ****         ptrSnsTmp++;
 872:Generated_Source\PSoC6/CapSense_Processing.c **** 
 873:Generated_Source\PSoC6/CapSense_Processing.c ****         #if (CapSense_ENABLE == CapSense_RC_FILTER_EN)
 874:Generated_Source\PSoC6/CapSense_Processing.c ****             /* Move to the next filter history object */
 875:Generated_Source\PSoC6/CapSense_Processing.c ****             CapSense_INC_FLTR_OBJ_VARIANT(isProxWdgt, fltrHistV);
 876:Generated_Source\PSoC6/CapSense_Processing.c ****         #endif /* #if (CapSense_ENABLE == CapSense_RC_FILTER_EN) */
 877:Generated_Source\PSoC6/CapSense_Processing.c ****     }
 878:Generated_Source\PSoC6/CapSense_Processing.c ****     return result;
 879:Generated_Source\PSoC6/CapSense_Processing.c **** }
 880:Generated_Source\PSoC6/CapSense_Processing.c **** 
 881:Generated_Source\PSoC6/CapSense_Processing.c **** 
 882:Generated_Source\PSoC6/CapSense_Processing.c **** /*******************************************************************************
 883:Generated_Source\PSoC6/CapSense_Processing.c **** * Function Name: CapSense_DpProcessCsdSensorRawCountsExt
 884:Generated_Source\PSoC6/CapSense_Processing.c **** ****************************************************************************//**
 885:Generated_Source\PSoC6/CapSense_Processing.c **** *
 886:Generated_Source\PSoC6/CapSense_Processing.c **** * \brief
 887:Generated_Source\PSoC6/CapSense_Processing.c **** *   Performs customized processing of the CSD sensor raw counts.
 888:Generated_Source\PSoC6/CapSense_Processing.c **** *
 889:Generated_Source\PSoC6/CapSense_Processing.c **** * \details
 890:Generated_Source\PSoC6/CapSense_Processing.c **** *   Performs customized processing of the CSD sensor raw counts.
 891:Generated_Source\PSoC6/CapSense_Processing.c **** *
 892:Generated_Source\PSoC6/CapSense_Processing.c **** *   Note that this API updates data associated only with the sensor. It cannot be used to update
 893:Generated_Source\PSoC6/CapSense_Processing.c **** *   widget status.
 894:Generated_Source\PSoC6/CapSense_Processing.c **** *
ARM GAS  C:\Users\Rolf\AppData\Local\Temp\ccPMJUbQ.s 			page 19


 895:Generated_Source\PSoC6/CapSense_Processing.c **** * \param ptrFlashWdgt The pointer to the Flash widget structure.
 896:Generated_Source\PSoC6/CapSense_Processing.c **** * \param curSnsPtr    The pointer to the sensor object in RAM.
 897:Generated_Source\PSoC6/CapSense_Processing.c **** * \param fltrHistV    The pointer to the Filter History Object in RAM.
 898:Generated_Source\PSoC6/CapSense_Processing.c **** * \param mode         The bit-mask with the data processing tasks to be executed.
 899:Generated_Source\PSoC6/CapSense_Processing.c **** *   The mode parameters can take the following values:
 900:Generated_Source\PSoC6/CapSense_Processing.c **** *    - CapSense_PROCESS_FILTER     (0x01) Run Firmware Filter
 901:Generated_Source\PSoC6/CapSense_Processing.c **** *    - CapSense_PROCESS_BASELINE   (0x02) Update Baselines
 902:Generated_Source\PSoC6/CapSense_Processing.c **** *    - CapSense_PROCESS_DIFFCOUNTS (0x04) Update Difference Counts
 903:Generated_Source\PSoC6/CapSense_Processing.c **** *    - CapSense_PROCESS_CALC_NOISE (0x08) Calculate Noise (only if FW Tuning is enabled)
 904:Generated_Source\PSoC6/CapSense_Processing.c **** *    - CapSense_PROCESS_THRESHOLDS (0x10) Update Thresholds (only if FW Tuning is enabled)
 905:Generated_Source\PSoC6/CapSense_Processing.c **** *    - CapSense_PROCESS_ALL               Execute all tasks
 906:Generated_Source\PSoC6/CapSense_Processing.c **** *
 907:Generated_Source\PSoC6/CapSense_Processing.c **** * \return
 908:Generated_Source\PSoC6/CapSense_Processing.c **** *  Returns the status of the specified sensor processing operation:
 909:Generated_Source\PSoC6/CapSense_Processing.c **** *  - CY_RET_SUCCESS if operation was successfully completed;
 910:Generated_Source\PSoC6/CapSense_Processing.c **** *  - CapSense_PROCESS_BASELINE_FAILED if baseline processing of any
 911:Generated_Source\PSoC6/CapSense_Processing.c **** *    sensor of the specified widget failed. The result is concatenated with the index
 912:Generated_Source\PSoC6/CapSense_Processing.c **** *    of failed sensor.
 913:Generated_Source\PSoC6/CapSense_Processing.c **** *
 914:Generated_Source\PSoC6/CapSense_Processing.c **** *******************************************************************************/
 915:Generated_Source\PSoC6/CapSense_Processing.c **** uint32 CapSense_DpProcessCsdSensorRawCountsExt(
 916:Generated_Source\PSoC6/CapSense_Processing.c ****                 CapSense_FLASH_WD_STRUCT const *ptrFlashWdgt,
 917:Generated_Source\PSoC6/CapSense_Processing.c ****                 CapSense_RAM_SNS_STRUCT *curSnsPtr,
 918:Generated_Source\PSoC6/CapSense_Processing.c ****                 CapSense_PTR_FILTER_VARIANT fltrHistV,
 919:Generated_Source\PSoC6/CapSense_Processing.c ****                  uint32 mode)
 920:Generated_Source\PSoC6/CapSense_Processing.c **** {
 921:Generated_Source\PSoC6/CapSense_Processing.c ****     uint32 result = CY_RET_SUCCESS;
 922:Generated_Source\PSoC6/CapSense_Processing.c ****     uint32  widgetType;
 923:Generated_Source\PSoC6/CapSense_Processing.c ****     CapSense_RAM_WD_BASE_STRUCT *ptrRamWdgt;
 924:Generated_Source\PSoC6/CapSense_Processing.c **** 
 925:Generated_Source\PSoC6/CapSense_Processing.c ****     #if (0u != (CapSense_CSD_AUTOTUNE & CapSense_CSD_SS_TH_EN))
 926:Generated_Source\PSoC6/CapSense_Processing.c ****         SMARTSENSE_CSD_NOISE_ENVELOPE_STRUCT *ptrNoiseEnvelope;
 927:Generated_Source\PSoC6/CapSense_Processing.c ****         #if (CapSense_ENABLE == CapSense_PROXIMITY_WIDGET_EN)
 928:Generated_Source\PSoC6/CapSense_Processing.c ****             uint32  proximityThreshold;
 929:Generated_Source\PSoC6/CapSense_Processing.c ****         #endif /* (0 != CapSense_PROXIMITY_WIDGET_EN) */
 930:Generated_Source\PSoC6/CapSense_Processing.c **** 
 931:Generated_Source\PSoC6/CapSense_Processing.c ****         /* Need to specify pointer to corresponding sensor's noise-envelope object.*/
 932:Generated_Source\PSoC6/CapSense_Processing.c ****         ptrNoiseEnvelope = ptrFlashWdgt->ptr2NoiseEnvlp;
 933:Generated_Source\PSoC6/CapSense_Processing.c ****     #endif /* (0u != (CapSense_CSD_AUTOTUNE & CapSense_CSD_SS_TH_EN)) */
 934:Generated_Source\PSoC6/CapSense_Processing.c **** 
 935:Generated_Source\PSoC6/CapSense_Processing.c ****     widgetType = ptrFlashWdgt->wdgtType;
 936:Generated_Source\PSoC6/CapSense_Processing.c ****     ptrRamWdgt = (CapSense_RAM_WD_BASE_STRUCT *)ptrFlashWdgt->ptr2WdgtRam;
 937:Generated_Source\PSoC6/CapSense_Processing.c **** 
 938:Generated_Source\PSoC6/CapSense_Processing.c ****     #if (CapSense_ENABLE == CapSense_RC_FILTER_EN)
 939:Generated_Source\PSoC6/CapSense_Processing.c ****         if (0u != (mode & CapSense_PROCESS_FILTER))
 940:Generated_Source\PSoC6/CapSense_Processing.c ****         {
 941:Generated_Source\PSoC6/CapSense_Processing.c ****             CapSense_FtRunEnabledFiltersInternal(fltrHistV, curSnsPtr, widgetType);
 942:Generated_Source\PSoC6/CapSense_Processing.c ****             #if (CapSense_ALP_FILTER_EN)
 943:Generated_Source\PSoC6/CapSense_Processing.c ****                 CapSense_ConfigRunALPInternal(fltrHistV, ptrRamWdgt, curSnsPtr, widgetType);
 944:Generated_Source\PSoC6/CapSense_Processing.c ****             #endif
 945:Generated_Source\PSoC6/CapSense_Processing.c ****         }
 946:Generated_Source\PSoC6/CapSense_Processing.c ****     #else
 947:Generated_Source\PSoC6/CapSense_Processing.c ****         (void)fltrHistV; /* This parameter is unused in such configurations */
 948:Generated_Source\PSoC6/CapSense_Processing.c ****     #endif /* #if (CapSense_ENABLE == CapSense_RC_FILTER_EN) */
 949:Generated_Source\PSoC6/CapSense_Processing.c **** 
 950:Generated_Source\PSoC6/CapSense_Processing.c ****     #if (0u != (CapSense_CSD_AUTOTUNE & CapSense_CSD_SS_TH_EN))
 951:Generated_Source\PSoC6/CapSense_Processing.c ****         if (0u != (mode & CapSense_PROCESS_CALC_NOISE))
ARM GAS  C:\Users\Rolf\AppData\Local\Temp\ccPMJUbQ.s 			page 20


 952:Generated_Source\PSoC6/CapSense_Processing.c ****         {
 953:Generated_Source\PSoC6/CapSense_Processing.c ****             SmartSense_RunNoiseEnvelope(curSnsPtr->raw[0u], ptrRamWdgt->sigPFC, ptrNoiseEnvelope);
 954:Generated_Source\PSoC6/CapSense_Processing.c ****         }
 955:Generated_Source\PSoC6/CapSense_Processing.c **** 
 956:Generated_Source\PSoC6/CapSense_Processing.c ****         if (0u != (mode & CapSense_PROCESS_THRESHOLDS))
 957:Generated_Source\PSoC6/CapSense_Processing.c ****         {
 958:Generated_Source\PSoC6/CapSense_Processing.c ****             CapSense_DpUpdateThresholds(ptrRamWdgt, ptrNoiseEnvelope, 0u);
 959:Generated_Source\PSoC6/CapSense_Processing.c **** 
 960:Generated_Source\PSoC6/CapSense_Processing.c ****             /* Calculate Proximity Touch Threshold in SmartSense mode based on Finger Threshold and
 961:Generated_Source\PSoC6/CapSense_Processing.c ****             #if (CapSense_ENABLE == CapSense_PROXIMITY_WIDGET_EN)
 962:Generated_Source\PSoC6/CapSense_Processing.c ****                 if (CapSense_WD_PROXIMITY_E == CapSense_GET_WIDGET_TYPE(ptrFlashWdgt))
 963:Generated_Source\PSoC6/CapSense_Processing.c ****                 {
 964:Generated_Source\PSoC6/CapSense_Processing.c ****                     proximityThreshold = ((uint32)ptrRamWdgt->fingerTh * CapSense_PROX_TOUCH_COEFF)
 965:Generated_Source\PSoC6/CapSense_Processing.c ****                     if ((((1Lu) << CapSense_THRESHOLD_SIZE) - 1u) < proximityThreshold)
 966:Generated_Source\PSoC6/CapSense_Processing.c ****                     {
 967:Generated_Source\PSoC6/CapSense_Processing.c ****                         proximityThreshold = ((1Lu) << CapSense_THRESHOLD_SIZE) - 1u;
 968:Generated_Source\PSoC6/CapSense_Processing.c ****                     }
 969:Generated_Source\PSoC6/CapSense_Processing.c ****                     ((CapSense_RAM_WD_PROXIMITY_STRUCT *)ptrFlashWdgt->ptr2WdgtRam)->proxTouchTh =
 970:Generated_Source\PSoC6/CapSense_Processing.c ****                         (CapSense_THRESHOLD_TYPE)proximityThreshold;
 971:Generated_Source\PSoC6/CapSense_Processing.c ****                 }
 972:Generated_Source\PSoC6/CapSense_Processing.c ****             #endif /* (0 != CapSense_PROXIMITY_WIDGET_EN) */
 973:Generated_Source\PSoC6/CapSense_Processing.c ****         }
 974:Generated_Source\PSoC6/CapSense_Processing.c ****     #endif /* #if (0u != (CapSense_CSD_AUTOTUNE & CapSense_CSD_SS_TH_EN)) */
 975:Generated_Source\PSoC6/CapSense_Processing.c **** 
 976:Generated_Source\PSoC6/CapSense_Processing.c ****     if (0u != (mode & CapSense_PROCESS_BASELINE))
 977:Generated_Source\PSoC6/CapSense_Processing.c ****     {
 978:Generated_Source\PSoC6/CapSense_Processing.c ****         result = CapSense_FtUpdateBaseline(ptrRamWdgt, curSnsPtr, widgetType);
 979:Generated_Source\PSoC6/CapSense_Processing.c ****     }
 980:Generated_Source\PSoC6/CapSense_Processing.c **** 
 981:Generated_Source\PSoC6/CapSense_Processing.c ****     if (0u != (mode & CapSense_PROCESS_DIFFCOUNTS))
 982:Generated_Source\PSoC6/CapSense_Processing.c ****     {
 983:Generated_Source\PSoC6/CapSense_Processing.c ****         CapSense_DpUpdateDifferences(ptrRamWdgt, curSnsPtr);
 984:Generated_Source\PSoC6/CapSense_Processing.c ****     }
 985:Generated_Source\PSoC6/CapSense_Processing.c ****     return result;
 986:Generated_Source\PSoC6/CapSense_Processing.c **** }
 987:Generated_Source\PSoC6/CapSense_Processing.c **** 
 988:Generated_Source\PSoC6/CapSense_Processing.c **** /*******************************************************************************
 989:Generated_Source\PSoC6/CapSense_Processing.c **** * Function Name: CapSense_DpProcessCsdWidgetStatus
 990:Generated_Source\PSoC6/CapSense_Processing.c **** ****************************************************************************//**
 991:Generated_Source\PSoC6/CapSense_Processing.c **** *
 992:Generated_Source\PSoC6/CapSense_Processing.c **** * \brief
 993:Generated_Source\PSoC6/CapSense_Processing.c **** *  Runs the status processing of the CSD widget and updates it in the Data Structure.
 994:Generated_Source\PSoC6/CapSense_Processing.c **** *
 995:Generated_Source\PSoC6/CapSense_Processing.c **** * \details
 996:Generated_Source\PSoC6/CapSense_Processing.c **** *  This API determines the widget type and calls the appropriate low-level processing
 997:Generated_Source\PSoC6/CapSense_Processing.c **** *  function. Based on the returned results it updates the widget and sensor
 998:Generated_Source\PSoC6/CapSense_Processing.c **** *  status in the data structure. Any widget specific registers like the centroid
 999:Generated_Source\PSoC6/CapSense_Processing.c **** *  position are updated directly in the low-level processing function.
1000:Generated_Source\PSoC6/CapSense_Processing.c **** *
1001:Generated_Source\PSoC6/CapSense_Processing.c **** *  When the widget-specific processing completes this API updates the snsStatus
1002:Generated_Source\PSoC6/CapSense_Processing.c **** *  and wdgtStatus registers in the data structure. The wdgtStatus register
1003:Generated_Source\PSoC6/CapSense_Processing.c **** *  is a bitmask were each bit corresponds to the specific widget identified by
1004:Generated_Source\PSoC6/CapSense_Processing.c **** *  the widget index. When the bit is set the widget is active (touched);
1005:Generated_Source\PSoC6/CapSense_Processing.c **** *
1006:Generated_Source\PSoC6/CapSense_Processing.c **** *  The snsStatus register for CSD widgets contains status of each widget sensor
1007:Generated_Source\PSoC6/CapSense_Processing.c **** *  (active/non-active). Each bit corresponds to one sensor. In case of the
1008:Generated_Source\PSoC6/CapSense_Processing.c **** *  Proximity widget two bits are used per sensor: one for proximity status and
ARM GAS  C:\Users\Rolf\AppData\Local\Temp\ccPMJUbQ.s 			page 21


1009:Generated_Source\PSoC6/CapSense_Processing.c **** *  second for the touch status.
1010:Generated_Source\PSoC6/CapSense_Processing.c **** *
1011:Generated_Source\PSoC6/CapSense_Processing.c **** * \param widgetId      The widget index number.
1012:Generated_Source\PSoC6/CapSense_Processing.c **** * \param ptrFlashWdgt  The pointer to the Flash widget structure.
1013:Generated_Source\PSoC6/CapSense_Processing.c **** *
1014:Generated_Source\PSoC6/CapSense_Processing.c **** *******************************************************************************/
1015:Generated_Source\PSoC6/CapSense_Processing.c **** void CapSense_DpProcessCsdWidgetStatus(uint32 widgetId, CapSense_FLASH_WD_STRUCT const *ptrFlashWdg
1016:Generated_Source\PSoC6/CapSense_Processing.c **** {
1017:Generated_Source\PSoC6/CapSense_Processing.c ****     uint32 sensorStatus;
1018:Generated_Source\PSoC6/CapSense_Processing.c ****     uint32 wdStatusIndex;
1019:Generated_Source\PSoC6/CapSense_Processing.c ****     uint32 wdStatusMask;
1020:Generated_Source\PSoC6/CapSense_Processing.c ****     CapSense_WD_TYPE_ENUM widgetType;
1021:Generated_Source\PSoC6/CapSense_Processing.c **** 
1022:Generated_Source\PSoC6/CapSense_Processing.c ****     widgetType = (CapSense_WD_TYPE_ENUM)ptrFlashWdgt->wdgtType;
1023:Generated_Source\PSoC6/CapSense_Processing.c ****     sensorStatus = CapSense_dsRam.snsStatus[widgetId];
1024:Generated_Source\PSoC6/CapSense_Processing.c **** 
1025:Generated_Source\PSoC6/CapSense_Processing.c ****     switch (widgetType)
1026:Generated_Source\PSoC6/CapSense_Processing.c ****     {
1027:Generated_Source\PSoC6/CapSense_Processing.c ****     #if (0u != CapSense_BUTTON_WIDGET_EN)
1028:Generated_Source\PSoC6/CapSense_Processing.c ****         case CapSense_WD_BUTTON_E:
1029:Generated_Source\PSoC6/CapSense_Processing.c ****             sensorStatus = CapSense_DpProcessButton(sensorStatus, ptrFlashWdgt);
1030:Generated_Source\PSoC6/CapSense_Processing.c ****             break;
1031:Generated_Source\PSoC6/CapSense_Processing.c ****     #endif /* #if (0u != CapSense_BUTTON_WIDGET_EN) */
1032:Generated_Source\PSoC6/CapSense_Processing.c **** 
1033:Generated_Source\PSoC6/CapSense_Processing.c ****     #if (0u != CapSense_SLIDER_WIDGET_EN)
1034:Generated_Source\PSoC6/CapSense_Processing.c ****         case CapSense_WD_LINEAR_SLIDER_E:
1035:Generated_Source\PSoC6/CapSense_Processing.c ****         case CapSense_WD_RADIAL_SLIDER_E:
1036:Generated_Source\PSoC6/CapSense_Processing.c ****             sensorStatus = CapSense_DpProcessSlider(sensorStatus, ptrFlashWdgt);
1037:Generated_Source\PSoC6/CapSense_Processing.c ****             break;
1038:Generated_Source\PSoC6/CapSense_Processing.c ****     #endif /* #if (0u != CapSense_SLIDER_WIDGET_EN) */
1039:Generated_Source\PSoC6/CapSense_Processing.c **** 
1040:Generated_Source\PSoC6/CapSense_Processing.c ****     #if (0u != CapSense_CSD_MATRIX_WIDGET_EN)
1041:Generated_Source\PSoC6/CapSense_Processing.c ****         case CapSense_WD_MATRIX_BUTTON_E:
1042:Generated_Source\PSoC6/CapSense_Processing.c ****             sensorStatus = CapSense_DpProcessCsdMatrix(sensorStatus, ptrFlashWdgt);
1043:Generated_Source\PSoC6/CapSense_Processing.c ****             break;
1044:Generated_Source\PSoC6/CapSense_Processing.c ****     #endif /* #if (0u != CapSense_CSD_MATRIX_WIDGET_EN) */
1045:Generated_Source\PSoC6/CapSense_Processing.c **** 
1046:Generated_Source\PSoC6/CapSense_Processing.c ****     #if (0u != CapSense_CSD_TOUCHPAD_WIDGET_EN)
1047:Generated_Source\PSoC6/CapSense_Processing.c ****         case CapSense_WD_TOUCHPAD_E:
1048:Generated_Source\PSoC6/CapSense_Processing.c ****             sensorStatus = CapSense_DpProcessCsdTouchpad(sensorStatus, ptrFlashWdgt);
1049:Generated_Source\PSoC6/CapSense_Processing.c ****             #if (0u != CapSense_BALLISTIC_MULTIPLIER_EN)
1050:Generated_Source\PSoC6/CapSense_Processing.c ****                 CapSense_RunBallisticMultiplier(widgetId);
1051:Generated_Source\PSoC6/CapSense_Processing.c ****             #endif /* (0u != CapSense_BALLISTIC_MULTIPLIER_EN) */
1052:Generated_Source\PSoC6/CapSense_Processing.c ****             break;
1053:Generated_Source\PSoC6/CapSense_Processing.c ****     #endif /* #if (0u != CapSense_CSD_TOUCHPAD_WIDGET_EN) */
1054:Generated_Source\PSoC6/CapSense_Processing.c **** 
1055:Generated_Source\PSoC6/CapSense_Processing.c ****     #if (0u != CapSense_PROXIMITY_WIDGET_EN)
1056:Generated_Source\PSoC6/CapSense_Processing.c ****         case CapSense_WD_PROXIMITY_E:
1057:Generated_Source\PSoC6/CapSense_Processing.c ****             sensorStatus = CapSense_DpProcessProximity(sensorStatus, ptrFlashWdgt);
1058:Generated_Source\PSoC6/CapSense_Processing.c ****             break;
1059:Generated_Source\PSoC6/CapSense_Processing.c ****     #endif /* #if (0u != CapSense_PROXIMITY_WIDGET_EN) */
1060:Generated_Source\PSoC6/CapSense_Processing.c **** 
1061:Generated_Source\PSoC6/CapSense_Processing.c ****     default:
1062:Generated_Source\PSoC6/CapSense_Processing.c ****         CY_ASSERT(0 != 0);
1063:Generated_Source\PSoC6/CapSense_Processing.c ****         break;
1064:Generated_Source\PSoC6/CapSense_Processing.c ****     }
1065:Generated_Source\PSoC6/CapSense_Processing.c **** 
ARM GAS  C:\Users\Rolf\AppData\Local\Temp\ccPMJUbQ.s 			page 22


1066:Generated_Source\PSoC6/CapSense_Processing.c ****     CapSense_dsRam.snsStatus[widgetId] = (CapSense_SNS_STS_TYPE)sensorStatus;
1067:Generated_Source\PSoC6/CapSense_Processing.c **** 
1068:Generated_Source\PSoC6/CapSense_Processing.c ****     /* The next two lines calculate index and bitmask of the widget status bit in the wdgtStatus ar
1069:Generated_Source\PSoC6/CapSense_Processing.c ****     wdStatusIndex = CapSense_GET_WDGT_STATUS_INDEX(widgetId);
1070:Generated_Source\PSoC6/CapSense_Processing.c ****     wdStatusMask = CapSense_GET_WDGT_STATUS_MASK(widgetId);
1071:Generated_Source\PSoC6/CapSense_Processing.c **** 
1072:Generated_Source\PSoC6/CapSense_Processing.c ****     /* Check if there are active sensors and update widget status accordingly */
1073:Generated_Source\PSoC6/CapSense_Processing.c ****     if (0u == sensorStatus)
1074:Generated_Source\PSoC6/CapSense_Processing.c ****     {
1075:Generated_Source\PSoC6/CapSense_Processing.c ****         CapSense_dsRam.wdgtStatus[wdStatusIndex] &= ~wdStatusMask;
1076:Generated_Source\PSoC6/CapSense_Processing.c ****     }
1077:Generated_Source\PSoC6/CapSense_Processing.c ****     else
1078:Generated_Source\PSoC6/CapSense_Processing.c ****     {
1079:Generated_Source\PSoC6/CapSense_Processing.c ****         CapSense_dsRam.wdgtStatus[wdStatusIndex] |= wdStatusMask;
1080:Generated_Source\PSoC6/CapSense_Processing.c ****     }
1081:Generated_Source\PSoC6/CapSense_Processing.c **** }
1082:Generated_Source\PSoC6/CapSense_Processing.c **** #endif /* #if (0u != CapSense_TOTAL_CSD_WIDGETS) */
1083:Generated_Source\PSoC6/CapSense_Processing.c **** 
1084:Generated_Source\PSoC6/CapSense_Processing.c **** 
1085:Generated_Source\PSoC6/CapSense_Processing.c **** #if (0 != (CapSense_CSD_AUTOTUNE & CapSense_CSD_SS_TH_EN))
1086:Generated_Source\PSoC6/CapSense_Processing.c **** /*******************************************************************************
1087:Generated_Source\PSoC6/CapSense_Processing.c **** * Function Name: CapSense_DpUpdateThresholds
1088:Generated_Source\PSoC6/CapSense_Processing.c **** ****************************************************************************//**
1089:Generated_Source\PSoC6/CapSense_Processing.c **** *
1090:Generated_Source\PSoC6/CapSense_Processing.c **** * \brief
1091:Generated_Source\PSoC6/CapSense_Processing.c **** *   Updates noise and finger thresholds for a specified widget.
1092:Generated_Source\PSoC6/CapSense_Processing.c **** *
1093:Generated_Source\PSoC6/CapSense_Processing.c **** * \details
1094:Generated_Source\PSoC6/CapSense_Processing.c **** *   Updates noise and finger thresholds for a specified widget.
1095:Generated_Source\PSoC6/CapSense_Processing.c **** *   This algorithm is a part of Auto-tuning feature.
1096:Generated_Source\PSoC6/CapSense_Processing.c **** *
1097:Generated_Source\PSoC6/CapSense_Processing.c **** * \param ptrRamWdgt       The pointer to the RAM widget object.
1098:Generated_Source\PSoC6/CapSense_Processing.c **** * \param ptrNoiseEnvelope The pointer to the noise-envelope object in RAM.
1099:Generated_Source\PSoC6/CapSense_Processing.c **** * \param startFlag        The flag indicates when new widget is processed.
1100:Generated_Source\PSoC6/CapSense_Processing.c **** *
1101:Generated_Source\PSoC6/CapSense_Processing.c **** *******************************************************************************/
1102:Generated_Source\PSoC6/CapSense_Processing.c **** void CapSense_DpUpdateThresholds(CapSense_RAM_WD_BASE_STRUCT *ptrRamWdgt,
1103:Generated_Source\PSoC6/CapSense_Processing.c ****                                          SMARTSENSE_CSD_NOISE_ENVELOPE_STRUCT *ptrNoiseEnvelope,
1104:Generated_Source\PSoC6/CapSense_Processing.c ****                                          uint32 startFlag)
1105:Generated_Source\PSoC6/CapSense_Processing.c **** {
1106:Generated_Source\PSoC6/CapSense_Processing.c ****     SMARTSENSE_UPDATE_THRESHOLDS_STRUCT thresholds;
1107:Generated_Source\PSoC6/CapSense_Processing.c ****     SMARTSENSE_UPDATE_THRESHOLDS_STRUCT *ptrThresholds = &thresholds;
1108:Generated_Source\PSoC6/CapSense_Processing.c ****     ptrThresholds->fingerTh = ptrRamWdgt->fingerTh;
1109:Generated_Source\PSoC6/CapSense_Processing.c **** 
1110:Generated_Source\PSoC6/CapSense_Processing.c ****     SmartSense_UpdateThresholds(ptrNoiseEnvelope, ptrThresholds, ptrRamWdgt->sigPFC, startFlag);
1111:Generated_Source\PSoC6/CapSense_Processing.c **** 
1112:Generated_Source\PSoC6/CapSense_Processing.c ****     ptrRamWdgt->fingerTh = ptrThresholds->fingerTh;
1113:Generated_Source\PSoC6/CapSense_Processing.c ****     ptrRamWdgt->noiseTh = ptrThresholds->noiseTh;
1114:Generated_Source\PSoC6/CapSense_Processing.c ****     ptrRamWdgt->nNoiseTh = ptrThresholds->nNoiseTh;
1115:Generated_Source\PSoC6/CapSense_Processing.c ****     ptrRamWdgt->hysteresis = ptrThresholds->hysteresis;
1116:Generated_Source\PSoC6/CapSense_Processing.c **** }
1117:Generated_Source\PSoC6/CapSense_Processing.c **** #endif /* #if (0u != (CapSense_CSD_AUTOTUNE & CapSense_CSD_SS_TH_EN)) */
1118:Generated_Source\PSoC6/CapSense_Processing.c **** 
1119:Generated_Source\PSoC6/CapSense_Processing.c **** 
1120:Generated_Source\PSoC6/CapSense_Processing.c **** /*******************************************************************************
1121:Generated_Source\PSoC6/CapSense_Processing.c **** * Function Name: CapSense_DpUpdateDifferences
1122:Generated_Source\PSoC6/CapSense_Processing.c **** ****************************************************************************//**
ARM GAS  C:\Users\Rolf\AppData\Local\Temp\ccPMJUbQ.s 			page 23


1123:Generated_Source\PSoC6/CapSense_Processing.c **** *
1124:Generated_Source\PSoC6/CapSense_Processing.c **** * \brief
1125:Generated_Source\PSoC6/CapSense_Processing.c **** *   Calculates new difference values.
1126:Generated_Source\PSoC6/CapSense_Processing.c **** *   Also, executes the multi-frequency scan algorithm if it is enabled.
1127:Generated_Source\PSoC6/CapSense_Processing.c **** *
1128:Generated_Source\PSoC6/CapSense_Processing.c **** * \details
1129:Generated_Source\PSoC6/CapSense_Processing.c **** *   This API calculates the difference between the baseline and raw counts.
1130:Generated_Source\PSoC6/CapSense_Processing.c **** *   If the difference is positive (raw > baseline), and higher than the widget
1131:Generated_Source\PSoC6/CapSense_Processing.c **** *   noise threshold, it is saved into the data structure for further processing.
1132:Generated_Source\PSoC6/CapSense_Processing.c **** *   Otherwise the difference is set to zero. The final difference value is saved
1133:Generated_Source\PSoC6/CapSense_Processing.c **** *   with the subtracted noise threshold value.
1134:Generated_Source\PSoC6/CapSense_Processing.c **** *
1135:Generated_Source\PSoC6/CapSense_Processing.c **** *   If the multi-frequency scan algorithm is enabled, the difference is calculated
1136:Generated_Source\PSoC6/CapSense_Processing.c **** *   for the three sets of data available for each sensor. Then
1137:Generated_Source\PSoC6/CapSense_Processing.c **** *   the median filter selects the final difference value.
1138:Generated_Source\PSoC6/CapSense_Processing.c **** *
1139:Generated_Source\PSoC6/CapSense_Processing.c **** * \param ptrRamWdgt The pointer to the RAR Widget Object.
1140:Generated_Source\PSoC6/CapSense_Processing.c **** * \param curSnsPtr  The pointer to the sensor object in RAM.
1141:Generated_Source\PSoC6/CapSense_Processing.c **** *
1142:Generated_Source\PSoC6/CapSense_Processing.c **** *******************************************************************************/
1143:Generated_Source\PSoC6/CapSense_Processing.c **** void CapSense_DpUpdateDifferences(
1144:Generated_Source\PSoC6/CapSense_Processing.c ****                         CapSense_RAM_WD_BASE_STRUCT *ptrRamWdgt,
1145:Generated_Source\PSoC6/CapSense_Processing.c ****                         CapSense_RAM_SNS_STRUCT *curSnsPtr)
1146:Generated_Source\PSoC6/CapSense_Processing.c **** {
 128              		.loc 1 1146 0
 129              		.cfi_startproc
 130              		@ args = 0, pretend = 0, frame = 0
 131              		@ frame_needed = 0, uses_anonymous_args = 0
 132              	.LVL14:
 133 0000 30B5     		push	{r4, r5, lr}
 134              		.cfi_def_cfa_offset 12
 135              		.cfi_offset 4, -12
 136              		.cfi_offset 5, -8
 137              		.cfi_offset 14, -4
 138              	.LVL15:
1147:Generated_Source\PSoC6/CapSense_Processing.c ****     register int32 diffValue = 0;
1148:Generated_Source\PSoC6/CapSense_Processing.c **** 
1149:Generated_Source\PSoC6/CapSense_Processing.c ****     #if (0u != CapSense_MULTI_FREQ_SCAN_EN)
1150:Generated_Source\PSoC6/CapSense_Processing.c ****         register int32 diffValue_0 = 0;
1151:Generated_Source\PSoC6/CapSense_Processing.c ****         register int32 diffValue_2 = 0;
1152:Generated_Source\PSoC6/CapSense_Processing.c ****     #endif /* #if (0u != CapSense_MULTI_FREQ_SCAN_EN) */
1153:Generated_Source\PSoC6/CapSense_Processing.c **** 
1154:Generated_Source\PSoC6/CapSense_Processing.c ****     /* Calculate difference */
1155:Generated_Source\PSoC6/CapSense_Processing.c ****     diffValue = (int32)curSnsPtr->raw[0u] - (int32)curSnsPtr->bsln[0u];
 139              		.loc 1 1155 0
 140 0002 0B88     		ldrh	r3, [r1]
 141 0004 4A88     		ldrh	r2, [r1, #2]
 142 0006 9C1A     		subs	r4, r3, r2
 143              	.LVL16:
1156:Generated_Source\PSoC6/CapSense_Processing.c **** 
1157:Generated_Source\PSoC6/CapSense_Processing.c ****     #if (0u != CapSense_MULTI_FREQ_SCAN_EN)
1158:Generated_Source\PSoC6/CapSense_Processing.c ****         diffValue_0 = (int32)curSnsPtr->raw[1u] - (int32)curSnsPtr->bsln[1u];
1159:Generated_Source\PSoC6/CapSense_Processing.c ****         diffValue_2 = (int32)curSnsPtr->raw[2u] - (int32)curSnsPtr->bsln[2u];
1160:Generated_Source\PSoC6/CapSense_Processing.c **** 
1161:Generated_Source\PSoC6/CapSense_Processing.c ****         /* Find median and put it into [0u] element */
1162:Generated_Source\PSoC6/CapSense_Processing.c ****         if (diffValue_0 > diffValue)
1163:Generated_Source\PSoC6/CapSense_Processing.c ****         {
ARM GAS  C:\Users\Rolf\AppData\Local\Temp\ccPMJUbQ.s 			page 24


1164:Generated_Source\PSoC6/CapSense_Processing.c ****             register int32 swapv = diffValue_0;
1165:Generated_Source\PSoC6/CapSense_Processing.c ****             diffValue_0 = diffValue;
1166:Generated_Source\PSoC6/CapSense_Processing.c ****             diffValue = swapv;
1167:Generated_Source\PSoC6/CapSense_Processing.c ****         }
1168:Generated_Source\PSoC6/CapSense_Processing.c **** 
1169:Generated_Source\PSoC6/CapSense_Processing.c ****         if (diffValue > diffValue_2)
1170:Generated_Source\PSoC6/CapSense_Processing.c ****         {
1171:Generated_Source\PSoC6/CapSense_Processing.c ****             register int32 swapv = diffValue;
1172:Generated_Source\PSoC6/CapSense_Processing.c ****             diffValue = diffValue_2;
1173:Generated_Source\PSoC6/CapSense_Processing.c ****             diffValue_2 = swapv;
1174:Generated_Source\PSoC6/CapSense_Processing.c ****         }
1175:Generated_Source\PSoC6/CapSense_Processing.c **** 
1176:Generated_Source\PSoC6/CapSense_Processing.c ****         if (diffValue_0 > diffValue)
1177:Generated_Source\PSoC6/CapSense_Processing.c ****         {
1178:Generated_Source\PSoC6/CapSense_Processing.c ****             register int32 swapv = diffValue_0;
1179:Generated_Source\PSoC6/CapSense_Processing.c ****             diffValue_0 = diffValue;
1180:Generated_Source\PSoC6/CapSense_Processing.c ****             diffValue = swapv;
1181:Generated_Source\PSoC6/CapSense_Processing.c ****         }
1182:Generated_Source\PSoC6/CapSense_Processing.c ****     #endif /* #if (0u != CapSense_MULTI_FREQ_SCAN_EN) */
1183:Generated_Source\PSoC6/CapSense_Processing.c **** 
1184:Generated_Source\PSoC6/CapSense_Processing.c ****     curSnsPtr->diff = 0u;
 144              		.loc 1 1184 0
 145 0008 0025     		movs	r5, #0
 146 000a CD80     		strh	r5, [r1, #6]
1185:Generated_Source\PSoC6/CapSense_Processing.c **** 
1186:Generated_Source\PSoC6/CapSense_Processing.c ****     if (diffValue > (int32)ptrRamWdgt->noiseTh)
 147              		.loc 1 1186 0
 148 000c 0079     		ldrb	r0, [r0, #4]
 149              	.LVL17:
 150 000e 8442     		cmp	r4, r0
 151 0010 00DD     		ble	.L10
1187:Generated_Source\PSoC6/CapSense_Processing.c ****     {
1188:Generated_Source\PSoC6/CapSense_Processing.c ****         curSnsPtr->diff = (CapSense_THRESHOLD_TYPE) diffValue;
 152              		.loc 1 1188 0
 153 0012 CC80     		strh	r4, [r1, #6]
 154              	.L10:
1189:Generated_Source\PSoC6/CapSense_Processing.c ****     }
1190:Generated_Source\PSoC6/CapSense_Processing.c **** }
 155              		.loc 1 1190 0
 156              		@ sp needed
 157              	.LVL18:
 158 0014 30BD     		pop	{r4, r5, pc}
 159              		.cfi_endproc
 160              	.LFE49:
 161              		.size	CapSense_DpUpdateDifferences, .-CapSense_DpUpdateDifferences
 162 0016 C046     		.section	.text.CapSense_DpProcessCsdWidgetRawCounts,"ax",%progbits
 163              		.align	2
 164              		.global	CapSense_DpProcessCsdWidgetRawCounts
 165              		.code	16
 166              		.thumb_func
 167              		.type	CapSense_DpProcessCsdWidgetRawCounts, %function
 168              	CapSense_DpProcessCsdWidgetRawCounts:
 169              	.LFB46:
 786:Generated_Source\PSoC6/CapSense_Processing.c ****     uint32  result = CY_RET_SUCCESS;
 170              		.loc 1 786 0
 171              		.cfi_startproc
 172              		@ args = 0, pretend = 0, frame = 8
ARM GAS  C:\Users\Rolf\AppData\Local\Temp\ccPMJUbQ.s 			page 25


 173              		@ frame_needed = 0, uses_anonymous_args = 0
 174              	.LVL19:
 175 0000 F0B5     		push	{r4, r5, r6, r7, lr}
 176              		.cfi_def_cfa_offset 20
 177              		.cfi_offset 4, -20
 178              		.cfi_offset 5, -16
 179              		.cfi_offset 6, -12
 180              		.cfi_offset 7, -8
 181              		.cfi_offset 14, -4
 182 0002 83B0     		sub	sp, sp, #12
 183              		.cfi_def_cfa_offset 32
 184 0004 0700     		movs	r7, r0
 185              	.LVL20:
 816:Generated_Source\PSoC6/CapSense_Processing.c ****     ptrRamWdgt = (CapSense_RAM_WD_BASE_STRUCT *)ptrFlashWdgt->ptr2WdgtRam;
 186              		.loc 1 816 0
 187 0006 8468     		ldr	r4, [r0, #8]
 188              	.LVL21:
 817:Generated_Source\PSoC6/CapSense_Processing.c ****     widgetType = ptrFlashWdgt->wdgtType;
 189              		.loc 1 817 0
 190 0008 4568     		ldr	r5, [r0, #4]
 191              	.LVL22:
 818:Generated_Source\PSoC6/CapSense_Processing.c **** 
 192              		.loc 1 818 0
 193 000a 837E     		ldrb	r3, [r0, #26]
 194 000c 0193     		str	r3, [sp, #4]
 195              	.LVL23:
 825:Generated_Source\PSoC6/CapSense_Processing.c ****     {
 196              		.loc 1 825 0
 197 000e 0026     		movs	r6, #0
 787:Generated_Source\PSoC6/CapSense_Processing.c **** 
 198              		.loc 1 787 0
 199 0010 0023     		movs	r3, #0
 200              	.LVL24:
 201 0012 0093     		str	r3, [sp]
 825:Generated_Source\PSoC6/CapSense_Processing.c ****     {
 202              		.loc 1 825 0
 203 0014 0BE0     		b	.L13
 204              	.LVL25:
 205              	.L14:
 865:Generated_Source\PSoC6/CapSense_Processing.c ****         #endif /* (CapSense_ENABLE == CapSense_TST_BSLN_DUPLICATION_EN) */
 206              		.loc 1 865 0 discriminator 3
 207 0016 019A     		ldr	r2, [sp, #4]
 208 0018 2100     		movs	r1, r4
 209 001a 2800     		movs	r0, r5
 210 001c FFF7FEFF 		bl	CapSense_FtUpdateBaseline
 211              	.LVL26:
 212 0020 0090     		str	r0, [sp]
 213              	.LVL27:
 868:Generated_Source\PSoC6/CapSense_Processing.c **** 
 214              		.loc 1 868 0 discriminator 3
 215 0022 2100     		movs	r1, r4
 216 0024 2800     		movs	r0, r5
 217              	.LVL28:
 218 0026 FFF7FEFF 		bl	CapSense_DpUpdateDifferences
 219              	.LVL29:
 871:Generated_Source\PSoC6/CapSense_Processing.c **** 
 220              		.loc 1 871 0 discriminator 3
ARM GAS  C:\Users\Rolf\AppData\Local\Temp\ccPMJUbQ.s 			page 26


 221 002a 0A34     		adds	r4, r4, #10
 222              	.LVL30:
 825:Generated_Source\PSoC6/CapSense_Processing.c ****     {
 223              		.loc 1 825 0 discriminator 3
 224 002c 0136     		adds	r6, r6, #1
 225              	.LVL31:
 226              	.L13:
 825:Generated_Source\PSoC6/CapSense_Processing.c ****     {
 227              		.loc 1 825 0 is_stmt 0 discriminator 1
 228 002e 3B8B     		ldrh	r3, [r7, #24]
 229 0030 9E42     		cmp	r6, r3
 230 0032 F0D3     		bcc	.L14
 879:Generated_Source\PSoC6/CapSense_Processing.c **** 
 231              		.loc 1 879 0 is_stmt 1
 232 0034 0098     		ldr	r0, [sp]
 233 0036 03B0     		add	sp, sp, #12
 234              	.LVL32:
 235              		@ sp needed
 236              	.LVL33:
 237              	.LVL34:
 238              	.LVL35:
 239              	.LVL36:
 240 0038 F0BD     		pop	{r4, r5, r6, r7, pc}
 241              		.cfi_endproc
 242              	.LFE46:
 243              		.size	CapSense_DpProcessCsdWidgetRawCounts, .-CapSense_DpProcessCsdWidgetRawCounts
 244 003a C046     		.section	.text.CapSense_DpProcessCsdSensorRawCountsExt,"ax",%progbits
 245              		.align	2
 246              		.global	CapSense_DpProcessCsdSensorRawCountsExt
 247              		.code	16
 248              		.thumb_func
 249              		.type	CapSense_DpProcessCsdSensorRawCountsExt, %function
 250              	CapSense_DpProcessCsdSensorRawCountsExt:
 251              	.LFB47:
 920:Generated_Source\PSoC6/CapSense_Processing.c ****     uint32 result = CY_RET_SUCCESS;
 252              		.loc 1 920 0
 253              		.cfi_startproc
 254              		@ args = 0, pretend = 0, frame = 0
 255              		@ frame_needed = 0, uses_anonymous_args = 0
 256              	.LVL37:
 257 0000 F8B5     		push	{r3, r4, r5, r6, r7, lr}
 258              		.cfi_def_cfa_offset 24
 259              		.cfi_offset 3, -24
 260              		.cfi_offset 4, -20
 261              		.cfi_offset 5, -16
 262              		.cfi_offset 6, -12
 263              		.cfi_offset 7, -8
 264              		.cfi_offset 14, -4
 265 0002 0E00     		movs	r6, r1
 266 0004 1C00     		movs	r4, r3
 267              	.LVL38:
 935:Generated_Source\PSoC6/CapSense_Processing.c ****     ptrRamWdgt = (CapSense_RAM_WD_BASE_STRUCT *)ptrFlashWdgt->ptr2WdgtRam;
 268              		.loc 1 935 0
 269 0006 827E     		ldrb	r2, [r0, #26]
 270              	.LVL39:
 936:Generated_Source\PSoC6/CapSense_Processing.c **** 
 271              		.loc 1 936 0
ARM GAS  C:\Users\Rolf\AppData\Local\Temp\ccPMJUbQ.s 			page 27


 272 0008 4768     		ldr	r7, [r0, #4]
 273              	.LVL40:
 976:Generated_Source\PSoC6/CapSense_Processing.c ****     {
 274              		.loc 1 976 0
 275 000a A307     		lsls	r3, r4, #30
 276 000c 04D5     		bpl	.L18
 277              	.LVL41:
 978:Generated_Source\PSoC6/CapSense_Processing.c ****     }
 278              		.loc 1 978 0
 279 000e 3800     		movs	r0, r7
 280              	.LVL42:
 281 0010 FFF7FEFF 		bl	CapSense_FtUpdateBaseline
 282              	.LVL43:
 283 0014 0500     		movs	r5, r0
 284              	.LVL44:
 285 0016 00E0     		b	.L16
 286              	.LVL45:
 287              	.L18:
 921:Generated_Source\PSoC6/CapSense_Processing.c ****     uint32  widgetType;
 288              		.loc 1 921 0
 289 0018 0025     		movs	r5, #0
 290              	.LVL46:
 291              	.L16:
 981:Generated_Source\PSoC6/CapSense_Processing.c ****     {
 292              		.loc 1 981 0
 293 001a 6307     		lsls	r3, r4, #29
 294 001c 03D5     		bpl	.L17
 983:Generated_Source\PSoC6/CapSense_Processing.c ****     }
 295              		.loc 1 983 0
 296 001e 3100     		movs	r1, r6
 297 0020 3800     		movs	r0, r7
 298 0022 FFF7FEFF 		bl	CapSense_DpUpdateDifferences
 299              	.LVL47:
 300              	.L17:
 986:Generated_Source\PSoC6/CapSense_Processing.c **** 
 301              		.loc 1 986 0
 302 0026 2800     		movs	r0, r5
 303              		@ sp needed
 304              	.LVL48:
 305              	.LVL49:
 306              	.LVL50:
 307              	.LVL51:
 308 0028 F8BD     		pop	{r3, r4, r5, r6, r7, pc}
 309              		.cfi_endproc
 310              	.LFE47:
 311              		.size	CapSense_DpProcessCsdSensorRawCountsExt, .-CapSense_DpProcessCsdSensorRawCountsExt
 312 002a C046     		.section	.text.CapSense_DpProcessButton,"ax",%progbits
 313              		.align	2
 314              		.global	CapSense_DpProcessButton
 315              		.code	16
 316              		.thumb_func
 317              		.type	CapSense_DpProcessButton, %function
 318              	CapSense_DpProcessButton:
 319              	.LFB50:
1191:Generated_Source\PSoC6/CapSense_Processing.c **** 
1192:Generated_Source\PSoC6/CapSense_Processing.c **** 
1193:Generated_Source\PSoC6/CapSense_Processing.c **** #if ((0u != CapSense_BUTTON_WIDGET_EN) || (0u != CapSense_CSX_MATRIX_WIDGET_EN))
ARM GAS  C:\Users\Rolf\AppData\Local\Temp\ccPMJUbQ.s 			page 28


1194:Generated_Source\PSoC6/CapSense_Processing.c **** /*******************************************************************************
1195:Generated_Source\PSoC6/CapSense_Processing.c **** * Function Name: CapSense_DpProcessButton
1196:Generated_Source\PSoC6/CapSense_Processing.c **** ****************************************************************************//**
1197:Generated_Source\PSoC6/CapSense_Processing.c **** *
1198:Generated_Source\PSoC6/CapSense_Processing.c **** * \brief
1199:Generated_Source\PSoC6/CapSense_Processing.c **** *   Processes the status of the Button widget.
1200:Generated_Source\PSoC6/CapSense_Processing.c **** *
1201:Generated_Source\PSoC6/CapSense_Processing.c **** * \details
1202:Generated_Source\PSoC6/CapSense_Processing.c **** *   This API processes the status of the CSD/CSX Button widget and
1203:Generated_Source\PSoC6/CapSense_Processing.c **** *   CSX Matrix Button widget. It applies the hysteresis and de-bounce algorithm
1204:Generated_Source\PSoC6/CapSense_Processing.c **** *   to each sensor difference value. This API is expected to be called
1205:Generated_Source\PSoC6/CapSense_Processing.c **** *   after each new widget scan. If it is called multiple times for the same
1206:Generated_Source\PSoC6/CapSense_Processing.c **** *   scan data, the de-bounce algorithm will not work properly.
1207:Generated_Source\PSoC6/CapSense_Processing.c **** *
1208:Generated_Source\PSoC6/CapSense_Processing.c **** *   This API does not update any Data Structure registers
1209:Generated_Source\PSoC6/CapSense_Processing.c **** *   except the de-bounce counters.
1210:Generated_Source\PSoC6/CapSense_Processing.c **** *
1211:Generated_Source\PSoC6/CapSense_Processing.c **** * \param currStatus   The current status of the widget sensors.
1212:Generated_Source\PSoC6/CapSense_Processing.c **** * \param ptrFlashWdgt The pointer to the Flash Widget Object.
1213:Generated_Source\PSoC6/CapSense_Processing.c **** *
1214:Generated_Source\PSoC6/CapSense_Processing.c **** * \return Returns the status of the widget's sensors. Bit #0 - corresponds to Sensor #0.
1215:Generated_Source\PSoC6/CapSense_Processing.c **** *
1216:Generated_Source\PSoC6/CapSense_Processing.c **** *******************************************************************************/
1217:Generated_Source\PSoC6/CapSense_Processing.c **** uint32 CapSense_DpProcessButton(uint32 currStatus, CapSense_FLASH_WD_STRUCT const *ptrFlashWdgt)
1218:Generated_Source\PSoC6/CapSense_Processing.c **** {
 320              		.loc 1 1218 0
 321              		.cfi_startproc
 322              		@ args = 0, pretend = 0, frame = 0
 323              		@ frame_needed = 0, uses_anonymous_args = 0
 324              	.LVL52:
 325 0000 F0B5     		push	{r4, r5, r6, r7, lr}
 326              		.cfi_def_cfa_offset 20
 327              		.cfi_offset 4, -20
 328              		.cfi_offset 5, -16
 329              		.cfi_offset 6, -12
 330              		.cfi_offset 7, -8
 331              		.cfi_offset 14, -4
1219:Generated_Source\PSoC6/CapSense_Processing.c ****     uint32 snsCnt;
1220:Generated_Source\PSoC6/CapSense_Processing.c ****     uint32 snsMask;
1221:Generated_Source\PSoC6/CapSense_Processing.c ****     uint32 newStatus;
1222:Generated_Source\PSoC6/CapSense_Processing.c ****     uint32 touchTh;
1223:Generated_Source\PSoC6/CapSense_Processing.c ****     CapSense_RAM_SNS_STRUCT *ptrSnsTmp;
1224:Generated_Source\PSoC6/CapSense_Processing.c ****     CapSense_RAM_WD_BASE_STRUCT *ptrRamWdgt;
1225:Generated_Source\PSoC6/CapSense_Processing.c ****     uint8 * ptrDebounceCnt;
1226:Generated_Source\PSoC6/CapSense_Processing.c **** 
1227:Generated_Source\PSoC6/CapSense_Processing.c ****     snsCnt = ptrFlashWdgt->totalNumSns;
 332              		.loc 1 1227 0
 333 0002 0A8B     		ldrh	r2, [r1, #24]
 334              	.LVL53:
1228:Generated_Source\PSoC6/CapSense_Processing.c ****     ptrSnsTmp = ptrFlashWdgt->ptr2SnsRam;
 335              		.loc 1 1228 0
 336 0004 8D68     		ldr	r5, [r1, #8]
 337              	.LVL54:
1229:Generated_Source\PSoC6/CapSense_Processing.c ****     ptrRamWdgt = (CapSense_RAM_WD_BASE_STRUCT *)ptrFlashWdgt->ptr2WdgtRam;
 338              		.loc 1 1229 0
 339 0006 4F68     		ldr	r7, [r1, #4]
 340              	.LVL55:
ARM GAS  C:\Users\Rolf\AppData\Local\Temp\ccPMJUbQ.s 			page 29


1230:Generated_Source\PSoC6/CapSense_Processing.c ****     ptrDebounceCnt = ptrFlashWdgt->ptr2DebounceArr;
 341              		.loc 1 1230 0
 342 0008 0B69     		ldr	r3, [r1, #16]
 343              	.LVL56:
1231:Generated_Source\PSoC6/CapSense_Processing.c **** 
1232:Generated_Source\PSoC6/CapSense_Processing.c ****     /* Go through all widget's sensors */
1233:Generated_Source\PSoC6/CapSense_Processing.c ****     snsMask = 1Lu;
 344              		.loc 1 1233 0
 345 000a 0121     		movs	r1, #1
 346              	.LVL57:
1234:Generated_Source\PSoC6/CapSense_Processing.c ****     for (; snsCnt-- > 0u; )
 347              		.loc 1 1234 0
 348 000c 25E0     		b	.L20
 349              	.LVL58:
 350              	.L28:
1235:Generated_Source\PSoC6/CapSense_Processing.c ****     {
1236:Generated_Source\PSoC6/CapSense_Processing.c ****         /* Calculate touch threshold taking into account hysteresis
1237:Generated_Source\PSoC6/CapSense_Processing.c ****            and current sensor state. */
1238:Generated_Source\PSoC6/CapSense_Processing.c ****         touchTh = (0u == (currStatus & snsMask)) ?
 351              		.loc 1 1238 0
 352 000e 0C00     		movs	r4, r1
 353              	.LVL59:
 354 0010 0440     		ands	r4, r0
1239:Generated_Source\PSoC6/CapSense_Processing.c ****                   ((uint32)ptrRamWdgt->fingerTh + ptrRamWdgt->hysteresis) :
 355              		.loc 1 1239 0
 356 0012 03D1     		bne	.L21
 357              		.loc 1 1239 0 is_stmt 0 discriminator 1
 358 0014 7E88     		ldrh	r6, [r7, #2]
 359 0016 BA79     		ldrb	r2, [r7, #6]
 360 0018 B218     		adds	r2, r6, r2
 361 001a 02E0     		b	.L22
 362              	.L21:
1240:Generated_Source\PSoC6/CapSense_Processing.c ****                   ((uint32)ptrRamWdgt->fingerTh - ptrRamWdgt->hysteresis);
 363              		.loc 1 1240 0 is_stmt 1 discriminator 2
 364 001c 7A88     		ldrh	r2, [r7, #2]
 365 001e BE79     		ldrb	r6, [r7, #6]
1239:Generated_Source\PSoC6/CapSense_Processing.c ****                   ((uint32)ptrRamWdgt->fingerTh + ptrRamWdgt->hysteresis) :
 366              		.loc 1 1239 0 discriminator 2
 367 0020 921B     		subs	r2, r2, r6
 368              	.L22:
 369              	.LVL60:
1241:Generated_Source\PSoC6/CapSense_Processing.c **** 
1242:Generated_Source\PSoC6/CapSense_Processing.c ****         /* Determine new potential sensor state */
1243:Generated_Source\PSoC6/CapSense_Processing.c ****         newStatus = (ptrSnsTmp->diff > touchTh) ? snsMask : 0u;
 370              		.loc 1 1243 0
 371 0022 EE88     		ldrh	r6, [r5, #6]
 372 0024 B242     		cmp	r2, r6
 373 0026 01D3     		bcc	.L29
 374 0028 0022     		movs	r2, #0
 375              	.LVL61:
 376 002a 00E0     		b	.L23
 377              	.LVL62:
 378              	.L29:
 379 002c 0A00     		movs	r2, r1
 380              	.LVL63:
 381              	.L23:
1244:Generated_Source\PSoC6/CapSense_Processing.c **** 
ARM GAS  C:\Users\Rolf\AppData\Local\Temp\ccPMJUbQ.s 			page 30


1245:Generated_Source\PSoC6/CapSense_Processing.c ****         /* Sensor state changed ? */
1246:Generated_Source\PSoC6/CapSense_Processing.c ****         if (newStatus != (currStatus & snsMask))
 382              		.loc 1 1246 0 discriminator 4
 383 002e A242     		cmp	r2, r4
 384 0030 02D0     		beq	.L24
1247:Generated_Source\PSoC6/CapSense_Processing.c ****         {
1248:Generated_Source\PSoC6/CapSense_Processing.c ****             /* Decrement de-bounce counter */
1249:Generated_Source\PSoC6/CapSense_Processing.c ****             (*ptrDebounceCnt)--;
 385              		.loc 1 1249 0
 386 0032 1E78     		ldrb	r6, [r3]
 387 0034 013E     		subs	r6, r6, #1
 388 0036 1E70     		strb	r6, [r3]
 389              	.L24:
1250:Generated_Source\PSoC6/CapSense_Processing.c ****         }
1251:Generated_Source\PSoC6/CapSense_Processing.c **** 
1252:Generated_Source\PSoC6/CapSense_Processing.c ****         /*
1253:Generated_Source\PSoC6/CapSense_Processing.c ****         *  This piece of code has two objectives:
1254:Generated_Source\PSoC6/CapSense_Processing.c ****         *  1. Reset de-bounce counter if the sensor state did not change.
1255:Generated_Source\PSoC6/CapSense_Processing.c ****         *     (It is possible that during previous processing cycles sensor
1256:Generated_Source\PSoC6/CapSense_Processing.c ****         *     was active and de-bounce counter was decremented.)
1257:Generated_Source\PSoC6/CapSense_Processing.c ****         *  2. Set new sensor state after successful de-bounce.
1258:Generated_Source\PSoC6/CapSense_Processing.c ****         */
1259:Generated_Source\PSoC6/CapSense_Processing.c ****         if ((newStatus == (currStatus & snsMask)) || (0u == (*ptrDebounceCnt)))
 390              		.loc 1 1259 0
 391 0038 A242     		cmp	r2, r4
 392 003a 02D0     		beq	.L25
 393              		.loc 1 1259 0 is_stmt 0 discriminator 1
 394 003c 1C78     		ldrb	r4, [r3]
 395 003e 002C     		cmp	r4, #0
 396 0040 07D1     		bne	.L26
 397              	.L25:
1260:Generated_Source\PSoC6/CapSense_Processing.c ****         {
1261:Generated_Source\PSoC6/CapSense_Processing.c ****             /* Set new sensor status */
1262:Generated_Source\PSoC6/CapSense_Processing.c ****             currStatus &= ~snsMask;
 398              		.loc 1 1262 0 is_stmt 1
 399 0042 8843     		bics	r0, r1
 400              	.LVL64:
1263:Generated_Source\PSoC6/CapSense_Processing.c ****             currStatus |= newStatus;
 401              		.loc 1 1263 0
 402 0044 1043     		orrs	r0, r2
 403              	.LVL65:
1264:Generated_Source\PSoC6/CapSense_Processing.c **** 
1265:Generated_Source\PSoC6/CapSense_Processing.c ****             /* Reset de-bounce counter */
1266:Generated_Source\PSoC6/CapSense_Processing.c ****             #if (0u != CapSense_OFF_DEBOUNCE_EN)
1267:Generated_Source\PSoC6/CapSense_Processing.c ****                 *ptrDebounceCnt = (0Lu == newStatus) ? ptrRamWdgt->onDebounce : ptrRamWdgt->offDebo
1268:Generated_Source\PSoC6/CapSense_Processing.c ****             #else
1269:Generated_Source\PSoC6/CapSense_Processing.c ****                 *ptrDebounceCnt = (0Lu == newStatus) ? ptrRamWdgt->onDebounce : DEFAULT_OFF_DEBOUNC
 404              		.loc 1 1269 0
 405 0046 002A     		cmp	r2, #0
 406 0048 01D1     		bne	.L30
 407              		.loc 1 1269 0 is_stmt 0 discriminator 1
 408 004a FA79     		ldrb	r2, [r7, #7]
 409              	.LVL66:
 410 004c 00E0     		b	.L27
 411              	.LVL67:
 412              	.L30:
 413              		.loc 1 1269 0
ARM GAS  C:\Users\Rolf\AppData\Local\Temp\ccPMJUbQ.s 			page 31


 414 004e 0122     		movs	r2, #1
 415              	.LVL68:
 416              	.L27:
 417              		.loc 1 1269 0 discriminator 4
 418 0050 1A70     		strb	r2, [r3]
 419              	.L26:
1270:Generated_Source\PSoC6/CapSense_Processing.c ****             #endif /* #if (0u != CapSense_OFF_DEBOUNCE_EN) */
1271:Generated_Source\PSoC6/CapSense_Processing.c ****         }
1272:Generated_Source\PSoC6/CapSense_Processing.c **** 
1273:Generated_Source\PSoC6/CapSense_Processing.c ****         /* Move mask to the next sensor */
1274:Generated_Source\PSoC6/CapSense_Processing.c ****         snsMask <<= 1u;
 420              		.loc 1 1274 0 is_stmt 1
 421 0052 4900     		lsls	r1, r1, #1
 422              	.LVL69:
1275:Generated_Source\PSoC6/CapSense_Processing.c **** 
1276:Generated_Source\PSoC6/CapSense_Processing.c ****         ptrSnsTmp++;
 423              		.loc 1 1276 0
 424 0054 0A35     		adds	r5, r5, #10
 425              	.LVL70:
1277:Generated_Source\PSoC6/CapSense_Processing.c ****         ptrDebounceCnt++;
 426              		.loc 1 1277 0
 427 0056 0133     		adds	r3, r3, #1
 428              	.LVL71:
1234:Generated_Source\PSoC6/CapSense_Processing.c ****     {
 429              		.loc 1 1234 0
 430 0058 6246     		mov	r2, ip
 431              	.LVL72:
 432              	.L20:
 433 005a 541E     		subs	r4, r2, #1
 434 005c A446     		mov	ip, r4
 435              	.LVL73:
 436 005e 002A     		cmp	r2, #0
 437 0060 D5D1     		bne	.L28
1278:Generated_Source\PSoC6/CapSense_Processing.c ****     }
1279:Generated_Source\PSoC6/CapSense_Processing.c **** 
1280:Generated_Source\PSoC6/CapSense_Processing.c ****     return currStatus;
1281:Generated_Source\PSoC6/CapSense_Processing.c **** }
 438              		.loc 1 1281 0
 439              		@ sp needed
 440              	.LVL74:
 441              	.LVL75:
 442              	.LVL76:
 443 0062 F0BD     		pop	{r4, r5, r6, r7, pc}
 444              		.cfi_endproc
 445              	.LFE50:
 446              		.size	CapSense_DpProcessButton, .-CapSense_DpProcessButton
 447              		.section	.text.CapSense_DpProcessCsdWidgetStatus,"ax",%progbits
 448              		.align	2
 449              		.global	CapSense_DpProcessCsdWidgetStatus
 450              		.code	16
 451              		.thumb_func
 452              		.type	CapSense_DpProcessCsdWidgetStatus, %function
 453              	CapSense_DpProcessCsdWidgetStatus:
 454              	.LFB48:
1016:Generated_Source\PSoC6/CapSense_Processing.c ****     uint32 sensorStatus;
 455              		.loc 1 1016 0
 456              		.cfi_startproc
ARM GAS  C:\Users\Rolf\AppData\Local\Temp\ccPMJUbQ.s 			page 32


 457              		@ args = 0, pretend = 0, frame = 0
 458              		@ frame_needed = 0, uses_anonymous_args = 0
 459              	.LVL77:
 460 0000 70B5     		push	{r4, r5, r6, lr}
 461              		.cfi_def_cfa_offset 16
 462              		.cfi_offset 4, -16
 463              		.cfi_offset 5, -12
 464              		.cfi_offset 6, -8
 465              		.cfi_offset 14, -4
 466 0002 0400     		movs	r4, r0
1022:Generated_Source\PSoC6/CapSense_Processing.c ****     sensorStatus = CapSense_dsRam.snsStatus[widgetId];
 467              		.loc 1 1022 0
 468 0004 8A7E     		ldrb	r2, [r1, #26]
 469              	.LVL78:
1023:Generated_Source\PSoC6/CapSense_Processing.c **** 
 470              		.loc 1 1023 0
 471 0006 144B     		ldr	r3, .L38
 472 0008 1B18     		adds	r3, r3, r0
 473 000a 1D7E     		ldrb	r5, [r3, #24]
 474              	.LVL79:
1025:Generated_Source\PSoC6/CapSense_Processing.c ****     {
 475              		.loc 1 1025 0
 476 000c 012A     		cmp	r2, #1
 477 000e 04D1     		bne	.L37
1029:Generated_Source\PSoC6/CapSense_Processing.c ****             break;
 478              		.loc 1 1029 0
 479 0010 2800     		movs	r0, r5
 480              	.LVL80:
 481 0012 FFF7FEFF 		bl	CapSense_DpProcessButton
 482              	.LVL81:
 483 0016 0500     		movs	r5, r0
 484              	.LVL82:
1030:Generated_Source\PSoC6/CapSense_Processing.c ****     #endif /* #if (0u != CapSense_BUTTON_WIDGET_EN) */
 485              		.loc 1 1030 0
 486 0018 03E0     		b	.L34
 487              	.LVL83:
 488              	.L37:
1062:Generated_Source\PSoC6/CapSense_Processing.c ****         break;
 489              		.loc 1 1062 0 discriminator 1
 490 001a 1049     		ldr	r1, .L38+4
 491              	.LVL84:
 492 001c 1048     		ldr	r0, .L38+8
 493              	.LVL85:
 494 001e FFF7FEFF 		bl	Cy_SysLib_AssertFailed
 495              	.LVL86:
 496              	.L34:
1066:Generated_Source\PSoC6/CapSense_Processing.c **** 
 497              		.loc 1 1066 0
 498 0022 0D4B     		ldr	r3, .L38
 499 0024 1B19     		adds	r3, r3, r4
 500 0026 1D76     		strb	r5, [r3, #24]
1069:Generated_Source\PSoC6/CapSense_Processing.c ****     wdStatusMask = CapSense_GET_WDGT_STATUS_MASK(widgetId);
 501              		.loc 1 1069 0
 502 0028 6309     		lsrs	r3, r4, #5
 503              	.LVL87:
1070:Generated_Source\PSoC6/CapSense_Processing.c **** 
 504              		.loc 1 1070 0
ARM GAS  C:\Users\Rolf\AppData\Local\Temp\ccPMJUbQ.s 			page 33


 505 002a 1F22     		movs	r2, #31
 506 002c 1440     		ands	r4, r2
 507              	.LVL88:
 508 002e 1E3A     		subs	r2, r2, #30
 509 0030 A240     		lsls	r2, r2, r4
 510              	.LVL89:
1073:Generated_Source\PSoC6/CapSense_Processing.c ****     {
 511              		.loc 1 1073 0
 512 0032 002D     		cmp	r5, #0
 513 0034 07D1     		bne	.L35
1075:Generated_Source\PSoC6/CapSense_Processing.c ****     }
 514              		.loc 1 1075 0
 515 0036 0433     		adds	r3, r3, #4
 516              	.LVL90:
 517 0038 9B00     		lsls	r3, r3, #2
 518              	.LVL91:
 519 003a 0749     		ldr	r1, .L38
 520 003c CB18     		adds	r3, r1, r3
 521 003e 5968     		ldr	r1, [r3, #4]
 522 0040 9143     		bics	r1, r2
 523 0042 5960     		str	r1, [r3, #4]
 524 0044 06E0     		b	.L31
 525              	.LVL92:
 526              	.L35:
1079:Generated_Source\PSoC6/CapSense_Processing.c ****     }
 527              		.loc 1 1079 0
 528 0046 0433     		adds	r3, r3, #4
 529              	.LVL93:
 530 0048 9B00     		lsls	r3, r3, #2
 531              	.LVL94:
 532 004a 0349     		ldr	r1, .L38
 533 004c CB18     		adds	r3, r1, r3
 534 004e 5968     		ldr	r1, [r3, #4]
 535 0050 0A43     		orrs	r2, r1
 536              	.LVL95:
 537 0052 5A60     		str	r2, [r3, #4]
 538              	.L31:
1081:Generated_Source\PSoC6/CapSense_Processing.c **** #endif /* #if (0u != CapSense_TOTAL_CSD_WIDGETS) */
 539              		.loc 1 1081 0
 540              		@ sp needed
 541              	.LVL96:
 542              	.LVL97:
 543 0054 70BD     		pop	{r4, r5, r6, pc}
 544              	.L39:
 545 0056 C046     		.align	2
 546              	.L38:
 547 0058 00000000 		.word	CapSense_dsRam
 548 005c 26040000 		.word	1062
 549 0060 00000000 		.word	.LC3
 550              		.cfi_endproc
 551              	.LFE48:
 552              		.size	CapSense_DpProcessCsdWidgetStatus, .-CapSense_DpProcessCsdWidgetStatus
 553              		.section	.rodata.str1.4,"aMS",%progbits,1
 554              		.align	2
 555              	.LC3:
 556 0000 47656E65 		.ascii	"Generated_Source\\PSoC6\\CapSense_Processing.c\000"
 556      72617465 
ARM GAS  C:\Users\Rolf\AppData\Local\Temp\ccPMJUbQ.s 			page 34


 556      645F536F 
 556      75726365 
 556      5C50536F 
 557              		.text
 558              	.Letext0:
 559              		.file 2 "c:\\program files (x86)\\cypress\\psoc creator\\4.4\\4.4\\psoc creator\\import\\gnu\\arm\
 560              		.file 3 "c:\\program files (x86)\\cypress\\psoc creator\\4.4\\4.4\\psoc creator\\import\\gnu\\arm\
 561              		.file 4 "c:\\program files (x86)\\cypress\\psoc creator\\4.4\\4.4\\psoc creator\\import\\gnu\\arm\
 562              		.file 5 "Generated_Source\\PSoC6\\pdl\\drivers/peripheral/syslib/cy_syslib.h"
 563              		.file 6 "Generated_Source\\PSoC6\\CapSense_Configuration.h"
 564              		.file 7 "Generated_Source\\PSoC6\\CapSense_Structure.h"
 565              		.file 8 "c:\\program files (x86)\\cypress\\psoc creator\\4.4\\4.4\\psoc creator\\import\\gnu\\arm\
 566              		.file 9 "Generated_Source\\PSoC6\\CapSense_Filter.h"