ARM GAS  C:\Users\Rolf\AppData\Local\Temp\ccuXc8Yq.s 			page 1


   1              		.syntax unified
   2              		.cpu cortex-m0plus
   3              		.fpu softvfp
   4              		.eabi_attribute 20, 1
   5              		.eabi_attribute 21, 1
   6              		.eabi_attribute 23, 3
   7              		.eabi_attribute 24, 1
   8              		.eabi_attribute 25, 1
   9              		.eabi_attribute 26, 1
  10              		.eabi_attribute 30, 1
  11              		.eabi_attribute 34, 0
  12              		.eabi_attribute 18, 4
  13              		.thumb
  14              		.syntax unified
  15              		.file	"CapSense_Structure.c"
  16              		.text
  17              	.Ltext0:
  18              		.cfi_sections	.debug_frame
  19              		.section	.text.DsParseParamId,"ax",%progbits
  20              		.align	2
  21              		.code	16
  22              		.thumb_func
  23              		.type	DsParseParamId, %function
  24              	DsParseParamId:
  25              	.LFB46:
  26              		.file 1 "Generated_Source\\PSoC6\\CapSense_Structure.c"
   1:Generated_Source\PSoC6/CapSense_Structure.c **** /***************************************************************************//**
   2:Generated_Source\PSoC6/CapSense_Structure.c **** * \file CapSense_Structure.c
   3:Generated_Source\PSoC6/CapSense_Structure.c **** * \version 3.0
   4:Generated_Source\PSoC6/CapSense_Structure.c **** *
   5:Generated_Source\PSoC6/CapSense_Structure.c **** * \brief
   6:Generated_Source\PSoC6/CapSense_Structure.c **** *   This file defines the data structure global variables and provides implementation
   7:Generated_Source\PSoC6/CapSense_Structure.c **** *   for the high-level and low-level APIs of the Data Structure module.
   8:Generated_Source\PSoC6/CapSense_Structure.c **** *
   9:Generated_Source\PSoC6/CapSense_Structure.c **** * \see CapSense v3.0 Datasheet
  10:Generated_Source\PSoC6/CapSense_Structure.c **** *
  11:Generated_Source\PSoC6/CapSense_Structure.c **** *//*****************************************************************************
  12:Generated_Source\PSoC6/CapSense_Structure.c **** * Copyright (2016-2017), Cypress Semiconductor Corporation.
  13:Generated_Source\PSoC6/CapSense_Structure.c **** ********************************************************************************
  14:Generated_Source\PSoC6/CapSense_Structure.c **** * This software is owned by Cypress Semiconductor Corporation (Cypress) and is
  15:Generated_Source\PSoC6/CapSense_Structure.c **** * protected by and subject to worldwide patent protection (United States and
  16:Generated_Source\PSoC6/CapSense_Structure.c **** * foreign), United States copyright laws and international treaty provisions.
  17:Generated_Source\PSoC6/CapSense_Structure.c **** * Cypress hereby grants to licensee a personal, non-exclusive, non-transferable
  18:Generated_Source\PSoC6/CapSense_Structure.c **** * license to copy, use, modify, create derivative works of, and compile the
  19:Generated_Source\PSoC6/CapSense_Structure.c **** * Cypress Source Code and derivative works for the sole purpose of creating
  20:Generated_Source\PSoC6/CapSense_Structure.c **** * custom software in support of licensee product to be used only in conjunction
  21:Generated_Source\PSoC6/CapSense_Structure.c **** * with a Cypress integrated circuit as specified in the applicable agreement.
  22:Generated_Source\PSoC6/CapSense_Structure.c **** * Any reproduction, modification, translation, compilation, or representation of
  23:Generated_Source\PSoC6/CapSense_Structure.c **** * this software except as specified above is prohibited without the express
  24:Generated_Source\PSoC6/CapSense_Structure.c **** * written permission of Cypress.
  25:Generated_Source\PSoC6/CapSense_Structure.c **** *
  26:Generated_Source\PSoC6/CapSense_Structure.c **** * Disclaimer: CYPRESS MAKES NO WARRANTY OF ANY KIND, EXPRESS OR IMPLIED, WITH
  27:Generated_Source\PSoC6/CapSense_Structure.c **** * REGARD TO THIS MATERIAL, INCLUDING, BUT NOT LIMITED TO, THE IMPLIED
  28:Generated_Source\PSoC6/CapSense_Structure.c **** * WARRANTIES OF MERCHANTABILITY AND FITNESS FOR A PARTICULAR PURPOSE.
  29:Generated_Source\PSoC6/CapSense_Structure.c **** * Cypress reserves the right to make changes without further notice to the
  30:Generated_Source\PSoC6/CapSense_Structure.c **** * materials described herein. Cypress does not assume any liability arising out
  31:Generated_Source\PSoC6/CapSense_Structure.c **** * of the application or use of any product or circuit described herein. Cypress
ARM GAS  C:\Users\Rolf\AppData\Local\Temp\ccuXc8Yq.s 			page 2


  32:Generated_Source\PSoC6/CapSense_Structure.c **** * does not authorize its products for use as critical components in life-support
  33:Generated_Source\PSoC6/CapSense_Structure.c **** * systems where a malfunction or failure may reasonably be expected to result in
  34:Generated_Source\PSoC6/CapSense_Structure.c **** * significant injury to the user. The inclusion of Cypress' product in a life-
  35:Generated_Source\PSoC6/CapSense_Structure.c **** * support systems application implies that the manufacturer assumes all risk of
  36:Generated_Source\PSoC6/CapSense_Structure.c **** * such use and in doing so indemnifies Cypress against all charges. Use may be
  37:Generated_Source\PSoC6/CapSense_Structure.c **** * limited by and subject to the applicable Cypress software license agreement.
  38:Generated_Source\PSoC6/CapSense_Structure.c **** *******************************************************************************/
  39:Generated_Source\PSoC6/CapSense_Structure.c **** 
  40:Generated_Source\PSoC6/CapSense_Structure.c **** #include "syslib/cy_syslib.h"
  41:Generated_Source\PSoC6/CapSense_Structure.c **** #include <stddef.h>
  42:Generated_Source\PSoC6/CapSense_Structure.c **** #include <string.h>
  43:Generated_Source\PSoC6/CapSense_Structure.c **** #include "cyfitter_gpio.h"
  44:Generated_Source\PSoC6/CapSense_Structure.c **** 
  45:Generated_Source\PSoC6/CapSense_Structure.c **** #include "CapSense_Structure.h"
  46:Generated_Source\PSoC6/CapSense_Structure.c **** #include "CapSense_Configuration.h"
  47:Generated_Source\PSoC6/CapSense_Structure.c **** 
  48:Generated_Source\PSoC6/CapSense_Structure.c **** #if (0u != CapSense_ADC_EN)
  49:Generated_Source\PSoC6/CapSense_Structure.c ****     #include "CapSense_Adc.h"
  50:Generated_Source\PSoC6/CapSense_Structure.c **** #endif /* (0u != CapSense_ADC_EN) */
  51:Generated_Source\PSoC6/CapSense_Structure.c **** 
  52:Generated_Source\PSoC6/CapSense_Structure.c **** #if (CapSense_ENABLE == CapSense_SELF_TEST_EN)
  53:Generated_Source\PSoC6/CapSense_Structure.c ****     #include "CapSense_SelfTest.h"
  54:Generated_Source\PSoC6/CapSense_Structure.c **** #endif
  55:Generated_Source\PSoC6/CapSense_Structure.c **** 
  56:Generated_Source\PSoC6/CapSense_Structure.c **** #if (CapSense_ENABLE == CapSense_CENTROID_5X5_CSD_EN)
  57:Generated_Source\PSoC6/CapSense_Structure.c ****     #include "CapSense_AdvancedCentroid_LL.h"
  58:Generated_Source\PSoC6/CapSense_Structure.c **** #endif
  59:Generated_Source\PSoC6/CapSense_Structure.c **** 
  60:Generated_Source\PSoC6/CapSense_Structure.c **** #if (CapSense_ENABLE == CapSense_GES_GLOBAL_EN)
  61:Generated_Source\PSoC6/CapSense_Structure.c ****     #include "CapSense_Gesture.h"
  62:Generated_Source\PSoC6/CapSense_Structure.c **** #endif /* (CapSense_ENABLE == CapSense_GES_GLOBAL_EN) */
  63:Generated_Source\PSoC6/CapSense_Structure.c **** 
  64:Generated_Source\PSoC6/CapSense_Structure.c **** /*******************************************************************************
  65:Generated_Source\PSoC6/CapSense_Structure.c **** * Defines the RAM Data Structure variables and their init data in flash
  66:Generated_Source\PSoC6/CapSense_Structure.c **** *******************************************************************************/
  67:Generated_Source\PSoC6/CapSense_Structure.c **** /**
  68:Generated_Source\PSoC6/CapSense_Structure.c **** * \cond SECTION_GLOBAL_VARIABLES
  69:Generated_Source\PSoC6/CapSense_Structure.c **** * \addtogroup group_global_variables
  70:Generated_Source\PSoC6/CapSense_Structure.c **** * \{
  71:Generated_Source\PSoC6/CapSense_Structure.c **** */
  72:Generated_Source\PSoC6/CapSense_Structure.c **** 
  73:Generated_Source\PSoC6/CapSense_Structure.c **** /**
  74:Generated_Source\PSoC6/CapSense_Structure.c **** * The variable that contains the CapSense configuration, settings and
  75:Generated_Source\PSoC6/CapSense_Structure.c **** * scanning results. CapSense_dsRam represents RAM Data Structure.
  76:Generated_Source\PSoC6/CapSense_Structure.c **** */
  77:Generated_Source\PSoC6/CapSense_Structure.c **** CapSense_RAM_STRUCT CapSense_dsRam;
  78:Generated_Source\PSoC6/CapSense_Structure.c **** /** \}
  79:Generated_Source\PSoC6/CapSense_Structure.c **** * \endcond */
  80:Generated_Source\PSoC6/CapSense_Structure.c **** 
  81:Generated_Source\PSoC6/CapSense_Structure.c **** /*******************************************************************************
  82:Generated_Source\PSoC6/CapSense_Structure.c **** * Declares Widget's De-bounce Counters
  83:Generated_Source\PSoC6/CapSense_Structure.c **** *******************************************************************************/
  84:Generated_Source\PSoC6/CapSense_Structure.c **** static uint8 CapSense_debounceButton0[CapSense_BUTTON0_NUM_SENSORS];
  85:Generated_Source\PSoC6/CapSense_Structure.c **** 
  86:Generated_Source\PSoC6/CapSense_Structure.c **** 
  87:Generated_Source\PSoC6/CapSense_Structure.c **** /*******************************************************************************
  88:Generated_Source\PSoC6/CapSense_Structure.c **** * Defines and initializes the Flash Data Structure
ARM GAS  C:\Users\Rolf\AppData\Local\Temp\ccuXc8Yq.s 			page 3


  89:Generated_Source\PSoC6/CapSense_Structure.c **** *******************************************************************************/
  90:Generated_Source\PSoC6/CapSense_Structure.c **** 
  91:Generated_Source\PSoC6/CapSense_Structure.c **** 
  92:Generated_Source\PSoC6/CapSense_Structure.c **** 
  93:Generated_Source\PSoC6/CapSense_Structure.c **** /**
  94:Generated_Source\PSoC6/CapSense_Structure.c **** * \cond SECTION_API_CONSTANTS
  95:Generated_Source\PSoC6/CapSense_Structure.c **** * \addtogroup group_api_constants
  96:Generated_Source\PSoC6/CapSense_Structure.c **** * \{
  97:Generated_Source\PSoC6/CapSense_Structure.c **** */
  98:Generated_Source\PSoC6/CapSense_Structure.c **** /**
  99:Generated_Source\PSoC6/CapSense_Structure.c **** * Constant for the FLASH Data Structure
 100:Generated_Source\PSoC6/CapSense_Structure.c **** */
 101:Generated_Source\PSoC6/CapSense_Structure.c **** const CapSense_FLASH_STRUCT CapSense_dsFlash =
 102:Generated_Source\PSoC6/CapSense_Structure.c **** {
 103:Generated_Source\PSoC6/CapSense_Structure.c ****     /* Flash Widget Initialization Data */
 104:Generated_Source\PSoC6/CapSense_Structure.c ****     {
 105:Generated_Source\PSoC6/CapSense_Structure.c ****         { /* Button0 */
 106:Generated_Source\PSoC6/CapSense_Structure.c ****             &CapSense_ioList[0u],
 107:Generated_Source\PSoC6/CapSense_Structure.c ****             (void *)&CapSense_dsRam.wdgtList.button0,
 108:Generated_Source\PSoC6/CapSense_Structure.c ****             CapSense_dsRam.snsList.button0,
 109:Generated_Source\PSoC6/CapSense_Structure.c ****             (void *)0u,
 110:Generated_Source\PSoC6/CapSense_Structure.c ****             CapSense_debounceButton0,
 111:Generated_Source\PSoC6/CapSense_Structure.c ****             CapSense_BUTTON0_STATIC_CONFIG,
 112:Generated_Source\PSoC6/CapSense_Structure.c ****             CapSense_BUTTON0_NUM_SENSORS,
 113:Generated_Source\PSoC6/CapSense_Structure.c ****             (uint8)CapSense_WD_BUTTON_E,
 114:Generated_Source\PSoC6/CapSense_Structure.c ****             CapSense_BUTTON0_NUM_SENSORS,
 115:Generated_Source\PSoC6/CapSense_Structure.c ****         },
 116:Generated_Source\PSoC6/CapSense_Structure.c ****     },
 117:Generated_Source\PSoC6/CapSense_Structure.c **** };
 118:Generated_Source\PSoC6/CapSense_Structure.c **** 
 119:Generated_Source\PSoC6/CapSense_Structure.c **** /**
 120:Generated_Source\PSoC6/CapSense_Structure.c **** * The array of the pointers to the electrode specific register.
 121:Generated_Source\PSoC6/CapSense_Structure.c **** */
 122:Generated_Source\PSoC6/CapSense_Structure.c **** const CapSense_FLASH_IO_STRUCT CapSense_ioList[CapSense_TOTAL_ELECTRODES] =
 123:Generated_Source\PSoC6/CapSense_Structure.c **** {
 124:Generated_Source\PSoC6/CapSense_Structure.c ****     { /* 0: Button0_Sns0 */
 125:Generated_Source\PSoC6/CapSense_Structure.c ****         CapSense_Sns_0_PORT,
 126:Generated_Source\PSoC6/CapSense_Structure.c ****         (uint8)CapSense_Sns_0_NUM,
 127:Generated_Source\PSoC6/CapSense_Structure.c ****     },
 128:Generated_Source\PSoC6/CapSense_Structure.c **** };
 129:Generated_Source\PSoC6/CapSense_Structure.c **** 
 130:Generated_Source\PSoC6/CapSense_Structure.c **** 
 131:Generated_Source\PSoC6/CapSense_Structure.c **** 
 132:Generated_Source\PSoC6/CapSense_Structure.c **** /** \}
 133:Generated_Source\PSoC6/CapSense_Structure.c **** * \endcond */
 134:Generated_Source\PSoC6/CapSense_Structure.c **** 
 135:Generated_Source\PSoC6/CapSense_Structure.c **** /* Initialization data for RAM widget list */
 136:Generated_Source\PSoC6/CapSense_Structure.c **** const CapSense_RAM_WD_LIST_STRUCT CapSense_ramWidgetInit =
 137:Generated_Source\PSoC6/CapSense_Structure.c **** {
 138:Generated_Source\PSoC6/CapSense_Structure.c ****     { /* Button0 */
 139:Generated_Source\PSoC6/CapSense_Structure.c ****         CapSense_BUTTON0_RESOLUTION,
 140:Generated_Source\PSoC6/CapSense_Structure.c ****         CapSense_BUTTON0_FINGER_TH,
 141:Generated_Source\PSoC6/CapSense_Structure.c ****         CapSense_BUTTON0_NOISE_TH,
 142:Generated_Source\PSoC6/CapSense_Structure.c ****         CapSense_BUTTON0_NNOISE_TH,
 143:Generated_Source\PSoC6/CapSense_Structure.c ****         CapSense_BUTTON0_HYSTERESIS,
 144:Generated_Source\PSoC6/CapSense_Structure.c ****         CapSense_BUTTON0_ON_DEBOUNCE,
 145:Generated_Source\PSoC6/CapSense_Structure.c ****         CapSense_BUTTON0_LOW_BSLN_RST,
ARM GAS  C:\Users\Rolf\AppData\Local\Temp\ccuXc8Yq.s 			page 4


 146:Generated_Source\PSoC6/CapSense_Structure.c ****         {
 147:Generated_Source\PSoC6/CapSense_Structure.c ****             CapSense_BUTTON0_IDAC_MOD0,
 148:Generated_Source\PSoC6/CapSense_Structure.c ****         },
 149:Generated_Source\PSoC6/CapSense_Structure.c ****         CapSense_BUTTON0_SNS_CLK,
 150:Generated_Source\PSoC6/CapSense_Structure.c ****         CapSense_BUTTON0_SNS_CLK_SOURCE,
 151:Generated_Source\PSoC6/CapSense_Structure.c ****     },
 152:Generated_Source\PSoC6/CapSense_Structure.c **** };
 153:Generated_Source\PSoC6/CapSense_Structure.c **** 
 154:Generated_Source\PSoC6/CapSense_Structure.c **** 
 155:Generated_Source\PSoC6/CapSense_Structure.c **** /* IDAC Initialization Data */
 156:Generated_Source\PSoC6/CapSense_Structure.c **** const uint8 CapSense_ramIdacInit[CapSense_TOTAL_SENSORS] =
 157:Generated_Source\PSoC6/CapSense_Structure.c **** {
 158:Generated_Source\PSoC6/CapSense_Structure.c ****     /* Button0 */
 159:Generated_Source\PSoC6/CapSense_Structure.c ****     CapSense_BUTTON0_SNS0_IDAC_COMP0,
 160:Generated_Source\PSoC6/CapSense_Structure.c **** };
 161:Generated_Source\PSoC6/CapSense_Structure.c **** 
 162:Generated_Source\PSoC6/CapSense_Structure.c **** 
 163:Generated_Source\PSoC6/CapSense_Structure.c **** 
 164:Generated_Source\PSoC6/CapSense_Structure.c **** /*******************************************************************************
 165:Generated_Source\PSoC6/CapSense_Structure.c **** * Defines internal data types and statements
 166:Generated_Source\PSoC6/CapSense_Structure.c **** *******************************************************************************/
 167:Generated_Source\PSoC6/CapSense_Structure.c **** #define PARAM_TYPE_OFFSET       (30u)
 168:Generated_Source\PSoC6/CapSense_Structure.c **** #define PARAM_TYPE_MASK         (3Lu << PARAM_TYPE_OFFSET)
 169:Generated_Source\PSoC6/CapSense_Structure.c **** #define PARAM_RWBIT_OFFSET      (29u)
 170:Generated_Source\PSoC6/CapSense_Structure.c **** #define PARAM_RWBIT_MASK        (1Lu << PARAM_RWBIT_OFFSET)
 171:Generated_Source\PSoC6/CapSense_Structure.c **** #define PARAM_FBIT_OFFSET       (28u)
 172:Generated_Source\PSoC6/CapSense_Structure.c **** #define PARAM_FBIT_MASK         (1Lu << PARAM_FBIT_OFFSET)
 173:Generated_Source\PSoC6/CapSense_Structure.c **** #define PARAM_UBIT_OFFSET       (23u)
 174:Generated_Source\PSoC6/CapSense_Structure.c **** #define PARAM_UBIT_MASK         (1Lu << PARAM_UBIT_OFFSET)
 175:Generated_Source\PSoC6/CapSense_Structure.c **** #define PARAM_WDID_OFFSET       (16u)
 176:Generated_Source\PSoC6/CapSense_Structure.c **** #define PARAM_WDID_MASK         (0x7FLu << PARAM_WDID_OFFSET)
 177:Generated_Source\PSoC6/CapSense_Structure.c **** #define PARAM_CRC_OFFSET        (24u)
 178:Generated_Source\PSoC6/CapSense_Structure.c **** #define PARAM_CRC_MASK          (0x0FLu << PARAM_CRC_OFFSET)
 179:Generated_Source\PSoC6/CapSense_Structure.c **** 
 180:Generated_Source\PSoC6/CapSense_Structure.c **** /* Defines align masks for uint16 and uint32 */
 181:Generated_Source\PSoC6/CapSense_Structure.c **** #define UINT16_ALIGN_MASK       (1Lu)
 182:Generated_Source\PSoC6/CapSense_Structure.c **** #define UINT32_ALIGN_MASK       (3Lu)
 183:Generated_Source\PSoC6/CapSense_Structure.c **** 
 184:Generated_Source\PSoC6/CapSense_Structure.c **** /* Defines supported parameter types */
 185:Generated_Source\PSoC6/CapSense_Structure.c **** #define DS_PARAM_TYPE_UINT8     (0x01u)
 186:Generated_Source\PSoC6/CapSense_Structure.c **** #define DS_PARAM_TYPE_UINT16    (0x02u)
 187:Generated_Source\PSoC6/CapSense_Structure.c **** #define DS_PARAM_TYPE_UINT32    (0x03u)
 188:Generated_Source\PSoC6/CapSense_Structure.c **** 
 189:Generated_Source\PSoC6/CapSense_Structure.c **** 
 190:Generated_Source\PSoC6/CapSense_Structure.c **** /* Defines PARAM_ID structure */
 191:Generated_Source\PSoC6/CapSense_Structure.c **** typedef struct
 192:Generated_Source\PSoC6/CapSense_Structure.c **** {
 193:Generated_Source\PSoC6/CapSense_Structure.c ****     uint16 offset;      /* parameter offset */
 194:Generated_Source\PSoC6/CapSense_Structure.c ****     uint8  widgetId;    /* widget Id parameter belongs to */
 195:Generated_Source\PSoC6/CapSense_Structure.c ****     uint8  affectsCrc;  /* parameter affects widget CRC */
 196:Generated_Source\PSoC6/CapSense_Structure.c ****     uint8  crc;         /* parameter CRC */
 197:Generated_Source\PSoC6/CapSense_Structure.c ****     uint8  flash;       /* parameter located in FLASH flag */
 198:Generated_Source\PSoC6/CapSense_Structure.c ****     uint8  rw;          /* parameter is read/write flag */
 199:Generated_Source\PSoC6/CapSense_Structure.c ****     uint8  type;        /* parameter type: uint8/uint16/uint32 */
 200:Generated_Source\PSoC6/CapSense_Structure.c **** } PARAM_ID_STRUCT;
 201:Generated_Source\PSoC6/CapSense_Structure.c **** 
 202:Generated_Source\PSoC6/CapSense_Structure.c **** 
ARM GAS  C:\Users\Rolf\AppData\Local\Temp\ccuXc8Yq.s 			page 5


 203:Generated_Source\PSoC6/CapSense_Structure.c **** /*******************************************************************************
 204:Generated_Source\PSoC6/CapSense_Structure.c **** * Static Function Prototypes
 205:Generated_Source\PSoC6/CapSense_Structure.c **** *******************************************************************************/
 206:Generated_Source\PSoC6/CapSense_Structure.c **** /**
 207:Generated_Source\PSoC6/CapSense_Structure.c **** * \cond SECTION_CYSENSE_INTERNAL
 208:Generated_Source\PSoC6/CapSense_Structure.c **** * \addtogroup group_cysense_internal
 209:Generated_Source\PSoC6/CapSense_Structure.c **** * \{
 210:Generated_Source\PSoC6/CapSense_Structure.c **** */
 211:Generated_Source\PSoC6/CapSense_Structure.c **** 
 212:Generated_Source\PSoC6/CapSense_Structure.c **** 
 213:Generated_Source\PSoC6/CapSense_Structure.c **** 
 214:Generated_Source\PSoC6/CapSense_Structure.c **** static cy_status DsParseParamId(uint32 paramId, PARAM_ID_STRUCT *pData);
 215:Generated_Source\PSoC6/CapSense_Structure.c **** 
 216:Generated_Source\PSoC6/CapSense_Structure.c **** /** \}
 217:Generated_Source\PSoC6/CapSense_Structure.c **** * \endcond */
 218:Generated_Source\PSoC6/CapSense_Structure.c **** 
 219:Generated_Source\PSoC6/CapSense_Structure.c **** 
 220:Generated_Source\PSoC6/CapSense_Structure.c **** /*******************************************************************************
 221:Generated_Source\PSoC6/CapSense_Structure.c **** * Function Name: CapSense_DsInitialize
 222:Generated_Source\PSoC6/CapSense_Structure.c **** ****************************************************************************//**
 223:Generated_Source\PSoC6/CapSense_Structure.c **** *
 224:Generated_Source\PSoC6/CapSense_Structure.c **** * \brief
 225:Generated_Source\PSoC6/CapSense_Structure.c **** *   This function initializes the Data Structure storage.
 226:Generated_Source\PSoC6/CapSense_Structure.c **** *
 227:Generated_Source\PSoC6/CapSense_Structure.c **** * \details
 228:Generated_Source\PSoC6/CapSense_Structure.c **** *   This function copies the default widget configuration parameters
 229:Generated_Source\PSoC6/CapSense_Structure.c **** *   from the Flash storage into the RAM Data Structure.
 230:Generated_Source\PSoC6/CapSense_Structure.c **** *
 231:Generated_Source\PSoC6/CapSense_Structure.c **** *******************************************************************************/
 232:Generated_Source\PSoC6/CapSense_Structure.c **** void CapSense_DsInitialize(void)
 233:Generated_Source\PSoC6/CapSense_Structure.c **** {
 234:Generated_Source\PSoC6/CapSense_Structure.c ****     #if ((CapSense_ENABLE == CapSense_CSX_EN) || \
 235:Generated_Source\PSoC6/CapSense_Structure.c ****          (CapSense_ENABLE == CapSense_CSD_IDAC_COMP_EN) || \
 236:Generated_Source\PSoC6/CapSense_Structure.c ****         ((CapSense_ENABLE == CapSense_CSX_EN) && \
 237:Generated_Source\PSoC6/CapSense_Structure.c ****          (CapSense_ENABLE == CapSense_CSX_SKIP_OVSMPL_SPECIFIC_NODES)))
 238:Generated_Source\PSoC6/CapSense_Structure.c ****         uint32 snsId;
 239:Generated_Source\PSoC6/CapSense_Structure.c ****         uint32 wdgtId;
 240:Generated_Source\PSoC6/CapSense_Structure.c ****         CapSense_RAM_SNS_STRUCT * ptrSnsTmp;
 241:Generated_Source\PSoC6/CapSense_Structure.c ****         CapSense_FLASH_WD_STRUCT const * ptrFlashWdgt;
 242:Generated_Source\PSoC6/CapSense_Structure.c ****     #endif
 243:Generated_Source\PSoC6/CapSense_Structure.c **** 
 244:Generated_Source\PSoC6/CapSense_Structure.c ****     #if ((CapSense_ENABLE == CapSense_CSX_EN) && \
 245:Generated_Source\PSoC6/CapSense_Structure.c ****          (CapSense_ENABLE == CapSense_CSX_SKIP_OVSMPL_SPECIFIC_NODES))
 246:Generated_Source\PSoC6/CapSense_Structure.c ****         uint16 subConvNumber;
 247:Generated_Source\PSoC6/CapSense_Structure.c ****     #endif
 248:Generated_Source\PSoC6/CapSense_Structure.c **** 
 249:Generated_Source\PSoC6/CapSense_Structure.c ****     #if (0u != CapSense_CSX_EN) || (0 != CapSense_CSD_IDAC_COMP_EN)
 250:Generated_Source\PSoC6/CapSense_Structure.c ****         uint8 const * ptrIdacInit = CapSense_ramIdacInit;
 251:Generated_Source\PSoC6/CapSense_Structure.c ****     #endif
 252:Generated_Source\PSoC6/CapSense_Structure.c **** 
 253:Generated_Source\PSoC6/CapSense_Structure.c ****     /* Reset RAM data structure content */
 254:Generated_Source\PSoC6/CapSense_Structure.c ****     (void)memset(&CapSense_dsRam, 0, sizeof(CapSense_dsRam));
 255:Generated_Source\PSoC6/CapSense_Structure.c **** 
 256:Generated_Source\PSoC6/CapSense_Structure.c ****     /* Initialize configId, deviceId and hwClock registers */
 257:Generated_Source\PSoC6/CapSense_Structure.c ****     CapSense_dsRam.configId = CapSense_CONFIG_ID;
 258:Generated_Source\PSoC6/CapSense_Structure.c ****     CapSense_dsRam.deviceId = CapSense_DEVICE_ID;
 259:Generated_Source\PSoC6/CapSense_Structure.c ****     CapSense_dsRam.hwClock = CapSense_HW_CLOCK;
ARM GAS  C:\Users\Rolf\AppData\Local\Temp\ccuXc8Yq.s 			page 6


 260:Generated_Source\PSoC6/CapSense_Structure.c **** 
 261:Generated_Source\PSoC6/CapSense_Structure.c ****     /* Initialize global RAM data */
 262:Generated_Source\PSoC6/CapSense_Structure.c ****     CapSense_dsRam.csd0Config = CapSense_CSD0_CONFIG;
 263:Generated_Source\PSoC6/CapSense_Structure.c **** 
 264:Generated_Source\PSoC6/CapSense_Structure.c ****     #if (0u != CapSense_TOTAL_CSD_WIDGETS)
 265:Generated_Source\PSoC6/CapSense_Structure.c ****         CapSense_dsRam.modCsdClk = CapSense_CSD_SCANSPEED_DIVIDER;
 266:Generated_Source\PSoC6/CapSense_Structure.c **** 
 267:Generated_Source\PSoC6/CapSense_Structure.c ****         #if (0u != CapSense_CSD_COMMON_SNS_CLK_EN)
 268:Generated_Source\PSoC6/CapSense_Structure.c ****             CapSense_dsRam.snsCsdClk = CapSense_CSD_SNS_CLK_DIVIDER;
 269:Generated_Source\PSoC6/CapSense_Structure.c ****         #endif /* #if (0u != CapSense_CSD_COMMON_SNS_CLK_EN) */
 270:Generated_Source\PSoC6/CapSense_Structure.c ****     #endif /* #if (0u != CapSense_TOTAL_CSD_WIDGETS) */
 271:Generated_Source\PSoC6/CapSense_Structure.c **** 
 272:Generated_Source\PSoC6/CapSense_Structure.c ****     #if (0u != CapSense_CSX_EN)
 273:Generated_Source\PSoC6/CapSense_Structure.c ****         CapSense_dsRam.modCsxClk = CapSense_CSX_SCANSPEED_DIVIDER;
 274:Generated_Source\PSoC6/CapSense_Structure.c **** 
 275:Generated_Source\PSoC6/CapSense_Structure.c ****         #if (0u != CapSense_CSX_COMMON_TX_CLK_EN)
 276:Generated_Source\PSoC6/CapSense_Structure.c ****             CapSense_dsRam.snsCsxClk = CapSense_CSX_TX_CLK_DIVIDER;
 277:Generated_Source\PSoC6/CapSense_Structure.c ****         #endif /* #if (0u != CapSense_CSX_COMMON_TX_CLK_EN) */
 278:Generated_Source\PSoC6/CapSense_Structure.c ****     #endif /* #if (0u != CapSense_CSX_EN) */
 279:Generated_Source\PSoC6/CapSense_Structure.c **** 
 280:Generated_Source\PSoC6/CapSense_Structure.c ****     #if (0u != CapSense_SELF_TEST_EN)
 281:Generated_Source\PSoC6/CapSense_Structure.c ****         CapSense_dsRam.glbCrc = CapSense_GLB_CRC;
 282:Generated_Source\PSoC6/CapSense_Structure.c ****     #endif /* #if (0u != CapSense_SELF_TEST_EN) */
 283:Generated_Source\PSoC6/CapSense_Structure.c **** 
 284:Generated_Source\PSoC6/CapSense_Structure.c ****     /* Initialize RAM widget data */
 285:Generated_Source\PSoC6/CapSense_Structure.c ****     CapSense_dsRam.wdgtList = CapSense_ramWidgetInit;
 286:Generated_Source\PSoC6/CapSense_Structure.c **** 
 287:Generated_Source\PSoC6/CapSense_Structure.c ****     /* Initialize Gesture configuration structure */
 288:Generated_Source\PSoC6/CapSense_Structure.c ****     #if ((0u != CapSense_GES_GLOBAL_EN) || (0u != CapSense_BALLISTIC_MULTIPLIER_EN))
 289:Generated_Source\PSoC6/CapSense_Structure.c ****         CapSense_dsRam.timestampInterval = CapSense_TIMESTAMP_INTERVAL;
 290:Generated_Source\PSoC6/CapSense_Structure.c ****     #endif /* ((0u != CapSense_GES_GLOBAL_EN) || (0u != CapSense_BALLISTIC_MULTIPLIER_EN)) */
 291:Generated_Source\PSoC6/CapSense_Structure.c **** 
 292:Generated_Source\PSoC6/CapSense_Structure.c ****     #if (0u != CapSense_GES_GLOBAL_EN)
 293:Generated_Source\PSoC6/CapSense_Structure.c ****         CapSense_dsRam.gestures = CapSense_ramGesturesInit;
 294:Generated_Source\PSoC6/CapSense_Structure.c ****     #endif /* (0u != CapSense_GES_GLOBAL_EN) */
 295:Generated_Source\PSoC6/CapSense_Structure.c **** 
 296:Generated_Source\PSoC6/CapSense_Structure.c ****     #if (0u != CapSense_BALLISTIC_MULTIPLIER_EN)
 297:Generated_Source\PSoC6/CapSense_Structure.c ****         CapSense_dsRam.ballisticConfig = CapSense_ramBallisticInit;
 298:Generated_Source\PSoC6/CapSense_Structure.c ****     #endif /* (0u != CapSense_BALLISTIC_MULTIPLIER_EN) */
 299:Generated_Source\PSoC6/CapSense_Structure.c **** 
 300:Generated_Source\PSoC6/CapSense_Structure.c ****     #if (0u != CapSense_CSX_EN) || (0 != CapSense_CSD_IDAC_COMP_EN)
 301:Generated_Source\PSoC6/CapSense_Structure.c ****         /* Initialize IDAC data */
 302:Generated_Source\PSoC6/CapSense_Structure.c ****         ptrFlashWdgt = CapSense_dsFlash.wdgtArray;
 303:Generated_Source\PSoC6/CapSense_Structure.c **** 
 304:Generated_Source\PSoC6/CapSense_Structure.c ****         for (wdgtId = CapSense_TOTAL_WIDGETS; wdgtId-- > 0u; )
 305:Generated_Source\PSoC6/CapSense_Structure.c ****         {
 306:Generated_Source\PSoC6/CapSense_Structure.c ****             ptrSnsTmp = ptrFlashWdgt->ptr2SnsRam;
 307:Generated_Source\PSoC6/CapSense_Structure.c **** 
 308:Generated_Source\PSoC6/CapSense_Structure.c ****             for (snsId = CapSense_GET_SNS_CNT_BY_PTR(ptrFlashWdgt); snsId-- > 0u;)
 309:Generated_Source\PSoC6/CapSense_Structure.c ****             {
 310:Generated_Source\PSoC6/CapSense_Structure.c ****                 ptrSnsTmp->idacComp[0u] = *ptrIdacInit;
 311:Generated_Source\PSoC6/CapSense_Structure.c ****                 ptrIdacInit++;
 312:Generated_Source\PSoC6/CapSense_Structure.c **** 
 313:Generated_Source\PSoC6/CapSense_Structure.c ****                 #if (0u != CapSense_MULTI_FREQ_SCAN_EN)
 314:Generated_Source\PSoC6/CapSense_Structure.c ****                     ptrSnsTmp->idacComp[1u] = *ptrIdacInit;
 315:Generated_Source\PSoC6/CapSense_Structure.c ****                     ptrIdacInit++;
 316:Generated_Source\PSoC6/CapSense_Structure.c **** 
ARM GAS  C:\Users\Rolf\AppData\Local\Temp\ccuXc8Yq.s 			page 7


 317:Generated_Source\PSoC6/CapSense_Structure.c ****                     ptrSnsTmp->idacComp[2u] = *ptrIdacInit;
 318:Generated_Source\PSoC6/CapSense_Structure.c ****                     ptrIdacInit++;
 319:Generated_Source\PSoC6/CapSense_Structure.c ****                 #endif /* #if (0u != CapSense_MULTI_FREQ_SCAN_EN) */
 320:Generated_Source\PSoC6/CapSense_Structure.c **** 
 321:Generated_Source\PSoC6/CapSense_Structure.c ****                 ptrSnsTmp++;
 322:Generated_Source\PSoC6/CapSense_Structure.c ****             }
 323:Generated_Source\PSoC6/CapSense_Structure.c **** 
 324:Generated_Source\PSoC6/CapSense_Structure.c ****             ptrFlashWdgt++; /* Move to next widget */
 325:Generated_Source\PSoC6/CapSense_Structure.c ****         }
 326:Generated_Source\PSoC6/CapSense_Structure.c ****     #endif /*(0u != CapSense_CSX_EN) || (0 != CapSense_CSD_IDAC_COMP_EN)*/
 327:Generated_Source\PSoC6/CapSense_Structure.c **** 
 328:Generated_Source\PSoC6/CapSense_Structure.c ****     #if ((CapSense_ENABLE == CapSense_CSX_EN) && \
 329:Generated_Source\PSoC6/CapSense_Structure.c ****          (CapSense_ENABLE == CapSense_CSX_SKIP_OVSMPL_SPECIFIC_NODES))
 330:Generated_Source\PSoC6/CapSense_Structure.c ****         /* Initialize Sub-Conversion Number for each node of each CSX widget */
 331:Generated_Source\PSoC6/CapSense_Structure.c ****         ptrFlashWdgt = CapSense_dsFlash.wdgtArray;
 332:Generated_Source\PSoC6/CapSense_Structure.c ****         for (wdgtId = CapSense_TOTAL_WIDGETS; wdgtId-- > 0u;)
 333:Generated_Source\PSoC6/CapSense_Structure.c ****         {
 334:Generated_Source\PSoC6/CapSense_Structure.c ****             /* Check for widget sense method */
 335:Generated_Source\PSoC6/CapSense_Structure.c ****             if (CapSense_SENSE_METHOD_CSX_E == CapSense_GET_SENSE_METHOD(ptrFlashWdgt))
 336:Generated_Source\PSoC6/CapSense_Structure.c ****             {
 337:Generated_Source\PSoC6/CapSense_Structure.c ****                 /* Take the sub-convesion number of a CSX widget and initialize each node of this w
 338:Generated_Source\PSoC6/CapSense_Structure.c ****                 subConvNumber = ((CapSense_RAM_WD_BASE_STRUCT *)(ptrFlashWdgt->ptr2WdgtRam))->resol
 339:Generated_Source\PSoC6/CapSense_Structure.c ****                 ptrSnsTmp = ptrFlashWdgt->ptr2SnsRam;
 340:Generated_Source\PSoC6/CapSense_Structure.c ****                 for (snsId = CapSense_GET_SNS_CNT_BY_PTR(ptrFlashWdgt); snsId-- > 0u;)
 341:Generated_Source\PSoC6/CapSense_Structure.c ****                 {
 342:Generated_Source\PSoC6/CapSense_Structure.c ****                     ptrSnsTmp->subConvNum = subConvNumber;
 343:Generated_Source\PSoC6/CapSense_Structure.c ****                     ptrSnsTmp++;
 344:Generated_Source\PSoC6/CapSense_Structure.c ****                 }
 345:Generated_Source\PSoC6/CapSense_Structure.c ****             }
 346:Generated_Source\PSoC6/CapSense_Structure.c ****             /* Move to the next widget */
 347:Generated_Source\PSoC6/CapSense_Structure.c ****             ptrFlashWdgt++;
 348:Generated_Source\PSoC6/CapSense_Structure.c ****         }
 349:Generated_Source\PSoC6/CapSense_Structure.c ****     #endif /* ((CapSense_ENABLE == CapSense_CSX_EN) && \
 350:Generated_Source\PSoC6/CapSense_Structure.c ****                (CapSense_ENABLE == CapSense_CSX_SKIP_OVSMPL_SPECIFIC_NODES)) */
 351:Generated_Source\PSoC6/CapSense_Structure.c **** 
 352:Generated_Source\PSoC6/CapSense_Structure.c ****     #if (0u != CapSense_ADC_EN)
 353:Generated_Source\PSoC6/CapSense_Structure.c ****         CapSense_AdcDsInitialize();
 354:Generated_Source\PSoC6/CapSense_Structure.c ****     #endif /* (0u != CapSense_ADC_EN) */
 355:Generated_Source\PSoC6/CapSense_Structure.c **** }
 356:Generated_Source\PSoC6/CapSense_Structure.c **** 
 357:Generated_Source\PSoC6/CapSense_Structure.c **** 
 358:Generated_Source\PSoC6/CapSense_Structure.c **** #if (0u != CapSense_ADC_EN)
 359:Generated_Source\PSoC6/CapSense_Structure.c ****     /*******************************************************************************
 360:Generated_Source\PSoC6/CapSense_Structure.c ****     * Function Name: CapSense_AdcDsInitialize
 361:Generated_Source\PSoC6/CapSense_Structure.c ****     ****************************************************************************//**
 362:Generated_Source\PSoC6/CapSense_Structure.c ****     *
 363:Generated_Source\PSoC6/CapSense_Structure.c ****     * \brief
 364:Generated_Source\PSoC6/CapSense_Structure.c ****     *   Configures the initial Adc datastructure members.
 365:Generated_Source\PSoC6/CapSense_Structure.c ****     *
 366:Generated_Source\PSoC6/CapSense_Structure.c ****     *******************************************************************************/
 367:Generated_Source\PSoC6/CapSense_Structure.c ****     void CapSense_AdcDsInitialize(void)
 368:Generated_Source\PSoC6/CapSense_Structure.c ****     {
 369:Generated_Source\PSoC6/CapSense_Structure.c ****         CapSense_dsRam.adcResolution = CapSense_ADC_RESOLUTION;
 370:Generated_Source\PSoC6/CapSense_Structure.c ****         CapSense_dsRam.adcIdac = (uint8)(CapSense_ADC_IDAC_DEFAULT);
 371:Generated_Source\PSoC6/CapSense_Structure.c ****         CapSense_dsRam.adcActiveCh = CapSense_AdcNO_CHANNEL;
 372:Generated_Source\PSoC6/CapSense_Structure.c ****     }
 373:Generated_Source\PSoC6/CapSense_Structure.c **** #endif /* (0u != CapSense_ADC_EN) */
ARM GAS  C:\Users\Rolf\AppData\Local\Temp\ccuXc8Yq.s 			page 8


 374:Generated_Source\PSoC6/CapSense_Structure.c **** 
 375:Generated_Source\PSoC6/CapSense_Structure.c **** 
 376:Generated_Source\PSoC6/CapSense_Structure.c **** /*******************************************************************************
 377:Generated_Source\PSoC6/CapSense_Structure.c **** * Function Name: DsParseParamId
 378:Generated_Source\PSoC6/CapSense_Structure.c **** ****************************************************************************//**
 379:Generated_Source\PSoC6/CapSense_Structure.c **** *
 380:Generated_Source\PSoC6/CapSense_Structure.c **** * \brief
 381:Generated_Source\PSoC6/CapSense_Structure.c **** *   This function parses the parameter ID and checks its correctness.
 382:Generated_Source\PSoC6/CapSense_Structure.c **** *
 383:Generated_Source\PSoC6/CapSense_Structure.c **** * \details
 384:Generated_Source\PSoC6/CapSense_Structure.c **** *   This function checks the parameter CRC if the self-test is enabled,
 385:Generated_Source\PSoC6/CapSense_Structure.c **** *   validates the offset value and parameter type.
 386:Generated_Source\PSoC6/CapSense_Structure.c **** *
 387:Generated_Source\PSoC6/CapSense_Structure.c **** * \param paramId The parameter to parse.
 388:Generated_Source\PSoC6/CapSense_Structure.c **** * \param pData   The pointer to the structure that will hold parsed data.
 389:Generated_Source\PSoC6/CapSense_Structure.c **** *
 390:Generated_Source\PSoC6/CapSense_Structure.c **** * \return CY_RET_SUCCESS     If the parameter is valid
 391:Generated_Source\PSoC6/CapSense_Structure.c **** *         CY_RET_BAD_PARAM   If  the parameter is invalid
 392:Generated_Source\PSoC6/CapSense_Structure.c **** *
 393:Generated_Source\PSoC6/CapSense_Structure.c **** *******************************************************************************/
 394:Generated_Source\PSoC6/CapSense_Structure.c **** static cy_status DsParseParamId(uint32 paramId, PARAM_ID_STRUCT *pData)
 395:Generated_Source\PSoC6/CapSense_Structure.c **** {
  27              		.loc 1 395 0
  28              		.cfi_startproc
  29              		@ args = 0, pretend = 0, frame = 0
  30              		@ frame_needed = 0, uses_anonymous_args = 0
  31              	.LVL0:
  32 0000 70B5     		push	{r4, r5, r6, lr}
  33              		.cfi_def_cfa_offset 16
  34              		.cfi_offset 4, -16
  35              		.cfi_offset 5, -12
  36              		.cfi_offset 6, -8
  37              		.cfi_offset 14, -4
  38              	.LVL1:
 396:Generated_Source\PSoC6/CapSense_Structure.c ****     cy_status result = CY_RET_SUCCESS;
 397:Generated_Source\PSoC6/CapSense_Structure.c **** 
 398:Generated_Source\PSoC6/CapSense_Structure.c ****     #if (0u != CapSense_SELF_TEST_EN)
 399:Generated_Source\PSoC6/CapSense_Structure.c ****         const uint8 crcTable[] =
 400:Generated_Source\PSoC6/CapSense_Structure.c ****         {
 401:Generated_Source\PSoC6/CapSense_Structure.c ****             0x00u, 0x09u, 0x0Bu, 0x02u, 0x0Fu, 0x06u, 0x04u, 0x0Du,
 402:Generated_Source\PSoC6/CapSense_Structure.c ****             0x07u, 0x0Eu, 0x0Cu, 0x05u, 0x08u, 0x01u, 0x03u, 0x0Au
 403:Generated_Source\PSoC6/CapSense_Structure.c ****         };
 404:Generated_Source\PSoC6/CapSense_Structure.c **** 
 405:Generated_Source\PSoC6/CapSense_Structure.c ****         uint32 i;
 406:Generated_Source\PSoC6/CapSense_Structure.c ****         uint32 actualCrc = 0u;
 407:Generated_Source\PSoC6/CapSense_Structure.c ****         uint32 crcIndex;
 408:Generated_Source\PSoC6/CapSense_Structure.c ****     #endif /* #if (0u != CapSense_SELF_TEST_EN) */
 409:Generated_Source\PSoC6/CapSense_Structure.c **** 
 410:Generated_Source\PSoC6/CapSense_Structure.c ****     /* Extract parameter data */
 411:Generated_Source\PSoC6/CapSense_Structure.c ****     pData->offset     = CY_LO16(paramId);
  39              		.loc 1 411 0
  40 0002 85B2     		uxth	r5, r0
  41 0004 0D80     		strh	r5, [r1]
 412:Generated_Source\PSoC6/CapSense_Structure.c ****     pData->affectsCrc = CY_LO8((paramId & PARAM_UBIT_MASK)  >> PARAM_UBIT_OFFSET);
  42              		.loc 1 412 0
  43 0006 C30D     		lsrs	r3, r0, #23
  44 0008 0124     		movs	r4, #1
ARM GAS  C:\Users\Rolf\AppData\Local\Temp\ccuXc8Yq.s 			page 9


  45 000a 2340     		ands	r3, r4
  46 000c CB70     		strb	r3, [r1, #3]
 413:Generated_Source\PSoC6/CapSense_Structure.c ****     pData->widgetId   = CY_LO8((paramId & PARAM_WDID_MASK)  >> PARAM_WDID_OFFSET);
  47              		.loc 1 413 0
  48 000e 030C     		lsrs	r3, r0, #16
  49 0010 7F22     		movs	r2, #127
  50 0012 1340     		ands	r3, r2
  51 0014 8B70     		strb	r3, [r1, #2]
 414:Generated_Source\PSoC6/CapSense_Structure.c ****     pData->type       = CY_LO8((paramId & PARAM_TYPE_MASK)  >> PARAM_TYPE_OFFSET);
  52              		.loc 1 414 0
  53 0016 860F     		lsrs	r6, r0, #30
  54 0018 CE71     		strb	r6, [r1, #7]
 415:Generated_Source\PSoC6/CapSense_Structure.c ****     pData->flash      = CY_LO8((paramId & PARAM_FBIT_MASK)  >> PARAM_FBIT_OFFSET);
  55              		.loc 1 415 0
  56 001a 030F     		lsrs	r3, r0, #28
  57 001c 2340     		ands	r3, r4
  58 001e 4B71     		strb	r3, [r1, #5]
 416:Generated_Source\PSoC6/CapSense_Structure.c ****     pData->rw         = CY_LO8((paramId & PARAM_RWBIT_MASK) >> PARAM_RWBIT_OFFSET);
  59              		.loc 1 416 0
  60 0020 420F     		lsrs	r2, r0, #29
  61 0022 2240     		ands	r2, r4
  62 0024 8A71     		strb	r2, [r1, #6]
 417:Generated_Source\PSoC6/CapSense_Structure.c ****     pData->crc        = CY_LO8((paramId & PARAM_CRC_MASK)   >> PARAM_CRC_OFFSET);
  63              		.loc 1 417 0
  64 0026 000E     		lsrs	r0, r0, #24
  65              	.LVL2:
  66 0028 0E34     		adds	r4, r4, #14
  67 002a 2040     		ands	r0, r4
  68 002c 0871     		strb	r0, [r1, #4]
 418:Generated_Source\PSoC6/CapSense_Structure.c **** 
 419:Generated_Source\PSoC6/CapSense_Structure.c ****     /* Check parameter CRC if self-test is enabled */
 420:Generated_Source\PSoC6/CapSense_Structure.c ****     #if (0u != CapSense_SELF_TEST_EN)
 421:Generated_Source\PSoC6/CapSense_Structure.c **** 
 422:Generated_Source\PSoC6/CapSense_Structure.c ****         /* Calculate CRC for bits 0..24.
 423:Generated_Source\PSoC6/CapSense_Structure.c ****          * The CRC is calculated using nibbles (4-bits).
 424:Generated_Source\PSoC6/CapSense_Structure.c ****          * So for 0..24 bits there are in total 6 nibbles. */
 425:Generated_Source\PSoC6/CapSense_Structure.c ****         for (i = 6u; i > 0u; i--)
 426:Generated_Source\PSoC6/CapSense_Structure.c ****         {
 427:Generated_Source\PSoC6/CapSense_Structure.c ****             crcIndex = actualCrc ^ (paramId & 0x0Fu);
 428:Generated_Source\PSoC6/CapSense_Structure.c ****             actualCrc = crcTable[crcIndex];
 429:Generated_Source\PSoC6/CapSense_Structure.c ****             paramId >>= 4u;
 430:Generated_Source\PSoC6/CapSense_Structure.c ****         }
 431:Generated_Source\PSoC6/CapSense_Structure.c **** 
 432:Generated_Source\PSoC6/CapSense_Structure.c ****         /* Add bits 28..32 */
 433:Generated_Source\PSoC6/CapSense_Structure.c ****         crcIndex = actualCrc ^ ((paramId >> 4u) & 0x0Fu);
 434:Generated_Source\PSoC6/CapSense_Structure.c ****         actualCrc = crcTable[crcIndex];
 435:Generated_Source\PSoC6/CapSense_Structure.c **** 
 436:Generated_Source\PSoC6/CapSense_Structure.c ****         /* Add bits 24..28 (CRC) */
 437:Generated_Source\PSoC6/CapSense_Structure.c ****         crcIndex = actualCrc ^ (paramId & 0x0Fu);
 438:Generated_Source\PSoC6/CapSense_Structure.c ****         actualCrc = crcTable[crcIndex];
 439:Generated_Source\PSoC6/CapSense_Structure.c **** 
 440:Generated_Source\PSoC6/CapSense_Structure.c ****         if (0u != actualCrc)
 441:Generated_Source\PSoC6/CapSense_Structure.c ****         {
 442:Generated_Source\PSoC6/CapSense_Structure.c ****             /* CRC mismatch */
 443:Generated_Source\PSoC6/CapSense_Structure.c ****             result = CY_RET_BAD_PARAM;
 444:Generated_Source\PSoC6/CapSense_Structure.c ****         }
 445:Generated_Source\PSoC6/CapSense_Structure.c **** 
ARM GAS  C:\Users\Rolf\AppData\Local\Temp\ccuXc8Yq.s 			page 10


 446:Generated_Source\PSoC6/CapSense_Structure.c ****         if ((CY_RET_SUCCESS == result) &&
 447:Generated_Source\PSoC6/CapSense_Structure.c ****             (0u != pData->affectsCrc) && (pData->widgetId >= CapSense_TOTAL_WIDGETS ))
 448:Generated_Source\PSoC6/CapSense_Structure.c ****         {
 449:Generated_Source\PSoC6/CapSense_Structure.c ****             /* Wrong widgetId for protected parameter */
 450:Generated_Source\PSoC6/CapSense_Structure.c ****             result = CY_RET_BAD_PARAM;
 451:Generated_Source\PSoC6/CapSense_Structure.c ****         }
 452:Generated_Source\PSoC6/CapSense_Structure.c **** 
 453:Generated_Source\PSoC6/CapSense_Structure.c ****         /* Check offset value range */
 454:Generated_Source\PSoC6/CapSense_Structure.c ****         if (CY_RET_SUCCESS == result)
 455:Generated_Source\PSoC6/CapSense_Structure.c ****         {
 456:Generated_Source\PSoC6/CapSense_Structure.c ****             if (0u == pData->flash)
 457:Generated_Source\PSoC6/CapSense_Structure.c ****             {
 458:Generated_Source\PSoC6/CapSense_Structure.c ****                 /* Check offset for RAM Data Structure range */
 459:Generated_Source\PSoC6/CapSense_Structure.c ****                 if (pData->offset >= sizeof(CapSense_dsRam))
 460:Generated_Source\PSoC6/CapSense_Structure.c ****                 {
 461:Generated_Source\PSoC6/CapSense_Structure.c ****                     result = CY_RET_BAD_PARAM;
 462:Generated_Source\PSoC6/CapSense_Structure.c ****                 }
 463:Generated_Source\PSoC6/CapSense_Structure.c ****             }
 464:Generated_Source\PSoC6/CapSense_Structure.c ****             else
 465:Generated_Source\PSoC6/CapSense_Structure.c ****             {
 466:Generated_Source\PSoC6/CapSense_Structure.c ****                 /* Check offset for Flash Data Structure range */
 467:Generated_Source\PSoC6/CapSense_Structure.c ****                 if (pData->offset >= sizeof(CapSense_dsFlash))
 468:Generated_Source\PSoC6/CapSense_Structure.c ****                 {
 469:Generated_Source\PSoC6/CapSense_Structure.c ****                     result = CY_RET_BAD_PARAM;
 470:Generated_Source\PSoC6/CapSense_Structure.c ****                 }
 471:Generated_Source\PSoC6/CapSense_Structure.c **** 
 472:Generated_Source\PSoC6/CapSense_Structure.c ****                 /* Check if it is marked as Read Only */
 473:Generated_Source\PSoC6/CapSense_Structure.c ****                 if (0u != pData->rw)
 474:Generated_Source\PSoC6/CapSense_Structure.c ****                 {
 475:Generated_Source\PSoC6/CapSense_Structure.c ****                     result = CY_RET_BAD_PARAM;
 476:Generated_Source\PSoC6/CapSense_Structure.c ****                 }
 477:Generated_Source\PSoC6/CapSense_Structure.c ****             }
 478:Generated_Source\PSoC6/CapSense_Structure.c ****         }
 479:Generated_Source\PSoC6/CapSense_Structure.c ****     #else /* #if (0u != CapSense_SELF_TEST_EN) */
 480:Generated_Source\PSoC6/CapSense_Structure.c ****         /* Check offset value range */
 481:Generated_Source\PSoC6/CapSense_Structure.c ****         if (0u == pData->flash)
  69              		.loc 1 481 0
  70 002e 002B     		cmp	r3, #0
  71 0030 03D1     		bne	.L2
 482:Generated_Source\PSoC6/CapSense_Structure.c ****         {
 483:Generated_Source\PSoC6/CapSense_Structure.c ****             /* Check offset for RAM Data Structure range */
 484:Generated_Source\PSoC6/CapSense_Structure.c ****             if (pData->offset >= sizeof(CapSense_dsRam))
  72              		.loc 1 484 0
  73 0032 3B2D     		cmp	r5, #59
  74 0034 09D8     		bhi	.L9
 396:Generated_Source\PSoC6/CapSense_Structure.c **** 
  75              		.loc 1 396 0
  76 0036 0020     		movs	r0, #0
  77 0038 0AE0     		b	.L3
  78              	.L2:
 485:Generated_Source\PSoC6/CapSense_Structure.c ****             {
 486:Generated_Source\PSoC6/CapSense_Structure.c ****                 result = CY_RET_BAD_PARAM;
 487:Generated_Source\PSoC6/CapSense_Structure.c ****             }
 488:Generated_Source\PSoC6/CapSense_Structure.c ****         }
 489:Generated_Source\PSoC6/CapSense_Structure.c ****         else
 490:Generated_Source\PSoC6/CapSense_Structure.c ****         {
 491:Generated_Source\PSoC6/CapSense_Structure.c ****             /* Check offset for Flash Data Structure range */
ARM GAS  C:\Users\Rolf\AppData\Local\Temp\ccuXc8Yq.s 			page 11


 492:Generated_Source\PSoC6/CapSense_Structure.c ****             if (pData->offset >= sizeof(CapSense_dsFlash))
  79              		.loc 1 492 0
  80 003a 1B2D     		cmp	r5, #27
  81 003c 01D8     		bhi	.L10
 396:Generated_Source\PSoC6/CapSense_Structure.c **** 
  82              		.loc 1 396 0
  83 003e 0020     		movs	r0, #0
  84 0040 00E0     		b	.L4
  85              	.L10:
 493:Generated_Source\PSoC6/CapSense_Structure.c ****             {
 494:Generated_Source\PSoC6/CapSense_Structure.c ****                 result = CY_RET_BAD_PARAM;
  86              		.loc 1 494 0
  87 0042 0120     		movs	r0, #1
  88              	.L4:
  89              	.LVL3:
 495:Generated_Source\PSoC6/CapSense_Structure.c ****             }
 496:Generated_Source\PSoC6/CapSense_Structure.c **** 
 497:Generated_Source\PSoC6/CapSense_Structure.c ****             /* Check if it is marked as Read Only */
 498:Generated_Source\PSoC6/CapSense_Structure.c ****             if (0u != pData->rw)
  90              		.loc 1 498 0
  91 0044 002A     		cmp	r2, #0
  92 0046 02D1     		bne	.L11
  93 0048 02E0     		b	.L3
  94              	.LVL4:
  95              	.L9:
 486:Generated_Source\PSoC6/CapSense_Structure.c ****             }
  96              		.loc 1 486 0
  97 004a 0120     		movs	r0, #1
  98 004c 00E0     		b	.L3
  99              	.LVL5:
 100              	.L11:
 499:Generated_Source\PSoC6/CapSense_Structure.c ****             {
 500:Generated_Source\PSoC6/CapSense_Structure.c ****                 result = CY_RET_BAD_PARAM;
 101              		.loc 1 500 0
 102 004e 0120     		movs	r0, #1
 103              	.LVL6:
 104              	.L3:
 501:Generated_Source\PSoC6/CapSense_Structure.c ****             }
 502:Generated_Source\PSoC6/CapSense_Structure.c ****         }
 503:Generated_Source\PSoC6/CapSense_Structure.c ****     #endif /* #if (0u != CapSense_SELF_TEST_EN) */
 504:Generated_Source\PSoC6/CapSense_Structure.c **** 
 505:Generated_Source\PSoC6/CapSense_Structure.c ****     if (CY_RET_SUCCESS == result)
 105              		.loc 1 505 0
 106 0050 0028     		cmp	r0, #0
 107 0052 11D1     		bne	.L5
 506:Generated_Source\PSoC6/CapSense_Structure.c ****     {
 507:Generated_Source\PSoC6/CapSense_Structure.c ****         /* Check parameter type, offset alignment */
 508:Generated_Source\PSoC6/CapSense_Structure.c ****         switch (pData->type)
 108              		.loc 1 508 0
 109 0054 022E     		cmp	r6, #2
 110 0056 04D0     		beq	.L6
 111 0058 032E     		cmp	r6, #3
 112 005a 05D0     		beq	.L7
 113 005c 012E     		cmp	r6, #1
 114 005e 06D1     		bne	.L15
 115 0060 0AE0     		b	.L5
 116              	.L6:
ARM GAS  C:\Users\Rolf\AppData\Local\Temp\ccuXc8Yq.s 			page 12


 509:Generated_Source\PSoC6/CapSense_Structure.c ****         {
 510:Generated_Source\PSoC6/CapSense_Structure.c ****         case DS_PARAM_TYPE_UINT16:
 511:Generated_Source\PSoC6/CapSense_Structure.c ****             if (0u != (pData->offset & UINT16_ALIGN_MASK))
 117              		.loc 1 511 0
 118 0062 EB07     		lsls	r3, r5, #31
 119 0064 05D4     		bmi	.L13
 120 0066 07E0     		b	.L5
 121              	.L7:
 512:Generated_Source\PSoC6/CapSense_Structure.c ****             {
 513:Generated_Source\PSoC6/CapSense_Structure.c ****                 result = CY_RET_BAD_PARAM;
 514:Generated_Source\PSoC6/CapSense_Structure.c ****             }
 515:Generated_Source\PSoC6/CapSense_Structure.c ****             break;
 516:Generated_Source\PSoC6/CapSense_Structure.c **** 
 517:Generated_Source\PSoC6/CapSense_Structure.c ****         case DS_PARAM_TYPE_UINT32:
 518:Generated_Source\PSoC6/CapSense_Structure.c ****             if (0u != (pData->offset & UINT32_ALIGN_MASK))
 122              		.loc 1 518 0
 123 0068 AB07     		lsls	r3, r5, #30
 124 006a 04D1     		bne	.L14
 125 006c 04E0     		b	.L5
 126              	.L15:
 519:Generated_Source\PSoC6/CapSense_Structure.c ****             {
 520:Generated_Source\PSoC6/CapSense_Structure.c ****                 result = CY_RET_BAD_PARAM;
 521:Generated_Source\PSoC6/CapSense_Structure.c ****             }
 522:Generated_Source\PSoC6/CapSense_Structure.c ****             break;
 523:Generated_Source\PSoC6/CapSense_Structure.c **** 
 524:Generated_Source\PSoC6/CapSense_Structure.c ****         case DS_PARAM_TYPE_UINT8:
 525:Generated_Source\PSoC6/CapSense_Structure.c ****             break;
 526:Generated_Source\PSoC6/CapSense_Structure.c **** 
 527:Generated_Source\PSoC6/CapSense_Structure.c ****         default:
 528:Generated_Source\PSoC6/CapSense_Structure.c ****             result = CY_RET_BAD_PARAM;
 127              		.loc 1 528 0
 128 006e 0120     		movs	r0, #1
 129              	.LVL7:
 130 0070 02E0     		b	.L5
 131              	.LVL8:
 132              	.L13:
 513:Generated_Source\PSoC6/CapSense_Structure.c ****             }
 133              		.loc 1 513 0
 134 0072 0120     		movs	r0, #1
 135              	.LVL9:
 136 0074 00E0     		b	.L5
 137              	.LVL10:
 138              	.L14:
 520:Generated_Source\PSoC6/CapSense_Structure.c ****             }
 139              		.loc 1 520 0
 140 0076 0120     		movs	r0, #1
 141              	.LVL11:
 142              	.L5:
 529:Generated_Source\PSoC6/CapSense_Structure.c ****             break;
 530:Generated_Source\PSoC6/CapSense_Structure.c ****         }
 531:Generated_Source\PSoC6/CapSense_Structure.c ****     }
 532:Generated_Source\PSoC6/CapSense_Structure.c **** 
 533:Generated_Source\PSoC6/CapSense_Structure.c ****     return result;
 534:Generated_Source\PSoC6/CapSense_Structure.c **** }
 143              		.loc 1 534 0
 144              		@ sp needed
 145 0078 70BD     		pop	{r4, r5, r6, pc}
ARM GAS  C:\Users\Rolf\AppData\Local\Temp\ccuXc8Yq.s 			page 13


 146              		.cfi_endproc
 147              	.LFE46:
 148              		.size	DsParseParamId, .-DsParseParamId
 149 007a C046     		.section	.text.CapSense_DsInitialize,"ax",%progbits
 150              		.align	2
 151              		.global	CapSense_DsInitialize
 152              		.code	16
 153              		.thumb_func
 154              		.type	CapSense_DsInitialize, %function
 155              	CapSense_DsInitialize:
 156              	.LFB45:
 233:Generated_Source\PSoC6/CapSense_Structure.c ****     #if ((CapSense_ENABLE == CapSense_CSX_EN) || \
 157              		.loc 1 233 0
 158              		.cfi_startproc
 159              		@ args = 0, pretend = 0, frame = 0
 160              		@ frame_needed = 0, uses_anonymous_args = 0
 161 0000 70B5     		push	{r4, r5, r6, lr}
 162              		.cfi_def_cfa_offset 16
 163              		.cfi_offset 4, -16
 164              		.cfi_offset 5, -12
 165              		.cfi_offset 6, -8
 166              		.cfi_offset 14, -4
 167              	.LVL12:
 254:Generated_Source\PSoC6/CapSense_Structure.c **** 
 168              		.loc 1 254 0
 169 0002 174C     		ldr	r4, .L21
 170 0004 3C22     		movs	r2, #60
 171 0006 0021     		movs	r1, #0
 172 0008 2000     		movs	r0, r4
 173 000a FFF7FEFF 		bl	memset
 174              	.LVL13:
 257:Generated_Source\PSoC6/CapSense_Structure.c ****     CapSense_dsRam.deviceId = CapSense_DEVICE_ID;
 175              		.loc 1 257 0
 176 000e 154B     		ldr	r3, .L21+4
 177 0010 2380     		strh	r3, [r4]
 258:Generated_Source\PSoC6/CapSense_Structure.c ****     CapSense_dsRam.hwClock = CapSense_HW_CLOCK;
 178              		.loc 1 258 0
 179 0012 9023     		movs	r3, #144
 180 0014 1B01     		lsls	r3, r3, #4
 181 0016 6380     		strh	r3, [r4, #2]
 259:Generated_Source\PSoC6/CapSense_Structure.c **** 
 182              		.loc 1 259 0
 183 0018 FA23     		movs	r3, #250
 184 001a 9B00     		lsls	r3, r3, #2
 185 001c A380     		strh	r3, [r4, #4]
 262:Generated_Source\PSoC6/CapSense_Structure.c **** 
 186              		.loc 1 262 0
 187 001e 0823     		movs	r3, #8
 188 0020 6383     		strh	r3, [r4, #26]
 265:Generated_Source\PSoC6/CapSense_Structure.c **** 
 189              		.loc 1 265 0
 190 0022 073B     		subs	r3, r3, #7
 191 0024 2377     		strb	r3, [r4, #28]
 285:Generated_Source\PSoC6/CapSense_Structure.c **** 
 192              		.loc 1 285 0
 193 0026 104D     		ldr	r5, .L21+8
 194 0028 2000     		movs	r0, r4
ARM GAS  C:\Users\Rolf\AppData\Local\Temp\ccuXc8Yq.s 			page 14


 195 002a 1E30     		adds	r0, r0, #30
 196 002c 2900     		movs	r1, r5
 197 002e 2031     		adds	r1, r1, #32
 198 0030 0E22     		movs	r2, #14
 199 0032 FFF7FEFF 		bl	memcpy
 200              	.LVL14:
 250:Generated_Source\PSoC6/CapSense_Structure.c ****     #endif
 201              		.loc 1 250 0
 202 0036 2A00     		movs	r2, r5
 302:Generated_Source\PSoC6/CapSense_Structure.c **** 
 203              		.loc 1 302 0
 204 0038 2C1D     		adds	r4, r5, #4
 304:Generated_Source\PSoC6/CapSense_Structure.c ****         {
 205              		.loc 1 304 0
 206 003a 0123     		movs	r3, #1
 207 003c 0CE0     		b	.L17
 208              	.LVL15:
 209              	.L20:
 306:Generated_Source\PSoC6/CapSense_Structure.c **** 
 210              		.loc 1 306 0
 211 003e A168     		ldr	r1, [r4, #8]
 212              	.LVL16:
 308:Generated_Source\PSoC6/CapSense_Structure.c ****             {
 213              		.loc 1 308 0
 214 0040 238B     		ldrh	r3, [r4, #24]
 215              	.LVL17:
 216 0042 04E0     		b	.L18
 217              	.LVL18:
 218              	.L19:
 310:Generated_Source\PSoC6/CapSense_Structure.c ****                 ptrIdacInit++;
 219              		.loc 1 310 0
 220 0044 1378     		ldrb	r3, [r2]
 221 0046 4B72     		strb	r3, [r1, #9]
 311:Generated_Source\PSoC6/CapSense_Structure.c **** 
 222              		.loc 1 311 0
 223 0048 0132     		adds	r2, r2, #1
 224              	.LVL19:
 321:Generated_Source\PSoC6/CapSense_Structure.c ****             }
 225              		.loc 1 321 0
 226 004a 0A31     		adds	r1, r1, #10
 227              	.LVL20:
 308:Generated_Source\PSoC6/CapSense_Structure.c ****             {
 228              		.loc 1 308 0
 229 004c 0300     		movs	r3, r0
 230              	.LVL21:
 231              	.L18:
 308:Generated_Source\PSoC6/CapSense_Structure.c ****             {
 232              		.loc 1 308 0 is_stmt 0 discriminator 1
 233 004e 581E     		subs	r0, r3, #1
 234              	.LVL22:
 235 0050 002B     		cmp	r3, #0
 236 0052 F7D1     		bne	.L19
 324:Generated_Source\PSoC6/CapSense_Structure.c ****         }
 237              		.loc 1 324 0 is_stmt 1
 238 0054 1C34     		adds	r4, r4, #28
 239              	.LVL23:
 304:Generated_Source\PSoC6/CapSense_Structure.c ****         {
ARM GAS  C:\Users\Rolf\AppData\Local\Temp\ccuXc8Yq.s 			page 15


 240              		.loc 1 304 0
 241 0056 2B00     		movs	r3, r5
 242              	.LVL24:
 243              	.L17:
 304:Generated_Source\PSoC6/CapSense_Structure.c ****         {
 244              		.loc 1 304 0 is_stmt 0 discriminator 1
 245 0058 5D1E     		subs	r5, r3, #1
 246              	.LVL25:
 247 005a 002B     		cmp	r3, #0
 248 005c EFD1     		bne	.L20
 355:Generated_Source\PSoC6/CapSense_Structure.c **** 
 249              		.loc 1 355 0 is_stmt 1
 250              		@ sp needed
 251              	.LVL26:
 252              	.LVL27:
 253 005e 70BD     		pop	{r4, r5, r6, pc}
 254              	.L22:
 255              		.align	2
 256              	.L21:
 257 0060 00000000 		.word	CapSense_dsRam
 258 0064 5A500000 		.word	20570
 259 0068 00000000 		.word	.LANCHOR0
 260              		.cfi_endproc
 261              	.LFE45:
 262              		.size	CapSense_DsInitialize, .-CapSense_DsInitialize
 263              		.section	.text.CapSense_GetParam,"ax",%progbits
 264              		.align	2
 265              		.global	CapSense_GetParam
 266              		.code	16
 267              		.thumb_func
 268              		.type	CapSense_GetParam, %function
 269              	CapSense_GetParam:
 270              	.LFB47:
 535:Generated_Source\PSoC6/CapSense_Structure.c **** 
 536:Generated_Source\PSoC6/CapSense_Structure.c **** /*******************************************************************************
 537:Generated_Source\PSoC6/CapSense_Structure.c **** * Function Name: CapSense_GetParam
 538:Generated_Source\PSoC6/CapSense_Structure.c **** ****************************************************************************//**
 539:Generated_Source\PSoC6/CapSense_Structure.c **** *
 540:Generated_Source\PSoC6/CapSense_Structure.c **** * \brief
 541:Generated_Source\PSoC6/CapSense_Structure.c **** *  Gets the specified parameter value from the \ref group_structures.
 542:Generated_Source\PSoC6/CapSense_Structure.c **** *
 543:Generated_Source\PSoC6/CapSense_Structure.c **** * \details
 544:Generated_Source\PSoC6/CapSense_Structure.c **** *  This function gets the value of the specified parameter by the paramId
 545:Generated_Source\PSoC6/CapSense_Structure.c **** *  argument. The paramId for each register is available in the
 546:Generated_Source\PSoC6/CapSense_Structure.c **** *  CapSense RegisterMap header file as
 547:Generated_Source\PSoC6/CapSense_Structure.c **** *  CapSense_<ParameterName>_PARAM_ID. The paramId is a special
 548:Generated_Source\PSoC6/CapSense_Structure.c **** *  enumerated value generated by the customizer. The format of paramId is as
 549:Generated_Source\PSoC6/CapSense_Structure.c **** *  follows:
 550:Generated_Source\PSoC6/CapSense_Structure.c **** *    1. [ byte 3 byte 2 byte 1 byte 0 ]
 551:Generated_Source\PSoC6/CapSense_Structure.c **** *    2. [ TTWFCCCC UIIIIIII MMMMMMMM LLLLLLLL ]
 552:Generated_Source\PSoC6/CapSense_Structure.c **** *    3. T - encodes the parameter type:
 553:Generated_Source\PSoC6/CapSense_Structure.c **** *      - 01b: uint8
 554:Generated_Source\PSoC6/CapSense_Structure.c **** *      - 10b: uint16
 555:Generated_Source\PSoC6/CapSense_Structure.c **** *      - 11b: uint32
 556:Generated_Source\PSoC6/CapSense_Structure.c **** *    4. W - indicates whether the parameter is writable:
 557:Generated_Source\PSoC6/CapSense_Structure.c **** *      - 0: ReadOnly
 558:Generated_Source\PSoC6/CapSense_Structure.c **** *      - 1: Read/Write
ARM GAS  C:\Users\Rolf\AppData\Local\Temp\ccuXc8Yq.s 			page 16


 559:Generated_Source\PSoC6/CapSense_Structure.c **** *    5. C - 4 bit CRC (X^3 + 1) of the whole paramId word, the C bits are
 560:Generated_Source\PSoC6/CapSense_Structure.c **** *       filled with 0s when the CRC is calculated.
 561:Generated_Source\PSoC6/CapSense_Structure.c **** *    6. U - indicates if the parameter affects the RAM Widget Object CRC.
 562:Generated_Source\PSoC6/CapSense_Structure.c **** *    7. I - specifies that the widgetId parameter belongs to
 563:Generated_Source\PSoC6/CapSense_Structure.c **** *    8. M,L - the parameter offset MSB and LSB accordingly in:
 564:Generated_Source\PSoC6/CapSense_Structure.c **** *      - Flash Data Structure if W bit is 0.
 565:Generated_Source\PSoC6/CapSense_Structure.c **** *      - RAM Data Structure if W bit is 1.
 566:Generated_Source\PSoC6/CapSense_Structure.c **** *
 567:Generated_Source\PSoC6/CapSense_Structure.c **** *  Refer to the \ref group_structures section for details of the data structure
 568:Generated_Source\PSoC6/CapSense_Structure.c **** *  organization and examples of its register access.
 569:Generated_Source\PSoC6/CapSense_Structure.c **** *
 570:Generated_Source\PSoC6/CapSense_Structure.c **** * \param paramId
 571:Generated_Source\PSoC6/CapSense_Structure.c **** *  Specifies the ID of parameter to get its value.
 572:Generated_Source\PSoC6/CapSense_Structure.c **** *  A macro for the parameter ID can be found in the CapSense RegisterMap header
 573:Generated_Source\PSoC6/CapSense_Structure.c **** *  file defined as CapSense_<ParameterName>_PARAM_ID.
 574:Generated_Source\PSoC6/CapSense_Structure.c **** *
 575:Generated_Source\PSoC6/CapSense_Structure.c **** * \param  value
 576:Generated_Source\PSoC6/CapSense_Structure.c **** *  The pointer to a variable to be updated with the obtained value.
 577:Generated_Source\PSoC6/CapSense_Structure.c **** *
 578:Generated_Source\PSoC6/CapSense_Structure.c **** * \return
 579:Generated_Source\PSoC6/CapSense_Structure.c **** *  Returns the status of the operation:
 580:Generated_Source\PSoC6/CapSense_Structure.c **** *    - CY_RET_SUCCESS - The operation is successfully completed.
 581:Generated_Source\PSoC6/CapSense_Structure.c **** *    - CY_RET_BAD_PARAM - The input parameter is invalid.
 582:Generated_Source\PSoC6/CapSense_Structure.c **** *
 583:Generated_Source\PSoC6/CapSense_Structure.c **** *******************************************************************************/
 584:Generated_Source\PSoC6/CapSense_Structure.c **** cy_status CapSense_GetParam(uint32 paramId, uint32 *value)
 585:Generated_Source\PSoC6/CapSense_Structure.c **** {
 271              		.loc 1 585 0
 272              		.cfi_startproc
 273              		@ args = 0, pretend = 0, frame = 8
 274              		@ frame_needed = 0, uses_anonymous_args = 0
 275              	.LVL28:
 276 0000 30B5     		push	{r4, r5, lr}
 277              		.cfi_def_cfa_offset 12
 278              		.cfi_offset 4, -12
 279              		.cfi_offset 5, -8
 280              		.cfi_offset 14, -4
 281 0002 83B0     		sub	sp, sp, #12
 282              		.cfi_def_cfa_offset 24
 283 0004 0D00     		movs	r5, r1
 586:Generated_Source\PSoC6/CapSense_Structure.c ****     PARAM_ID_STRUCT pData;
 587:Generated_Source\PSoC6/CapSense_Structure.c ****     cy_status result;
 588:Generated_Source\PSoC6/CapSense_Structure.c **** 
 589:Generated_Source\PSoC6/CapSense_Structure.c ****     union
 590:Generated_Source\PSoC6/CapSense_Structure.c ****     {
 591:Generated_Source\PSoC6/CapSense_Structure.c ****         volatile void   const * ptr;
 592:Generated_Source\PSoC6/CapSense_Structure.c ****         volatile uint8  const * ptrUint8;
 593:Generated_Source\PSoC6/CapSense_Structure.c ****         volatile uint16 const * ptrUint16;
 594:Generated_Source\PSoC6/CapSense_Structure.c ****         volatile uint32 const * ptrUint32;
 595:Generated_Source\PSoC6/CapSense_Structure.c ****     } ptrData;
 596:Generated_Source\PSoC6/CapSense_Structure.c **** 
 597:Generated_Source\PSoC6/CapSense_Structure.c ****     result = DsParseParamId(paramId, &pData);
 284              		.loc 1 597 0
 285 0006 6946     		mov	r1, sp
 286              	.LVL29:
 287 0008 FFF7FEFF 		bl	DsParseParamId
 288              	.LVL30:
ARM GAS  C:\Users\Rolf\AppData\Local\Temp\ccuXc8Yq.s 			page 17


 289 000c 041E     		subs	r4, r0, #0
 290              	.LVL31:
 598:Generated_Source\PSoC6/CapSense_Structure.c **** 
 599:Generated_Source\PSoC6/CapSense_Structure.c ****     /* Parse and validate paramId */
 600:Generated_Source\PSoC6/CapSense_Structure.c ****     if (CY_RET_SUCCESS == result)
 291              		.loc 1 600 0
 292 000e 1FD1     		bne	.L24
 601:Generated_Source\PSoC6/CapSense_Structure.c ****     {
 602:Generated_Source\PSoC6/CapSense_Structure.c ****         /* Get base address of parameter */
 603:Generated_Source\PSoC6/CapSense_Structure.c ****         if (0u == pData.flash)
 293              		.loc 1 603 0
 294 0010 6B46     		mov	r3, sp
 295 0012 5B79     		ldrb	r3, [r3, #5]
 296 0014 002B     		cmp	r3, #0
 297 0016 01D1     		bne	.L25
 604:Generated_Source\PSoC6/CapSense_Structure.c ****         {
 605:Generated_Source\PSoC6/CapSense_Structure.c ****             ptrData.ptr = &CapSense_dsRam;
 298              		.loc 1 605 0
 299 0018 0F4A     		ldr	r2, .L30
 300              	.LVL32:
 301 001a 01E0     		b	.L26
 302              	.L25:
 606:Generated_Source\PSoC6/CapSense_Structure.c ****         }
 607:Generated_Source\PSoC6/CapSense_Structure.c ****         else
 608:Generated_Source\PSoC6/CapSense_Structure.c ****         {
 609:Generated_Source\PSoC6/CapSense_Structure.c ****             ptrData.ptr = &CapSense_dsFlash;
 303              		.loc 1 609 0
 304 001c 0F4B     		ldr	r3, .L30+4
 305 001e 1A1D     		adds	r2, r3, #4
 306              	.L26:
 610:Generated_Source\PSoC6/CapSense_Structure.c ****         }
 611:Generated_Source\PSoC6/CapSense_Structure.c **** 
 612:Generated_Source\PSoC6/CapSense_Structure.c ****         /* Add offset to base address */
 613:Generated_Source\PSoC6/CapSense_Structure.c ****         ptrData.ptrUint8 += pData.offset;
 307              		.loc 1 613 0
 308 0020 6B46     		mov	r3, sp
 309 0022 1B88     		ldrh	r3, [r3]
 310              	.LVL33:
 311 0024 D318     		adds	r3, r2, r3
 614:Generated_Source\PSoC6/CapSense_Structure.c **** 
 615:Generated_Source\PSoC6/CapSense_Structure.c ****         /* Read data */
 616:Generated_Source\PSoC6/CapSense_Structure.c ****         if (DS_PARAM_TYPE_UINT8 == pData.type)
 312              		.loc 1 616 0
 313 0026 6A46     		mov	r2, sp
 314              	.LVL34:
 315 0028 D279     		ldrb	r2, [r2, #7]
 316 002a 012A     		cmp	r2, #1
 317 002c 02D1     		bne	.L27
 617:Generated_Source\PSoC6/CapSense_Structure.c ****         {
 618:Generated_Source\PSoC6/CapSense_Structure.c ****             *value = (uint32) (*ptrData.ptrUint8);
 318              		.loc 1 618 0
 319 002e 1B78     		ldrb	r3, [r3]
 320 0030 2B60     		str	r3, [r5]
 321 0032 0DE0     		b	.L24
 322              	.L27:
 619:Generated_Source\PSoC6/CapSense_Structure.c ****         }
 620:Generated_Source\PSoC6/CapSense_Structure.c ****         else if (DS_PARAM_TYPE_UINT16 == pData.type)
ARM GAS  C:\Users\Rolf\AppData\Local\Temp\ccuXc8Yq.s 			page 18


 323              		.loc 1 620 0
 324 0034 022A     		cmp	r2, #2
 325 0036 02D1     		bne	.L28
 621:Generated_Source\PSoC6/CapSense_Structure.c ****         {
 622:Generated_Source\PSoC6/CapSense_Structure.c ****             *value = (uint32) (*ptrData.ptrUint16);
 326              		.loc 1 622 0
 327 0038 1B88     		ldrh	r3, [r3]
 328 003a 2B60     		str	r3, [r5]
 329 003c 08E0     		b	.L24
 330              	.L28:
 623:Generated_Source\PSoC6/CapSense_Structure.c ****         }
 624:Generated_Source\PSoC6/CapSense_Structure.c ****         else if (DS_PARAM_TYPE_UINT32 == pData.type)
 331              		.loc 1 624 0
 332 003e 032A     		cmp	r2, #3
 333 0040 02D1     		bne	.L29
 625:Generated_Source\PSoC6/CapSense_Structure.c ****         {
 626:Generated_Source\PSoC6/CapSense_Structure.c ****             *value = *ptrData.ptrUint32;
 334              		.loc 1 626 0
 335 0042 1B68     		ldr	r3, [r3]
 336 0044 2B60     		str	r3, [r5]
 337 0046 03E0     		b	.L24
 338              	.L29:
 627:Generated_Source\PSoC6/CapSense_Structure.c ****         }
 628:Generated_Source\PSoC6/CapSense_Structure.c ****         else
 629:Generated_Source\PSoC6/CapSense_Structure.c ****         {
 630:Generated_Source\PSoC6/CapSense_Structure.c ****             /* Parameter comes here already validated. */
 631:Generated_Source\PSoC6/CapSense_Structure.c ****             CY_ASSERT(0 != 0);
 339              		.loc 1 631 0 discriminator 1
 340 0048 0549     		ldr	r1, .L30+8
 341 004a 0648     		ldr	r0, .L30+12
 342              	.LVL35:
 343 004c FFF7FEFF 		bl	Cy_SysLib_AssertFailed
 344              	.LVL36:
 345              	.L24:
 632:Generated_Source\PSoC6/CapSense_Structure.c ****         }
 633:Generated_Source\PSoC6/CapSense_Structure.c ****     }
 634:Generated_Source\PSoC6/CapSense_Structure.c **** 
 635:Generated_Source\PSoC6/CapSense_Structure.c ****     return result;
 636:Generated_Source\PSoC6/CapSense_Structure.c **** }
 346              		.loc 1 636 0
 347 0050 2000     		movs	r0, r4
 348 0052 03B0     		add	sp, sp, #12
 349              		@ sp needed
 350              	.LVL37:
 351              	.LVL38:
 352 0054 30BD     		pop	{r4, r5, pc}
 353              	.L31:
 354 0056 C046     		.align	2
 355              	.L30:
 356 0058 00000000 		.word	CapSense_dsRam
 357 005c 00000000 		.word	.LANCHOR0
 358 0060 77020000 		.word	631
 359 0064 00000000 		.word	.LC6
 360              		.cfi_endproc
 361              	.LFE47:
 362              		.size	CapSense_GetParam, .-CapSense_GetParam
 363              		.section	.text.CapSense_SetParam,"ax",%progbits
ARM GAS  C:\Users\Rolf\AppData\Local\Temp\ccuXc8Yq.s 			page 19


 364              		.align	2
 365              		.global	CapSense_SetParam
 366              		.code	16
 367              		.thumb_func
 368              		.type	CapSense_SetParam, %function
 369              	CapSense_SetParam:
 370              	.LFB48:
 637:Generated_Source\PSoC6/CapSense_Structure.c **** 
 638:Generated_Source\PSoC6/CapSense_Structure.c **** 
 639:Generated_Source\PSoC6/CapSense_Structure.c **** /*******************************************************************************
 640:Generated_Source\PSoC6/CapSense_Structure.c **** * Function Name: CapSense_SetParam
 641:Generated_Source\PSoC6/CapSense_Structure.c **** ****************************************************************************//**
 642:Generated_Source\PSoC6/CapSense_Structure.c **** *
 643:Generated_Source\PSoC6/CapSense_Structure.c **** * \brief
 644:Generated_Source\PSoC6/CapSense_Structure.c **** *  Sets a new value for the specified parameter in the \ref group_structures.
 645:Generated_Source\PSoC6/CapSense_Structure.c **** *
 646:Generated_Source\PSoC6/CapSense_Structure.c **** * \details
 647:Generated_Source\PSoC6/CapSense_Structure.c **** *  This function sets the value of the specified parameter by the paramId
 648:Generated_Source\PSoC6/CapSense_Structure.c **** *  argument. The paramId for each register is available in the
 649:Generated_Source\PSoC6/CapSense_Structure.c **** *  CapSense RegisterMap header file as
 650:Generated_Source\PSoC6/CapSense_Structure.c **** *  CapSense_<ParameterName>_PARAM_ID. The paramId is a special
 651:Generated_Source\PSoC6/CapSense_Structure.c **** *  enumerated value generated by the customizer. The format of paramId is as
 652:Generated_Source\PSoC6/CapSense_Structure.c **** *  follows:
 653:Generated_Source\PSoC6/CapSense_Structure.c **** *    1. [ byte 3 byte 2 byte 1 byte 0 ]
 654:Generated_Source\PSoC6/CapSense_Structure.c **** *    2. [ TTWFCCCC UIIIIIII MMMMMMMM LLLLLLLL ]
 655:Generated_Source\PSoC6/CapSense_Structure.c **** *    3. T - encodes the parameter type:
 656:Generated_Source\PSoC6/CapSense_Structure.c **** *      - 01b: uint8
 657:Generated_Source\PSoC6/CapSense_Structure.c **** *      - 10b: uint16
 658:Generated_Source\PSoC6/CapSense_Structure.c **** *      - 11b: uint32
 659:Generated_Source\PSoC6/CapSense_Structure.c **** *    4. W - indicates whether the parameter is writable:
 660:Generated_Source\PSoC6/CapSense_Structure.c **** *      - 0: ReadOnly
 661:Generated_Source\PSoC6/CapSense_Structure.c **** *      - 1: Read/Write
 662:Generated_Source\PSoC6/CapSense_Structure.c **** *    5. C - 4 bit CRC (X^3 + 1) of the whole paramId word, the C bits are
 663:Generated_Source\PSoC6/CapSense_Structure.c **** *       filled with 0s when the CRC is calculated.
 664:Generated_Source\PSoC6/CapSense_Structure.c **** *    6. U - indicates if the parameter affects the RAM Widget Object CRC.
 665:Generated_Source\PSoC6/CapSense_Structure.c **** *    7. I - specifies that the widgetId parameter belongs to
 666:Generated_Source\PSoC6/CapSense_Structure.c **** *    8. M,L - the parameter offset MSB and LSB accordingly in:
 667:Generated_Source\PSoC6/CapSense_Structure.c **** *      - Flash Data Structure if W bit is 0.
 668:Generated_Source\PSoC6/CapSense_Structure.c **** *      - RAM Data Structure if W bit is 1.
 669:Generated_Source\PSoC6/CapSense_Structure.c **** *
 670:Generated_Source\PSoC6/CapSense_Structure.c **** *  Refer to the \ref group_structures section for details of the data structure
 671:Generated_Source\PSoC6/CapSense_Structure.c **** *  organization and examples of its register access.
 672:Generated_Source\PSoC6/CapSense_Structure.c **** *
 673:Generated_Source\PSoC6/CapSense_Structure.c **** *  This function writes specified value into the desired register without
 674:Generated_Source\PSoC6/CapSense_Structure.c **** *  other registers update. It is application layer responsibility to keep all
 675:Generated_Source\PSoC6/CapSense_Structure.c **** *  the data structure registers aligned. Repeated call of
 676:Generated_Source\PSoC6/CapSense_Structure.c **** *  CapSense_Start() function helps aligning dependent register values.
 677:Generated_Source\PSoC6/CapSense_Structure.c **** *
 678:Generated_Source\PSoC6/CapSense_Structure.c **** * \param paramId
 679:Generated_Source\PSoC6/CapSense_Structure.c **** *  Specifies the ID of parameter to set its value.
 680:Generated_Source\PSoC6/CapSense_Structure.c **** *  A macro for the parameter ID can be found in the CapSense RegisterMap header
 681:Generated_Source\PSoC6/CapSense_Structure.c **** *  file defined as CapSense_<ParameterName>_PARAM_ID.
 682:Generated_Source\PSoC6/CapSense_Structure.c **** 
 683:Generated_Source\PSoC6/CapSense_Structure.c **** * \param value
 684:Generated_Source\PSoC6/CapSense_Structure.c **** *  Specifies the new parameter's value.
 685:Generated_Source\PSoC6/CapSense_Structure.c **** *
 686:Generated_Source\PSoC6/CapSense_Structure.c **** * \return
ARM GAS  C:\Users\Rolf\AppData\Local\Temp\ccuXc8Yq.s 			page 20


 687:Generated_Source\PSoC6/CapSense_Structure.c **** *  Returns the status of the operation:
 688:Generated_Source\PSoC6/CapSense_Structure.c **** *    - CY_RET_SUCCESS - The operation is successfully completed.
 689:Generated_Source\PSoC6/CapSense_Structure.c **** *    - CY_RET_BAD_PARAM - The input parameter is invalid.
 690:Generated_Source\PSoC6/CapSense_Structure.c **** *
 691:Generated_Source\PSoC6/CapSense_Structure.c **** *******************************************************************************/
 692:Generated_Source\PSoC6/CapSense_Structure.c **** cy_status CapSense_SetParam(uint32 paramId, uint32 value)
 693:Generated_Source\PSoC6/CapSense_Structure.c **** {
 371              		.loc 1 693 0
 372              		.cfi_startproc
 373              		@ args = 0, pretend = 0, frame = 8
 374              		@ frame_needed = 0, uses_anonymous_args = 0
 375              	.LVL39:
 376 0000 30B5     		push	{r4, r5, lr}
 377              		.cfi_def_cfa_offset 12
 378              		.cfi_offset 4, -12
 379              		.cfi_offset 5, -8
 380              		.cfi_offset 14, -4
 381 0002 83B0     		sub	sp, sp, #12
 382              		.cfi_def_cfa_offset 24
 383 0004 0D00     		movs	r5, r1
 694:Generated_Source\PSoC6/CapSense_Structure.c ****     cy_status result;
 695:Generated_Source\PSoC6/CapSense_Structure.c ****     PARAM_ID_STRUCT pData;
 696:Generated_Source\PSoC6/CapSense_Structure.c **** 
 697:Generated_Source\PSoC6/CapSense_Structure.c ****     union
 698:Generated_Source\PSoC6/CapSense_Structure.c ****     {
 699:Generated_Source\PSoC6/CapSense_Structure.c ****         volatile void   * ptr;
 700:Generated_Source\PSoC6/CapSense_Structure.c ****         volatile uint8  * ptrUint8;
 701:Generated_Source\PSoC6/CapSense_Structure.c ****         volatile uint16 * ptrUint16;
 702:Generated_Source\PSoC6/CapSense_Structure.c ****         volatile uint32 * ptrUint32;
 703:Generated_Source\PSoC6/CapSense_Structure.c ****     } ptrData;
 704:Generated_Source\PSoC6/CapSense_Structure.c **** 
 705:Generated_Source\PSoC6/CapSense_Structure.c ****     result = DsParseParamId(paramId, &pData);
 384              		.loc 1 705 0
 385 0006 6946     		mov	r1, sp
 386              	.LVL40:
 387 0008 FFF7FEFF 		bl	DsParseParamId
 388              	.LVL41:
 389 000c 041E     		subs	r4, r0, #0
 390              	.LVL42:
 706:Generated_Source\PSoC6/CapSense_Structure.c **** 
 707:Generated_Source\PSoC6/CapSense_Structure.c ****     /* verify if parameter is writable */
 708:Generated_Source\PSoC6/CapSense_Structure.c ****     if (CY_RET_SUCCESS == result)
 391              		.loc 1 708 0
 392 000e 04D1     		bne	.L33
 709:Generated_Source\PSoC6/CapSense_Structure.c ****     {
 710:Generated_Source\PSoC6/CapSense_Structure.c ****         if (0u == pData.rw)
 393              		.loc 1 710 0
 394 0010 6B46     		mov	r3, sp
 395 0012 9B79     		ldrb	r3, [r3, #6]
 396 0014 002B     		cmp	r3, #0
 397 0016 00D1     		bne	.L33
 711:Generated_Source\PSoC6/CapSense_Structure.c ****         {
 712:Generated_Source\PSoC6/CapSense_Structure.c ****             result = CY_RET_BAD_PARAM;
 398              		.loc 1 712 0
 399 0018 0134     		adds	r4, r4, #1
 400              	.L33:
 401              	.LVL43:
ARM GAS  C:\Users\Rolf\AppData\Local\Temp\ccuXc8Yq.s 			page 21


 713:Generated_Source\PSoC6/CapSense_Structure.c ****         }
 714:Generated_Source\PSoC6/CapSense_Structure.c ****     }
 715:Generated_Source\PSoC6/CapSense_Structure.c **** 
 716:Generated_Source\PSoC6/CapSense_Structure.c ****     /* Parse and validate paramId */
 717:Generated_Source\PSoC6/CapSense_Structure.c ****     if (CY_RET_SUCCESS == result)
 402              		.loc 1 717 0
 403 001a 002C     		cmp	r4, #0
 404 001c 17D1     		bne	.L34
 718:Generated_Source\PSoC6/CapSense_Structure.c ****     {
 719:Generated_Source\PSoC6/CapSense_Structure.c ****         /* Get base address of parameter */
 720:Generated_Source\PSoC6/CapSense_Structure.c ****         ptrData.ptr = &CapSense_dsRam;
 721:Generated_Source\PSoC6/CapSense_Structure.c **** 
 722:Generated_Source\PSoC6/CapSense_Structure.c ****         /* Add offset to base address */
 723:Generated_Source\PSoC6/CapSense_Structure.c ****         ptrData.ptrUint8 += pData.offset;
 405              		.loc 1 723 0
 406 001e 6B46     		mov	r3, sp
 407 0020 1A88     		ldrh	r2, [r3]
 408 0022 0C4B     		ldr	r3, .L39
 409 0024 D318     		adds	r3, r2, r3
 724:Generated_Source\PSoC6/CapSense_Structure.c **** 
 725:Generated_Source\PSoC6/CapSense_Structure.c ****         /* Write data */
 726:Generated_Source\PSoC6/CapSense_Structure.c ****         if (DS_PARAM_TYPE_UINT8 == pData.type)
 410              		.loc 1 726 0
 411 0026 6A46     		mov	r2, sp
 412 0028 D279     		ldrb	r2, [r2, #7]
 413 002a 012A     		cmp	r2, #1
 414 002c 02D1     		bne	.L35
 727:Generated_Source\PSoC6/CapSense_Structure.c ****         {
 728:Generated_Source\PSoC6/CapSense_Structure.c ****             *ptrData.ptrUint8 = CY_LO8(value);
 415              		.loc 1 728 0
 416 002e EDB2     		uxtb	r5, r5
 417              	.LVL44:
 418 0030 1D70     		strb	r5, [r3]
 419 0032 0CE0     		b	.L34
 420              	.LVL45:
 421              	.L35:
 729:Generated_Source\PSoC6/CapSense_Structure.c ****         }
 730:Generated_Source\PSoC6/CapSense_Structure.c ****         else if (DS_PARAM_TYPE_UINT16 == pData.type)
 422              		.loc 1 730 0
 423 0034 022A     		cmp	r2, #2
 424 0036 02D1     		bne	.L36
 731:Generated_Source\PSoC6/CapSense_Structure.c ****         {
 732:Generated_Source\PSoC6/CapSense_Structure.c ****             *ptrData.ptrUint16 = CY_LO16(value);
 425              		.loc 1 732 0
 426 0038 ADB2     		uxth	r5, r5
 427              	.LVL46:
 428 003a 1D80     		strh	r5, [r3]
 429 003c 07E0     		b	.L34
 430              	.LVL47:
 431              	.L36:
 733:Generated_Source\PSoC6/CapSense_Structure.c ****         }
 734:Generated_Source\PSoC6/CapSense_Structure.c ****         else if (DS_PARAM_TYPE_UINT32 == pData.type)
 432              		.loc 1 734 0
 433 003e 032A     		cmp	r2, #3
 434 0040 01D1     		bne	.L37
 735:Generated_Source\PSoC6/CapSense_Structure.c ****         {
 736:Generated_Source\PSoC6/CapSense_Structure.c ****             *ptrData.ptrUint32 = value;
ARM GAS  C:\Users\Rolf\AppData\Local\Temp\ccuXc8Yq.s 			page 22


 435              		.loc 1 736 0
 436 0042 1D60     		str	r5, [r3]
 437 0044 03E0     		b	.L34
 438              	.L37:
 737:Generated_Source\PSoC6/CapSense_Structure.c ****         }
 738:Generated_Source\PSoC6/CapSense_Structure.c ****         else
 739:Generated_Source\PSoC6/CapSense_Structure.c ****         {
 740:Generated_Source\PSoC6/CapSense_Structure.c ****             /* Parameter comes here already validated. */
 741:Generated_Source\PSoC6/CapSense_Structure.c ****             CY_ASSERT(0 != 0);
 439              		.loc 1 741 0 discriminator 1
 440 0046 0449     		ldr	r1, .L39+4
 441 0048 0448     		ldr	r0, .L39+8
 442 004a FFF7FEFF 		bl	Cy_SysLib_AssertFailed
 443              	.LVL48:
 444              	.L34:
 742:Generated_Source\PSoC6/CapSense_Structure.c ****         }
 743:Generated_Source\PSoC6/CapSense_Structure.c **** 
 744:Generated_Source\PSoC6/CapSense_Structure.c ****         #if (CapSense_ENABLE == (CapSense_TST_WDGT_CRC_EN || CapSense_TST_GLOBAL_CRC_EN))
 745:Generated_Source\PSoC6/CapSense_Structure.c ****             /* Update widget or global CRC if self-test is enabled and parameter affects it */
 746:Generated_Source\PSoC6/CapSense_Structure.c ****             if (0u != pData.affectsCrc)
 747:Generated_Source\PSoC6/CapSense_Structure.c ****             {
 748:Generated_Source\PSoC6/CapSense_Structure.c ****                 if ((ptrData.ptrUint16 >= &CapSense_dsRam.csd0Config) &&
 749:Generated_Source\PSoC6/CapSense_Structure.c ****                     (ptrData.ptrUint16 <  &CapSense_dsRam.glbCrc))
 750:Generated_Source\PSoC6/CapSense_Structure.c ****                 {
 751:Generated_Source\PSoC6/CapSense_Structure.c **** 
 752:Generated_Source\PSoC6/CapSense_Structure.c ****                     #if (CapSense_ENABLE == CapSense_TST_GLOBAL_CRC_EN)
 753:Generated_Source\PSoC6/CapSense_Structure.c ****                         CapSense_DsUpdateGlobalCrc();
 754:Generated_Source\PSoC6/CapSense_Structure.c ****                     #endif /* (CapSense_ENABLE == CapSense_TST_GLOBAL_CRC_EN) */
 755:Generated_Source\PSoC6/CapSense_Structure.c **** 
 756:Generated_Source\PSoC6/CapSense_Structure.c ****                 }
 757:Generated_Source\PSoC6/CapSense_Structure.c ****                 else
 758:Generated_Source\PSoC6/CapSense_Structure.c ****                 {
 759:Generated_Source\PSoC6/CapSense_Structure.c ****                     #if (CapSense_ENABLE == CapSense_TST_WDGT_CRC_EN)
 760:Generated_Source\PSoC6/CapSense_Structure.c ****                         CapSense_DsUpdateWidgetCrc((uint32)pData.widgetId);
 761:Generated_Source\PSoC6/CapSense_Structure.c ****                     #endif /* (CapSense_ENABLE == CapSense_TST_WDGT_CRC_EN) */
 762:Generated_Source\PSoC6/CapSense_Structure.c ****                 }
 763:Generated_Source\PSoC6/CapSense_Structure.c ****             }
 764:Generated_Source\PSoC6/CapSense_Structure.c ****         #endif /* (CapSense_ENABLE == (CapSense_TST_WDGT_CRC_EN || CapSense_TST_GLOBAL_CRC_EN)) */
 765:Generated_Source\PSoC6/CapSense_Structure.c ****     }
 766:Generated_Source\PSoC6/CapSense_Structure.c **** 
 767:Generated_Source\PSoC6/CapSense_Structure.c ****     return result;
 768:Generated_Source\PSoC6/CapSense_Structure.c **** }
 445              		.loc 1 768 0
 446 004e 2000     		movs	r0, r4
 447 0050 03B0     		add	sp, sp, #12
 448              		@ sp needed
 449              	.LVL49:
 450 0052 30BD     		pop	{r4, r5, pc}
 451              	.L40:
 452              		.align	2
 453              	.L39:
 454 0054 00000000 		.word	CapSense_dsRam
 455 0058 E5020000 		.word	741
 456 005c 00000000 		.word	.LC6
 457              		.cfi_endproc
 458              	.LFE48:
 459              		.size	CapSense_SetParam, .-CapSense_SetParam
ARM GAS  C:\Users\Rolf\AppData\Local\Temp\ccuXc8Yq.s 			page 23


 460              		.section	.text.CapSense_IsAnyWidgetActive,"ax",%progbits
 461              		.align	2
 462              		.global	CapSense_IsAnyWidgetActive
 463              		.code	16
 464              		.thumb_func
 465              		.type	CapSense_IsAnyWidgetActive, %function
 466              	CapSense_IsAnyWidgetActive:
 467              	.LFB49:
 769:Generated_Source\PSoC6/CapSense_Structure.c **** 
 770:Generated_Source\PSoC6/CapSense_Structure.c **** /*******************************************************************************
 771:Generated_Source\PSoC6/CapSense_Structure.c **** * Function Name: CapSense_IsAnyWidgetActive
 772:Generated_Source\PSoC6/CapSense_Structure.c **** ****************************************************************************//**
 773:Generated_Source\PSoC6/CapSense_Structure.c **** *
 774:Generated_Source\PSoC6/CapSense_Structure.c **** * \brief
 775:Generated_Source\PSoC6/CapSense_Structure.c **** *  Reports if any widget has detected a touch.
 776:Generated_Source\PSoC6/CapSense_Structure.c **** *
 777:Generated_Source\PSoC6/CapSense_Structure.c **** * \details
 778:Generated_Source\PSoC6/CapSense_Structure.c **** *  This function reports if any widget has detected a touch or not by extracting
 779:Generated_Source\PSoC6/CapSense_Structure.c **** *  information from the wdgtStatus registers
 780:Generated_Source\PSoC6/CapSense_Structure.c **** *  (CapSense_WDGT_STATUS<X>_VALUE). This function does not process a
 781:Generated_Source\PSoC6/CapSense_Structure.c **** *  widget but extracts processed results from the \ref group_structures.
 782:Generated_Source\PSoC6/CapSense_Structure.c **** *
 783:Generated_Source\PSoC6/CapSense_Structure.c **** * \return
 784:Generated_Source\PSoC6/CapSense_Structure.c **** *   Returns the touch detection status of all the widgets:
 785:Generated_Source\PSoC6/CapSense_Structure.c **** *     - Zero - No touch is detected in all the widgets or sensors.
 786:Generated_Source\PSoC6/CapSense_Structure.c **** *     - Non-zero - At least one widget or sensor detected a touch.
 787:Generated_Source\PSoC6/CapSense_Structure.c **** *
 788:Generated_Source\PSoC6/CapSense_Structure.c **** *******************************************************************************/
 789:Generated_Source\PSoC6/CapSense_Structure.c **** uint32 CapSense_IsAnyWidgetActive(void)
 790:Generated_Source\PSoC6/CapSense_Structure.c **** {
 468              		.loc 1 790 0
 469              		.cfi_startproc
 470              		@ args = 0, pretend = 0, frame = 0
 471              		@ frame_needed = 0, uses_anonymous_args = 0
 472              		@ link register save eliminated.
 473              	.LVL50:
 791:Generated_Source\PSoC6/CapSense_Structure.c ****     uint32 result = 0Lu;
 792:Generated_Source\PSoC6/CapSense_Structure.c ****     uint32 wdWord;
 793:Generated_Source\PSoC6/CapSense_Structure.c **** 
 794:Generated_Source\PSoC6/CapSense_Structure.c ****     for (wdWord = CapSense_WDGT_STATUS_WORDS; wdWord-- > 0u;)
 474              		.loc 1 794 0
 475 0000 0123     		movs	r3, #1
 791:Generated_Source\PSoC6/CapSense_Structure.c ****     uint32 result = 0Lu;
 476              		.loc 1 791 0
 477 0002 0020     		movs	r0, #0
 478              		.loc 1 794 0
 479 0004 06E0     		b	.L42
 480              	.LVL51:
 481              	.L43:
 795:Generated_Source\PSoC6/CapSense_Structure.c ****     {
 796:Generated_Source\PSoC6/CapSense_Structure.c ****         result |= CapSense_dsRam.wdgtStatus[wdWord];
 482              		.loc 1 796 0
 483 0006 131D     		adds	r3, r2, #4
 484 0008 9B00     		lsls	r3, r3, #2
 485 000a 0449     		ldr	r1, .L44
 486 000c CB18     		adds	r3, r1, r3
 487 000e 5B68     		ldr	r3, [r3, #4]
ARM GAS  C:\Users\Rolf\AppData\Local\Temp\ccuXc8Yq.s 			page 24


 488 0010 1843     		orrs	r0, r3
 489              	.LVL52:
 794:Generated_Source\PSoC6/CapSense_Structure.c ****     {
 490              		.loc 1 794 0
 491 0012 1300     		movs	r3, r2
 492              	.LVL53:
 493              	.L42:
 794:Generated_Source\PSoC6/CapSense_Structure.c ****     {
 494              		.loc 1 794 0 is_stmt 0 discriminator 1
 495 0014 5A1E     		subs	r2, r3, #1
 496              	.LVL54:
 497 0016 002B     		cmp	r3, #0
 498 0018 F5D1     		bne	.L43
 797:Generated_Source\PSoC6/CapSense_Structure.c ****     }
 798:Generated_Source\PSoC6/CapSense_Structure.c **** 
 799:Generated_Source\PSoC6/CapSense_Structure.c ****     return result;
 800:Generated_Source\PSoC6/CapSense_Structure.c **** }
 499              		.loc 1 800 0 is_stmt 1
 500              		@ sp needed
 501 001a 7047     		bx	lr
 502              	.L45:
 503              		.align	2
 504              	.L44:
 505 001c 00000000 		.word	CapSense_dsRam
 506              		.cfi_endproc
 507              	.LFE49:
 508              		.size	CapSense_IsAnyWidgetActive, .-CapSense_IsAnyWidgetActive
 509              		.section	.text.CapSense_IsWidgetActive,"ax",%progbits
 510              		.align	2
 511              		.global	CapSense_IsWidgetActive
 512              		.code	16
 513              		.thumb_func
 514              		.type	CapSense_IsWidgetActive, %function
 515              	CapSense_IsWidgetActive:
 516              	.LFB50:
 801:Generated_Source\PSoC6/CapSense_Structure.c **** 
 802:Generated_Source\PSoC6/CapSense_Structure.c **** 
 803:Generated_Source\PSoC6/CapSense_Structure.c **** /*******************************************************************************
 804:Generated_Source\PSoC6/CapSense_Structure.c **** * Function Name: CapSense_IsWidgetActive
 805:Generated_Source\PSoC6/CapSense_Structure.c **** ****************************************************************************//**
 806:Generated_Source\PSoC6/CapSense_Structure.c **** *
 807:Generated_Source\PSoC6/CapSense_Structure.c **** * \brief
 808:Generated_Source\PSoC6/CapSense_Structure.c **** *  Reports if the specified widget detects a touch on any of its sensors.
 809:Generated_Source\PSoC6/CapSense_Structure.c **** *
 810:Generated_Source\PSoC6/CapSense_Structure.c **** * \details
 811:Generated_Source\PSoC6/CapSense_Structure.c **** *  This function reports if the specified widget has detected a touch or not by
 812:Generated_Source\PSoC6/CapSense_Structure.c **** *  extracting information from the wdgtStatus registers
 813:Generated_Source\PSoC6/CapSense_Structure.c **** *  (CapSense_WDGT_STATUS<X>_VALUE). This function does not process the
 814:Generated_Source\PSoC6/CapSense_Structure.c **** *  widget but extracts processed results from the \ref group_structures.
 815:Generated_Source\PSoC6/CapSense_Structure.c **** *
 816:Generated_Source\PSoC6/CapSense_Structure.c **** * \param widgetId
 817:Generated_Source\PSoC6/CapSense_Structure.c **** *  Specifies the ID number of the widget to get its status.
 818:Generated_Source\PSoC6/CapSense_Structure.c **** *  A macro for the widget ID can be found in the CapSense Configuration header
 819:Generated_Source\PSoC6/CapSense_Structure.c **** *  file defined as CapSense_<WidgetName>_WDGT_ID.
 820:Generated_Source\PSoC6/CapSense_Structure.c **** *
 821:Generated_Source\PSoC6/CapSense_Structure.c **** * \return
 822:Generated_Source\PSoC6/CapSense_Structure.c **** *  Returns the touch detection status of the specified widgets:
ARM GAS  C:\Users\Rolf\AppData\Local\Temp\ccuXc8Yq.s 			page 25


 823:Generated_Source\PSoC6/CapSense_Structure.c **** *    - Zero - No touch is detected in the specified widget or a wrong widgetId
 824:Generated_Source\PSoC6/CapSense_Structure.c **** *      is specified.
 825:Generated_Source\PSoC6/CapSense_Structure.c **** *    - Non-zero if at least one sensor of the specified widget is active, i.e.
 826:Generated_Source\PSoC6/CapSense_Structure.c **** *      a touch is detected.
 827:Generated_Source\PSoC6/CapSense_Structure.c **** *
 828:Generated_Source\PSoC6/CapSense_Structure.c **** *******************************************************************************/
 829:Generated_Source\PSoC6/CapSense_Structure.c **** uint32 CapSense_IsWidgetActive(uint32 widgetId)
 830:Generated_Source\PSoC6/CapSense_Structure.c **** {
 517              		.loc 1 830 0
 518              		.cfi_startproc
 519              		@ args = 0, pretend = 0, frame = 0
 520              		@ frame_needed = 0, uses_anonymous_args = 0
 521              		@ link register save eliminated.
 522              	.LVL55:
 831:Generated_Source\PSoC6/CapSense_Structure.c ****     uint32 result = 0Lu;
 832:Generated_Source\PSoC6/CapSense_Structure.c **** 
 833:Generated_Source\PSoC6/CapSense_Structure.c ****     if (widgetId < CapSense_TOTAL_WIDGETS)
 523              		.loc 1 833 0
 524 0000 0028     		cmp	r0, #0
 525 0002 0BD1     		bne	.L48
 834:Generated_Source\PSoC6/CapSense_Structure.c ****     {
 835:Generated_Source\PSoC6/CapSense_Structure.c ****         result = CapSense_GET_WIDGET_ACTIVE_STATUS(widgetId);
 526              		.loc 1 835 0
 527 0004 1F23     		movs	r3, #31
 528 0006 0340     		ands	r3, r0
 529 0008 0122     		movs	r2, #1
 530 000a 9A40     		lsls	r2, r2, r3
 531 000c 4009     		lsrs	r0, r0, #5
 532              	.LVL56:
 533 000e 031D     		adds	r3, r0, #4
 534 0010 9B00     		lsls	r3, r3, #2
 535 0012 0348     		ldr	r0, .L49
 536 0014 C318     		adds	r3, r0, r3
 537 0016 5868     		ldr	r0, [r3, #4]
 538 0018 1040     		ands	r0, r2
 539              	.LVL57:
 540 001a 00E0     		b	.L47
 541              	.LVL58:
 542              	.L48:
 831:Generated_Source\PSoC6/CapSense_Structure.c ****     uint32 result = 0Lu;
 543              		.loc 1 831 0
 544 001c 0020     		movs	r0, #0
 545              	.LVL59:
 546              	.L47:
 836:Generated_Source\PSoC6/CapSense_Structure.c ****     }
 837:Generated_Source\PSoC6/CapSense_Structure.c ****     return result;
 838:Generated_Source\PSoC6/CapSense_Structure.c **** }
 547              		.loc 1 838 0
 548              		@ sp needed
 549 001e 7047     		bx	lr
 550              	.L50:
 551              		.align	2
 552              	.L49:
 553 0020 00000000 		.word	CapSense_dsRam
 554              		.cfi_endproc
 555              	.LFE50:
 556              		.size	CapSense_IsWidgetActive, .-CapSense_IsWidgetActive
ARM GAS  C:\Users\Rolf\AppData\Local\Temp\ccuXc8Yq.s 			page 26


 557              		.section	.text.CapSense_IsSensorActive,"ax",%progbits
 558              		.align	2
 559              		.global	CapSense_IsSensorActive
 560              		.code	16
 561              		.thumb_func
 562              		.type	CapSense_IsSensorActive, %function
 563              	CapSense_IsSensorActive:
 564              	.LFB51:
 839:Generated_Source\PSoC6/CapSense_Structure.c **** 
 840:Generated_Source\PSoC6/CapSense_Structure.c **** 
 841:Generated_Source\PSoC6/CapSense_Structure.c **** /*******************************************************************************
 842:Generated_Source\PSoC6/CapSense_Structure.c **** * Function Name: CapSense_IsSensorActive
 843:Generated_Source\PSoC6/CapSense_Structure.c **** ****************************************************************************//**
 844:Generated_Source\PSoC6/CapSense_Structure.c **** *
 845:Generated_Source\PSoC6/CapSense_Structure.c **** * \brief
 846:Generated_Source\PSoC6/CapSense_Structure.c **** *  Reports if the specified sensor in the widget detects a touch.
 847:Generated_Source\PSoC6/CapSense_Structure.c **** *
 848:Generated_Source\PSoC6/CapSense_Structure.c **** * \details
 849:Generated_Source\PSoC6/CapSense_Structure.c **** *  This function reports if the specified sensor in the widget has detected a
 850:Generated_Source\PSoC6/CapSense_Structure.c **** *  touch or not by extracting information from the wdgtStatus registers
 851:Generated_Source\PSoC6/CapSense_Structure.c **** *  (CapSense_WDGT_STATUS<X>_VALUE). This function does not process the
 852:Generated_Source\PSoC6/CapSense_Structure.c **** *  widget or sensor but extracts processed results from the \ref group_structures.
 853:Generated_Source\PSoC6/CapSense_Structure.c **** *
 854:Generated_Source\PSoC6/CapSense_Structure.c **** *  For proximity sensors, this function returns the proximity detection status. To
 855:Generated_Source\PSoC6/CapSense_Structure.c **** *  get the finger touch status of proximity sensors, use the
 856:Generated_Source\PSoC6/CapSense_Structure.c **** *  CapSense_IsProximitySensorActive() function.
 857:Generated_Source\PSoC6/CapSense_Structure.c **** *
 858:Generated_Source\PSoC6/CapSense_Structure.c **** * \param widgetId
 859:Generated_Source\PSoC6/CapSense_Structure.c **** *  Specifies the ID number of the widget.
 860:Generated_Source\PSoC6/CapSense_Structure.c **** *  A macro for the widget ID can be found in the CapSense Configuration header
 861:Generated_Source\PSoC6/CapSense_Structure.c **** *  file defined as CapSense_<WidgetName>_WDGT_ID.
 862:Generated_Source\PSoC6/CapSense_Structure.c **** 
 863:Generated_Source\PSoC6/CapSense_Structure.c **** * \param sensorId
 864:Generated_Source\PSoC6/CapSense_Structure.c **** *  Specifies the ID number of the sensor within the widget to get its touch
 865:Generated_Source\PSoC6/CapSense_Structure.c **** *  detection status.
 866:Generated_Source\PSoC6/CapSense_Structure.c **** *  A macro for the sensor ID within the specified widget can be found in the
 867:Generated_Source\PSoC6/CapSense_Structure.c **** *  CapSense Configuration header file defined as
 868:Generated_Source\PSoC6/CapSense_Structure.c **** *  CapSense_<WidgetName>_SNS<SensorNumber>_ID.
 869:Generated_Source\PSoC6/CapSense_Structure.c **** *
 870:Generated_Source\PSoC6/CapSense_Structure.c **** * \return
 871:Generated_Source\PSoC6/CapSense_Structure.c **** *  Returns the touch detection status of the specified sensor / widget:
 872:Generated_Source\PSoC6/CapSense_Structure.c **** *    - Zero if no touch is detected in the specified sensor / widget or a wrong
 873:Generated_Source\PSoC6/CapSense_Structure.c **** *      widget ID / sensor ID is specified.
 874:Generated_Source\PSoC6/CapSense_Structure.c **** *    - Non-zero if the specified sensor is active i.e. touch is detected. If the
 875:Generated_Source\PSoC6/CapSense_Structure.c **** *      specific sensor belongs to a proximity widget, the proximity detection
 876:Generated_Source\PSoC6/CapSense_Structure.c **** *      status is returned.
 877:Generated_Source\PSoC6/CapSense_Structure.c **** *
 878:Generated_Source\PSoC6/CapSense_Structure.c **** *******************************************************************************/
 879:Generated_Source\PSoC6/CapSense_Structure.c **** uint32 CapSense_IsSensorActive(uint32 widgetId, uint32 sensorId)
 880:Generated_Source\PSoC6/CapSense_Structure.c **** {
 565              		.loc 1 880 0
 566              		.cfi_startproc
 567              		@ args = 0, pretend = 0, frame = 0
 568              		@ frame_needed = 0, uses_anonymous_args = 0
 569              		@ link register save eliminated.
 570              	.LVL60:
 881:Generated_Source\PSoC6/CapSense_Structure.c ****     uint32 result = 0Lu;
ARM GAS  C:\Users\Rolf\AppData\Local\Temp\ccuXc8Yq.s 			page 27


 882:Generated_Source\PSoC6/CapSense_Structure.c **** 
 883:Generated_Source\PSoC6/CapSense_Structure.c ****     if ((widgetId < CapSense_TOTAL_WIDGETS) &&
 571              		.loc 1 883 0
 572 0000 0028     		cmp	r0, #0
 573 0002 0ED1     		bne	.L53
 884:Generated_Source\PSoC6/CapSense_Structure.c ****         (sensorId < CapSense_GET_SENSOR_COUNT(widgetId)))
 574              		.loc 1 884 0 discriminator 1
 575 0004 C200     		lsls	r2, r0, #3
 576 0006 121A     		subs	r2, r2, r0
 577 0008 9300     		lsls	r3, r2, #2
 578 000a 084A     		ldr	r2, .L55
 579 000c D318     		adds	r3, r2, r3
 580 000e 9B8B     		ldrh	r3, [r3, #28]
 883:Generated_Source\PSoC6/CapSense_Structure.c ****         (sensorId < CapSense_GET_SENSOR_COUNT(widgetId)))
 581              		.loc 1 883 0 discriminator 1
 582 0010 8B42     		cmp	r3, r1
 583 0012 08D9     		bls	.L54
 885:Generated_Source\PSoC6/CapSense_Structure.c ****     {
 886:Generated_Source\PSoC6/CapSense_Structure.c ****         #if (CapSense_ENABLE == CapSense_PROXIMITY_WIDGET_EN)
 887:Generated_Source\PSoC6/CapSense_Structure.c ****             if (CapSense_WD_PROXIMITY_E ==
 888:Generated_Source\PSoC6/CapSense_Structure.c ****                 (CapSense_WD_TYPE_ENUM)CapSense_dsFlash.wdgtArray[widgetId].wdgtType)
 889:Generated_Source\PSoC6/CapSense_Structure.c ****             {
 890:Generated_Source\PSoC6/CapSense_Structure.c ****                 sensorId = CapSense_PROX_STS_OFFSET(sensorId);
 891:Generated_Source\PSoC6/CapSense_Structure.c ****             }
 892:Generated_Source\PSoC6/CapSense_Structure.c ****         #endif /* (CapSense_ENABLE != CapSense_PROXIMITY_WIDGET_EN) */
 893:Generated_Source\PSoC6/CapSense_Structure.c ****         result = CapSense_dsRam.snsStatus[widgetId] & (1Lu << sensorId);
 584              		.loc 1 893 0
 585 0014 064B     		ldr	r3, .L55+4
 586 0016 1818     		adds	r0, r3, r0
 587              	.LVL61:
 588 0018 037E     		ldrb	r3, [r0, #24]
 589 001a 0120     		movs	r0, #1
 590 001c 8840     		lsls	r0, r0, r1
 591 001e 1840     		ands	r0, r3
 592              	.LVL62:
 593 0020 02E0     		b	.L52
 594              	.LVL63:
 595              	.L53:
 881:Generated_Source\PSoC6/CapSense_Structure.c **** 
 596              		.loc 1 881 0
 597 0022 0020     		movs	r0, #0
 598              	.LVL64:
 599 0024 00E0     		b	.L52
 600              	.LVL65:
 601              	.L54:
 602 0026 0020     		movs	r0, #0
 603              	.LVL66:
 604              	.L52:
 894:Generated_Source\PSoC6/CapSense_Structure.c ****     }
 895:Generated_Source\PSoC6/CapSense_Structure.c **** 
 896:Generated_Source\PSoC6/CapSense_Structure.c ****     return result;
 897:Generated_Source\PSoC6/CapSense_Structure.c **** }
 605              		.loc 1 897 0
 606              		@ sp needed
 607 0028 7047     		bx	lr
 608              	.L56:
 609 002a C046     		.align	2
ARM GAS  C:\Users\Rolf\AppData\Local\Temp\ccuXc8Yq.s 			page 28


 610              	.L55:
 611 002c 00000000 		.word	.LANCHOR0
 612 0030 00000000 		.word	CapSense_dsRam
 613              		.cfi_endproc
 614              	.LFE51:
 615              		.size	CapSense_IsSensorActive, .-CapSense_IsSensorActive
 616              		.global	CapSense_ramIdacInit
 617              		.global	CapSense_ramWidgetInit
 618              		.global	CapSense_ioList
 619              		.global	CapSense_dsFlash
 620              		.comm	CapSense_dsRam,60,4
 621              		.section	.rodata
 622              		.align	2
 623              		.set	.LANCHOR0,. + 0
 624              		.type	CapSense_ramIdacInit, %object
 625              		.size	CapSense_ramIdacInit, 1
 626              	CapSense_ramIdacInit:
 627 0000 20       		.byte	32
 628 0001 000000   		.space	3
 629              		.type	CapSense_dsFlash, %object
 630              		.size	CapSense_dsFlash, 28
 631              	CapSense_dsFlash:
 632 0004 00000000 		.word	CapSense_ioList
 633 0008 1E000000 		.word	CapSense_dsRam+30
 634 000c 2C000000 		.word	CapSense_dsRam+44
 635 0010 00000000 		.word	0
 636 0014 00000000 		.word	CapSense_debounceButton0
 637 0018 01280000 		.word	10241
 638 001c 0100     		.short	1
 639 001e 01       		.byte	1
 640 001f 01       		.byte	1
 641              		.type	CapSense_ramWidgetInit, %object
 642              		.size	CapSense_ramWidgetInit, 14
 643              	CapSense_ramWidgetInit:
 644 0020 0D00     		.short	13
 645 0022 E803     		.short	1000
 646 0024 1B       		.byte	27
 647 0025 1B       		.byte	27
 648 0026 06       		.byte	6
 649 0027 03       		.byte	3
 650 0028 1E       		.byte	30
 651 0029 20       		.byte	32
 652 002a 0400     		.short	4
 653 002c 00       		.byte	0
 654 002d 00       		.space	1
 655 002e 0000     		.space	2
 656              		.type	CapSense_ioList, %object
 657              		.size	CapSense_ioList, 8
 658              	CapSense_ioList:
 659 0030 80043240 		.word	1077019776
 660 0034 00       		.byte	0
 661 0035 000000   		.space	3
 662              		.section	.rodata.str1.4,"aMS",%progbits,1
 663              		.align	2
 664              	.LC6:
 665 0000 47656E65 		.ascii	"Generated_Source\\PSoC6\\CapSense_Structure.c\000"
 665      72617465 
ARM GAS  C:\Users\Rolf\AppData\Local\Temp\ccuXc8Yq.s 			page 29


 665      645F536F 
 665      75726365 
 665      5C50536F 
 666              		.bss
 667              		.align	2
 668              		.type	CapSense_debounceButton0, %object
 669              		.size	CapSense_debounceButton0, 1
 670              	CapSense_debounceButton0:
 671 0000 00       		.space	1
 672              		.text
 673              	.Letext0:
 674              		.file 2 "c:\\program files (x86)\\cypress\\psoc creator\\4.4\\4.4\\psoc creator\\import\\gnu\\arm\
 675              		.file 3 "c:\\program files (x86)\\cypress\\psoc creator\\4.4\\4.4\\psoc creator\\import\\gnu\\arm\
 676              		.file 4 "Generated_Source\\PSoC6\\pdl\\devices/psoc6/include/ip/cyip_gpio.h"
 677              		.file 5 "Generated_Source\\PSoC6\\pdl\\devices/psoc6/include/psoc6_01_config.h"
 678              		.file 6 "Generated_Source\\PSoC6\\pdl\\drivers/peripheral/syslib/cy_syslib.h"
 679              		.file 7 "Generated_Source\\PSoC6\\CapSense_Configuration.h"
 680              		.file 8 "Generated_Source\\PSoC6\\CapSense_Structure.h"