ARM GAS  C:\Users\Rolf\AppData\Local\Temp\ccTbcyL9.s 			page 1


   1              		.syntax unified
   2              		.cpu cortex-m0plus
   3              		.fpu softvfp
   4              		.eabi_attribute 20, 1
   5              		.eabi_attribute 21, 1
   6              		.eabi_attribute 23, 3
   7              		.eabi_attribute 24, 1
   8              		.eabi_attribute 25, 1
   9              		.eabi_attribute 26, 1
  10              		.eabi_attribute 30, 1
  11              		.eabi_attribute 34, 0
  12              		.eabi_attribute 18, 4
  13              		.thumb
  14              		.syntax unified
  15              		.file	"cy_prot.c"
  16              		.text
  17              	.Ltext0:
  18              		.cfi_sections	.debug_frame
  19              		.section	.text.Prot_ConfigPpuAtt,"ax",%progbits
  20              		.align	2
  21              		.code	16
  22              		.thumb_func
  23              		.type	Prot_ConfigPpuAtt, %function
  24              	Prot_ConfigPpuAtt:
  25              	.LFB60:
  26              		.file 1 "Generated_Source\\PSoC6\\pdl\\drivers\\peripheral\\prot\\cy_prot.c"
   1:Generated_Source\PSoC6\pdl\drivers\peripheral\prot/cy_prot.c **** /***************************************************************************//**
   2:Generated_Source\PSoC6\pdl\drivers\peripheral\prot/cy_prot.c **** * \file cy_prot.c
   3:Generated_Source\PSoC6\pdl\drivers\peripheral\prot/cy_prot.c **** * \version 1.20
   4:Generated_Source\PSoC6\pdl\drivers\peripheral\prot/cy_prot.c **** *
   5:Generated_Source\PSoC6\pdl\drivers\peripheral\prot/cy_prot.c **** * \brief
   6:Generated_Source\PSoC6\pdl\drivers\peripheral\prot/cy_prot.c **** * Provides an API implementation of the Protection Unit driver
   7:Generated_Source\PSoC6\pdl\drivers\peripheral\prot/cy_prot.c **** *
   8:Generated_Source\PSoC6\pdl\drivers\peripheral\prot/cy_prot.c **** ********************************************************************************
   9:Generated_Source\PSoC6\pdl\drivers\peripheral\prot/cy_prot.c **** * \copyright
  10:Generated_Source\PSoC6\pdl\drivers\peripheral\prot/cy_prot.c **** * Copyright 2016-2018, Cypress Semiconductor Corporation. All rights reserved.
  11:Generated_Source\PSoC6\pdl\drivers\peripheral\prot/cy_prot.c **** * You may use this file only in accordance with the license, terms, conditions,
  12:Generated_Source\PSoC6\pdl\drivers\peripheral\prot/cy_prot.c **** * disclaimers, and limitations in the end user license agreement accompanying
  13:Generated_Source\PSoC6\pdl\drivers\peripheral\prot/cy_prot.c **** * the software package with which this file was provided.
  14:Generated_Source\PSoC6\pdl\drivers\peripheral\prot/cy_prot.c **** *******************************************************************************/
  15:Generated_Source\PSoC6\pdl\drivers\peripheral\prot/cy_prot.c **** 
  16:Generated_Source\PSoC6\pdl\drivers\peripheral\prot/cy_prot.c **** #include "cy_prot.h"
  17:Generated_Source\PSoC6\pdl\drivers\peripheral\prot/cy_prot.c **** 
  18:Generated_Source\PSoC6\pdl\drivers\peripheral\prot/cy_prot.c **** #if defined(__cplusplus)
  19:Generated_Source\PSoC6\pdl\drivers\peripheral\prot/cy_prot.c **** extern "C" {
  20:Generated_Source\PSoC6\pdl\drivers\peripheral\prot/cy_prot.c **** #endif
  21:Generated_Source\PSoC6\pdl\drivers\peripheral\prot/cy_prot.c **** 
  22:Generated_Source\PSoC6\pdl\drivers\peripheral\prot/cy_prot.c **** static bool Prot_IsSmpuStructDisabled(uint32_t smpuStcIndex);
  23:Generated_Source\PSoC6\pdl\drivers\peripheral\prot/cy_prot.c **** static bool Prot_IsPpuProgStructDisabled(uint32_t ppuStcIndex);
  24:Generated_Source\PSoC6\pdl\drivers\peripheral\prot/cy_prot.c **** static cy_en_prot_status_t Prot_ConfigPpuAtt(volatile uint32_t * reg, uint16_t pcMask, 
  25:Generated_Source\PSoC6\pdl\drivers\peripheral\prot/cy_prot.c ****                                        cy_en_prot_perm_t userPermission, cy_en_prot_perm_t privPerm
  26:Generated_Source\PSoC6\pdl\drivers\peripheral\prot/cy_prot.c **** 
  27:Generated_Source\PSoC6\pdl\drivers\peripheral\prot/cy_prot.c **** /* Define to enable all attributes for SMPU slave structure */
  28:Generated_Source\PSoC6\pdl\drivers\peripheral\prot/cy_prot.c **** #define PROT_SMPU_STRUCT_ATT0_ENABLE_ALL_MASK      (PROT_SMPU_SMPU_STRUCT_ATT0_UR_Msk | \
  29:Generated_Source\PSoC6\pdl\drivers\peripheral\prot/cy_prot.c ****                                                     PROT_SMPU_SMPU_STRUCT_ATT0_UW_Msk | \
  30:Generated_Source\PSoC6\pdl\drivers\peripheral\prot/cy_prot.c ****                                                     PROT_SMPU_SMPU_STRUCT_ATT0_UX_Msk | \
  31:Generated_Source\PSoC6\pdl\drivers\peripheral\prot/cy_prot.c ****                                                     PROT_SMPU_SMPU_STRUCT_ATT0_PR_Msk | \
ARM GAS  C:\Users\Rolf\AppData\Local\Temp\ccTbcyL9.s 			page 2


  32:Generated_Source\PSoC6\pdl\drivers\peripheral\prot/cy_prot.c ****                                                     PROT_SMPU_SMPU_STRUCT_ATT0_PW_Msk | \
  33:Generated_Source\PSoC6\pdl\drivers\peripheral\prot/cy_prot.c ****                                                     PROT_SMPU_SMPU_STRUCT_ATT0_PX_Msk | \
  34:Generated_Source\PSoC6\pdl\drivers\peripheral\prot/cy_prot.c ****                                                     PROT_SMPU_SMPU_STRUCT_ATT0_NS_Msk)
  35:Generated_Source\PSoC6\pdl\drivers\peripheral\prot/cy_prot.c **** 
  36:Generated_Source\PSoC6\pdl\drivers\peripheral\prot/cy_prot.c ****  /* Define to enable all attributes for programmable PPU slave structure */
  37:Generated_Source\PSoC6\pdl\drivers\peripheral\prot/cy_prot.c **** #define PROT_PERI_PPU_PR_ATT0_ENABLE_ALL_MASK      (PERI_PPU_PR_ATT0_UR_Msk | \
  38:Generated_Source\PSoC6\pdl\drivers\peripheral\prot/cy_prot.c ****                                                     PERI_PPU_PR_ATT0_UW_Msk | \
  39:Generated_Source\PSoC6\pdl\drivers\peripheral\prot/cy_prot.c ****                                                     PERI_PPU_PR_ATT0_UX_Msk | \
  40:Generated_Source\PSoC6\pdl\drivers\peripheral\prot/cy_prot.c ****                                                     PERI_PPU_PR_ATT0_PR_Msk | \
  41:Generated_Source\PSoC6\pdl\drivers\peripheral\prot/cy_prot.c ****                                                     PERI_PPU_PR_ATT0_PW_Msk | \
  42:Generated_Source\PSoC6\pdl\drivers\peripheral\prot/cy_prot.c ****                                                     PERI_PPU_PR_ATT0_PX_Msk | \
  43:Generated_Source\PSoC6\pdl\drivers\peripheral\prot/cy_prot.c ****                                                     PERI_PPU_PR_ATT0_NS_Msk)
  44:Generated_Source\PSoC6\pdl\drivers\peripheral\prot/cy_prot.c **** 
  45:Generated_Source\PSoC6\pdl\drivers\peripheral\prot/cy_prot.c **** #define PROT_PERI_PPU_PROG_PC1_PC3_MASK            (0xffffffe0UL)  /* PC1 - PC3 bits mask */
  46:Generated_Source\PSoC6\pdl\drivers\peripheral\prot/cy_prot.c **** 
  47:Generated_Source\PSoC6\pdl\drivers\peripheral\prot/cy_prot.c **** /*******************************************************************************
  48:Generated_Source\PSoC6\pdl\drivers\peripheral\prot/cy_prot.c **** * Function Name: Cy_Prot_ConfigBusMaster
  49:Generated_Source\PSoC6\pdl\drivers\peripheral\prot/cy_prot.c **** ****************************************************************************//**
  50:Generated_Source\PSoC6\pdl\drivers\peripheral\prot/cy_prot.c **** *
  51:Generated_Source\PSoC6\pdl\drivers\peripheral\prot/cy_prot.c **** * Configures the allowed protection contexts, security (secure/non-secure)
  52:Generated_Source\PSoC6\pdl\drivers\peripheral\prot/cy_prot.c **** * and privilege level of the bus transaction created by the specified master.
  53:Generated_Source\PSoC6\pdl\drivers\peripheral\prot/cy_prot.c **** *
  54:Generated_Source\PSoC6\pdl\drivers\peripheral\prot/cy_prot.c **** * \note This function is applicable for both CPUSS ver_1 and ver_2.
  55:Generated_Source\PSoC6\pdl\drivers\peripheral\prot/cy_prot.c **** *
  56:Generated_Source\PSoC6\pdl\drivers\peripheral\prot/cy_prot.c **** * \param busMaster
  57:Generated_Source\PSoC6\pdl\drivers\peripheral\prot/cy_prot.c **** * Indicates which master needs to be configured. Refer to the CPUSS_MS_ID_X
  58:Generated_Source\PSoC6\pdl\drivers\peripheral\prot/cy_prot.c **** * defines in the device config header file.
  59:Generated_Source\PSoC6\pdl\drivers\peripheral\prot/cy_prot.c **** * 
  60:Generated_Source\PSoC6\pdl\drivers\peripheral\prot/cy_prot.c **** * \param privileged
  61:Generated_Source\PSoC6\pdl\drivers\peripheral\prot/cy_prot.c **** * Boolean to define the privilege level of all subsequent bus transfers.
  62:Generated_Source\PSoC6\pdl\drivers\peripheral\prot/cy_prot.c **** * True - privileged, False - not privileged.
  63:Generated_Source\PSoC6\pdl\drivers\peripheral\prot/cy_prot.c **** * Note that this is an inherited value. If not inherited, then this bit will 
  64:Generated_Source\PSoC6\pdl\drivers\peripheral\prot/cy_prot.c **** * be used.
  65:Generated_Source\PSoC6\pdl\drivers\peripheral\prot/cy_prot.c **** *
  66:Generated_Source\PSoC6\pdl\drivers\peripheral\prot/cy_prot.c **** * \param secure
  67:Generated_Source\PSoC6\pdl\drivers\peripheral\prot/cy_prot.c **** * Security setting for the master. True - Secure, False - Not secure.
  68:Generated_Source\PSoC6\pdl\drivers\peripheral\prot/cy_prot.c **** * 
  69:Generated_Source\PSoC6\pdl\drivers\peripheral\prot/cy_prot.c **** * \param pcMask
  70:Generated_Source\PSoC6\pdl\drivers\peripheral\prot/cy_prot.c **** * This is a 16 bit value of the allowed contexts, it is an OR'ed (|) field of the
  71:Generated_Source\PSoC6\pdl\drivers\peripheral\prot/cy_prot.c **** * provided defines in cy_prot.h. For example: (CY_PROT_PCMASK1 | CY_PROT_PCMASK3 | CY_PROT_PCMASK4)
  72:Generated_Source\PSoC6\pdl\drivers\peripheral\prot/cy_prot.c **** * \note The function accepts pcMask values from CY_PROT_PCMASK1 to CY_PROT_PCMASK15. 
  73:Generated_Source\PSoC6\pdl\drivers\peripheral\prot/cy_prot.c **** * But each device has its own number of available protection contexts. 
  74:Generated_Source\PSoC6\pdl\drivers\peripheral\prot/cy_prot.c **** * That number is defined by PERI_PC_NR in the config file.
  75:Generated_Source\PSoC6\pdl\drivers\peripheral\prot/cy_prot.c **** *
  76:Generated_Source\PSoC6\pdl\drivers\peripheral\prot/cy_prot.c **** * \return
  77:Generated_Source\PSoC6\pdl\drivers\peripheral\prot/cy_prot.c **** * Status of the function call.
  78:Generated_Source\PSoC6\pdl\drivers\peripheral\prot/cy_prot.c **** *
  79:Generated_Source\PSoC6\pdl\drivers\peripheral\prot/cy_prot.c **** *   Status               | Description
  80:Generated_Source\PSoC6\pdl\drivers\peripheral\prot/cy_prot.c **** *   ------------         | -----------
  81:Generated_Source\PSoC6\pdl\drivers\peripheral\prot/cy_prot.c **** *   CY_PROT_SUCCESS      | The function completed successfully.
  82:Generated_Source\PSoC6\pdl\drivers\peripheral\prot/cy_prot.c **** *   CY_PROT_FAILURE      | The resource is locked.
  83:Generated_Source\PSoC6\pdl\drivers\peripheral\prot/cy_prot.c **** *
  84:Generated_Source\PSoC6\pdl\drivers\peripheral\prot/cy_prot.c **** * \funcusage
  85:Generated_Source\PSoC6\pdl\drivers\peripheral\prot/cy_prot.c **** * \snippet prot/1.20/snippet/main.c snippet_Cy_Prot_ConfigBusMaster
  86:Generated_Source\PSoC6\pdl\drivers\peripheral\prot/cy_prot.c **** *
  87:Generated_Source\PSoC6\pdl\drivers\peripheral\prot/cy_prot.c **** *******************************************************************************/
  88:Generated_Source\PSoC6\pdl\drivers\peripheral\prot/cy_prot.c **** cy_en_prot_status_t Cy_Prot_ConfigBusMaster(en_prot_master_t busMaster, bool privileged, bool secur
ARM GAS  C:\Users\Rolf\AppData\Local\Temp\ccTbcyL9.s 			page 3


  89:Generated_Source\PSoC6\pdl\drivers\peripheral\prot/cy_prot.c **** {
  90:Generated_Source\PSoC6\pdl\drivers\peripheral\prot/cy_prot.c ****     cy_en_prot_status_t status = CY_PROT_SUCCESS;
  91:Generated_Source\PSoC6\pdl\drivers\peripheral\prot/cy_prot.c ****     uint32_t regVal;
  92:Generated_Source\PSoC6\pdl\drivers\peripheral\prot/cy_prot.c ****     volatile uint32_t *addrMsCtl; /* addrMsCtl is pointer to a register that is volatile by 
  93:Generated_Source\PSoC6\pdl\drivers\peripheral\prot/cy_prot.c ****                                    * nature as can be changed outside of firmware control. 
  94:Generated_Source\PSoC6\pdl\drivers\peripheral\prot/cy_prot.c ****                                    */
  95:Generated_Source\PSoC6\pdl\drivers\peripheral\prot/cy_prot.c **** 
  96:Generated_Source\PSoC6\pdl\drivers\peripheral\prot/cy_prot.c ****     CY_ASSERT_L1(CY_PROT_IS_BUS_MASTER_VALID(busMaster));
  97:Generated_Source\PSoC6\pdl\drivers\peripheral\prot/cy_prot.c ****     CY_ASSERT_L2(CY_PROT_IS_PC_MASK_VALID(pcMask));
  98:Generated_Source\PSoC6\pdl\drivers\peripheral\prot/cy_prot.c ****     
  99:Generated_Source\PSoC6\pdl\drivers\peripheral\prot/cy_prot.c ****     /* Get the address of Master x protection context control register (MSx_CTL) */
 100:Generated_Source\PSoC6\pdl\drivers\peripheral\prot/cy_prot.c ****     addrMsCtl = (uint32_t *)(CY_PROT_BASE + (uint32_t)((uint32_t)busMaster << CY_PROT_MSX_CTL_SHIFT
 101:Generated_Source\PSoC6\pdl\drivers\peripheral\prot/cy_prot.c **** 
 102:Generated_Source\PSoC6\pdl\drivers\peripheral\prot/cy_prot.c ****     /* Get bitfields for MSx_CTL */
 103:Generated_Source\PSoC6\pdl\drivers\peripheral\prot/cy_prot.c ****     regVal = _VAL2FLD(PROT_SMPU_MS0_CTL_NS, !secure)   /* Security setting */
 104:Generated_Source\PSoC6\pdl\drivers\peripheral\prot/cy_prot.c ****             | _VAL2FLD(PROT_SMPU_MS0_CTL_P, privileged) /* Privileged setting */
 105:Generated_Source\PSoC6\pdl\drivers\peripheral\prot/cy_prot.c ****             | _VAL2FLD(PROT_SMPU_MS0_CTL_PC_MASK_15_TO_1, pcMask); /* Protection context mask */
 106:Generated_Source\PSoC6\pdl\drivers\peripheral\prot/cy_prot.c ****             
 107:Generated_Source\PSoC6\pdl\drivers\peripheral\prot/cy_prot.c ****     /* Set the value of MSx_CTL */
 108:Generated_Source\PSoC6\pdl\drivers\peripheral\prot/cy_prot.c ****     *addrMsCtl = regVal;
 109:Generated_Source\PSoC6\pdl\drivers\peripheral\prot/cy_prot.c **** 
 110:Generated_Source\PSoC6\pdl\drivers\peripheral\prot/cy_prot.c ****     /* Check if the MSx_CTL register is successfully updated with the new register value. 
 111:Generated_Source\PSoC6\pdl\drivers\peripheral\prot/cy_prot.c ****      * The register will not be updated for the invalid master-protection context. 
 112:Generated_Source\PSoC6\pdl\drivers\peripheral\prot/cy_prot.c ****      */ 
 113:Generated_Source\PSoC6\pdl\drivers\peripheral\prot/cy_prot.c ****     status = (*addrMsCtl != regVal) ? CY_PROT_FAILURE : CY_PROT_SUCCESS;
 114:Generated_Source\PSoC6\pdl\drivers\peripheral\prot/cy_prot.c ****     
 115:Generated_Source\PSoC6\pdl\drivers\peripheral\prot/cy_prot.c ****     return status;
 116:Generated_Source\PSoC6\pdl\drivers\peripheral\prot/cy_prot.c **** }
 117:Generated_Source\PSoC6\pdl\drivers\peripheral\prot/cy_prot.c **** 
 118:Generated_Source\PSoC6\pdl\drivers\peripheral\prot/cy_prot.c **** 
 119:Generated_Source\PSoC6\pdl\drivers\peripheral\prot/cy_prot.c **** /*******************************************************************************
 120:Generated_Source\PSoC6\pdl\drivers\peripheral\prot/cy_prot.c **** * Function Name: Cy_Prot_SetActivePC
 121:Generated_Source\PSoC6\pdl\drivers\peripheral\prot/cy_prot.c **** ****************************************************************************//**
 122:Generated_Source\PSoC6\pdl\drivers\peripheral\prot/cy_prot.c **** *
 123:Generated_Source\PSoC6\pdl\drivers\peripheral\prot/cy_prot.c **** * Sets the current/active protection context of the specified bus master.
 124:Generated_Source\PSoC6\pdl\drivers\peripheral\prot/cy_prot.c **** * 
 125:Generated_Source\PSoC6\pdl\drivers\peripheral\prot/cy_prot.c **** * Allowed PC values are 1-15. If this value is not inherited from another bus 
 126:Generated_Source\PSoC6\pdl\drivers\peripheral\prot/cy_prot.c **** * master, the value set through this function is used.
 127:Generated_Source\PSoC6\pdl\drivers\peripheral\prot/cy_prot.c **** *
 128:Generated_Source\PSoC6\pdl\drivers\peripheral\prot/cy_prot.c **** * \note This function is applicable for both CPUSS ver_1 and ver_2.
 129:Generated_Source\PSoC6\pdl\drivers\peripheral\prot/cy_prot.c **** *
 130:Generated_Source\PSoC6\pdl\drivers\peripheral\prot/cy_prot.c **** * \param busMaster
 131:Generated_Source\PSoC6\pdl\drivers\peripheral\prot/cy_prot.c **** * The bus master to configure. Refer to the CPUSS_MS_ID_X defines in the device
 132:Generated_Source\PSoC6\pdl\drivers\peripheral\prot/cy_prot.c **** * config header file.
 133:Generated_Source\PSoC6\pdl\drivers\peripheral\prot/cy_prot.c **** * 
 134:Generated_Source\PSoC6\pdl\drivers\peripheral\prot/cy_prot.c **** * \param pc
 135:Generated_Source\PSoC6\pdl\drivers\peripheral\prot/cy_prot.c **** * Active protection context of the specified master \ref cy_en_prot_pc_t. 
 136:Generated_Source\PSoC6\pdl\drivers\peripheral\prot/cy_prot.c **** * \note that only those protection contexts allowed by the pcMask (which was 
 137:Generated_Source\PSoC6\pdl\drivers\peripheral\prot/cy_prot.c **** * configured in \ref Cy_Prot_ConfigBusMaster) will take effect. 
 138:Generated_Source\PSoC6\pdl\drivers\peripheral\prot/cy_prot.c **** * \note The function accepts pcMask values from CY_PROT_PC1 to CY_PROT_PC15. 
 139:Generated_Source\PSoC6\pdl\drivers\peripheral\prot/cy_prot.c **** * But each device has its own number of available protection contexts. 
 140:Generated_Source\PSoC6\pdl\drivers\peripheral\prot/cy_prot.c **** * That number is defined by PERI_PC_NR in the config file.
 141:Generated_Source\PSoC6\pdl\drivers\peripheral\prot/cy_prot.c **** *
 142:Generated_Source\PSoC6\pdl\drivers\peripheral\prot/cy_prot.c **** * \return
 143:Generated_Source\PSoC6\pdl\drivers\peripheral\prot/cy_prot.c **** * Status of the function call.
 144:Generated_Source\PSoC6\pdl\drivers\peripheral\prot/cy_prot.c **** *
 145:Generated_Source\PSoC6\pdl\drivers\peripheral\prot/cy_prot.c **** *   Status               | Description
ARM GAS  C:\Users\Rolf\AppData\Local\Temp\ccTbcyL9.s 			page 4


 146:Generated_Source\PSoC6\pdl\drivers\peripheral\prot/cy_prot.c **** *   ------------         | -----------
 147:Generated_Source\PSoC6\pdl\drivers\peripheral\prot/cy_prot.c **** *   CY_PROT_SUCCESS      | The function completed successfully.
 148:Generated_Source\PSoC6\pdl\drivers\peripheral\prot/cy_prot.c **** *   CY_PROT_FAILURE      | The resource is locked.
 149:Generated_Source\PSoC6\pdl\drivers\peripheral\prot/cy_prot.c **** *
 150:Generated_Source\PSoC6\pdl\drivers\peripheral\prot/cy_prot.c **** * \funcusage
 151:Generated_Source\PSoC6\pdl\drivers\peripheral\prot/cy_prot.c **** * \snippet prot/1.20/snippet/main.c snippet_Cy_Prot_SetActivePC
 152:Generated_Source\PSoC6\pdl\drivers\peripheral\prot/cy_prot.c **** *
 153:Generated_Source\PSoC6\pdl\drivers\peripheral\prot/cy_prot.c **** *******************************************************************************/
 154:Generated_Source\PSoC6\pdl\drivers\peripheral\prot/cy_prot.c **** cy_en_prot_status_t Cy_Prot_SetActivePC(en_prot_master_t busMaster, uint32_t pc)
 155:Generated_Source\PSoC6\pdl\drivers\peripheral\prot/cy_prot.c **** {
 156:Generated_Source\PSoC6\pdl\drivers\peripheral\prot/cy_prot.c ****     cy_en_prot_status_t status;
 157:Generated_Source\PSoC6\pdl\drivers\peripheral\prot/cy_prot.c ****     
 158:Generated_Source\PSoC6\pdl\drivers\peripheral\prot/cy_prot.c ****     CY_ASSERT_L1(CY_PROT_IS_BUS_MASTER_VALID(busMaster));
 159:Generated_Source\PSoC6\pdl\drivers\peripheral\prot/cy_prot.c ****     CY_ASSERT_L2(CY_PROT_IS_PC_VALID(pc));
 160:Generated_Source\PSoC6\pdl\drivers\peripheral\prot/cy_prot.c ****     
 161:Generated_Source\PSoC6\pdl\drivers\peripheral\prot/cy_prot.c ****     PROT_MPU_MS_CTL(busMaster) = _VAL2FLD(PROT_MPU_MS_CTL_PC, pc) | _VAL2FLD(PROT_MPU_MS_CTL_PC_SAV
 162:Generated_Source\PSoC6\pdl\drivers\peripheral\prot/cy_prot.c ****     status = (_FLD2VAL(PROT_MPU_MS_CTL_PC, PROT_MPU_MS_CTL(busMaster)) != pc) ? CY_PROT_FAILURE : C
 163:Generated_Source\PSoC6\pdl\drivers\peripheral\prot/cy_prot.c ****     
 164:Generated_Source\PSoC6\pdl\drivers\peripheral\prot/cy_prot.c ****     return status;
 165:Generated_Source\PSoC6\pdl\drivers\peripheral\prot/cy_prot.c **** }
 166:Generated_Source\PSoC6\pdl\drivers\peripheral\prot/cy_prot.c **** 
 167:Generated_Source\PSoC6\pdl\drivers\peripheral\prot/cy_prot.c **** 
 168:Generated_Source\PSoC6\pdl\drivers\peripheral\prot/cy_prot.c **** /*******************************************************************************
 169:Generated_Source\PSoC6\pdl\drivers\peripheral\prot/cy_prot.c **** * Function Name: Cy_Prot_GetActivePC
 170:Generated_Source\PSoC6\pdl\drivers\peripheral\prot/cy_prot.c **** ****************************************************************************//**
 171:Generated_Source\PSoC6\pdl\drivers\peripheral\prot/cy_prot.c **** *
 172:Generated_Source\PSoC6\pdl\drivers\peripheral\prot/cy_prot.c **** * \note This function is applicable for both CPUSS ver_1 and ver_2.
 173:Generated_Source\PSoC6\pdl\drivers\peripheral\prot/cy_prot.c **** *
 174:Generated_Source\PSoC6\pdl\drivers\peripheral\prot/cy_prot.c **** * Returns the active protection context of a master. 
 175:Generated_Source\PSoC6\pdl\drivers\peripheral\prot/cy_prot.c **** *
 176:Generated_Source\PSoC6\pdl\drivers\peripheral\prot/cy_prot.c **** * \param busMaster
 177:Generated_Source\PSoC6\pdl\drivers\peripheral\prot/cy_prot.c **** * The bus master, whose protection context is being read. Refer to the 
 178:Generated_Source\PSoC6\pdl\drivers\peripheral\prot/cy_prot.c **** * CPUSS_MS_ID_X defines in the device config header file.
 179:Generated_Source\PSoC6\pdl\drivers\peripheral\prot/cy_prot.c **** * 
 180:Generated_Source\PSoC6\pdl\drivers\peripheral\prot/cy_prot.c **** * \return
 181:Generated_Source\PSoC6\pdl\drivers\peripheral\prot/cy_prot.c **** * Active protection context of the master \ref cy_en_prot_pc_t.
 182:Generated_Source\PSoC6\pdl\drivers\peripheral\prot/cy_prot.c **** *
 183:Generated_Source\PSoC6\pdl\drivers\peripheral\prot/cy_prot.c **** * \funcusage
 184:Generated_Source\PSoC6\pdl\drivers\peripheral\prot/cy_prot.c **** * \snippet prot/1.20/snippet/main.c snippet_Cy_Prot_SetActivePC
 185:Generated_Source\PSoC6\pdl\drivers\peripheral\prot/cy_prot.c **** *
 186:Generated_Source\PSoC6\pdl\drivers\peripheral\prot/cy_prot.c **** *******************************************************************************/
 187:Generated_Source\PSoC6\pdl\drivers\peripheral\prot/cy_prot.c **** uint32_t Cy_Prot_GetActivePC(en_prot_master_t busMaster)
 188:Generated_Source\PSoC6\pdl\drivers\peripheral\prot/cy_prot.c **** {
 189:Generated_Source\PSoC6\pdl\drivers\peripheral\prot/cy_prot.c ****     
 190:Generated_Source\PSoC6\pdl\drivers\peripheral\prot/cy_prot.c ****     CY_ASSERT_L1(CY_PROT_IS_BUS_MASTER_VALID(busMaster));
 191:Generated_Source\PSoC6\pdl\drivers\peripheral\prot/cy_prot.c ****     
 192:Generated_Source\PSoC6\pdl\drivers\peripheral\prot/cy_prot.c ****     return ((uint32_t)_FLD2VAL(PROT_MPU_MS_CTL_PC, PROT_MPU_MS_CTL(busMaster)));
 193:Generated_Source\PSoC6\pdl\drivers\peripheral\prot/cy_prot.c **** }
 194:Generated_Source\PSoC6\pdl\drivers\peripheral\prot/cy_prot.c **** 
 195:Generated_Source\PSoC6\pdl\drivers\peripheral\prot/cy_prot.c **** 
 196:Generated_Source\PSoC6\pdl\drivers\peripheral\prot/cy_prot.c **** /*******************************************************************************
 197:Generated_Source\PSoC6\pdl\drivers\peripheral\prot/cy_prot.c **** * Function Name: Cy_Prot_ConfigMpuStruct
 198:Generated_Source\PSoC6\pdl\drivers\peripheral\prot/cy_prot.c **** ****************************************************************************//**
 199:Generated_Source\PSoC6\pdl\drivers\peripheral\prot/cy_prot.c **** *
 200:Generated_Source\PSoC6\pdl\drivers\peripheral\prot/cy_prot.c **** * This function configures a memory protection unit (MPU) struct with its 
 201:Generated_Source\PSoC6\pdl\drivers\peripheral\prot/cy_prot.c **** * protection attributes. 
 202:Generated_Source\PSoC6\pdl\drivers\peripheral\prot/cy_prot.c **** *
ARM GAS  C:\Users\Rolf\AppData\Local\Temp\ccTbcyL9.s 			page 5


 203:Generated_Source\PSoC6\pdl\drivers\peripheral\prot/cy_prot.c **** * The protection structs act like the gatekeepers for a master's accesses to
 204:Generated_Source\PSoC6\pdl\drivers\peripheral\prot/cy_prot.c **** * memory, allowing only the permitted transactions to go through.
 205:Generated_Source\PSoC6\pdl\drivers\peripheral\prot/cy_prot.c **** *
 206:Generated_Source\PSoC6\pdl\drivers\peripheral\prot/cy_prot.c **** * \note This function is applicable for both CPUSS ver_1 and ver_2.
 207:Generated_Source\PSoC6\pdl\drivers\peripheral\prot/cy_prot.c **** *
 208:Generated_Source\PSoC6\pdl\drivers\peripheral\prot/cy_prot.c **** * \param base
 209:Generated_Source\PSoC6\pdl\drivers\peripheral\prot/cy_prot.c **** * The base address for the MPU struct being configured. 
 210:Generated_Source\PSoC6\pdl\drivers\peripheral\prot/cy_prot.c **** * 
 211:Generated_Source\PSoC6\pdl\drivers\peripheral\prot/cy_prot.c **** * \param config
 212:Generated_Source\PSoC6\pdl\drivers\peripheral\prot/cy_prot.c **** * Initialization structure containing all the protection attributes.
 213:Generated_Source\PSoC6\pdl\drivers\peripheral\prot/cy_prot.c **** * 
 214:Generated_Source\PSoC6\pdl\drivers\peripheral\prot/cy_prot.c **** * \return
 215:Generated_Source\PSoC6\pdl\drivers\peripheral\prot/cy_prot.c **** * Status of the function call.
 216:Generated_Source\PSoC6\pdl\drivers\peripheral\prot/cy_prot.c **** *
 217:Generated_Source\PSoC6\pdl\drivers\peripheral\prot/cy_prot.c **** *   Status               | Description
 218:Generated_Source\PSoC6\pdl\drivers\peripheral\prot/cy_prot.c **** *   ------------         | -----------
 219:Generated_Source\PSoC6\pdl\drivers\peripheral\prot/cy_prot.c **** *   CY_PROT_SUCCESS      | The MPU struct was configured.
 220:Generated_Source\PSoC6\pdl\drivers\peripheral\prot/cy_prot.c **** *   CY_PROT_FAILURE      | Configuration failed due to a protection violation.
 221:Generated_Source\PSoC6\pdl\drivers\peripheral\prot/cy_prot.c **** *
 222:Generated_Source\PSoC6\pdl\drivers\peripheral\prot/cy_prot.c **** * \funcusage
 223:Generated_Source\PSoC6\pdl\drivers\peripheral\prot/cy_prot.c **** * \snippet prot/1.20/snippet/main.c snippet_Cy_Prot_ConfigMpuStruct
 224:Generated_Source\PSoC6\pdl\drivers\peripheral\prot/cy_prot.c **** *
 225:Generated_Source\PSoC6\pdl\drivers\peripheral\prot/cy_prot.c **** *******************************************************************************/
 226:Generated_Source\PSoC6\pdl\drivers\peripheral\prot/cy_prot.c **** cy_en_prot_status_t Cy_Prot_ConfigMpuStruct(PROT_MPU_MPU_STRUCT_Type* base, const cy_stc_mpu_cfg_t*
 227:Generated_Source\PSoC6\pdl\drivers\peripheral\prot/cy_prot.c **** {
 228:Generated_Source\PSoC6\pdl\drivers\peripheral\prot/cy_prot.c ****     cy_en_prot_status_t status;
 229:Generated_Source\PSoC6\pdl\drivers\peripheral\prot/cy_prot.c ****     uint32_t addrReg;
 230:Generated_Source\PSoC6\pdl\drivers\peripheral\prot/cy_prot.c ****     uint32_t attReg;
 231:Generated_Source\PSoC6\pdl\drivers\peripheral\prot/cy_prot.c **** 
 232:Generated_Source\PSoC6\pdl\drivers\peripheral\prot/cy_prot.c ****     CY_ASSERT_L1(NULL != base);
 233:Generated_Source\PSoC6\pdl\drivers\peripheral\prot/cy_prot.c ****     CY_ASSERT_L3(CY_PROT_IS_MPU_PERM_VALID(config->userPermission));
 234:Generated_Source\PSoC6\pdl\drivers\peripheral\prot/cy_prot.c ****     CY_ASSERT_L3(CY_PROT_IS_MPU_PERM_VALID(config->privPermission));
 235:Generated_Source\PSoC6\pdl\drivers\peripheral\prot/cy_prot.c ****     CY_ASSERT_L3(CY_PROT_IS_REGION_SIZE_VALID(config->regionSize));
 236:Generated_Source\PSoC6\pdl\drivers\peripheral\prot/cy_prot.c **** 
 237:Generated_Source\PSoC6\pdl\drivers\peripheral\prot/cy_prot.c ****     addrReg = _VAL2FLD(PROT_MPU_MPU_STRUCT_ADDR_SUBREGION_DISABLE, config->subregions)
 238:Generated_Source\PSoC6\pdl\drivers\peripheral\prot/cy_prot.c ****               | _VAL2FLD(PROT_MPU_MPU_STRUCT_ADDR_ADDR24, (uint32_t)((uint32_t)config->address >> C
 239:Generated_Source\PSoC6\pdl\drivers\peripheral\prot/cy_prot.c ****     attReg  = ((uint32_t)config->userPermission & CY_PROT_ATT_PERMISSION_MASK)
 240:Generated_Source\PSoC6\pdl\drivers\peripheral\prot/cy_prot.c ****               | (((uint32_t)config->privPermission & CY_PROT_ATT_PERMISSION_MASK) << CY_PROT_ATT_PR
 241:Generated_Source\PSoC6\pdl\drivers\peripheral\prot/cy_prot.c ****               | _VAL2FLD(PROT_MPU_MPU_STRUCT_ATT_NS, !(config->secure))
 242:Generated_Source\PSoC6\pdl\drivers\peripheral\prot/cy_prot.c ****               | _VAL2FLD(PROT_MPU_MPU_STRUCT_ATT_REGION_SIZE, config->regionSize);
 243:Generated_Source\PSoC6\pdl\drivers\peripheral\prot/cy_prot.c ****     PROT_MPU_MPU_STRUCT_ATT(base) = attReg;
 244:Generated_Source\PSoC6\pdl\drivers\peripheral\prot/cy_prot.c ****     PROT_MPU_MPU_STRUCT_ADDR(base) = addrReg;
 245:Generated_Source\PSoC6\pdl\drivers\peripheral\prot/cy_prot.c ****     status = ((PROT_MPU_MPU_STRUCT_ADDR(base) != addrReg) || (PROT_MPU_MPU_STRUCT_ATT(base) != attR
 246:Generated_Source\PSoC6\pdl\drivers\peripheral\prot/cy_prot.c ****     
 247:Generated_Source\PSoC6\pdl\drivers\peripheral\prot/cy_prot.c ****     return status;
 248:Generated_Source\PSoC6\pdl\drivers\peripheral\prot/cy_prot.c **** }
 249:Generated_Source\PSoC6\pdl\drivers\peripheral\prot/cy_prot.c **** 
 250:Generated_Source\PSoC6\pdl\drivers\peripheral\prot/cy_prot.c **** 
 251:Generated_Source\PSoC6\pdl\drivers\peripheral\prot/cy_prot.c **** /*******************************************************************************
 252:Generated_Source\PSoC6\pdl\drivers\peripheral\prot/cy_prot.c **** * Function Name: Cy_Prot_EnableMpuStruct
 253:Generated_Source\PSoC6\pdl\drivers\peripheral\prot/cy_prot.c **** ****************************************************************************//**
 254:Generated_Source\PSoC6\pdl\drivers\peripheral\prot/cy_prot.c **** *
 255:Generated_Source\PSoC6\pdl\drivers\peripheral\prot/cy_prot.c **** * Enables the MPU struct, which allows the MPU protection attributes to 
 256:Generated_Source\PSoC6\pdl\drivers\peripheral\prot/cy_prot.c **** * take effect. 
 257:Generated_Source\PSoC6\pdl\drivers\peripheral\prot/cy_prot.c **** *
 258:Generated_Source\PSoC6\pdl\drivers\peripheral\prot/cy_prot.c **** * \note This function is applicable for both CPUSS ver_1 and ver_2.
 259:Generated_Source\PSoC6\pdl\drivers\peripheral\prot/cy_prot.c **** *
ARM GAS  C:\Users\Rolf\AppData\Local\Temp\ccTbcyL9.s 			page 6


 260:Generated_Source\PSoC6\pdl\drivers\peripheral\prot/cy_prot.c **** * \param base
 261:Generated_Source\PSoC6\pdl\drivers\peripheral\prot/cy_prot.c **** * The base address of the MPU struct being configured. 
 262:Generated_Source\PSoC6\pdl\drivers\peripheral\prot/cy_prot.c **** *
 263:Generated_Source\PSoC6\pdl\drivers\peripheral\prot/cy_prot.c **** * \return
 264:Generated_Source\PSoC6\pdl\drivers\peripheral\prot/cy_prot.c **** * Status of the function call.
 265:Generated_Source\PSoC6\pdl\drivers\peripheral\prot/cy_prot.c **** *
 266:Generated_Source\PSoC6\pdl\drivers\peripheral\prot/cy_prot.c **** *   Status               | Description
 267:Generated_Source\PSoC6\pdl\drivers\peripheral\prot/cy_prot.c **** *   ------------         | -----------
 268:Generated_Source\PSoC6\pdl\drivers\peripheral\prot/cy_prot.c **** *   CY_PROT_SUCCESS      | The MPU struct was enabled.
 269:Generated_Source\PSoC6\pdl\drivers\peripheral\prot/cy_prot.c **** *   CY_PROT_FAILURE      | The MPU struct is disabled and possibly locked.
 270:Generated_Source\PSoC6\pdl\drivers\peripheral\prot/cy_prot.c **** *
 271:Generated_Source\PSoC6\pdl\drivers\peripheral\prot/cy_prot.c **** * \funcusage
 272:Generated_Source\PSoC6\pdl\drivers\peripheral\prot/cy_prot.c **** * \snippet prot/1.20/snippet/main.c snippet_Cy_Prot_EnableMpuStruct
 273:Generated_Source\PSoC6\pdl\drivers\peripheral\prot/cy_prot.c **** *
 274:Generated_Source\PSoC6\pdl\drivers\peripheral\prot/cy_prot.c **** *******************************************************************************/
 275:Generated_Source\PSoC6\pdl\drivers\peripheral\prot/cy_prot.c **** cy_en_prot_status_t Cy_Prot_EnableMpuStruct(PROT_MPU_MPU_STRUCT_Type* base)
 276:Generated_Source\PSoC6\pdl\drivers\peripheral\prot/cy_prot.c **** {
 277:Generated_Source\PSoC6\pdl\drivers\peripheral\prot/cy_prot.c ****     cy_en_prot_status_t status;
 278:Generated_Source\PSoC6\pdl\drivers\peripheral\prot/cy_prot.c ****     
 279:Generated_Source\PSoC6\pdl\drivers\peripheral\prot/cy_prot.c ****     CY_ASSERT_L1(NULL != base);
 280:Generated_Source\PSoC6\pdl\drivers\peripheral\prot/cy_prot.c ****     
 281:Generated_Source\PSoC6\pdl\drivers\peripheral\prot/cy_prot.c ****     PROT_MPU_MPU_STRUCT_ATT(base) |= _VAL2FLD(PROT_MPU_MPU_STRUCT_ATT_ENABLED, CY_PROT_STRUCT_ENABL
 282:Generated_Source\PSoC6\pdl\drivers\peripheral\prot/cy_prot.c ****     status = (_FLD2VAL(PROT_MPU_MPU_STRUCT_ATT_ENABLED, PROT_MPU_MPU_STRUCT_ATT(base)) != CY_PROT_S
 283:Generated_Source\PSoC6\pdl\drivers\peripheral\prot/cy_prot.c ****                 CY_PROT_FAILURE : CY_PROT_SUCCESS;
 284:Generated_Source\PSoC6\pdl\drivers\peripheral\prot/cy_prot.c ****     
 285:Generated_Source\PSoC6\pdl\drivers\peripheral\prot/cy_prot.c ****     return status;
 286:Generated_Source\PSoC6\pdl\drivers\peripheral\prot/cy_prot.c **** }
 287:Generated_Source\PSoC6\pdl\drivers\peripheral\prot/cy_prot.c **** 
 288:Generated_Source\PSoC6\pdl\drivers\peripheral\prot/cy_prot.c **** 
 289:Generated_Source\PSoC6\pdl\drivers\peripheral\prot/cy_prot.c **** /*******************************************************************************
 290:Generated_Source\PSoC6\pdl\drivers\peripheral\prot/cy_prot.c **** * Function Name: Cy_Prot_DisableMpuStruct
 291:Generated_Source\PSoC6\pdl\drivers\peripheral\prot/cy_prot.c **** ****************************************************************************//**
 292:Generated_Source\PSoC6\pdl\drivers\peripheral\prot/cy_prot.c **** *
 293:Generated_Source\PSoC6\pdl\drivers\peripheral\prot/cy_prot.c **** * Disables the MPU struct, which prevents the MPU protection attributes
 294:Generated_Source\PSoC6\pdl\drivers\peripheral\prot/cy_prot.c **** * from taking effect.
 295:Generated_Source\PSoC6\pdl\drivers\peripheral\prot/cy_prot.c **** *
 296:Generated_Source\PSoC6\pdl\drivers\peripheral\prot/cy_prot.c **** * \note This function is applicable for both CPUSS ver_1 and ver_2.
 297:Generated_Source\PSoC6\pdl\drivers\peripheral\prot/cy_prot.c **** *
 298:Generated_Source\PSoC6\pdl\drivers\peripheral\prot/cy_prot.c **** * \param base
 299:Generated_Source\PSoC6\pdl\drivers\peripheral\prot/cy_prot.c **** * The base address of the MPU struct being configured. 
 300:Generated_Source\PSoC6\pdl\drivers\peripheral\prot/cy_prot.c **** *
 301:Generated_Source\PSoC6\pdl\drivers\peripheral\prot/cy_prot.c **** * \return
 302:Generated_Source\PSoC6\pdl\drivers\peripheral\prot/cy_prot.c **** * Status of the function call.
 303:Generated_Source\PSoC6\pdl\drivers\peripheral\prot/cy_prot.c **** *
 304:Generated_Source\PSoC6\pdl\drivers\peripheral\prot/cy_prot.c **** *   Status               | Description
 305:Generated_Source\PSoC6\pdl\drivers\peripheral\prot/cy_prot.c **** *   ------------         | -----------
 306:Generated_Source\PSoC6\pdl\drivers\peripheral\prot/cy_prot.c **** *   CY_PROT_SUCCESS      | The MPU struct was disabled.
 307:Generated_Source\PSoC6\pdl\drivers\peripheral\prot/cy_prot.c **** *   CY_PROT_FAILURE      | The MPU struct is enabled and possibly locked.
 308:Generated_Source\PSoC6\pdl\drivers\peripheral\prot/cy_prot.c **** *
 309:Generated_Source\PSoC6\pdl\drivers\peripheral\prot/cy_prot.c **** * \funcusage
 310:Generated_Source\PSoC6\pdl\drivers\peripheral\prot/cy_prot.c **** * \snippet prot/1.20/snippet/main.c snippet_Cy_Prot_DisableMpuStruct
 311:Generated_Source\PSoC6\pdl\drivers\peripheral\prot/cy_prot.c **** *
 312:Generated_Source\PSoC6\pdl\drivers\peripheral\prot/cy_prot.c **** *******************************************************************************/
 313:Generated_Source\PSoC6\pdl\drivers\peripheral\prot/cy_prot.c **** cy_en_prot_status_t Cy_Prot_DisableMpuStruct(PROT_MPU_MPU_STRUCT_Type* base)
 314:Generated_Source\PSoC6\pdl\drivers\peripheral\prot/cy_prot.c **** {
 315:Generated_Source\PSoC6\pdl\drivers\peripheral\prot/cy_prot.c ****     cy_en_prot_status_t status;
 316:Generated_Source\PSoC6\pdl\drivers\peripheral\prot/cy_prot.c **** 
ARM GAS  C:\Users\Rolf\AppData\Local\Temp\ccTbcyL9.s 			page 7


 317:Generated_Source\PSoC6\pdl\drivers\peripheral\prot/cy_prot.c ****     CY_ASSERT_L1(NULL != base);
 318:Generated_Source\PSoC6\pdl\drivers\peripheral\prot/cy_prot.c ****     
 319:Generated_Source\PSoC6\pdl\drivers\peripheral\prot/cy_prot.c ****     PROT_MPU_MPU_STRUCT_ATT(base) &= ~_VAL2FLD(PROT_MPU_MPU_STRUCT_ATT_ENABLED, CY_PROT_STRUCT_ENAB
 320:Generated_Source\PSoC6\pdl\drivers\peripheral\prot/cy_prot.c ****     status = (_FLD2VAL(PROT_MPU_MPU_STRUCT_ATT_ENABLED, PROT_MPU_MPU_STRUCT_ATT(base)) == CY_PROT_S
 321:Generated_Source\PSoC6\pdl\drivers\peripheral\prot/cy_prot.c ****                CY_PROT_FAILURE : CY_PROT_SUCCESS;
 322:Generated_Source\PSoC6\pdl\drivers\peripheral\prot/cy_prot.c ****     
 323:Generated_Source\PSoC6\pdl\drivers\peripheral\prot/cy_prot.c ****     return status;
 324:Generated_Source\PSoC6\pdl\drivers\peripheral\prot/cy_prot.c **** }
 325:Generated_Source\PSoC6\pdl\drivers\peripheral\prot/cy_prot.c **** 
 326:Generated_Source\PSoC6\pdl\drivers\peripheral\prot/cy_prot.c **** 
 327:Generated_Source\PSoC6\pdl\drivers\peripheral\prot/cy_prot.c **** /*******************************************************************************
 328:Generated_Source\PSoC6\pdl\drivers\peripheral\prot/cy_prot.c **** * Function Name: Cy_Prot_ConfigSmpuMasterStruct
 329:Generated_Source\PSoC6\pdl\drivers\peripheral\prot/cy_prot.c **** ****************************************************************************//**
 330:Generated_Source\PSoC6\pdl\drivers\peripheral\prot/cy_prot.c **** *
 331:Generated_Source\PSoC6\pdl\drivers\peripheral\prot/cy_prot.c **** * Configures a Shared Memory Protection Unit (SMPU) master protection 
 332:Generated_Source\PSoC6\pdl\drivers\peripheral\prot/cy_prot.c **** * struct with its protection attributes. 
 333:Generated_Source\PSoC6\pdl\drivers\peripheral\prot/cy_prot.c **** *
 334:Generated_Source\PSoC6\pdl\drivers\peripheral\prot/cy_prot.c **** * This function configures the master struct governing the corresponding slave
 335:Generated_Source\PSoC6\pdl\drivers\peripheral\prot/cy_prot.c **** * struct pair. It is a mechanism to protect the slave SMPU struct. Since the
 336:Generated_Source\PSoC6\pdl\drivers\peripheral\prot/cy_prot.c **** * memory location of the slave struct is known, the address, regionSize and
 337:Generated_Source\PSoC6\pdl\drivers\peripheral\prot/cy_prot.c **** * subregions of the configuration struct are not applicable.
 338:Generated_Source\PSoC6\pdl\drivers\peripheral\prot/cy_prot.c **** *
 339:Generated_Source\PSoC6\pdl\drivers\peripheral\prot/cy_prot.c **** * Note that only the user/privileged write permissions are configurable. The 
 340:Generated_Source\PSoC6\pdl\drivers\peripheral\prot/cy_prot.c **** * read and execute permissions are read-only and cannot be configured.
 341:Generated_Source\PSoC6\pdl\drivers\peripheral\prot/cy_prot.c **** *
 342:Generated_Source\PSoC6\pdl\drivers\peripheral\prot/cy_prot.c **** * \note This function is applicable for both CPUSS ver_1 and ver_2.
 343:Generated_Source\PSoC6\pdl\drivers\peripheral\prot/cy_prot.c **** *
 344:Generated_Source\PSoC6\pdl\drivers\peripheral\prot/cy_prot.c **** * \param base
 345:Generated_Source\PSoC6\pdl\drivers\peripheral\prot/cy_prot.c **** * The register base address of the protection struct being configured.
 346:Generated_Source\PSoC6\pdl\drivers\peripheral\prot/cy_prot.c **** * 
 347:Generated_Source\PSoC6\pdl\drivers\peripheral\prot/cy_prot.c **** * \param config
 348:Generated_Source\PSoC6\pdl\drivers\peripheral\prot/cy_prot.c **** * Initialization structure with all the protection attributes.
 349:Generated_Source\PSoC6\pdl\drivers\peripheral\prot/cy_prot.c **** * 
 350:Generated_Source\PSoC6\pdl\drivers\peripheral\prot/cy_prot.c **** * \return
 351:Generated_Source\PSoC6\pdl\drivers\peripheral\prot/cy_prot.c **** * Status of the function call.
 352:Generated_Source\PSoC6\pdl\drivers\peripheral\prot/cy_prot.c **** *
 353:Generated_Source\PSoC6\pdl\drivers\peripheral\prot/cy_prot.c **** *   Status               | Description
 354:Generated_Source\PSoC6\pdl\drivers\peripheral\prot/cy_prot.c **** *   ------------         | -----------
 355:Generated_Source\PSoC6\pdl\drivers\peripheral\prot/cy_prot.c **** *   CY_PROT_SUCCESS      | SMPU master struct was successfully configured.
 356:Generated_Source\PSoC6\pdl\drivers\peripheral\prot/cy_prot.c **** *   CY_PROT_FAILURE      | The resource is locked.
 357:Generated_Source\PSoC6\pdl\drivers\peripheral\prot/cy_prot.c **** *   CY_PROT_BAD_PARAM    | An incorrect/invalid parameter was passed.
 358:Generated_Source\PSoC6\pdl\drivers\peripheral\prot/cy_prot.c **** *
 359:Generated_Source\PSoC6\pdl\drivers\peripheral\prot/cy_prot.c **** * \funcusage
 360:Generated_Source\PSoC6\pdl\drivers\peripheral\prot/cy_prot.c **** * \snippet prot/1.20/snippet/main.c snippet_Cy_Prot_ConfigSmpuMasterStruct
 361:Generated_Source\PSoC6\pdl\drivers\peripheral\prot/cy_prot.c **** *
 362:Generated_Source\PSoC6\pdl\drivers\peripheral\prot/cy_prot.c **** *******************************************************************************/
 363:Generated_Source\PSoC6\pdl\drivers\peripheral\prot/cy_prot.c **** cy_en_prot_status_t Cy_Prot_ConfigSmpuMasterStruct(PROT_SMPU_SMPU_STRUCT_Type* base, const cy_stc_s
 364:Generated_Source\PSoC6\pdl\drivers\peripheral\prot/cy_prot.c **** {
 365:Generated_Source\PSoC6\pdl\drivers\peripheral\prot/cy_prot.c ****     cy_en_prot_status_t status;
 366:Generated_Source\PSoC6\pdl\drivers\peripheral\prot/cy_prot.c ****     uint32_t attReg;
 367:Generated_Source\PSoC6\pdl\drivers\peripheral\prot/cy_prot.c ****     
 368:Generated_Source\PSoC6\pdl\drivers\peripheral\prot/cy_prot.c ****     CY_ASSERT_L1(NULL != base);
 369:Generated_Source\PSoC6\pdl\drivers\peripheral\prot/cy_prot.c ****     CY_ASSERT_L2(CY_PROT_IS_PC_MASK_VALID(config->pcMask));
 370:Generated_Source\PSoC6\pdl\drivers\peripheral\prot/cy_prot.c ****     CY_ASSERT_L3(CY_PROT_IS_SMPU_MS_PERM_VALID(config->userPermission));
 371:Generated_Source\PSoC6\pdl\drivers\peripheral\prot/cy_prot.c ****     CY_ASSERT_L3(CY_PROT_IS_SMPU_MS_PERM_VALID(config->privPermission));
 372:Generated_Source\PSoC6\pdl\drivers\peripheral\prot/cy_prot.c ****     
 373:Generated_Source\PSoC6\pdl\drivers\peripheral\prot/cy_prot.c ****     if(((uint32_t)config->pcMask & CY_PROT_SMPU_PC_LIMIT_MASK) != 0UL) 
ARM GAS  C:\Users\Rolf\AppData\Local\Temp\ccTbcyL9.s 			page 8


 374:Generated_Source\PSoC6\pdl\drivers\peripheral\prot/cy_prot.c ****     {
 375:Generated_Source\PSoC6\pdl\drivers\peripheral\prot/cy_prot.c ****         /* PC mask out of range - not supported in device */
 376:Generated_Source\PSoC6\pdl\drivers\peripheral\prot/cy_prot.c ****         status = CY_PROT_BAD_PARAM;
 377:Generated_Source\PSoC6\pdl\drivers\peripheral\prot/cy_prot.c ****     }
 378:Generated_Source\PSoC6\pdl\drivers\peripheral\prot/cy_prot.c ****     else
 379:Generated_Source\PSoC6\pdl\drivers\peripheral\prot/cy_prot.c ****     {
 380:Generated_Source\PSoC6\pdl\drivers\peripheral\prot/cy_prot.c ****         /* ADDR1 is read only. Only configure ATT1 */
 381:Generated_Source\PSoC6\pdl\drivers\peripheral\prot/cy_prot.c ****         attReg = ((uint32_t)config->userPermission & CY_PROT_ATT_PERMISSION_MASK)
 382:Generated_Source\PSoC6\pdl\drivers\peripheral\prot/cy_prot.c ****                     | (uint32_t)(((uint32_t)config->privPermission & CY_PROT_ATT_PERMISSION_MASK) <
 383:Generated_Source\PSoC6\pdl\drivers\peripheral\prot/cy_prot.c ****                     | _VAL2FLD(PROT_SMPU_SMPU_STRUCT_ATT1_NS, !(config->secure))
 384:Generated_Source\PSoC6\pdl\drivers\peripheral\prot/cy_prot.c ****                     | _VAL2FLD(PROT_SMPU_SMPU_STRUCT_ATT1_PC_MASK_15_TO_1, config->pcMask)
 385:Generated_Source\PSoC6\pdl\drivers\peripheral\prot/cy_prot.c ****                     /* No region size - read only for master structs */
 386:Generated_Source\PSoC6\pdl\drivers\peripheral\prot/cy_prot.c ****                     | _VAL2FLD(PROT_SMPU_SMPU_STRUCT_ATT1_PC_MATCH, config->pcMatch);
 387:Generated_Source\PSoC6\pdl\drivers\peripheral\prot/cy_prot.c ****         if ((attReg & CY_PROT_SMPU_ATT1_MASK) != attReg)
 388:Generated_Source\PSoC6\pdl\drivers\peripheral\prot/cy_prot.c ****         {
 389:Generated_Source\PSoC6\pdl\drivers\peripheral\prot/cy_prot.c ****             /* Invalid parameter was passed */
 390:Generated_Source\PSoC6\pdl\drivers\peripheral\prot/cy_prot.c ****             status = CY_PROT_BAD_PARAM;
 391:Generated_Source\PSoC6\pdl\drivers\peripheral\prot/cy_prot.c ****         }
 392:Generated_Source\PSoC6\pdl\drivers\peripheral\prot/cy_prot.c ****         else
 393:Generated_Source\PSoC6\pdl\drivers\peripheral\prot/cy_prot.c ****         {
 394:Generated_Source\PSoC6\pdl\drivers\peripheral\prot/cy_prot.c ****             PROT_SMPU_SMPU_STRUCT_ATT1(base) = attReg;
 395:Generated_Source\PSoC6\pdl\drivers\peripheral\prot/cy_prot.c ****             status = ((PROT_SMPU_SMPU_STRUCT_ATT1(base) & CY_PROT_SMPU_ATT1_MASK) != attReg) ? CY_P
 396:Generated_Source\PSoC6\pdl\drivers\peripheral\prot/cy_prot.c ****         }
 397:Generated_Source\PSoC6\pdl\drivers\peripheral\prot/cy_prot.c ****     }
 398:Generated_Source\PSoC6\pdl\drivers\peripheral\prot/cy_prot.c ****     
 399:Generated_Source\PSoC6\pdl\drivers\peripheral\prot/cy_prot.c ****     return status;
 400:Generated_Source\PSoC6\pdl\drivers\peripheral\prot/cy_prot.c **** }
 401:Generated_Source\PSoC6\pdl\drivers\peripheral\prot/cy_prot.c **** 
 402:Generated_Source\PSoC6\pdl\drivers\peripheral\prot/cy_prot.c **** 
 403:Generated_Source\PSoC6\pdl\drivers\peripheral\prot/cy_prot.c **** /*******************************************************************************
 404:Generated_Source\PSoC6\pdl\drivers\peripheral\prot/cy_prot.c **** * Function Name: Cy_Prot_ConfigSmpuSlaveStruct
 405:Generated_Source\PSoC6\pdl\drivers\peripheral\prot/cy_prot.c **** ****************************************************************************//**
 406:Generated_Source\PSoC6\pdl\drivers\peripheral\prot/cy_prot.c **** *
 407:Generated_Source\PSoC6\pdl\drivers\peripheral\prot/cy_prot.c **** * Configures a Shared Memory Protection Unit (SMPU) slave protection 
 408:Generated_Source\PSoC6\pdl\drivers\peripheral\prot/cy_prot.c **** * struct with its protection attributes. 
 409:Generated_Source\PSoC6\pdl\drivers\peripheral\prot/cy_prot.c **** * 
 410:Generated_Source\PSoC6\pdl\drivers\peripheral\prot/cy_prot.c **** * This function configures the slave struct of an SMPU pair, which can protect
 411:Generated_Source\PSoC6\pdl\drivers\peripheral\prot/cy_prot.c **** * any memory region in a device from invalid bus master accesses.
 412:Generated_Source\PSoC6\pdl\drivers\peripheral\prot/cy_prot.c **** *
 413:Generated_Source\PSoC6\pdl\drivers\peripheral\prot/cy_prot.c **** * \note This function is applicable for both CPUSS ver_1 and ver_2.
 414:Generated_Source\PSoC6\pdl\drivers\peripheral\prot/cy_prot.c **** *
 415:Generated_Source\PSoC6\pdl\drivers\peripheral\prot/cy_prot.c **** * \param base
 416:Generated_Source\PSoC6\pdl\drivers\peripheral\prot/cy_prot.c **** * The register base address of the protection structure being configured.
 417:Generated_Source\PSoC6\pdl\drivers\peripheral\prot/cy_prot.c **** * 
 418:Generated_Source\PSoC6\pdl\drivers\peripheral\prot/cy_prot.c **** * \param config
 419:Generated_Source\PSoC6\pdl\drivers\peripheral\prot/cy_prot.c **** * Initialization structure with all the protection attributes.
 420:Generated_Source\PSoC6\pdl\drivers\peripheral\prot/cy_prot.c **** * 
 421:Generated_Source\PSoC6\pdl\drivers\peripheral\prot/cy_prot.c **** * \return
 422:Generated_Source\PSoC6\pdl\drivers\peripheral\prot/cy_prot.c **** * Status of the function call.
 423:Generated_Source\PSoC6\pdl\drivers\peripheral\prot/cy_prot.c **** *
 424:Generated_Source\PSoC6\pdl\drivers\peripheral\prot/cy_prot.c **** *   Status               | Description
 425:Generated_Source\PSoC6\pdl\drivers\peripheral\prot/cy_prot.c **** *   ------------         | -----------
 426:Generated_Source\PSoC6\pdl\drivers\peripheral\prot/cy_prot.c **** *   CY_PROT_SUCCESS      | SMPU slave struct was successfully configured.
 427:Generated_Source\PSoC6\pdl\drivers\peripheral\prot/cy_prot.c **** *   CY_PROT_FAILURE      | The resource is locked.
 428:Generated_Source\PSoC6\pdl\drivers\peripheral\prot/cy_prot.c **** *   CY_PROT_BAD_PARAM    | An incorrect/invalid parameter was passed.
 429:Generated_Source\PSoC6\pdl\drivers\peripheral\prot/cy_prot.c **** *
 430:Generated_Source\PSoC6\pdl\drivers\peripheral\prot/cy_prot.c **** * \funcusage
ARM GAS  C:\Users\Rolf\AppData\Local\Temp\ccTbcyL9.s 			page 9


 431:Generated_Source\PSoC6\pdl\drivers\peripheral\prot/cy_prot.c **** * \snippet prot/1.20/snippet/main.c snippet_Cy_Prot_ConfigSmpuSlaveStruct
 432:Generated_Source\PSoC6\pdl\drivers\peripheral\prot/cy_prot.c **** *
 433:Generated_Source\PSoC6\pdl\drivers\peripheral\prot/cy_prot.c **** *******************************************************************************/
 434:Generated_Source\PSoC6\pdl\drivers\peripheral\prot/cy_prot.c **** cy_en_prot_status_t Cy_Prot_ConfigSmpuSlaveStruct(PROT_SMPU_SMPU_STRUCT_Type* base, const cy_stc_sm
 435:Generated_Source\PSoC6\pdl\drivers\peripheral\prot/cy_prot.c **** {
 436:Generated_Source\PSoC6\pdl\drivers\peripheral\prot/cy_prot.c ****     cy_en_prot_status_t status = CY_PROT_SUCCESS;
 437:Generated_Source\PSoC6\pdl\drivers\peripheral\prot/cy_prot.c ****     uint32_t addrReg;
 438:Generated_Source\PSoC6\pdl\drivers\peripheral\prot/cy_prot.c ****     uint32_t attReg;
 439:Generated_Source\PSoC6\pdl\drivers\peripheral\prot/cy_prot.c ****     
 440:Generated_Source\PSoC6\pdl\drivers\peripheral\prot/cy_prot.c ****     CY_ASSERT_L1(NULL != base);
 441:Generated_Source\PSoC6\pdl\drivers\peripheral\prot/cy_prot.c ****     CY_ASSERT_L2(CY_PROT_IS_PC_MASK_VALID(config->pcMask));
 442:Generated_Source\PSoC6\pdl\drivers\peripheral\prot/cy_prot.c ****     CY_ASSERT_L3(CY_PROT_IS_SMPU_SL_PERM_VALID(config->userPermission));
 443:Generated_Source\PSoC6\pdl\drivers\peripheral\prot/cy_prot.c ****     CY_ASSERT_L3(CY_PROT_IS_SMPU_SL_PERM_VALID(config->privPermission));
 444:Generated_Source\PSoC6\pdl\drivers\peripheral\prot/cy_prot.c ****     CY_ASSERT_L3(CY_PROT_IS_REGION_SIZE_VALID(config->regionSize));
 445:Generated_Source\PSoC6\pdl\drivers\peripheral\prot/cy_prot.c **** 
 446:Generated_Source\PSoC6\pdl\drivers\peripheral\prot/cy_prot.c ****     if(((uint32_t)config->pcMask & CY_PROT_SMPU_PC_LIMIT_MASK) != 0UL) 
 447:Generated_Source\PSoC6\pdl\drivers\peripheral\prot/cy_prot.c ****     {
 448:Generated_Source\PSoC6\pdl\drivers\peripheral\prot/cy_prot.c ****         /* PC mask out of range - not supported in device */
 449:Generated_Source\PSoC6\pdl\drivers\peripheral\prot/cy_prot.c ****         status = CY_PROT_BAD_PARAM;
 450:Generated_Source\PSoC6\pdl\drivers\peripheral\prot/cy_prot.c ****     }
 451:Generated_Source\PSoC6\pdl\drivers\peripheral\prot/cy_prot.c ****     else
 452:Generated_Source\PSoC6\pdl\drivers\peripheral\prot/cy_prot.c ****     {
 453:Generated_Source\PSoC6\pdl\drivers\peripheral\prot/cy_prot.c ****         addrReg= _VAL2FLD(PROT_SMPU_SMPU_STRUCT_ADDR0_SUBREGION_DISABLE, config->subregions)
 454:Generated_Source\PSoC6\pdl\drivers\peripheral\prot/cy_prot.c ****                     | _VAL2FLD(PROT_SMPU_SMPU_STRUCT_ADDR0_ADDR24, (uint32_t)((uint32_t)config->add
 455:Generated_Source\PSoC6\pdl\drivers\peripheral\prot/cy_prot.c ****         attReg= ((uint32_t)config->userPermission & CY_PROT_ATT_PERMISSION_MASK)
 456:Generated_Source\PSoC6\pdl\drivers\peripheral\prot/cy_prot.c ****                     | (uint32_t)(((uint32_t)config->privPermission & CY_PROT_ATT_PERMISSION_MASK) <
 457:Generated_Source\PSoC6\pdl\drivers\peripheral\prot/cy_prot.c ****                     | _VAL2FLD(PROT_SMPU_SMPU_STRUCT_ATT0_NS, !(config->secure))
 458:Generated_Source\PSoC6\pdl\drivers\peripheral\prot/cy_prot.c ****                     | _VAL2FLD(PROT_SMPU_SMPU_STRUCT_ATT0_PC_MASK_15_TO_1, config->pcMask)
 459:Generated_Source\PSoC6\pdl\drivers\peripheral\prot/cy_prot.c ****                     | _VAL2FLD(PROT_SMPU_SMPU_STRUCT_ATT0_REGION_SIZE, config->regionSize)
 460:Generated_Source\PSoC6\pdl\drivers\peripheral\prot/cy_prot.c ****                     | _VAL2FLD(PROT_SMPU_SMPU_STRUCT_ATT0_PC_MATCH, config->pcMatch);
 461:Generated_Source\PSoC6\pdl\drivers\peripheral\prot/cy_prot.c ****         PROT_SMPU_SMPU_STRUCT_ATT0(base) = attReg;
 462:Generated_Source\PSoC6\pdl\drivers\peripheral\prot/cy_prot.c ****         PROT_SMPU_SMPU_STRUCT_ADDR0(base) = addrReg;
 463:Generated_Source\PSoC6\pdl\drivers\peripheral\prot/cy_prot.c ****         status = ((PROT_SMPU_SMPU_STRUCT_ADDR0(base) != addrReg) || ((PROT_SMPU_SMPU_STRUCT_ATT0(ba
 464:Generated_Source\PSoC6\pdl\drivers\peripheral\prot/cy_prot.c ****             ? CY_PROT_FAILURE : CY_PROT_SUCCESS;
 465:Generated_Source\PSoC6\pdl\drivers\peripheral\prot/cy_prot.c ****     }
 466:Generated_Source\PSoC6\pdl\drivers\peripheral\prot/cy_prot.c ****     
 467:Generated_Source\PSoC6\pdl\drivers\peripheral\prot/cy_prot.c ****     return status;
 468:Generated_Source\PSoC6\pdl\drivers\peripheral\prot/cy_prot.c **** }
 469:Generated_Source\PSoC6\pdl\drivers\peripheral\prot/cy_prot.c **** 
 470:Generated_Source\PSoC6\pdl\drivers\peripheral\prot/cy_prot.c **** 
 471:Generated_Source\PSoC6\pdl\drivers\peripheral\prot/cy_prot.c **** /*******************************************************************************
 472:Generated_Source\PSoC6\pdl\drivers\peripheral\prot/cy_prot.c **** * Function Name: Cy_Prot_EnableSmpuMasterStruct
 473:Generated_Source\PSoC6\pdl\drivers\peripheral\prot/cy_prot.c **** ****************************************************************************//**
 474:Generated_Source\PSoC6\pdl\drivers\peripheral\prot/cy_prot.c **** *
 475:Generated_Source\PSoC6\pdl\drivers\peripheral\prot/cy_prot.c **** * Enables the Master SMPU structure.
 476:Generated_Source\PSoC6\pdl\drivers\peripheral\prot/cy_prot.c **** *
 477:Generated_Source\PSoC6\pdl\drivers\peripheral\prot/cy_prot.c **** * This is an SMPU master struct enable function. The SMPU protection settings
 478:Generated_Source\PSoC6\pdl\drivers\peripheral\prot/cy_prot.c **** * will take effect after successful completion of this function call.
 479:Generated_Source\PSoC6\pdl\drivers\peripheral\prot/cy_prot.c **** *
 480:Generated_Source\PSoC6\pdl\drivers\peripheral\prot/cy_prot.c **** * \note This function is applicable for both CPUSS ver_1 and ver_2.
 481:Generated_Source\PSoC6\pdl\drivers\peripheral\prot/cy_prot.c **** *
 482:Generated_Source\PSoC6\pdl\drivers\peripheral\prot/cy_prot.c **** * \param base
 483:Generated_Source\PSoC6\pdl\drivers\peripheral\prot/cy_prot.c **** * The base address for the protection unit structure being configured. 
 484:Generated_Source\PSoC6\pdl\drivers\peripheral\prot/cy_prot.c **** *
 485:Generated_Source\PSoC6\pdl\drivers\peripheral\prot/cy_prot.c **** * \return
 486:Generated_Source\PSoC6\pdl\drivers\peripheral\prot/cy_prot.c **** * Status of the function call.
 487:Generated_Source\PSoC6\pdl\drivers\peripheral\prot/cy_prot.c **** *
ARM GAS  C:\Users\Rolf\AppData\Local\Temp\ccTbcyL9.s 			page 10


 488:Generated_Source\PSoC6\pdl\drivers\peripheral\prot/cy_prot.c **** *   Status               | Description
 489:Generated_Source\PSoC6\pdl\drivers\peripheral\prot/cy_prot.c **** *   ------------         | -----------
 490:Generated_Source\PSoC6\pdl\drivers\peripheral\prot/cy_prot.c **** *   CY_PROT_SUCCESS      | The Master PU struct was enabled.
 491:Generated_Source\PSoC6\pdl\drivers\peripheral\prot/cy_prot.c **** *   CY_PROT_FAILURE      | The Master PU struct is disabled and possibly locked.
 492:Generated_Source\PSoC6\pdl\drivers\peripheral\prot/cy_prot.c **** *
 493:Generated_Source\PSoC6\pdl\drivers\peripheral\prot/cy_prot.c **** * \funcusage
 494:Generated_Source\PSoC6\pdl\drivers\peripheral\prot/cy_prot.c **** * \snippet prot/1.20/snippet/main.c snippet_Cy_Prot_EnableSmpuMasterStruct
 495:Generated_Source\PSoC6\pdl\drivers\peripheral\prot/cy_prot.c **** *
 496:Generated_Source\PSoC6\pdl\drivers\peripheral\prot/cy_prot.c **** *******************************************************************************/
 497:Generated_Source\PSoC6\pdl\drivers\peripheral\prot/cy_prot.c **** cy_en_prot_status_t Cy_Prot_EnableSmpuMasterStruct(PROT_SMPU_SMPU_STRUCT_Type* base)
 498:Generated_Source\PSoC6\pdl\drivers\peripheral\prot/cy_prot.c **** {
 499:Generated_Source\PSoC6\pdl\drivers\peripheral\prot/cy_prot.c ****     cy_en_prot_status_t status;
 500:Generated_Source\PSoC6\pdl\drivers\peripheral\prot/cy_prot.c ****     
 501:Generated_Source\PSoC6\pdl\drivers\peripheral\prot/cy_prot.c ****     CY_ASSERT_L1(NULL != base);
 502:Generated_Source\PSoC6\pdl\drivers\peripheral\prot/cy_prot.c ****     
 503:Generated_Source\PSoC6\pdl\drivers\peripheral\prot/cy_prot.c ****     PROT_SMPU_SMPU_STRUCT_ATT1(base) |= _VAL2FLD(PROT_SMPU_SMPU_STRUCT_ATT1_ENABLED, CY_PROT_STRUCT
 504:Generated_Source\PSoC6\pdl\drivers\peripheral\prot/cy_prot.c ****     status = (_FLD2VAL(PROT_SMPU_SMPU_STRUCT_ATT1_ENABLED, PROT_SMPU_SMPU_STRUCT_ATT1(base)) != CY_
 505:Generated_Source\PSoC6\pdl\drivers\peripheral\prot/cy_prot.c ****                 CY_PROT_FAILURE : CY_PROT_SUCCESS;
 506:Generated_Source\PSoC6\pdl\drivers\peripheral\prot/cy_prot.c ****     
 507:Generated_Source\PSoC6\pdl\drivers\peripheral\prot/cy_prot.c ****     return status;
 508:Generated_Source\PSoC6\pdl\drivers\peripheral\prot/cy_prot.c **** }
 509:Generated_Source\PSoC6\pdl\drivers\peripheral\prot/cy_prot.c **** 
 510:Generated_Source\PSoC6\pdl\drivers\peripheral\prot/cy_prot.c **** 
 511:Generated_Source\PSoC6\pdl\drivers\peripheral\prot/cy_prot.c **** /*******************************************************************************
 512:Generated_Source\PSoC6\pdl\drivers\peripheral\prot/cy_prot.c **** * Function Name: Cy_Prot_DisableSmpuMasterStruct
 513:Generated_Source\PSoC6\pdl\drivers\peripheral\prot/cy_prot.c **** ****************************************************************************//**
 514:Generated_Source\PSoC6\pdl\drivers\peripheral\prot/cy_prot.c **** *
 515:Generated_Source\PSoC6\pdl\drivers\peripheral\prot/cy_prot.c **** * Disables the Master SMPU structure.
 516:Generated_Source\PSoC6\pdl\drivers\peripheral\prot/cy_prot.c **** *
 517:Generated_Source\PSoC6\pdl\drivers\peripheral\prot/cy_prot.c **** * This is an SMPU master struct disable function. The SMPU protection settings
 518:Generated_Source\PSoC6\pdl\drivers\peripheral\prot/cy_prot.c **** * will seize to take effect after successful completion of this function call.
 519:Generated_Source\PSoC6\pdl\drivers\peripheral\prot/cy_prot.c **** *
 520:Generated_Source\PSoC6\pdl\drivers\peripheral\prot/cy_prot.c **** * \note This function is applicable for both CPUSS ver_1 and ver_2.
 521:Generated_Source\PSoC6\pdl\drivers\peripheral\prot/cy_prot.c **** *
 522:Generated_Source\PSoC6\pdl\drivers\peripheral\prot/cy_prot.c **** * \param base
 523:Generated_Source\PSoC6\pdl\drivers\peripheral\prot/cy_prot.c **** * The base address for the protection unit structure being configured. 
 524:Generated_Source\PSoC6\pdl\drivers\peripheral\prot/cy_prot.c **** *
 525:Generated_Source\PSoC6\pdl\drivers\peripheral\prot/cy_prot.c **** * \return
 526:Generated_Source\PSoC6\pdl\drivers\peripheral\prot/cy_prot.c **** * Status of the function call.
 527:Generated_Source\PSoC6\pdl\drivers\peripheral\prot/cy_prot.c **** *
 528:Generated_Source\PSoC6\pdl\drivers\peripheral\prot/cy_prot.c **** *   Status               | Description
 529:Generated_Source\PSoC6\pdl\drivers\peripheral\prot/cy_prot.c **** *   ------------         | -----------
 530:Generated_Source\PSoC6\pdl\drivers\peripheral\prot/cy_prot.c **** *   CY_PROT_SUCCESS      | The Master PU struct was disabled.
 531:Generated_Source\PSoC6\pdl\drivers\peripheral\prot/cy_prot.c **** *   CY_PROT_FAILURE      | The Master PU struct is enabled and possibly locked.
 532:Generated_Source\PSoC6\pdl\drivers\peripheral\prot/cy_prot.c **** *
 533:Generated_Source\PSoC6\pdl\drivers\peripheral\prot/cy_prot.c **** * \funcusage
 534:Generated_Source\PSoC6\pdl\drivers\peripheral\prot/cy_prot.c **** * \snippet prot/1.20/snippet/main.c snippet_Cy_Prot_DisableSmpuMasterStruct
 535:Generated_Source\PSoC6\pdl\drivers\peripheral\prot/cy_prot.c **** *
 536:Generated_Source\PSoC6\pdl\drivers\peripheral\prot/cy_prot.c **** *******************************************************************************/
 537:Generated_Source\PSoC6\pdl\drivers\peripheral\prot/cy_prot.c **** cy_en_prot_status_t Cy_Prot_DisableSmpuMasterStruct(PROT_SMPU_SMPU_STRUCT_Type* base)
 538:Generated_Source\PSoC6\pdl\drivers\peripheral\prot/cy_prot.c **** {
 539:Generated_Source\PSoC6\pdl\drivers\peripheral\prot/cy_prot.c ****     cy_en_prot_status_t status;
 540:Generated_Source\PSoC6\pdl\drivers\peripheral\prot/cy_prot.c ****     
 541:Generated_Source\PSoC6\pdl\drivers\peripheral\prot/cy_prot.c ****     CY_ASSERT_L1(NULL != base);
 542:Generated_Source\PSoC6\pdl\drivers\peripheral\prot/cy_prot.c ****     
 543:Generated_Source\PSoC6\pdl\drivers\peripheral\prot/cy_prot.c ****     PROT_SMPU_SMPU_STRUCT_ATT1(base) &= ~_VAL2FLD(PROT_SMPU_SMPU_STRUCT_ATT1_ENABLED, CY_PROT_STRUC
 544:Generated_Source\PSoC6\pdl\drivers\peripheral\prot/cy_prot.c ****     status = (_FLD2VAL(PROT_SMPU_SMPU_STRUCT_ATT1_ENABLED, PROT_SMPU_SMPU_STRUCT_ATT1(base)) == CY_
ARM GAS  C:\Users\Rolf\AppData\Local\Temp\ccTbcyL9.s 			page 11


 545:Generated_Source\PSoC6\pdl\drivers\peripheral\prot/cy_prot.c ****                 CY_PROT_FAILURE : CY_PROT_SUCCESS;
 546:Generated_Source\PSoC6\pdl\drivers\peripheral\prot/cy_prot.c ****     
 547:Generated_Source\PSoC6\pdl\drivers\peripheral\prot/cy_prot.c ****     return status;
 548:Generated_Source\PSoC6\pdl\drivers\peripheral\prot/cy_prot.c **** }
 549:Generated_Source\PSoC6\pdl\drivers\peripheral\prot/cy_prot.c **** 
 550:Generated_Source\PSoC6\pdl\drivers\peripheral\prot/cy_prot.c **** 
 551:Generated_Source\PSoC6\pdl\drivers\peripheral\prot/cy_prot.c **** /*******************************************************************************
 552:Generated_Source\PSoC6\pdl\drivers\peripheral\prot/cy_prot.c **** * Function Name: Cy_Prot_EnableSmpuSlaveStruct
 553:Generated_Source\PSoC6\pdl\drivers\peripheral\prot/cy_prot.c **** ****************************************************************************//**
 554:Generated_Source\PSoC6\pdl\drivers\peripheral\prot/cy_prot.c **** *
 555:Generated_Source\PSoC6\pdl\drivers\peripheral\prot/cy_prot.c **** * Enables the Slave SMPU structure.
 556:Generated_Source\PSoC6\pdl\drivers\peripheral\prot/cy_prot.c **** *
 557:Generated_Source\PSoC6\pdl\drivers\peripheral\prot/cy_prot.c **** * This is an SMPU slave struct enable function. The SMPU protection settings
 558:Generated_Source\PSoC6\pdl\drivers\peripheral\prot/cy_prot.c **** * will take effect after successful completion of this function call.
 559:Generated_Source\PSoC6\pdl\drivers\peripheral\prot/cy_prot.c **** *
 560:Generated_Source\PSoC6\pdl\drivers\peripheral\prot/cy_prot.c **** * \note This function is applicable for both CPUSS ver_1 and ver_2.
 561:Generated_Source\PSoC6\pdl\drivers\peripheral\prot/cy_prot.c **** *
 562:Generated_Source\PSoC6\pdl\drivers\peripheral\prot/cy_prot.c **** * \param base
 563:Generated_Source\PSoC6\pdl\drivers\peripheral\prot/cy_prot.c **** * The base address for the protection unit structure being configured. 
 564:Generated_Source\PSoC6\pdl\drivers\peripheral\prot/cy_prot.c **** *
 565:Generated_Source\PSoC6\pdl\drivers\peripheral\prot/cy_prot.c **** * \return
 566:Generated_Source\PSoC6\pdl\drivers\peripheral\prot/cy_prot.c **** * Status of the function call.
 567:Generated_Source\PSoC6\pdl\drivers\peripheral\prot/cy_prot.c **** *
 568:Generated_Source\PSoC6\pdl\drivers\peripheral\prot/cy_prot.c **** *   Status               | Description
 569:Generated_Source\PSoC6\pdl\drivers\peripheral\prot/cy_prot.c **** *   ------------         | -----------
 570:Generated_Source\PSoC6\pdl\drivers\peripheral\prot/cy_prot.c **** *   CY_PROT_SUCCESS      | The Slave PU struct was enabled.
 571:Generated_Source\PSoC6\pdl\drivers\peripheral\prot/cy_prot.c **** *   CY_PROT_FAILURE      | The Slave PU struct is disabled and possibly locked.
 572:Generated_Source\PSoC6\pdl\drivers\peripheral\prot/cy_prot.c **** *
 573:Generated_Source\PSoC6\pdl\drivers\peripheral\prot/cy_prot.c **** * \funcusage
 574:Generated_Source\PSoC6\pdl\drivers\peripheral\prot/cy_prot.c **** * \snippet prot/1.20/snippet/main.c snippet_Cy_Prot_EnableSmpuSlaveStruct
 575:Generated_Source\PSoC6\pdl\drivers\peripheral\prot/cy_prot.c **** *
 576:Generated_Source\PSoC6\pdl\drivers\peripheral\prot/cy_prot.c **** *******************************************************************************/
 577:Generated_Source\PSoC6\pdl\drivers\peripheral\prot/cy_prot.c **** cy_en_prot_status_t Cy_Prot_EnableSmpuSlaveStruct(PROT_SMPU_SMPU_STRUCT_Type* base)
 578:Generated_Source\PSoC6\pdl\drivers\peripheral\prot/cy_prot.c **** {
 579:Generated_Source\PSoC6\pdl\drivers\peripheral\prot/cy_prot.c ****     cy_en_prot_status_t status;
 580:Generated_Source\PSoC6\pdl\drivers\peripheral\prot/cy_prot.c ****     
 581:Generated_Source\PSoC6\pdl\drivers\peripheral\prot/cy_prot.c ****     CY_ASSERT_L1(NULL != base);
 582:Generated_Source\PSoC6\pdl\drivers\peripheral\prot/cy_prot.c ****     
 583:Generated_Source\PSoC6\pdl\drivers\peripheral\prot/cy_prot.c ****     PROT_SMPU_SMPU_STRUCT_ATT0(base) |= _VAL2FLD(PROT_SMPU_SMPU_STRUCT_ATT0_ENABLED, CY_PROT_STRUCT
 584:Generated_Source\PSoC6\pdl\drivers\peripheral\prot/cy_prot.c ****     status = (_FLD2VAL(PROT_SMPU_SMPU_STRUCT_ATT0_ENABLED, PROT_SMPU_SMPU_STRUCT_ATT0(base)) != CY_
 585:Generated_Source\PSoC6\pdl\drivers\peripheral\prot/cy_prot.c ****                 CY_PROT_FAILURE : CY_PROT_SUCCESS;
 586:Generated_Source\PSoC6\pdl\drivers\peripheral\prot/cy_prot.c ****     
 587:Generated_Source\PSoC6\pdl\drivers\peripheral\prot/cy_prot.c ****     return status;
 588:Generated_Source\PSoC6\pdl\drivers\peripheral\prot/cy_prot.c **** }
 589:Generated_Source\PSoC6\pdl\drivers\peripheral\prot/cy_prot.c **** 
 590:Generated_Source\PSoC6\pdl\drivers\peripheral\prot/cy_prot.c **** 
 591:Generated_Source\PSoC6\pdl\drivers\peripheral\prot/cy_prot.c **** /*******************************************************************************
 592:Generated_Source\PSoC6\pdl\drivers\peripheral\prot/cy_prot.c **** * Function Name: Cy_Prot_DisableSmpuSlaveStruct
 593:Generated_Source\PSoC6\pdl\drivers\peripheral\prot/cy_prot.c **** ****************************************************************************//**
 594:Generated_Source\PSoC6\pdl\drivers\peripheral\prot/cy_prot.c **** *
 595:Generated_Source\PSoC6\pdl\drivers\peripheral\prot/cy_prot.c **** * Disables the Slave SMPU structure.
 596:Generated_Source\PSoC6\pdl\drivers\peripheral\prot/cy_prot.c **** *
 597:Generated_Source\PSoC6\pdl\drivers\peripheral\prot/cy_prot.c **** * This is an SMPU slave struct disable function. The SMPU protection settings
 598:Generated_Source\PSoC6\pdl\drivers\peripheral\prot/cy_prot.c **** * will seize to take effect after successful completion of this function call.
 599:Generated_Source\PSoC6\pdl\drivers\peripheral\prot/cy_prot.c **** *
 600:Generated_Source\PSoC6\pdl\drivers\peripheral\prot/cy_prot.c **** * \note This function is applicable for both CPUSS ver_1 and ver_2.
 601:Generated_Source\PSoC6\pdl\drivers\peripheral\prot/cy_prot.c **** *
ARM GAS  C:\Users\Rolf\AppData\Local\Temp\ccTbcyL9.s 			page 12


 602:Generated_Source\PSoC6\pdl\drivers\peripheral\prot/cy_prot.c **** * \param base
 603:Generated_Source\PSoC6\pdl\drivers\peripheral\prot/cy_prot.c **** * The base address for the protection unit structure being configured. 
 604:Generated_Source\PSoC6\pdl\drivers\peripheral\prot/cy_prot.c **** *
 605:Generated_Source\PSoC6\pdl\drivers\peripheral\prot/cy_prot.c **** * \return
 606:Generated_Source\PSoC6\pdl\drivers\peripheral\prot/cy_prot.c **** * Status of the function call.
 607:Generated_Source\PSoC6\pdl\drivers\peripheral\prot/cy_prot.c **** *
 608:Generated_Source\PSoC6\pdl\drivers\peripheral\prot/cy_prot.c **** *   Status               | Description
 609:Generated_Source\PSoC6\pdl\drivers\peripheral\prot/cy_prot.c **** *   ------------         | -----------
 610:Generated_Source\PSoC6\pdl\drivers\peripheral\prot/cy_prot.c **** *   CY_PROT_SUCCESS      | The Slave PU struct was disabled.
 611:Generated_Source\PSoC6\pdl\drivers\peripheral\prot/cy_prot.c **** *   CY_PROT_FAILURE      | The Slave PU struct is enabled and possibly locked.
 612:Generated_Source\PSoC6\pdl\drivers\peripheral\prot/cy_prot.c **** *
 613:Generated_Source\PSoC6\pdl\drivers\peripheral\prot/cy_prot.c **** * \funcusage
 614:Generated_Source\PSoC6\pdl\drivers\peripheral\prot/cy_prot.c **** * \snippet prot/1.20/snippet/main.c snippet_Cy_Prot_DisableSmpuSlaveStruct
 615:Generated_Source\PSoC6\pdl\drivers\peripheral\prot/cy_prot.c **** *
 616:Generated_Source\PSoC6\pdl\drivers\peripheral\prot/cy_prot.c **** *******************************************************************************/
 617:Generated_Source\PSoC6\pdl\drivers\peripheral\prot/cy_prot.c **** cy_en_prot_status_t Cy_Prot_DisableSmpuSlaveStruct(PROT_SMPU_SMPU_STRUCT_Type* base)
 618:Generated_Source\PSoC6\pdl\drivers\peripheral\prot/cy_prot.c **** {
 619:Generated_Source\PSoC6\pdl\drivers\peripheral\prot/cy_prot.c ****     cy_en_prot_status_t status;
 620:Generated_Source\PSoC6\pdl\drivers\peripheral\prot/cy_prot.c ****     
 621:Generated_Source\PSoC6\pdl\drivers\peripheral\prot/cy_prot.c ****     CY_ASSERT_L1(NULL != base);
 622:Generated_Source\PSoC6\pdl\drivers\peripheral\prot/cy_prot.c ****     
 623:Generated_Source\PSoC6\pdl\drivers\peripheral\prot/cy_prot.c ****     PROT_SMPU_SMPU_STRUCT_ATT0(base) &= ~_VAL2FLD(PROT_SMPU_SMPU_STRUCT_ATT0_ENABLED, CY_PROT_STRUC
 624:Generated_Source\PSoC6\pdl\drivers\peripheral\prot/cy_prot.c ****     status = (_FLD2VAL(PROT_SMPU_SMPU_STRUCT_ATT0_ENABLED, PROT_SMPU_SMPU_STRUCT_ATT0(base)) == CY_
 625:Generated_Source\PSoC6\pdl\drivers\peripheral\prot/cy_prot.c ****                 CY_PROT_FAILURE : CY_PROT_SUCCESS;
 626:Generated_Source\PSoC6\pdl\drivers\peripheral\prot/cy_prot.c ****     
 627:Generated_Source\PSoC6\pdl\drivers\peripheral\prot/cy_prot.c ****     return status;
 628:Generated_Source\PSoC6\pdl\drivers\peripheral\prot/cy_prot.c **** }
 629:Generated_Source\PSoC6\pdl\drivers\peripheral\prot/cy_prot.c **** 
 630:Generated_Source\PSoC6\pdl\drivers\peripheral\prot/cy_prot.c **** 
 631:Generated_Source\PSoC6\pdl\drivers\peripheral\prot/cy_prot.c **** /*******************************************************************************
 632:Generated_Source\PSoC6\pdl\drivers\peripheral\prot/cy_prot.c **** * Function Name: Cy_Prot_GetSmpuStruct
 633:Generated_Source\PSoC6\pdl\drivers\peripheral\prot/cy_prot.c **** ****************************************************************************//**
 634:Generated_Source\PSoC6\pdl\drivers\peripheral\prot/cy_prot.c **** *
 635:Generated_Source\PSoC6\pdl\drivers\peripheral\prot/cy_prot.c **** * Functions returns a pointer of the requested unused SMPU structure. It 
 636:Generated_Source\PSoC6\pdl\drivers\peripheral\prot/cy_prot.c **** * searches the SMPU structures until it finds one that both the slave and master
 637:Generated_Source\PSoC6\pdl\drivers\peripheral\prot/cy_prot.c **** * sections are disabled. After an available structure is located, function 
 638:Generated_Source\PSoC6\pdl\drivers\peripheral\prot/cy_prot.c **** * enables the slave structure and set the ATT0[7:0] bits to 0xFF, to make sure 
 639:Generated_Source\PSoC6\pdl\drivers\peripheral\prot/cy_prot.c **** * that a subsequent call will not see this as an available (unused) SMPU. 
 640:Generated_Source\PSoC6\pdl\drivers\peripheral\prot/cy_prot.c **** *
 641:Generated_Source\PSoC6\pdl\drivers\peripheral\prot/cy_prot.c **** * It is up to the user to implement, if needed, a system in which a semaphore 
 642:Generated_Source\PSoC6\pdl\drivers\peripheral\prot/cy_prot.c **** * will lock-out all but one CPU from calling this function at once.
 643:Generated_Source\PSoC6\pdl\drivers\peripheral\prot/cy_prot.c **** *
 644:Generated_Source\PSoC6\pdl\drivers\peripheral\prot/cy_prot.c **** * \note This function is applicable for both CPUSS ver_1 and ver_2.
 645:Generated_Source\PSoC6\pdl\drivers\peripheral\prot/cy_prot.c **** *
 646:Generated_Source\PSoC6\pdl\drivers\peripheral\prot/cy_prot.c **** * \param base
 647:Generated_Source\PSoC6\pdl\drivers\peripheral\prot/cy_prot.c **** * The base address for the SMPU structure returned if an unused structure was 
 648:Generated_Source\PSoC6\pdl\drivers\peripheral\prot/cy_prot.c **** * found. If an empty structure was not found, the returned pointer is NULL.
 649:Generated_Source\PSoC6\pdl\drivers\peripheral\prot/cy_prot.c **** *
 650:Generated_Source\PSoC6\pdl\drivers\peripheral\prot/cy_prot.c **** * \param reqMode
 651:Generated_Source\PSoC6\pdl\drivers\peripheral\prot/cy_prot.c **** * This parameter (request mode) selects how the user wants to select a SMPU 
 652:Generated_Source\PSoC6\pdl\drivers\peripheral\prot/cy_prot.c **** * structure.
 653:Generated_Source\PSoC6\pdl\drivers\peripheral\prot/cy_prot.c **** *
 654:Generated_Source\PSoC6\pdl\drivers\peripheral\prot/cy_prot.c **** *   reqMode                 | Description
 655:Generated_Source\PSoC6\pdl\drivers\peripheral\prot/cy_prot.c **** * --------------------------| -----------------------------
 656:Generated_Source\PSoC6\pdl\drivers\peripheral\prot/cy_prot.c **** * CY_PROT_REQMODE_HIGHPRIOR | Return the SMPU structure with the highest priority.
 657:Generated_Source\PSoC6\pdl\drivers\peripheral\prot/cy_prot.c **** * CY_PROT_REQMODE_LOWPRIOR  | Return the SMPU structure with the lowest priority.
 658:Generated_Source\PSoC6\pdl\drivers\peripheral\prot/cy_prot.c **** * CY_PROT_REQMODE_INDEX     | Return the SMPU structure with the specific index.
ARM GAS  C:\Users\Rolf\AppData\Local\Temp\ccTbcyL9.s 			page 13


 659:Generated_Source\PSoC6\pdl\drivers\peripheral\prot/cy_prot.c **** *
 660:Generated_Source\PSoC6\pdl\drivers\peripheral\prot/cy_prot.c **** * \param smpuIndex
 661:Generated_Source\PSoC6\pdl\drivers\peripheral\prot/cy_prot.c **** * This is the index of the requested SMPU structure. It is only used if the 
 662:Generated_Source\PSoC6\pdl\drivers\peripheral\prot/cy_prot.c **** * request mode is reqMode = CY_PROT_REQMODE_INDEX.
 663:Generated_Source\PSoC6\pdl\drivers\peripheral\prot/cy_prot.c **** *
 664:Generated_Source\PSoC6\pdl\drivers\peripheral\prot/cy_prot.c **** * \return
 665:Generated_Source\PSoC6\pdl\drivers\peripheral\prot/cy_prot.c **** * Status of the function call.
 666:Generated_Source\PSoC6\pdl\drivers\peripheral\prot/cy_prot.c **** *
 667:Generated_Source\PSoC6\pdl\drivers\peripheral\prot/cy_prot.c **** *   Status              | Description
 668:Generated_Source\PSoC6\pdl\drivers\peripheral\prot/cy_prot.c **** * ----------------------| ---------------------------------------
 669:Generated_Source\PSoC6\pdl\drivers\peripheral\prot/cy_prot.c **** * CY_PROT_SUCCESS       | The Slave PU struct was disabled.
 670:Generated_Source\PSoC6\pdl\drivers\peripheral\prot/cy_prot.c **** * CY_PROT_FAILURE       | The Master or Slave SMPU struct is disabled and possibly locked.
 671:Generated_Source\PSoC6\pdl\drivers\peripheral\prot/cy_prot.c **** * CY_PROT_UNAVAILABLE   | The requested structure in use or there were no unused structures.
 672:Generated_Source\PSoC6\pdl\drivers\peripheral\prot/cy_prot.c **** *
 673:Generated_Source\PSoC6\pdl\drivers\peripheral\prot/cy_prot.c **** * \funcusage
 674:Generated_Source\PSoC6\pdl\drivers\peripheral\prot/cy_prot.c **** * \snippet prot/1.20/snippet/main.c snippet_Cy_Prot_GetSmpuStruct
 675:Generated_Source\PSoC6\pdl\drivers\peripheral\prot/cy_prot.c **** *
 676:Generated_Source\PSoC6\pdl\drivers\peripheral\prot/cy_prot.c **** *******************************************************************************/
 677:Generated_Source\PSoC6\pdl\drivers\peripheral\prot/cy_prot.c **** cy_en_prot_status_t Cy_Prot_GetSmpuStruct(PROT_SMPU_SMPU_STRUCT_Type** base, 
 678:Generated_Source\PSoC6\pdl\drivers\peripheral\prot/cy_prot.c ****                                           cy_en_prot_req_mode_t reqMode, uint32_t smpuIndex)
 679:Generated_Source\PSoC6\pdl\drivers\peripheral\prot/cy_prot.c **** {
 680:Generated_Source\PSoC6\pdl\drivers\peripheral\prot/cy_prot.c ****     CY_ASSERT_L3(CY_PROT_IS_SMPU_REQ_MODE_VALID(reqMode));
 681:Generated_Source\PSoC6\pdl\drivers\peripheral\prot/cy_prot.c ****     CY_ASSERT_L2(CY_PROT_IS_SMPU_IDX_VALID(smpuIndex));
 682:Generated_Source\PSoC6\pdl\drivers\peripheral\prot/cy_prot.c **** 
 683:Generated_Source\PSoC6\pdl\drivers\peripheral\prot/cy_prot.c ****     cy_en_prot_status_t status = CY_PROT_UNAVAILABLE;
 684:Generated_Source\PSoC6\pdl\drivers\peripheral\prot/cy_prot.c ****     int32_t stcIdx = (int32_t)smpuIndex;
 685:Generated_Source\PSoC6\pdl\drivers\peripheral\prot/cy_prot.c **** 
 686:Generated_Source\PSoC6\pdl\drivers\peripheral\prot/cy_prot.c ****     *base = NULL;
 687:Generated_Source\PSoC6\pdl\drivers\peripheral\prot/cy_prot.c **** 
 688:Generated_Source\PSoC6\pdl\drivers\peripheral\prot/cy_prot.c ****     switch (reqMode)
 689:Generated_Source\PSoC6\pdl\drivers\peripheral\prot/cy_prot.c ****     {
 690:Generated_Source\PSoC6\pdl\drivers\peripheral\prot/cy_prot.c ****         /* The SMPU priority goes from PROT_SMPU_STRUCT_HIGHEST_PR 
 691:Generated_Source\PSoC6\pdl\drivers\peripheral\prot/cy_prot.c ****         *  (highest priority) to 0 (lowest priority)
 692:Generated_Source\PSoC6\pdl\drivers\peripheral\prot/cy_prot.c ****         */
 693:Generated_Source\PSoC6\pdl\drivers\peripheral\prot/cy_prot.c ****         case CY_PROT_REQMODE_HIGHPRIOR:
 694:Generated_Source\PSoC6\pdl\drivers\peripheral\prot/cy_prot.c **** 
 695:Generated_Source\PSoC6\pdl\drivers\peripheral\prot/cy_prot.c ****             stcIdx = PROT_SMPU_STRUCT_WTH_HIGHEST_PR;
 696:Generated_Source\PSoC6\pdl\drivers\peripheral\prot/cy_prot.c ****             do
 697:Generated_Source\PSoC6\pdl\drivers\peripheral\prot/cy_prot.c ****             {
 698:Generated_Source\PSoC6\pdl\drivers\peripheral\prot/cy_prot.c ****                 if (Prot_IsSmpuStructDisabled((uint32_t)stcIdx))
 699:Generated_Source\PSoC6\pdl\drivers\peripheral\prot/cy_prot.c ****                 {
 700:Generated_Source\PSoC6\pdl\drivers\peripheral\prot/cy_prot.c ****                     status = CY_PROT_SUCCESS;
 701:Generated_Source\PSoC6\pdl\drivers\peripheral\prot/cy_prot.c ****                 }
 702:Generated_Source\PSoC6\pdl\drivers\peripheral\prot/cy_prot.c ****                 else
 703:Generated_Source\PSoC6\pdl\drivers\peripheral\prot/cy_prot.c ****                 {
 704:Generated_Source\PSoC6\pdl\drivers\peripheral\prot/cy_prot.c ****                     --stcIdx;
 705:Generated_Source\PSoC6\pdl\drivers\peripheral\prot/cy_prot.c ****                 }
 706:Generated_Source\PSoC6\pdl\drivers\peripheral\prot/cy_prot.c ****             } while ((stcIdx >= 0) && (CY_PROT_SUCCESS != status));
 707:Generated_Source\PSoC6\pdl\drivers\peripheral\prot/cy_prot.c ****             break;
 708:Generated_Source\PSoC6\pdl\drivers\peripheral\prot/cy_prot.c ****         
 709:Generated_Source\PSoC6\pdl\drivers\peripheral\prot/cy_prot.c ****         case CY_PROT_REQMODE_LOWPRIOR:
 710:Generated_Source\PSoC6\pdl\drivers\peripheral\prot/cy_prot.c ****             stcIdx = 0;
 711:Generated_Source\PSoC6\pdl\drivers\peripheral\prot/cy_prot.c ****             do
 712:Generated_Source\PSoC6\pdl\drivers\peripheral\prot/cy_prot.c ****             {
 713:Generated_Source\PSoC6\pdl\drivers\peripheral\prot/cy_prot.c ****                 if (Prot_IsSmpuStructDisabled((uint32_t)stcIdx))
 714:Generated_Source\PSoC6\pdl\drivers\peripheral\prot/cy_prot.c ****                 {
 715:Generated_Source\PSoC6\pdl\drivers\peripheral\prot/cy_prot.c ****                     status = CY_PROT_SUCCESS;
ARM GAS  C:\Users\Rolf\AppData\Local\Temp\ccTbcyL9.s 			page 14


 716:Generated_Source\PSoC6\pdl\drivers\peripheral\prot/cy_prot.c ****                 }
 717:Generated_Source\PSoC6\pdl\drivers\peripheral\prot/cy_prot.c ****                 else
 718:Generated_Source\PSoC6\pdl\drivers\peripheral\prot/cy_prot.c ****                 {
 719:Generated_Source\PSoC6\pdl\drivers\peripheral\prot/cy_prot.c ****                     ++stcIdx;
 720:Generated_Source\PSoC6\pdl\drivers\peripheral\prot/cy_prot.c ****                 }
 721:Generated_Source\PSoC6\pdl\drivers\peripheral\prot/cy_prot.c ****             } while ((stcIdx <= PROT_SMPU_STRUCT_WTH_HIGHEST_PR) && (CY_PROT_SUCCESS != status));
 722:Generated_Source\PSoC6\pdl\drivers\peripheral\prot/cy_prot.c ****             break;
 723:Generated_Source\PSoC6\pdl\drivers\peripheral\prot/cy_prot.c ****         
 724:Generated_Source\PSoC6\pdl\drivers\peripheral\prot/cy_prot.c ****         case CY_PROT_REQMODE_INDEX:
 725:Generated_Source\PSoC6\pdl\drivers\peripheral\prot/cy_prot.c ****             if (Prot_IsSmpuStructDisabled((uint32_t)stcIdx))
 726:Generated_Source\PSoC6\pdl\drivers\peripheral\prot/cy_prot.c ****             {
 727:Generated_Source\PSoC6\pdl\drivers\peripheral\prot/cy_prot.c ****                 status = CY_PROT_SUCCESS;
 728:Generated_Source\PSoC6\pdl\drivers\peripheral\prot/cy_prot.c ****             }
 729:Generated_Source\PSoC6\pdl\drivers\peripheral\prot/cy_prot.c ****             break;
 730:Generated_Source\PSoC6\pdl\drivers\peripheral\prot/cy_prot.c **** 
 731:Generated_Source\PSoC6\pdl\drivers\peripheral\prot/cy_prot.c ****         default:
 732:Generated_Source\PSoC6\pdl\drivers\peripheral\prot/cy_prot.c ****             break;
 733:Generated_Source\PSoC6\pdl\drivers\peripheral\prot/cy_prot.c ****     }
 734:Generated_Source\PSoC6\pdl\drivers\peripheral\prot/cy_prot.c **** 
 735:Generated_Source\PSoC6\pdl\drivers\peripheral\prot/cy_prot.c ****     /* Proceed if required structure is found */
 736:Generated_Source\PSoC6\pdl\drivers\peripheral\prot/cy_prot.c ****     if (CY_PROT_SUCCESS == status)
 737:Generated_Source\PSoC6\pdl\drivers\peripheral\prot/cy_prot.c ****     {
 738:Generated_Source\PSoC6\pdl\drivers\peripheral\prot/cy_prot.c ****         /* Enable Slave SMPU struct */
 739:Generated_Source\PSoC6\pdl\drivers\peripheral\prot/cy_prot.c ****         PROT_SMPU_SMPU_STRUCT_IDX_ATT0(stcIdx) |= _VAL2FLD(PROT_SMPU_SMPU_STRUCT_ATT0_ENABLED, CY_P
 740:Generated_Source\PSoC6\pdl\drivers\peripheral\prot/cy_prot.c ****         
 741:Generated_Source\PSoC6\pdl\drivers\peripheral\prot/cy_prot.c ****         status = 
 742:Generated_Source\PSoC6\pdl\drivers\peripheral\prot/cy_prot.c ****         (_FLD2VAL(PROT_SMPU_SMPU_STRUCT_ATT0_ENABLED, PROT_SMPU_SMPU_STRUCT_IDX_ATT0(stcIdx)) != CY
 743:Generated_Source\PSoC6\pdl\drivers\peripheral\prot/cy_prot.c ****         CY_PROT_FAILURE : CY_PROT_SUCCESS;
 744:Generated_Source\PSoC6\pdl\drivers\peripheral\prot/cy_prot.c **** 
 745:Generated_Source\PSoC6\pdl\drivers\peripheral\prot/cy_prot.c ****         /* Enable all attributes only if Slave struct was enabled */
 746:Generated_Source\PSoC6\pdl\drivers\peripheral\prot/cy_prot.c ****         if (CY_PROT_SUCCESS == status)
 747:Generated_Source\PSoC6\pdl\drivers\peripheral\prot/cy_prot.c ****         {
 748:Generated_Source\PSoC6\pdl\drivers\peripheral\prot/cy_prot.c ****             *base = (PROT_SMPU_SMPU_STRUCT_Type* ) PROT_SMPU_SMPU_STRUCT_IDX(stcIdx);
 749:Generated_Source\PSoC6\pdl\drivers\peripheral\prot/cy_prot.c ****             PROT_SMPU_SMPU_STRUCT_IDX_ATT0(stcIdx) |= PROT_SMPU_STRUCT_ATT0_ENABLE_ALL_MASK;
 750:Generated_Source\PSoC6\pdl\drivers\peripheral\prot/cy_prot.c ****         }
 751:Generated_Source\PSoC6\pdl\drivers\peripheral\prot/cy_prot.c ****     }
 752:Generated_Source\PSoC6\pdl\drivers\peripheral\prot/cy_prot.c ****     return status;
 753:Generated_Source\PSoC6\pdl\drivers\peripheral\prot/cy_prot.c **** }
 754:Generated_Source\PSoC6\pdl\drivers\peripheral\prot/cy_prot.c **** 
 755:Generated_Source\PSoC6\pdl\drivers\peripheral\prot/cy_prot.c **** 
 756:Generated_Source\PSoC6\pdl\drivers\peripheral\prot/cy_prot.c **** /*******************************************************************************
 757:Generated_Source\PSoC6\pdl\drivers\peripheral\prot/cy_prot.c **** * Function Name: Prot_ConfigPpuAtt
 758:Generated_Source\PSoC6\pdl\drivers\peripheral\prot/cy_prot.c **** ********************************************************************************
 759:Generated_Source\PSoC6\pdl\drivers\peripheral\prot/cy_prot.c **** *
 760:Generated_Source\PSoC6\pdl\drivers\peripheral\prot/cy_prot.c **** * An internal function to hold the common code for 
 761:Generated_Source\PSoC6\pdl\drivers\peripheral\prot/cy_prot.c **** * Cy_Prot_ConfigPpu[Prog/Fixed][Master/Slave]Att API functions
 762:Generated_Source\PSoC6\pdl\drivers\peripheral\prot/cy_prot.c **** *
 763:Generated_Source\PSoC6\pdl\drivers\peripheral\prot/cy_prot.c **** * \note This function is applicable for CPUSS ver_2 only.
 764:Generated_Source\PSoC6\pdl\drivers\peripheral\prot/cy_prot.c **** *
 765:Generated_Source\PSoC6\pdl\drivers\peripheral\prot/cy_prot.c **** * \param reg
 766:Generated_Source\PSoC6\pdl\drivers\peripheral\prot/cy_prot.c **** * The register to update attributes in.
 767:Generated_Source\PSoC6\pdl\drivers\peripheral\prot/cy_prot.c **** *
 768:Generated_Source\PSoC6\pdl\drivers\peripheral\prot/cy_prot.c **** * \param pcMask
 769:Generated_Source\PSoC6\pdl\drivers\peripheral\prot/cy_prot.c **** * The protection context mask. This is a 16-bit value of the allowed contexts. 
 770:Generated_Source\PSoC6\pdl\drivers\peripheral\prot/cy_prot.c **** * It is an OR'ed (|) field of the * provided defines in cy_prot.h. 
 771:Generated_Source\PSoC6\pdl\drivers\peripheral\prot/cy_prot.c **** * For example: (CY_PROT_PCMASK1 | CY_PROT_PCMASK3 | CY_PROT_PCMASK4).
 772:Generated_Source\PSoC6\pdl\drivers\peripheral\prot/cy_prot.c **** * \note The function accepts pcMask values from CY_PROT_PCMASK1 to CY_PROT_PCMASK5. 
ARM GAS  C:\Users\Rolf\AppData\Local\Temp\ccTbcyL9.s 			page 15


 773:Generated_Source\PSoC6\pdl\drivers\peripheral\prot/cy_prot.c **** * But each device has its own number of available protection contexts. 
 774:Generated_Source\PSoC6\pdl\drivers\peripheral\prot/cy_prot.c **** * That number is defined by PERI_PC_NR in the config file.
 775:Generated_Source\PSoC6\pdl\drivers\peripheral\prot/cy_prot.c **** *
 776:Generated_Source\PSoC6\pdl\drivers\peripheral\prot/cy_prot.c **** * \param userPermission
 777:Generated_Source\PSoC6\pdl\drivers\peripheral\prot/cy_prot.c **** * The user permissions for the region.
 778:Generated_Source\PSoC6\pdl\drivers\peripheral\prot/cy_prot.c **** *
 779:Generated_Source\PSoC6\pdl\drivers\peripheral\prot/cy_prot.c **** * \param privPermission
 780:Generated_Source\PSoC6\pdl\drivers\peripheral\prot/cy_prot.c **** * The privileged permissions for the region.
 781:Generated_Source\PSoC6\pdl\drivers\peripheral\prot/cy_prot.c **** *
 782:Generated_Source\PSoC6\pdl\drivers\peripheral\prot/cy_prot.c **** * \param secure 
 783:Generated_Source\PSoC6\pdl\drivers\peripheral\prot/cy_prot.c **** * Non Secure = false, Secure = true
 784:Generated_Source\PSoC6\pdl\drivers\peripheral\prot/cy_prot.c **** *
 785:Generated_Source\PSoC6\pdl\drivers\peripheral\prot/cy_prot.c **** * \return
 786:Generated_Source\PSoC6\pdl\drivers\peripheral\prot/cy_prot.c **** * The status of the function call.
 787:Generated_Source\PSoC6\pdl\drivers\peripheral\prot/cy_prot.c **** *
 788:Generated_Source\PSoC6\pdl\drivers\peripheral\prot/cy_prot.c **** *   Status              | Description
 789:Generated_Source\PSoC6\pdl\drivers\peripheral\prot/cy_prot.c **** * ----------------------| ---------------------------------------
 790:Generated_Source\PSoC6\pdl\drivers\peripheral\prot/cy_prot.c **** * CY_PROT_SUCCESS       | The attributes were set up.
 791:Generated_Source\PSoC6\pdl\drivers\peripheral\prot/cy_prot.c **** * CY_PROT_FAILURE       | The attributes were not set up because the structure is possibly locked.
 792:Generated_Source\PSoC6\pdl\drivers\peripheral\prot/cy_prot.c **** * CY_PROT_INVALID_STATE | The function was called on the device with an unsupported PERI HW version
 793:Generated_Source\PSoC6\pdl\drivers\peripheral\prot/cy_prot.c **** *
 794:Generated_Source\PSoC6\pdl\drivers\peripheral\prot/cy_prot.c **** *******************************************************************************/
 795:Generated_Source\PSoC6\pdl\drivers\peripheral\prot/cy_prot.c **** static cy_en_prot_status_t Prot_ConfigPpuAtt(volatile uint32_t * reg, uint16_t pcMask, 
 796:Generated_Source\PSoC6\pdl\drivers\peripheral\prot/cy_prot.c ****                                        cy_en_prot_perm_t userPermission, cy_en_prot_perm_t privPerm
 797:Generated_Source\PSoC6\pdl\drivers\peripheral\prot/cy_prot.c **** {
  27              		.loc 1 797 0
  28              		.cfi_startproc
  29              		@ args = 4, pretend = 0, frame = 8
  30              		@ frame_needed = 0, uses_anonymous_args = 0
  31              	.LVL0:
  32 0000 F0B5     		push	{r4, r5, r6, r7, lr}
  33              		.cfi_def_cfa_offset 20
  34              		.cfi_offset 4, -20
  35              		.cfi_offset 5, -16
  36              		.cfi_offset 6, -12
  37              		.cfi_offset 7, -8
  38              		.cfi_offset 14, -4
  39 0002 5F46     		mov	r7, fp
  40 0004 5646     		mov	r6, r10
  41 0006 4D46     		mov	r5, r9
  42 0008 4446     		mov	r4, r8
  43 000a F0B4     		push	{r4, r5, r6, r7}
  44              		.cfi_def_cfa_offset 36
  45              		.cfi_offset 8, -36
  46              		.cfi_offset 9, -32
  47              		.cfi_offset 10, -28
  48              		.cfi_offset 11, -24
  49 000c 83B0     		sub	sp, sp, #12
  50              		.cfi_def_cfa_offset 48
  51 000e 8046     		mov	r8, r0
  52 0010 9146     		mov	r9, r2
  53 0012 9A46     		mov	r10, r3
  54 0014 0CAB     		add	r3, sp, #48
  55              	.LVL1:
  56 0016 1B78     		ldrb	r3, [r3]
  57              	.LVL2:
  58 0018 9B46     		mov	fp, r3
ARM GAS  C:\Users\Rolf\AppData\Local\Temp\ccTbcyL9.s 			page 16


  59              	.LVL3:
 798:Generated_Source\PSoC6\pdl\drivers\peripheral\prot/cy_prot.c ****     cy_en_prot_status_t status = CY_PROT_INVALID_STATE;
 799:Generated_Source\PSoC6\pdl\drivers\peripheral\prot/cy_prot.c **** 
 800:Generated_Source\PSoC6\pdl\drivers\peripheral\prot/cy_prot.c ****     if (!CY_PERI_V1)
  60              		.loc 1 800 0
  61 001a 284B     		ldr	r3, .L15
  62 001c 1A68     		ldr	r2, [r3]
  63              	.LVL4:
  64 001e 2F23     		movs	r3, #47
  65 0020 D35C     		ldrb	r3, [r2, r3]
  66 0022 012B     		cmp	r3, #1
  67 0024 40D0     		beq	.L11
  68              	.LBB2:
 801:Generated_Source\PSoC6\pdl\drivers\peripheral\prot/cy_prot.c ****     {
 802:Generated_Source\PSoC6\pdl\drivers\peripheral\prot/cy_prot.c ****         uint32_t tmpMask = (uint32_t)pcMask << CY_PROT_PCMASK_CHECK;
  69              		.loc 1 802 0
  70 0026 4B00     		lsls	r3, r1, #1
  71              	.LVL5:
 803:Generated_Source\PSoC6\pdl\drivers\peripheral\prot/cy_prot.c ****         uint32_t attReg;
 804:Generated_Source\PSoC6\pdl\drivers\peripheral\prot/cy_prot.c ****         uint32_t regIdx;
 805:Generated_Source\PSoC6\pdl\drivers\peripheral\prot/cy_prot.c ****         uint32_t fldIdx;
 806:Generated_Source\PSoC6\pdl\drivers\peripheral\prot/cy_prot.c ****         
 807:Generated_Source\PSoC6\pdl\drivers\peripheral\prot/cy_prot.c ****         status = CY_PROT_SUCCESS;
 808:Generated_Source\PSoC6\pdl\drivers\peripheral\prot/cy_prot.c ****         
 809:Generated_Source\PSoC6\pdl\drivers\peripheral\prot/cy_prot.c ****         /* Populate the ATT values */
 810:Generated_Source\PSoC6\pdl\drivers\peripheral\prot/cy_prot.c ****         for(regIdx = 0U; regIdx < CY_PROT_ATT_REGS_MAX; regIdx++)
  72              		.loc 1 810 0
  73 0028 0022     		movs	r2, #0
 807:Generated_Source\PSoC6\pdl\drivers\peripheral\prot/cy_prot.c ****         
  74              		.loc 1 807 0
  75 002a 0192     		str	r2, [sp, #4]
  76 002c 1600     		movs	r6, r2
  77 002e 4F46     		mov	r7, r9
  78              		.loc 1 810 0
  79 0030 37E0     		b	.L3
  80              	.LVL6:
  81              	.L10:
 811:Generated_Source\PSoC6\pdl\drivers\peripheral\prot/cy_prot.c ****         {
 812:Generated_Source\PSoC6\pdl\drivers\peripheral\prot/cy_prot.c ****             if (0UL == tmpMask)
  82              		.loc 1 812 0
  83 0032 002B     		cmp	r3, #0
  84 0034 3AD0     		beq	.L2
 813:Generated_Source\PSoC6\pdl\drivers\peripheral\prot/cy_prot.c ****             {
 814:Generated_Source\PSoC6\pdl\drivers\peripheral\prot/cy_prot.c ****                 break;
 815:Generated_Source\PSoC6\pdl\drivers\peripheral\prot/cy_prot.c ****             }
 816:Generated_Source\PSoC6\pdl\drivers\peripheral\prot/cy_prot.c ****             
 817:Generated_Source\PSoC6\pdl\drivers\peripheral\prot/cy_prot.c ****             /* Get the attributes register value */
 818:Generated_Source\PSoC6\pdl\drivers\peripheral\prot/cy_prot.c ****             attReg = reg[regIdx];
  85              		.loc 1 818 0
  86 0036 B500     		lsls	r5, r6, #2
  87 0038 4544     		add	r5, r5, r8
  88 003a 2A68     		ldr	r2, [r5]
  89              	.LVL7:
 819:Generated_Source\PSoC6\pdl\drivers\peripheral\prot/cy_prot.c **** 
 820:Generated_Source\PSoC6\pdl\drivers\peripheral\prot/cy_prot.c ****             for(fldIdx = 0UL; fldIdx < CY_PROT_ATT_PC_MAX; fldIdx++)
  90              		.loc 1 820 0
  91 003c 0024     		movs	r4, #0
ARM GAS  C:\Users\Rolf\AppData\Local\Temp\ccTbcyL9.s 			page 17


  92 003e 0095     		str	r5, [sp]
  93 0040 1AE0     		b	.L4
  94              	.LVL8:
  95              	.L7:
 821:Generated_Source\PSoC6\pdl\drivers\peripheral\prot/cy_prot.c ****             {
 822:Generated_Source\PSoC6\pdl\drivers\peripheral\prot/cy_prot.c ****                 if((tmpMask & CY_PROT_PCMASK_CHECK) == CY_PROT_STRUCT_ENABLE)
  96              		.loc 1 822 0
  97 0042 D907     		lsls	r1, r3, #31
  98 0044 16D5     		bpl	.L5
 823:Generated_Source\PSoC6\pdl\drivers\peripheral\prot/cy_prot.c ****                 {
 824:Generated_Source\PSoC6\pdl\drivers\peripheral\prot/cy_prot.c ****                     /* Reset the bitfield for the PCx attributes */
 825:Generated_Source\PSoC6\pdl\drivers\peripheral\prot/cy_prot.c ****                     attReg &= ~((_VAL2FLD(CY_PROT_ATT_PERI_USER_PERM, CY_PROT_PERM_RW) |
 826:Generated_Source\PSoC6\pdl\drivers\peripheral\prot/cy_prot.c ****                                  _VAL2FLD(CY_PROT_ATT_PERI_PRIV_PERM, CY_PROT_PERM_RW) |
 827:Generated_Source\PSoC6\pdl\drivers\peripheral\prot/cy_prot.c ****                                  _BOOL2FLD(PERI_MS_PPU_PR_V2_MS_ATT0_PC0_NS, true)) <<
 828:Generated_Source\PSoC6\pdl\drivers\peripheral\prot/cy_prot.c ****                                 (PERI_MS_PPU_PR_V2_MS_ATT0_PC1_UR_Pos * fldIdx)); 
  99              		.loc 1 828 0
 100 0046 E100     		lsls	r1, r4, #3
 101 0048 8C46     		mov	ip, r1
 827:Generated_Source\PSoC6\pdl\drivers\peripheral\prot/cy_prot.c ****                                 (PERI_MS_PPU_PR_V2_MS_ATT0_PC1_UR_Pos * fldIdx)); 
 102              		.loc 1 827 0
 103 004a 1F21     		movs	r1, #31
 104 004c 6046     		mov	r0, ip
 105 004e 8140     		lsls	r1, r1, r0
 825:Generated_Source\PSoC6\pdl\drivers\peripheral\prot/cy_prot.c ****                                  _VAL2FLD(CY_PROT_ATT_PERI_PRIV_PERM, CY_PROT_PERM_RW) |
 106              		.loc 1 825 0
 107 0050 8A43     		bics	r2, r1
 108              	.LVL9:
 829:Generated_Source\PSoC6\pdl\drivers\peripheral\prot/cy_prot.c ****                     
 830:Generated_Source\PSoC6\pdl\drivers\peripheral\prot/cy_prot.c ****                     /* Set the bitfield for the PCx attributes */
 831:Generated_Source\PSoC6\pdl\drivers\peripheral\prot/cy_prot.c ****                     attReg |= (_VAL2FLD(CY_PROT_ATT_PERI_USER_PERM, userPermission) |
 109              		.loc 1 831 0
 110 0052 0321     		movs	r1, #3
 111 0054 3940     		ands	r1, r7
 832:Generated_Source\PSoC6\pdl\drivers\peripheral\prot/cy_prot.c ****                                _VAL2FLD(CY_PROT_ATT_PERI_PRIV_PERM, privPermission) |
 112              		.loc 1 832 0
 113 0056 5046     		mov	r0, r10
 114 0058 8000     		lsls	r0, r0, #2
 115 005a 0C25     		movs	r5, #12
 116 005c 2840     		ands	r0, r5
 831:Generated_Source\PSoC6\pdl\drivers\peripheral\prot/cy_prot.c ****                                _VAL2FLD(CY_PROT_ATT_PERI_PRIV_PERM, privPermission) |
 117              		.loc 1 831 0
 118 005e 0843     		orrs	r0, r1
 833:Generated_Source\PSoC6\pdl\drivers\peripheral\prot/cy_prot.c ****                               _BOOL2FLD(PERI_MS_PPU_PR_V2_MS_ATT0_PC0_NS, !secure)) <<
 119              		.loc 1 833 0
 120 0060 5946     		mov	r1, fp
 121 0062 0029     		cmp	r1, #0
 122 0064 01D1     		bne	.L12
 123 0066 1031     		adds	r1, r1, #16
 124 0068 00E0     		b	.L6
 125              	.L12:
 126 006a 0021     		movs	r1, #0
 127              	.L6:
 832:Generated_Source\PSoC6\pdl\drivers\peripheral\prot/cy_prot.c ****                                _VAL2FLD(CY_PROT_ATT_PERI_PRIV_PERM, privPermission) |
 128              		.loc 1 832 0
 129 006c 0143     		orrs	r1, r0
 130              		.loc 1 833 0
 131 006e 6046     		mov	r0, ip
ARM GAS  C:\Users\Rolf\AppData\Local\Temp\ccTbcyL9.s 			page 18


 132 0070 8140     		lsls	r1, r1, r0
 831:Generated_Source\PSoC6\pdl\drivers\peripheral\prot/cy_prot.c ****                                _VAL2FLD(CY_PROT_ATT_PERI_PRIV_PERM, privPermission) |
 133              		.loc 1 831 0
 134 0072 0A43     		orrs	r2, r1
 135              	.LVL10:
 136              	.L5:
 834:Generated_Source\PSoC6\pdl\drivers\peripheral\prot/cy_prot.c ****                                (PERI_MS_PPU_PR_V2_MS_ATT0_PC1_UR_Pos * fldIdx);
 835:Generated_Source\PSoC6\pdl\drivers\peripheral\prot/cy_prot.c ****                 }
 836:Generated_Source\PSoC6\pdl\drivers\peripheral\prot/cy_prot.c ****                 tmpMask = tmpMask >> CY_PROT_PCMASK_CHECK;
 137              		.loc 1 836 0 discriminator 2
 138 0074 5B08     		lsrs	r3, r3, #1
 139              	.LVL11:
 820:Generated_Source\PSoC6\pdl\drivers\peripheral\prot/cy_prot.c ****             {
 140              		.loc 1 820 0 discriminator 2
 141 0076 0134     		adds	r4, r4, #1
 142              	.LVL12:
 143              	.L4:
 820:Generated_Source\PSoC6\pdl\drivers\peripheral\prot/cy_prot.c ****             {
 144              		.loc 1 820 0 is_stmt 0 discriminator 1
 145 0078 032C     		cmp	r4, #3
 146 007a E2D9     		bls	.L7
 147 007c 009D     		ldr	r5, [sp]
 837:Generated_Source\PSoC6\pdl\drivers\peripheral\prot/cy_prot.c ****             }
 838:Generated_Source\PSoC6\pdl\drivers\peripheral\prot/cy_prot.c ****             
 839:Generated_Source\PSoC6\pdl\drivers\peripheral\prot/cy_prot.c ****             /* Update the attributes register */
 840:Generated_Source\PSoC6\pdl\drivers\peripheral\prot/cy_prot.c ****             reg[regIdx] = attReg;
 148              		.loc 1 840 0 is_stmt 1
 149 007e 2A60     		str	r2, [r5]
 841:Generated_Source\PSoC6\pdl\drivers\peripheral\prot/cy_prot.c **** 
 842:Generated_Source\PSoC6\pdl\drivers\peripheral\prot/cy_prot.c ****             /* Check the result */
 843:Generated_Source\PSoC6\pdl\drivers\peripheral\prot/cy_prot.c ****             if ((0UL == regIdx) && 
 150              		.loc 1 843 0
 151 0080 002E     		cmp	r6, #0
 152 0082 04D1     		bne	.L8
 844:Generated_Source\PSoC6\pdl\drivers\peripheral\prot/cy_prot.c ****                 ((reg[regIdx] & PROT_PERI_PPU_PROG_PC1_PC3_MASK) != (attReg & PROT_PERI_PPU_PROG_PC
 153              		.loc 1 844 0 discriminator 1
 154 0084 2968     		ldr	r1, [r5]
 155 0086 5140     		eors	r1, r2
 156 0088 1F20     		movs	r0, #31
 157 008a 8143     		bics	r1, r0
 843:Generated_Source\PSoC6\pdl\drivers\peripheral\prot/cy_prot.c ****                 ((reg[regIdx] & PROT_PERI_PPU_PROG_PC1_PC3_MASK) != (attReg & PROT_PERI_PPU_PROG_PC
 158              		.loc 1 843 0 discriminator 1
 159 008c 03D1     		bne	.L13
 160              	.L8:
 845:Generated_Source\PSoC6\pdl\drivers\peripheral\prot/cy_prot.c ****             {
 846:Generated_Source\PSoC6\pdl\drivers\peripheral\prot/cy_prot.c ****                 status = CY_PROT_FAILURE;
 847:Generated_Source\PSoC6\pdl\drivers\peripheral\prot/cy_prot.c ****             }
 848:Generated_Source\PSoC6\pdl\drivers\peripheral\prot/cy_prot.c ****             else if (reg[regIdx] != attReg)
 161              		.loc 1 848 0
 162 008e 2968     		ldr	r1, [r5]
 163 0090 8A42     		cmp	r2, r1
 164 0092 03D1     		bne	.L14
 165 0094 04E0     		b	.L9
 166              	.L13:
 846:Generated_Source\PSoC6\pdl\drivers\peripheral\prot/cy_prot.c ****             }
 167              		.loc 1 846 0
 168 0096 0A4A     		ldr	r2, .L15+4
ARM GAS  C:\Users\Rolf\AppData\Local\Temp\ccTbcyL9.s 			page 19


 169              	.LVL13:
 170 0098 0192     		str	r2, [sp, #4]
 171              	.LVL14:
 172 009a 01E0     		b	.L9
 173              	.LVL15:
 174              	.L14:
 849:Generated_Source\PSoC6\pdl\drivers\peripheral\prot/cy_prot.c ****             {
 850:Generated_Source\PSoC6\pdl\drivers\peripheral\prot/cy_prot.c ****                 status = CY_PROT_FAILURE;
 175              		.loc 1 850 0
 176 009c 084A     		ldr	r2, .L15+4
 177              	.LVL16:
 178 009e 0192     		str	r2, [sp, #4]
 179              	.LVL17:
 180              	.L9:
 810:Generated_Source\PSoC6\pdl\drivers\peripheral\prot/cy_prot.c ****         {
 181              		.loc 1 810 0 discriminator 2
 182 00a0 0136     		adds	r6, r6, #1
 183              	.LVL18:
 184              	.L3:
 810:Generated_Source\PSoC6\pdl\drivers\peripheral\prot/cy_prot.c ****         {
 185              		.loc 1 810 0 is_stmt 0 discriminator 1
 186 00a2 032E     		cmp	r6, #3
 187 00a4 C5D9     		bls	.L10
 188 00a6 01E0     		b	.L2
 189              	.LVL19:
 190              	.L11:
 191              	.LBE2:
 798:Generated_Source\PSoC6\pdl\drivers\peripheral\prot/cy_prot.c **** 
 192              		.loc 1 798 0 is_stmt 1
 193 00a8 064B     		ldr	r3, .L15+8
 194 00aa 0193     		str	r3, [sp, #4]
 195              	.LVL20:
 196              	.L2:
 851:Generated_Source\PSoC6\pdl\drivers\peripheral\prot/cy_prot.c ****             }
 852:Generated_Source\PSoC6\pdl\drivers\peripheral\prot/cy_prot.c ****             else
 853:Generated_Source\PSoC6\pdl\drivers\peripheral\prot/cy_prot.c ****             {
 854:Generated_Source\PSoC6\pdl\drivers\peripheral\prot/cy_prot.c ****                 /* CY_PROT_SUCCESS */
 855:Generated_Source\PSoC6\pdl\drivers\peripheral\prot/cy_prot.c ****             }
 856:Generated_Source\PSoC6\pdl\drivers\peripheral\prot/cy_prot.c ****         }
 857:Generated_Source\PSoC6\pdl\drivers\peripheral\prot/cy_prot.c ****     }
 858:Generated_Source\PSoC6\pdl\drivers\peripheral\prot/cy_prot.c **** 
 859:Generated_Source\PSoC6\pdl\drivers\peripheral\prot/cy_prot.c ****     return status;
 860:Generated_Source\PSoC6\pdl\drivers\peripheral\prot/cy_prot.c **** }
 197              		.loc 1 860 0
 198 00ac 0198     		ldr	r0, [sp, #4]
 199 00ae 03B0     		add	sp, sp, #12
 200              		@ sp needed
 201              	.LVL21:
 202 00b0 3CBC     		pop	{r2, r3, r4, r5}
 203 00b2 9046     		mov	r8, r2
 204 00b4 9946     		mov	r9, r3
 205 00b6 A246     		mov	r10, r4
 206 00b8 AB46     		mov	fp, r5
 207 00ba F0BD     		pop	{r4, r5, r6, r7, pc}
 208              	.L16:
 209              		.align	2
 210              	.L15:
ARM GAS  C:\Users\Rolf\AppData\Local\Temp\ccTbcyL9.s 			page 20


 211 00bc 00000000 		.word	cy_device
 212 00c0 0300C200 		.word	12713987
 213 00c4 0200C200 		.word	12713986
 214              		.cfi_endproc
 215              	.LFE60:
 216              		.size	Prot_ConfigPpuAtt, .-Prot_ConfigPpuAtt
 217              		.section	.text.Prot_IsSmpuStructDisabled,"ax",%progbits
 218              		.align	2
 219              		.code	16
 220              		.thumb_func
 221              		.type	Prot_IsSmpuStructDisabled, %function
 222              	Prot_IsSmpuStructDisabled:
 223              	.LFB93:
 861:Generated_Source\PSoC6\pdl\drivers\peripheral\prot/cy_prot.c **** 
 862:Generated_Source\PSoC6\pdl\drivers\peripheral\prot/cy_prot.c **** 
 863:Generated_Source\PSoC6\pdl\drivers\peripheral\prot/cy_prot.c **** /*******************************************************************************
 864:Generated_Source\PSoC6\pdl\drivers\peripheral\prot/cy_prot.c **** * Function Name: Cy_Prot_ConfigPpuProgMasterAtt
 865:Generated_Source\PSoC6\pdl\drivers\peripheral\prot/cy_prot.c **** ****************************************************************************//**
 866:Generated_Source\PSoC6\pdl\drivers\peripheral\prot/cy_prot.c **** *
 867:Generated_Source\PSoC6\pdl\drivers\peripheral\prot/cy_prot.c **** * Configures the protection-structure attributes of the 
 868:Generated_Source\PSoC6\pdl\drivers\peripheral\prot/cy_prot.c **** * Programmable Peripheral Protection Unit (PPU PROG) master. 
 869:Generated_Source\PSoC6\pdl\drivers\peripheral\prot/cy_prot.c **** *
 870:Generated_Source\PSoC6\pdl\drivers\peripheral\prot/cy_prot.c **** * This function configures the master structure governing the corresponding slave
 871:Generated_Source\PSoC6\pdl\drivers\peripheral\prot/cy_prot.c **** * structure pair. It is a mechanism to protect the slave PPU PROG structure.
 872:Generated_Source\PSoC6\pdl\drivers\peripheral\prot/cy_prot.c **** * The memory location of the slave structure is known, so the address, regionSize, and
 873:Generated_Source\PSoC6\pdl\drivers\peripheral\prot/cy_prot.c **** * sub-regions of the configuration structure are not applicable.
 874:Generated_Source\PSoC6\pdl\drivers\peripheral\prot/cy_prot.c **** *
 875:Generated_Source\PSoC6\pdl\drivers\peripheral\prot/cy_prot.c **** * \note This function is applicable for CPUSS ver_2 only.
 876:Generated_Source\PSoC6\pdl\drivers\peripheral\prot/cy_prot.c **** *
 877:Generated_Source\PSoC6\pdl\drivers\peripheral\prot/cy_prot.c **** * \param base
 878:Generated_Source\PSoC6\pdl\drivers\peripheral\prot/cy_prot.c **** * The register base address of the protection structure is being configured.
 879:Generated_Source\PSoC6\pdl\drivers\peripheral\prot/cy_prot.c **** *
 880:Generated_Source\PSoC6\pdl\drivers\peripheral\prot/cy_prot.c **** * \param pcMask
 881:Generated_Source\PSoC6\pdl\drivers\peripheral\prot/cy_prot.c **** * The protection context mask. This is a 16-bit value of the allowed contexts, 
 882:Generated_Source\PSoC6\pdl\drivers\peripheral\prot/cy_prot.c **** * it is an OR'ed (|) field of the * provided defines in cy_prot.h. 
 883:Generated_Source\PSoC6\pdl\drivers\peripheral\prot/cy_prot.c **** * For example: (CY_PROT_PCMASK1 | CY_PROT_PCMASK3 | CY_PROT_PCMASK4).
 884:Generated_Source\PSoC6\pdl\drivers\peripheral\prot/cy_prot.c **** * \note The function accepts pcMask values from CY_PROT_PCMASK1 to CY_PROT_PCMASK15. 
 885:Generated_Source\PSoC6\pdl\drivers\peripheral\prot/cy_prot.c **** * But each device has its own number of available protection contexts. 
 886:Generated_Source\PSoC6\pdl\drivers\peripheral\prot/cy_prot.c **** * That number is defined by PERI_PC_NR in the config file.
 887:Generated_Source\PSoC6\pdl\drivers\peripheral\prot/cy_prot.c **** *
 888:Generated_Source\PSoC6\pdl\drivers\peripheral\prot/cy_prot.c **** * \param userPermission
 889:Generated_Source\PSoC6\pdl\drivers\peripheral\prot/cy_prot.c **** * The user permission setting. The CY_PROT_PERM_R or CY_PROT_PERM_RW values 
 890:Generated_Source\PSoC6\pdl\drivers\peripheral\prot/cy_prot.c **** * are valid for the master.
 891:Generated_Source\PSoC6\pdl\drivers\peripheral\prot/cy_prot.c **** *
 892:Generated_Source\PSoC6\pdl\drivers\peripheral\prot/cy_prot.c **** * \param privPermission
 893:Generated_Source\PSoC6\pdl\drivers\peripheral\prot/cy_prot.c **** * The privileged permission setting. CY_PROT_PERM_R or CY_PROT_PERM_RW values 
 894:Generated_Source\PSoC6\pdl\drivers\peripheral\prot/cy_prot.c **** * are valid for the master.
 895:Generated_Source\PSoC6\pdl\drivers\peripheral\prot/cy_prot.c **** *
 896:Generated_Source\PSoC6\pdl\drivers\peripheral\prot/cy_prot.c **** * \param secure
 897:Generated_Source\PSoC6\pdl\drivers\peripheral\prot/cy_prot.c **** * The secure flag.
 898:Generated_Source\PSoC6\pdl\drivers\peripheral\prot/cy_prot.c **** * 
 899:Generated_Source\PSoC6\pdl\drivers\peripheral\prot/cy_prot.c **** * \return
 900:Generated_Source\PSoC6\pdl\drivers\peripheral\prot/cy_prot.c **** * The status of the function call.
 901:Generated_Source\PSoC6\pdl\drivers\peripheral\prot/cy_prot.c **** *
 902:Generated_Source\PSoC6\pdl\drivers\peripheral\prot/cy_prot.c **** *   Status              | Description
 903:Generated_Source\PSoC6\pdl\drivers\peripheral\prot/cy_prot.c **** * ----------------------| ---------------------------------------
 904:Generated_Source\PSoC6\pdl\drivers\peripheral\prot/cy_prot.c **** * CY_PROT_SUCCESS       | The attributes were set up.
ARM GAS  C:\Users\Rolf\AppData\Local\Temp\ccTbcyL9.s 			page 21


 905:Generated_Source\PSoC6\pdl\drivers\peripheral\prot/cy_prot.c **** * CY_PROT_FAILURE       | The attributes were not set up because the structure is possibly locked.
 906:Generated_Source\PSoC6\pdl\drivers\peripheral\prot/cy_prot.c **** * CY_PROT_INVALID_STATE | The function was called on the device with an unsupported PERI HW version
 907:Generated_Source\PSoC6\pdl\drivers\peripheral\prot/cy_prot.c **** *
 908:Generated_Source\PSoC6\pdl\drivers\peripheral\prot/cy_prot.c **** * \note Only the user's/privileged Write permissions are configurable. The 
 909:Generated_Source\PSoC6\pdl\drivers\peripheral\prot/cy_prot.c **** * Read permissions are read-only and cannot be configured.
 910:Generated_Source\PSoC6\pdl\drivers\peripheral\prot/cy_prot.c **** *
 911:Generated_Source\PSoC6\pdl\drivers\peripheral\prot/cy_prot.c **** * \note PC0 accesses are read-only and are always enabled. 
 912:Generated_Source\PSoC6\pdl\drivers\peripheral\prot/cy_prot.c **** *
 913:Generated_Source\PSoC6\pdl\drivers\peripheral\prot/cy_prot.c **** * \funcusage
 914:Generated_Source\PSoC6\pdl\drivers\peripheral\prot/cy_prot.c **** * \snippet prot/1.20/snippet/main.c snippet_Cy_Prot_ConfigPpuProgMasterAtt
 915:Generated_Source\PSoC6\pdl\drivers\peripheral\prot/cy_prot.c **** *
 916:Generated_Source\PSoC6\pdl\drivers\peripheral\prot/cy_prot.c **** *******************************************************************************/
 917:Generated_Source\PSoC6\pdl\drivers\peripheral\prot/cy_prot.c **** cy_en_prot_status_t Cy_Prot_ConfigPpuProgMasterAtt(PERI_MS_PPU_PR_Type* base, uint16_t pcMask, 
 918:Generated_Source\PSoC6\pdl\drivers\peripheral\prot/cy_prot.c ****                                        cy_en_prot_perm_t userPermission, cy_en_prot_perm_t privPerm
 919:Generated_Source\PSoC6\pdl\drivers\peripheral\prot/cy_prot.c **** {   
 920:Generated_Source\PSoC6\pdl\drivers\peripheral\prot/cy_prot.c ****     /* The parameter checks */
 921:Generated_Source\PSoC6\pdl\drivers\peripheral\prot/cy_prot.c ****     CY_ASSERT_L1(NULL != base);
 922:Generated_Source\PSoC6\pdl\drivers\peripheral\prot/cy_prot.c ****     CY_ASSERT_L3(CY_PROT_IS_PROG_MS_PERM_VALID(userPermission));
 923:Generated_Source\PSoC6\pdl\drivers\peripheral\prot/cy_prot.c ****     CY_ASSERT_L3(CY_PROT_IS_PROG_MS_PERM_VALID(privPermission));
 924:Generated_Source\PSoC6\pdl\drivers\peripheral\prot/cy_prot.c ****     
 925:Generated_Source\PSoC6\pdl\drivers\peripheral\prot/cy_prot.c ****     return (Prot_ConfigPpuAtt(PERI_MS_PPU_PR_MS_ATT(base), pcMask, userPermission, privPermission, 
 926:Generated_Source\PSoC6\pdl\drivers\peripheral\prot/cy_prot.c **** }
 927:Generated_Source\PSoC6\pdl\drivers\peripheral\prot/cy_prot.c **** 
 928:Generated_Source\PSoC6\pdl\drivers\peripheral\prot/cy_prot.c **** 
 929:Generated_Source\PSoC6\pdl\drivers\peripheral\prot/cy_prot.c **** /*******************************************************************************
 930:Generated_Source\PSoC6\pdl\drivers\peripheral\prot/cy_prot.c **** * Function Name: Cy_Prot_ConfigPpuProgSlaveAddr
 931:Generated_Source\PSoC6\pdl\drivers\peripheral\prot/cy_prot.c **** ****************************************************************************//**
 932:Generated_Source\PSoC6\pdl\drivers\peripheral\prot/cy_prot.c **** *
 933:Generated_Source\PSoC6\pdl\drivers\peripheral\prot/cy_prot.c **** * Configures the protection-structure address settings  of the 
 934:Generated_Source\PSoC6\pdl\drivers\peripheral\prot/cy_prot.c **** * Programmable Peripheral Protection Unit (PPU PROG) slave. 
 935:Generated_Source\PSoC6\pdl\drivers\peripheral\prot/cy_prot.c **** * 
 936:Generated_Source\PSoC6\pdl\drivers\peripheral\prot/cy_prot.c **** * This function configures the slave structure of the PPU PROG pair, which can 
 937:Generated_Source\PSoC6\pdl\drivers\peripheral\prot/cy_prot.c **** * protect any peripheral memory region in a device from an invalid bus-master 
 938:Generated_Source\PSoC6\pdl\drivers\peripheral\prot/cy_prot.c **** * access.
 939:Generated_Source\PSoC6\pdl\drivers\peripheral\prot/cy_prot.c **** *
 940:Generated_Source\PSoC6\pdl\drivers\peripheral\prot/cy_prot.c **** * \note This function is applicable for CPUSS ver_2 only.
 941:Generated_Source\PSoC6\pdl\drivers\peripheral\prot/cy_prot.c **** *
 942:Generated_Source\PSoC6\pdl\drivers\peripheral\prot/cy_prot.c **** * \param base
 943:Generated_Source\PSoC6\pdl\drivers\peripheral\prot/cy_prot.c **** * The register base address of the protection structure is being configured.
 944:Generated_Source\PSoC6\pdl\drivers\peripheral\prot/cy_prot.c **** * 
 945:Generated_Source\PSoC6\pdl\drivers\peripheral\prot/cy_prot.c **** * \param address
 946:Generated_Source\PSoC6\pdl\drivers\peripheral\prot/cy_prot.c **** * The address.
 947:Generated_Source\PSoC6\pdl\drivers\peripheral\prot/cy_prot.c **** * 
 948:Generated_Source\PSoC6\pdl\drivers\peripheral\prot/cy_prot.c **** * \param regionSize
 949:Generated_Source\PSoC6\pdl\drivers\peripheral\prot/cy_prot.c **** * The region size.
 950:Generated_Source\PSoC6\pdl\drivers\peripheral\prot/cy_prot.c **** * 
 951:Generated_Source\PSoC6\pdl\drivers\peripheral\prot/cy_prot.c **** * \return
 952:Generated_Source\PSoC6\pdl\drivers\peripheral\prot/cy_prot.c **** * The status of the function call.
 953:Generated_Source\PSoC6\pdl\drivers\peripheral\prot/cy_prot.c **** *
 954:Generated_Source\PSoC6\pdl\drivers\peripheral\prot/cy_prot.c **** *   Status              | Description
 955:Generated_Source\PSoC6\pdl\drivers\peripheral\prot/cy_prot.c **** * ----------------------| ---------------------------------------
 956:Generated_Source\PSoC6\pdl\drivers\peripheral\prot/cy_prot.c **** * CY_PROT_SUCCESS       | The address settings were set up.
 957:Generated_Source\PSoC6\pdl\drivers\peripheral\prot/cy_prot.c **** * CY_PROT_FAILURE       | The address settings were not set up because the structure is possibly lo
 958:Generated_Source\PSoC6\pdl\drivers\peripheral\prot/cy_prot.c **** * CY_PROT_INVALID_STATE | The function was called on the device with an unsupported PERI HW version
 959:Generated_Source\PSoC6\pdl\drivers\peripheral\prot/cy_prot.c **** *
 960:Generated_Source\PSoC6\pdl\drivers\peripheral\prot/cy_prot.c **** * \note PC0 accesses are Read-only and are always enabled. 
 961:Generated_Source\PSoC6\pdl\drivers\peripheral\prot/cy_prot.c **** *
ARM GAS  C:\Users\Rolf\AppData\Local\Temp\ccTbcyL9.s 			page 22


 962:Generated_Source\PSoC6\pdl\drivers\peripheral\prot/cy_prot.c **** * \funcusage
 963:Generated_Source\PSoC6\pdl\drivers\peripheral\prot/cy_prot.c **** * \ref Cy_Prot_ConfigPpuProgSlaveAtt
 964:Generated_Source\PSoC6\pdl\drivers\peripheral\prot/cy_prot.c **** *
 965:Generated_Source\PSoC6\pdl\drivers\peripheral\prot/cy_prot.c **** *******************************************************************************/
 966:Generated_Source\PSoC6\pdl\drivers\peripheral\prot/cy_prot.c **** cy_en_prot_status_t Cy_Prot_ConfigPpuProgSlaveAddr(PERI_MS_PPU_PR_Type* base, uint32_t address, 
 967:Generated_Source\PSoC6\pdl\drivers\peripheral\prot/cy_prot.c ****                                                                    cy_en_prot_size_t regionSize)
 968:Generated_Source\PSoC6\pdl\drivers\peripheral\prot/cy_prot.c **** {
 969:Generated_Source\PSoC6\pdl\drivers\peripheral\prot/cy_prot.c ****     cy_en_prot_status_t status = CY_PROT_INVALID_STATE;
 970:Generated_Source\PSoC6\pdl\drivers\peripheral\prot/cy_prot.c ****     
 971:Generated_Source\PSoC6\pdl\drivers\peripheral\prot/cy_prot.c ****     /* The parameter checks */
 972:Generated_Source\PSoC6\pdl\drivers\peripheral\prot/cy_prot.c ****     CY_ASSERT_L1(NULL != base);
 973:Generated_Source\PSoC6\pdl\drivers\peripheral\prot/cy_prot.c ****     CY_ASSERT_L3(CY_PROT_IS_PPU_V2_SIZE_VALID(regionSize));
 974:Generated_Source\PSoC6\pdl\drivers\peripheral\prot/cy_prot.c ****     
 975:Generated_Source\PSoC6\pdl\drivers\peripheral\prot/cy_prot.c ****     if (!CY_PERI_V1)
 976:Generated_Source\PSoC6\pdl\drivers\peripheral\prot/cy_prot.c ****     {
 977:Generated_Source\PSoC6\pdl\drivers\peripheral\prot/cy_prot.c ****         PERI_MS_PPU_PR_SL_ADDR(base) = address & PERI_MS_PPU_PR_V2_SL_ADDR_ADDR30_Msk;
 978:Generated_Source\PSoC6\pdl\drivers\peripheral\prot/cy_prot.c ****         PERI_MS_PPU_PR_SL_SIZE(base) = _CLR_SET_FLD32U((PERI_MS_PPU_PR_SL_SIZE(base)), PERI_MS_PPU_
 979:Generated_Source\PSoC6\pdl\drivers\peripheral\prot/cy_prot.c ****         
 980:Generated_Source\PSoC6\pdl\drivers\peripheral\prot/cy_prot.c ****         status = ((PERI_MS_PPU_PR_SL_ADDR(base) != (address & PERI_MS_PPU_PR_V2_SL_ADDR_ADDR30_Msk)
 981:Generated_Source\PSoC6\pdl\drivers\peripheral\prot/cy_prot.c ****                   (_FLD2VAL(PERI_MS_PPU_PR_V2_SL_SIZE_REGION_SIZE, PERI_MS_PPU_PR_SL_SIZE(base)) !=
 982:Generated_Source\PSoC6\pdl\drivers\peripheral\prot/cy_prot.c ****                    CY_PROT_FAILURE : CY_PROT_SUCCESS;
 983:Generated_Source\PSoC6\pdl\drivers\peripheral\prot/cy_prot.c ****     }
 984:Generated_Source\PSoC6\pdl\drivers\peripheral\prot/cy_prot.c ****     
 985:Generated_Source\PSoC6\pdl\drivers\peripheral\prot/cy_prot.c ****     return status;
 986:Generated_Source\PSoC6\pdl\drivers\peripheral\prot/cy_prot.c **** }
 987:Generated_Source\PSoC6\pdl\drivers\peripheral\prot/cy_prot.c **** 
 988:Generated_Source\PSoC6\pdl\drivers\peripheral\prot/cy_prot.c **** 
 989:Generated_Source\PSoC6\pdl\drivers\peripheral\prot/cy_prot.c **** /*******************************************************************************
 990:Generated_Source\PSoC6\pdl\drivers\peripheral\prot/cy_prot.c **** * Function Name: Cy_Prot_ConfigPpuProgSlaveAtt
 991:Generated_Source\PSoC6\pdl\drivers\peripheral\prot/cy_prot.c **** ****************************************************************************//**
 992:Generated_Source\PSoC6\pdl\drivers\peripheral\prot/cy_prot.c **** *
 993:Generated_Source\PSoC6\pdl\drivers\peripheral\prot/cy_prot.c **** * Configures the protection structure with its protection attributes of the 
 994:Generated_Source\PSoC6\pdl\drivers\peripheral\prot/cy_prot.c **** * Programmable Peripheral Protection Unit (PPU PROG) slave. 
 995:Generated_Source\PSoC6\pdl\drivers\peripheral\prot/cy_prot.c **** * 
 996:Generated_Source\PSoC6\pdl\drivers\peripheral\prot/cy_prot.c **** * This function configures the slave structure of the PPU PROG pair, which can 
 997:Generated_Source\PSoC6\pdl\drivers\peripheral\prot/cy_prot.c **** * protect any peripheral memory region in a device from invalid bus-master 
 998:Generated_Source\PSoC6\pdl\drivers\peripheral\prot/cy_prot.c **** * access.
 999:Generated_Source\PSoC6\pdl\drivers\peripheral\prot/cy_prot.c **** *
1000:Generated_Source\PSoC6\pdl\drivers\peripheral\prot/cy_prot.c **** * \note This function is applicable for CPUSS ver_2 only.
1001:Generated_Source\PSoC6\pdl\drivers\peripheral\prot/cy_prot.c **** *
1002:Generated_Source\PSoC6\pdl\drivers\peripheral\prot/cy_prot.c **** * \param base
1003:Generated_Source\PSoC6\pdl\drivers\peripheral\prot/cy_prot.c **** * The register base address of the protection structure is being configured.
1004:Generated_Source\PSoC6\pdl\drivers\peripheral\prot/cy_prot.c **** *
1005:Generated_Source\PSoC6\pdl\drivers\peripheral\prot/cy_prot.c **** * \param pcMask
1006:Generated_Source\PSoC6\pdl\drivers\peripheral\prot/cy_prot.c **** * The protection context mask. This is a 16-bit value of the allowed contexts, 
1007:Generated_Source\PSoC6\pdl\drivers\peripheral\prot/cy_prot.c **** * it is an OR'ed (|) field of the * provided defines in cy_prot.h. 
1008:Generated_Source\PSoC6\pdl\drivers\peripheral\prot/cy_prot.c **** * For example: (CY_PROT_PCMASK1 | CY_PROT_PCMASK3 | CY_PROT_PCMASK4).
1009:Generated_Source\PSoC6\pdl\drivers\peripheral\prot/cy_prot.c **** * \note The function accepts pcMask values from CY_PROT_PCMASK1 to CY_PROT_PCMASK15. 
1010:Generated_Source\PSoC6\pdl\drivers\peripheral\prot/cy_prot.c **** * But each device has its own number of available protection contexts. 
1011:Generated_Source\PSoC6\pdl\drivers\peripheral\prot/cy_prot.c **** * That number is defined by PERI_PC_NR in the config file.
1012:Generated_Source\PSoC6\pdl\drivers\peripheral\prot/cy_prot.c **** *
1013:Generated_Source\PSoC6\pdl\drivers\peripheral\prot/cy_prot.c **** * \param userPermission
1014:Generated_Source\PSoC6\pdl\drivers\peripheral\prot/cy_prot.c **** * The user permission setting.
1015:Generated_Source\PSoC6\pdl\drivers\peripheral\prot/cy_prot.c **** *
1016:Generated_Source\PSoC6\pdl\drivers\peripheral\prot/cy_prot.c **** * \param privPermission
1017:Generated_Source\PSoC6\pdl\drivers\peripheral\prot/cy_prot.c **** * The privileged permission setting.
1018:Generated_Source\PSoC6\pdl\drivers\peripheral\prot/cy_prot.c **** *
ARM GAS  C:\Users\Rolf\AppData\Local\Temp\ccTbcyL9.s 			page 23


1019:Generated_Source\PSoC6\pdl\drivers\peripheral\prot/cy_prot.c **** * \param secure
1020:Generated_Source\PSoC6\pdl\drivers\peripheral\prot/cy_prot.c **** * The secure flag.
1021:Generated_Source\PSoC6\pdl\drivers\peripheral\prot/cy_prot.c **** * 
1022:Generated_Source\PSoC6\pdl\drivers\peripheral\prot/cy_prot.c **** * \return
1023:Generated_Source\PSoC6\pdl\drivers\peripheral\prot/cy_prot.c **** * The status of the function call.
1024:Generated_Source\PSoC6\pdl\drivers\peripheral\prot/cy_prot.c **** *
1025:Generated_Source\PSoC6\pdl\drivers\peripheral\prot/cy_prot.c **** *   Status              | Description
1026:Generated_Source\PSoC6\pdl\drivers\peripheral\prot/cy_prot.c **** * ----------------------| ---------------------------------------
1027:Generated_Source\PSoC6\pdl\drivers\peripheral\prot/cy_prot.c **** * CY_PROT_SUCCESS       | The attributes were set up.
1028:Generated_Source\PSoC6\pdl\drivers\peripheral\prot/cy_prot.c **** * CY_PROT_FAILURE       | The attributes were not set up because the structure is possibly locked.
1029:Generated_Source\PSoC6\pdl\drivers\peripheral\prot/cy_prot.c **** * CY_PROT_INVALID_STATE | The function was called on the device with an unsupported PERI HW version
1030:Generated_Source\PSoC6\pdl\drivers\peripheral\prot/cy_prot.c **** *
1031:Generated_Source\PSoC6\pdl\drivers\peripheral\prot/cy_prot.c **** * \note PC0 accesses are read-only and are always enabled. 
1032:Generated_Source\PSoC6\pdl\drivers\peripheral\prot/cy_prot.c **** *
1033:Generated_Source\PSoC6\pdl\drivers\peripheral\prot/cy_prot.c **** * \funcusage
1034:Generated_Source\PSoC6\pdl\drivers\peripheral\prot/cy_prot.c **** * \snippet prot/1.20/snippet/main.c snippet_Cy_Prot_ConfigPpuProgSlaveAtt
1035:Generated_Source\PSoC6\pdl\drivers\peripheral\prot/cy_prot.c **** *
1036:Generated_Source\PSoC6\pdl\drivers\peripheral\prot/cy_prot.c **** *******************************************************************************/
1037:Generated_Source\PSoC6\pdl\drivers\peripheral\prot/cy_prot.c **** cy_en_prot_status_t Cy_Prot_ConfigPpuProgSlaveAtt(PERI_MS_PPU_PR_Type* base, uint16_t pcMask, 
1038:Generated_Source\PSoC6\pdl\drivers\peripheral\prot/cy_prot.c ****                                        cy_en_prot_perm_t userPermission, cy_en_prot_perm_t privPerm
1039:Generated_Source\PSoC6\pdl\drivers\peripheral\prot/cy_prot.c **** {
1040:Generated_Source\PSoC6\pdl\drivers\peripheral\prot/cy_prot.c ****     /* The parameter checks */
1041:Generated_Source\PSoC6\pdl\drivers\peripheral\prot/cy_prot.c ****     CY_ASSERT_L1(NULL != base);
1042:Generated_Source\PSoC6\pdl\drivers\peripheral\prot/cy_prot.c ****     CY_ASSERT_L3(CY_PROT_IS_PROG_SL_PERM_VALID(userPermission));
1043:Generated_Source\PSoC6\pdl\drivers\peripheral\prot/cy_prot.c ****     CY_ASSERT_L3(CY_PROT_IS_PROG_SL_PERM_VALID(privPermission));
1044:Generated_Source\PSoC6\pdl\drivers\peripheral\prot/cy_prot.c **** 
1045:Generated_Source\PSoC6\pdl\drivers\peripheral\prot/cy_prot.c ****     return (Prot_ConfigPpuAtt(PERI_MS_PPU_PR_SL_ATT(base), pcMask, userPermission, privPermission, 
1046:Generated_Source\PSoC6\pdl\drivers\peripheral\prot/cy_prot.c **** }
1047:Generated_Source\PSoC6\pdl\drivers\peripheral\prot/cy_prot.c **** 
1048:Generated_Source\PSoC6\pdl\drivers\peripheral\prot/cy_prot.c **** 
1049:Generated_Source\PSoC6\pdl\drivers\peripheral\prot/cy_prot.c **** /*******************************************************************************
1050:Generated_Source\PSoC6\pdl\drivers\peripheral\prot/cy_prot.c **** * Function Name: Cy_Prot_EnablePpuProgSlaveRegion
1051:Generated_Source\PSoC6\pdl\drivers\peripheral\prot/cy_prot.c **** ****************************************************************************//**
1052:Generated_Source\PSoC6\pdl\drivers\peripheral\prot/cy_prot.c **** *
1053:Generated_Source\PSoC6\pdl\drivers\peripheral\prot/cy_prot.c **** * Enables the Slave PPU PROG structure.
1054:Generated_Source\PSoC6\pdl\drivers\peripheral\prot/cy_prot.c **** *
1055:Generated_Source\PSoC6\pdl\drivers\peripheral\prot/cy_prot.c **** * This is the PPU PROG slave-structure enable function. The PPU PROG protection 
1056:Generated_Source\PSoC6\pdl\drivers\peripheral\prot/cy_prot.c **** * settings will take effect after a successful completion of this function call.
1057:Generated_Source\PSoC6\pdl\drivers\peripheral\prot/cy_prot.c **** *
1058:Generated_Source\PSoC6\pdl\drivers\peripheral\prot/cy_prot.c **** * \note This function is applicable for CPUSS ver_2 only.
1059:Generated_Source\PSoC6\pdl\drivers\peripheral\prot/cy_prot.c **** *
1060:Generated_Source\PSoC6\pdl\drivers\peripheral\prot/cy_prot.c **** * \param base
1061:Generated_Source\PSoC6\pdl\drivers\peripheral\prot/cy_prot.c **** * The base address for the protection unit structure is being configured. 
1062:Generated_Source\PSoC6\pdl\drivers\peripheral\prot/cy_prot.c **** *
1063:Generated_Source\PSoC6\pdl\drivers\peripheral\prot/cy_prot.c **** * \return
1064:Generated_Source\PSoC6\pdl\drivers\peripheral\prot/cy_prot.c **** * The status of the function call.
1065:Generated_Source\PSoC6\pdl\drivers\peripheral\prot/cy_prot.c **** *
1066:Generated_Source\PSoC6\pdl\drivers\peripheral\prot/cy_prot.c **** *   Status              | Description
1067:Generated_Source\PSoC6\pdl\drivers\peripheral\prot/cy_prot.c **** * ----------------------| ---------------------------------------
1068:Generated_Source\PSoC6\pdl\drivers\peripheral\prot/cy_prot.c **** * CY_PROT_SUCCESS       | The structure was enabled.
1069:Generated_Source\PSoC6\pdl\drivers\peripheral\prot/cy_prot.c **** * CY_PROT_FAILURE       | The structure is disabled and possibly locked.
1070:Generated_Source\PSoC6\pdl\drivers\peripheral\prot/cy_prot.c **** * CY_PROT_INVALID_STATE | The function was called on the device with an unsupported PERI HW version
1071:Generated_Source\PSoC6\pdl\drivers\peripheral\prot/cy_prot.c **** *
1072:Generated_Source\PSoC6\pdl\drivers\peripheral\prot/cy_prot.c **** * \funcusage
1073:Generated_Source\PSoC6\pdl\drivers\peripheral\prot/cy_prot.c **** * \ref Cy_Prot_ConfigPpuProgSlaveAtt
1074:Generated_Source\PSoC6\pdl\drivers\peripheral\prot/cy_prot.c **** *
1075:Generated_Source\PSoC6\pdl\drivers\peripheral\prot/cy_prot.c **** *******************************************************************************/
ARM GAS  C:\Users\Rolf\AppData\Local\Temp\ccTbcyL9.s 			page 24


1076:Generated_Source\PSoC6\pdl\drivers\peripheral\prot/cy_prot.c **** cy_en_prot_status_t Cy_Prot_EnablePpuProgSlaveRegion(PERI_MS_PPU_PR_Type* base)
1077:Generated_Source\PSoC6\pdl\drivers\peripheral\prot/cy_prot.c **** {   
1078:Generated_Source\PSoC6\pdl\drivers\peripheral\prot/cy_prot.c ****     cy_en_prot_status_t status = CY_PROT_INVALID_STATE;
1079:Generated_Source\PSoC6\pdl\drivers\peripheral\prot/cy_prot.c ****     
1080:Generated_Source\PSoC6\pdl\drivers\peripheral\prot/cy_prot.c ****     CY_ASSERT_L1(NULL != base);
1081:Generated_Source\PSoC6\pdl\drivers\peripheral\prot/cy_prot.c ****     
1082:Generated_Source\PSoC6\pdl\drivers\peripheral\prot/cy_prot.c ****     if (!CY_PERI_V1)
1083:Generated_Source\PSoC6\pdl\drivers\peripheral\prot/cy_prot.c ****     {
1084:Generated_Source\PSoC6\pdl\drivers\peripheral\prot/cy_prot.c ****         PERI_MS_PPU_PR_SL_SIZE(base) = 
1085:Generated_Source\PSoC6\pdl\drivers\peripheral\prot/cy_prot.c ****         _CLR_SET_FLD32U((PERI_MS_PPU_PR_SL_SIZE(base)), PERI_MS_PPU_PR_V2_SL_SIZE_VALID, CY_PROT_ST
1086:Generated_Source\PSoC6\pdl\drivers\peripheral\prot/cy_prot.c ****         
1087:Generated_Source\PSoC6\pdl\drivers\peripheral\prot/cy_prot.c ****         status = (_FLD2VAL(PERI_MS_PPU_PR_V2_SL_SIZE_VALID, PERI_MS_PPU_PR_SL_SIZE(base)) != CY_PRO
1088:Generated_Source\PSoC6\pdl\drivers\peripheral\prot/cy_prot.c ****         CY_PROT_FAILURE : CY_PROT_SUCCESS;
1089:Generated_Source\PSoC6\pdl\drivers\peripheral\prot/cy_prot.c ****     }
1090:Generated_Source\PSoC6\pdl\drivers\peripheral\prot/cy_prot.c ****     
1091:Generated_Source\PSoC6\pdl\drivers\peripheral\prot/cy_prot.c ****     return status;
1092:Generated_Source\PSoC6\pdl\drivers\peripheral\prot/cy_prot.c **** }
1093:Generated_Source\PSoC6\pdl\drivers\peripheral\prot/cy_prot.c **** 
1094:Generated_Source\PSoC6\pdl\drivers\peripheral\prot/cy_prot.c **** 
1095:Generated_Source\PSoC6\pdl\drivers\peripheral\prot/cy_prot.c **** /*******************************************************************************
1096:Generated_Source\PSoC6\pdl\drivers\peripheral\prot/cy_prot.c **** * Function Name: Cy_Prot_DisablePpuProgSlaveRegion
1097:Generated_Source\PSoC6\pdl\drivers\peripheral\prot/cy_prot.c **** ****************************************************************************//**
1098:Generated_Source\PSoC6\pdl\drivers\peripheral\prot/cy_prot.c **** *
1099:Generated_Source\PSoC6\pdl\drivers\peripheral\prot/cy_prot.c **** * Disables the Slave PPU PROG structure.
1100:Generated_Source\PSoC6\pdl\drivers\peripheral\prot/cy_prot.c **** *
1101:Generated_Source\PSoC6\pdl\drivers\peripheral\prot/cy_prot.c **** * This is the PPU PROG slave-structure disable function. The PPU PROG protection 
1102:Generated_Source\PSoC6\pdl\drivers\peripheral\prot/cy_prot.c **** * settings will seize to take effect after successful completion of this 
1103:Generated_Source\PSoC6\pdl\drivers\peripheral\prot/cy_prot.c **** * function call.
1104:Generated_Source\PSoC6\pdl\drivers\peripheral\prot/cy_prot.c **** *
1105:Generated_Source\PSoC6\pdl\drivers\peripheral\prot/cy_prot.c **** * \note This function is applicable for CPUSS ver_2 only.
1106:Generated_Source\PSoC6\pdl\drivers\peripheral\prot/cy_prot.c **** *
1107:Generated_Source\PSoC6\pdl\drivers\peripheral\prot/cy_prot.c **** * \param base
1108:Generated_Source\PSoC6\pdl\drivers\peripheral\prot/cy_prot.c **** * The base address for the protection unit structure is being configured. 
1109:Generated_Source\PSoC6\pdl\drivers\peripheral\prot/cy_prot.c **** *
1110:Generated_Source\PSoC6\pdl\drivers\peripheral\prot/cy_prot.c **** * \return
1111:Generated_Source\PSoC6\pdl\drivers\peripheral\prot/cy_prot.c **** * The status of the function call.
1112:Generated_Source\PSoC6\pdl\drivers\peripheral\prot/cy_prot.c **** *
1113:Generated_Source\PSoC6\pdl\drivers\peripheral\prot/cy_prot.c **** *   Status              | Description
1114:Generated_Source\PSoC6\pdl\drivers\peripheral\prot/cy_prot.c **** * ----------------------| ---------------------------------------
1115:Generated_Source\PSoC6\pdl\drivers\peripheral\prot/cy_prot.c **** * CY_PROT_SUCCESS       | The slave PPU PROG structure was disabled.
1116:Generated_Source\PSoC6\pdl\drivers\peripheral\prot/cy_prot.c **** * CY_PROT_FAILURE       | The structure is enabled and possibly locked.
1117:Generated_Source\PSoC6\pdl\drivers\peripheral\prot/cy_prot.c **** * CY_PROT_INVALID_STATE | The function was called on the device with an unsupported PERI HW version
1118:Generated_Source\PSoC6\pdl\drivers\peripheral\prot/cy_prot.c **** *
1119:Generated_Source\PSoC6\pdl\drivers\peripheral\prot/cy_prot.c **** * \funcusage
1120:Generated_Source\PSoC6\pdl\drivers\peripheral\prot/cy_prot.c **** * \snippet prot/1.20/snippet/main.c snippet_Cy_Prot_DisablePpuProgSlaveRegion
1121:Generated_Source\PSoC6\pdl\drivers\peripheral\prot/cy_prot.c **** *
1122:Generated_Source\PSoC6\pdl\drivers\peripheral\prot/cy_prot.c **** *******************************************************************************/
1123:Generated_Source\PSoC6\pdl\drivers\peripheral\prot/cy_prot.c **** cy_en_prot_status_t Cy_Prot_DisablePpuProgSlaveRegion(PERI_MS_PPU_PR_Type* base)
1124:Generated_Source\PSoC6\pdl\drivers\peripheral\prot/cy_prot.c **** {
1125:Generated_Source\PSoC6\pdl\drivers\peripheral\prot/cy_prot.c ****     cy_en_prot_status_t status = CY_PROT_INVALID_STATE;
1126:Generated_Source\PSoC6\pdl\drivers\peripheral\prot/cy_prot.c ****     
1127:Generated_Source\PSoC6\pdl\drivers\peripheral\prot/cy_prot.c ****     CY_ASSERT_L1(NULL != base);
1128:Generated_Source\PSoC6\pdl\drivers\peripheral\prot/cy_prot.c ****     
1129:Generated_Source\PSoC6\pdl\drivers\peripheral\prot/cy_prot.c ****     if (!CY_PERI_V1)
1130:Generated_Source\PSoC6\pdl\drivers\peripheral\prot/cy_prot.c ****     {
1131:Generated_Source\PSoC6\pdl\drivers\peripheral\prot/cy_prot.c ****         PERI_MS_PPU_PR_SL_SIZE(base) = 
1132:Generated_Source\PSoC6\pdl\drivers\peripheral\prot/cy_prot.c ****         _CLR_SET_FLD32U((PERI_MS_PPU_PR_SL_SIZE(base)), PERI_MS_PPU_PR_V2_SL_SIZE_VALID, CY_PROT_ST
ARM GAS  C:\Users\Rolf\AppData\Local\Temp\ccTbcyL9.s 			page 25


1133:Generated_Source\PSoC6\pdl\drivers\peripheral\prot/cy_prot.c **** 
1134:Generated_Source\PSoC6\pdl\drivers\peripheral\prot/cy_prot.c ****         status = (_FLD2VAL(PERI_MS_PPU_PR_V2_SL_SIZE_VALID, PERI_MS_PPU_PR_SL_SIZE(base)) != CY_PRO
1135:Generated_Source\PSoC6\pdl\drivers\peripheral\prot/cy_prot.c ****         CY_PROT_FAILURE : CY_PROT_SUCCESS;
1136:Generated_Source\PSoC6\pdl\drivers\peripheral\prot/cy_prot.c ****     }
1137:Generated_Source\PSoC6\pdl\drivers\peripheral\prot/cy_prot.c ****     
1138:Generated_Source\PSoC6\pdl\drivers\peripheral\prot/cy_prot.c ****     return status;
1139:Generated_Source\PSoC6\pdl\drivers\peripheral\prot/cy_prot.c **** }
1140:Generated_Source\PSoC6\pdl\drivers\peripheral\prot/cy_prot.c **** 
1141:Generated_Source\PSoC6\pdl\drivers\peripheral\prot/cy_prot.c **** 
1142:Generated_Source\PSoC6\pdl\drivers\peripheral\prot/cy_prot.c **** /*******************************************************************************
1143:Generated_Source\PSoC6\pdl\drivers\peripheral\prot/cy_prot.c **** * Function Name: Cy_Prot_ConfigPpuFixedMasterAtt
1144:Generated_Source\PSoC6\pdl\drivers\peripheral\prot/cy_prot.c **** ****************************************************************************//**
1145:Generated_Source\PSoC6\pdl\drivers\peripheral\prot/cy_prot.c **** *
1146:Generated_Source\PSoC6\pdl\drivers\peripheral\prot/cy_prot.c **** * Configures the protection structure with its protection attributes of the
1147:Generated_Source\PSoC6\pdl\drivers\peripheral\prot/cy_prot.c **** * Fixed Peripheral Protection Unit (PPU FIXED) master. 
1148:Generated_Source\PSoC6\pdl\drivers\peripheral\prot/cy_prot.c **** *
1149:Generated_Source\PSoC6\pdl\drivers\peripheral\prot/cy_prot.c **** * This function configures the master structure governing the corresponding slave
1150:Generated_Source\PSoC6\pdl\drivers\peripheral\prot/cy_prot.c **** * structure pair. It is a mechanism to protect the slave PPU FIXED structure.
1151:Generated_Source\PSoC6\pdl\drivers\peripheral\prot/cy_prot.c **** * The memory location of the slave structure is known, so the address, region size
1152:Generated_Source\PSoC6\pdl\drivers\peripheral\prot/cy_prot.c **** * and sub-regions of the configuration structure are not applicable.
1153:Generated_Source\PSoC6\pdl\drivers\peripheral\prot/cy_prot.c **** *
1154:Generated_Source\PSoC6\pdl\drivers\peripheral\prot/cy_prot.c **** * \note This function is applicable for CPUSS ver_2 only.
1155:Generated_Source\PSoC6\pdl\drivers\peripheral\prot/cy_prot.c **** *
1156:Generated_Source\PSoC6\pdl\drivers\peripheral\prot/cy_prot.c **** * \param base
1157:Generated_Source\PSoC6\pdl\drivers\peripheral\prot/cy_prot.c **** * The register base address of the protection structure is being configured.
1158:Generated_Source\PSoC6\pdl\drivers\peripheral\prot/cy_prot.c **** *
1159:Generated_Source\PSoC6\pdl\drivers\peripheral\prot/cy_prot.c **** * \param pcMask
1160:Generated_Source\PSoC6\pdl\drivers\peripheral\prot/cy_prot.c **** * The protection context mask. This is a 16-bit value of the allowed contexts, 
1161:Generated_Source\PSoC6\pdl\drivers\peripheral\prot/cy_prot.c **** * it is an OR'ed (|) field of the * provided defines in cy_prot.h. 
1162:Generated_Source\PSoC6\pdl\drivers\peripheral\prot/cy_prot.c **** * For example: (CY_PROT_PCMASK1 | CY_PROT_PCMASK3 | CY_PROT_PCMASK4).
1163:Generated_Source\PSoC6\pdl\drivers\peripheral\prot/cy_prot.c **** * \note The function accepts pcMask values from CY_PROT_PCMASK1 to CY_PROT_PCMASK15. 
1164:Generated_Source\PSoC6\pdl\drivers\peripheral\prot/cy_prot.c **** * But each device has its own number of available protection contexts. 
1165:Generated_Source\PSoC6\pdl\drivers\peripheral\prot/cy_prot.c **** * That number is defined by PERI_PC_NR in the config file.
1166:Generated_Source\PSoC6\pdl\drivers\peripheral\prot/cy_prot.c **** *
1167:Generated_Source\PSoC6\pdl\drivers\peripheral\prot/cy_prot.c **** * \param userPermission
1168:Generated_Source\PSoC6\pdl\drivers\peripheral\prot/cy_prot.c **** * The user permission setting. The CY_PROT_PERM_R or CY_PROT_PERM_RW values 
1169:Generated_Source\PSoC6\pdl\drivers\peripheral\prot/cy_prot.c **** * are valid for the master.
1170:Generated_Source\PSoC6\pdl\drivers\peripheral\prot/cy_prot.c **** *
1171:Generated_Source\PSoC6\pdl\drivers\peripheral\prot/cy_prot.c **** * \param privPermission
1172:Generated_Source\PSoC6\pdl\drivers\peripheral\prot/cy_prot.c **** * The privileged permission setting. The CY_PROT_PERM_R or CY_PROT_PERM_RW values 
1173:Generated_Source\PSoC6\pdl\drivers\peripheral\prot/cy_prot.c **** * are valid for the master.
1174:Generated_Source\PSoC6\pdl\drivers\peripheral\prot/cy_prot.c **** *
1175:Generated_Source\PSoC6\pdl\drivers\peripheral\prot/cy_prot.c **** * \param secure
1176:Generated_Source\PSoC6\pdl\drivers\peripheral\prot/cy_prot.c **** * The secure flag.
1177:Generated_Source\PSoC6\pdl\drivers\peripheral\prot/cy_prot.c **** * 
1178:Generated_Source\PSoC6\pdl\drivers\peripheral\prot/cy_prot.c **** * \return
1179:Generated_Source\PSoC6\pdl\drivers\peripheral\prot/cy_prot.c **** * The status of the function call.
1180:Generated_Source\PSoC6\pdl\drivers\peripheral\prot/cy_prot.c **** *
1181:Generated_Source\PSoC6\pdl\drivers\peripheral\prot/cy_prot.c **** *   Status              | Description
1182:Generated_Source\PSoC6\pdl\drivers\peripheral\prot/cy_prot.c **** * ----------------------| ---------------------------------------
1183:Generated_Source\PSoC6\pdl\drivers\peripheral\prot/cy_prot.c **** * CY_PROT_SUCCESS       | The attributes were set up.
1184:Generated_Source\PSoC6\pdl\drivers\peripheral\prot/cy_prot.c **** * CY_PROT_FAILURE       | The attributes were not setup and the structure is possibly locked.
1185:Generated_Source\PSoC6\pdl\drivers\peripheral\prot/cy_prot.c **** * CY_PROT_INVALID_STATE | The function was called on the device with an unsupported PERI HW version
1186:Generated_Source\PSoC6\pdl\drivers\peripheral\prot/cy_prot.c **** *
1187:Generated_Source\PSoC6\pdl\drivers\peripheral\prot/cy_prot.c **** * \note Only the user/privileged write permissions are configurable. The 
1188:Generated_Source\PSoC6\pdl\drivers\peripheral\prot/cy_prot.c **** * read permissions are read-only and cannot be configured.
1189:Generated_Source\PSoC6\pdl\drivers\peripheral\prot/cy_prot.c **** *
ARM GAS  C:\Users\Rolf\AppData\Local\Temp\ccTbcyL9.s 			page 26


1190:Generated_Source\PSoC6\pdl\drivers\peripheral\prot/cy_prot.c **** * \note PC0 accesses are read-only and are always enabled. 
1191:Generated_Source\PSoC6\pdl\drivers\peripheral\prot/cy_prot.c **** *
1192:Generated_Source\PSoC6\pdl\drivers\peripheral\prot/cy_prot.c **** * \funcusage
1193:Generated_Source\PSoC6\pdl\drivers\peripheral\prot/cy_prot.c **** * \snippet prot/1.20/snippet/main.c snippet_Cy_Prot_ConfigPpuFixedMasterAtt
1194:Generated_Source\PSoC6\pdl\drivers\peripheral\prot/cy_prot.c **** *
1195:Generated_Source\PSoC6\pdl\drivers\peripheral\prot/cy_prot.c **** *******************************************************************************/
1196:Generated_Source\PSoC6\pdl\drivers\peripheral\prot/cy_prot.c **** cy_en_prot_status_t Cy_Prot_ConfigPpuFixedMasterAtt(PERI_MS_PPU_FX_Type* base, uint16_t pcMask,
1197:Generated_Source\PSoC6\pdl\drivers\peripheral\prot/cy_prot.c ****                                       cy_en_prot_perm_t userPermission, cy_en_prot_perm_t privPermi
1198:Generated_Source\PSoC6\pdl\drivers\peripheral\prot/cy_prot.c **** {
1199:Generated_Source\PSoC6\pdl\drivers\peripheral\prot/cy_prot.c ****     /* The parameter checks */
1200:Generated_Source\PSoC6\pdl\drivers\peripheral\prot/cy_prot.c ****     CY_ASSERT_L1(NULL != base);
1201:Generated_Source\PSoC6\pdl\drivers\peripheral\prot/cy_prot.c ****     CY_ASSERT_L3(CY_PROT_IS_FIXED_MS_MS_PERM_VALID(userPermission));
1202:Generated_Source\PSoC6\pdl\drivers\peripheral\prot/cy_prot.c ****     CY_ASSERT_L3(CY_PROT_IS_FIXED_MS_MS_PERM_VALID(privPermission));
1203:Generated_Source\PSoC6\pdl\drivers\peripheral\prot/cy_prot.c **** 
1204:Generated_Source\PSoC6\pdl\drivers\peripheral\prot/cy_prot.c ****     return (Prot_ConfigPpuAtt(PERI_MS_PPU_FX_MS_ATT(base), pcMask, userPermission, privPermission, 
1205:Generated_Source\PSoC6\pdl\drivers\peripheral\prot/cy_prot.c **** }
1206:Generated_Source\PSoC6\pdl\drivers\peripheral\prot/cy_prot.c **** 
1207:Generated_Source\PSoC6\pdl\drivers\peripheral\prot/cy_prot.c **** 
1208:Generated_Source\PSoC6\pdl\drivers\peripheral\prot/cy_prot.c **** /*******************************************************************************
1209:Generated_Source\PSoC6\pdl\drivers\peripheral\prot/cy_prot.c **** * Function Name: Cy_Prot_ConfigPpuFixedSlaveAtt
1210:Generated_Source\PSoC6\pdl\drivers\peripheral\prot/cy_prot.c **** ****************************************************************************//**
1211:Generated_Source\PSoC6\pdl\drivers\peripheral\prot/cy_prot.c **** *
1212:Generated_Source\PSoC6\pdl\drivers\peripheral\prot/cy_prot.c **** * Configures the protection structure with its protection attributes of
1213:Generated_Source\PSoC6\pdl\drivers\peripheral\prot/cy_prot.c **** * the Fixed Peripheral Protection Unit (PPU FIXED) slave. 
1214:Generated_Source\PSoC6\pdl\drivers\peripheral\prot/cy_prot.c **** * 
1215:Generated_Source\PSoC6\pdl\drivers\peripheral\prot/cy_prot.c **** * This function configures the slave structure of the PPU FIXED pair, which can 
1216:Generated_Source\PSoC6\pdl\drivers\peripheral\prot/cy_prot.c **** * protect any peripheral memory region in a device from invalid bus-master 
1217:Generated_Source\PSoC6\pdl\drivers\peripheral\prot/cy_prot.c **** * access.
1218:Generated_Source\PSoC6\pdl\drivers\peripheral\prot/cy_prot.c **** *
1219:Generated_Source\PSoC6\pdl\drivers\peripheral\prot/cy_prot.c **** * \note This function is applicable for CPUSS ver_2 only.
1220:Generated_Source\PSoC6\pdl\drivers\peripheral\prot/cy_prot.c **** *
1221:Generated_Source\PSoC6\pdl\drivers\peripheral\prot/cy_prot.c **** * \param base
1222:Generated_Source\PSoC6\pdl\drivers\peripheral\prot/cy_prot.c **** * The register base address of the protection structure is being configured.
1223:Generated_Source\PSoC6\pdl\drivers\peripheral\prot/cy_prot.c **** *
1224:Generated_Source\PSoC6\pdl\drivers\peripheral\prot/cy_prot.c **** * \param pcMask
1225:Generated_Source\PSoC6\pdl\drivers\peripheral\prot/cy_prot.c **** * The protection context mask. This is a 16-bit value of the allowed contexts, 
1226:Generated_Source\PSoC6\pdl\drivers\peripheral\prot/cy_prot.c **** * it is an OR'ed (|) field of the * provided defines in cy_prot.h. 
1227:Generated_Source\PSoC6\pdl\drivers\peripheral\prot/cy_prot.c **** * For example: (CY_PROT_PCMASK1 | CY_PROT_PCMASK3 | CY_PROT_PCMASK4).
1228:Generated_Source\PSoC6\pdl\drivers\peripheral\prot/cy_prot.c **** * \note The function accepts pcMask values from CY_PROT_PCMASK1 to CY_PROT_PCMASK15. 
1229:Generated_Source\PSoC6\pdl\drivers\peripheral\prot/cy_prot.c **** * But each device has its own number of available protection contexts. 
1230:Generated_Source\PSoC6\pdl\drivers\peripheral\prot/cy_prot.c **** * That number is defined by PERI_PC_NR in the config file.
1231:Generated_Source\PSoC6\pdl\drivers\peripheral\prot/cy_prot.c **** *
1232:Generated_Source\PSoC6\pdl\drivers\peripheral\prot/cy_prot.c **** * \param userPermission
1233:Generated_Source\PSoC6\pdl\drivers\peripheral\prot/cy_prot.c **** * The user permission setting.
1234:Generated_Source\PSoC6\pdl\drivers\peripheral\prot/cy_prot.c **** *
1235:Generated_Source\PSoC6\pdl\drivers\peripheral\prot/cy_prot.c **** * \param privPermission
1236:Generated_Source\PSoC6\pdl\drivers\peripheral\prot/cy_prot.c **** * The privileged permission setting.
1237:Generated_Source\PSoC6\pdl\drivers\peripheral\prot/cy_prot.c **** *
1238:Generated_Source\PSoC6\pdl\drivers\peripheral\prot/cy_prot.c **** * \param secure
1239:Generated_Source\PSoC6\pdl\drivers\peripheral\prot/cy_prot.c **** * The secure flag.
1240:Generated_Source\PSoC6\pdl\drivers\peripheral\prot/cy_prot.c **** * 
1241:Generated_Source\PSoC6\pdl\drivers\peripheral\prot/cy_prot.c **** * \return
1242:Generated_Source\PSoC6\pdl\drivers\peripheral\prot/cy_prot.c **** * The status of the function call.
1243:Generated_Source\PSoC6\pdl\drivers\peripheral\prot/cy_prot.c **** *
1244:Generated_Source\PSoC6\pdl\drivers\peripheral\prot/cy_prot.c **** *   Status              | Description
1245:Generated_Source\PSoC6\pdl\drivers\peripheral\prot/cy_prot.c **** * ----------------------| ---------------------------------------
1246:Generated_Source\PSoC6\pdl\drivers\peripheral\prot/cy_prot.c **** * CY_PROT_SUCCESS       | The attributes were set up.
ARM GAS  C:\Users\Rolf\AppData\Local\Temp\ccTbcyL9.s 			page 27


1247:Generated_Source\PSoC6\pdl\drivers\peripheral\prot/cy_prot.c **** * CY_PROT_FAILURE       | The attributes were not setup and the structure is possibly locked.
1248:Generated_Source\PSoC6\pdl\drivers\peripheral\prot/cy_prot.c **** * CY_PROT_INVALID_STATE | The function was called on the device with an unsupported PERI HW version
1249:Generated_Source\PSoC6\pdl\drivers\peripheral\prot/cy_prot.c **** *
1250:Generated_Source\PSoC6\pdl\drivers\peripheral\prot/cy_prot.c **** * \note PC0 accesses are read-only and are always enabled. 
1251:Generated_Source\PSoC6\pdl\drivers\peripheral\prot/cy_prot.c **** *
1252:Generated_Source\PSoC6\pdl\drivers\peripheral\prot/cy_prot.c **** * \funcusage
1253:Generated_Source\PSoC6\pdl\drivers\peripheral\prot/cy_prot.c **** * \snippet prot/1.20/snippet/main.c snippet_Cy_Prot_ConfigPpuFixedSlaveAtt
1254:Generated_Source\PSoC6\pdl\drivers\peripheral\prot/cy_prot.c **** *
1255:Generated_Source\PSoC6\pdl\drivers\peripheral\prot/cy_prot.c **** *******************************************************************************/
1256:Generated_Source\PSoC6\pdl\drivers\peripheral\prot/cy_prot.c **** cy_en_prot_status_t Cy_Prot_ConfigPpuFixedSlaveAtt(PERI_MS_PPU_FX_Type* base, uint16_t pcMask, 
1257:Generated_Source\PSoC6\pdl\drivers\peripheral\prot/cy_prot.c ****                            cy_en_prot_perm_t userPermission, cy_en_prot_perm_t privPermission, bool
1258:Generated_Source\PSoC6\pdl\drivers\peripheral\prot/cy_prot.c **** {
1259:Generated_Source\PSoC6\pdl\drivers\peripheral\prot/cy_prot.c ****     /* The parameter checks */
1260:Generated_Source\PSoC6\pdl\drivers\peripheral\prot/cy_prot.c ****     CY_ASSERT_L1(NULL != base);
1261:Generated_Source\PSoC6\pdl\drivers\peripheral\prot/cy_prot.c ****     CY_ASSERT_L3(CY_PROT_IS_FIXED_MS_PERM_VALID(userPermission));
1262:Generated_Source\PSoC6\pdl\drivers\peripheral\prot/cy_prot.c ****     CY_ASSERT_L3(CY_PROT_IS_FIXED_MS_PERM_VALID(privPermission));
1263:Generated_Source\PSoC6\pdl\drivers\peripheral\prot/cy_prot.c **** 
1264:Generated_Source\PSoC6\pdl\drivers\peripheral\prot/cy_prot.c ****     return (Prot_ConfigPpuAtt(PERI_MS_PPU_FX_SL_ATT(base), pcMask, userPermission, privPermission, 
1265:Generated_Source\PSoC6\pdl\drivers\peripheral\prot/cy_prot.c **** }
1266:Generated_Source\PSoC6\pdl\drivers\peripheral\prot/cy_prot.c **** 
1267:Generated_Source\PSoC6\pdl\drivers\peripheral\prot/cy_prot.c **** 
1268:Generated_Source\PSoC6\pdl\drivers\peripheral\prot/cy_prot.c **** /*******************************************************************************
1269:Generated_Source\PSoC6\pdl\drivers\peripheral\prot/cy_prot.c **** * Function Name: Cy_Prot_ConfigPpuProgMasterStruct
1270:Generated_Source\PSoC6\pdl\drivers\peripheral\prot/cy_prot.c **** ****************************************************************************//**
1271:Generated_Source\PSoC6\pdl\drivers\peripheral\prot/cy_prot.c **** *
1272:Generated_Source\PSoC6\pdl\drivers\peripheral\prot/cy_prot.c **** * Configures a Programmable Peripheral Protection Unit (PPU PROG) master 
1273:Generated_Source\PSoC6\pdl\drivers\peripheral\prot/cy_prot.c **** * protection struct with its protection attributes. 
1274:Generated_Source\PSoC6\pdl\drivers\peripheral\prot/cy_prot.c **** *
1275:Generated_Source\PSoC6\pdl\drivers\peripheral\prot/cy_prot.c **** * This function configures the master struct governing the corresponding slave
1276:Generated_Source\PSoC6\pdl\drivers\peripheral\prot/cy_prot.c **** * struct pair. It is a mechanism to protect the slave PPU PROG struct. Since
1277:Generated_Source\PSoC6\pdl\drivers\peripheral\prot/cy_prot.c **** * the memory location of the slave struct is known, the address, regionSize and
1278:Generated_Source\PSoC6\pdl\drivers\peripheral\prot/cy_prot.c **** * subregions of the configuration struct are not applicable.
1279:Generated_Source\PSoC6\pdl\drivers\peripheral\prot/cy_prot.c **** *
1280:Generated_Source\PSoC6\pdl\drivers\peripheral\prot/cy_prot.c **** * Note that only the user/privileged write permissions are configurable. The 
1281:Generated_Source\PSoC6\pdl\drivers\peripheral\prot/cy_prot.c **** * read and execute permissions are read-only and cannot be configured.
1282:Generated_Source\PSoC6\pdl\drivers\peripheral\prot/cy_prot.c **** *
1283:Generated_Source\PSoC6\pdl\drivers\peripheral\prot/cy_prot.c **** * \note This function is applicable for CPUSS ver_1 only.
1284:Generated_Source\PSoC6\pdl\drivers\peripheral\prot/cy_prot.c **** *
1285:Generated_Source\PSoC6\pdl\drivers\peripheral\prot/cy_prot.c **** * \param base
1286:Generated_Source\PSoC6\pdl\drivers\peripheral\prot/cy_prot.c **** * The register base address of the protection struct being configured.
1287:Generated_Source\PSoC6\pdl\drivers\peripheral\prot/cy_prot.c **** * 
1288:Generated_Source\PSoC6\pdl\drivers\peripheral\prot/cy_prot.c **** * \param config
1289:Generated_Source\PSoC6\pdl\drivers\peripheral\prot/cy_prot.c **** * Initialization structure with all the protection attributes.
1290:Generated_Source\PSoC6\pdl\drivers\peripheral\prot/cy_prot.c **** * 
1291:Generated_Source\PSoC6\pdl\drivers\peripheral\prot/cy_prot.c **** * \return
1292:Generated_Source\PSoC6\pdl\drivers\peripheral\prot/cy_prot.c **** * Status of the function call.
1293:Generated_Source\PSoC6\pdl\drivers\peripheral\prot/cy_prot.c **** *
1294:Generated_Source\PSoC6\pdl\drivers\peripheral\prot/cy_prot.c **** *  Status                | Description
1295:Generated_Source\PSoC6\pdl\drivers\peripheral\prot/cy_prot.c **** *  ------------          | -----------
1296:Generated_Source\PSoC6\pdl\drivers\peripheral\prot/cy_prot.c **** *  CY_PROT_SUCCESS       | PPU PROG master struct was successfully configured.
1297:Generated_Source\PSoC6\pdl\drivers\peripheral\prot/cy_prot.c **** *  CY_PROT_FAILURE       | The resource is locked.
1298:Generated_Source\PSoC6\pdl\drivers\peripheral\prot/cy_prot.c **** *  CY_PROT_BAD_PARAM     | An incorrect/invalid parameter was passed.
1299:Generated_Source\PSoC6\pdl\drivers\peripheral\prot/cy_prot.c **** *  CY_PROT_INVALID_STATE | The function was called on the device with an unsupported PERI HW versio
1300:Generated_Source\PSoC6\pdl\drivers\peripheral\prot/cy_prot.c **** *
1301:Generated_Source\PSoC6\pdl\drivers\peripheral\prot/cy_prot.c **** * \funcusage
1302:Generated_Source\PSoC6\pdl\drivers\peripheral\prot/cy_prot.c **** * \snippet prot/1.20/snippet/main.c snippet_Cy_Prot_ConfigPpuProgMasterStruct
1303:Generated_Source\PSoC6\pdl\drivers\peripheral\prot/cy_prot.c **** *
ARM GAS  C:\Users\Rolf\AppData\Local\Temp\ccTbcyL9.s 			page 28


1304:Generated_Source\PSoC6\pdl\drivers\peripheral\prot/cy_prot.c **** *******************************************************************************/
1305:Generated_Source\PSoC6\pdl\drivers\peripheral\prot/cy_prot.c **** cy_en_prot_status_t Cy_Prot_ConfigPpuProgMasterStruct(PERI_PPU_PR_Type* base, const cy_stc_ppu_prog
1306:Generated_Source\PSoC6\pdl\drivers\peripheral\prot/cy_prot.c **** {
1307:Generated_Source\PSoC6\pdl\drivers\peripheral\prot/cy_prot.c ****     cy_en_prot_status_t status = CY_PROT_INVALID_STATE;
1308:Generated_Source\PSoC6\pdl\drivers\peripheral\prot/cy_prot.c ****     uint32_t attReg;
1309:Generated_Source\PSoC6\pdl\drivers\peripheral\prot/cy_prot.c ****     
1310:Generated_Source\PSoC6\pdl\drivers\peripheral\prot/cy_prot.c ****     CY_ASSERT_L1(NULL != base);
1311:Generated_Source\PSoC6\pdl\drivers\peripheral\prot/cy_prot.c ****     CY_ASSERT_L3(CY_PROT_IS_PROG_MS_PERM_VALID(config->userPermission));
1312:Generated_Source\PSoC6\pdl\drivers\peripheral\prot/cy_prot.c ****     CY_ASSERT_L3(CY_PROT_IS_PROG_MS_PERM_VALID(config->privPermission));
1313:Generated_Source\PSoC6\pdl\drivers\peripheral\prot/cy_prot.c ****     
1314:Generated_Source\PSoC6\pdl\drivers\peripheral\prot/cy_prot.c ****     if (CY_PERI_V1)
1315:Generated_Source\PSoC6\pdl\drivers\peripheral\prot/cy_prot.c ****     {
1316:Generated_Source\PSoC6\pdl\drivers\peripheral\prot/cy_prot.c ****         if(((uint32_t)config->pcMask & CY_PROT_PPU_PROG_PC_LIMIT_MASK) != 0UL) 
1317:Generated_Source\PSoC6\pdl\drivers\peripheral\prot/cy_prot.c ****         {
1318:Generated_Source\PSoC6\pdl\drivers\peripheral\prot/cy_prot.c ****             /* PC mask out of range - not supported in device */
1319:Generated_Source\PSoC6\pdl\drivers\peripheral\prot/cy_prot.c ****             status = CY_PROT_BAD_PARAM;
1320:Generated_Source\PSoC6\pdl\drivers\peripheral\prot/cy_prot.c ****         }
1321:Generated_Source\PSoC6\pdl\drivers\peripheral\prot/cy_prot.c ****         else
1322:Generated_Source\PSoC6\pdl\drivers\peripheral\prot/cy_prot.c ****         {
1323:Generated_Source\PSoC6\pdl\drivers\peripheral\prot/cy_prot.c ****             /* ADDR1 is read only. Only configure ATT1 */
1324:Generated_Source\PSoC6\pdl\drivers\peripheral\prot/cy_prot.c ****             attReg = ((uint32_t)config->userPermission & CY_PROT_ATT_PERMISSION_MASK)
1325:Generated_Source\PSoC6\pdl\drivers\peripheral\prot/cy_prot.c ****                         | (uint32_t)(((uint32_t)config->privPermission & CY_PROT_ATT_PERMISSION_MAS
1326:Generated_Source\PSoC6\pdl\drivers\peripheral\prot/cy_prot.c ****                         | _VAL2FLD(PERI_PPU_PR_ATT1_NS, !(config->secure))
1327:Generated_Source\PSoC6\pdl\drivers\peripheral\prot/cy_prot.c ****                         | _VAL2FLD(PERI_PPU_PR_ATT1_PC_MASK_15_TO_1, config->pcMask)
1328:Generated_Source\PSoC6\pdl\drivers\peripheral\prot/cy_prot.c ****                         /* No region size - read only for master structs */
1329:Generated_Source\PSoC6\pdl\drivers\peripheral\prot/cy_prot.c ****                         | _VAL2FLD(PERI_PPU_PR_ATT1_PC_MATCH, config->pcMatch);
1330:Generated_Source\PSoC6\pdl\drivers\peripheral\prot/cy_prot.c ****             if ((attReg & CY_PROT_PPU_PROG_ATT1_MASK) != attReg)
1331:Generated_Source\PSoC6\pdl\drivers\peripheral\prot/cy_prot.c ****             {
1332:Generated_Source\PSoC6\pdl\drivers\peripheral\prot/cy_prot.c ****                 /* Invalid parameter was passed */
1333:Generated_Source\PSoC6\pdl\drivers\peripheral\prot/cy_prot.c ****                 status = CY_PROT_BAD_PARAM;
1334:Generated_Source\PSoC6\pdl\drivers\peripheral\prot/cy_prot.c ****             }
1335:Generated_Source\PSoC6\pdl\drivers\peripheral\prot/cy_prot.c ****             else
1336:Generated_Source\PSoC6\pdl\drivers\peripheral\prot/cy_prot.c ****             {
1337:Generated_Source\PSoC6\pdl\drivers\peripheral\prot/cy_prot.c ****                 PERI_PPU_PR_ATT1(base) = attReg;
1338:Generated_Source\PSoC6\pdl\drivers\peripheral\prot/cy_prot.c ****                 status = ((PERI_PPU_PR_ATT1(base) & CY_PROT_PPU_PROG_ATT1_MASK) != attReg) ? CY_PRO
1339:Generated_Source\PSoC6\pdl\drivers\peripheral\prot/cy_prot.c ****             }
1340:Generated_Source\PSoC6\pdl\drivers\peripheral\prot/cy_prot.c ****         }
1341:Generated_Source\PSoC6\pdl\drivers\peripheral\prot/cy_prot.c ****     }
1342:Generated_Source\PSoC6\pdl\drivers\peripheral\prot/cy_prot.c **** 
1343:Generated_Source\PSoC6\pdl\drivers\peripheral\prot/cy_prot.c ****     return status;
1344:Generated_Source\PSoC6\pdl\drivers\peripheral\prot/cy_prot.c **** }
1345:Generated_Source\PSoC6\pdl\drivers\peripheral\prot/cy_prot.c **** 
1346:Generated_Source\PSoC6\pdl\drivers\peripheral\prot/cy_prot.c **** /*******************************************************************************
1347:Generated_Source\PSoC6\pdl\drivers\peripheral\prot/cy_prot.c **** * Function Name: Cy_Prot_ConfigPpuProgSlaveStruct
1348:Generated_Source\PSoC6\pdl\drivers\peripheral\prot/cy_prot.c **** ****************************************************************************//**
1349:Generated_Source\PSoC6\pdl\drivers\peripheral\prot/cy_prot.c **** *
1350:Generated_Source\PSoC6\pdl\drivers\peripheral\prot/cy_prot.c **** * Configures a Programmable Peripheral Protection Unit (PPU PROG) slave
1351:Generated_Source\PSoC6\pdl\drivers\peripheral\prot/cy_prot.c **** * protection struct with its protection attributes. 
1352:Generated_Source\PSoC6\pdl\drivers\peripheral\prot/cy_prot.c **** * 
1353:Generated_Source\PSoC6\pdl\drivers\peripheral\prot/cy_prot.c **** * This function configures the slave struct of a PPU PROG pair, which can 
1354:Generated_Source\PSoC6\pdl\drivers\peripheral\prot/cy_prot.c **** * protect any peripheral memory region in a device from invalid bus master 
1355:Generated_Source\PSoC6\pdl\drivers\peripheral\prot/cy_prot.c **** * accesses.
1356:Generated_Source\PSoC6\pdl\drivers\peripheral\prot/cy_prot.c **** *
1357:Generated_Source\PSoC6\pdl\drivers\peripheral\prot/cy_prot.c **** * Note that the user/privileged execute accesses are read-only and are always 
1358:Generated_Source\PSoC6\pdl\drivers\peripheral\prot/cy_prot.c **** * enabled. 
1359:Generated_Source\PSoC6\pdl\drivers\peripheral\prot/cy_prot.c **** *
1360:Generated_Source\PSoC6\pdl\drivers\peripheral\prot/cy_prot.c **** * \note This function is applicable for CPUSS ver_1 only.
ARM GAS  C:\Users\Rolf\AppData\Local\Temp\ccTbcyL9.s 			page 29


1361:Generated_Source\PSoC6\pdl\drivers\peripheral\prot/cy_prot.c **** *
1362:Generated_Source\PSoC6\pdl\drivers\peripheral\prot/cy_prot.c **** * \param base
1363:Generated_Source\PSoC6\pdl\drivers\peripheral\prot/cy_prot.c **** * The register base address of the protection structure being configured.
1364:Generated_Source\PSoC6\pdl\drivers\peripheral\prot/cy_prot.c **** * 
1365:Generated_Source\PSoC6\pdl\drivers\peripheral\prot/cy_prot.c **** * \param config
1366:Generated_Source\PSoC6\pdl\drivers\peripheral\prot/cy_prot.c **** * Initialization structure with all the protection attributes.
1367:Generated_Source\PSoC6\pdl\drivers\peripheral\prot/cy_prot.c **** * 
1368:Generated_Source\PSoC6\pdl\drivers\peripheral\prot/cy_prot.c **** * \return
1369:Generated_Source\PSoC6\pdl\drivers\peripheral\prot/cy_prot.c **** * Status of the function call.
1370:Generated_Source\PSoC6\pdl\drivers\peripheral\prot/cy_prot.c **** *
1371:Generated_Source\PSoC6\pdl\drivers\peripheral\prot/cy_prot.c **** *   Status               | Description
1372:Generated_Source\PSoC6\pdl\drivers\peripheral\prot/cy_prot.c **** *   ------------         | -----------
1373:Generated_Source\PSoC6\pdl\drivers\peripheral\prot/cy_prot.c **** *  CY_PROT_SUCCESS       | PPU PROG slave struct was successfully configured.
1374:Generated_Source\PSoC6\pdl\drivers\peripheral\prot/cy_prot.c **** *  CY_PROT_FAILURE       | The resource is locked.
1375:Generated_Source\PSoC6\pdl\drivers\peripheral\prot/cy_prot.c **** *  CY_PROT_BAD_PARAM     | An incorrect/invalid parameter was passed.
1376:Generated_Source\PSoC6\pdl\drivers\peripheral\prot/cy_prot.c **** *  CY_PROT_INVALID_STATE | The function was called on the device with an unsupported PERI HW versio
1377:Generated_Source\PSoC6\pdl\drivers\peripheral\prot/cy_prot.c **** *
1378:Generated_Source\PSoC6\pdl\drivers\peripheral\prot/cy_prot.c **** * \funcusage
1379:Generated_Source\PSoC6\pdl\drivers\peripheral\prot/cy_prot.c **** * \snippet prot/1.20/snippet/main.c snippet_Cy_Prot_ConfigPpuProgSlaveStruct
1380:Generated_Source\PSoC6\pdl\drivers\peripheral\prot/cy_prot.c **** *
1381:Generated_Source\PSoC6\pdl\drivers\peripheral\prot/cy_prot.c **** *******************************************************************************/
1382:Generated_Source\PSoC6\pdl\drivers\peripheral\prot/cy_prot.c **** cy_en_prot_status_t Cy_Prot_ConfigPpuProgSlaveStruct(PERI_PPU_PR_Type* base, const cy_stc_ppu_prog_
1383:Generated_Source\PSoC6\pdl\drivers\peripheral\prot/cy_prot.c **** {
1384:Generated_Source\PSoC6\pdl\drivers\peripheral\prot/cy_prot.c ****     cy_en_prot_status_t status = CY_PROT_INVALID_STATE;
1385:Generated_Source\PSoC6\pdl\drivers\peripheral\prot/cy_prot.c ****     uint32_t addrReg;
1386:Generated_Source\PSoC6\pdl\drivers\peripheral\prot/cy_prot.c ****     uint32_t attReg;
1387:Generated_Source\PSoC6\pdl\drivers\peripheral\prot/cy_prot.c ****     
1388:Generated_Source\PSoC6\pdl\drivers\peripheral\prot/cy_prot.c ****     CY_ASSERT_L1(NULL != base);
1389:Generated_Source\PSoC6\pdl\drivers\peripheral\prot/cy_prot.c ****     CY_ASSERT_L3(CY_PROT_IS_PROG_SL_PERM_VALID(config->userPermission));
1390:Generated_Source\PSoC6\pdl\drivers\peripheral\prot/cy_prot.c ****     CY_ASSERT_L3(CY_PROT_IS_PROG_SL_PERM_VALID(config->privPermission));
1391:Generated_Source\PSoC6\pdl\drivers\peripheral\prot/cy_prot.c ****     CY_ASSERT_L3(CY_PROT_IS_REGION_SIZE_VALID(config->regionSize));
1392:Generated_Source\PSoC6\pdl\drivers\peripheral\prot/cy_prot.c **** 
1393:Generated_Source\PSoC6\pdl\drivers\peripheral\prot/cy_prot.c ****     if (CY_PERI_V1)
1394:Generated_Source\PSoC6\pdl\drivers\peripheral\prot/cy_prot.c ****     {
1395:Generated_Source\PSoC6\pdl\drivers\peripheral\prot/cy_prot.c ****         if(((uint32_t)config->pcMask & CY_PROT_PPU_PROG_PC_LIMIT_MASK) != 0UL) 
1396:Generated_Source\PSoC6\pdl\drivers\peripheral\prot/cy_prot.c ****         {
1397:Generated_Source\PSoC6\pdl\drivers\peripheral\prot/cy_prot.c ****             /* PC mask out of range - not supported in device */
1398:Generated_Source\PSoC6\pdl\drivers\peripheral\prot/cy_prot.c ****             status = CY_PROT_BAD_PARAM;
1399:Generated_Source\PSoC6\pdl\drivers\peripheral\prot/cy_prot.c ****         }
1400:Generated_Source\PSoC6\pdl\drivers\peripheral\prot/cy_prot.c ****         else
1401:Generated_Source\PSoC6\pdl\drivers\peripheral\prot/cy_prot.c ****         {
1402:Generated_Source\PSoC6\pdl\drivers\peripheral\prot/cy_prot.c ****             addrReg= _VAL2FLD(PERI_PPU_PR_ADDR0_SUBREGION_DISABLE, config->subregions)
1403:Generated_Source\PSoC6\pdl\drivers\peripheral\prot/cy_prot.c ****                         | _VAL2FLD(PERI_PPU_PR_ADDR0_ADDR24, (uint32_t)((uint32_t)config->address >
1404:Generated_Source\PSoC6\pdl\drivers\peripheral\prot/cy_prot.c ****             attReg= ((uint32_t)config->userPermission & CY_PROT_ATT_PERMISSION_MASK)
1405:Generated_Source\PSoC6\pdl\drivers\peripheral\prot/cy_prot.c ****                         | (uint32_t)(((uint32_t)config->privPermission & CY_PROT_ATT_PERMISSION_MAS
1406:Generated_Source\PSoC6\pdl\drivers\peripheral\prot/cy_prot.c ****                         | _VAL2FLD(PERI_PPU_PR_ATT0_NS, !(config->secure))
1407:Generated_Source\PSoC6\pdl\drivers\peripheral\prot/cy_prot.c ****                         | _VAL2FLD(PERI_PPU_PR_ATT0_PC_MASK_15_TO_1, config->pcMask)
1408:Generated_Source\PSoC6\pdl\drivers\peripheral\prot/cy_prot.c ****                         | _VAL2FLD(PERI_PPU_PR_ATT0_REGION_SIZE, config->regionSize)
1409:Generated_Source\PSoC6\pdl\drivers\peripheral\prot/cy_prot.c ****                         | _VAL2FLD(PERI_PPU_PR_ATT0_PC_MATCH, config->pcMatch);
1410:Generated_Source\PSoC6\pdl\drivers\peripheral\prot/cy_prot.c ****             if ((attReg & CY_PROT_PPU_PROG_ATT0_MASK) != attReg)
1411:Generated_Source\PSoC6\pdl\drivers\peripheral\prot/cy_prot.c ****             {
1412:Generated_Source\PSoC6\pdl\drivers\peripheral\prot/cy_prot.c ****                 /* Invalid parameter was passed */
1413:Generated_Source\PSoC6\pdl\drivers\peripheral\prot/cy_prot.c ****                 status = CY_PROT_BAD_PARAM;
1414:Generated_Source\PSoC6\pdl\drivers\peripheral\prot/cy_prot.c ****             }
1415:Generated_Source\PSoC6\pdl\drivers\peripheral\prot/cy_prot.c ****             else
1416:Generated_Source\PSoC6\pdl\drivers\peripheral\prot/cy_prot.c ****             {
1417:Generated_Source\PSoC6\pdl\drivers\peripheral\prot/cy_prot.c ****                 PERI_PPU_PR_ATT0(base) = attReg;
ARM GAS  C:\Users\Rolf\AppData\Local\Temp\ccTbcyL9.s 			page 30


1418:Generated_Source\PSoC6\pdl\drivers\peripheral\prot/cy_prot.c ****                 PERI_PPU_PR_ADDR0(base) = addrReg;
1419:Generated_Source\PSoC6\pdl\drivers\peripheral\prot/cy_prot.c ****                 status = ((PERI_PPU_PR_ADDR0(base) != addrReg) || ((PERI_PPU_PR_ATT0(base) & CY_PRO
1420:Generated_Source\PSoC6\pdl\drivers\peripheral\prot/cy_prot.c ****                             ? CY_PROT_FAILURE : CY_PROT_SUCCESS;
1421:Generated_Source\PSoC6\pdl\drivers\peripheral\prot/cy_prot.c ****             }
1422:Generated_Source\PSoC6\pdl\drivers\peripheral\prot/cy_prot.c ****         }
1423:Generated_Source\PSoC6\pdl\drivers\peripheral\prot/cy_prot.c ****     }
1424:Generated_Source\PSoC6\pdl\drivers\peripheral\prot/cy_prot.c ****     
1425:Generated_Source\PSoC6\pdl\drivers\peripheral\prot/cy_prot.c ****     return status;
1426:Generated_Source\PSoC6\pdl\drivers\peripheral\prot/cy_prot.c **** }
1427:Generated_Source\PSoC6\pdl\drivers\peripheral\prot/cy_prot.c **** 
1428:Generated_Source\PSoC6\pdl\drivers\peripheral\prot/cy_prot.c **** 
1429:Generated_Source\PSoC6\pdl\drivers\peripheral\prot/cy_prot.c **** /*******************************************************************************
1430:Generated_Source\PSoC6\pdl\drivers\peripheral\prot/cy_prot.c **** * Function Name: Cy_Prot_EnablePpuProgMasterStruct
1431:Generated_Source\PSoC6\pdl\drivers\peripheral\prot/cy_prot.c **** ****************************************************************************//**
1432:Generated_Source\PSoC6\pdl\drivers\peripheral\prot/cy_prot.c **** *
1433:Generated_Source\PSoC6\pdl\drivers\peripheral\prot/cy_prot.c **** * Enables the Master PPU PROG structure.
1434:Generated_Source\PSoC6\pdl\drivers\peripheral\prot/cy_prot.c **** *
1435:Generated_Source\PSoC6\pdl\drivers\peripheral\prot/cy_prot.c **** * This is a PPU PROG master struct enable function. The PPU PROG protection 
1436:Generated_Source\PSoC6\pdl\drivers\peripheral\prot/cy_prot.c **** * settings will take effect after successful completion of this function call.
1437:Generated_Source\PSoC6\pdl\drivers\peripheral\prot/cy_prot.c **** *
1438:Generated_Source\PSoC6\pdl\drivers\peripheral\prot/cy_prot.c **** * \note This function is applicable for CPUSS ver_1 only.
1439:Generated_Source\PSoC6\pdl\drivers\peripheral\prot/cy_prot.c **** *
1440:Generated_Source\PSoC6\pdl\drivers\peripheral\prot/cy_prot.c **** * \param base
1441:Generated_Source\PSoC6\pdl\drivers\peripheral\prot/cy_prot.c **** * The base address for the protection unit structure being configured. 
1442:Generated_Source\PSoC6\pdl\drivers\peripheral\prot/cy_prot.c **** *
1443:Generated_Source\PSoC6\pdl\drivers\peripheral\prot/cy_prot.c **** * \return
1444:Generated_Source\PSoC6\pdl\drivers\peripheral\prot/cy_prot.c **** * Status of the function call.
1445:Generated_Source\PSoC6\pdl\drivers\peripheral\prot/cy_prot.c **** *
1446:Generated_Source\PSoC6\pdl\drivers\peripheral\prot/cy_prot.c **** *   Status                | Description
1447:Generated_Source\PSoC6\pdl\drivers\peripheral\prot/cy_prot.c **** *   ------------          | -----------
1448:Generated_Source\PSoC6\pdl\drivers\peripheral\prot/cy_prot.c **** *   CY_PROT_SUCCESS       | The Master PU struct was enabled.
1449:Generated_Source\PSoC6\pdl\drivers\peripheral\prot/cy_prot.c **** *   CY_PROT_FAILURE       | The Master PU struct is disabled and possibly locked.
1450:Generated_Source\PSoC6\pdl\drivers\peripheral\prot/cy_prot.c **** *   CY_PROT_INVALID_STATE | The function was called on the device with an unsupported PERI HW versi
1451:Generated_Source\PSoC6\pdl\drivers\peripheral\prot/cy_prot.c **** *
1452:Generated_Source\PSoC6\pdl\drivers\peripheral\prot/cy_prot.c **** * \funcusage
1453:Generated_Source\PSoC6\pdl\drivers\peripheral\prot/cy_prot.c **** * \snippet prot/1.20/snippet/main.c snippet_Cy_Prot_EnablePpuProgMasterStruct
1454:Generated_Source\PSoC6\pdl\drivers\peripheral\prot/cy_prot.c **** *
1455:Generated_Source\PSoC6\pdl\drivers\peripheral\prot/cy_prot.c **** *******************************************************************************/
1456:Generated_Source\PSoC6\pdl\drivers\peripheral\prot/cy_prot.c **** cy_en_prot_status_t Cy_Prot_EnablePpuProgMasterStruct(PERI_PPU_PR_Type* base)
1457:Generated_Source\PSoC6\pdl\drivers\peripheral\prot/cy_prot.c **** {
1458:Generated_Source\PSoC6\pdl\drivers\peripheral\prot/cy_prot.c ****     cy_en_prot_status_t status = CY_PROT_INVALID_STATE;
1459:Generated_Source\PSoC6\pdl\drivers\peripheral\prot/cy_prot.c ****     
1460:Generated_Source\PSoC6\pdl\drivers\peripheral\prot/cy_prot.c ****     CY_ASSERT_L1(NULL != base);
1461:Generated_Source\PSoC6\pdl\drivers\peripheral\prot/cy_prot.c ****     
1462:Generated_Source\PSoC6\pdl\drivers\peripheral\prot/cy_prot.c ****     if (CY_PERI_V1)
1463:Generated_Source\PSoC6\pdl\drivers\peripheral\prot/cy_prot.c ****     {
1464:Generated_Source\PSoC6\pdl\drivers\peripheral\prot/cy_prot.c ****         PERI_PPU_PR_ATT1(base) |= _VAL2FLD(PERI_PPU_PR_ATT1_ENABLED, CY_PROT_STRUCT_ENABLE);
1465:Generated_Source\PSoC6\pdl\drivers\peripheral\prot/cy_prot.c ****         status = (_FLD2VAL(PERI_PPU_PR_ATT1_ENABLED, PERI_PPU_PR_ATT1(base)) != CY_PROT_STRUCT_ENAB
1466:Generated_Source\PSoC6\pdl\drivers\peripheral\prot/cy_prot.c ****                     CY_PROT_FAILURE : CY_PROT_SUCCESS;
1467:Generated_Source\PSoC6\pdl\drivers\peripheral\prot/cy_prot.c ****     }
1468:Generated_Source\PSoC6\pdl\drivers\peripheral\prot/cy_prot.c **** 
1469:Generated_Source\PSoC6\pdl\drivers\peripheral\prot/cy_prot.c ****     return status;
1470:Generated_Source\PSoC6\pdl\drivers\peripheral\prot/cy_prot.c **** }
1471:Generated_Source\PSoC6\pdl\drivers\peripheral\prot/cy_prot.c **** 
1472:Generated_Source\PSoC6\pdl\drivers\peripheral\prot/cy_prot.c **** 
1473:Generated_Source\PSoC6\pdl\drivers\peripheral\prot/cy_prot.c **** /*******************************************************************************
1474:Generated_Source\PSoC6\pdl\drivers\peripheral\prot/cy_prot.c **** * Function Name: Cy_Prot_DisablePpuProgMasterStruct
ARM GAS  C:\Users\Rolf\AppData\Local\Temp\ccTbcyL9.s 			page 31


1475:Generated_Source\PSoC6\pdl\drivers\peripheral\prot/cy_prot.c **** ****************************************************************************//**
1476:Generated_Source\PSoC6\pdl\drivers\peripheral\prot/cy_prot.c **** *
1477:Generated_Source\PSoC6\pdl\drivers\peripheral\prot/cy_prot.c **** * Disables the Master PPU PROG structure.
1478:Generated_Source\PSoC6\pdl\drivers\peripheral\prot/cy_prot.c **** *
1479:Generated_Source\PSoC6\pdl\drivers\peripheral\prot/cy_prot.c **** * This is a PPU PROG master struct disable function. The PPU PROG protection 
1480:Generated_Source\PSoC6\pdl\drivers\peripheral\prot/cy_prot.c **** * settings will seize to take effect after successful completion of this 
1481:Generated_Source\PSoC6\pdl\drivers\peripheral\prot/cy_prot.c **** * function call.
1482:Generated_Source\PSoC6\pdl\drivers\peripheral\prot/cy_prot.c **** *
1483:Generated_Source\PSoC6\pdl\drivers\peripheral\prot/cy_prot.c **** * \note This function is applicable for CPUSS ver_1 only.
1484:Generated_Source\PSoC6\pdl\drivers\peripheral\prot/cy_prot.c **** *
1485:Generated_Source\PSoC6\pdl\drivers\peripheral\prot/cy_prot.c **** * \param base
1486:Generated_Source\PSoC6\pdl\drivers\peripheral\prot/cy_prot.c **** * The base address for the protection unit structure being configured. 
1487:Generated_Source\PSoC6\pdl\drivers\peripheral\prot/cy_prot.c **** *
1488:Generated_Source\PSoC6\pdl\drivers\peripheral\prot/cy_prot.c **** * \return
1489:Generated_Source\PSoC6\pdl\drivers\peripheral\prot/cy_prot.c **** * Status of the function call.
1490:Generated_Source\PSoC6\pdl\drivers\peripheral\prot/cy_prot.c **** *
1491:Generated_Source\PSoC6\pdl\drivers\peripheral\prot/cy_prot.c **** *   Status                | Description
1492:Generated_Source\PSoC6\pdl\drivers\peripheral\prot/cy_prot.c **** *   ------------          | -----------
1493:Generated_Source\PSoC6\pdl\drivers\peripheral\prot/cy_prot.c **** *   CY_PROT_SUCCESS       | The Master PU struct was disabled.
1494:Generated_Source\PSoC6\pdl\drivers\peripheral\prot/cy_prot.c **** *   CY_PROT_FAILURE       | The Master PU struct is enabled and possibly locked.
1495:Generated_Source\PSoC6\pdl\drivers\peripheral\prot/cy_prot.c **** *   CY_PROT_INVALID_STATE | The function was called on the device with an unsupported PERI HW versi
1496:Generated_Source\PSoC6\pdl\drivers\peripheral\prot/cy_prot.c **** *
1497:Generated_Source\PSoC6\pdl\drivers\peripheral\prot/cy_prot.c **** * \funcusage
1498:Generated_Source\PSoC6\pdl\drivers\peripheral\prot/cy_prot.c **** * \snippet prot/1.20/snippet/main.c snippet_Cy_Prot_DisablePpuProgMasterStruct
1499:Generated_Source\PSoC6\pdl\drivers\peripheral\prot/cy_prot.c **** *
1500:Generated_Source\PSoC6\pdl\drivers\peripheral\prot/cy_prot.c **** *******************************************************************************/
1501:Generated_Source\PSoC6\pdl\drivers\peripheral\prot/cy_prot.c **** cy_en_prot_status_t Cy_Prot_DisablePpuProgMasterStruct(PERI_PPU_PR_Type* base)
1502:Generated_Source\PSoC6\pdl\drivers\peripheral\prot/cy_prot.c **** {
1503:Generated_Source\PSoC6\pdl\drivers\peripheral\prot/cy_prot.c ****     cy_en_prot_status_t status = CY_PROT_INVALID_STATE;
1504:Generated_Source\PSoC6\pdl\drivers\peripheral\prot/cy_prot.c ****     
1505:Generated_Source\PSoC6\pdl\drivers\peripheral\prot/cy_prot.c ****     CY_ASSERT_L1(NULL != base);
1506:Generated_Source\PSoC6\pdl\drivers\peripheral\prot/cy_prot.c ****     
1507:Generated_Source\PSoC6\pdl\drivers\peripheral\prot/cy_prot.c ****     if (CY_PERI_V1)
1508:Generated_Source\PSoC6\pdl\drivers\peripheral\prot/cy_prot.c ****     {
1509:Generated_Source\PSoC6\pdl\drivers\peripheral\prot/cy_prot.c ****         PERI_PPU_PR_ATT1(base) &= ~_VAL2FLD(PERI_PPU_PR_ATT1_ENABLED, CY_PROT_STRUCT_ENABLE);
1510:Generated_Source\PSoC6\pdl\drivers\peripheral\prot/cy_prot.c ****         status = (_FLD2VAL(PERI_PPU_PR_ATT1_ENABLED, PERI_PPU_PR_ATT1(base)) == CY_PROT_STRUCT_ENAB
1511:Generated_Source\PSoC6\pdl\drivers\peripheral\prot/cy_prot.c ****                     CY_PROT_FAILURE : CY_PROT_SUCCESS;
1512:Generated_Source\PSoC6\pdl\drivers\peripheral\prot/cy_prot.c ****     }
1513:Generated_Source\PSoC6\pdl\drivers\peripheral\prot/cy_prot.c **** 
1514:Generated_Source\PSoC6\pdl\drivers\peripheral\prot/cy_prot.c ****     return status;
1515:Generated_Source\PSoC6\pdl\drivers\peripheral\prot/cy_prot.c **** }
1516:Generated_Source\PSoC6\pdl\drivers\peripheral\prot/cy_prot.c **** 
1517:Generated_Source\PSoC6\pdl\drivers\peripheral\prot/cy_prot.c **** 
1518:Generated_Source\PSoC6\pdl\drivers\peripheral\prot/cy_prot.c **** /*******************************************************************************
1519:Generated_Source\PSoC6\pdl\drivers\peripheral\prot/cy_prot.c **** * Function Name: Cy_Prot_EnablePpuProgSlaveStruct
1520:Generated_Source\PSoC6\pdl\drivers\peripheral\prot/cy_prot.c **** ****************************************************************************//**
1521:Generated_Source\PSoC6\pdl\drivers\peripheral\prot/cy_prot.c **** *
1522:Generated_Source\PSoC6\pdl\drivers\peripheral\prot/cy_prot.c **** * Enables the Slave PPU PROG structure.
1523:Generated_Source\PSoC6\pdl\drivers\peripheral\prot/cy_prot.c **** *
1524:Generated_Source\PSoC6\pdl\drivers\peripheral\prot/cy_prot.c **** * This is a PPU PROG slave struct enable function. The PPU PROG protection 
1525:Generated_Source\PSoC6\pdl\drivers\peripheral\prot/cy_prot.c **** * settings will take effect after successful completion of this function call.
1526:Generated_Source\PSoC6\pdl\drivers\peripheral\prot/cy_prot.c **** *
1527:Generated_Source\PSoC6\pdl\drivers\peripheral\prot/cy_prot.c **** * \note This function is applicable for CPUSS ver_1 only.
1528:Generated_Source\PSoC6\pdl\drivers\peripheral\prot/cy_prot.c **** *
1529:Generated_Source\PSoC6\pdl\drivers\peripheral\prot/cy_prot.c **** * \param base
1530:Generated_Source\PSoC6\pdl\drivers\peripheral\prot/cy_prot.c **** * The base address for the protection unit structure being configured. 
1531:Generated_Source\PSoC6\pdl\drivers\peripheral\prot/cy_prot.c **** *
ARM GAS  C:\Users\Rolf\AppData\Local\Temp\ccTbcyL9.s 			page 32


1532:Generated_Source\PSoC6\pdl\drivers\peripheral\prot/cy_prot.c **** * \return
1533:Generated_Source\PSoC6\pdl\drivers\peripheral\prot/cy_prot.c **** * Status of the function call.
1534:Generated_Source\PSoC6\pdl\drivers\peripheral\prot/cy_prot.c **** *
1535:Generated_Source\PSoC6\pdl\drivers\peripheral\prot/cy_prot.c **** *   Status                | Description
1536:Generated_Source\PSoC6\pdl\drivers\peripheral\prot/cy_prot.c **** *   ------------          | -----------
1537:Generated_Source\PSoC6\pdl\drivers\peripheral\prot/cy_prot.c **** *   CY_PROT_SUCCESS       | The Slave PU struct was enabled.
1538:Generated_Source\PSoC6\pdl\drivers\peripheral\prot/cy_prot.c **** *   CY_PROT_FAILURE       | The Slave PU struct is disabled and possibly locked.
1539:Generated_Source\PSoC6\pdl\drivers\peripheral\prot/cy_prot.c **** *   CY_PROT_INVALID_STATE | The function was called on the device with an unsupported PERI HW versi
1540:Generated_Source\PSoC6\pdl\drivers\peripheral\prot/cy_prot.c **** *
1541:Generated_Source\PSoC6\pdl\drivers\peripheral\prot/cy_prot.c **** * \funcusage
1542:Generated_Source\PSoC6\pdl\drivers\peripheral\prot/cy_prot.c **** * \snippet prot/1.20/snippet/main.c snippet_Cy_Prot_EnablePpuProgSlaveStruct
1543:Generated_Source\PSoC6\pdl\drivers\peripheral\prot/cy_prot.c **** *
1544:Generated_Source\PSoC6\pdl\drivers\peripheral\prot/cy_prot.c **** *******************************************************************************/
1545:Generated_Source\PSoC6\pdl\drivers\peripheral\prot/cy_prot.c **** cy_en_prot_status_t Cy_Prot_EnablePpuProgSlaveStruct(PERI_PPU_PR_Type* base)
1546:Generated_Source\PSoC6\pdl\drivers\peripheral\prot/cy_prot.c **** {   
1547:Generated_Source\PSoC6\pdl\drivers\peripheral\prot/cy_prot.c ****     cy_en_prot_status_t status = CY_PROT_INVALID_STATE;
1548:Generated_Source\PSoC6\pdl\drivers\peripheral\prot/cy_prot.c ****     
1549:Generated_Source\PSoC6\pdl\drivers\peripheral\prot/cy_prot.c ****     CY_ASSERT_L1(NULL != base);
1550:Generated_Source\PSoC6\pdl\drivers\peripheral\prot/cy_prot.c ****     
1551:Generated_Source\PSoC6\pdl\drivers\peripheral\prot/cy_prot.c ****     if (CY_PERI_V1)
1552:Generated_Source\PSoC6\pdl\drivers\peripheral\prot/cy_prot.c ****     {
1553:Generated_Source\PSoC6\pdl\drivers\peripheral\prot/cy_prot.c ****         PERI_PPU_PR_ATT0(base) |= _VAL2FLD(PERI_PPU_PR_ATT0_ENABLED, CY_PROT_STRUCT_ENABLE);
1554:Generated_Source\PSoC6\pdl\drivers\peripheral\prot/cy_prot.c ****         status = (_FLD2VAL(PERI_PPU_PR_ATT0_ENABLED, PERI_PPU_PR_ATT0(base)) != CY_PROT_STRUCT_ENAB
1555:Generated_Source\PSoC6\pdl\drivers\peripheral\prot/cy_prot.c ****                     CY_PROT_FAILURE : CY_PROT_SUCCESS;
1556:Generated_Source\PSoC6\pdl\drivers\peripheral\prot/cy_prot.c ****     }
1557:Generated_Source\PSoC6\pdl\drivers\peripheral\prot/cy_prot.c **** 
1558:Generated_Source\PSoC6\pdl\drivers\peripheral\prot/cy_prot.c ****     return status;
1559:Generated_Source\PSoC6\pdl\drivers\peripheral\prot/cy_prot.c **** }
1560:Generated_Source\PSoC6\pdl\drivers\peripheral\prot/cy_prot.c **** 
1561:Generated_Source\PSoC6\pdl\drivers\peripheral\prot/cy_prot.c **** 
1562:Generated_Source\PSoC6\pdl\drivers\peripheral\prot/cy_prot.c **** /*******************************************************************************
1563:Generated_Source\PSoC6\pdl\drivers\peripheral\prot/cy_prot.c **** * Function Name: Cy_Prot_DisablePpuProgSlaveStruct
1564:Generated_Source\PSoC6\pdl\drivers\peripheral\prot/cy_prot.c **** ****************************************************************************//**
1565:Generated_Source\PSoC6\pdl\drivers\peripheral\prot/cy_prot.c **** *
1566:Generated_Source\PSoC6\pdl\drivers\peripheral\prot/cy_prot.c **** * Disables the Slave PPU PROG structure.
1567:Generated_Source\PSoC6\pdl\drivers\peripheral\prot/cy_prot.c **** *
1568:Generated_Source\PSoC6\pdl\drivers\peripheral\prot/cy_prot.c **** * This is a PPU PROG slave struct disable function. The PPU PROG protection 
1569:Generated_Source\PSoC6\pdl\drivers\peripheral\prot/cy_prot.c **** * settings will seize to take effect after successful completion of this 
1570:Generated_Source\PSoC6\pdl\drivers\peripheral\prot/cy_prot.c **** * function call.
1571:Generated_Source\PSoC6\pdl\drivers\peripheral\prot/cy_prot.c **** *
1572:Generated_Source\PSoC6\pdl\drivers\peripheral\prot/cy_prot.c **** * \note This function is applicable for CPUSS ver_1 only.
1573:Generated_Source\PSoC6\pdl\drivers\peripheral\prot/cy_prot.c **** *
1574:Generated_Source\PSoC6\pdl\drivers\peripheral\prot/cy_prot.c **** * \param base
1575:Generated_Source\PSoC6\pdl\drivers\peripheral\prot/cy_prot.c **** * The base address for the protection unit structure being configured. 
1576:Generated_Source\PSoC6\pdl\drivers\peripheral\prot/cy_prot.c **** *
1577:Generated_Source\PSoC6\pdl\drivers\peripheral\prot/cy_prot.c **** * \return
1578:Generated_Source\PSoC6\pdl\drivers\peripheral\prot/cy_prot.c **** * Status of the function call.
1579:Generated_Source\PSoC6\pdl\drivers\peripheral\prot/cy_prot.c **** *
1580:Generated_Source\PSoC6\pdl\drivers\peripheral\prot/cy_prot.c **** *   Status                | Description
1581:Generated_Source\PSoC6\pdl\drivers\peripheral\prot/cy_prot.c **** *   ------------          | -----------
1582:Generated_Source\PSoC6\pdl\drivers\peripheral\prot/cy_prot.c **** *   CY_PROT_SUCCESS       | The Slave PU struct was disabled.
1583:Generated_Source\PSoC6\pdl\drivers\peripheral\prot/cy_prot.c **** *   CY_PROT_FAILURE       | The Slave PU struct is enabled and possibly locked.
1584:Generated_Source\PSoC6\pdl\drivers\peripheral\prot/cy_prot.c **** *   CY_PROT_INVALID_STATE | The function was called on the device with an unsupported PERI HW versi
1585:Generated_Source\PSoC6\pdl\drivers\peripheral\prot/cy_prot.c **** *
1586:Generated_Source\PSoC6\pdl\drivers\peripheral\prot/cy_prot.c **** * \funcusage
1587:Generated_Source\PSoC6\pdl\drivers\peripheral\prot/cy_prot.c **** * \snippet prot/1.20/snippet/main.c snippet_Cy_Prot_DisablePpuProgSlaveStruct
1588:Generated_Source\PSoC6\pdl\drivers\peripheral\prot/cy_prot.c **** *
ARM GAS  C:\Users\Rolf\AppData\Local\Temp\ccTbcyL9.s 			page 33


1589:Generated_Source\PSoC6\pdl\drivers\peripheral\prot/cy_prot.c **** *******************************************************************************/
1590:Generated_Source\PSoC6\pdl\drivers\peripheral\prot/cy_prot.c **** cy_en_prot_status_t Cy_Prot_DisablePpuProgSlaveStruct(PERI_PPU_PR_Type* base)
1591:Generated_Source\PSoC6\pdl\drivers\peripheral\prot/cy_prot.c **** {
1592:Generated_Source\PSoC6\pdl\drivers\peripheral\prot/cy_prot.c ****     cy_en_prot_status_t status = CY_PROT_INVALID_STATE;
1593:Generated_Source\PSoC6\pdl\drivers\peripheral\prot/cy_prot.c ****     
1594:Generated_Source\PSoC6\pdl\drivers\peripheral\prot/cy_prot.c ****     CY_ASSERT_L1(NULL != base);
1595:Generated_Source\PSoC6\pdl\drivers\peripheral\prot/cy_prot.c ****     
1596:Generated_Source\PSoC6\pdl\drivers\peripheral\prot/cy_prot.c ****     if (CY_PERI_V1)
1597:Generated_Source\PSoC6\pdl\drivers\peripheral\prot/cy_prot.c ****     {
1598:Generated_Source\PSoC6\pdl\drivers\peripheral\prot/cy_prot.c ****         PERI_PPU_PR_ATT0(base) &= ~_VAL2FLD(PERI_PPU_PR_ATT0_ENABLED, CY_PROT_STRUCT_ENABLE);
1599:Generated_Source\PSoC6\pdl\drivers\peripheral\prot/cy_prot.c ****         status = (_FLD2VAL(PERI_PPU_PR_ATT0_ENABLED, PERI_PPU_PR_ATT0(base)) == CY_PROT_STRUCT_ENAB
1600:Generated_Source\PSoC6\pdl\drivers\peripheral\prot/cy_prot.c ****                     CY_PROT_FAILURE : CY_PROT_SUCCESS;
1601:Generated_Source\PSoC6\pdl\drivers\peripheral\prot/cy_prot.c ****     }
1602:Generated_Source\PSoC6\pdl\drivers\peripheral\prot/cy_prot.c **** 
1603:Generated_Source\PSoC6\pdl\drivers\peripheral\prot/cy_prot.c ****     return status;
1604:Generated_Source\PSoC6\pdl\drivers\peripheral\prot/cy_prot.c **** }
1605:Generated_Source\PSoC6\pdl\drivers\peripheral\prot/cy_prot.c **** 
1606:Generated_Source\PSoC6\pdl\drivers\peripheral\prot/cy_prot.c **** 
1607:Generated_Source\PSoC6\pdl\drivers\peripheral\prot/cy_prot.c **** /*******************************************************************************
1608:Generated_Source\PSoC6\pdl\drivers\peripheral\prot/cy_prot.c **** * Function Name: Cy_Prot_GetPpuProgStruct
1609:Generated_Source\PSoC6\pdl\drivers\peripheral\prot/cy_prot.c **** ****************************************************************************//**
1610:Generated_Source\PSoC6\pdl\drivers\peripheral\prot/cy_prot.c **** *
1611:Generated_Source\PSoC6\pdl\drivers\peripheral\prot/cy_prot.c **** * Functions returns a pointer of the requested unused Programmable PPU 
1612:Generated_Source\PSoC6\pdl\drivers\peripheral\prot/cy_prot.c **** * structure. Function searches the Programmable PPU structure until it finds 
1613:Generated_Source\PSoC6\pdl\drivers\peripheral\prot/cy_prot.c **** * one that both the slave and master sections are disabled. After an available
1614:Generated_Source\PSoC6\pdl\drivers\peripheral\prot/cy_prot.c **** * structure is located, function enables the slave structure and enables all 
1615:Generated_Source\PSoC6\pdl\drivers\peripheral\prot/cy_prot.c **** * attributes, to make sure that a subsequent call will not see this
1616:Generated_Source\PSoC6\pdl\drivers\peripheral\prot/cy_prot.c **** * as an available (unused) Programmable PPU. 
1617:Generated_Source\PSoC6\pdl\drivers\peripheral\prot/cy_prot.c **** *
1618:Generated_Source\PSoC6\pdl\drivers\peripheral\prot/cy_prot.c **** * It is up to the user to implement, if needed, a system in which a semaphore 
1619:Generated_Source\PSoC6\pdl\drivers\peripheral\prot/cy_prot.c **** * will lock-out all but one CPU from calling this function at once.
1620:Generated_Source\PSoC6\pdl\drivers\peripheral\prot/cy_prot.c **** *
1621:Generated_Source\PSoC6\pdl\drivers\peripheral\prot/cy_prot.c **** * \note This function is applicable for CPUSS ver_1 only.
1622:Generated_Source\PSoC6\pdl\drivers\peripheral\prot/cy_prot.c **** *
1623:Generated_Source\PSoC6\pdl\drivers\peripheral\prot/cy_prot.c **** * \param base
1624:Generated_Source\PSoC6\pdl\drivers\peripheral\prot/cy_prot.c **** * The base address for the Programmable PPU structure returned if an unused 
1625:Generated_Source\PSoC6\pdl\drivers\peripheral\prot/cy_prot.c **** * structure was found. If an empty structure was not found, the returned 
1626:Generated_Source\PSoC6\pdl\drivers\peripheral\prot/cy_prot.c **** * pointer is NULL.
1627:Generated_Source\PSoC6\pdl\drivers\peripheral\prot/cy_prot.c **** *
1628:Generated_Source\PSoC6\pdl\drivers\peripheral\prot/cy_prot.c **** * \param reqMode
1629:Generated_Source\PSoC6\pdl\drivers\peripheral\prot/cy_prot.c **** * This parameter (request mode) selects how the user wants to select a 
1630:Generated_Source\PSoC6\pdl\drivers\peripheral\prot/cy_prot.c **** * Programmable PPU structure.
1631:Generated_Source\PSoC6\pdl\drivers\peripheral\prot/cy_prot.c **** *
1632:Generated_Source\PSoC6\pdl\drivers\peripheral\prot/cy_prot.c **** *   reqMode                 | Description
1633:Generated_Source\PSoC6\pdl\drivers\peripheral\prot/cy_prot.c **** * --------------------------| -----------------------------
1634:Generated_Source\PSoC6\pdl\drivers\peripheral\prot/cy_prot.c **** * CY_PROT_REQMODE_HIGHPRIOR | Return the Programmable PPU structure with the highest priority.
1635:Generated_Source\PSoC6\pdl\drivers\peripheral\prot/cy_prot.c **** * CY_PROT_REQMODE_LOWPRIOR  | Return the Programmable PPU structure with the lowest priority.
1636:Generated_Source\PSoC6\pdl\drivers\peripheral\prot/cy_prot.c **** * CY_PROT_REQMODE_INDEX     | Return the Programmable PPU structure with the specific index.
1637:Generated_Source\PSoC6\pdl\drivers\peripheral\prot/cy_prot.c **** *
1638:Generated_Source\PSoC6\pdl\drivers\peripheral\prot/cy_prot.c **** * \param ppuProgIndex
1639:Generated_Source\PSoC6\pdl\drivers\peripheral\prot/cy_prot.c **** * This is the index of the requested Programmable PPU structure. It is only 
1640:Generated_Source\PSoC6\pdl\drivers\peripheral\prot/cy_prot.c **** * used if the request mode is reqMode = CY_PROT_REQMODE_INDEX.
1641:Generated_Source\PSoC6\pdl\drivers\peripheral\prot/cy_prot.c **** *
1642:Generated_Source\PSoC6\pdl\drivers\peripheral\prot/cy_prot.c **** * \return
1643:Generated_Source\PSoC6\pdl\drivers\peripheral\prot/cy_prot.c **** * Status of the function call.
1644:Generated_Source\PSoC6\pdl\drivers\peripheral\prot/cy_prot.c **** *
1645:Generated_Source\PSoC6\pdl\drivers\peripheral\prot/cy_prot.c **** *   Status              | Description
ARM GAS  C:\Users\Rolf\AppData\Local\Temp\ccTbcyL9.s 			page 34


1646:Generated_Source\PSoC6\pdl\drivers\peripheral\prot/cy_prot.c **** * ----------------------| ---------------------------------------
1647:Generated_Source\PSoC6\pdl\drivers\peripheral\prot/cy_prot.c **** * CY_PROT_SUCCESS       | The Slave PU struct was disabled.
1648:Generated_Source\PSoC6\pdl\drivers\peripheral\prot/cy_prot.c **** * CY_PROT_FAILURE       | The Master or Slave Programmable PPU struct is disabled and possibly lock
1649:Generated_Source\PSoC6\pdl\drivers\peripheral\prot/cy_prot.c **** * CY_PROT_UNAVAILABLE   | The requested structure in use or there were no unused structures.
1650:Generated_Source\PSoC6\pdl\drivers\peripheral\prot/cy_prot.c **** * CY_PROT_INVALID_STATE | Function was called on unsupported PERI HW version.
1651:Generated_Source\PSoC6\pdl\drivers\peripheral\prot/cy_prot.c **** *
1652:Generated_Source\PSoC6\pdl\drivers\peripheral\prot/cy_prot.c **** * \funcusage
1653:Generated_Source\PSoC6\pdl\drivers\peripheral\prot/cy_prot.c **** * \snippet prot/1.20/snippet/main.c snippet_Cy_Prot_GetPpuProgStruct
1654:Generated_Source\PSoC6\pdl\drivers\peripheral\prot/cy_prot.c **** *
1655:Generated_Source\PSoC6\pdl\drivers\peripheral\prot/cy_prot.c **** *******************************************************************************/
1656:Generated_Source\PSoC6\pdl\drivers\peripheral\prot/cy_prot.c **** cy_en_prot_status_t Cy_Prot_GetPpuProgStruct(PERI_PPU_PR_Type** base, cy_en_prot_req_mode_t reqMode
1657:Generated_Source\PSoC6\pdl\drivers\peripheral\prot/cy_prot.c **** {
1658:Generated_Source\PSoC6\pdl\drivers\peripheral\prot/cy_prot.c ****     cy_en_prot_status_t status = CY_PROT_INVALID_STATE;
1659:Generated_Source\PSoC6\pdl\drivers\peripheral\prot/cy_prot.c ****     
1660:Generated_Source\PSoC6\pdl\drivers\peripheral\prot/cy_prot.c ****     if (CY_PERI_V1)
1661:Generated_Source\PSoC6\pdl\drivers\peripheral\prot/cy_prot.c ****     {
1662:Generated_Source\PSoC6\pdl\drivers\peripheral\prot/cy_prot.c ****         CY_ASSERT_L3(CY_PROT_IS_PPU_PROG_REQ_MODE_VALID(reqMode));
1663:Generated_Source\PSoC6\pdl\drivers\peripheral\prot/cy_prot.c ****         CY_ASSERT_L2(CY_PROT_IS_PPU_PROG_IDX_VALID(ppuProgIndex));
1664:Generated_Source\PSoC6\pdl\drivers\peripheral\prot/cy_prot.c **** 
1665:Generated_Source\PSoC6\pdl\drivers\peripheral\prot/cy_prot.c ****         status = CY_PROT_UNAVAILABLE;
1666:Generated_Source\PSoC6\pdl\drivers\peripheral\prot/cy_prot.c ****         int32_t stcIdx = (int32_t) ppuProgIndex;
1667:Generated_Source\PSoC6\pdl\drivers\peripheral\prot/cy_prot.c **** 
1668:Generated_Source\PSoC6\pdl\drivers\peripheral\prot/cy_prot.c ****         *base = NULL;
1669:Generated_Source\PSoC6\pdl\drivers\peripheral\prot/cy_prot.c **** 
1670:Generated_Source\PSoC6\pdl\drivers\peripheral\prot/cy_prot.c ****         switch (reqMode)
1671:Generated_Source\PSoC6\pdl\drivers\peripheral\prot/cy_prot.c ****         {
1672:Generated_Source\PSoC6\pdl\drivers\peripheral\prot/cy_prot.c ****             /* Programmed structures priority goes from 0 (highest) to
1673:Generated_Source\PSoC6\pdl\drivers\peripheral\prot/cy_prot.c ****             *  PROT_PPU_PROG_STRUCT_WTH_LOWEST_PR (lowest) 
1674:Generated_Source\PSoC6\pdl\drivers\peripheral\prot/cy_prot.c ****             */
1675:Generated_Source\PSoC6\pdl\drivers\peripheral\prot/cy_prot.c ****             case CY_PROT_REQMODE_LOWPRIOR:
1676:Generated_Source\PSoC6\pdl\drivers\peripheral\prot/cy_prot.c **** 
1677:Generated_Source\PSoC6\pdl\drivers\peripheral\prot/cy_prot.c ****                 stcIdx = PROT_PPU_PROG_STRUCT_WTH_LOWEST_PR;
1678:Generated_Source\PSoC6\pdl\drivers\peripheral\prot/cy_prot.c ****                 do
1679:Generated_Source\PSoC6\pdl\drivers\peripheral\prot/cy_prot.c ****                 {
1680:Generated_Source\PSoC6\pdl\drivers\peripheral\prot/cy_prot.c ****                     if (Prot_IsPpuProgStructDisabled((uint32_t)stcIdx))
1681:Generated_Source\PSoC6\pdl\drivers\peripheral\prot/cy_prot.c ****                     {
1682:Generated_Source\PSoC6\pdl\drivers\peripheral\prot/cy_prot.c ****                         status = CY_PROT_SUCCESS;
1683:Generated_Source\PSoC6\pdl\drivers\peripheral\prot/cy_prot.c ****                     }
1684:Generated_Source\PSoC6\pdl\drivers\peripheral\prot/cy_prot.c ****                     else
1685:Generated_Source\PSoC6\pdl\drivers\peripheral\prot/cy_prot.c ****                     {
1686:Generated_Source\PSoC6\pdl\drivers\peripheral\prot/cy_prot.c ****                         --stcIdx;
1687:Generated_Source\PSoC6\pdl\drivers\peripheral\prot/cy_prot.c ****                     }
1688:Generated_Source\PSoC6\pdl\drivers\peripheral\prot/cy_prot.c ****                 } while ((stcIdx >= 0) && (CY_PROT_SUCCESS != status));
1689:Generated_Source\PSoC6\pdl\drivers\peripheral\prot/cy_prot.c ****                 break;
1690:Generated_Source\PSoC6\pdl\drivers\peripheral\prot/cy_prot.c **** 
1691:Generated_Source\PSoC6\pdl\drivers\peripheral\prot/cy_prot.c ****             /* Programmed structures priority goes from 0 (highest) to 
1692:Generated_Source\PSoC6\pdl\drivers\peripheral\prot/cy_prot.c ****             *  PROT_PPU_PROG_STRUCT_WTH_LOWEST_PR (lowest)
1693:Generated_Source\PSoC6\pdl\drivers\peripheral\prot/cy_prot.c ****             */
1694:Generated_Source\PSoC6\pdl\drivers\peripheral\prot/cy_prot.c ****             case CY_PROT_REQMODE_HIGHPRIOR:
1695:Generated_Source\PSoC6\pdl\drivers\peripheral\prot/cy_prot.c ****                 stcIdx = 0;
1696:Generated_Source\PSoC6\pdl\drivers\peripheral\prot/cy_prot.c ****                 do
1697:Generated_Source\PSoC6\pdl\drivers\peripheral\prot/cy_prot.c ****                 {
1698:Generated_Source\PSoC6\pdl\drivers\peripheral\prot/cy_prot.c ****                     if (Prot_IsPpuProgStructDisabled((uint32_t)stcIdx))
1699:Generated_Source\PSoC6\pdl\drivers\peripheral\prot/cy_prot.c ****                     {
1700:Generated_Source\PSoC6\pdl\drivers\peripheral\prot/cy_prot.c ****                         status = CY_PROT_SUCCESS;
1701:Generated_Source\PSoC6\pdl\drivers\peripheral\prot/cy_prot.c ****                     }
1702:Generated_Source\PSoC6\pdl\drivers\peripheral\prot/cy_prot.c ****                     else
ARM GAS  C:\Users\Rolf\AppData\Local\Temp\ccTbcyL9.s 			page 35


1703:Generated_Source\PSoC6\pdl\drivers\peripheral\prot/cy_prot.c ****                     {
1704:Generated_Source\PSoC6\pdl\drivers\peripheral\prot/cy_prot.c ****                         ++stcIdx;
1705:Generated_Source\PSoC6\pdl\drivers\peripheral\prot/cy_prot.c ****                     }
1706:Generated_Source\PSoC6\pdl\drivers\peripheral\prot/cy_prot.c ****                 } while ((stcIdx <= PROT_PPU_PROG_STRUCT_WTH_LOWEST_PR) && (CY_PROT_SUCCESS != stat
1707:Generated_Source\PSoC6\pdl\drivers\peripheral\prot/cy_prot.c ****                 break;
1708:Generated_Source\PSoC6\pdl\drivers\peripheral\prot/cy_prot.c ****             
1709:Generated_Source\PSoC6\pdl\drivers\peripheral\prot/cy_prot.c ****             case CY_PROT_REQMODE_INDEX:
1710:Generated_Source\PSoC6\pdl\drivers\peripheral\prot/cy_prot.c **** 
1711:Generated_Source\PSoC6\pdl\drivers\peripheral\prot/cy_prot.c ****                 if (Prot_IsPpuProgStructDisabled((uint32_t)stcIdx))
1712:Generated_Source\PSoC6\pdl\drivers\peripheral\prot/cy_prot.c ****                 {
1713:Generated_Source\PSoC6\pdl\drivers\peripheral\prot/cy_prot.c ****                     status = CY_PROT_SUCCESS;
1714:Generated_Source\PSoC6\pdl\drivers\peripheral\prot/cy_prot.c ****                 }
1715:Generated_Source\PSoC6\pdl\drivers\peripheral\prot/cy_prot.c ****                 break;
1716:Generated_Source\PSoC6\pdl\drivers\peripheral\prot/cy_prot.c ****                 
1717:Generated_Source\PSoC6\pdl\drivers\peripheral\prot/cy_prot.c ****             default:
1718:Generated_Source\PSoC6\pdl\drivers\peripheral\prot/cy_prot.c ****                 break;
1719:Generated_Source\PSoC6\pdl\drivers\peripheral\prot/cy_prot.c ****         }
1720:Generated_Source\PSoC6\pdl\drivers\peripheral\prot/cy_prot.c **** 
1721:Generated_Source\PSoC6\pdl\drivers\peripheral\prot/cy_prot.c ****         /* Enable Programmable PPU struct */
1722:Generated_Source\PSoC6\pdl\drivers\peripheral\prot/cy_prot.c ****         if (CY_PROT_SUCCESS == status)
1723:Generated_Source\PSoC6\pdl\drivers\peripheral\prot/cy_prot.c ****         {
1724:Generated_Source\PSoC6\pdl\drivers\peripheral\prot/cy_prot.c ****             PROT_PERI_PPU_PR_STRUCT_IDX_ATT0(stcIdx) |= _VAL2FLD(PERI_PPU_PR_ATT0_ENABLED, CY_PROT_
1725:Generated_Source\PSoC6\pdl\drivers\peripheral\prot/cy_prot.c ****             
1726:Generated_Source\PSoC6\pdl\drivers\peripheral\prot/cy_prot.c ****             status = 
1727:Generated_Source\PSoC6\pdl\drivers\peripheral\prot/cy_prot.c ****             (_FLD2VAL(PERI_PPU_PR_ATT0_ENABLED, PROT_PERI_PPU_PR_STRUCT_IDX_ATT0(stcIdx)) != CY_PRO
1728:Generated_Source\PSoC6\pdl\drivers\peripheral\prot/cy_prot.c ****              CY_PROT_FAILURE : CY_PROT_SUCCESS;
1729:Generated_Source\PSoC6\pdl\drivers\peripheral\prot/cy_prot.c ****             
1730:Generated_Source\PSoC6\pdl\drivers\peripheral\prot/cy_prot.c ****             /* Enable all attributes only if Slave struct was enabled */
1731:Generated_Source\PSoC6\pdl\drivers\peripheral\prot/cy_prot.c ****             if (CY_PROT_SUCCESS == status)
1732:Generated_Source\PSoC6\pdl\drivers\peripheral\prot/cy_prot.c ****             {
1733:Generated_Source\PSoC6\pdl\drivers\peripheral\prot/cy_prot.c ****                 *base = (PERI_PPU_PR_Type*) PROT_PERI_PPU_PR_STRUCT_IDX(stcIdx);
1734:Generated_Source\PSoC6\pdl\drivers\peripheral\prot/cy_prot.c ****                 PROT_PERI_PPU_PR_STRUCT_IDX_ATT0(stcIdx) |= PROT_PERI_PPU_PR_ATT0_ENABLE_ALL_MASK;
1735:Generated_Source\PSoC6\pdl\drivers\peripheral\prot/cy_prot.c ****             }
1736:Generated_Source\PSoC6\pdl\drivers\peripheral\prot/cy_prot.c ****         }
1737:Generated_Source\PSoC6\pdl\drivers\peripheral\prot/cy_prot.c ****     }
1738:Generated_Source\PSoC6\pdl\drivers\peripheral\prot/cy_prot.c **** 
1739:Generated_Source\PSoC6\pdl\drivers\peripheral\prot/cy_prot.c ****     return status;
1740:Generated_Source\PSoC6\pdl\drivers\peripheral\prot/cy_prot.c **** }
1741:Generated_Source\PSoC6\pdl\drivers\peripheral\prot/cy_prot.c **** 
1742:Generated_Source\PSoC6\pdl\drivers\peripheral\prot/cy_prot.c **** 
1743:Generated_Source\PSoC6\pdl\drivers\peripheral\prot/cy_prot.c **** 
1744:Generated_Source\PSoC6\pdl\drivers\peripheral\prot/cy_prot.c **** /*******************************************************************************
1745:Generated_Source\PSoC6\pdl\drivers\peripheral\prot/cy_prot.c **** * Function Name: Cy_Prot_ConfigPpuFixedGrMasterStruct
1746:Generated_Source\PSoC6\pdl\drivers\peripheral\prot/cy_prot.c **** ****************************************************************************//**
1747:Generated_Source\PSoC6\pdl\drivers\peripheral\prot/cy_prot.c **** *
1748:Generated_Source\PSoC6\pdl\drivers\peripheral\prot/cy_prot.c **** * Configures a Fixed Peripheral Group Protection Unit (PPU GR) master 
1749:Generated_Source\PSoC6\pdl\drivers\peripheral\prot/cy_prot.c **** * protection struct with its protection attributes. 
1750:Generated_Source\PSoC6\pdl\drivers\peripheral\prot/cy_prot.c **** *
1751:Generated_Source\PSoC6\pdl\drivers\peripheral\prot/cy_prot.c **** * This function configures the master struct governing the corresponding slave
1752:Generated_Source\PSoC6\pdl\drivers\peripheral\prot/cy_prot.c **** * struct pair. It is a mechanism to protect the slave PPU GR struct. Since
1753:Generated_Source\PSoC6\pdl\drivers\peripheral\prot/cy_prot.c **** * the memory location of the slave struct is known, the address, regionSize and
1754:Generated_Source\PSoC6\pdl\drivers\peripheral\prot/cy_prot.c **** * subregions of the configuration struct are not applicable.
1755:Generated_Source\PSoC6\pdl\drivers\peripheral\prot/cy_prot.c **** *
1756:Generated_Source\PSoC6\pdl\drivers\peripheral\prot/cy_prot.c **** * Note that only the user/privileged write permissions are configurable. The 
1757:Generated_Source\PSoC6\pdl\drivers\peripheral\prot/cy_prot.c **** * read and execute permissions are read-only and cannot be configured.
1758:Generated_Source\PSoC6\pdl\drivers\peripheral\prot/cy_prot.c **** *
1759:Generated_Source\PSoC6\pdl\drivers\peripheral\prot/cy_prot.c **** * \note This function is applicable for CPUSS ver_1 only.
ARM GAS  C:\Users\Rolf\AppData\Local\Temp\ccTbcyL9.s 			page 36


1760:Generated_Source\PSoC6\pdl\drivers\peripheral\prot/cy_prot.c **** *
1761:Generated_Source\PSoC6\pdl\drivers\peripheral\prot/cy_prot.c **** * \param base
1762:Generated_Source\PSoC6\pdl\drivers\peripheral\prot/cy_prot.c **** * The register base address of the protection struct being configured.
1763:Generated_Source\PSoC6\pdl\drivers\peripheral\prot/cy_prot.c **** * 
1764:Generated_Source\PSoC6\pdl\drivers\peripheral\prot/cy_prot.c **** * \param config
1765:Generated_Source\PSoC6\pdl\drivers\peripheral\prot/cy_prot.c **** * Initialization structure with all the protection attributes.
1766:Generated_Source\PSoC6\pdl\drivers\peripheral\prot/cy_prot.c **** * 
1767:Generated_Source\PSoC6\pdl\drivers\peripheral\prot/cy_prot.c **** * \return
1768:Generated_Source\PSoC6\pdl\drivers\peripheral\prot/cy_prot.c **** * Status of the function call.
1769:Generated_Source\PSoC6\pdl\drivers\peripheral\prot/cy_prot.c **** *
1770:Generated_Source\PSoC6\pdl\drivers\peripheral\prot/cy_prot.c **** *   Status                | Description
1771:Generated_Source\PSoC6\pdl\drivers\peripheral\prot/cy_prot.c **** *   ------------          | -----------
1772:Generated_Source\PSoC6\pdl\drivers\peripheral\prot/cy_prot.c **** *   CY_PROT_SUCCESS       | PPU GR master struct was successfully configured.
1773:Generated_Source\PSoC6\pdl\drivers\peripheral\prot/cy_prot.c **** *   CY_PROT_FAILURE       | The resource is locked.
1774:Generated_Source\PSoC6\pdl\drivers\peripheral\prot/cy_prot.c **** *   CY_PROT_BAD_PARAM     | An incorrect/invalid parameter was passed.
1775:Generated_Source\PSoC6\pdl\drivers\peripheral\prot/cy_prot.c **** *   CY_PROT_INVALID_STATE | The function was called on the device with an unsupported PERI HW versi
1776:Generated_Source\PSoC6\pdl\drivers\peripheral\prot/cy_prot.c **** *
1777:Generated_Source\PSoC6\pdl\drivers\peripheral\prot/cy_prot.c **** * \funcusage
1778:Generated_Source\PSoC6\pdl\drivers\peripheral\prot/cy_prot.c **** * \snippet prot/1.20/snippet/main.c snippet_Cy_Prot_ConfigPpuFixedGrMasterStruct
1779:Generated_Source\PSoC6\pdl\drivers\peripheral\prot/cy_prot.c **** *
1780:Generated_Source\PSoC6\pdl\drivers\peripheral\prot/cy_prot.c **** *******************************************************************************/
1781:Generated_Source\PSoC6\pdl\drivers\peripheral\prot/cy_prot.c **** cy_en_prot_status_t Cy_Prot_ConfigPpuFixedGrMasterStruct(PERI_PPU_GR_Type* base, const cy_stc_ppu_g
1782:Generated_Source\PSoC6\pdl\drivers\peripheral\prot/cy_prot.c **** {
1783:Generated_Source\PSoC6\pdl\drivers\peripheral\prot/cy_prot.c ****     cy_en_prot_status_t status = CY_PROT_INVALID_STATE;
1784:Generated_Source\PSoC6\pdl\drivers\peripheral\prot/cy_prot.c ****     uint32_t attReg;
1785:Generated_Source\PSoC6\pdl\drivers\peripheral\prot/cy_prot.c ****     
1786:Generated_Source\PSoC6\pdl\drivers\peripheral\prot/cy_prot.c ****     CY_ASSERT_L1(NULL != base);
1787:Generated_Source\PSoC6\pdl\drivers\peripheral\prot/cy_prot.c ****     CY_ASSERT_L3(CY_PROT_IS_FIXED_MS_PERM_VALID(config->userPermission));
1788:Generated_Source\PSoC6\pdl\drivers\peripheral\prot/cy_prot.c ****     CY_ASSERT_L3(CY_PROT_IS_FIXED_MS_PERM_VALID(config->privPermission));
1789:Generated_Source\PSoC6\pdl\drivers\peripheral\prot/cy_prot.c ****     
1790:Generated_Source\PSoC6\pdl\drivers\peripheral\prot/cy_prot.c ****     if (CY_PERI_V1)
1791:Generated_Source\PSoC6\pdl\drivers\peripheral\prot/cy_prot.c ****     {
1792:Generated_Source\PSoC6\pdl\drivers\peripheral\prot/cy_prot.c ****         if(((uint32_t)config->pcMask & CY_PROT_PPU_FIXED_PC_LIMIT_MASK) != 0UL) 
1793:Generated_Source\PSoC6\pdl\drivers\peripheral\prot/cy_prot.c ****         {
1794:Generated_Source\PSoC6\pdl\drivers\peripheral\prot/cy_prot.c ****             /* PC mask out of range - not supported in device */
1795:Generated_Source\PSoC6\pdl\drivers\peripheral\prot/cy_prot.c ****             status = CY_PROT_BAD_PARAM;
1796:Generated_Source\PSoC6\pdl\drivers\peripheral\prot/cy_prot.c ****         }
1797:Generated_Source\PSoC6\pdl\drivers\peripheral\prot/cy_prot.c ****         else
1798:Generated_Source\PSoC6\pdl\drivers\peripheral\prot/cy_prot.c ****         {
1799:Generated_Source\PSoC6\pdl\drivers\peripheral\prot/cy_prot.c ****             /* ADDR1 is read only. Only configure ATT1 */
1800:Generated_Source\PSoC6\pdl\drivers\peripheral\prot/cy_prot.c ****             attReg = (((uint32_t)config->userPermission & CY_PROT_ATT_PERMISSION_MASK))
1801:Generated_Source\PSoC6\pdl\drivers\peripheral\prot/cy_prot.c ****                         | (uint32_t)(((uint32_t)config->privPermission & CY_PROT_ATT_PERMISSION_MAS
1802:Generated_Source\PSoC6\pdl\drivers\peripheral\prot/cy_prot.c ****                         | _VAL2FLD(PERI_PPU_GR_ATT1_NS, !(config->secure))
1803:Generated_Source\PSoC6\pdl\drivers\peripheral\prot/cy_prot.c ****                         | _VAL2FLD(PERI_PPU_GR_ATT1_PC_MASK_15_TO_1, config->pcMask)
1804:Generated_Source\PSoC6\pdl\drivers\peripheral\prot/cy_prot.c ****                         /* No region size - read only for master structs */
1805:Generated_Source\PSoC6\pdl\drivers\peripheral\prot/cy_prot.c ****                         | _VAL2FLD(PERI_PPU_GR_ATT1_PC_MATCH, config->pcMatch);
1806:Generated_Source\PSoC6\pdl\drivers\peripheral\prot/cy_prot.c ****             if ((attReg & CY_PROT_PPU_GR_ATT1_MASK) != attReg)
1807:Generated_Source\PSoC6\pdl\drivers\peripheral\prot/cy_prot.c ****             {
1808:Generated_Source\PSoC6\pdl\drivers\peripheral\prot/cy_prot.c ****                 /* Invalid parameter was passed */
1809:Generated_Source\PSoC6\pdl\drivers\peripheral\prot/cy_prot.c ****                 status = CY_PROT_BAD_PARAM;
1810:Generated_Source\PSoC6\pdl\drivers\peripheral\prot/cy_prot.c ****             }
1811:Generated_Source\PSoC6\pdl\drivers\peripheral\prot/cy_prot.c ****             else
1812:Generated_Source\PSoC6\pdl\drivers\peripheral\prot/cy_prot.c ****             {
1813:Generated_Source\PSoC6\pdl\drivers\peripheral\prot/cy_prot.c ****                 PERI_PPU_GR_ATT1(base) = attReg;
1814:Generated_Source\PSoC6\pdl\drivers\peripheral\prot/cy_prot.c ****                 status = ((PERI_PPU_GR_ATT1(base) & CY_PROT_PPU_GR_ATT1_MASK) != attReg) ? CY_PROT_
1815:Generated_Source\PSoC6\pdl\drivers\peripheral\prot/cy_prot.c ****             }
1816:Generated_Source\PSoC6\pdl\drivers\peripheral\prot/cy_prot.c ****         }
ARM GAS  C:\Users\Rolf\AppData\Local\Temp\ccTbcyL9.s 			page 37


1817:Generated_Source\PSoC6\pdl\drivers\peripheral\prot/cy_prot.c ****     }
1818:Generated_Source\PSoC6\pdl\drivers\peripheral\prot/cy_prot.c **** 
1819:Generated_Source\PSoC6\pdl\drivers\peripheral\prot/cy_prot.c ****     return status;
1820:Generated_Source\PSoC6\pdl\drivers\peripheral\prot/cy_prot.c **** }
1821:Generated_Source\PSoC6\pdl\drivers\peripheral\prot/cy_prot.c **** 
1822:Generated_Source\PSoC6\pdl\drivers\peripheral\prot/cy_prot.c **** 
1823:Generated_Source\PSoC6\pdl\drivers\peripheral\prot/cy_prot.c **** /*******************************************************************************
1824:Generated_Source\PSoC6\pdl\drivers\peripheral\prot/cy_prot.c **** * Function Name: Cy_Prot_ConfigPpuFixedGrSlaveStruct
1825:Generated_Source\PSoC6\pdl\drivers\peripheral\prot/cy_prot.c **** ****************************************************************************//**
1826:Generated_Source\PSoC6\pdl\drivers\peripheral\prot/cy_prot.c **** *
1827:Generated_Source\PSoC6\pdl\drivers\peripheral\prot/cy_prot.c **** * Configures a Fixed Peripheral Group Protection Unit (PPU GR) slave
1828:Generated_Source\PSoC6\pdl\drivers\peripheral\prot/cy_prot.c **** * protection struct with its protection attributes. 
1829:Generated_Source\PSoC6\pdl\drivers\peripheral\prot/cy_prot.c **** * 
1830:Generated_Source\PSoC6\pdl\drivers\peripheral\prot/cy_prot.c **** * This function configures the slave struct of a PPU GR pair, which can 
1831:Generated_Source\PSoC6\pdl\drivers\peripheral\prot/cy_prot.c **** * protect an entire peripheral MMIO group from invalid bus master accesses.
1832:Generated_Source\PSoC6\pdl\drivers\peripheral\prot/cy_prot.c **** * Refer to the device Technical Reference manual for details on peripheral
1833:Generated_Source\PSoC6\pdl\drivers\peripheral\prot/cy_prot.c **** * MMIO grouping and which peripherals belong to which groups.
1834:Generated_Source\PSoC6\pdl\drivers\peripheral\prot/cy_prot.c **** *
1835:Generated_Source\PSoC6\pdl\drivers\peripheral\prot/cy_prot.c **** * Each fixed PPU GR is devoted to a defined MMIO group. Hence the address, 
1836:Generated_Source\PSoC6\pdl\drivers\peripheral\prot/cy_prot.c **** * regionSize and subregions of the configuration struct are not applicable.
1837:Generated_Source\PSoC6\pdl\drivers\peripheral\prot/cy_prot.c **** *
1838:Generated_Source\PSoC6\pdl\drivers\peripheral\prot/cy_prot.c **** * Note that the user/privileged execute accesses are read-only and are always 
1839:Generated_Source\PSoC6\pdl\drivers\peripheral\prot/cy_prot.c **** * enabled. 
1840:Generated_Source\PSoC6\pdl\drivers\peripheral\prot/cy_prot.c **** *
1841:Generated_Source\PSoC6\pdl\drivers\peripheral\prot/cy_prot.c **** * \note This function is applicable for CPUSS ver_1 only.
1842:Generated_Source\PSoC6\pdl\drivers\peripheral\prot/cy_prot.c **** *
1843:Generated_Source\PSoC6\pdl\drivers\peripheral\prot/cy_prot.c **** * \param base
1844:Generated_Source\PSoC6\pdl\drivers\peripheral\prot/cy_prot.c **** * The register base address of the protection structure being configured.
1845:Generated_Source\PSoC6\pdl\drivers\peripheral\prot/cy_prot.c **** * 
1846:Generated_Source\PSoC6\pdl\drivers\peripheral\prot/cy_prot.c **** * \param config
1847:Generated_Source\PSoC6\pdl\drivers\peripheral\prot/cy_prot.c **** * Initialization structure with all the protection attributes.
1848:Generated_Source\PSoC6\pdl\drivers\peripheral\prot/cy_prot.c **** * 
1849:Generated_Source\PSoC6\pdl\drivers\peripheral\prot/cy_prot.c **** * \return
1850:Generated_Source\PSoC6\pdl\drivers\peripheral\prot/cy_prot.c **** * Status of the function call.
1851:Generated_Source\PSoC6\pdl\drivers\peripheral\prot/cy_prot.c **** *
1852:Generated_Source\PSoC6\pdl\drivers\peripheral\prot/cy_prot.c **** *   Status                | Description
1853:Generated_Source\PSoC6\pdl\drivers\peripheral\prot/cy_prot.c **** *   ------------          | -----------
1854:Generated_Source\PSoC6\pdl\drivers\peripheral\prot/cy_prot.c **** *   CY_PROT_SUCCESS       | PPU GR slave struct was successfully configured.
1855:Generated_Source\PSoC6\pdl\drivers\peripheral\prot/cy_prot.c **** *   CY_PROT_FAILURE       | The resource is locked.
1856:Generated_Source\PSoC6\pdl\drivers\peripheral\prot/cy_prot.c **** *   CY_PROT_BAD_PARAM     | An incorrect/invalid parameter was passed.
1857:Generated_Source\PSoC6\pdl\drivers\peripheral\prot/cy_prot.c **** *   CY_PROT_INVALID_STATE | The function was called on the device with an unsupported PERI HW versi
1858:Generated_Source\PSoC6\pdl\drivers\peripheral\prot/cy_prot.c **** *
1859:Generated_Source\PSoC6\pdl\drivers\peripheral\prot/cy_prot.c **** * \funcusage
1860:Generated_Source\PSoC6\pdl\drivers\peripheral\prot/cy_prot.c **** * \snippet prot/1.20/snippet/main.c snippet_Cy_Prot_ConfigPpuFixedGrSlaveStruct
1861:Generated_Source\PSoC6\pdl\drivers\peripheral\prot/cy_prot.c **** *
1862:Generated_Source\PSoC6\pdl\drivers\peripheral\prot/cy_prot.c **** *******************************************************************************/
1863:Generated_Source\PSoC6\pdl\drivers\peripheral\prot/cy_prot.c **** cy_en_prot_status_t Cy_Prot_ConfigPpuFixedGrSlaveStruct(PERI_PPU_GR_Type* base, const cy_stc_ppu_gr
1864:Generated_Source\PSoC6\pdl\drivers\peripheral\prot/cy_prot.c **** {
1865:Generated_Source\PSoC6\pdl\drivers\peripheral\prot/cy_prot.c ****     cy_en_prot_status_t status = CY_PROT_INVALID_STATE;
1866:Generated_Source\PSoC6\pdl\drivers\peripheral\prot/cy_prot.c ****     uint32_t attReg;
1867:Generated_Source\PSoC6\pdl\drivers\peripheral\prot/cy_prot.c ****     
1868:Generated_Source\PSoC6\pdl\drivers\peripheral\prot/cy_prot.c ****     CY_ASSERT_L1(NULL != base);
1869:Generated_Source\PSoC6\pdl\drivers\peripheral\prot/cy_prot.c ****     CY_ASSERT_L3(CY_PROT_IS_FIXED_SL_PERM_VALID(config->userPermission));
1870:Generated_Source\PSoC6\pdl\drivers\peripheral\prot/cy_prot.c ****     CY_ASSERT_L3(CY_PROT_IS_FIXED_SL_PERM_VALID(config->privPermission));
1871:Generated_Source\PSoC6\pdl\drivers\peripheral\prot/cy_prot.c ****     
1872:Generated_Source\PSoC6\pdl\drivers\peripheral\prot/cy_prot.c ****     if (CY_PERI_V1)
1873:Generated_Source\PSoC6\pdl\drivers\peripheral\prot/cy_prot.c ****     {
ARM GAS  C:\Users\Rolf\AppData\Local\Temp\ccTbcyL9.s 			page 38


1874:Generated_Source\PSoC6\pdl\drivers\peripheral\prot/cy_prot.c ****         if(((uint32_t)config->pcMask & CY_PROT_PPU_FIXED_PC_LIMIT_MASK) != 0UL) 
1875:Generated_Source\PSoC6\pdl\drivers\peripheral\prot/cy_prot.c ****         {
1876:Generated_Source\PSoC6\pdl\drivers\peripheral\prot/cy_prot.c ****             /* PC mask out of range - not supported in device */
1877:Generated_Source\PSoC6\pdl\drivers\peripheral\prot/cy_prot.c ****             status = CY_PROT_BAD_PARAM;
1878:Generated_Source\PSoC6\pdl\drivers\peripheral\prot/cy_prot.c ****         }
1879:Generated_Source\PSoC6\pdl\drivers\peripheral\prot/cy_prot.c ****         else
1880:Generated_Source\PSoC6\pdl\drivers\peripheral\prot/cy_prot.c ****         {
1881:Generated_Source\PSoC6\pdl\drivers\peripheral\prot/cy_prot.c ****             /* ADDR0 is read only. Only configure ATT0 */
1882:Generated_Source\PSoC6\pdl\drivers\peripheral\prot/cy_prot.c ****             attReg = (uint32_t)(((uint32_t)config->userPermission & CY_PROT_ATT_PERMISSION_MASK))
1883:Generated_Source\PSoC6\pdl\drivers\peripheral\prot/cy_prot.c ****                         | (uint32_t)(((uint32_t)config->privPermission & CY_PROT_ATT_PERMISSION_MAS
1884:Generated_Source\PSoC6\pdl\drivers\peripheral\prot/cy_prot.c ****                         | _VAL2FLD(PERI_PPU_GR_ATT0_NS, !(config->secure))
1885:Generated_Source\PSoC6\pdl\drivers\peripheral\prot/cy_prot.c ****                         | _VAL2FLD(PERI_PPU_GR_ATT0_PC_MASK_15_TO_1, config->pcMask)
1886:Generated_Source\PSoC6\pdl\drivers\peripheral\prot/cy_prot.c ****                         /* No region size - read only */
1887:Generated_Source\PSoC6\pdl\drivers\peripheral\prot/cy_prot.c ****                         | _VAL2FLD(PERI_PPU_GR_ATT0_PC_MATCH, config->pcMatch);
1888:Generated_Source\PSoC6\pdl\drivers\peripheral\prot/cy_prot.c ****             if ((attReg & CY_PROT_PPU_GR_ATT0_MASK) != attReg)
1889:Generated_Source\PSoC6\pdl\drivers\peripheral\prot/cy_prot.c ****             {
1890:Generated_Source\PSoC6\pdl\drivers\peripheral\prot/cy_prot.c ****                 /* Invalid parameter was passed */
1891:Generated_Source\PSoC6\pdl\drivers\peripheral\prot/cy_prot.c ****                 status = CY_PROT_BAD_PARAM;
1892:Generated_Source\PSoC6\pdl\drivers\peripheral\prot/cy_prot.c ****             }
1893:Generated_Source\PSoC6\pdl\drivers\peripheral\prot/cy_prot.c ****             else
1894:Generated_Source\PSoC6\pdl\drivers\peripheral\prot/cy_prot.c ****             {
1895:Generated_Source\PSoC6\pdl\drivers\peripheral\prot/cy_prot.c ****                 PERI_PPU_GR_ATT0(base) = attReg;
1896:Generated_Source\PSoC6\pdl\drivers\peripheral\prot/cy_prot.c ****                 status = ((PERI_PPU_GR_ATT0(base) & CY_PROT_PPU_GR_ATT0_MASK) != attReg) ? CY_PROT_
1897:Generated_Source\PSoC6\pdl\drivers\peripheral\prot/cy_prot.c ****             }
1898:Generated_Source\PSoC6\pdl\drivers\peripheral\prot/cy_prot.c ****         }
1899:Generated_Source\PSoC6\pdl\drivers\peripheral\prot/cy_prot.c ****     }
1900:Generated_Source\PSoC6\pdl\drivers\peripheral\prot/cy_prot.c **** 
1901:Generated_Source\PSoC6\pdl\drivers\peripheral\prot/cy_prot.c ****     return status;
1902:Generated_Source\PSoC6\pdl\drivers\peripheral\prot/cy_prot.c **** }
1903:Generated_Source\PSoC6\pdl\drivers\peripheral\prot/cy_prot.c **** 
1904:Generated_Source\PSoC6\pdl\drivers\peripheral\prot/cy_prot.c **** 
1905:Generated_Source\PSoC6\pdl\drivers\peripheral\prot/cy_prot.c **** /*******************************************************************************
1906:Generated_Source\PSoC6\pdl\drivers\peripheral\prot/cy_prot.c **** * Function Name: Cy_Prot_EnablePpuFixedGrMasterStruct
1907:Generated_Source\PSoC6\pdl\drivers\peripheral\prot/cy_prot.c **** ****************************************************************************//**
1908:Generated_Source\PSoC6\pdl\drivers\peripheral\prot/cy_prot.c **** *
1909:Generated_Source\PSoC6\pdl\drivers\peripheral\prot/cy_prot.c **** * Enables the Master PPU GR structure.
1910:Generated_Source\PSoC6\pdl\drivers\peripheral\prot/cy_prot.c **** *
1911:Generated_Source\PSoC6\pdl\drivers\peripheral\prot/cy_prot.c **** * This is a PPU GR master struct enable function. The PPU GR protection 
1912:Generated_Source\PSoC6\pdl\drivers\peripheral\prot/cy_prot.c **** * settings will take effect after successful completion of this function call.
1913:Generated_Source\PSoC6\pdl\drivers\peripheral\prot/cy_prot.c **** *
1914:Generated_Source\PSoC6\pdl\drivers\peripheral\prot/cy_prot.c **** * \note This function is applicable for CPUSS ver_1 only.
1915:Generated_Source\PSoC6\pdl\drivers\peripheral\prot/cy_prot.c **** *
1916:Generated_Source\PSoC6\pdl\drivers\peripheral\prot/cy_prot.c **** * \param base
1917:Generated_Source\PSoC6\pdl\drivers\peripheral\prot/cy_prot.c **** * The base address for the protection unit structure being configured. 
1918:Generated_Source\PSoC6\pdl\drivers\peripheral\prot/cy_prot.c **** *
1919:Generated_Source\PSoC6\pdl\drivers\peripheral\prot/cy_prot.c **** * \return
1920:Generated_Source\PSoC6\pdl\drivers\peripheral\prot/cy_prot.c **** * Status of the function call.
1921:Generated_Source\PSoC6\pdl\drivers\peripheral\prot/cy_prot.c **** *
1922:Generated_Source\PSoC6\pdl\drivers\peripheral\prot/cy_prot.c **** *   Status                | Description
1923:Generated_Source\PSoC6\pdl\drivers\peripheral\prot/cy_prot.c **** *   ------------          | -----------
1924:Generated_Source\PSoC6\pdl\drivers\peripheral\prot/cy_prot.c **** *   CY_PROT_SUCCESS       | The Master PU struct was enabled.
1925:Generated_Source\PSoC6\pdl\drivers\peripheral\prot/cy_prot.c **** *   CY_PROT_FAILURE       | The Master PU struct is disabled and possibly locked.
1926:Generated_Source\PSoC6\pdl\drivers\peripheral\prot/cy_prot.c **** *   CY_PROT_INVALID_STATE | The function was called on the device with an unsupported PERI HW versi
1927:Generated_Source\PSoC6\pdl\drivers\peripheral\prot/cy_prot.c **** *
1928:Generated_Source\PSoC6\pdl\drivers\peripheral\prot/cy_prot.c **** * \funcusage
1929:Generated_Source\PSoC6\pdl\drivers\peripheral\prot/cy_prot.c **** * \snippet prot/1.20/snippet/main.c snippet_Cy_Prot_EnablePpuFixedGrMasterStruct
1930:Generated_Source\PSoC6\pdl\drivers\peripheral\prot/cy_prot.c **** *
ARM GAS  C:\Users\Rolf\AppData\Local\Temp\ccTbcyL9.s 			page 39


1931:Generated_Source\PSoC6\pdl\drivers\peripheral\prot/cy_prot.c **** *******************************************************************************/
1932:Generated_Source\PSoC6\pdl\drivers\peripheral\prot/cy_prot.c **** cy_en_prot_status_t Cy_Prot_EnablePpuFixedGrMasterStruct(PERI_PPU_GR_Type* base)
1933:Generated_Source\PSoC6\pdl\drivers\peripheral\prot/cy_prot.c **** {
1934:Generated_Source\PSoC6\pdl\drivers\peripheral\prot/cy_prot.c ****     cy_en_prot_status_t status = CY_PROT_INVALID_STATE;
1935:Generated_Source\PSoC6\pdl\drivers\peripheral\prot/cy_prot.c ****     
1936:Generated_Source\PSoC6\pdl\drivers\peripheral\prot/cy_prot.c ****     CY_ASSERT_L1(NULL != base);
1937:Generated_Source\PSoC6\pdl\drivers\peripheral\prot/cy_prot.c ****     
1938:Generated_Source\PSoC6\pdl\drivers\peripheral\prot/cy_prot.c ****     if (CY_PERI_V1)
1939:Generated_Source\PSoC6\pdl\drivers\peripheral\prot/cy_prot.c ****     {
1940:Generated_Source\PSoC6\pdl\drivers\peripheral\prot/cy_prot.c ****         PERI_PPU_GR_ATT1(base) |= _VAL2FLD(PERI_PPU_GR_ATT1_ENABLED, CY_PROT_STRUCT_ENABLE);
1941:Generated_Source\PSoC6\pdl\drivers\peripheral\prot/cy_prot.c ****         status = (_FLD2VAL(PERI_PPU_GR_ATT1_ENABLED, PERI_PPU_GR_ATT1(base)) != CY_PROT_STRUCT_ENAB
1942:Generated_Source\PSoC6\pdl\drivers\peripheral\prot/cy_prot.c ****                     CY_PROT_FAILURE : CY_PROT_SUCCESS;
1943:Generated_Source\PSoC6\pdl\drivers\peripheral\prot/cy_prot.c ****     }
1944:Generated_Source\PSoC6\pdl\drivers\peripheral\prot/cy_prot.c **** 
1945:Generated_Source\PSoC6\pdl\drivers\peripheral\prot/cy_prot.c ****     return status;
1946:Generated_Source\PSoC6\pdl\drivers\peripheral\prot/cy_prot.c **** }
1947:Generated_Source\PSoC6\pdl\drivers\peripheral\prot/cy_prot.c **** 
1948:Generated_Source\PSoC6\pdl\drivers\peripheral\prot/cy_prot.c **** 
1949:Generated_Source\PSoC6\pdl\drivers\peripheral\prot/cy_prot.c **** /*******************************************************************************
1950:Generated_Source\PSoC6\pdl\drivers\peripheral\prot/cy_prot.c **** * Function Name: Cy_Prot_DisablePpuFixedGrMasterStruct
1951:Generated_Source\PSoC6\pdl\drivers\peripheral\prot/cy_prot.c **** ****************************************************************************//**
1952:Generated_Source\PSoC6\pdl\drivers\peripheral\prot/cy_prot.c **** *
1953:Generated_Source\PSoC6\pdl\drivers\peripheral\prot/cy_prot.c **** * Disables the Master PPU GR structure.
1954:Generated_Source\PSoC6\pdl\drivers\peripheral\prot/cy_prot.c **** *
1955:Generated_Source\PSoC6\pdl\drivers\peripheral\prot/cy_prot.c **** * This is a PPU GR master struct disable function. The PPU GR protection 
1956:Generated_Source\PSoC6\pdl\drivers\peripheral\prot/cy_prot.c **** * settings will seize to take effect after successful completion of this 
1957:Generated_Source\PSoC6\pdl\drivers\peripheral\prot/cy_prot.c **** * function call.
1958:Generated_Source\PSoC6\pdl\drivers\peripheral\prot/cy_prot.c **** *
1959:Generated_Source\PSoC6\pdl\drivers\peripheral\prot/cy_prot.c **** * \note This function is applicable for CPUSS ver_1 only.
1960:Generated_Source\PSoC6\pdl\drivers\peripheral\prot/cy_prot.c **** *
1961:Generated_Source\PSoC6\pdl\drivers\peripheral\prot/cy_prot.c **** * \param base
1962:Generated_Source\PSoC6\pdl\drivers\peripheral\prot/cy_prot.c **** * The base address for the protection unit structure being configured. 
1963:Generated_Source\PSoC6\pdl\drivers\peripheral\prot/cy_prot.c **** *
1964:Generated_Source\PSoC6\pdl\drivers\peripheral\prot/cy_prot.c **** * \return
1965:Generated_Source\PSoC6\pdl\drivers\peripheral\prot/cy_prot.c **** * Status of the function call.
1966:Generated_Source\PSoC6\pdl\drivers\peripheral\prot/cy_prot.c **** *
1967:Generated_Source\PSoC6\pdl\drivers\peripheral\prot/cy_prot.c **** *   Status                | Description
1968:Generated_Source\PSoC6\pdl\drivers\peripheral\prot/cy_prot.c **** *   ------------          | -----------
1969:Generated_Source\PSoC6\pdl\drivers\peripheral\prot/cy_prot.c **** *   CY_PROT_SUCCESS       | The Master PU struct was disabled.
1970:Generated_Source\PSoC6\pdl\drivers\peripheral\prot/cy_prot.c **** *   CY_PROT_FAILURE       | The Master PU struct is enabled and possibly locked.
1971:Generated_Source\PSoC6\pdl\drivers\peripheral\prot/cy_prot.c **** *   CY_PROT_INVALID_STATE | The function was called on the device with an unsupported PERI HW versi
1972:Generated_Source\PSoC6\pdl\drivers\peripheral\prot/cy_prot.c **** *
1973:Generated_Source\PSoC6\pdl\drivers\peripheral\prot/cy_prot.c **** * \funcusage
1974:Generated_Source\PSoC6\pdl\drivers\peripheral\prot/cy_prot.c **** * \snippet prot/1.20/snippet/main.c snippet_Cy_Prot_DisablePpuFixedGrMasterStruct
1975:Generated_Source\PSoC6\pdl\drivers\peripheral\prot/cy_prot.c **** *
1976:Generated_Source\PSoC6\pdl\drivers\peripheral\prot/cy_prot.c **** *******************************************************************************/
1977:Generated_Source\PSoC6\pdl\drivers\peripheral\prot/cy_prot.c **** cy_en_prot_status_t Cy_Prot_DisablePpuFixedGrMasterStruct(PERI_PPU_GR_Type* base)
1978:Generated_Source\PSoC6\pdl\drivers\peripheral\prot/cy_prot.c **** {
1979:Generated_Source\PSoC6\pdl\drivers\peripheral\prot/cy_prot.c ****     cy_en_prot_status_t status = CY_PROT_INVALID_STATE;
1980:Generated_Source\PSoC6\pdl\drivers\peripheral\prot/cy_prot.c ****     
1981:Generated_Source\PSoC6\pdl\drivers\peripheral\prot/cy_prot.c ****     CY_ASSERT_L1(NULL != base);
1982:Generated_Source\PSoC6\pdl\drivers\peripheral\prot/cy_prot.c ****     
1983:Generated_Source\PSoC6\pdl\drivers\peripheral\prot/cy_prot.c ****     if (CY_PERI_V1)
1984:Generated_Source\PSoC6\pdl\drivers\peripheral\prot/cy_prot.c ****     {
1985:Generated_Source\PSoC6\pdl\drivers\peripheral\prot/cy_prot.c ****         PERI_PPU_GR_ATT1(base) &= ~_VAL2FLD(PERI_PPU_GR_ATT1_ENABLED, CY_PROT_STRUCT_ENABLE);
1986:Generated_Source\PSoC6\pdl\drivers\peripheral\prot/cy_prot.c ****         status = (_FLD2VAL(PERI_PPU_GR_ATT1_ENABLED, PERI_PPU_GR_ATT1(base)) == CY_PROT_STRUCT_ENAB
1987:Generated_Source\PSoC6\pdl\drivers\peripheral\prot/cy_prot.c ****                     CY_PROT_FAILURE : CY_PROT_SUCCESS;
ARM GAS  C:\Users\Rolf\AppData\Local\Temp\ccTbcyL9.s 			page 40


1988:Generated_Source\PSoC6\pdl\drivers\peripheral\prot/cy_prot.c ****     }
1989:Generated_Source\PSoC6\pdl\drivers\peripheral\prot/cy_prot.c **** 
1990:Generated_Source\PSoC6\pdl\drivers\peripheral\prot/cy_prot.c ****     return status;
1991:Generated_Source\PSoC6\pdl\drivers\peripheral\prot/cy_prot.c **** }
1992:Generated_Source\PSoC6\pdl\drivers\peripheral\prot/cy_prot.c **** 
1993:Generated_Source\PSoC6\pdl\drivers\peripheral\prot/cy_prot.c **** 
1994:Generated_Source\PSoC6\pdl\drivers\peripheral\prot/cy_prot.c **** /*******************************************************************************
1995:Generated_Source\PSoC6\pdl\drivers\peripheral\prot/cy_prot.c **** * Function Name: Cy_Prot_EnablePpuFixedGrSlaveStruct
1996:Generated_Source\PSoC6\pdl\drivers\peripheral\prot/cy_prot.c **** ****************************************************************************//**
1997:Generated_Source\PSoC6\pdl\drivers\peripheral\prot/cy_prot.c **** *
1998:Generated_Source\PSoC6\pdl\drivers\peripheral\prot/cy_prot.c **** * Enables the Slave PPU GR structure.
1999:Generated_Source\PSoC6\pdl\drivers\peripheral\prot/cy_prot.c **** *
2000:Generated_Source\PSoC6\pdl\drivers\peripheral\prot/cy_prot.c **** * This is a PPU GR slave struct enable function. The PPU GR protection 
2001:Generated_Source\PSoC6\pdl\drivers\peripheral\prot/cy_prot.c **** * settings will take effect after successful completion of this function call.
2002:Generated_Source\PSoC6\pdl\drivers\peripheral\prot/cy_prot.c **** *
2003:Generated_Source\PSoC6\pdl\drivers\peripheral\prot/cy_prot.c **** * \note This function is applicable for CPUSS ver_1 only.
2004:Generated_Source\PSoC6\pdl\drivers\peripheral\prot/cy_prot.c **** *
2005:Generated_Source\PSoC6\pdl\drivers\peripheral\prot/cy_prot.c **** * \param base
2006:Generated_Source\PSoC6\pdl\drivers\peripheral\prot/cy_prot.c **** * The base address for the protection unit structure being configured. 
2007:Generated_Source\PSoC6\pdl\drivers\peripheral\prot/cy_prot.c **** *
2008:Generated_Source\PSoC6\pdl\drivers\peripheral\prot/cy_prot.c **** * \return
2009:Generated_Source\PSoC6\pdl\drivers\peripheral\prot/cy_prot.c **** * Status of the function call.
2010:Generated_Source\PSoC6\pdl\drivers\peripheral\prot/cy_prot.c **** *
2011:Generated_Source\PSoC6\pdl\drivers\peripheral\prot/cy_prot.c **** *   Status                | Description
2012:Generated_Source\PSoC6\pdl\drivers\peripheral\prot/cy_prot.c **** *   ------------          | -----------
2013:Generated_Source\PSoC6\pdl\drivers\peripheral\prot/cy_prot.c **** *   CY_PROT_SUCCESS       | The Slave PU struct was enabled.
2014:Generated_Source\PSoC6\pdl\drivers\peripheral\prot/cy_prot.c **** *   CY_PROT_FAILURE       | The Slave PU struct is disabled and possibly locked.
2015:Generated_Source\PSoC6\pdl\drivers\peripheral\prot/cy_prot.c **** *   CY_PROT_INVALID_STATE | The function was called on the device with an unsupported PERI HW versi
2016:Generated_Source\PSoC6\pdl\drivers\peripheral\prot/cy_prot.c **** *
2017:Generated_Source\PSoC6\pdl\drivers\peripheral\prot/cy_prot.c **** * \funcusage
2018:Generated_Source\PSoC6\pdl\drivers\peripheral\prot/cy_prot.c **** * \snippet prot/1.20/snippet/main.c snippet_Cy_Prot_EnablePpuFixedGrSlaveStruct
2019:Generated_Source\PSoC6\pdl\drivers\peripheral\prot/cy_prot.c **** *
2020:Generated_Source\PSoC6\pdl\drivers\peripheral\prot/cy_prot.c **** *******************************************************************************/
2021:Generated_Source\PSoC6\pdl\drivers\peripheral\prot/cy_prot.c **** cy_en_prot_status_t Cy_Prot_EnablePpuFixedGrSlaveStruct(PERI_PPU_GR_Type* base)
2022:Generated_Source\PSoC6\pdl\drivers\peripheral\prot/cy_prot.c **** {   
2023:Generated_Source\PSoC6\pdl\drivers\peripheral\prot/cy_prot.c ****     cy_en_prot_status_t status = CY_PROT_INVALID_STATE;
2024:Generated_Source\PSoC6\pdl\drivers\peripheral\prot/cy_prot.c ****     
2025:Generated_Source\PSoC6\pdl\drivers\peripheral\prot/cy_prot.c ****     CY_ASSERT_L1(NULL != base);
2026:Generated_Source\PSoC6\pdl\drivers\peripheral\prot/cy_prot.c ****     
2027:Generated_Source\PSoC6\pdl\drivers\peripheral\prot/cy_prot.c ****     if (CY_PERI_V1)
2028:Generated_Source\PSoC6\pdl\drivers\peripheral\prot/cy_prot.c ****     {
2029:Generated_Source\PSoC6\pdl\drivers\peripheral\prot/cy_prot.c ****         PERI_PPU_GR_ATT0(base) |= _VAL2FLD(PERI_PPU_GR_ATT0_ENABLED, CY_PROT_STRUCT_ENABLE);
2030:Generated_Source\PSoC6\pdl\drivers\peripheral\prot/cy_prot.c ****         status = (_FLD2VAL(PERI_PPU_GR_ATT0_ENABLED, PERI_PPU_GR_ATT0(base)) != CY_PROT_STRUCT_ENAB
2031:Generated_Source\PSoC6\pdl\drivers\peripheral\prot/cy_prot.c ****                     CY_PROT_FAILURE : CY_PROT_SUCCESS;
2032:Generated_Source\PSoC6\pdl\drivers\peripheral\prot/cy_prot.c ****     }
2033:Generated_Source\PSoC6\pdl\drivers\peripheral\prot/cy_prot.c **** 
2034:Generated_Source\PSoC6\pdl\drivers\peripheral\prot/cy_prot.c ****     return status;
2035:Generated_Source\PSoC6\pdl\drivers\peripheral\prot/cy_prot.c **** }
2036:Generated_Source\PSoC6\pdl\drivers\peripheral\prot/cy_prot.c **** 
2037:Generated_Source\PSoC6\pdl\drivers\peripheral\prot/cy_prot.c **** 
2038:Generated_Source\PSoC6\pdl\drivers\peripheral\prot/cy_prot.c **** /*******************************************************************************
2039:Generated_Source\PSoC6\pdl\drivers\peripheral\prot/cy_prot.c **** * Function Name: Cy_Prot_DisablePpuFixedGrSlaveStruct
2040:Generated_Source\PSoC6\pdl\drivers\peripheral\prot/cy_prot.c **** ****************************************************************************//**
2041:Generated_Source\PSoC6\pdl\drivers\peripheral\prot/cy_prot.c **** *
2042:Generated_Source\PSoC6\pdl\drivers\peripheral\prot/cy_prot.c **** * Disables the Slave PPU GR structure.
2043:Generated_Source\PSoC6\pdl\drivers\peripheral\prot/cy_prot.c **** *
2044:Generated_Source\PSoC6\pdl\drivers\peripheral\prot/cy_prot.c **** * This is a PPU GR slave struct disable function. The PPU GR protection 
ARM GAS  C:\Users\Rolf\AppData\Local\Temp\ccTbcyL9.s 			page 41


2045:Generated_Source\PSoC6\pdl\drivers\peripheral\prot/cy_prot.c **** * settings will seize to take effect after successful completion of this 
2046:Generated_Source\PSoC6\pdl\drivers\peripheral\prot/cy_prot.c **** * function call.
2047:Generated_Source\PSoC6\pdl\drivers\peripheral\prot/cy_prot.c **** *
2048:Generated_Source\PSoC6\pdl\drivers\peripheral\prot/cy_prot.c **** * \note This function is applicable for CPUSS ver_1 only.
2049:Generated_Source\PSoC6\pdl\drivers\peripheral\prot/cy_prot.c **** *
2050:Generated_Source\PSoC6\pdl\drivers\peripheral\prot/cy_prot.c **** * \param base
2051:Generated_Source\PSoC6\pdl\drivers\peripheral\prot/cy_prot.c **** * The base address for the protection unit structure being configured. 
2052:Generated_Source\PSoC6\pdl\drivers\peripheral\prot/cy_prot.c **** *
2053:Generated_Source\PSoC6\pdl\drivers\peripheral\prot/cy_prot.c **** * \return
2054:Generated_Source\PSoC6\pdl\drivers\peripheral\prot/cy_prot.c **** * Status of the function call.
2055:Generated_Source\PSoC6\pdl\drivers\peripheral\prot/cy_prot.c **** *
2056:Generated_Source\PSoC6\pdl\drivers\peripheral\prot/cy_prot.c **** *   Status                | Description
2057:Generated_Source\PSoC6\pdl\drivers\peripheral\prot/cy_prot.c **** *   ------------          | -----------
2058:Generated_Source\PSoC6\pdl\drivers\peripheral\prot/cy_prot.c **** *   CY_PROT_SUCCESS       | The Slave PU struct was disabled.
2059:Generated_Source\PSoC6\pdl\drivers\peripheral\prot/cy_prot.c **** *   CY_PROT_FAILURE       | The Slave PU struct is enabled and possibly locked.
2060:Generated_Source\PSoC6\pdl\drivers\peripheral\prot/cy_prot.c **** *   CY_PROT_INVALID_STATE | The function was called on the device with an unsupported PERI HW versi
2061:Generated_Source\PSoC6\pdl\drivers\peripheral\prot/cy_prot.c **** *
2062:Generated_Source\PSoC6\pdl\drivers\peripheral\prot/cy_prot.c **** * \funcusage
2063:Generated_Source\PSoC6\pdl\drivers\peripheral\prot/cy_prot.c **** * \snippet prot/1.20/snippet/main.c snippet_Cy_Prot_DisablePpuFixedGrSlaveStruct
2064:Generated_Source\PSoC6\pdl\drivers\peripheral\prot/cy_prot.c **** *
2065:Generated_Source\PSoC6\pdl\drivers\peripheral\prot/cy_prot.c **** *******************************************************************************/
2066:Generated_Source\PSoC6\pdl\drivers\peripheral\prot/cy_prot.c **** cy_en_prot_status_t Cy_Prot_DisablePpuFixedGrSlaveStruct(PERI_PPU_GR_Type* base)
2067:Generated_Source\PSoC6\pdl\drivers\peripheral\prot/cy_prot.c **** {
2068:Generated_Source\PSoC6\pdl\drivers\peripheral\prot/cy_prot.c ****     cy_en_prot_status_t status = CY_PROT_INVALID_STATE;
2069:Generated_Source\PSoC6\pdl\drivers\peripheral\prot/cy_prot.c ****     
2070:Generated_Source\PSoC6\pdl\drivers\peripheral\prot/cy_prot.c ****     CY_ASSERT_L1(NULL != base);
2071:Generated_Source\PSoC6\pdl\drivers\peripheral\prot/cy_prot.c ****     
2072:Generated_Source\PSoC6\pdl\drivers\peripheral\prot/cy_prot.c ****     if (CY_PERI_V1)
2073:Generated_Source\PSoC6\pdl\drivers\peripheral\prot/cy_prot.c ****     {
2074:Generated_Source\PSoC6\pdl\drivers\peripheral\prot/cy_prot.c ****         PERI_PPU_GR_ATT0(base) &= ~_VAL2FLD(PERI_PPU_GR_ATT0_ENABLED, CY_PROT_STRUCT_ENABLE);
2075:Generated_Source\PSoC6\pdl\drivers\peripheral\prot/cy_prot.c ****         status = (_FLD2VAL(PERI_PPU_GR_ATT0_ENABLED, PERI_PPU_GR_ATT0(base)) == CY_PROT_STRUCT_ENAB
2076:Generated_Source\PSoC6\pdl\drivers\peripheral\prot/cy_prot.c ****                     CY_PROT_FAILURE : CY_PROT_SUCCESS;
2077:Generated_Source\PSoC6\pdl\drivers\peripheral\prot/cy_prot.c ****     }
2078:Generated_Source\PSoC6\pdl\drivers\peripheral\prot/cy_prot.c **** 
2079:Generated_Source\PSoC6\pdl\drivers\peripheral\prot/cy_prot.c ****     return status;
2080:Generated_Source\PSoC6\pdl\drivers\peripheral\prot/cy_prot.c **** }
2081:Generated_Source\PSoC6\pdl\drivers\peripheral\prot/cy_prot.c **** 
2082:Generated_Source\PSoC6\pdl\drivers\peripheral\prot/cy_prot.c **** 
2083:Generated_Source\PSoC6\pdl\drivers\peripheral\prot/cy_prot.c **** /*******************************************************************************
2084:Generated_Source\PSoC6\pdl\drivers\peripheral\prot/cy_prot.c **** * Function Name: Cy_Prot_ConfigPpuFixedSlMasterStruct
2085:Generated_Source\PSoC6\pdl\drivers\peripheral\prot/cy_prot.c **** ****************************************************************************//**
2086:Generated_Source\PSoC6\pdl\drivers\peripheral\prot/cy_prot.c **** *
2087:Generated_Source\PSoC6\pdl\drivers\peripheral\prot/cy_prot.c **** * Configures a Fixed Peripheral Slave Protection Unit (PPU SL) master 
2088:Generated_Source\PSoC6\pdl\drivers\peripheral\prot/cy_prot.c **** * protection struct with its protection attributes. 
2089:Generated_Source\PSoC6\pdl\drivers\peripheral\prot/cy_prot.c **** *
2090:Generated_Source\PSoC6\pdl\drivers\peripheral\prot/cy_prot.c **** * This function configures the master struct governing the corresponding slave
2091:Generated_Source\PSoC6\pdl\drivers\peripheral\prot/cy_prot.c **** * struct pair. It is a mechanism to protect the slave PPU SL struct. Since
2092:Generated_Source\PSoC6\pdl\drivers\peripheral\prot/cy_prot.c **** * the memory location of the slave struct is known, the address, regionSize and
2093:Generated_Source\PSoC6\pdl\drivers\peripheral\prot/cy_prot.c **** * subregions of the configuration struct are not applicable.
2094:Generated_Source\PSoC6\pdl\drivers\peripheral\prot/cy_prot.c **** *
2095:Generated_Source\PSoC6\pdl\drivers\peripheral\prot/cy_prot.c **** * Note that only the user/privileged write permissions are configurable. The 
2096:Generated_Source\PSoC6\pdl\drivers\peripheral\prot/cy_prot.c **** * read and execute permissions are read-only and cannot be configured.
2097:Generated_Source\PSoC6\pdl\drivers\peripheral\prot/cy_prot.c **** *
2098:Generated_Source\PSoC6\pdl\drivers\peripheral\prot/cy_prot.c **** * \note This function is applicable for CPUSS ver_1 only.
2099:Generated_Source\PSoC6\pdl\drivers\peripheral\prot/cy_prot.c **** *
2100:Generated_Source\PSoC6\pdl\drivers\peripheral\prot/cy_prot.c **** * \param base
2101:Generated_Source\PSoC6\pdl\drivers\peripheral\prot/cy_prot.c **** * The register base address of the protection struct being configured.
ARM GAS  C:\Users\Rolf\AppData\Local\Temp\ccTbcyL9.s 			page 42


2102:Generated_Source\PSoC6\pdl\drivers\peripheral\prot/cy_prot.c **** * 
2103:Generated_Source\PSoC6\pdl\drivers\peripheral\prot/cy_prot.c **** * \param config
2104:Generated_Source\PSoC6\pdl\drivers\peripheral\prot/cy_prot.c **** * Initialization structure with all the protection attributes.
2105:Generated_Source\PSoC6\pdl\drivers\peripheral\prot/cy_prot.c **** * 
2106:Generated_Source\PSoC6\pdl\drivers\peripheral\prot/cy_prot.c **** * \return
2107:Generated_Source\PSoC6\pdl\drivers\peripheral\prot/cy_prot.c **** * Status of the function call.
2108:Generated_Source\PSoC6\pdl\drivers\peripheral\prot/cy_prot.c **** *
2109:Generated_Source\PSoC6\pdl\drivers\peripheral\prot/cy_prot.c **** *   Status                | Description
2110:Generated_Source\PSoC6\pdl\drivers\peripheral\prot/cy_prot.c **** *   ------------          | -----------
2111:Generated_Source\PSoC6\pdl\drivers\peripheral\prot/cy_prot.c **** *   CY_PROT_SUCCESS       | PPU SL master struct was successfully configured.
2112:Generated_Source\PSoC6\pdl\drivers\peripheral\prot/cy_prot.c **** *   CY_PROT_FAILURE       | The resource is locked.
2113:Generated_Source\PSoC6\pdl\drivers\peripheral\prot/cy_prot.c **** *   CY_PROT_BAD_PARAM     | An incorrect/invalid parameter was passed.
2114:Generated_Source\PSoC6\pdl\drivers\peripheral\prot/cy_prot.c **** *   CY_PROT_INVALID_STATE | The function was called on the device with an unsupported PERI HW versi
2115:Generated_Source\PSoC6\pdl\drivers\peripheral\prot/cy_prot.c **** *
2116:Generated_Source\PSoC6\pdl\drivers\peripheral\prot/cy_prot.c **** * \funcusage
2117:Generated_Source\PSoC6\pdl\drivers\peripheral\prot/cy_prot.c **** * \snippet prot/1.20/snippet/main.c snippet_Cy_Prot_ConfigPpuFixedSlMasterStruct
2118:Generated_Source\PSoC6\pdl\drivers\peripheral\prot/cy_prot.c **** *
2119:Generated_Source\PSoC6\pdl\drivers\peripheral\prot/cy_prot.c **** *******************************************************************************/
2120:Generated_Source\PSoC6\pdl\drivers\peripheral\prot/cy_prot.c **** cy_en_prot_status_t Cy_Prot_ConfigPpuFixedSlMasterStruct(PERI_GR_PPU_SL_Type* base, const cy_stc_pp
2121:Generated_Source\PSoC6\pdl\drivers\peripheral\prot/cy_prot.c **** {
2122:Generated_Source\PSoC6\pdl\drivers\peripheral\prot/cy_prot.c ****     cy_en_prot_status_t status = CY_PROT_INVALID_STATE;
2123:Generated_Source\PSoC6\pdl\drivers\peripheral\prot/cy_prot.c ****     uint32_t attReg;
2124:Generated_Source\PSoC6\pdl\drivers\peripheral\prot/cy_prot.c ****     
2125:Generated_Source\PSoC6\pdl\drivers\peripheral\prot/cy_prot.c ****     CY_ASSERT_L1(NULL != base);
2126:Generated_Source\PSoC6\pdl\drivers\peripheral\prot/cy_prot.c ****     CY_ASSERT_L3(CY_PROT_IS_FIXED_MS_PERM_VALID(config->userPermission));
2127:Generated_Source\PSoC6\pdl\drivers\peripheral\prot/cy_prot.c ****     CY_ASSERT_L3(CY_PROT_IS_FIXED_MS_PERM_VALID(config->privPermission));
2128:Generated_Source\PSoC6\pdl\drivers\peripheral\prot/cy_prot.c ****     
2129:Generated_Source\PSoC6\pdl\drivers\peripheral\prot/cy_prot.c ****     if (CY_PERI_V1)
2130:Generated_Source\PSoC6\pdl\drivers\peripheral\prot/cy_prot.c ****     {
2131:Generated_Source\PSoC6\pdl\drivers\peripheral\prot/cy_prot.c ****         if(((uint32_t)config->pcMask & CY_PROT_PPU_FIXED_PC_LIMIT_MASK) != 0UL) 
2132:Generated_Source\PSoC6\pdl\drivers\peripheral\prot/cy_prot.c ****         {
2133:Generated_Source\PSoC6\pdl\drivers\peripheral\prot/cy_prot.c ****             /* PC mask out of range - not supported in device */
2134:Generated_Source\PSoC6\pdl\drivers\peripheral\prot/cy_prot.c ****             status = CY_PROT_BAD_PARAM;
2135:Generated_Source\PSoC6\pdl\drivers\peripheral\prot/cy_prot.c ****         }
2136:Generated_Source\PSoC6\pdl\drivers\peripheral\prot/cy_prot.c ****         else
2137:Generated_Source\PSoC6\pdl\drivers\peripheral\prot/cy_prot.c ****         {
2138:Generated_Source\PSoC6\pdl\drivers\peripheral\prot/cy_prot.c ****             /* ADDR1 is read only. Only configure ATT1 */
2139:Generated_Source\PSoC6\pdl\drivers\peripheral\prot/cy_prot.c ****             attReg = ((uint32_t)config->userPermission & CY_PROT_ATT_PERMISSION_MASK)
2140:Generated_Source\PSoC6\pdl\drivers\peripheral\prot/cy_prot.c ****                         | (uint32_t)(((uint32_t)config->privPermission & CY_PROT_ATT_PERMISSION_MAS
2141:Generated_Source\PSoC6\pdl\drivers\peripheral\prot/cy_prot.c ****                         | _VAL2FLD(PERI_GR_PPU_SL_ATT1_NS, !(config->secure))
2142:Generated_Source\PSoC6\pdl\drivers\peripheral\prot/cy_prot.c ****                         | _VAL2FLD(PERI_GR_PPU_SL_ATT1_PC_MASK_15_TO_1, config->pcMask)
