ARM GAS  C:\Users\Rolf\AppData\Local\Temp\ccTwK7ru.s 			page 1


   1              		.syntax unified
   2              		.cpu cortex-m0plus
   3              		.fpu softvfp
   4              		.eabi_attribute 20, 1
   5              		.eabi_attribute 21, 1
   6              		.eabi_attribute 23, 3
   7              		.eabi_attribute 24, 1
   8              		.eabi_attribute 25, 1
   9              		.eabi_attribute 26, 1
  10              		.eabi_attribute 30, 1
  11              		.eabi_attribute 34, 0
  12              		.eabi_attribute 18, 4
  13              		.thumb
  14              		.syntax unified
  15              		.file	"cy_syslib.c"
  16              		.text
  17              	.Ltext0:
  18              		.cfi_sections	.debug_frame
  19              		.section	.text.Cy_SysLib_Delay,"ax",%progbits
  20              		.align	2
  21              		.global	Cy_SysLib_Delay
  22              		.code	16
  23              		.thumb_func
  24              		.type	Cy_SysLib_Delay, %function
  25              	Cy_SysLib_Delay:
  26              	.LFB64:
  27              		.file 1 "Generated_Source\\PSoC6\\pdl\\drivers\\peripheral\\syslib\\cy_syslib.c"
   1:Generated_Source\PSoC6\pdl\drivers\peripheral\syslib/cy_syslib.c **** /***************************************************************************//**
   2:Generated_Source\PSoC6\pdl\drivers\peripheral\syslib/cy_syslib.c **** * \file cy_syslib.c
   3:Generated_Source\PSoC6\pdl\drivers\peripheral\syslib/cy_syslib.c **** * \version 2.10
   4:Generated_Source\PSoC6\pdl\drivers\peripheral\syslib/cy_syslib.c **** *
   5:Generated_Source\PSoC6\pdl\drivers\peripheral\syslib/cy_syslib.c **** *  Description:
   6:Generated_Source\PSoC6\pdl\drivers\peripheral\syslib/cy_syslib.c **** *   Provides system API implementation for the SysLib driver.
   7:Generated_Source\PSoC6\pdl\drivers\peripheral\syslib/cy_syslib.c **** *
   8:Generated_Source\PSoC6\pdl\drivers\peripheral\syslib/cy_syslib.c **** ********************************************************************************
   9:Generated_Source\PSoC6\pdl\drivers\peripheral\syslib/cy_syslib.c **** * Copyright 2016-2018, Cypress Semiconductor Corporation. All rights reserved.
  10:Generated_Source\PSoC6\pdl\drivers\peripheral\syslib/cy_syslib.c **** * You may use this file only in accordance with the license, terms, conditions,
  11:Generated_Source\PSoC6\pdl\drivers\peripheral\syslib/cy_syslib.c **** * disclaimers, and limitations in the end user license agreement accompanying
  12:Generated_Source\PSoC6\pdl\drivers\peripheral\syslib/cy_syslib.c **** * the software package with which this file was provided.
  13:Generated_Source\PSoC6\pdl\drivers\peripheral\syslib/cy_syslib.c **** *******************************************************************************/
  14:Generated_Source\PSoC6\pdl\drivers\peripheral\syslib/cy_syslib.c **** 
  15:Generated_Source\PSoC6\pdl\drivers\peripheral\syslib/cy_syslib.c **** #include "cy_syslib.h"
  16:Generated_Source\PSoC6\pdl\drivers\peripheral\syslib/cy_syslib.c **** #include "cy_ipc_drv.h"
  17:Generated_Source\PSoC6\pdl\drivers\peripheral\syslib/cy_syslib.c **** #if !defined(NDEBUG)
  18:Generated_Source\PSoC6\pdl\drivers\peripheral\syslib/cy_syslib.c ****     #include <string.h>
  19:Generated_Source\PSoC6\pdl\drivers\peripheral\syslib/cy_syslib.c **** #endif /* NDEBUG */
  20:Generated_Source\PSoC6\pdl\drivers\peripheral\syslib/cy_syslib.c **** 
  21:Generated_Source\PSoC6\pdl\drivers\peripheral\syslib/cy_syslib.c **** /* Flash wait states (ULP mode at 0.9v) */
  22:Generated_Source\PSoC6\pdl\drivers\peripheral\syslib/cy_syslib.c **** #define CY_SYSLIB_FLASH_ULP_WS_0_FREQ_MAX    ( 16UL)
  23:Generated_Source\PSoC6\pdl\drivers\peripheral\syslib/cy_syslib.c **** #define CY_SYSLIB_FLASH_ULP_WS_1_FREQ_MAX    ( 33UL)
  24:Generated_Source\PSoC6\pdl\drivers\peripheral\syslib/cy_syslib.c **** #define CY_SYSLIB_FLASH_ULP_WS_2_FREQ_MAX    ( 50UL)
  25:Generated_Source\PSoC6\pdl\drivers\peripheral\syslib/cy_syslib.c **** 
  26:Generated_Source\PSoC6\pdl\drivers\peripheral\syslib/cy_syslib.c **** /* ROM and SRAM wait states for the slow clock domain (LP mode at 1.1v) */
  27:Generated_Source\PSoC6\pdl\drivers\peripheral\syslib/cy_syslib.c **** #define CY_SYSLIB_LP_SLOW_WS_0_FREQ_MAX      (100UL)
  28:Generated_Source\PSoC6\pdl\drivers\peripheral\syslib/cy_syslib.c **** #define CY_SYSLIB_LP_SLOW_WS_1_FREQ_MAX      (120UL)
  29:Generated_Source\PSoC6\pdl\drivers\peripheral\syslib/cy_syslib.c **** 
  30:Generated_Source\PSoC6\pdl\drivers\peripheral\syslib/cy_syslib.c **** /* ROM and SRAM wait states for the slow clock domain (ULP mode at 0.9v) */
ARM GAS  C:\Users\Rolf\AppData\Local\Temp\ccTwK7ru.s 			page 2


  31:Generated_Source\PSoC6\pdl\drivers\peripheral\syslib/cy_syslib.c **** #define CY_SYSLIB_ULP_SLOW_WS_0_FREQ_MAX     ( 25UL)
  32:Generated_Source\PSoC6\pdl\drivers\peripheral\syslib/cy_syslib.c **** #define CY_SYSLIB_ULP_SLOW_WS_1_FREQ_MAX     ( 50UL)
  33:Generated_Source\PSoC6\pdl\drivers\peripheral\syslib/cy_syslib.c **** 
  34:Generated_Source\PSoC6\pdl\drivers\peripheral\syslib/cy_syslib.c **** 
  35:Generated_Source\PSoC6\pdl\drivers\peripheral\syslib/cy_syslib.c **** #if !defined(NDEBUG)
  36:Generated_Source\PSoC6\pdl\drivers\peripheral\syslib/cy_syslib.c ****     CY_NOINIT char_t cy_assertFileName[CY_MAX_FILE_NAME_SIZE];
  37:Generated_Source\PSoC6\pdl\drivers\peripheral\syslib/cy_syslib.c ****     CY_NOINIT uint32_t cy_assertLine;
  38:Generated_Source\PSoC6\pdl\drivers\peripheral\syslib/cy_syslib.c **** #endif /* NDEBUG */
  39:Generated_Source\PSoC6\pdl\drivers\peripheral\syslib/cy_syslib.c **** 
  40:Generated_Source\PSoC6\pdl\drivers\peripheral\syslib/cy_syslib.c **** #if (CY_ARM_FAULT_DEBUG == CY_ARM_FAULT_DEBUG_ENABLED)
  41:Generated_Source\PSoC6\pdl\drivers\peripheral\syslib/cy_syslib.c ****     CY_NOINIT cy_stc_fault_frame_t cy_faultFrame;
  42:Generated_Source\PSoC6\pdl\drivers\peripheral\syslib/cy_syslib.c **** #endif /* (CY_ARM_FAULT_DEBUG == CY_ARM_FAULT_DEBUG_ENABLED) */
  43:Generated_Source\PSoC6\pdl\drivers\peripheral\syslib/cy_syslib.c **** 
  44:Generated_Source\PSoC6\pdl\drivers\peripheral\syslib/cy_syslib.c **** #if defined(__ARMCC_VERSION)
  45:Generated_Source\PSoC6\pdl\drivers\peripheral\syslib/cy_syslib.c ****     static __ASM void Cy_SysLib_AsmInfiniteLoop(void) { b . };
  46:Generated_Source\PSoC6\pdl\drivers\peripheral\syslib/cy_syslib.c **** #endif  /* (__ARMCC_VERSION) */
  47:Generated_Source\PSoC6\pdl\drivers\peripheral\syslib/cy_syslib.c **** 
  48:Generated_Source\PSoC6\pdl\drivers\peripheral\syslib/cy_syslib.c **** 
  49:Generated_Source\PSoC6\pdl\drivers\peripheral\syslib/cy_syslib.c **** /*******************************************************************************
  50:Generated_Source\PSoC6\pdl\drivers\peripheral\syslib/cy_syslib.c **** * Function Name: Cy_SysLib_Delay
  51:Generated_Source\PSoC6\pdl\drivers\peripheral\syslib/cy_syslib.c **** ****************************************************************************//**
  52:Generated_Source\PSoC6\pdl\drivers\peripheral\syslib/cy_syslib.c **** *
  53:Generated_Source\PSoC6\pdl\drivers\peripheral\syslib/cy_syslib.c **** * The function delays by the specified number of milliseconds.
  54:Generated_Source\PSoC6\pdl\drivers\peripheral\syslib/cy_syslib.c **** * By default, the number of cycles to delay is calculated based on the
  55:Generated_Source\PSoC6\pdl\drivers\peripheral\syslib/cy_syslib.c **** * \ref SystemCoreClock.
  56:Generated_Source\PSoC6\pdl\drivers\peripheral\syslib/cy_syslib.c **** *
  57:Generated_Source\PSoC6\pdl\drivers\peripheral\syslib/cy_syslib.c **** * \param milliseconds  The number of milliseconds to delay.
  58:Generated_Source\PSoC6\pdl\drivers\peripheral\syslib/cy_syslib.c **** *
  59:Generated_Source\PSoC6\pdl\drivers\peripheral\syslib/cy_syslib.c **** * \note The function calls \ref Cy_SysLib_DelayCycles() API to generate a delay.
  60:Generated_Source\PSoC6\pdl\drivers\peripheral\syslib/cy_syslib.c **** *       If the function parameter (milliseconds) is bigger than 
  61:Generated_Source\PSoC6\pdl\drivers\peripheral\syslib/cy_syslib.c **** *       CY_DELAY_MS_OVERFLOW constant, then an additional loop runs to prevent
  62:Generated_Source\PSoC6\pdl\drivers\peripheral\syslib/cy_syslib.c **** *       an overflow in parameter passed to \ref Cy_SysLib_DelayCycles() API.
  63:Generated_Source\PSoC6\pdl\drivers\peripheral\syslib/cy_syslib.c **** *
  64:Generated_Source\PSoC6\pdl\drivers\peripheral\syslib/cy_syslib.c **** *******************************************************************************/
  65:Generated_Source\PSoC6\pdl\drivers\peripheral\syslib/cy_syslib.c **** void Cy_SysLib_Delay(uint32_t milliseconds)
  66:Generated_Source\PSoC6\pdl\drivers\peripheral\syslib/cy_syslib.c **** {
  28              		.loc 1 66 0
  29              		.cfi_startproc
  30              		@ args = 0, pretend = 0, frame = 0
  31              		@ frame_needed = 0, uses_anonymous_args = 0
  32              	.LVL0:
  33 0000 10B5     		push	{r4, lr}
  34              		.cfi_def_cfa_offset 8
  35              		.cfi_offset 4, -8
  36              		.cfi_offset 14, -4
  37 0002 0400     		movs	r4, r0
  67:Generated_Source\PSoC6\pdl\drivers\peripheral\syslib/cy_syslib.c ****     while(milliseconds > CY_DELAY_MS_OVERFLOW)
  38              		.loc 1 67 0
  39 0004 06E0     		b	.L2
  40              	.LVL1:
  41              	.L3:
  68:Generated_Source\PSoC6\pdl\drivers\peripheral\syslib/cy_syslib.c ****     {
  69:Generated_Source\PSoC6\pdl\drivers\peripheral\syslib/cy_syslib.c ****         /* This loop prevents an overflow in value passed to Cy_SysLib_DelayCycles() API.
  70:Generated_Source\PSoC6\pdl\drivers\peripheral\syslib/cy_syslib.c ****          * At 100 MHz, (milliseconds * cy_delayFreqKhz) product overflows
  71:Generated_Source\PSoC6\pdl\drivers\peripheral\syslib/cy_syslib.c ****          * in case if milliseconds parameter is more than 42 seconds.
  72:Generated_Source\PSoC6\pdl\drivers\peripheral\syslib/cy_syslib.c ****          */
  73:Generated_Source\PSoC6\pdl\drivers\peripheral\syslib/cy_syslib.c ****         Cy_SysLib_DelayCycles(cy_delay32kMs);
ARM GAS  C:\Users\Rolf\AppData\Local\Temp\ccTwK7ru.s 			page 3


  42              		.loc 1 73 0
  43 0006 084B     		ldr	r3, .L4
  44 0008 1868     		ldr	r0, [r3]
  45 000a FFF7FEFF 		bl	Cy_SysLib_DelayCycles
  46              	.LVL2:
  74:Generated_Source\PSoC6\pdl\drivers\peripheral\syslib/cy_syslib.c ****         milliseconds -= CY_DELAY_MS_OVERFLOW;
  47              		.loc 1 74 0
  48 000e 074B     		ldr	r3, .L4+4
  49 0010 9C46     		mov	ip, r3
  50 0012 6444     		add	r4, r4, ip
  51              	.LVL3:
  52              	.L2:
  67:Generated_Source\PSoC6\pdl\drivers\peripheral\syslib/cy_syslib.c ****     while(milliseconds > CY_DELAY_MS_OVERFLOW)
  53              		.loc 1 67 0
  54 0014 8023     		movs	r3, #128
  55 0016 1B02     		lsls	r3, r3, #8
  56 0018 9C42     		cmp	r4, r3
  57 001a F4D8     		bhi	.L3
  75:Generated_Source\PSoC6\pdl\drivers\peripheral\syslib/cy_syslib.c ****     }
  76:Generated_Source\PSoC6\pdl\drivers\peripheral\syslib/cy_syslib.c **** 
  77:Generated_Source\PSoC6\pdl\drivers\peripheral\syslib/cy_syslib.c ****     Cy_SysLib_DelayCycles(milliseconds * cy_delayFreqKhz);
  58              		.loc 1 77 0
  59 001c 044B     		ldr	r3, .L4+8
  60 001e 1868     		ldr	r0, [r3]
  61 0020 6043     		muls	r0, r4
  62 0022 FFF7FEFF 		bl	Cy_SysLib_DelayCycles
  63              	.LVL4:
  78:Generated_Source\PSoC6\pdl\drivers\peripheral\syslib/cy_syslib.c **** }
  64              		.loc 1 78 0
  65              		@ sp needed
  66              	.LVL5:
  67 0026 10BD     		pop	{r4, pc}
  68              	.L5:
  69              		.align	2
  70              	.L4:
  71 0028 00000000 		.word	cy_delay32kMs
  72 002c 0080FFFF 		.word	-32768
  73 0030 00000000 		.word	cy_delayFreqKhz
  74              		.cfi_endproc
  75              	.LFE64:
  76              		.size	Cy_SysLib_Delay, .-Cy_SysLib_Delay
  77              		.section	.text.Cy_SysLib_DelayUs,"ax",%progbits
  78              		.align	2
  79              		.global	Cy_SysLib_DelayUs
  80              		.code	16
  81              		.thumb_func
  82              		.type	Cy_SysLib_DelayUs, %function
  83              	Cy_SysLib_DelayUs:
  84              	.LFB65:
  79:Generated_Source\PSoC6\pdl\drivers\peripheral\syslib/cy_syslib.c **** 
  80:Generated_Source\PSoC6\pdl\drivers\peripheral\syslib/cy_syslib.c **** 
  81:Generated_Source\PSoC6\pdl\drivers\peripheral\syslib/cy_syslib.c **** /*******************************************************************************
  82:Generated_Source\PSoC6\pdl\drivers\peripheral\syslib/cy_syslib.c **** * Function Name: Cy_SysLib_DelayUs
  83:Generated_Source\PSoC6\pdl\drivers\peripheral\syslib/cy_syslib.c **** ****************************************************************************//**
  84:Generated_Source\PSoC6\pdl\drivers\peripheral\syslib/cy_syslib.c **** *
  85:Generated_Source\PSoC6\pdl\drivers\peripheral\syslib/cy_syslib.c **** * The function delays by the specified number of microseconds.
  86:Generated_Source\PSoC6\pdl\drivers\peripheral\syslib/cy_syslib.c **** * By default, the number of cycles to delay is calculated based on the
ARM GAS  C:\Users\Rolf\AppData\Local\Temp\ccTwK7ru.s 			page 4


  87:Generated_Source\PSoC6\pdl\drivers\peripheral\syslib/cy_syslib.c **** * \ref SystemCoreClock.
  88:Generated_Source\PSoC6\pdl\drivers\peripheral\syslib/cy_syslib.c **** *
  89:Generated_Source\PSoC6\pdl\drivers\peripheral\syslib/cy_syslib.c **** * \param microseconds  The number of microseconds to delay.
  90:Generated_Source\PSoC6\pdl\drivers\peripheral\syslib/cy_syslib.c **** *
  91:Generated_Source\PSoC6\pdl\drivers\peripheral\syslib/cy_syslib.c **** * \note If the CPU frequency is a small non-integer number, the actual delay
  92:Generated_Source\PSoC6\pdl\drivers\peripheral\syslib/cy_syslib.c **** *       can be up to twice as long as the nominal value. The actual delay
  93:Generated_Source\PSoC6\pdl\drivers\peripheral\syslib/cy_syslib.c **** *       cannot be shorter than the nominal one.
  94:Generated_Source\PSoC6\pdl\drivers\peripheral\syslib/cy_syslib.c **** *
  95:Generated_Source\PSoC6\pdl\drivers\peripheral\syslib/cy_syslib.c **** *******************************************************************************/
  96:Generated_Source\PSoC6\pdl\drivers\peripheral\syslib/cy_syslib.c **** void Cy_SysLib_DelayUs(uint16_t microseconds)
  97:Generated_Source\PSoC6\pdl\drivers\peripheral\syslib/cy_syslib.c **** {
  85              		.loc 1 97 0
  86              		.cfi_startproc
  87              		@ args = 0, pretend = 0, frame = 0
  88              		@ frame_needed = 0, uses_anonymous_args = 0
  89              	.LVL6:
  90 0000 10B5     		push	{r4, lr}
  91              		.cfi_def_cfa_offset 8
  92              		.cfi_offset 4, -8
  93              		.cfi_offset 14, -4
  98:Generated_Source\PSoC6\pdl\drivers\peripheral\syslib/cy_syslib.c ****     Cy_SysLib_DelayCycles((uint32_t) microseconds * cy_delayFreqMhz);
  94              		.loc 1 98 0
  95 0002 034B     		ldr	r3, .L7
  96 0004 1B78     		ldrb	r3, [r3]
  97 0006 5843     		muls	r0, r3
  98              	.LVL7:
  99 0008 FFF7FEFF 		bl	Cy_SysLib_DelayCycles
 100              	.LVL8:
  99:Generated_Source\PSoC6\pdl\drivers\peripheral\syslib/cy_syslib.c **** }
 101              		.loc 1 99 0
 102              		@ sp needed
 103 000c 10BD     		pop	{r4, pc}
 104              	.L8:
 105 000e C046     		.align	2
 106              	.L7:
 107 0010 00000000 		.word	cy_delayFreqMhz
 108              		.cfi_endproc
 109              	.LFE65:
 110              		.size	Cy_SysLib_DelayUs, .-Cy_SysLib_DelayUs
 111              		.section	.text.Cy_SysLib_Halt,"ax",%progbits
 112              		.align	2
 113              		.global	Cy_SysLib_Halt
 114              		.code	16
 115              		.thumb_func
 116              		.type	Cy_SysLib_Halt, %function
 117              	Cy_SysLib_Halt:
 118              	.LFB66:
 100:Generated_Source\PSoC6\pdl\drivers\peripheral\syslib/cy_syslib.c **** 
 101:Generated_Source\PSoC6\pdl\drivers\peripheral\syslib/cy_syslib.c **** 
 102:Generated_Source\PSoC6\pdl\drivers\peripheral\syslib/cy_syslib.c **** /*******************************************************************************
 103:Generated_Source\PSoC6\pdl\drivers\peripheral\syslib/cy_syslib.c **** * Function Name: Cy_SysLib_Halt
 104:Generated_Source\PSoC6\pdl\drivers\peripheral\syslib/cy_syslib.c **** ****************************************************************************//**
 105:Generated_Source\PSoC6\pdl\drivers\peripheral\syslib/cy_syslib.c **** *
 106:Generated_Source\PSoC6\pdl\drivers\peripheral\syslib/cy_syslib.c **** * This function halts the CPU but only the CPU which calls the function.
 107:Generated_Source\PSoC6\pdl\drivers\peripheral\syslib/cy_syslib.c **** * It doesn't affect other CPUs.
 108:Generated_Source\PSoC6\pdl\drivers\peripheral\syslib/cy_syslib.c **** *
 109:Generated_Source\PSoC6\pdl\drivers\peripheral\syslib/cy_syslib.c **** * \param reason  The value to be used during debugging.
ARM GAS  C:\Users\Rolf\AppData\Local\Temp\ccTwK7ru.s 			page 5


 110:Generated_Source\PSoC6\pdl\drivers\peripheral\syslib/cy_syslib.c **** *
 111:Generated_Source\PSoC6\pdl\drivers\peripheral\syslib/cy_syslib.c **** * \note The function executes the BKPT instruction for halting CPU and is
 112:Generated_Source\PSoC6\pdl\drivers\peripheral\syslib/cy_syslib.c **** *       intended to be used for the debug purpose. A regular use case requires
 113:Generated_Source\PSoC6\pdl\drivers\peripheral\syslib/cy_syslib.c **** *       Debugger attachment before the function call.
 114:Generated_Source\PSoC6\pdl\drivers\peripheral\syslib/cy_syslib.c **** *       The BKPT instruction causes the CPU to enter the Debug state. Debug
 115:Generated_Source\PSoC6\pdl\drivers\peripheral\syslib/cy_syslib.c **** *       tools can use this to investigate the system state, when the
 116:Generated_Source\PSoC6\pdl\drivers\peripheral\syslib/cy_syslib.c **** *       instruction at a particular address is reached.
 117:Generated_Source\PSoC6\pdl\drivers\peripheral\syslib/cy_syslib.c **** *
 118:Generated_Source\PSoC6\pdl\drivers\peripheral\syslib/cy_syslib.c **** * \note Execution of a BKPT instruction without a debugger attached produces
 119:Generated_Source\PSoC6\pdl\drivers\peripheral\syslib/cy_syslib.c **** *       a fault. The fault results in the HardFault exception being taken
 120:Generated_Source\PSoC6\pdl\drivers\peripheral\syslib/cy_syslib.c **** *       or causes a Lockup state if it occurs in the NMI or HardFault handler.
 121:Generated_Source\PSoC6\pdl\drivers\peripheral\syslib/cy_syslib.c **** *       The default HardFault handler make a software reset if the build option
 122:Generated_Source\PSoC6\pdl\drivers\peripheral\syslib/cy_syslib.c **** *       is the release mode (NDEBUG). If the build option is the debug mode,
 123:Generated_Source\PSoC6\pdl\drivers\peripheral\syslib/cy_syslib.c **** *       the system will stay in the infinite loop of the
 124:Generated_Source\PSoC6\pdl\drivers\peripheral\syslib/cy_syslib.c **** *       \ref Cy_SysLib_ProcessingFault() function.
 125:Generated_Source\PSoC6\pdl\drivers\peripheral\syslib/cy_syslib.c **** *
 126:Generated_Source\PSoC6\pdl\drivers\peripheral\syslib/cy_syslib.c **** *******************************************************************************/
 127:Generated_Source\PSoC6\pdl\drivers\peripheral\syslib/cy_syslib.c **** __NO_RETURN void Cy_SysLib_Halt(uint32_t reason)
 128:Generated_Source\PSoC6\pdl\drivers\peripheral\syslib/cy_syslib.c **** {
 119              		.loc 1 128 0
 120              		.cfi_startproc
 121              		@ Volatile: function does not return.
 122              		@ args = 0, pretend = 0, frame = 0
 123              		@ frame_needed = 0, uses_anonymous_args = 0
 124              		@ link register save eliminated.
 125              	.LVL9:
 129:Generated_Source\PSoC6\pdl\drivers\peripheral\syslib/cy_syslib.c ****     if(0U != reason)
 130:Generated_Source\PSoC6\pdl\drivers\peripheral\syslib/cy_syslib.c ****     {
 131:Generated_Source\PSoC6\pdl\drivers\peripheral\syslib/cy_syslib.c ****         /* To remove an unreferenced local variable warning */
 132:Generated_Source\PSoC6\pdl\drivers\peripheral\syslib/cy_syslib.c ****     }
 133:Generated_Source\PSoC6\pdl\drivers\peripheral\syslib/cy_syslib.c **** 
 134:Generated_Source\PSoC6\pdl\drivers\peripheral\syslib/cy_syslib.c ****     #if defined (__ARMCC_VERSION)
 135:Generated_Source\PSoC6\pdl\drivers\peripheral\syslib/cy_syslib.c ****         __breakpoint(0x0);
 136:Generated_Source\PSoC6\pdl\drivers\peripheral\syslib/cy_syslib.c ****     #elif defined(__GNUC__)
 137:Generated_Source\PSoC6\pdl\drivers\peripheral\syslib/cy_syslib.c ****         __asm("    bkpt    1");
 126              		.loc 1 137 0
 127              		.syntax divided
 128              	@ 137 "Generated_Source\PSoC6\pdl\drivers\peripheral\syslib\cy_syslib.c" 1
 129 0000 01BE     		    bkpt    1
 130              	@ 0 "" 2
 131              		.thumb
 132              		.syntax unified
 133              	.L10:
 134 0002 FEE7     		b	.L10
 135              		.cfi_endproc
 136              	.LFE66:
 137              		.size	Cy_SysLib_Halt, .-Cy_SysLib_Halt
 138              		.section	.text.Cy_SysLib_AssertFailed,"ax",%progbits
 139              		.align	2
 140              		.weak	Cy_SysLib_AssertFailed
 141              		.code	16
 142              		.thumb_func
 143              		.type	Cy_SysLib_AssertFailed, %function
 144              	Cy_SysLib_AssertFailed:
 145              	.LFB67:
 138:Generated_Source\PSoC6\pdl\drivers\peripheral\syslib/cy_syslib.c ****     #elif defined (__ICCARM__)
 139:Generated_Source\PSoC6\pdl\drivers\peripheral\syslib/cy_syslib.c ****         __asm("    bkpt    1");
ARM GAS  C:\Users\Rolf\AppData\Local\Temp\ccTwK7ru.s 			page 6


 140:Generated_Source\PSoC6\pdl\drivers\peripheral\syslib/cy_syslib.c ****     #else
 141:Generated_Source\PSoC6\pdl\drivers\peripheral\syslib/cy_syslib.c ****         #error "An unsupported toolchain"
 142:Generated_Source\PSoC6\pdl\drivers\peripheral\syslib/cy_syslib.c ****     #endif  /* (__ARMCC_VERSION) */
 143:Generated_Source\PSoC6\pdl\drivers\peripheral\syslib/cy_syslib.c **** 
 144:Generated_Source\PSoC6\pdl\drivers\peripheral\syslib/cy_syslib.c ****     while(1) {}
 145:Generated_Source\PSoC6\pdl\drivers\peripheral\syslib/cy_syslib.c **** }
 146:Generated_Source\PSoC6\pdl\drivers\peripheral\syslib/cy_syslib.c **** 
 147:Generated_Source\PSoC6\pdl\drivers\peripheral\syslib/cy_syslib.c **** 
 148:Generated_Source\PSoC6\pdl\drivers\peripheral\syslib/cy_syslib.c **** #if !defined(NDEBUG) || defined(CY_DOXYGEN)
 149:Generated_Source\PSoC6\pdl\drivers\peripheral\syslib/cy_syslib.c **** /*******************************************************************************
 150:Generated_Source\PSoC6\pdl\drivers\peripheral\syslib/cy_syslib.c **** * Macro Name: Cy_SysLib_AssertFailed
 151:Generated_Source\PSoC6\pdl\drivers\peripheral\syslib/cy_syslib.c **** ****************************************************************************//**
 152:Generated_Source\PSoC6\pdl\drivers\peripheral\syslib/cy_syslib.c **** *
 153:Generated_Source\PSoC6\pdl\drivers\peripheral\syslib/cy_syslib.c **** * This function stores the ASSERT location of the file name (including path
 154:Generated_Source\PSoC6\pdl\drivers\peripheral\syslib/cy_syslib.c **** * to file) and line number in a non-zero init area for debugging. Also it calls
 155:Generated_Source\PSoC6\pdl\drivers\peripheral\syslib/cy_syslib.c **** * the \ref Cy_SysLib_Halt() function to halt the processor.
 156:Generated_Source\PSoC6\pdl\drivers\peripheral\syslib/cy_syslib.c **** *
 157:Generated_Source\PSoC6\pdl\drivers\peripheral\syslib/cy_syslib.c **** * \param file  The file name of the ASSERT location.
 158:Generated_Source\PSoC6\pdl\drivers\peripheral\syslib/cy_syslib.c **** * \param line  The line number of the ASSERT location.
 159:Generated_Source\PSoC6\pdl\drivers\peripheral\syslib/cy_syslib.c **** *
 160:Generated_Source\PSoC6\pdl\drivers\peripheral\syslib/cy_syslib.c **** * \note A stored file name and line number could be accessed by
 161:Generated_Source\PSoC6\pdl\drivers\peripheral\syslib/cy_syslib.c **** *       cy_assertFileName and cy_assertLine global variables.
 162:Generated_Source\PSoC6\pdl\drivers\peripheral\syslib/cy_syslib.c **** * \note This function has the WEAK option, so the user can redefine
 163:Generated_Source\PSoC6\pdl\drivers\peripheral\syslib/cy_syslib.c **** *       the function for a custom processing.
 164:Generated_Source\PSoC6\pdl\drivers\peripheral\syslib/cy_syslib.c **** *
 165:Generated_Source\PSoC6\pdl\drivers\peripheral\syslib/cy_syslib.c **** *******************************************************************************/
 166:Generated_Source\PSoC6\pdl\drivers\peripheral\syslib/cy_syslib.c **** __WEAK void Cy_SysLib_AssertFailed(const char_t * file, uint32_t line)
 167:Generated_Source\PSoC6\pdl\drivers\peripheral\syslib/cy_syslib.c **** {
 146              		.loc 1 167 0
 147              		.cfi_startproc
 148              		@ args = 0, pretend = 0, frame = 0
 149              		@ frame_needed = 0, uses_anonymous_args = 0
 150              	.LVL10:
 151 0000 70B5     		push	{r4, r5, r6, lr}
 152              		.cfi_def_cfa_offset 16
 153              		.cfi_offset 4, -16
 154              		.cfi_offset 5, -12
 155              		.cfi_offset 6, -8
 156              		.cfi_offset 14, -4
 157 0002 0D00     		movs	r5, r1
 168:Generated_Source\PSoC6\pdl\drivers\peripheral\syslib/cy_syslib.c ****     (void) strncpy(cy_assertFileName, file, CY_MAX_FILE_NAME_SIZE);
 158              		.loc 1 168 0
 159 0004 044C     		ldr	r4, .L12
 160 0006 1822     		movs	r2, #24
 161 0008 0100     		movs	r1, r0
 162              	.LVL11:
 163 000a 2000     		movs	r0, r4
 164              	.LVL12:
 165 000c FFF7FEFF 		bl	strncpy
 166              	.LVL13:
 169:Generated_Source\PSoC6\pdl\drivers\peripheral\syslib/cy_syslib.c ****     cy_assertLine = line;
 167              		.loc 1 169 0
 168 0010 A561     		str	r5, [r4, #24]
 170:Generated_Source\PSoC6\pdl\drivers\peripheral\syslib/cy_syslib.c ****     Cy_SysLib_Halt(0UL);
 169              		.loc 1 170 0
 170 0012 0020     		movs	r0, #0
 171 0014 FFF7FEFF 		bl	Cy_SysLib_Halt
ARM GAS  C:\Users\Rolf\AppData\Local\Temp\ccTwK7ru.s 			page 7


 172              	.LVL14:
 173              	.L13:
 174              		.align	2
 175              	.L12:
 176 0018 00000000 		.word	.LANCHOR0
 177              		.cfi_endproc
 178              	.LFE67:
 179              		.size	Cy_SysLib_AssertFailed, .-Cy_SysLib_AssertFailed
 180              		.section	.text.Cy_SysLib_ClearFlashCacheAndBuffer,"ax",%progbits
 181              		.align	2
 182              		.global	Cy_SysLib_ClearFlashCacheAndBuffer
 183              		.code	16
 184              		.thumb_func
 185              		.type	Cy_SysLib_ClearFlashCacheAndBuffer, %function
 186              	Cy_SysLib_ClearFlashCacheAndBuffer:
 187              	.LFB68:
 171:Generated_Source\PSoC6\pdl\drivers\peripheral\syslib/cy_syslib.c **** }
 172:Generated_Source\PSoC6\pdl\drivers\peripheral\syslib/cy_syslib.c **** #endif  /* !defined(NDEBUG) || defined(CY_DOXYGEN) */
 173:Generated_Source\PSoC6\pdl\drivers\peripheral\syslib/cy_syslib.c **** 
 174:Generated_Source\PSoC6\pdl\drivers\peripheral\syslib/cy_syslib.c **** 
 175:Generated_Source\PSoC6\pdl\drivers\peripheral\syslib/cy_syslib.c **** /*******************************************************************************
 176:Generated_Source\PSoC6\pdl\drivers\peripheral\syslib/cy_syslib.c **** * Function Name: Cy_SysLib_ClearFlashCacheAndBuffer
 177:Generated_Source\PSoC6\pdl\drivers\peripheral\syslib/cy_syslib.c **** ****************************************************************************//**
 178:Generated_Source\PSoC6\pdl\drivers\peripheral\syslib/cy_syslib.c **** *
 179:Generated_Source\PSoC6\pdl\drivers\peripheral\syslib/cy_syslib.c **** * This function invalidates the flash cache and buffer. It ensures the valid
 180:Generated_Source\PSoC6\pdl\drivers\peripheral\syslib/cy_syslib.c **** * data is read from flash instead of using outdated data from the cache.
 181:Generated_Source\PSoC6\pdl\drivers\peripheral\syslib/cy_syslib.c **** * The caches' LRU structure is also reset to their default state.
 182:Generated_Source\PSoC6\pdl\drivers\peripheral\syslib/cy_syslib.c **** *
 183:Generated_Source\PSoC6\pdl\drivers\peripheral\syslib/cy_syslib.c **** * \note The operation takes a maximum of three clock cycles on the slowest of
 184:Generated_Source\PSoC6\pdl\drivers\peripheral\syslib/cy_syslib.c **** *       the clk_slow and clk_fast clocks.
 185:Generated_Source\PSoC6\pdl\drivers\peripheral\syslib/cy_syslib.c **** *
 186:Generated_Source\PSoC6\pdl\drivers\peripheral\syslib/cy_syslib.c **** *******************************************************************************/
 187:Generated_Source\PSoC6\pdl\drivers\peripheral\syslib/cy_syslib.c **** void Cy_SysLib_ClearFlashCacheAndBuffer(void)
 188:Generated_Source\PSoC6\pdl\drivers\peripheral\syslib/cy_syslib.c **** {
 188              		.loc 1 188 0
 189              		.cfi_startproc
 190              		@ args = 0, pretend = 0, frame = 0
 191              		@ frame_needed = 0, uses_anonymous_args = 0
 192              		@ link register save eliminated.
 189:Generated_Source\PSoC6\pdl\drivers\peripheral\syslib/cy_syslib.c ****     FLASHC_FLASH_CMD = FLASHC_FLASH_CMD_INV_Msk;
 193              		.loc 1 189 0
 194 0000 024B     		ldr	r3, .L15
 195 0002 1B68     		ldr	r3, [r3]
 196 0004 5B68     		ldr	r3, [r3, #4]
 197 0006 0122     		movs	r2, #1
 198 0008 9A60     		str	r2, [r3, #8]
 190:Generated_Source\PSoC6\pdl\drivers\peripheral\syslib/cy_syslib.c **** }
 199              		.loc 1 190 0
 200              		@ sp needed
 201 000a 7047     		bx	lr
 202              	.L16:
 203              		.align	2
 204              	.L15:
 205 000c 00000000 		.word	cy_device
 206              		.cfi_endproc
 207              	.LFE68:
 208              		.size	Cy_SysLib_ClearFlashCacheAndBuffer, .-Cy_SysLib_ClearFlashCacheAndBuffer
ARM GAS  C:\Users\Rolf\AppData\Local\Temp\ccTwK7ru.s 			page 8


 209              		.section	.text.Cy_SysLib_ResetBackupDomain,"ax",%progbits
 210              		.align	2
 211              		.global	Cy_SysLib_ResetBackupDomain
 212              		.code	16
 213              		.thumb_func
 214              		.type	Cy_SysLib_ResetBackupDomain, %function
 215              	Cy_SysLib_ResetBackupDomain:
 216              	.LFB69:
 191:Generated_Source\PSoC6\pdl\drivers\peripheral\syslib/cy_syslib.c **** 
 192:Generated_Source\PSoC6\pdl\drivers\peripheral\syslib/cy_syslib.c **** 
 193:Generated_Source\PSoC6\pdl\drivers\peripheral\syslib/cy_syslib.c **** /*******************************************************************************
 194:Generated_Source\PSoC6\pdl\drivers\peripheral\syslib/cy_syslib.c **** * Function Name: Cy_SysLib_ResetBackupDomain
 195:Generated_Source\PSoC6\pdl\drivers\peripheral\syslib/cy_syslib.c **** ****************************************************************************//**
 196:Generated_Source\PSoC6\pdl\drivers\peripheral\syslib/cy_syslib.c **** *
 197:Generated_Source\PSoC6\pdl\drivers\peripheral\syslib/cy_syslib.c **** * This function resets the backup domain power to avoid the ILO glitch. The
 198:Generated_Source\PSoC6\pdl\drivers\peripheral\syslib/cy_syslib.c **** * glitch can occur when the device is reset due to POR/BOD/XRES while
 199:Generated_Source\PSoC6\pdl\drivers\peripheral\syslib/cy_syslib.c **** * the backup voltage is supplied into the system.
 200:Generated_Source\PSoC6\pdl\drivers\peripheral\syslib/cy_syslib.c **** *
 201:Generated_Source\PSoC6\pdl\drivers\peripheral\syslib/cy_syslib.c **** * \note Writing 1 to BACKUP->RESET resets the backup logic. Hardware clears it
 202:Generated_Source\PSoC6\pdl\drivers\peripheral\syslib/cy_syslib.c **** *       when the reset is complete. After setting the register, this function
 203:Generated_Source\PSoC6\pdl\drivers\peripheral\syslib/cy_syslib.c **** *       reads the register immediately for returning the result of the backup
 204:Generated_Source\PSoC6\pdl\drivers\peripheral\syslib/cy_syslib.c **** *       domain reset state. The reading register is important because the Read
 205:Generated_Source\PSoC6\pdl\drivers\peripheral\syslib/cy_syslib.c **** *       itself takes multiple AHB clock cycles, and the reset is actually
 206:Generated_Source\PSoC6\pdl\drivers\peripheral\syslib/cy_syslib.c **** *       finishing during that time.
 207:Generated_Source\PSoC6\pdl\drivers\peripheral\syslib/cy_syslib.c **** *
 208:Generated_Source\PSoC6\pdl\drivers\peripheral\syslib/cy_syslib.c **** * \return CY_SYSLIB_SUCCESS, if BACKUP->RESET read-back is 0.
 209:Generated_Source\PSoC6\pdl\drivers\peripheral\syslib/cy_syslib.c **** *         Otherwise returns CY_SYSLIB_INVALID_STATE.
 210:Generated_Source\PSoC6\pdl\drivers\peripheral\syslib/cy_syslib.c **** *
 211:Generated_Source\PSoC6\pdl\drivers\peripheral\syslib/cy_syslib.c **** *******************************************************************************/
 212:Generated_Source\PSoC6\pdl\drivers\peripheral\syslib/cy_syslib.c **** cy_en_syslib_status_t Cy_SysLib_ResetBackupDomain(void)
 213:Generated_Source\PSoC6\pdl\drivers\peripheral\syslib/cy_syslib.c **** {
 217              		.loc 1 213 0
 218              		.cfi_startproc
 219              		@ args = 0, pretend = 0, frame = 0
 220              		@ frame_needed = 0, uses_anonymous_args = 0
 221              		@ link register save eliminated.
 214:Generated_Source\PSoC6\pdl\drivers\peripheral\syslib/cy_syslib.c ****     BACKUP_RESET = BACKUP_RESET_RESET_Msk;
 222              		.loc 1 214 0
 223 0000 054B     		ldr	r3, .L20
 224 0002 8022     		movs	r2, #128
 225 0004 1206     		lsls	r2, r2, #24
 226 0006 9A64     		str	r2, [r3, #72]
 215:Generated_Source\PSoC6\pdl\drivers\peripheral\syslib/cy_syslib.c **** 
 216:Generated_Source\PSoC6\pdl\drivers\peripheral\syslib/cy_syslib.c ****     return ( ((BACKUP_RESET & BACKUP_RESET_RESET_Msk) == 0UL) ? CY_SYSLIB_SUCCESS : CY_SYSLIB_INVAL
 227              		.loc 1 216 0
 228 0008 9B6C     		ldr	r3, [r3, #72]
 229 000a 002B     		cmp	r3, #0
 230 000c 01DB     		blt	.L19
 231 000e 0020     		movs	r0, #0
 232 0010 00E0     		b	.L18
 233              	.L19:
 234 0012 0248     		ldr	r0, .L20+4
 235              	.L18:
 217:Generated_Source\PSoC6\pdl\drivers\peripheral\syslib/cy_syslib.c **** }
 236              		.loc 1 217 0 discriminator 4
 237              		@ sp needed
 238 0014 7047     		bx	lr
ARM GAS  C:\Users\Rolf\AppData\Local\Temp\ccTwK7ru.s 			page 9


 239              	.L21:
 240 0016 C046     		.align	2
 241              	.L20:
 242 0018 00002740 		.word	1076297728
 243 001c 03004600 		.word	4587523
 244              		.cfi_endproc
 245              	.LFE69:
 246              		.size	Cy_SysLib_ResetBackupDomain, .-Cy_SysLib_ResetBackupDomain
 247              		.section	.text.Cy_SysLib_GetResetReason,"ax",%progbits
 248              		.align	2
 249              		.global	Cy_SysLib_GetResetReason
 250              		.code	16
 251              		.thumb_func
 252              		.type	Cy_SysLib_GetResetReason, %function
 253              	Cy_SysLib_GetResetReason:
 254              	.LFB70:
 218:Generated_Source\PSoC6\pdl\drivers\peripheral\syslib/cy_syslib.c **** 
 219:Generated_Source\PSoC6\pdl\drivers\peripheral\syslib/cy_syslib.c **** 
 220:Generated_Source\PSoC6\pdl\drivers\peripheral\syslib/cy_syslib.c **** /*******************************************************************************
 221:Generated_Source\PSoC6\pdl\drivers\peripheral\syslib/cy_syslib.c **** * Function Name: Cy_SysLib_GetResetReason
 222:Generated_Source\PSoC6\pdl\drivers\peripheral\syslib/cy_syslib.c **** ****************************************************************************//**
 223:Generated_Source\PSoC6\pdl\drivers\peripheral\syslib/cy_syslib.c **** *
 224:Generated_Source\PSoC6\pdl\drivers\peripheral\syslib/cy_syslib.c **** * The function returns the cause for the latest reset(s) that occurred in
 225:Generated_Source\PSoC6\pdl\drivers\peripheral\syslib/cy_syslib.c **** * the system. The reset causes include an HFCLK error, system faults, and
 226:Generated_Source\PSoC6\pdl\drivers\peripheral\syslib/cy_syslib.c **** * device reset on a wakeup from Hibernate mode.
 227:Generated_Source\PSoC6\pdl\drivers\peripheral\syslib/cy_syslib.c **** * The return results are consolidated reset causes from reading RES_CAUSE,
 228:Generated_Source\PSoC6\pdl\drivers\peripheral\syslib/cy_syslib.c **** * RES_CAUSE2 and PWR_HIBERNATE token registers.
 229:Generated_Source\PSoC6\pdl\drivers\peripheral\syslib/cy_syslib.c **** *
 230:Generated_Source\PSoC6\pdl\drivers\peripheral\syslib/cy_syslib.c **** * \return The cause of a system reset.
 231:Generated_Source\PSoC6\pdl\drivers\peripheral\syslib/cy_syslib.c **** *
 232:Generated_Source\PSoC6\pdl\drivers\peripheral\syslib/cy_syslib.c **** * | Name                          | Value
 233:Generated_Source\PSoC6\pdl\drivers\peripheral\syslib/cy_syslib.c **** * |-------------------------------|---------------------
 234:Generated_Source\PSoC6\pdl\drivers\peripheral\syslib/cy_syslib.c **** * | CY_SYSLIB_RESET_HWWDT         | 0x00001 (bit0)
 235:Generated_Source\PSoC6\pdl\drivers\peripheral\syslib/cy_syslib.c **** * | CY_SYSLIB_RESET_ACT_FAULT     | 0x00002 (bit1)
 236:Generated_Source\PSoC6\pdl\drivers\peripheral\syslib/cy_syslib.c **** * | CY_SYSLIB_RESET_DPSLP_FAULT   | 0x00004 (bit2)
 237:Generated_Source\PSoC6\pdl\drivers\peripheral\syslib/cy_syslib.c **** * | CY_SYSLIB_RESET_CSV_WCO_LOSS  | 0x00008 (bit3)
 238:Generated_Source\PSoC6\pdl\drivers\peripheral\syslib/cy_syslib.c **** * | CY_SYSLIB_RESET_SOFT          | 0x00010 (bit4)
 239:Generated_Source\PSoC6\pdl\drivers\peripheral\syslib/cy_syslib.c **** * | CY_SYSLIB_RESET_SWWDT0        | 0x00020 (bit5)
 240:Generated_Source\PSoC6\pdl\drivers\peripheral\syslib/cy_syslib.c **** * | CY_SYSLIB_RESET_SWWDT1        | 0x00040 (bit6)
 241:Generated_Source\PSoC6\pdl\drivers\peripheral\syslib/cy_syslib.c **** * | CY_SYSLIB_RESET_SWWDT2        | 0x00080 (bit7)
 242:Generated_Source\PSoC6\pdl\drivers\peripheral\syslib/cy_syslib.c **** * | CY_SYSLIB_RESET_SWWDT3        | 0x00100 (bit8)
 243:Generated_Source\PSoC6\pdl\drivers\peripheral\syslib/cy_syslib.c **** * | CY_SYSLIB_RESET_HFCLK_LOSS    | 0x10000 (bit16)
 244:Generated_Source\PSoC6\pdl\drivers\peripheral\syslib/cy_syslib.c **** * | CY_SYSLIB_RESET_HFCLK_ERR     | 0x20000 (bit17)
 245:Generated_Source\PSoC6\pdl\drivers\peripheral\syslib/cy_syslib.c **** * | CY_SYSLIB_RESET_HIB_WAKEUP    | 0x40000 (bit18)
 246:Generated_Source\PSoC6\pdl\drivers\peripheral\syslib/cy_syslib.c **** *
 247:Generated_Source\PSoC6\pdl\drivers\peripheral\syslib/cy_syslib.c **** * \note CY_SYSLIB_RESET_CSV_WCO_LOSS, CY_SYSLIB_RESET_HFCLK_LOSS and
 248:Generated_Source\PSoC6\pdl\drivers\peripheral\syslib/cy_syslib.c **** *       CY_SYSLIB_RESET_HFCLK_ERR causes of a system reset available only if
 249:Generated_Source\PSoC6\pdl\drivers\peripheral\syslib/cy_syslib.c **** *       WCO CSV present in the device.
 250:Generated_Source\PSoC6\pdl\drivers\peripheral\syslib/cy_syslib.c **** *
 251:Generated_Source\PSoC6\pdl\drivers\peripheral\syslib/cy_syslib.c **** *******************************************************************************/
 252:Generated_Source\PSoC6\pdl\drivers\peripheral\syslib/cy_syslib.c **** uint32_t Cy_SysLib_GetResetReason(void)
 253:Generated_Source\PSoC6\pdl\drivers\peripheral\syslib/cy_syslib.c **** {
 255              		.loc 1 253 0
 256              		.cfi_startproc
 257              		@ args = 0, pretend = 0, frame = 0
 258              		@ frame_needed = 0, uses_anonymous_args = 0
 259              		@ link register save eliminated.
ARM GAS  C:\Users\Rolf\AppData\Local\Temp\ccTwK7ru.s 			page 10


 254:Generated_Source\PSoC6\pdl\drivers\peripheral\syslib/cy_syslib.c ****     uint32_t retVal = SRSS_RES_CAUSE;
 260              		.loc 1 254 0
 261 0000 054B     		ldr	r3, .L24
 262 0002 8022     		movs	r2, #128
 263 0004 1201     		lsls	r2, r2, #4
 264 0006 9858     		ldr	r0, [r3, r2]
 265              	.LVL15:
 255:Generated_Source\PSoC6\pdl\drivers\peripheral\syslib/cy_syslib.c **** 
 256:Generated_Source\PSoC6\pdl\drivers\peripheral\syslib/cy_syslib.c ****     if(0U != _FLD2VAL(SRSS_PWR_HIBERNATE_TOKEN, SRSS_PWR_HIBERNATE))
 266              		.loc 1 256 0
 267 0008 5B68     		ldr	r3, [r3, #4]
 268 000a FF22     		movs	r2, #255
 269 000c 1A42     		tst	r2, r3
 270 000e 02D0     		beq	.L23
 257:Generated_Source\PSoC6\pdl\drivers\peripheral\syslib/cy_syslib.c ****     {
 258:Generated_Source\PSoC6\pdl\drivers\peripheral\syslib/cy_syslib.c ****         retVal |= CY_SYSLIB_RESET_HIB_WAKEUP;
 271              		.loc 1 258 0
 272 0010 8023     		movs	r3, #128
 273 0012 DB02     		lsls	r3, r3, #11
 274 0014 1843     		orrs	r0, r3
 275              	.LVL16:
 276              	.L23:
 259:Generated_Source\PSoC6\pdl\drivers\peripheral\syslib/cy_syslib.c ****     }
 260:Generated_Source\PSoC6\pdl\drivers\peripheral\syslib/cy_syslib.c **** 
 261:Generated_Source\PSoC6\pdl\drivers\peripheral\syslib/cy_syslib.c ****     return (retVal);
 262:Generated_Source\PSoC6\pdl\drivers\peripheral\syslib/cy_syslib.c **** }
 277              		.loc 1 262 0
 278              		@ sp needed
 279 0016 7047     		bx	lr
 280              	.L25:
 281              		.align	2
 282              	.L24:
 283 0018 00002640 		.word	1076232192
 284              		.cfi_endproc
 285              	.LFE70:
 286              		.size	Cy_SysLib_GetResetReason, .-Cy_SysLib_GetResetReason
 287              		.section	.text.Cy_SysLib_ClearResetReason,"ax",%progbits
 288              		.align	2
 289              		.global	Cy_SysLib_ClearResetReason
 290              		.code	16
 291              		.thumb_func
 292              		.type	Cy_SysLib_ClearResetReason, %function
 293              	Cy_SysLib_ClearResetReason:
 294              	.LFB71:
 263:Generated_Source\PSoC6\pdl\drivers\peripheral\syslib/cy_syslib.c **** 
 264:Generated_Source\PSoC6\pdl\drivers\peripheral\syslib/cy_syslib.c **** 
 265:Generated_Source\PSoC6\pdl\drivers\peripheral\syslib/cy_syslib.c **** /*******************************************************************************
 266:Generated_Source\PSoC6\pdl\drivers\peripheral\syslib/cy_syslib.c **** * Function Name: Cy_SysLib_ClearResetReason
 267:Generated_Source\PSoC6\pdl\drivers\peripheral\syslib/cy_syslib.c **** ****************************************************************************//**
 268:Generated_Source\PSoC6\pdl\drivers\peripheral\syslib/cy_syslib.c **** *
 269:Generated_Source\PSoC6\pdl\drivers\peripheral\syslib/cy_syslib.c **** * This function clears the values of RES_CAUSE and RES_CAUSE2. Also it clears
 270:Generated_Source\PSoC6\pdl\drivers\peripheral\syslib/cy_syslib.c **** * PWR_HIBERNATE token, which indicates reset event on waking up from HIBERNATE.
 271:Generated_Source\PSoC6\pdl\drivers\peripheral\syslib/cy_syslib.c **** *
 272:Generated_Source\PSoC6\pdl\drivers\peripheral\syslib/cy_syslib.c **** *******************************************************************************/
 273:Generated_Source\PSoC6\pdl\drivers\peripheral\syslib/cy_syslib.c **** void Cy_SysLib_ClearResetReason(void)
 274:Generated_Source\PSoC6\pdl\drivers\peripheral\syslib/cy_syslib.c **** {
 295              		.loc 1 274 0
ARM GAS  C:\Users\Rolf\AppData\Local\Temp\ccTwK7ru.s 			page 11


 296              		.cfi_startproc
 297              		@ args = 0, pretend = 0, frame = 0
 298              		@ frame_needed = 0, uses_anonymous_args = 0
 299              		@ link register save eliminated.
 275:Generated_Source\PSoC6\pdl\drivers\peripheral\syslib/cy_syslib.c ****     /* RES_CAUSE and RES_CAUSE2 register's bits are RW1C (every bit is cleared upon writing 1),
 276:Generated_Source\PSoC6\pdl\drivers\peripheral\syslib/cy_syslib.c ****      * so write all ones to clear all the reset reasons.
 277:Generated_Source\PSoC6\pdl\drivers\peripheral\syslib/cy_syslib.c ****      */
 278:Generated_Source\PSoC6\pdl\drivers\peripheral\syslib/cy_syslib.c ****     SRSS_RES_CAUSE  = 0xFFFFFFFFU;
 300              		.loc 1 278 0
 301 0000 094B     		ldr	r3, .L28
 302 0002 0122     		movs	r2, #1
 303 0004 5242     		rsbs	r2, r2, #0
 304 0006 8021     		movs	r1, #128
 305 0008 0901     		lsls	r1, r1, #4
 306 000a 5A50     		str	r2, [r3, r1]
 279:Generated_Source\PSoC6\pdl\drivers\peripheral\syslib/cy_syslib.c ****     SRSS_RES_CAUSE2 = 0xFFFFFFFFU;
 307              		.loc 1 279 0
 308 000c 0749     		ldr	r1, .L28+4
 309 000e 5A50     		str	r2, [r3, r1]
 280:Generated_Source\PSoC6\pdl\drivers\peripheral\syslib/cy_syslib.c ****     
 281:Generated_Source\PSoC6\pdl\drivers\peripheral\syslib/cy_syslib.c ****     if(0U != _FLD2VAL(SRSS_PWR_HIBERNATE_TOKEN, SRSS_PWR_HIBERNATE))
 310              		.loc 1 281 0
 311 0010 5B68     		ldr	r3, [r3, #4]
 312 0012 0132     		adds	r2, r2, #1
 313 0014 FF32     		adds	r2, r2, #255
 314 0016 1A42     		tst	r2, r3
 315 0018 04D0     		beq	.L26
 282:Generated_Source\PSoC6\pdl\drivers\peripheral\syslib/cy_syslib.c ****     {
 283:Generated_Source\PSoC6\pdl\drivers\peripheral\syslib/cy_syslib.c ****         /* Clears PWR_HIBERNATE token */
 284:Generated_Source\PSoC6\pdl\drivers\peripheral\syslib/cy_syslib.c ****         SRSS_PWR_HIBERNATE &= ~SRSS_PWR_HIBERNATE_TOKEN_Msk;
 316              		.loc 1 284 0
 317 001a 034A     		ldr	r2, .L28
 318 001c 5368     		ldr	r3, [r2, #4]
 319 001e FF21     		movs	r1, #255
 320 0020 8B43     		bics	r3, r1
 321 0022 5360     		str	r3, [r2, #4]
 322              	.L26:
 285:Generated_Source\PSoC6\pdl\drivers\peripheral\syslib/cy_syslib.c ****     }
 286:Generated_Source\PSoC6\pdl\drivers\peripheral\syslib/cy_syslib.c **** }
 323              		.loc 1 286 0
 324              		@ sp needed
 325 0024 7047     		bx	lr
 326              	.L29:
 327 0026 C046     		.align	2
 328              	.L28:
 329 0028 00002640 		.word	1076232192
 330 002c 04080000 		.word	2052
 331              		.cfi_endproc
 332              	.LFE71:
 333              		.size	Cy_SysLib_ClearResetReason, .-Cy_SysLib_ClearResetReason
 334              		.section	.text.Cy_SysLib_SoftResetCM4,"ax",%progbits
 335              		.align	2
 336              		.global	Cy_SysLib_SoftResetCM4
 337              		.code	16
 338              		.thumb_func
 339              		.type	Cy_SysLib_SoftResetCM4, %function
 340              	Cy_SysLib_SoftResetCM4:
ARM GAS  C:\Users\Rolf\AppData\Local\Temp\ccTwK7ru.s 			page 12


 341              	.LFB72:
 287:Generated_Source\PSoC6\pdl\drivers\peripheral\syslib/cy_syslib.c **** 
 288:Generated_Source\PSoC6\pdl\drivers\peripheral\syslib/cy_syslib.c **** 
 289:Generated_Source\PSoC6\pdl\drivers\peripheral\syslib/cy_syslib.c **** #if (CY_CPU_CORTEX_M0P) || defined(CY_DOXYGEN)
 290:Generated_Source\PSoC6\pdl\drivers\peripheral\syslib/cy_syslib.c **** /*******************************************************************************
 291:Generated_Source\PSoC6\pdl\drivers\peripheral\syslib/cy_syslib.c **** * Function Name: Cy_SysLib_SoftResetCM4
 292:Generated_Source\PSoC6\pdl\drivers\peripheral\syslib/cy_syslib.c **** ****************************************************************************//**
 293:Generated_Source\PSoC6\pdl\drivers\peripheral\syslib/cy_syslib.c **** *
 294:Generated_Source\PSoC6\pdl\drivers\peripheral\syslib/cy_syslib.c **** * This function performs a CM4 Core software reset using the CM4_PWR_CTL
 295:Generated_Source\PSoC6\pdl\drivers\peripheral\syslib/cy_syslib.c **** * register. The register is accessed by CM0 Core by using a command transferred
 296:Generated_Source\PSoC6\pdl\drivers\peripheral\syslib/cy_syslib.c **** * to SROM API through the IPC channel. When the command is sent, the API waits
 297:Generated_Source\PSoC6\pdl\drivers\peripheral\syslib/cy_syslib.c **** * for the IPC channel release.
 298:Generated_Source\PSoC6\pdl\drivers\peripheral\syslib/cy_syslib.c **** *
 299:Generated_Source\PSoC6\pdl\drivers\peripheral\syslib/cy_syslib.c **** * \note This function should be called only when the CM4 core is in Deep
 300:Generated_Source\PSoC6\pdl\drivers\peripheral\syslib/cy_syslib.c **** *       Sleep mode.
 301:Generated_Source\PSoC6\pdl\drivers\peripheral\syslib/cy_syslib.c **** * \note This function will not reset CM0+ Core.
 302:Generated_Source\PSoC6\pdl\drivers\peripheral\syslib/cy_syslib.c **** * \note This function waits for an IPC channel release state.
 303:Generated_Source\PSoC6\pdl\drivers\peripheral\syslib/cy_syslib.c **** *
 304:Generated_Source\PSoC6\pdl\drivers\peripheral\syslib/cy_syslib.c **** *******************************************************************************/
 305:Generated_Source\PSoC6\pdl\drivers\peripheral\syslib/cy_syslib.c **** void Cy_SysLib_SoftResetCM4(void)
 306:Generated_Source\PSoC6\pdl\drivers\peripheral\syslib/cy_syslib.c **** {
 342              		.loc 1 306 0
 343              		.cfi_startproc
 344              		@ args = 0, pretend = 0, frame = 0
 345              		@ frame_needed = 0, uses_anonymous_args = 0
 346 0000 10B5     		push	{r4, lr}
 347              		.cfi_def_cfa_offset 8
 348              		.cfi_offset 4, -8
 349              		.cfi_offset 14, -4
 350              	.LVL17:
 351              	.LBB14:
 352              	.LBB15:
 353              		.file 2 "Generated_Source\\PSoC6\\pdl\\drivers/peripheral/ipc/cy_ipc_drv.h"
   1:Generated_Source\PSoC6\pdl\drivers/peripheral/ipc/cy_ipc_drv.h **** /***************************************************************************//**
   2:Generated_Source\PSoC6\pdl\drivers/peripheral/ipc/cy_ipc_drv.h **** * \file cy_ipc_drv.h
   3:Generated_Source\PSoC6\pdl\drivers/peripheral/ipc/cy_ipc_drv.h **** * \version 1.30
   4:Generated_Source\PSoC6\pdl\drivers/peripheral/ipc/cy_ipc_drv.h **** *
   5:Generated_Source\PSoC6\pdl\drivers/peripheral/ipc/cy_ipc_drv.h **** * Provides an API declaration of the IPC driver.
   6:Generated_Source\PSoC6\pdl\drivers/peripheral/ipc/cy_ipc_drv.h **** *
   7:Generated_Source\PSoC6\pdl\drivers/peripheral/ipc/cy_ipc_drv.h **** ********************************************************************************
   8:Generated_Source\PSoC6\pdl\drivers/peripheral/ipc/cy_ipc_drv.h **** * \copyright
   9:Generated_Source\PSoC6\pdl\drivers/peripheral/ipc/cy_ipc_drv.h **** * Copyright 2016-2018, Cypress Semiconductor Corporation. All rights reserved.
  10:Generated_Source\PSoC6\pdl\drivers/peripheral/ipc/cy_ipc_drv.h **** * You may use this file only in accordance with the license, terms, conditions,
  11:Generated_Source\PSoC6\pdl\drivers/peripheral/ipc/cy_ipc_drv.h **** * disclaimers, and limitations in the end user license agreement accompanying
  12:Generated_Source\PSoC6\pdl\drivers/peripheral/ipc/cy_ipc_drv.h **** * the software package with which this file was provided.
  13:Generated_Source\PSoC6\pdl\drivers/peripheral/ipc/cy_ipc_drv.h **** *******************************************************************************/
  14:Generated_Source\PSoC6\pdl\drivers/peripheral/ipc/cy_ipc_drv.h **** 
  15:Generated_Source\PSoC6\pdl\drivers/peripheral/ipc/cy_ipc_drv.h **** #ifndef CY_IPC_DRV_H
  16:Generated_Source\PSoC6\pdl\drivers/peripheral/ipc/cy_ipc_drv.h **** #define CY_IPC_DRV_H
  17:Generated_Source\PSoC6\pdl\drivers/peripheral/ipc/cy_ipc_drv.h **** 
  18:Generated_Source\PSoC6\pdl\drivers/peripheral/ipc/cy_ipc_drv.h **** 
  19:Generated_Source\PSoC6\pdl\drivers/peripheral/ipc/cy_ipc_drv.h **** /**
  20:Generated_Source\PSoC6\pdl\drivers/peripheral/ipc/cy_ipc_drv.h **** * \addtogroup group_ipc
  21:Generated_Source\PSoC6\pdl\drivers/peripheral/ipc/cy_ipc_drv.h **** * \{
  22:Generated_Source\PSoC6\pdl\drivers/peripheral/ipc/cy_ipc_drv.h **** * The inter-processor communication (IPC) driver provides a safe and reliable
  23:Generated_Source\PSoC6\pdl\drivers/peripheral/ipc/cy_ipc_drv.h **** * method to transfer data between CPUs. Hardware locking ensures that only one
  24:Generated_Source\PSoC6\pdl\drivers/peripheral/ipc/cy_ipc_drv.h **** * device can acquire and transfer data at a time so no data is lost or
ARM GAS  C:\Users\Rolf\AppData\Local\Temp\ccTwK7ru.s 			page 13


  25:Generated_Source\PSoC6\pdl\drivers/peripheral/ipc/cy_ipc_drv.h **** * overwritten by asynchronous processes or CPUs.
  26:Generated_Source\PSoC6\pdl\drivers/peripheral/ipc/cy_ipc_drv.h **** *
  27:Generated_Source\PSoC6\pdl\drivers/peripheral/ipc/cy_ipc_drv.h **** * Include either cy_ipc_pipe.h or cy_ipc_sema.h. Alternatively include cy_pdl.h 
  28:Generated_Source\PSoC6\pdl\drivers/peripheral/ipc/cy_ipc_drv.h **** * (ModusToolbox only) to get access to all functions and declarations in the PDL.
  29:Generated_Source\PSoC6\pdl\drivers/peripheral/ipc/cy_ipc_drv.h **** *
  30:Generated_Source\PSoC6\pdl\drivers/peripheral/ipc/cy_ipc_drv.h **** * There are three parts to the API:
  31:Generated_Source\PSoC6\pdl\drivers/peripheral/ipc/cy_ipc_drv.h **** *     - Driver-level (DRV) API - used internally by Semaphore and Pipe levels
  32:Generated_Source\PSoC6\pdl\drivers/peripheral/ipc/cy_ipc_drv.h **** *     - Pipe-level (PIPE) API - establishes a communication channel between
  33:Generated_Source\PSoC6\pdl\drivers/peripheral/ipc/cy_ipc_drv.h **** *       processors
  34:Generated_Source\PSoC6\pdl\drivers/peripheral/ipc/cy_ipc_drv.h **** *     - Semaphore-level (SEMA) API - enables users to set and clear flags to
  35:Generated_Source\PSoC6\pdl\drivers/peripheral/ipc/cy_ipc_drv.h **** *       synchronize operations.
  36:Generated_Source\PSoC6\pdl\drivers/peripheral/ipc/cy_ipc_drv.h **** *
  37:Generated_Source\PSoC6\pdl\drivers/peripheral/ipc/cy_ipc_drv.h **** * Firmware does not need to use the DRV API. It can implement IPC functionality
  38:Generated_Source\PSoC6\pdl\drivers/peripheral/ipc/cy_ipc_drv.h **** * entirely with the PIPE and SEMA APIs.
  39:Generated_Source\PSoC6\pdl\drivers/peripheral/ipc/cy_ipc_drv.h **** *
  40:Generated_Source\PSoC6\pdl\drivers/peripheral/ipc/cy_ipc_drv.h **** * \section group_ipc_background Background
  41:Generated_Source\PSoC6\pdl\drivers/peripheral/ipc/cy_ipc_drv.h **** *
  42:Generated_Source\PSoC6\pdl\drivers/peripheral/ipc/cy_ipc_drv.h **** * IPC is implemented in hardware as a collection of individual communication
  43:Generated_Source\PSoC6\pdl\drivers/peripheral/ipc/cy_ipc_drv.h **** * channels, each with a set of 32-bit registers. The IPC design implements a set
  44:Generated_Source\PSoC6\pdl\drivers/peripheral/ipc/cy_ipc_drv.h **** * of interrupts that enable each processor to notify the other that data is
  45:Generated_Source\PSoC6\pdl\drivers/peripheral/ipc/cy_ipc_drv.h **** * available, or has been processed. There is also a locking mechanism that
  46:Generated_Source\PSoC6\pdl\drivers/peripheral/ipc/cy_ipc_drv.h **** * allows only one CPU to gain access at a time.
  47:Generated_Source\PSoC6\pdl\drivers/peripheral/ipc/cy_ipc_drv.h **** *
  48:Generated_Source\PSoC6\pdl\drivers/peripheral/ipc/cy_ipc_drv.h **** * The Driver-level API manages each channel's registers to implement IPC
  49:Generated_Source\PSoC6\pdl\drivers/peripheral/ipc/cy_ipc_drv.h **** * functionality. For information on the IPC registers, see the IPC chapter of
  50:Generated_Source\PSoC6\pdl\drivers/peripheral/ipc/cy_ipc_drv.h **** * the Technical Reference Manual (TRM).
  51:Generated_Source\PSoC6\pdl\drivers/peripheral/ipc/cy_ipc_drv.h **** *
  52:Generated_Source\PSoC6\pdl\drivers/peripheral/ipc/cy_ipc_drv.h **** * At the hardware level, communication is a five-step process.
  53:Generated_Source\PSoC6\pdl\drivers/peripheral/ipc/cy_ipc_drv.h **** *     -#  The sending processor acquires a channel
  54:Generated_Source\PSoC6\pdl\drivers/peripheral/ipc/cy_ipc_drv.h **** *     -#  It puts data into the channel
  55:Generated_Source\PSoC6\pdl\drivers/peripheral/ipc/cy_ipc_drv.h **** *     -#  The sender generates a notify event (interrupt)
  56:Generated_Source\PSoC6\pdl\drivers/peripheral/ipc/cy_ipc_drv.h **** *     -#  The receiving processor identifies the sender and retrieves the data
  57:Generated_Source\PSoC6\pdl\drivers/peripheral/ipc/cy_ipc_drv.h **** *     -#  The receiving processor generates a release event (interrupt)
  58:Generated_Source\PSoC6\pdl\drivers/peripheral/ipc/cy_ipc_drv.h **** *
  59:Generated_Source\PSoC6\pdl\drivers/peripheral/ipc/cy_ipc_drv.h **** * \image html ipc_driver.png
  60:Generated_Source\PSoC6\pdl\drivers/peripheral/ipc/cy_ipc_drv.h **** *
  61:Generated_Source\PSoC6\pdl\drivers/peripheral/ipc/cy_ipc_drv.h **** * These transactions are handled transparently by the DRV-level API. Use the
  62:Generated_Source\PSoC6\pdl\drivers/peripheral/ipc/cy_ipc_drv.h **** * PIPE and SEMA layers of the API to implement communication in your application.
  63:Generated_Source\PSoC6\pdl\drivers/peripheral/ipc/cy_ipc_drv.h **** * The data transferred is limited to a single 32-bit value. As implemented by
  64:Generated_Source\PSoC6\pdl\drivers/peripheral/ipc/cy_ipc_drv.h **** * the PIPE API, that value is a pointer to a data structure of arbitrary size
  65:Generated_Source\PSoC6\pdl\drivers/peripheral/ipc/cy_ipc_drv.h **** * and complexity.
  66:Generated_Source\PSoC6\pdl\drivers/peripheral/ipc/cy_ipc_drv.h **** *
  67:Generated_Source\PSoC6\pdl\drivers/peripheral/ipc/cy_ipc_drv.h **** * \section group_ipc_overview Overview
  68:Generated_Source\PSoC6\pdl\drivers/peripheral/ipc/cy_ipc_drv.h **** *
  69:Generated_Source\PSoC6\pdl\drivers/peripheral/ipc/cy_ipc_drv.h **** * The Pipe is the key element in the PDL design. A pipe is typically a
  70:Generated_Source\PSoC6\pdl\drivers/peripheral/ipc/cy_ipc_drv.h **** * full-duplex communication channel between CPU cores. A pipe allows a single
  71:Generated_Source\PSoC6\pdl\drivers/peripheral/ipc/cy_ipc_drv.h **** * conduit to transfer messages or data to and from multiple processes or CPUs.
  72:Generated_Source\PSoC6\pdl\drivers/peripheral/ipc/cy_ipc_drv.h **** *
  73:Generated_Source\PSoC6\pdl\drivers/peripheral/ipc/cy_ipc_drv.h **** * A pipe has two endpoints, one on each core. Each endpoint contains a dedicated
  74:Generated_Source\PSoC6\pdl\drivers/peripheral/ipc/cy_ipc_drv.h **** * IPC channel and an interrupt. IPC channels 0-7 and IPC interrupts 0-7 are
  75:Generated_Source\PSoC6\pdl\drivers/peripheral/ipc/cy_ipc_drv.h **** * reserved for system use.
  76:Generated_Source\PSoC6\pdl\drivers/peripheral/ipc/cy_ipc_drv.h **** *
  77:Generated_Source\PSoC6\pdl\drivers/peripheral/ipc/cy_ipc_drv.h **** * The pipe also contains the number of clients it supports, and for each client
  78:Generated_Source\PSoC6\pdl\drivers/peripheral/ipc/cy_ipc_drv.h **** * a callback function. So the pipe can service a number of clients, each with a
  79:Generated_Source\PSoC6\pdl\drivers/peripheral/ipc/cy_ipc_drv.h **** * separate callback function, on either endpoint. The number of clients a pipe
  80:Generated_Source\PSoC6\pdl\drivers/peripheral/ipc/cy_ipc_drv.h **** * supports is the sum of each endpoint's clients.
  81:Generated_Source\PSoC6\pdl\drivers/peripheral/ipc/cy_ipc_drv.h **** *
ARM GAS  C:\Users\Rolf\AppData\Local\Temp\ccTwK7ru.s 			page 14


  82:Generated_Source\PSoC6\pdl\drivers/peripheral/ipc/cy_ipc_drv.h **** * This design enables any number of processes on the sending core to put
  83:Generated_Source\PSoC6\pdl\drivers/peripheral/ipc/cy_ipc_drv.h **** * arbitrary data into a single pipe. The first element of that data is the
  84:Generated_Source\PSoC6\pdl\drivers/peripheral/ipc/cy_ipc_drv.h **** * client ID of the client that should handle the data.
  85:Generated_Source\PSoC6\pdl\drivers/peripheral/ipc/cy_ipc_drv.h **** *
  86:Generated_Source\PSoC6\pdl\drivers/peripheral/ipc/cy_ipc_drv.h **** * An interrupt notifies the receiving core that data is available. The receiving
  87:Generated_Source\PSoC6\pdl\drivers/peripheral/ipc/cy_ipc_drv.h **** * core parses the data to identify the client, and then dispatches the event to
  88:Generated_Source\PSoC6\pdl\drivers/peripheral/ipc/cy_ipc_drv.h **** * the appropriate client via the client callback function. An interrupt notifies
  89:Generated_Source\PSoC6\pdl\drivers/peripheral/ipc/cy_ipc_drv.h **** * the sending core that the receiver is finished. In this way a single pipe can
  90:Generated_Source\PSoC6\pdl\drivers/peripheral/ipc/cy_ipc_drv.h **** * manage arbitrary data transfers between cores with data flowing in either
  91:Generated_Source\PSoC6\pdl\drivers/peripheral/ipc/cy_ipc_drv.h **** * direction.
  92:Generated_Source\PSoC6\pdl\drivers/peripheral/ipc/cy_ipc_drv.h **** *
  93:Generated_Source\PSoC6\pdl\drivers/peripheral/ipc/cy_ipc_drv.h **** * \image html ipc_ints.png
  94:Generated_Source\PSoC6\pdl\drivers/peripheral/ipc/cy_ipc_drv.h **** *
  95:Generated_Source\PSoC6\pdl\drivers/peripheral/ipc/cy_ipc_drv.h **** * The application can use semaphores to control access to shared resources, as
  96:Generated_Source\PSoC6\pdl\drivers/peripheral/ipc/cy_ipc_drv.h **** * required by the application's logic.
  97:Generated_Source\PSoC6\pdl\drivers/peripheral/ipc/cy_ipc_drv.h **** *
  98:Generated_Source\PSoC6\pdl\drivers/peripheral/ipc/cy_ipc_drv.h **** * The PDL provides specific files that set up default IPC functionality.
  99:Generated_Source\PSoC6\pdl\drivers/peripheral/ipc/cy_ipc_drv.h **** * They are system_psoc6.h, system_psoc6_cm0plus.c and system_psoc6_cm4.c. You 
 100:Generated_Source\PSoC6\pdl\drivers/peripheral/ipc/cy_ipc_drv.h **** * can modify these files based on the requirements of your design. 
 101:Generated_Source\PSoC6\pdl\drivers/peripheral/ipc/cy_ipc_drv.h **** * If you use PSoC Creator as a development environment, it will not overwrite 
 102:Generated_Source\PSoC6\pdl\drivers/peripheral/ipc/cy_ipc_drv.h **** * your changes when you generate the application or build your code.
 103:Generated_Source\PSoC6\pdl\drivers/peripheral/ipc/cy_ipc_drv.h **** *
 104:Generated_Source\PSoC6\pdl\drivers/peripheral/ipc/cy_ipc_drv.h **** * \section group_ipc_pipe_layer PIPE layer
 105:Generated_Source\PSoC6\pdl\drivers/peripheral/ipc/cy_ipc_drv.h **** *
 106:Generated_Source\PSoC6\pdl\drivers/peripheral/ipc/cy_ipc_drv.h **** * A pipe is a communication channel between two endpoints. PSoC 6 devices support
 107:Generated_Source\PSoC6\pdl\drivers/peripheral/ipc/cy_ipc_drv.h **** * 16 IPC channels, and 16 IPC interrupts, each numbered 0-15. IPC Channels 0-7
 108:Generated_Source\PSoC6\pdl\drivers/peripheral/ipc/cy_ipc_drv.h **** * and IPC interrupts 0-7 are reserved for system use. Channels 8-15 and
 109:Generated_Source\PSoC6\pdl\drivers/peripheral/ipc/cy_ipc_drv.h **** * interrupts 8-15 are available for application use.
 110:Generated_Source\PSoC6\pdl\drivers/peripheral/ipc/cy_ipc_drv.h **** *
 111:Generated_Source\PSoC6\pdl\drivers/peripheral/ipc/cy_ipc_drv.h **** * A full duplex pipe uses two IPC channels, one per endpoint. Each endpoint
 112:Generated_Source\PSoC6\pdl\drivers/peripheral/ipc/cy_ipc_drv.h **** * specifies all the information required to process a message (either sent or
 113:Generated_Source\PSoC6\pdl\drivers/peripheral/ipc/cy_ipc_drv.h **** * received). Each endpoint is configured to use an IPC channel, and an IPC
 114:Generated_Source\PSoC6\pdl\drivers/peripheral/ipc/cy_ipc_drv.h **** * interrupt. Common practice is to use the interrupt with the same number as
 115:Generated_Source\PSoC6\pdl\drivers/peripheral/ipc/cy_ipc_drv.h **** * the IPC channel. However, IPC Interrupts are not directly associated with the
 116:Generated_Source\PSoC6\pdl\drivers/peripheral/ipc/cy_ipc_drv.h **** * IPC channels, so any channel can use any interrupt.  Any IPC channel can
 117:Generated_Source\PSoC6\pdl\drivers/peripheral/ipc/cy_ipc_drv.h **** * trigger 0, 1 or all the IPC interrupts at once, depending on the Notify or
 118:Generated_Source\PSoC6\pdl\drivers/peripheral/ipc/cy_ipc_drv.h **** * Release masks used.
 119:Generated_Source\PSoC6\pdl\drivers/peripheral/ipc/cy_ipc_drv.h **** *
 120:Generated_Source\PSoC6\pdl\drivers/peripheral/ipc/cy_ipc_drv.h **** * It is also possible to set up a one-directional pipe, using a single IPC
 121:Generated_Source\PSoC6\pdl\drivers/peripheral/ipc/cy_ipc_drv.h **** * channel. In this design one processor is always the sender, and the other is
 122:Generated_Source\PSoC6\pdl\drivers/peripheral/ipc/cy_ipc_drv.h **** * always the receiver. However, there are still two endpoints.
 123:Generated_Source\PSoC6\pdl\drivers/peripheral/ipc/cy_ipc_drv.h **** *
 124:Generated_Source\PSoC6\pdl\drivers/peripheral/ipc/cy_ipc_drv.h **** * A pipe supports an arbitrary number of clients with an array of callback
 125:Generated_Source\PSoC6\pdl\drivers/peripheral/ipc/cy_ipc_drv.h **** * functions, one per client. The client ID is the index number into the array
 126:Generated_Source\PSoC6\pdl\drivers/peripheral/ipc/cy_ipc_drv.h **** * for the client. After a pipe is configured and initialized, the application
 127:Generated_Source\PSoC6\pdl\drivers/peripheral/ipc/cy_ipc_drv.h **** * calls Cy_IPC_Pipe_RegisterCallback() once per client to register each client's
 128:Generated_Source\PSoC6\pdl\drivers/peripheral/ipc/cy_ipc_drv.h **** * callback function. Multiple clients can use the same callback function. The
 129:Generated_Source\PSoC6\pdl\drivers/peripheral/ipc/cy_ipc_drv.h **** * endpoints in a pipe share the callback array.
 130:Generated_Source\PSoC6\pdl\drivers/peripheral/ipc/cy_ipc_drv.h **** *
 131:Generated_Source\PSoC6\pdl\drivers/peripheral/ipc/cy_ipc_drv.h **** * Use Cy_IPC_Pipe_SendMessage() to send data. You specify both the "to" and
 132:Generated_Source\PSoC6\pdl\drivers/peripheral/ipc/cy_ipc_drv.h **** * "from" endpoints, and a callback function to be used when the data transfer is
 133:Generated_Source\PSoC6\pdl\drivers/peripheral/ipc/cy_ipc_drv.h **** * complete. The data is a 32-bit void pointer. The data pointed to is arbitrary,
 134:Generated_Source\PSoC6\pdl\drivers/peripheral/ipc/cy_ipc_drv.h **** * and can be an array, a structure, or a location in memory. The only limitation
 135:Generated_Source\PSoC6\pdl\drivers/peripheral/ipc/cy_ipc_drv.h **** * is that the first element of the data must be a 32-bit unsigned word containing
 136:Generated_Source\PSoC6\pdl\drivers/peripheral/ipc/cy_ipc_drv.h **** * a client ID number. The ID number is the index into the callback array.
 137:Generated_Source\PSoC6\pdl\drivers/peripheral/ipc/cy_ipc_drv.h **** *
 138:Generated_Source\PSoC6\pdl\drivers/peripheral/ipc/cy_ipc_drv.h **** * When a message is sent, the receiving endpoint's interrupt handler is called.
ARM GAS  C:\Users\Rolf\AppData\Local\Temp\ccTwK7ru.s 			page 15


 139:Generated_Source\PSoC6\pdl\drivers/peripheral/ipc/cy_ipc_drv.h **** * The ISR can perform any task required by the design. However, as part of its
 140:Generated_Source\PSoC6\pdl\drivers/peripheral/ipc/cy_ipc_drv.h **** * function it calls \ref Cy_IPC_Pipe_ExecCallback. This function retrieves the
 141:Generated_Source\PSoC6\pdl\drivers/peripheral/ipc/cy_ipc_drv.h **** * client ID from the data and calls the associated callback function.
 142:Generated_Source\PSoC6\pdl\drivers/peripheral/ipc/cy_ipc_drv.h **** * The user-supplied callback function handles the data in whatever way is
 143:Generated_Source\PSoC6\pdl\drivers/peripheral/ipc/cy_ipc_drv.h **** * appropriate based on the application logic.
 144:Generated_Source\PSoC6\pdl\drivers/peripheral/ipc/cy_ipc_drv.h **** *
 145:Generated_Source\PSoC6\pdl\drivers/peripheral/ipc/cy_ipc_drv.h **** * After the callback function is returned by the receiver, it invokes the release
 146:Generated_Source\PSoC6\pdl\drivers/peripheral/ipc/cy_ipc_drv.h **** * callback function defined by the sender of the message.
 147:Generated_Source\PSoC6\pdl\drivers/peripheral/ipc/cy_ipc_drv.h **** *
 148:Generated_Source\PSoC6\pdl\drivers/peripheral/ipc/cy_ipc_drv.h **** * \section group_ipc_sema_layer SEMA Layer
 149:Generated_Source\PSoC6\pdl\drivers/peripheral/ipc/cy_ipc_drv.h **** *
 150:Generated_Source\PSoC6\pdl\drivers/peripheral/ipc/cy_ipc_drv.h **** * A semaphore is a flag the application uses to control access to a shared
 151:Generated_Source\PSoC6\pdl\drivers/peripheral/ipc/cy_ipc_drv.h **** * resource. The SEMA-level API uses an IPC channel to implement
 152:Generated_Source\PSoC6\pdl\drivers/peripheral/ipc/cy_ipc_drv.h **** * semaphores. Startup code sets up a default semaphore system. The
 153:Generated_Source\PSoC6\pdl\drivers/peripheral/ipc/cy_ipc_drv.h **** * default system creates an array of 128 semaphores (four 32-bit values).
 154:Generated_Source\PSoC6\pdl\drivers/peripheral/ipc/cy_ipc_drv.h **** * Semaphores 0-15 are reserved for system use. See
 155:Generated_Source\PSoC6\pdl\drivers/peripheral/ipc/cy_ipc_drv.h **** * Configuration Considerations - SEMA.
 156:Generated_Source\PSoC6\pdl\drivers/peripheral/ipc/cy_ipc_drv.h **** *
 157:Generated_Source\PSoC6\pdl\drivers/peripheral/ipc/cy_ipc_drv.h **** * Functions are available to initialize the semaphore system, to set or
 158:Generated_Source\PSoC6\pdl\drivers/peripheral/ipc/cy_ipc_drv.h **** * clear a semaphore, or to get the semaphore's current status. Application
 159:Generated_Source\PSoC6\pdl\drivers/peripheral/ipc/cy_ipc_drv.h **** * logic uses SEMA functions to relate a particular semaphore to a particular
 160:Generated_Source\PSoC6\pdl\drivers/peripheral/ipc/cy_ipc_drv.h **** * shared resource, and set, clear, or check the flag when accessing the
 161:Generated_Source\PSoC6\pdl\drivers/peripheral/ipc/cy_ipc_drv.h **** * shared resource.
 162:Generated_Source\PSoC6\pdl\drivers/peripheral/ipc/cy_ipc_drv.h **** *
 163:Generated_Source\PSoC6\pdl\drivers/peripheral/ipc/cy_ipc_drv.h **** * \section group_ipc_configuration_cypipe Configuration Considerations - CYPIPE
 164:Generated_Source\PSoC6\pdl\drivers/peripheral/ipc/cy_ipc_drv.h **** *
 165:Generated_Source\PSoC6\pdl\drivers/peripheral/ipc/cy_ipc_drv.h **** * There are none. The startup files set up the required CYPIPE for system
 166:Generated_Source\PSoC6\pdl\drivers/peripheral/ipc/cy_ipc_drv.h **** * use. Do not modify the CYPIPE. It uses IPC channels 5 and 6 to implement full
 167:Generated_Source\PSoC6\pdl\drivers/peripheral/ipc/cy_ipc_drv.h **** * duplex communication between cores. See System Interrupt (SysInt) for background.
 168:Generated_Source\PSoC6\pdl\drivers/peripheral/ipc/cy_ipc_drv.h **** *
 169:Generated_Source\PSoC6\pdl\drivers/peripheral/ipc/cy_ipc_drv.h **** * To create your own pipe (<b>USRPIPE</b>) you should edit startup files
 170:Generated_Source\PSoC6\pdl\drivers/peripheral/ipc/cy_ipc_drv.h **** * and take 4 steps:
 171:Generated_Source\PSoC6\pdl\drivers/peripheral/ipc/cy_ipc_drv.h **** *   -# Define a pipe callbacks processing interrupt handler
 172:Generated_Source\PSoC6\pdl\drivers/peripheral/ipc/cy_ipc_drv.h **** *      (similar to <b>Cy_SysIpcPipeIsrCm0</b> or <b>Cy_SysIpcPipeIsrCm4</b>)
 173:Generated_Source\PSoC6\pdl\drivers/peripheral/ipc/cy_ipc_drv.h **** *   -# Define a callbacks array (similar to <b>systemIpcPipeSysCbArray</b>)
 174:Generated_Source\PSoC6\pdl\drivers/peripheral/ipc/cy_ipc_drv.h **** *   -# Define your pipe configuration with a cy_stc_ipc_pipe_config_t type structure
 175:Generated_Source\PSoC6\pdl\drivers/peripheral/ipc/cy_ipc_drv.h **** *      (similar to <b>systemIpcPipeConfigCm0</b> and <b>systemIpcPipeConfigCm4</b>)
 176:Generated_Source\PSoC6\pdl\drivers/peripheral/ipc/cy_ipc_drv.h **** *   -# Call Cy_IPC_Pipe_Init() from each core to initialize your pipe (similar
 177:Generated_Source\PSoC6\pdl\drivers/peripheral/ipc/cy_ipc_drv.h **** *      to call in the <b>SystemInit</b>)
 178:Generated_Source\PSoC6\pdl\drivers/peripheral/ipc/cy_ipc_drv.h **** *
 179:Generated_Source\PSoC6\pdl\drivers/peripheral/ipc/cy_ipc_drv.h **** * \section group_ipc_configuration_sema Configuration Considerations - SEMA
 180:Generated_Source\PSoC6\pdl\drivers/peripheral/ipc/cy_ipc_drv.h **** *
 181:Generated_Source\PSoC6\pdl\drivers/peripheral/ipc/cy_ipc_drv.h **** * Startup code calls Cy_IPC_Sema_Init() with default values to set up semaphore 
 182:Generated_Source\PSoC6\pdl\drivers/peripheral/ipc/cy_ipc_drv.h **** * functionality. By default the semaphore system uses IPC channel 4, and 
 183:Generated_Source\PSoC6\pdl\drivers/peripheral/ipc/cy_ipc_drv.h **** * creates 128 semaphores. Do <b>not</b> change the IPC channel. 
 184:Generated_Source\PSoC6\pdl\drivers/peripheral/ipc/cy_ipc_drv.h **** * You can change the number of semaphores.
 185:Generated_Source\PSoC6\pdl\drivers/peripheral/ipc/cy_ipc_drv.h **** *
 186:Generated_Source\PSoC6\pdl\drivers/peripheral/ipc/cy_ipc_drv.h **** * To change the number of semaphores, modify this line of code in system_psoc6.h.
 187:Generated_Source\PSoC6\pdl\drivers/peripheral/ipc/cy_ipc_drv.h **** *
 188:Generated_Source\PSoC6\pdl\drivers/peripheral/ipc/cy_ipc_drv.h **** * \code
 189:Generated_Source\PSoC6\pdl\drivers/peripheral/ipc/cy_ipc_drv.h **** * #define CY_IPC_SEMA_COUNT               (uint32_t)(128u)
 190:Generated_Source\PSoC6\pdl\drivers/peripheral/ipc/cy_ipc_drv.h **** * \endcode
 191:Generated_Source\PSoC6\pdl\drivers/peripheral/ipc/cy_ipc_drv.h **** *
 192:Generated_Source\PSoC6\pdl\drivers/peripheral/ipc/cy_ipc_drv.h **** * Startup also declares array ipcSemaArray to hold the semaphore
 193:Generated_Source\PSoC6\pdl\drivers/peripheral/ipc/cy_ipc_drv.h **** * flags based on the size defined for this symbol. Use increments of 32. You
 194:Generated_Source\PSoC6\pdl\drivers/peripheral/ipc/cy_ipc_drv.h **** * must have at least 32 semaphores. Semaphores 0-15 are reserved for
 195:Generated_Source\PSoC6\pdl\drivers/peripheral/ipc/cy_ipc_drv.h **** * system use. Your application can use semaphores greater than 15.
ARM GAS  C:\Users\Rolf\AppData\Local\Temp\ccTwK7ru.s 			page 16


 196:Generated_Source\PSoC6\pdl\drivers/peripheral/ipc/cy_ipc_drv.h **** *
 197:Generated_Source\PSoC6\pdl\drivers/peripheral/ipc/cy_ipc_drv.h **** * \section group_ipc_more_information More Information
 198:Generated_Source\PSoC6\pdl\drivers/peripheral/ipc/cy_ipc_drv.h **** *
 199:Generated_Source\PSoC6\pdl\drivers/peripheral/ipc/cy_ipc_drv.h **** * If the default startup file is not used, or SystemInit() is not called in your 
 200:Generated_Source\PSoC6\pdl\drivers/peripheral/ipc/cy_ipc_drv.h **** * project, call the following three functions prior to executing any flash or 
 201:Generated_Source\PSoC6\pdl\drivers/peripheral/ipc/cy_ipc_drv.h **** * EmEEPROM write or erase operation:
 202:Generated_Source\PSoC6\pdl\drivers/peripheral/ipc/cy_ipc_drv.h **** *  -# Cy_IPC_Sema_Init()
 203:Generated_Source\PSoC6\pdl\drivers/peripheral/ipc/cy_ipc_drv.h **** *  -# Cy_IPC_Pipe_Config()
 204:Generated_Source\PSoC6\pdl\drivers/peripheral/ipc/cy_ipc_drv.h **** *  -# Cy_IPC_Pipe_Init()
 205:Generated_Source\PSoC6\pdl\drivers/peripheral/ipc/cy_ipc_drv.h **** *  -# Cy_Flash_Init()
 206:Generated_Source\PSoC6\pdl\drivers/peripheral/ipc/cy_ipc_drv.h **** *
 207:Generated_Source\PSoC6\pdl\drivers/peripheral/ipc/cy_ipc_drv.h **** * See the technical reference manual(TRM) for more information on the IPC.
 208:Generated_Source\PSoC6\pdl\drivers/peripheral/ipc/cy_ipc_drv.h **** *
 209:Generated_Source\PSoC6\pdl\drivers/peripheral/ipc/cy_ipc_drv.h **** * \section group_ipc_MISRA MISRA-C Compliance
 210:Generated_Source\PSoC6\pdl\drivers/peripheral/ipc/cy_ipc_drv.h **** *
 211:Generated_Source\PSoC6\pdl\drivers/peripheral/ipc/cy_ipc_drv.h **** * <table class="doxtable">
 212:Generated_Source\PSoC6\pdl\drivers/peripheral/ipc/cy_ipc_drv.h **** *   <tr>
 213:Generated_Source\PSoC6\pdl\drivers/peripheral/ipc/cy_ipc_drv.h **** *     <th>MISRA Rule</th>
 214:Generated_Source\PSoC6\pdl\drivers/peripheral/ipc/cy_ipc_drv.h **** *     <th>Rule Class (Required/Advisory)</th>
 215:Generated_Source\PSoC6\pdl\drivers/peripheral/ipc/cy_ipc_drv.h **** *     <th>Rule Description</th>
 216:Generated_Source\PSoC6\pdl\drivers/peripheral/ipc/cy_ipc_drv.h **** *     <th style="width: 50%;">Description of Deviation(s)</th>
 217:Generated_Source\PSoC6\pdl\drivers/peripheral/ipc/cy_ipc_drv.h **** *   </tr>
 218:Generated_Source\PSoC6\pdl\drivers/peripheral/ipc/cy_ipc_drv.h **** *   <tr>
 219:Generated_Source\PSoC6\pdl\drivers/peripheral/ipc/cy_ipc_drv.h **** *     <td>10.3</td>
 220:Generated_Source\PSoC6\pdl\drivers/peripheral/ipc/cy_ipc_drv.h **** *     <td>R</td>
 221:Generated_Source\PSoC6\pdl\drivers/peripheral/ipc/cy_ipc_drv.h **** *     <td>The value of a complex expression of integer type shall be cast
 222:Generated_Source\PSoC6\pdl\drivers/peripheral/ipc/cy_ipc_drv.h **** *         only to a type of the same signedness that is no wider than the underlying
 223:Generated_Source\PSoC6\pdl\drivers/peripheral/ipc/cy_ipc_drv.h **** *         type of the expression.</td>
 224:Generated_Source\PSoC6\pdl\drivers/peripheral/ipc/cy_ipc_drv.h **** *     <td>The cast from integer to enumeration value is used to calculate
 225:Generated_Source\PSoC6\pdl\drivers/peripheral/ipc/cy_ipc_drv.h **** *         the interrupt vector source from the integer number of the IPC interrupt
 226:Generated_Source\PSoC6\pdl\drivers/peripheral/ipc/cy_ipc_drv.h **** *         structure, so there is no way to avoid this cast.</td>
 227:Generated_Source\PSoC6\pdl\drivers/peripheral/ipc/cy_ipc_drv.h **** *   </tr>
 228:Generated_Source\PSoC6\pdl\drivers/peripheral/ipc/cy_ipc_drv.h **** *   <tr>
 229:Generated_Source\PSoC6\pdl\drivers/peripheral/ipc/cy_ipc_drv.h **** *     <td>11.4</td>
 230:Generated_Source\PSoC6\pdl\drivers/peripheral/ipc/cy_ipc_drv.h **** *     <td>A</td>
 231:Generated_Source\PSoC6\pdl\drivers/peripheral/ipc/cy_ipc_drv.h **** *     <td>A cast should not be performed between a pointer to the void to a
 232:Generated_Source\PSoC6\pdl\drivers/peripheral/ipc/cy_ipc_drv.h **** *         pointer to the object type.</td>
 233:Generated_Source\PSoC6\pdl\drivers/peripheral/ipc/cy_ipc_drv.h **** *     <td>The cast from the void to pointer and vice versa is used to transmit
 234:Generated_Source\PSoC6\pdl\drivers/peripheral/ipc/cy_ipc_drv.h **** *         data via the \ref group_ipc channel by exchanging the pointer. We
 235:Generated_Source\PSoC6\pdl\drivers/peripheral/ipc/cy_ipc_drv.h **** *         exchange only one pointer, so there is no way to avoid this cast.</td>
 236:Generated_Source\PSoC6\pdl\drivers/peripheral/ipc/cy_ipc_drv.h **** *   </tr>
 237:Generated_Source\PSoC6\pdl\drivers/peripheral/ipc/cy_ipc_drv.h **** * </table>
 238:Generated_Source\PSoC6\pdl\drivers/peripheral/ipc/cy_ipc_drv.h **** *
 239:Generated_Source\PSoC6\pdl\drivers/peripheral/ipc/cy_ipc_drv.h **** * \section group_ipc_changelog Changelog
 240:Generated_Source\PSoC6\pdl\drivers/peripheral/ipc/cy_ipc_drv.h **** *
 241:Generated_Source\PSoC6\pdl\drivers/peripheral/ipc/cy_ipc_drv.h **** * <table class="doxtable">
 242:Generated_Source\PSoC6\pdl\drivers/peripheral/ipc/cy_ipc_drv.h **** *   <tr><th>Version</th><th>Changes</th><th>Reason for Change</th></tr>
 243:Generated_Source\PSoC6\pdl\drivers/peripheral/ipc/cy_ipc_drv.h **** *   <tr>
 244:Generated_Source\PSoC6\pdl\drivers/peripheral/ipc/cy_ipc_drv.h **** *     <td rowspan="3">1.30</td>
 245:Generated_Source\PSoC6\pdl\drivers/peripheral/ipc/cy_ipc_drv.h **** *     <td>Flattened the organization of the driver source code into the single source directory and
 246:Generated_Source\PSoC6\pdl\drivers/peripheral/ipc/cy_ipc_drv.h **** *     <td>Driver library directory-structure simplification.</td>
 247:Generated_Source\PSoC6\pdl\drivers/peripheral/ipc/cy_ipc_drv.h **** *   </tr>
 248:Generated_Source\PSoC6\pdl\drivers/peripheral/ipc/cy_ipc_drv.h **** *   <tr>
 249:Generated_Source\PSoC6\pdl\drivers/peripheral/ipc/cy_ipc_drv.h **** *     <td>Moved the Cy_IPC_SystemSemaInit(), Cy_IPC_SystemPipeInit() functions implementation from 
 250:Generated_Source\PSoC6\pdl\drivers/peripheral/ipc/cy_ipc_drv.h **** *     <td>Changed IPC driver configuration method from compile time to run time.</td>
 251:Generated_Source\PSoC6\pdl\drivers/peripheral/ipc/cy_ipc_drv.h **** *   </tr>
 252:Generated_Source\PSoC6\pdl\drivers/peripheral/ipc/cy_ipc_drv.h **** *   <tr>
ARM GAS  C:\Users\Rolf\AppData\Local\Temp\ccTwK7ru.s 			page 17


 253:Generated_Source\PSoC6\pdl\drivers/peripheral/ipc/cy_ipc_drv.h **** *     <td>Added register access layer. Use register access macros instead
 254:Generated_Source\PSoC6\pdl\drivers/peripheral/ipc/cy_ipc_drv.h **** *         of direct register access using dereferenced pointers.</td>
 255:Generated_Source\PSoC6\pdl\drivers/peripheral/ipc/cy_ipc_drv.h **** *     <td>Makes register access device-independent, so that the PDL does 
 256:Generated_Source\PSoC6\pdl\drivers/peripheral/ipc/cy_ipc_drv.h **** *         not need to be recompiled for each supported part number.</td>
 257:Generated_Source\PSoC6\pdl\drivers/peripheral/ipc/cy_ipc_drv.h **** *   </tr>
 258:Generated_Source\PSoC6\pdl\drivers/peripheral/ipc/cy_ipc_drv.h **** *   <tr>
 259:Generated_Source\PSoC6\pdl\drivers/peripheral/ipc/cy_ipc_drv.h **** *     <td>1.20</td>
 260:Generated_Source\PSoC6\pdl\drivers/peripheral/ipc/cy_ipc_drv.h **** *     <td>Added \ref Cy_IPC_Pipe_ExecuteCallback function.
 261:Generated_Source\PSoC6\pdl\drivers/peripheral/ipc/cy_ipc_drv.h **** *         Updated documentation about user pipe initialization.
 262:Generated_Source\PSoC6\pdl\drivers/peripheral/ipc/cy_ipc_drv.h **** *     </td>
 263:Generated_Source\PSoC6\pdl\drivers/peripheral/ipc/cy_ipc_drv.h **** *     <td>Interface improvement, documentation update</td>
 264:Generated_Source\PSoC6\pdl\drivers/peripheral/ipc/cy_ipc_drv.h **** *   </tr>
 265:Generated_Source\PSoC6\pdl\drivers/peripheral/ipc/cy_ipc_drv.h **** *   <tr>
 266:Generated_Source\PSoC6\pdl\drivers/peripheral/ipc/cy_ipc_drv.h **** *     <td>1.10.1</td>
 267:Generated_Source\PSoC6\pdl\drivers/peripheral/ipc/cy_ipc_drv.h **** *     <td>Updated description of the \ref Cy_IPC_Pipe_Init,
 268:Generated_Source\PSoC6\pdl\drivers/peripheral/ipc/cy_ipc_drv.h **** *         \ref Cy_IPC_Pipe_EndpointInit, \ref Cy_IPC_Sema_Set functions.
 269:Generated_Source\PSoC6\pdl\drivers/peripheral/ipc/cy_ipc_drv.h **** *         Added / updated code snippets.
 270:Generated_Source\PSoC6\pdl\drivers/peripheral/ipc/cy_ipc_drv.h **** *     </td>
 271:Generated_Source\PSoC6\pdl\drivers/peripheral/ipc/cy_ipc_drv.h **** *     <td>Documentation update and clarification</td>
 272:Generated_Source\PSoC6\pdl\drivers/peripheral/ipc/cy_ipc_drv.h **** *   </tr>
 273:Generated_Source\PSoC6\pdl\drivers/peripheral/ipc/cy_ipc_drv.h **** *   <tr>
 274:Generated_Source\PSoC6\pdl\drivers/peripheral/ipc/cy_ipc_drv.h **** *     <td>1.10</td>
 275:Generated_Source\PSoC6\pdl\drivers/peripheral/ipc/cy_ipc_drv.h **** *     <td>Added support for more IPC structures</td>
 276:Generated_Source\PSoC6\pdl\drivers/peripheral/ipc/cy_ipc_drv.h **** *     <td>New device support</td>
 277:Generated_Source\PSoC6\pdl\drivers/peripheral/ipc/cy_ipc_drv.h **** *   </tr>
 278:Generated_Source\PSoC6\pdl\drivers/peripheral/ipc/cy_ipc_drv.h **** *   <tr>
 279:Generated_Source\PSoC6\pdl\drivers/peripheral/ipc/cy_ipc_drv.h **** *     <td>1.0</td>
 280:Generated_Source\PSoC6\pdl\drivers/peripheral/ipc/cy_ipc_drv.h **** *     <td>Initial version</td>
 281:Generated_Source\PSoC6\pdl\drivers/peripheral/ipc/cy_ipc_drv.h **** *     <td></td>
 282:Generated_Source\PSoC6\pdl\drivers/peripheral/ipc/cy_ipc_drv.h **** *   </tr>
 283:Generated_Source\PSoC6\pdl\drivers/peripheral/ipc/cy_ipc_drv.h **** * </table>
 284:Generated_Source\PSoC6\pdl\drivers/peripheral/ipc/cy_ipc_drv.h **** *
 285:Generated_Source\PSoC6\pdl\drivers/peripheral/ipc/cy_ipc_drv.h **** * \defgroup group_ipc_drv IPC driver layer (IPC_DRV)
 286:Generated_Source\PSoC6\pdl\drivers/peripheral/ipc/cy_ipc_drv.h **** * \{
 287:Generated_Source\PSoC6\pdl\drivers/peripheral/ipc/cy_ipc_drv.h **** *   The functions of this layer are used in the higher IPC levels
 288:Generated_Source\PSoC6\pdl\drivers/peripheral/ipc/cy_ipc_drv.h **** *   (Semaphores and Pipes).
 289:Generated_Source\PSoC6\pdl\drivers/peripheral/ipc/cy_ipc_drv.h **** *   Users are not expected to call any of these IPC functions directly (cy_ipc_drv.h). 
 290:Generated_Source\PSoC6\pdl\drivers/peripheral/ipc/cy_ipc_drv.h **** *   Instead include either of cy_ipc_sema.h or cy_ipc_pipe.h. 
 291:Generated_Source\PSoC6\pdl\drivers/peripheral/ipc/cy_ipc_drv.h **** *   Alternatively include cy_pdl.h to get access to all functions and declarations in the PDL.
 292:Generated_Source\PSoC6\pdl\drivers/peripheral/ipc/cy_ipc_drv.h **** *
 293:Generated_Source\PSoC6\pdl\drivers/peripheral/ipc/cy_ipc_drv.h **** *   \defgroup group_ipc_macros Macros
 294:Generated_Source\PSoC6\pdl\drivers/peripheral/ipc/cy_ipc_drv.h **** *       Macro definitions are used in the driver
 295:Generated_Source\PSoC6\pdl\drivers/peripheral/ipc/cy_ipc_drv.h **** *
 296:Generated_Source\PSoC6\pdl\drivers/peripheral/ipc/cy_ipc_drv.h **** *   \defgroup group_ipc_functions Functions
 297:Generated_Source\PSoC6\pdl\drivers/peripheral/ipc/cy_ipc_drv.h **** *       Functions are used in the driver
 298:Generated_Source\PSoC6\pdl\drivers/peripheral/ipc/cy_ipc_drv.h **** *
 299:Generated_Source\PSoC6\pdl\drivers/peripheral/ipc/cy_ipc_drv.h **** *   \defgroup group_ipc_data_structures Data Structures
 300:Generated_Source\PSoC6\pdl\drivers/peripheral/ipc/cy_ipc_drv.h **** *       Data structures are used in the driver
 301:Generated_Source\PSoC6\pdl\drivers/peripheral/ipc/cy_ipc_drv.h **** *
 302:Generated_Source\PSoC6\pdl\drivers/peripheral/ipc/cy_ipc_drv.h **** *   \defgroup group_ipc_enums Enumerated Types
 303:Generated_Source\PSoC6\pdl\drivers/peripheral/ipc/cy_ipc_drv.h **** *       Enumerations are used in the driver
 304:Generated_Source\PSoC6\pdl\drivers/peripheral/ipc/cy_ipc_drv.h **** * \}
 305:Generated_Source\PSoC6\pdl\drivers/peripheral/ipc/cy_ipc_drv.h **** *
 306:Generated_Source\PSoC6\pdl\drivers/peripheral/ipc/cy_ipc_drv.h **** * \defgroup group_ipc_sema IPC semaphores layer (IPC_SEMA)
 307:Generated_Source\PSoC6\pdl\drivers/peripheral/ipc/cy_ipc_drv.h **** * \defgroup group_ipc_pipe IPC pipes layer (IPC_PIPE)
 308:Generated_Source\PSoC6\pdl\drivers/peripheral/ipc/cy_ipc_drv.h **** *
 309:Generated_Source\PSoC6\pdl\drivers/peripheral/ipc/cy_ipc_drv.h **** */
ARM GAS  C:\Users\Rolf\AppData\Local\Temp\ccTwK7ru.s 			page 18


 310:Generated_Source\PSoC6\pdl\drivers/peripheral/ipc/cy_ipc_drv.h **** 
 311:Generated_Source\PSoC6\pdl\drivers/peripheral/ipc/cy_ipc_drv.h **** 
 312:Generated_Source\PSoC6\pdl\drivers/peripheral/ipc/cy_ipc_drv.h **** /******************************************************************************/
 313:Generated_Source\PSoC6\pdl\drivers/peripheral/ipc/cy_ipc_drv.h **** /* Include files                                                              */
 314:Generated_Source\PSoC6\pdl\drivers/peripheral/ipc/cy_ipc_drv.h **** /******************************************************************************/
 315:Generated_Source\PSoC6\pdl\drivers/peripheral/ipc/cy_ipc_drv.h **** 
 316:Generated_Source\PSoC6\pdl\drivers/peripheral/ipc/cy_ipc_drv.h **** #include "cy_device.h"
 317:Generated_Source\PSoC6\pdl\drivers/peripheral/ipc/cy_ipc_drv.h **** #include "cy_device_headers.h"
 318:Generated_Source\PSoC6\pdl\drivers/peripheral/ipc/cy_ipc_drv.h **** #include "cy_syslib.h"
 319:Generated_Source\PSoC6\pdl\drivers/peripheral/ipc/cy_ipc_drv.h **** #include <stddef.h>
 320:Generated_Source\PSoC6\pdl\drivers/peripheral/ipc/cy_ipc_drv.h **** 
 321:Generated_Source\PSoC6\pdl\drivers/peripheral/ipc/cy_ipc_drv.h **** 
 322:Generated_Source\PSoC6\pdl\drivers/peripheral/ipc/cy_ipc_drv.h **** /**
 323:Generated_Source\PSoC6\pdl\drivers/peripheral/ipc/cy_ipc_drv.h **** * \addtogroup group_ipc_macros
 324:Generated_Source\PSoC6\pdl\drivers/peripheral/ipc/cy_ipc_drv.h **** * \{
 325:Generated_Source\PSoC6\pdl\drivers/peripheral/ipc/cy_ipc_drv.h **** */
 326:Generated_Source\PSoC6\pdl\drivers/peripheral/ipc/cy_ipc_drv.h **** 
 327:Generated_Source\PSoC6\pdl\drivers/peripheral/ipc/cy_ipc_drv.h **** /** Driver major version */
 328:Generated_Source\PSoC6\pdl\drivers/peripheral/ipc/cy_ipc_drv.h **** #define CY_IPC_DRV_VERSION_MAJOR       1
 329:Generated_Source\PSoC6\pdl\drivers/peripheral/ipc/cy_ipc_drv.h **** 
 330:Generated_Source\PSoC6\pdl\drivers/peripheral/ipc/cy_ipc_drv.h **** /** Driver minor version */
 331:Generated_Source\PSoC6\pdl\drivers/peripheral/ipc/cy_ipc_drv.h **** #define CY_IPC_DRV_VERSION_MINOR       30
 332:Generated_Source\PSoC6\pdl\drivers/peripheral/ipc/cy_ipc_drv.h **** 
 333:Generated_Source\PSoC6\pdl\drivers/peripheral/ipc/cy_ipc_drv.h **** /** Defines a value to indicate that no notification events are needed */
 334:Generated_Source\PSoC6\pdl\drivers/peripheral/ipc/cy_ipc_drv.h **** #define CY_IPC_NO_NOTIFICATION         (uint32_t)(0x00000000ul)
 335:Generated_Source\PSoC6\pdl\drivers/peripheral/ipc/cy_ipc_drv.h **** 
 336:Generated_Source\PSoC6\pdl\drivers/peripheral/ipc/cy_ipc_drv.h **** /* Error Code constants */
 337:Generated_Source\PSoC6\pdl\drivers/peripheral/ipc/cy_ipc_drv.h **** #define CY_IPC_ID CY_PDL_DRV_ID(0x22u)  /**< Software PDL driver ID for IPC */
 338:Generated_Source\PSoC6\pdl\drivers/peripheral/ipc/cy_ipc_drv.h **** 
 339:Generated_Source\PSoC6\pdl\drivers/peripheral/ipc/cy_ipc_drv.h **** /** Return prefix for IPC driver function status codes */
 340:Generated_Source\PSoC6\pdl\drivers/peripheral/ipc/cy_ipc_drv.h **** #define CY_IPC_ID_INFO    (uint32_t)( CY_IPC_ID | CY_PDL_STATUS_INFO )
 341:Generated_Source\PSoC6\pdl\drivers/peripheral/ipc/cy_ipc_drv.h **** /** Return prefix for IPC driver function warning return values */
 342:Generated_Source\PSoC6\pdl\drivers/peripheral/ipc/cy_ipc_drv.h **** #define CY_IPC_ID_WARNING (uint32_t)( CY_IPC_ID | CY_PDL_STATUS_WARNING)
 343:Generated_Source\PSoC6\pdl\drivers/peripheral/ipc/cy_ipc_drv.h **** /** Return prefix for IPC driver function error return values */
 344:Generated_Source\PSoC6\pdl\drivers/peripheral/ipc/cy_ipc_drv.h **** #define CY_IPC_ID_ERROR   (uint32_t)( CY_IPC_ID | CY_PDL_STATUS_ERROR)
 345:Generated_Source\PSoC6\pdl\drivers/peripheral/ipc/cy_ipc_drv.h **** 
 346:Generated_Source\PSoC6\pdl\drivers/peripheral/ipc/cy_ipc_drv.h **** /** Converts the IPC interrupt channel number to interrupt vector */
 347:Generated_Source\PSoC6\pdl\drivers/peripheral/ipc/cy_ipc_drv.h **** #define CY_IPC_INTR_NUM_TO_VECT(x)         ((int32_t) cy_device->cpussIpc0Irq + (x))
 348:Generated_Source\PSoC6\pdl\drivers/peripheral/ipc/cy_ipc_drv.h **** 
 349:Generated_Source\PSoC6\pdl\drivers/peripheral/ipc/cy_ipc_drv.h **** /** \} group_ipc_macros */
 350:Generated_Source\PSoC6\pdl\drivers/peripheral/ipc/cy_ipc_drv.h **** 
 351:Generated_Source\PSoC6\pdl\drivers/peripheral/ipc/cy_ipc_drv.h **** /* end of definition in device.h */
 352:Generated_Source\PSoC6\pdl\drivers/peripheral/ipc/cy_ipc_drv.h **** 
 353:Generated_Source\PSoC6\pdl\drivers/peripheral/ipc/cy_ipc_drv.h **** /** \cond INTERNAL */
 354:Generated_Source\PSoC6\pdl\drivers/peripheral/ipc/cy_ipc_drv.h **** #if (CY_CPU_CORTEX_M0P)
 355:Generated_Source\PSoC6\pdl\drivers/peripheral/ipc/cy_ipc_drv.h ****     #define CY_IPC_CHAN_SYSCALL         CY_IPC_CHAN_SYSCALL_CM0
 356:Generated_Source\PSoC6\pdl\drivers/peripheral/ipc/cy_ipc_drv.h **** #else
 357:Generated_Source\PSoC6\pdl\drivers/peripheral/ipc/cy_ipc_drv.h ****     #define CY_IPC_CHAN_SYSCALL         CY_IPC_CHAN_SYSCALL_CM4
 358:Generated_Source\PSoC6\pdl\drivers/peripheral/ipc/cy_ipc_drv.h **** #endif  /* (CY_CPU_CORTEX_M0P) */
 359:Generated_Source\PSoC6\pdl\drivers/peripheral/ipc/cy_ipc_drv.h **** /** \endcond */
 360:Generated_Source\PSoC6\pdl\drivers/peripheral/ipc/cy_ipc_drv.h **** 
 361:Generated_Source\PSoC6\pdl\drivers/peripheral/ipc/cy_ipc_drv.h **** /**
 362:Generated_Source\PSoC6\pdl\drivers/peripheral/ipc/cy_ipc_drv.h **** * \addtogroup group_ipc_enums
 363:Generated_Source\PSoC6\pdl\drivers/peripheral/ipc/cy_ipc_drv.h **** * \{
 364:Generated_Source\PSoC6\pdl\drivers/peripheral/ipc/cy_ipc_drv.h **** */
 365:Generated_Source\PSoC6\pdl\drivers/peripheral/ipc/cy_ipc_drv.h **** 
 366:Generated_Source\PSoC6\pdl\drivers/peripheral/ipc/cy_ipc_drv.h **** /**
ARM GAS  C:\Users\Rolf\AppData\Local\Temp\ccTwK7ru.s 			page 19


 367:Generated_Source\PSoC6\pdl\drivers/peripheral/ipc/cy_ipc_drv.h **** * This is a list of ENUMs used for function return status.
 368:Generated_Source\PSoC6\pdl\drivers/peripheral/ipc/cy_ipc_drv.h **** */
 369:Generated_Source\PSoC6\pdl\drivers/peripheral/ipc/cy_ipc_drv.h **** typedef enum
 370:Generated_Source\PSoC6\pdl\drivers/peripheral/ipc/cy_ipc_drv.h **** {
 371:Generated_Source\PSoC6\pdl\drivers/peripheral/ipc/cy_ipc_drv.h ****     /** Function was successfully executed */
 372:Generated_Source\PSoC6\pdl\drivers/peripheral/ipc/cy_ipc_drv.h ****     CY_IPC_DRV_SUCCESS      = (0x00u),
 373:Generated_Source\PSoC6\pdl\drivers/peripheral/ipc/cy_ipc_drv.h ****     /** Function was not executed due to an error.
 374:Generated_Source\PSoC6\pdl\drivers/peripheral/ipc/cy_ipc_drv.h ****         Typical conditions for the error explained
 375:Generated_Source\PSoC6\pdl\drivers/peripheral/ipc/cy_ipc_drv.h ****         in the function description */
 376:Generated_Source\PSoC6\pdl\drivers/peripheral/ipc/cy_ipc_drv.h ****     CY_IPC_DRV_ERROR        = ( CY_IPC_ID_ERROR + 1ul),
 377:Generated_Source\PSoC6\pdl\drivers/peripheral/ipc/cy_ipc_drv.h **** } cy_en_ipcdrv_status_t;
 378:Generated_Source\PSoC6\pdl\drivers/peripheral/ipc/cy_ipc_drv.h **** 
 379:Generated_Source\PSoC6\pdl\drivers/peripheral/ipc/cy_ipc_drv.h **** /** \} group_ipc_enums */
 380:Generated_Source\PSoC6\pdl\drivers/peripheral/ipc/cy_ipc_drv.h **** 
 381:Generated_Source\PSoC6\pdl\drivers/peripheral/ipc/cy_ipc_drv.h **** 
 382:Generated_Source\PSoC6\pdl\drivers/peripheral/ipc/cy_ipc_drv.h **** #ifdef __cplusplus
 383:Generated_Source\PSoC6\pdl\drivers/peripheral/ipc/cy_ipc_drv.h **** extern "C" {
 384:Generated_Source\PSoC6\pdl\drivers/peripheral/ipc/cy_ipc_drv.h **** #endif
 385:Generated_Source\PSoC6\pdl\drivers/peripheral/ipc/cy_ipc_drv.h **** 
 386:Generated_Source\PSoC6\pdl\drivers/peripheral/ipc/cy_ipc_drv.h **** /** \cond INTERNAL */
 387:Generated_Source\PSoC6\pdl\drivers/peripheral/ipc/cy_ipc_drv.h **** 
 388:Generated_Source\PSoC6\pdl\drivers/peripheral/ipc/cy_ipc_drv.h **** __STATIC_INLINE void     Cy_IPC_Drv_WriteDataValue (IPC_STRUCT_Type* base, uint32_t dataValue);
 389:Generated_Source\PSoC6\pdl\drivers/peripheral/ipc/cy_ipc_drv.h **** __STATIC_INLINE uint32_t Cy_IPC_Drv_ReadDataValue (IPC_STRUCT_Type const * base);
 390:Generated_Source\PSoC6\pdl\drivers/peripheral/ipc/cy_ipc_drv.h **** 
 391:Generated_Source\PSoC6\pdl\drivers/peripheral/ipc/cy_ipc_drv.h **** __STATIC_INLINE uint32_t Cy_IPC_Drv_ExtractAcquireMask (uint32_t intMask);
 392:Generated_Source\PSoC6\pdl\drivers/peripheral/ipc/cy_ipc_drv.h **** __STATIC_INLINE uint32_t Cy_IPC_Drv_ExtractReleaseMask (uint32_t intMask);
 393:Generated_Source\PSoC6\pdl\drivers/peripheral/ipc/cy_ipc_drv.h **** 
 394:Generated_Source\PSoC6\pdl\drivers/peripheral/ipc/cy_ipc_drv.h **** /** \endcond */
 395:Generated_Source\PSoC6\pdl\drivers/peripheral/ipc/cy_ipc_drv.h **** 
 396:Generated_Source\PSoC6\pdl\drivers/peripheral/ipc/cy_ipc_drv.h **** /**
 397:Generated_Source\PSoC6\pdl\drivers/peripheral/ipc/cy_ipc_drv.h **** * \addtogroup group_ipc_functions
 398:Generated_Source\PSoC6\pdl\drivers/peripheral/ipc/cy_ipc_drv.h **** * \{
 399:Generated_Source\PSoC6\pdl\drivers/peripheral/ipc/cy_ipc_drv.h **** */
 400:Generated_Source\PSoC6\pdl\drivers/peripheral/ipc/cy_ipc_drv.h **** 
 401:Generated_Source\PSoC6\pdl\drivers/peripheral/ipc/cy_ipc_drv.h **** __STATIC_INLINE IPC_STRUCT_Type*       Cy_IPC_Drv_GetIpcBaseAddress (uint32_t ipcIndex);
 402:Generated_Source\PSoC6\pdl\drivers/peripheral/ipc/cy_ipc_drv.h **** __STATIC_INLINE IPC_INTR_STRUCT_Type*  Cy_IPC_Drv_GetIntrBaseAddr (uint32_t ipcIntrIndex);
 403:Generated_Source\PSoC6\pdl\drivers/peripheral/ipc/cy_ipc_drv.h **** 
 404:Generated_Source\PSoC6\pdl\drivers/peripheral/ipc/cy_ipc_drv.h **** __STATIC_INLINE void     Cy_IPC_Drv_AcquireNotify (IPC_STRUCT_Type * base, uint32_t notifyEventIntr
 405:Generated_Source\PSoC6\pdl\drivers/peripheral/ipc/cy_ipc_drv.h **** __STATIC_INLINE void     Cy_IPC_Drv_ReleaseNotify (IPC_STRUCT_Type * base, uint32_t notifyEventIntr
 406:Generated_Source\PSoC6\pdl\drivers/peripheral/ipc/cy_ipc_drv.h **** 
 407:Generated_Source\PSoC6\pdl\drivers/peripheral/ipc/cy_ipc_drv.h **** __STATIC_INLINE  cy_en_ipcdrv_status_t Cy_IPC_Drv_LockAcquire (IPC_STRUCT_Type const * base);
 408:Generated_Source\PSoC6\pdl\drivers/peripheral/ipc/cy_ipc_drv.h **** cy_en_ipcdrv_status_t    Cy_IPC_Drv_LockRelease (IPC_STRUCT_Type * base, uint32_t releaseEventIntr)
 409:Generated_Source\PSoC6\pdl\drivers/peripheral/ipc/cy_ipc_drv.h **** __STATIC_INLINE bool     Cy_IPC_Drv_IsLockAcquired (IPC_STRUCT_Type const * base);
 410:Generated_Source\PSoC6\pdl\drivers/peripheral/ipc/cy_ipc_drv.h **** __STATIC_INLINE uint32_t Cy_IPC_Drv_GetLockStatus (IPC_STRUCT_Type const * base);
 411:Generated_Source\PSoC6\pdl\drivers/peripheral/ipc/cy_ipc_drv.h **** 
 412:Generated_Source\PSoC6\pdl\drivers/peripheral/ipc/cy_ipc_drv.h **** cy_en_ipcdrv_status_t    Cy_IPC_Drv_SendMsgWord (IPC_STRUCT_Type * base, uint32_t notifyEventIntr, 
 413:Generated_Source\PSoC6\pdl\drivers/peripheral/ipc/cy_ipc_drv.h **** cy_en_ipcdrv_status_t    Cy_IPC_Drv_ReadMsgWord (IPC_STRUCT_Type const * base, uint32_t * message);
 414:Generated_Source\PSoC6\pdl\drivers/peripheral/ipc/cy_ipc_drv.h **** __STATIC_INLINE cy_en_ipcdrv_status_t Cy_IPC_Drv_SendMsgPtr (IPC_STRUCT_Type* base, uint32_t notify
 415:Generated_Source\PSoC6\pdl\drivers/peripheral/ipc/cy_ipc_drv.h **** __STATIC_INLINE cy_en_ipcdrv_status_t Cy_IPC_Drv_ReadMsgPtr (IPC_STRUCT_Type const * base, void ** 
 416:Generated_Source\PSoC6\pdl\drivers/peripheral/ipc/cy_ipc_drv.h **** 
 417:Generated_Source\PSoC6\pdl\drivers/peripheral/ipc/cy_ipc_drv.h **** __STATIC_INLINE void     Cy_IPC_Drv_SetInterruptMask (IPC_INTR_STRUCT_Type * base,
 418:Generated_Source\PSoC6\pdl\drivers/peripheral/ipc/cy_ipc_drv.h ****                                                       uint32_t ipcReleaseMask, uint32_t ipcAcquireM
 419:Generated_Source\PSoC6\pdl\drivers/peripheral/ipc/cy_ipc_drv.h **** __STATIC_INLINE uint32_t Cy_IPC_Drv_GetInterruptMask (IPC_INTR_STRUCT_Type const * base);
 420:Generated_Source\PSoC6\pdl\drivers/peripheral/ipc/cy_ipc_drv.h **** __STATIC_INLINE uint32_t Cy_IPC_Drv_GetInterruptStatusMasked (IPC_INTR_STRUCT_Type const * base);
 421:Generated_Source\PSoC6\pdl\drivers/peripheral/ipc/cy_ipc_drv.h **** __STATIC_INLINE uint32_t Cy_IPC_Drv_GetInterruptStatus (IPC_INTR_STRUCT_Type const * base);
 422:Generated_Source\PSoC6\pdl\drivers/peripheral/ipc/cy_ipc_drv.h **** __STATIC_INLINE void     Cy_IPC_Drv_SetInterrupt (IPC_INTR_STRUCT_Type * base,
 423:Generated_Source\PSoC6\pdl\drivers/peripheral/ipc/cy_ipc_drv.h ****                                                       uint32_t ipcReleaseMask, uint32_t ipcAcquireM
ARM GAS  C:\Users\Rolf\AppData\Local\Temp\ccTwK7ru.s 			page 20


 424:Generated_Source\PSoC6\pdl\drivers/peripheral/ipc/cy_ipc_drv.h **** __STATIC_INLINE void     Cy_IPC_Drv_ClearInterrupt (IPC_INTR_STRUCT_Type * base,
 425:Generated_Source\PSoC6\pdl\drivers/peripheral/ipc/cy_ipc_drv.h ****                                                       uint32_t ipcReleaseMask, uint32_t ipcAcquireM
 426:Generated_Source\PSoC6\pdl\drivers/peripheral/ipc/cy_ipc_drv.h **** 
 427:Generated_Source\PSoC6\pdl\drivers/peripheral/ipc/cy_ipc_drv.h **** 
 428:Generated_Source\PSoC6\pdl\drivers/peripheral/ipc/cy_ipc_drv.h **** /*******************************************************************************
 429:Generated_Source\PSoC6\pdl\drivers/peripheral/ipc/cy_ipc_drv.h **** * Function Name: Cy_IPC_Drv_GetIpcBaseAddress
 430:Generated_Source\PSoC6\pdl\drivers/peripheral/ipc/cy_ipc_drv.h **** ****************************************************************************//**
 431:Generated_Source\PSoC6\pdl\drivers/peripheral/ipc/cy_ipc_drv.h **** *
 432:Generated_Source\PSoC6\pdl\drivers/peripheral/ipc/cy_ipc_drv.h **** * This function takes an IPC channel index as a parameter and returns the base
 433:Generated_Source\PSoC6\pdl\drivers/peripheral/ipc/cy_ipc_drv.h **** * address the IPC registers corresponding to the IPC channel.
 434:Generated_Source\PSoC6\pdl\drivers/peripheral/ipc/cy_ipc_drv.h **** *
 435:Generated_Source\PSoC6\pdl\drivers/peripheral/ipc/cy_ipc_drv.h **** * \note The user is responsible for ensuring that ipcIndex does not exceed the
 436:Generated_Source\PSoC6\pdl\drivers/peripheral/ipc/cy_ipc_drv.h **** * limits.
 437:Generated_Source\PSoC6\pdl\drivers/peripheral/ipc/cy_ipc_drv.h **** *
 438:Generated_Source\PSoC6\pdl\drivers/peripheral/ipc/cy_ipc_drv.h **** * \param ipcIndex
 439:Generated_Source\PSoC6\pdl\drivers/peripheral/ipc/cy_ipc_drv.h **** * Represents the number of IPC structure. This is converted to the base address of
 440:Generated_Source\PSoC6\pdl\drivers/peripheral/ipc/cy_ipc_drv.h **** * the IPC channel registers.
 441:Generated_Source\PSoC6\pdl\drivers/peripheral/ipc/cy_ipc_drv.h **** *
 442:Generated_Source\PSoC6\pdl\drivers/peripheral/ipc/cy_ipc_drv.h **** * \return
 443:Generated_Source\PSoC6\pdl\drivers/peripheral/ipc/cy_ipc_drv.h **** * Returns a pointer to the base of the IPC registers.
 444:Generated_Source\PSoC6\pdl\drivers/peripheral/ipc/cy_ipc_drv.h **** *
 445:Generated_Source\PSoC6\pdl\drivers/peripheral/ipc/cy_ipc_drv.h **** * \funcusage
 446:Generated_Source\PSoC6\pdl\drivers/peripheral/ipc/cy_ipc_drv.h **** * \snippet IPC_sut_01.cydsn/main_cm4.c snippet_Cy_IPC_Drv_SendMsgWord
 447:Generated_Source\PSoC6\pdl\drivers/peripheral/ipc/cy_ipc_drv.h **** *
 448:Generated_Source\PSoC6\pdl\drivers/peripheral/ipc/cy_ipc_drv.h **** *******************************************************************************/
 449:Generated_Source\PSoC6\pdl\drivers/peripheral/ipc/cy_ipc_drv.h **** __STATIC_INLINE IPC_STRUCT_Type* Cy_IPC_Drv_GetIpcBaseAddress (uint32_t ipcIndex)
 450:Generated_Source\PSoC6\pdl\drivers/peripheral/ipc/cy_ipc_drv.h **** {
 451:Generated_Source\PSoC6\pdl\drivers/peripheral/ipc/cy_ipc_drv.h ****     CY_ASSERT_L1(CY_IPC_CHANNELS > ipcIndex);
 354              		.loc 2 451 0
 355 0002 174B     		ldr	r3, .L35
 356 0004 1A68     		ldr	r2, [r3]
 357 0006 3123     		movs	r3, #49
 358 0008 D35C     		ldrb	r3, [r2, r3]
 359 000a 002B     		cmp	r3, #0
 360 000c 04D1     		bne	.L31
 361 000e C421     		movs	r1, #196
 362 0010 FF31     		adds	r1, r1, #255
 363 0012 1448     		ldr	r0, .L35+4
 364 0014 FFF7FEFF 		bl	Cy_SysLib_AssertFailed
 365              	.LVL18:
 366              	.L31:
 452:Generated_Source\PSoC6\pdl\drivers/peripheral/ipc/cy_ipc_drv.h ****     return ( (IPC_STRUCT_Type*) CY_IPC_STRUCT_PTR(ipcIndex));
 367              		.loc 2 452 0
 368 0018 114B     		ldr	r3, .L35
 369 001a 1B68     		ldr	r3, [r3]
 370 001c 186A     		ldr	r0, [r3, #32]
 371              	.LVL19:
 372              	.LBE15:
 373              	.LBE14:
 374              	.LBB16:
 375              	.LBB17:
 453:Generated_Source\PSoC6\pdl\drivers/peripheral/ipc/cy_ipc_drv.h **** }
 454:Generated_Source\PSoC6\pdl\drivers/peripheral/ipc/cy_ipc_drv.h **** 
 455:Generated_Source\PSoC6\pdl\drivers/peripheral/ipc/cy_ipc_drv.h **** 
 456:Generated_Source\PSoC6\pdl\drivers/peripheral/ipc/cy_ipc_drv.h **** /*******************************************************************************
 457:Generated_Source\PSoC6\pdl\drivers/peripheral/ipc/cy_ipc_drv.h **** * Function Name: Cy_IPC_Drv_GetIntrBaseAddr
 458:Generated_Source\PSoC6\pdl\drivers/peripheral/ipc/cy_ipc_drv.h **** ****************************************************************************//**
ARM GAS  C:\Users\Rolf\AppData\Local\Temp\ccTwK7ru.s 			page 21


 459:Generated_Source\PSoC6\pdl\drivers/peripheral/ipc/cy_ipc_drv.h **** *
 460:Generated_Source\PSoC6\pdl\drivers/peripheral/ipc/cy_ipc_drv.h **** * This function takes an IPC interrupt structure index and returns the base
 461:Generated_Source\PSoC6\pdl\drivers/peripheral/ipc/cy_ipc_drv.h **** * address of the IPC interrupt registers corresponding to the IPC Interrupt.
 462:Generated_Source\PSoC6\pdl\drivers/peripheral/ipc/cy_ipc_drv.h **** *
 463:Generated_Source\PSoC6\pdl\drivers/peripheral/ipc/cy_ipc_drv.h **** * \note The user is responsible for ensuring that ipcIntrIndex does not exceed the
 464:Generated_Source\PSoC6\pdl\drivers/peripheral/ipc/cy_ipc_drv.h **** * limits.
 465:Generated_Source\PSoC6\pdl\drivers/peripheral/ipc/cy_ipc_drv.h **** *
 466:Generated_Source\PSoC6\pdl\drivers/peripheral/ipc/cy_ipc_drv.h **** * \param ipcIntrIndex
 467:Generated_Source\PSoC6\pdl\drivers/peripheral/ipc/cy_ipc_drv.h **** * Represents the number of IPC interrupt structure. This is converted to the
 468:Generated_Source\PSoC6\pdl\drivers/peripheral/ipc/cy_ipc_drv.h **** * base address of the IPC interrupt registers.
 469:Generated_Source\PSoC6\pdl\drivers/peripheral/ipc/cy_ipc_drv.h **** *
 470:Generated_Source\PSoC6\pdl\drivers/peripheral/ipc/cy_ipc_drv.h **** * \return
 471:Generated_Source\PSoC6\pdl\drivers/peripheral/ipc/cy_ipc_drv.h **** * Returns a pointer to the base of the IPC interrupt registers.
 472:Generated_Source\PSoC6\pdl\drivers/peripheral/ipc/cy_ipc_drv.h **** *
 473:Generated_Source\PSoC6\pdl\drivers/peripheral/ipc/cy_ipc_drv.h **** * \funcusage
 474:Generated_Source\PSoC6\pdl\drivers/peripheral/ipc/cy_ipc_drv.h **** * \snippet IPC_sut_01.cydsn/main_cm4.c snippet_Cy_IPC_Drv_GetInterruptStatus
 475:Generated_Source\PSoC6\pdl\drivers/peripheral/ipc/cy_ipc_drv.h **** *
 476:Generated_Source\PSoC6\pdl\drivers/peripheral/ipc/cy_ipc_drv.h **** *******************************************************************************/
 477:Generated_Source\PSoC6\pdl\drivers/peripheral/ipc/cy_ipc_drv.h **** __STATIC_INLINE IPC_INTR_STRUCT_Type* Cy_IPC_Drv_GetIntrBaseAddr (uint32_t ipcIntrIndex)
 478:Generated_Source\PSoC6\pdl\drivers/peripheral/ipc/cy_ipc_drv.h **** {
 479:Generated_Source\PSoC6\pdl\drivers/peripheral/ipc/cy_ipc_drv.h ****     CY_ASSERT_L1(CY_IPC_INTERRUPTS > ipcIntrIndex);
 480:Generated_Source\PSoC6\pdl\drivers/peripheral/ipc/cy_ipc_drv.h ****     return ( (IPC_INTR_STRUCT_Type*) &(((IPC_Type *)cy_device->ipcBase)->INTR_STRUCT[ipcIntrIndex])
 481:Generated_Source\PSoC6\pdl\drivers/peripheral/ipc/cy_ipc_drv.h **** }
 482:Generated_Source\PSoC6\pdl\drivers/peripheral/ipc/cy_ipc_drv.h **** 
 483:Generated_Source\PSoC6\pdl\drivers/peripheral/ipc/cy_ipc_drv.h **** 
 484:Generated_Source\PSoC6\pdl\drivers/peripheral/ipc/cy_ipc_drv.h **** /*******************************************************************************
 485:Generated_Source\PSoC6\pdl\drivers/peripheral/ipc/cy_ipc_drv.h **** * Function Name: Cy_IPC_Drv_SetInterruptMask
 486:Generated_Source\PSoC6\pdl\drivers/peripheral/ipc/cy_ipc_drv.h **** ****************************************************************************//**
 487:Generated_Source\PSoC6\pdl\drivers/peripheral/ipc/cy_ipc_drv.h **** *
 488:Generated_Source\PSoC6\pdl\drivers/peripheral/ipc/cy_ipc_drv.h **** * This function is used to set the interrupt mask for an IPC Interrupt.
 489:Generated_Source\PSoC6\pdl\drivers/peripheral/ipc/cy_ipc_drv.h **** * The mask sets release or acquire notification events for all IPC channels.
 490:Generated_Source\PSoC6\pdl\drivers/peripheral/ipc/cy_ipc_drv.h **** *
 491:Generated_Source\PSoC6\pdl\drivers/peripheral/ipc/cy_ipc_drv.h **** * \param base
 492:Generated_Source\PSoC6\pdl\drivers/peripheral/ipc/cy_ipc_drv.h **** * This is a handle to the IPC interrupt. This handle can be calculated from the
 493:Generated_Source\PSoC6\pdl\drivers/peripheral/ipc/cy_ipc_drv.h **** * IPC interrupt number using \ref Cy_IPC_Drv_GetIntrBaseAddr.
 494:Generated_Source\PSoC6\pdl\drivers/peripheral/ipc/cy_ipc_drv.h **** *
 495:Generated_Source\PSoC6\pdl\drivers/peripheral/ipc/cy_ipc_drv.h **** * \param ipcReleaseMask
 496:Generated_Source\PSoC6\pdl\drivers/peripheral/ipc/cy_ipc_drv.h **** * An encoded list of all IPC channels that can trigger the interrupt on a
 497:Generated_Source\PSoC6\pdl\drivers/peripheral/ipc/cy_ipc_drv.h **** * release event.
 498:Generated_Source\PSoC6\pdl\drivers/peripheral/ipc/cy_ipc_drv.h **** *
 499:Generated_Source\PSoC6\pdl\drivers/peripheral/ipc/cy_ipc_drv.h **** * \param ipcAcquireMask
 500:Generated_Source\PSoC6\pdl\drivers/peripheral/ipc/cy_ipc_drv.h **** * An encoded list of all IPC channels that can trigger the interrupt on a
 501:Generated_Source\PSoC6\pdl\drivers/peripheral/ipc/cy_ipc_drv.h **** * notify event.
 502:Generated_Source\PSoC6\pdl\drivers/peripheral/ipc/cy_ipc_drv.h **** *
 503:Generated_Source\PSoC6\pdl\drivers/peripheral/ipc/cy_ipc_drv.h **** * \funcusage
 504:Generated_Source\PSoC6\pdl\drivers/peripheral/ipc/cy_ipc_drv.h **** * \snippet IPC_sut_01.cydsn/main_cm4.c snippet_Cy_IPC_Drv_GetInterruptStatusMasked
 505:Generated_Source\PSoC6\pdl\drivers/peripheral/ipc/cy_ipc_drv.h **** *
 506:Generated_Source\PSoC6\pdl\drivers/peripheral/ipc/cy_ipc_drv.h **** *******************************************************************************/
 507:Generated_Source\PSoC6\pdl\drivers/peripheral/ipc/cy_ipc_drv.h **** __STATIC_INLINE void  Cy_IPC_Drv_SetInterruptMask (IPC_INTR_STRUCT_Type* base,
 508:Generated_Source\PSoC6\pdl\drivers/peripheral/ipc/cy_ipc_drv.h ****                                               uint32_t ipcReleaseMask, uint32_t ipcAcquireMask)
 509:Generated_Source\PSoC6\pdl\drivers/peripheral/ipc/cy_ipc_drv.h **** {
 510:Generated_Source\PSoC6\pdl\drivers/peripheral/ipc/cy_ipc_drv.h ****     CY_ASSERT_L1(0ul == (ipcAcquireMask & ~(uint32_t)(IPC_STRUCT_NOTIFY_INTR_NOTIFY_Msk)));
 511:Generated_Source\PSoC6\pdl\drivers/peripheral/ipc/cy_ipc_drv.h ****     CY_ASSERT_L1(0ul == (ipcReleaseMask & ~(uint32_t)(IPC_STRUCT_RELEASE_INTR_RELEASE_Msk)));
 512:Generated_Source\PSoC6\pdl\drivers/peripheral/ipc/cy_ipc_drv.h ****     REG_IPC_INTR_STRUCT_INTR_MASK(base) = _VAL2FLD( IPC_INTR_STRUCT_INTR_MASK_NOTIFY,  ipcAcquireMa
 513:Generated_Source\PSoC6\pdl\drivers/peripheral/ipc/cy_ipc_drv.h ****                       _VAL2FLD( IPC_INTR_STRUCT_INTR_MASK_RELEASE, ipcReleaseMask);
 514:Generated_Source\PSoC6\pdl\drivers/peripheral/ipc/cy_ipc_drv.h **** }
 515:Generated_Source\PSoC6\pdl\drivers/peripheral/ipc/cy_ipc_drv.h **** 
ARM GAS  C:\Users\Rolf\AppData\Local\Temp\ccTwK7ru.s 			page 22


 516:Generated_Source\PSoC6\pdl\drivers/peripheral/ipc/cy_ipc_drv.h **** 
 517:Generated_Source\PSoC6\pdl\drivers/peripheral/ipc/cy_ipc_drv.h **** /*******************************************************************************
 518:Generated_Source\PSoC6\pdl\drivers/peripheral/ipc/cy_ipc_drv.h **** * Function Name: Cy_IPC_Drv_GetInterruptMask
 519:Generated_Source\PSoC6\pdl\drivers/peripheral/ipc/cy_ipc_drv.h **** ****************************************************************************//**
 520:Generated_Source\PSoC6\pdl\drivers/peripheral/ipc/cy_ipc_drv.h **** *
 521:Generated_Source\PSoC6\pdl\drivers/peripheral/ipc/cy_ipc_drv.h **** * This function is used to read the interrupt mask.
 522:Generated_Source\PSoC6\pdl\drivers/peripheral/ipc/cy_ipc_drv.h **** *
 523:Generated_Source\PSoC6\pdl\drivers/peripheral/ipc/cy_ipc_drv.h **** * \param base
 524:Generated_Source\PSoC6\pdl\drivers/peripheral/ipc/cy_ipc_drv.h **** * This is a handle to the IPC interrupt. This handle can be calculated from
 525:Generated_Source\PSoC6\pdl\drivers/peripheral/ipc/cy_ipc_drv.h **** * the IPC interrupt number using \ref Cy_IPC_Drv_GetIntrBaseAddr.
 526:Generated_Source\PSoC6\pdl\drivers/peripheral/ipc/cy_ipc_drv.h **** *
 527:Generated_Source\PSoC6\pdl\drivers/peripheral/ipc/cy_ipc_drv.h **** * \return
 528:Generated_Source\PSoC6\pdl\drivers/peripheral/ipc/cy_ipc_drv.h **** *   The return value is encoded as follows
 529:Generated_Source\PSoC6\pdl\drivers/peripheral/ipc/cy_ipc_drv.h **** *   <table>
 530:Generated_Source\PSoC6\pdl\drivers/peripheral/ipc/cy_ipc_drv.h **** *   <tr><th>Interrupt sources   <th>Value
 531:Generated_Source\PSoC6\pdl\drivers/peripheral/ipc/cy_ipc_drv.h **** *   <tr><td>Ipc_PORTX_RELEASE   <td>Xth bit set
 532:Generated_Source\PSoC6\pdl\drivers/peripheral/ipc/cy_ipc_drv.h **** *   <tr><td>Ipc_PORTX_NOTIFY    <td>X+16th bit set
 533:Generated_Source\PSoC6\pdl\drivers/peripheral/ipc/cy_ipc_drv.h **** *   </table>
 534:Generated_Source\PSoC6\pdl\drivers/peripheral/ipc/cy_ipc_drv.h **** *
 535:Generated_Source\PSoC6\pdl\drivers/peripheral/ipc/cy_ipc_drv.h **** * \funcusage
 536:Generated_Source\PSoC6\pdl\drivers/peripheral/ipc/cy_ipc_drv.h **** * \snippet IPC_sut_01.cydsn/main_cm4.c snippet_Cy_IPC_Drv_GetInterruptStatusMasked
 537:Generated_Source\PSoC6\pdl\drivers/peripheral/ipc/cy_ipc_drv.h **** *
 538:Generated_Source\PSoC6\pdl\drivers/peripheral/ipc/cy_ipc_drv.h **** *******************************************************************************/
 539:Generated_Source\PSoC6\pdl\drivers/peripheral/ipc/cy_ipc_drv.h **** __STATIC_INLINE uint32_t Cy_IPC_Drv_GetInterruptMask(IPC_INTR_STRUCT_Type const * base)
 540:Generated_Source\PSoC6\pdl\drivers/peripheral/ipc/cy_ipc_drv.h **** {
 541:Generated_Source\PSoC6\pdl\drivers/peripheral/ipc/cy_ipc_drv.h ****     return REG_IPC_INTR_STRUCT_INTR_MASK(base);
 542:Generated_Source\PSoC6\pdl\drivers/peripheral/ipc/cy_ipc_drv.h **** }
 543:Generated_Source\PSoC6\pdl\drivers/peripheral/ipc/cy_ipc_drv.h **** 
 544:Generated_Source\PSoC6\pdl\drivers/peripheral/ipc/cy_ipc_drv.h **** 
 545:Generated_Source\PSoC6\pdl\drivers/peripheral/ipc/cy_ipc_drv.h **** /*******************************************************************************
 546:Generated_Source\PSoC6\pdl\drivers/peripheral/ipc/cy_ipc_drv.h **** * Function Name: Cy_IPC_Drv_GetInterruptStatusMasked
 547:Generated_Source\PSoC6\pdl\drivers/peripheral/ipc/cy_ipc_drv.h **** ****************************************************************************//**
 548:Generated_Source\PSoC6\pdl\drivers/peripheral/ipc/cy_ipc_drv.h **** *
 549:Generated_Source\PSoC6\pdl\drivers/peripheral/ipc/cy_ipc_drv.h **** * This function is used to read the active unmasked interrupt. This function
 550:Generated_Source\PSoC6\pdl\drivers/peripheral/ipc/cy_ipc_drv.h **** * can be used in the interrupt service routine to find which source triggered
 551:Generated_Source\PSoC6\pdl\drivers/peripheral/ipc/cy_ipc_drv.h **** * the interrupt.
 552:Generated_Source\PSoC6\pdl\drivers/peripheral/ipc/cy_ipc_drv.h **** *
 553:Generated_Source\PSoC6\pdl\drivers/peripheral/ipc/cy_ipc_drv.h **** * \param base
 554:Generated_Source\PSoC6\pdl\drivers/peripheral/ipc/cy_ipc_drv.h **** * This is a handle to the IPC interrupt. This handle can be calculated from the
 555:Generated_Source\PSoC6\pdl\drivers/peripheral/ipc/cy_ipc_drv.h **** * IPC interrupt number using \ref Cy_IPC_Drv_GetIntrBaseAddr.
 556:Generated_Source\PSoC6\pdl\drivers/peripheral/ipc/cy_ipc_drv.h **** *
 557:Generated_Source\PSoC6\pdl\drivers/peripheral/ipc/cy_ipc_drv.h **** * \return
 558:Generated_Source\PSoC6\pdl\drivers/peripheral/ipc/cy_ipc_drv.h **** *   The return value is encoded as follows
 559:Generated_Source\PSoC6\pdl\drivers/peripheral/ipc/cy_ipc_drv.h **** *   <table>
 560:Generated_Source\PSoC6\pdl\drivers/peripheral/ipc/cy_ipc_drv.h **** *   <tr><th>Interrupt sources   <th>Value
 561:Generated_Source\PSoC6\pdl\drivers/peripheral/ipc/cy_ipc_drv.h **** *   <tr><td>Ipc_PORTX_RELEASE   <td>Xth bit set
 562:Generated_Source\PSoC6\pdl\drivers/peripheral/ipc/cy_ipc_drv.h **** *   <tr><td>Ipc_PORTX_NOTIFY    <td>X+16th bit set
 563:Generated_Source\PSoC6\pdl\drivers/peripheral/ipc/cy_ipc_drv.h **** *   </table>
 564:Generated_Source\PSoC6\pdl\drivers/peripheral/ipc/cy_ipc_drv.h **** *
 565:Generated_Source\PSoC6\pdl\drivers/peripheral/ipc/cy_ipc_drv.h **** * \funcusage
 566:Generated_Source\PSoC6\pdl\drivers/peripheral/ipc/cy_ipc_drv.h **** * \snippet IPC_sut_01.cydsn/main_cm4.c snippet_Cy_IPC_Drv_GetInterruptStatusMasked
 567:Generated_Source\PSoC6\pdl\drivers/peripheral/ipc/cy_ipc_drv.h **** *
 568:Generated_Source\PSoC6\pdl\drivers/peripheral/ipc/cy_ipc_drv.h **** *******************************************************************************/
 569:Generated_Source\PSoC6\pdl\drivers/peripheral/ipc/cy_ipc_drv.h **** __STATIC_INLINE uint32_t Cy_IPC_Drv_GetInterruptStatusMasked (IPC_INTR_STRUCT_Type const * base)
 570:Generated_Source\PSoC6\pdl\drivers/peripheral/ipc/cy_ipc_drv.h **** {
 571:Generated_Source\PSoC6\pdl\drivers/peripheral/ipc/cy_ipc_drv.h ****     return REG_IPC_INTR_STRUCT_INTR_MASKED(base);
 572:Generated_Source\PSoC6\pdl\drivers/peripheral/ipc/cy_ipc_drv.h **** }
ARM GAS  C:\Users\Rolf\AppData\Local\Temp\ccTwK7ru.s 			page 23


 573:Generated_Source\PSoC6\pdl\drivers/peripheral/ipc/cy_ipc_drv.h **** 
 574:Generated_Source\PSoC6\pdl\drivers/peripheral/ipc/cy_ipc_drv.h **** 
 575:Generated_Source\PSoC6\pdl\drivers/peripheral/ipc/cy_ipc_drv.h **** /*******************************************************************************
 576:Generated_Source\PSoC6\pdl\drivers/peripheral/ipc/cy_ipc_drv.h **** * Function Name: Cy_IPC_Drv_GetInterruptStatus
 577:Generated_Source\PSoC6\pdl\drivers/peripheral/ipc/cy_ipc_drv.h **** ****************************************************************************//**
 578:Generated_Source\PSoC6\pdl\drivers/peripheral/ipc/cy_ipc_drv.h **** *
 579:Generated_Source\PSoC6\pdl\drivers/peripheral/ipc/cy_ipc_drv.h **** * This function is used to read the pending interrupts. Note that this read is
 580:Generated_Source\PSoC6\pdl\drivers/peripheral/ipc/cy_ipc_drv.h **** * an unmasked read of the interrupt status. Interrupt sources read as active by
 581:Generated_Source\PSoC6\pdl\drivers/peripheral/ipc/cy_ipc_drv.h **** * this function would generate interrupts only if they were not masked.
 582:Generated_Source\PSoC6\pdl\drivers/peripheral/ipc/cy_ipc_drv.h **** *
 583:Generated_Source\PSoC6\pdl\drivers/peripheral/ipc/cy_ipc_drv.h **** * \param base
 584:Generated_Source\PSoC6\pdl\drivers/peripheral/ipc/cy_ipc_drv.h **** * This is a handle to the IPC interrupt. This handle can be calculated from the
 585:Generated_Source\PSoC6\pdl\drivers/peripheral/ipc/cy_ipc_drv.h **** * IPC interrupt number using \ref Cy_IPC_Drv_GetIntrBaseAddr.
 586:Generated_Source\PSoC6\pdl\drivers/peripheral/ipc/cy_ipc_drv.h **** *
 587:Generated_Source\PSoC6\pdl\drivers/peripheral/ipc/cy_ipc_drv.h **** * \return
 588:Generated_Source\PSoC6\pdl\drivers/peripheral/ipc/cy_ipc_drv.h **** *   The return value is encoded as follows
 589:Generated_Source\PSoC6\pdl\drivers/peripheral/ipc/cy_ipc_drv.h **** *   <table>
 590:Generated_Source\PSoC6\pdl\drivers/peripheral/ipc/cy_ipc_drv.h **** *   <tr><th>Interrupt sources   <th>Value
 591:Generated_Source\PSoC6\pdl\drivers/peripheral/ipc/cy_ipc_drv.h **** *   <tr><td>Ipc_PORTX_RELEASE   <td>Xth bit set
 592:Generated_Source\PSoC6\pdl\drivers/peripheral/ipc/cy_ipc_drv.h **** *   <tr><td>Ipc_PORTX_NOTIFY    <td>X+16th bit set
 593:Generated_Source\PSoC6\pdl\drivers/peripheral/ipc/cy_ipc_drv.h **** *   </table>
 594:Generated_Source\PSoC6\pdl\drivers/peripheral/ipc/cy_ipc_drv.h **** *
 595:Generated_Source\PSoC6\pdl\drivers/peripheral/ipc/cy_ipc_drv.h **** * \funcusage
 596:Generated_Source\PSoC6\pdl\drivers/peripheral/ipc/cy_ipc_drv.h **** * \snippet IPC_sut_01.cydsn/main_cm4.c snippet_Cy_IPC_Drv_GetInterruptStatus
 597:Generated_Source\PSoC6\pdl\drivers/peripheral/ipc/cy_ipc_drv.h **** *
 598:Generated_Source\PSoC6\pdl\drivers/peripheral/ipc/cy_ipc_drv.h **** *******************************************************************************/
 599:Generated_Source\PSoC6\pdl\drivers/peripheral/ipc/cy_ipc_drv.h **** __STATIC_INLINE uint32_t Cy_IPC_Drv_GetInterruptStatus(IPC_INTR_STRUCT_Type const * base)
 600:Generated_Source\PSoC6\pdl\drivers/peripheral/ipc/cy_ipc_drv.h **** {
 601:Generated_Source\PSoC6\pdl\drivers/peripheral/ipc/cy_ipc_drv.h ****     return REG_IPC_INTR_STRUCT_INTR(base);
 602:Generated_Source\PSoC6\pdl\drivers/peripheral/ipc/cy_ipc_drv.h **** }
 603:Generated_Source\PSoC6\pdl\drivers/peripheral/ipc/cy_ipc_drv.h **** 
 604:Generated_Source\PSoC6\pdl\drivers/peripheral/ipc/cy_ipc_drv.h **** 
 605:Generated_Source\PSoC6\pdl\drivers/peripheral/ipc/cy_ipc_drv.h **** /*******************************************************************************
 606:Generated_Source\PSoC6\pdl\drivers/peripheral/ipc/cy_ipc_drv.h **** * Function Name: Cy_IPC_Drv_SetInterrupt
 607:Generated_Source\PSoC6\pdl\drivers/peripheral/ipc/cy_ipc_drv.h **** ****************************************************************************//**
 608:Generated_Source\PSoC6\pdl\drivers/peripheral/ipc/cy_ipc_drv.h **** *
 609:Generated_Source\PSoC6\pdl\drivers/peripheral/ipc/cy_ipc_drv.h **** * This function is used to set the interrupt source. This function can be used
 610:Generated_Source\PSoC6\pdl\drivers/peripheral/ipc/cy_ipc_drv.h **** * to activate interrupts through software.
 611:Generated_Source\PSoC6\pdl\drivers/peripheral/ipc/cy_ipc_drv.h **** * \note That interrupt sources set using this interrupt would generate interrupts
 612:Generated_Source\PSoC6\pdl\drivers/peripheral/ipc/cy_ipc_drv.h **** * only if they are not masked.
 613:Generated_Source\PSoC6\pdl\drivers/peripheral/ipc/cy_ipc_drv.h **** *
 614:Generated_Source\PSoC6\pdl\drivers/peripheral/ipc/cy_ipc_drv.h **** * \param base
 615:Generated_Source\PSoC6\pdl\drivers/peripheral/ipc/cy_ipc_drv.h **** * This is a handle to the IPC interrupt. This handle can be calculated from the
 616:Generated_Source\PSoC6\pdl\drivers/peripheral/ipc/cy_ipc_drv.h **** * IPC interrupt number using \ref Cy_IPC_Drv_GetIntrBaseAddr.
 617:Generated_Source\PSoC6\pdl\drivers/peripheral/ipc/cy_ipc_drv.h **** *
 618:Generated_Source\PSoC6\pdl\drivers/peripheral/ipc/cy_ipc_drv.h **** * \param ipcReleaseMask
 619:Generated_Source\PSoC6\pdl\drivers/peripheral/ipc/cy_ipc_drv.h **** * An encoded list of all IPC channels that can trigger the interrupt on a
 620:Generated_Source\PSoC6\pdl\drivers/peripheral/ipc/cy_ipc_drv.h **** * release event.
 621:Generated_Source\PSoC6\pdl\drivers/peripheral/ipc/cy_ipc_drv.h **** *
 622:Generated_Source\PSoC6\pdl\drivers/peripheral/ipc/cy_ipc_drv.h **** * \param ipcAcquireMask
 623:Generated_Source\PSoC6\pdl\drivers/peripheral/ipc/cy_ipc_drv.h **** * An encoded list of all IPC channels that can trigger the interrupt on a
 624:Generated_Source\PSoC6\pdl\drivers/peripheral/ipc/cy_ipc_drv.h **** * notify event.
 625:Generated_Source\PSoC6\pdl\drivers/peripheral/ipc/cy_ipc_drv.h **** *
 626:Generated_Source\PSoC6\pdl\drivers/peripheral/ipc/cy_ipc_drv.h **** * \funcusage
 627:Generated_Source\PSoC6\pdl\drivers/peripheral/ipc/cy_ipc_drv.h **** * \snippet IPC_sut_01.cydsn/main_cm4.c snippet_Cy_IPC_Drv_SetInterrupt
 628:Generated_Source\PSoC6\pdl\drivers/peripheral/ipc/cy_ipc_drv.h **** *
 629:Generated_Source\PSoC6\pdl\drivers/peripheral/ipc/cy_ipc_drv.h **** *******************************************************************************/
ARM GAS  C:\Users\Rolf\AppData\Local\Temp\ccTwK7ru.s 			page 24


 630:Generated_Source\PSoC6\pdl\drivers/peripheral/ipc/cy_ipc_drv.h **** __STATIC_INLINE void  Cy_IPC_Drv_SetInterrupt(IPC_INTR_STRUCT_Type* base, uint32_t ipcReleaseMask, 
 631:Generated_Source\PSoC6\pdl\drivers/peripheral/ipc/cy_ipc_drv.h **** {
 632:Generated_Source\PSoC6\pdl\drivers/peripheral/ipc/cy_ipc_drv.h ****     CY_ASSERT_L1(0ul == (ipcAcquireMask  & ~(uint32_t)(IPC_STRUCT_NOTIFY_INTR_NOTIFY_Msk)));
 633:Generated_Source\PSoC6\pdl\drivers/peripheral/ipc/cy_ipc_drv.h ****     CY_ASSERT_L1(0ul == (ipcReleaseMask & ~(uint32_t)(IPC_STRUCT_RELEASE_INTR_RELEASE_Msk)));
 634:Generated_Source\PSoC6\pdl\drivers/peripheral/ipc/cy_ipc_drv.h ****     REG_IPC_INTR_STRUCT_INTR_SET(base) =  _VAL2FLD( IPC_INTR_STRUCT_INTR_NOTIFY,  ipcAcquireMask ) 
 635:Generated_Source\PSoC6\pdl\drivers/peripheral/ipc/cy_ipc_drv.h ****                       _VAL2FLD( IPC_INTR_STRUCT_INTR_RELEASE, ipcReleaseMask );
 636:Generated_Source\PSoC6\pdl\drivers/peripheral/ipc/cy_ipc_drv.h **** }
 637:Generated_Source\PSoC6\pdl\drivers/peripheral/ipc/cy_ipc_drv.h **** 
 638:Generated_Source\PSoC6\pdl\drivers/peripheral/ipc/cy_ipc_drv.h **** 
 639:Generated_Source\PSoC6\pdl\drivers/peripheral/ipc/cy_ipc_drv.h **** /*******************************************************************************
 640:Generated_Source\PSoC6\pdl\drivers/peripheral/ipc/cy_ipc_drv.h **** * Function Name: Cy_IPC_Drv_ClearInterrupt
 641:Generated_Source\PSoC6\pdl\drivers/peripheral/ipc/cy_ipc_drv.h **** ****************************************************************************//**
 642:Generated_Source\PSoC6\pdl\drivers/peripheral/ipc/cy_ipc_drv.h **** *
 643:Generated_Source\PSoC6\pdl\drivers/peripheral/ipc/cy_ipc_drv.h **** * This function is used to clear the interrupt source. Use this function to clear
 644:Generated_Source\PSoC6\pdl\drivers/peripheral/ipc/cy_ipc_drv.h **** * a pending interrupt source in the interrupt status.
 645:Generated_Source\PSoC6\pdl\drivers/peripheral/ipc/cy_ipc_drv.h **** *
 646:Generated_Source\PSoC6\pdl\drivers/peripheral/ipc/cy_ipc_drv.h **** * \param base
 647:Generated_Source\PSoC6\pdl\drivers/peripheral/ipc/cy_ipc_drv.h **** * This is a handle to the IPC interrupt. This handle can be calculated from the
 648:Generated_Source\PSoC6\pdl\drivers/peripheral/ipc/cy_ipc_drv.h **** * IPC interrupt number using \ref Cy_IPC_Drv_GetIntrBaseAddr.
 649:Generated_Source\PSoC6\pdl\drivers/peripheral/ipc/cy_ipc_drv.h **** *
 650:Generated_Source\PSoC6\pdl\drivers/peripheral/ipc/cy_ipc_drv.h **** * \param ipcReleaseMask
 651:Generated_Source\PSoC6\pdl\drivers/peripheral/ipc/cy_ipc_drv.h **** * An encoded list of all IPC channels that can trigger the interrupt on a
 652:Generated_Source\PSoC6\pdl\drivers/peripheral/ipc/cy_ipc_drv.h **** * release event.
 653:Generated_Source\PSoC6\pdl\drivers/peripheral/ipc/cy_ipc_drv.h **** *
 654:Generated_Source\PSoC6\pdl\drivers/peripheral/ipc/cy_ipc_drv.h **** * \param ipcAcquireMask
 655:Generated_Source\PSoC6\pdl\drivers/peripheral/ipc/cy_ipc_drv.h **** * An encoded list of all IPC channels that can trigger the interrupt on a
 656:Generated_Source\PSoC6\pdl\drivers/peripheral/ipc/cy_ipc_drv.h **** * notify event.
 657:Generated_Source\PSoC6\pdl\drivers/peripheral/ipc/cy_ipc_drv.h **** *
 658:Generated_Source\PSoC6\pdl\drivers/peripheral/ipc/cy_ipc_drv.h **** * \funcusage
 659:Generated_Source\PSoC6\pdl\drivers/peripheral/ipc/cy_ipc_drv.h **** * \snippet IPC_sut_01.cydsn/main_cm4.c snippet_Cy_IPC_Drv_GetInterruptStatusMasked
 660:Generated_Source\PSoC6\pdl\drivers/peripheral/ipc/cy_ipc_drv.h **** *
 661:Generated_Source\PSoC6\pdl\drivers/peripheral/ipc/cy_ipc_drv.h **** *******************************************************************************/
 662:Generated_Source\PSoC6\pdl\drivers/peripheral/ipc/cy_ipc_drv.h **** __STATIC_INLINE void  Cy_IPC_Drv_ClearInterrupt(IPC_INTR_STRUCT_Type* base, uint32_t ipcReleaseMask
 663:Generated_Source\PSoC6\pdl\drivers/peripheral/ipc/cy_ipc_drv.h **** {
 664:Generated_Source\PSoC6\pdl\drivers/peripheral/ipc/cy_ipc_drv.h ****     CY_ASSERT_L1(0ul == (ipcAcquireMask  & ~(uint32_t)(IPC_STRUCT_NOTIFY_INTR_NOTIFY_Msk)));
 665:Generated_Source\PSoC6\pdl\drivers/peripheral/ipc/cy_ipc_drv.h ****     CY_ASSERT_L1(0ul == (ipcReleaseMask & ~(uint32_t)(IPC_STRUCT_RELEASE_INTR_RELEASE_Msk)));
 666:Generated_Source\PSoC6\pdl\drivers/peripheral/ipc/cy_ipc_drv.h ****     REG_IPC_INTR_STRUCT_INTR(base) =  _VAL2FLD(IPC_INTR_STRUCT_INTR_NOTIFY,  ipcAcquireMask) |
 667:Generated_Source\PSoC6\pdl\drivers/peripheral/ipc/cy_ipc_drv.h ****                   _VAL2FLD(IPC_INTR_STRUCT_INTR_RELEASE, ipcReleaseMask);
 668:Generated_Source\PSoC6\pdl\drivers/peripheral/ipc/cy_ipc_drv.h ****     (void)REG_IPC_INTR_STRUCT_INTR(base);  /* Read the register to flush the cache */
 669:Generated_Source\PSoC6\pdl\drivers/peripheral/ipc/cy_ipc_drv.h **** }
 670:Generated_Source\PSoC6\pdl\drivers/peripheral/ipc/cy_ipc_drv.h **** 
 671:Generated_Source\PSoC6\pdl\drivers/peripheral/ipc/cy_ipc_drv.h **** /** \} group_ipc_functions */
 672:Generated_Source\PSoC6\pdl\drivers/peripheral/ipc/cy_ipc_drv.h **** 
 673:Generated_Source\PSoC6\pdl\drivers/peripheral/ipc/cy_ipc_drv.h **** /** \} group_ipc */
 674:Generated_Source\PSoC6\pdl\drivers/peripheral/ipc/cy_ipc_drv.h **** 
 675:Generated_Source\PSoC6\pdl\drivers/peripheral/ipc/cy_ipc_drv.h **** 
 676:Generated_Source\PSoC6\pdl\drivers/peripheral/ipc/cy_ipc_drv.h **** /*******************************************************************************
 677:Generated_Source\PSoC6\pdl\drivers/peripheral/ipc/cy_ipc_drv.h **** * Function Name: Cy_IPC_Drv_AcquireNotify
 678:Generated_Source\PSoC6\pdl\drivers/peripheral/ipc/cy_ipc_drv.h **** ****************************************************************************//**
 679:Generated_Source\PSoC6\pdl\drivers/peripheral/ipc/cy_ipc_drv.h **** *
 680:Generated_Source\PSoC6\pdl\drivers/peripheral/ipc/cy_ipc_drv.h **** * The function generates a acquire notification event by IPC interrupt structure.
 681:Generated_Source\PSoC6\pdl\drivers/peripheral/ipc/cy_ipc_drv.h **** *
 682:Generated_Source\PSoC6\pdl\drivers/peripheral/ipc/cy_ipc_drv.h **** * \param base
 683:Generated_Source\PSoC6\pdl\drivers/peripheral/ipc/cy_ipc_drv.h **** * This parameter is a handle that represents the base address of the registers
 684:Generated_Source\PSoC6\pdl\drivers/peripheral/ipc/cy_ipc_drv.h **** * of the IPC channel.
 685:Generated_Source\PSoC6\pdl\drivers/peripheral/ipc/cy_ipc_drv.h **** * The parameter is generally returned from a call to the \ref
 686:Generated_Source\PSoC6\pdl\drivers/peripheral/ipc/cy_ipc_drv.h **** * Cy_IPC_Drv_GetIpcBaseAddress.
ARM GAS  C:\Users\Rolf\AppData\Local\Temp\ccTwK7ru.s 			page 25


 687:Generated_Source\PSoC6\pdl\drivers/peripheral/ipc/cy_ipc_drv.h **** *
 688:Generated_Source\PSoC6\pdl\drivers/peripheral/ipc/cy_ipc_drv.h **** * \param notifyEventIntr
 689:Generated_Source\PSoC6\pdl\drivers/peripheral/ipc/cy_ipc_drv.h **** * Bit encoded list of IPC interrupt structures that are triggered
 690:Generated_Source\PSoC6\pdl\drivers/peripheral/ipc/cy_ipc_drv.h **** * by a notification. Bit number correspond to number of the IPC interrupt
 691:Generated_Source\PSoC6\pdl\drivers/peripheral/ipc/cy_ipc_drv.h **** * structure.
 692:Generated_Source\PSoC6\pdl\drivers/peripheral/ipc/cy_ipc_drv.h **** *
 693:Generated_Source\PSoC6\pdl\drivers/peripheral/ipc/cy_ipc_drv.h **** * \funcusage
 694:Generated_Source\PSoC6\pdl\drivers/peripheral/ipc/cy_ipc_drv.h **** * \snippet IPC_sut_01.cydsn/main_cm4.c snippet_Cy_IPC_Drv_LockAcquire
 695:Generated_Source\PSoC6\pdl\drivers/peripheral/ipc/cy_ipc_drv.h **** *
 696:Generated_Source\PSoC6\pdl\drivers/peripheral/ipc/cy_ipc_drv.h **** *******************************************************************************/
 697:Generated_Source\PSoC6\pdl\drivers/peripheral/ipc/cy_ipc_drv.h **** __STATIC_INLINE void  Cy_IPC_Drv_AcquireNotify (IPC_STRUCT_Type* base, uint32_t notifyEventIntr)
 698:Generated_Source\PSoC6\pdl\drivers/peripheral/ipc/cy_ipc_drv.h **** {
 699:Generated_Source\PSoC6\pdl\drivers/peripheral/ipc/cy_ipc_drv.h ****     CY_ASSERT_L1(0ul == (notifyEventIntr  & ~(uint32_t)(IPC_STRUCT_NOTIFY_INTR_NOTIFY_Msk)));
 700:Generated_Source\PSoC6\pdl\drivers/peripheral/ipc/cy_ipc_drv.h ****     REG_IPC_STRUCT_NOTIFY(base) = _VAL2FLD(IPC_STRUCT_NOTIFY_INTR_NOTIFY, notifyEventIntr);
 701:Generated_Source\PSoC6\pdl\drivers/peripheral/ipc/cy_ipc_drv.h **** }
 702:Generated_Source\PSoC6\pdl\drivers/peripheral/ipc/cy_ipc_drv.h **** 
 703:Generated_Source\PSoC6\pdl\drivers/peripheral/ipc/cy_ipc_drv.h **** 
 704:Generated_Source\PSoC6\pdl\drivers/peripheral/ipc/cy_ipc_drv.h **** /*******************************************************************************
 705:Generated_Source\PSoC6\pdl\drivers/peripheral/ipc/cy_ipc_drv.h **** * Function Name: Cy_IPC_Drv_ReleaseNotify
 706:Generated_Source\PSoC6\pdl\drivers/peripheral/ipc/cy_ipc_drv.h **** ****************************************************************************//**
 707:Generated_Source\PSoC6\pdl\drivers/peripheral/ipc/cy_ipc_drv.h **** *
 708:Generated_Source\PSoC6\pdl\drivers/peripheral/ipc/cy_ipc_drv.h **** * The function generates a release notification event by IPC interrupt structure.
 709:Generated_Source\PSoC6\pdl\drivers/peripheral/ipc/cy_ipc_drv.h **** *
 710:Generated_Source\PSoC6\pdl\drivers/peripheral/ipc/cy_ipc_drv.h **** * \param base
 711:Generated_Source\PSoC6\pdl\drivers/peripheral/ipc/cy_ipc_drv.h **** * This parameter is a handle that represents the base address of the registers
 712:Generated_Source\PSoC6\pdl\drivers/peripheral/ipc/cy_ipc_drv.h **** * of the IPC channel.
 713:Generated_Source\PSoC6\pdl\drivers/peripheral/ipc/cy_ipc_drv.h **** * The parameter is generally returned from a call to the \ref
 714:Generated_Source\PSoC6\pdl\drivers/peripheral/ipc/cy_ipc_drv.h **** * Cy_IPC_Drv_GetIpcBaseAddress.
 715:Generated_Source\PSoC6\pdl\drivers/peripheral/ipc/cy_ipc_drv.h **** *
 716:Generated_Source\PSoC6\pdl\drivers/peripheral/ipc/cy_ipc_drv.h **** * \param notifyEventIntr
 717:Generated_Source\PSoC6\pdl\drivers/peripheral/ipc/cy_ipc_drv.h **** * Bit encoded list of IPC interrupt lines that are triggered by a notification.
 718:Generated_Source\PSoC6\pdl\drivers/peripheral/ipc/cy_ipc_drv.h **** *
 719:Generated_Source\PSoC6\pdl\drivers/peripheral/ipc/cy_ipc_drv.h **** * \funcusage
 720:Generated_Source\PSoC6\pdl\drivers/peripheral/ipc/cy_ipc_drv.h **** * \snippet IPC_sut_01.cydsn/main_cm4.c snippet_Cy_IPC_Drv_ReadMsgWord
 721:Generated_Source\PSoC6\pdl\drivers/peripheral/ipc/cy_ipc_drv.h **** *
 722:Generated_Source\PSoC6\pdl\drivers/peripheral/ipc/cy_ipc_drv.h **** *******************************************************************************/
 723:Generated_Source\PSoC6\pdl\drivers/peripheral/ipc/cy_ipc_drv.h **** __STATIC_INLINE void  Cy_IPC_Drv_ReleaseNotify (IPC_STRUCT_Type* base, uint32_t notifyEventIntr)
 724:Generated_Source\PSoC6\pdl\drivers/peripheral/ipc/cy_ipc_drv.h **** {
 725:Generated_Source\PSoC6\pdl\drivers/peripheral/ipc/cy_ipc_drv.h ****     CY_ASSERT_L1(0ul == (notifyEventIntr  & ~(uint32_t)(IPC_INTR_STRUCT_INTR_RELEASE_Msk)));
 726:Generated_Source\PSoC6\pdl\drivers/peripheral/ipc/cy_ipc_drv.h ****     REG_IPC_STRUCT_RELEASE(base) = _VAL2FLD(IPC_INTR_STRUCT_INTR_RELEASE, notifyEventIntr);
 727:Generated_Source\PSoC6\pdl\drivers/peripheral/ipc/cy_ipc_drv.h **** }
 728:Generated_Source\PSoC6\pdl\drivers/peripheral/ipc/cy_ipc_drv.h **** 
 729:Generated_Source\PSoC6\pdl\drivers/peripheral/ipc/cy_ipc_drv.h **** 
 730:Generated_Source\PSoC6\pdl\drivers/peripheral/ipc/cy_ipc_drv.h **** /*******************************************************************************
 731:Generated_Source\PSoC6\pdl\drivers/peripheral/ipc/cy_ipc_drv.h **** * Function Name: Cy_IPC_Drv_WriteDataValue
 732:Generated_Source\PSoC6\pdl\drivers/peripheral/ipc/cy_ipc_drv.h **** ****************************************************************************//**
 733:Generated_Source\PSoC6\pdl\drivers/peripheral/ipc/cy_ipc_drv.h **** *
 734:Generated_Source\PSoC6\pdl\drivers/peripheral/ipc/cy_ipc_drv.h **** * The function writes a value to the DATA register of the IPC channel.
 735:Generated_Source\PSoC6\pdl\drivers/peripheral/ipc/cy_ipc_drv.h **** *
 736:Generated_Source\PSoC6\pdl\drivers/peripheral/ipc/cy_ipc_drv.h **** * This function is internal and should not be called directly by user
 737:Generated_Source\PSoC6\pdl\drivers/peripheral/ipc/cy_ipc_drv.h **** * software.
 738:Generated_Source\PSoC6\pdl\drivers/peripheral/ipc/cy_ipc_drv.h **** *
 739:Generated_Source\PSoC6\pdl\drivers/peripheral/ipc/cy_ipc_drv.h **** * \param base
 740:Generated_Source\PSoC6\pdl\drivers/peripheral/ipc/cy_ipc_drv.h **** * This parameter is a handle that represents the base address of the registers
 741:Generated_Source\PSoC6\pdl\drivers/peripheral/ipc/cy_ipc_drv.h **** * of the IPC channel.
 742:Generated_Source\PSoC6\pdl\drivers/peripheral/ipc/cy_ipc_drv.h **** * The parameter is generally returned from a call to the \ref
 743:Generated_Source\PSoC6\pdl\drivers/peripheral/ipc/cy_ipc_drv.h **** * Cy_IPC_Drv_GetIpcBaseAddress.
ARM GAS  C:\Users\Rolf\AppData\Local\Temp\ccTwK7ru.s 			page 26


 744:Generated_Source\PSoC6\pdl\drivers/peripheral/ipc/cy_ipc_drv.h **** *
 745:Generated_Source\PSoC6\pdl\drivers/peripheral/ipc/cy_ipc_drv.h **** * \param dataValue
 746:Generated_Source\PSoC6\pdl\drivers/peripheral/ipc/cy_ipc_drv.h **** * Value to be written.
 747:Generated_Source\PSoC6\pdl\drivers/peripheral/ipc/cy_ipc_drv.h **** *
 748:Generated_Source\PSoC6\pdl\drivers/peripheral/ipc/cy_ipc_drv.h **** *******************************************************************************/
 749:Generated_Source\PSoC6\pdl\drivers/peripheral/ipc/cy_ipc_drv.h **** __STATIC_INLINE void     Cy_IPC_Drv_WriteDataValue (IPC_STRUCT_Type* base, uint32_t dataValue)
 750:Generated_Source\PSoC6\pdl\drivers/peripheral/ipc/cy_ipc_drv.h **** {
 751:Generated_Source\PSoC6\pdl\drivers/peripheral/ipc/cy_ipc_drv.h ****     REG_IPC_STRUCT_DATA(base) = dataValue;
 752:Generated_Source\PSoC6\pdl\drivers/peripheral/ipc/cy_ipc_drv.h **** }
 753:Generated_Source\PSoC6\pdl\drivers/peripheral/ipc/cy_ipc_drv.h **** 
 754:Generated_Source\PSoC6\pdl\drivers/peripheral/ipc/cy_ipc_drv.h **** 
 755:Generated_Source\PSoC6\pdl\drivers/peripheral/ipc/cy_ipc_drv.h **** /*******************************************************************************
 756:Generated_Source\PSoC6\pdl\drivers/peripheral/ipc/cy_ipc_drv.h **** * Function Name: Cy_IPC_Drv_ReadDataValue
 757:Generated_Source\PSoC6\pdl\drivers/peripheral/ipc/cy_ipc_drv.h **** ****************************************************************************//**
 758:Generated_Source\PSoC6\pdl\drivers/peripheral/ipc/cy_ipc_drv.h **** *
 759:Generated_Source\PSoC6\pdl\drivers/peripheral/ipc/cy_ipc_drv.h **** * The function reads a value from the DATA register of the IPC channel.
 760:Generated_Source\PSoC6\pdl\drivers/peripheral/ipc/cy_ipc_drv.h **** *
 761:Generated_Source\PSoC6\pdl\drivers/peripheral/ipc/cy_ipc_drv.h **** * This function is internal and should not be called directly by user
 762:Generated_Source\PSoC6\pdl\drivers/peripheral/ipc/cy_ipc_drv.h **** * software.
 763:Generated_Source\PSoC6\pdl\drivers/peripheral/ipc/cy_ipc_drv.h **** *
 764:Generated_Source\PSoC6\pdl\drivers/peripheral/ipc/cy_ipc_drv.h **** * \param base
 765:Generated_Source\PSoC6\pdl\drivers/peripheral/ipc/cy_ipc_drv.h **** * This parameter is a handle that represents the base address of the registers
 766:Generated_Source\PSoC6\pdl\drivers/peripheral/ipc/cy_ipc_drv.h **** * of the IPC channel.
 767:Generated_Source\PSoC6\pdl\drivers/peripheral/ipc/cy_ipc_drv.h **** * The parameter is generally returned from a call to the \ref
 768:Generated_Source\PSoC6\pdl\drivers/peripheral/ipc/cy_ipc_drv.h **** * Cy_IPC_Drv_GetIpcBaseAddress.
 769:Generated_Source\PSoC6\pdl\drivers/peripheral/ipc/cy_ipc_drv.h **** *
 770:Generated_Source\PSoC6\pdl\drivers/peripheral/ipc/cy_ipc_drv.h **** * \return
 771:Generated_Source\PSoC6\pdl\drivers/peripheral/ipc/cy_ipc_drv.h **** * Value from DATA register.
 772:Generated_Source\PSoC6\pdl\drivers/peripheral/ipc/cy_ipc_drv.h **** *
 773:Generated_Source\PSoC6\pdl\drivers/peripheral/ipc/cy_ipc_drv.h **** *******************************************************************************/
 774:Generated_Source\PSoC6\pdl\drivers/peripheral/ipc/cy_ipc_drv.h **** __STATIC_INLINE uint32_t Cy_IPC_Drv_ReadDataValue (IPC_STRUCT_Type const * base)
 775:Generated_Source\PSoC6\pdl\drivers/peripheral/ipc/cy_ipc_drv.h **** {
 776:Generated_Source\PSoC6\pdl\drivers/peripheral/ipc/cy_ipc_drv.h ****     return REG_IPC_STRUCT_DATA(base);
 777:Generated_Source\PSoC6\pdl\drivers/peripheral/ipc/cy_ipc_drv.h **** }
 778:Generated_Source\PSoC6\pdl\drivers/peripheral/ipc/cy_ipc_drv.h **** 
 779:Generated_Source\PSoC6\pdl\drivers/peripheral/ipc/cy_ipc_drv.h **** 
 780:Generated_Source\PSoC6\pdl\drivers/peripheral/ipc/cy_ipc_drv.h **** /*******************************************************************************
 781:Generated_Source\PSoC6\pdl\drivers/peripheral/ipc/cy_ipc_drv.h **** * Function Name: Cy_IPC_Drv_IsLockAcquired
 782:Generated_Source\PSoC6\pdl\drivers/peripheral/ipc/cy_ipc_drv.h **** ****************************************************************************//**
 783:Generated_Source\PSoC6\pdl\drivers/peripheral/ipc/cy_ipc_drv.h **** *
 784:Generated_Source\PSoC6\pdl\drivers/peripheral/ipc/cy_ipc_drv.h **** * The function is used to test the status of an IPC channel. The function
 785:Generated_Source\PSoC6\pdl\drivers/peripheral/ipc/cy_ipc_drv.h **** * tells the reader if the IPC channel was in the locked or released state.
 786:Generated_Source\PSoC6\pdl\drivers/peripheral/ipc/cy_ipc_drv.h **** *
 787:Generated_Source\PSoC6\pdl\drivers/peripheral/ipc/cy_ipc_drv.h **** * \param base
 788:Generated_Source\PSoC6\pdl\drivers/peripheral/ipc/cy_ipc_drv.h **** * This parameter is a handle that represents the base address of the registers
 789:Generated_Source\PSoC6\pdl\drivers/peripheral/ipc/cy_ipc_drv.h **** * of the IPC channel.
 790:Generated_Source\PSoC6\pdl\drivers/peripheral/ipc/cy_ipc_drv.h **** * The parameter is generally returned from a call to the \ref
 791:Generated_Source\PSoC6\pdl\drivers/peripheral/ipc/cy_ipc_drv.h **** * Cy_IPC_Drv_GetIpcBaseAddress.
 792:Generated_Source\PSoC6\pdl\drivers/peripheral/ipc/cy_ipc_drv.h **** *
 793:Generated_Source\PSoC6\pdl\drivers/peripheral/ipc/cy_ipc_drv.h **** * \return
 794:Generated_Source\PSoC6\pdl\drivers/peripheral/ipc/cy_ipc_drv.h **** *   Status for the function:
 795:Generated_Source\PSoC6\pdl\drivers/peripheral/ipc/cy_ipc_drv.h **** *   true:  The IPC channel is in the Locked state.
 796:Generated_Source\PSoC6\pdl\drivers/peripheral/ipc/cy_ipc_drv.h **** *   false: The IPC channel is in the Released state.
 797:Generated_Source\PSoC6\pdl\drivers/peripheral/ipc/cy_ipc_drv.h **** *
 798:Generated_Source\PSoC6\pdl\drivers/peripheral/ipc/cy_ipc_drv.h **** * \funcusage
 799:Generated_Source\PSoC6\pdl\drivers/peripheral/ipc/cy_ipc_drv.h **** * \snippet IPC_sut_01.cydsn/main_cm4.c snippet_Cy_IPC_Drv_LockAcquire
 800:Generated_Source\PSoC6\pdl\drivers/peripheral/ipc/cy_ipc_drv.h **** *
ARM GAS  C:\Users\Rolf\AppData\Local\Temp\ccTwK7ru.s 			page 27


 801:Generated_Source\PSoC6\pdl\drivers/peripheral/ipc/cy_ipc_drv.h **** *******************************************************************************/
 802:Generated_Source\PSoC6\pdl\drivers/peripheral/ipc/cy_ipc_drv.h **** __STATIC_INLINE bool Cy_IPC_Drv_IsLockAcquired (IPC_STRUCT_Type const * base)
 803:Generated_Source\PSoC6\pdl\drivers/peripheral/ipc/cy_ipc_drv.h **** {
 804:Generated_Source\PSoC6\pdl\drivers/peripheral/ipc/cy_ipc_drv.h ****     return ( 0u != _FLD2VAL(IPC_STRUCT_ACQUIRE_SUCCESS, REG_IPC_STRUCT_LOCK_STATUS(base)) );
 805:Generated_Source\PSoC6\pdl\drivers/peripheral/ipc/cy_ipc_drv.h **** }
 806:Generated_Source\PSoC6\pdl\drivers/peripheral/ipc/cy_ipc_drv.h **** 
 807:Generated_Source\PSoC6\pdl\drivers/peripheral/ipc/cy_ipc_drv.h **** 
 808:Generated_Source\PSoC6\pdl\drivers/peripheral/ipc/cy_ipc_drv.h **** /*******************************************************************************
 809:Generated_Source\PSoC6\pdl\drivers/peripheral/ipc/cy_ipc_drv.h **** * Function Name: Cy_IPC_Drv_GetLockStatus
 810:Generated_Source\PSoC6\pdl\drivers/peripheral/ipc/cy_ipc_drv.h **** ****************************************************************************//**
 811:Generated_Source\PSoC6\pdl\drivers/peripheral/ipc/cy_ipc_drv.h **** *
 812:Generated_Source\PSoC6\pdl\drivers/peripheral/ipc/cy_ipc_drv.h **** * The function is used to get the status of an IPC channel.
 813:Generated_Source\PSoC6\pdl\drivers/peripheral/ipc/cy_ipc_drv.h **** *
 814:Generated_Source\PSoC6\pdl\drivers/peripheral/ipc/cy_ipc_drv.h **** * \param base
 815:Generated_Source\PSoC6\pdl\drivers/peripheral/ipc/cy_ipc_drv.h **** * This parameter is a handle that represents the base address of the registers
 816:Generated_Source\PSoC6\pdl\drivers/peripheral/ipc/cy_ipc_drv.h **** * of the IPC channel.
 817:Generated_Source\PSoC6\pdl\drivers/peripheral/ipc/cy_ipc_drv.h **** * The parameter is generally returned from a call to the \ref
 818:Generated_Source\PSoC6\pdl\drivers/peripheral/ipc/cy_ipc_drv.h **** * Cy_IPC_Drv_GetIpcBaseAddress.
 819:Generated_Source\PSoC6\pdl\drivers/peripheral/ipc/cy_ipc_drv.h **** *
 820:Generated_Source\PSoC6\pdl\drivers/peripheral/ipc/cy_ipc_drv.h **** * \return
 821:Generated_Source\PSoC6\pdl\drivers/peripheral/ipc/cy_ipc_drv.h **** * Value from LOCK_STATUS register.
 822:Generated_Source\PSoC6\pdl\drivers/peripheral/ipc/cy_ipc_drv.h **** *
 823:Generated_Source\PSoC6\pdl\drivers/peripheral/ipc/cy_ipc_drv.h **** * \funcusage
 824:Generated_Source\PSoC6\pdl\drivers/peripheral/ipc/cy_ipc_drv.h **** * \snippet IPC_sut_01.cydsn/main_cm4.c snippet_Cy_IPC_Drv_GetLockStatus
 825:Generated_Source\PSoC6\pdl\drivers/peripheral/ipc/cy_ipc_drv.h **** *
 826:Generated_Source\PSoC6\pdl\drivers/peripheral/ipc/cy_ipc_drv.h **** *******************************************************************************/
 827:Generated_Source\PSoC6\pdl\drivers/peripheral/ipc/cy_ipc_drv.h **** __STATIC_INLINE uint32_t Cy_IPC_Drv_GetLockStatus (IPC_STRUCT_Type const * base)
 828:Generated_Source\PSoC6\pdl\drivers/peripheral/ipc/cy_ipc_drv.h **** {
 829:Generated_Source\PSoC6\pdl\drivers/peripheral/ipc/cy_ipc_drv.h ****     return REG_IPC_STRUCT_LOCK_STATUS(base);
 830:Generated_Source\PSoC6\pdl\drivers/peripheral/ipc/cy_ipc_drv.h **** }
 831:Generated_Source\PSoC6\pdl\drivers/peripheral/ipc/cy_ipc_drv.h **** 
 832:Generated_Source\PSoC6\pdl\drivers/peripheral/ipc/cy_ipc_drv.h **** 
 833:Generated_Source\PSoC6\pdl\drivers/peripheral/ipc/cy_ipc_drv.h **** /*******************************************************************************
 834:Generated_Source\PSoC6\pdl\drivers/peripheral/ipc/cy_ipc_drv.h **** * Function Name: Cy_IPC_Drv_ExtractAcquireMask
 835:Generated_Source\PSoC6\pdl\drivers/peripheral/ipc/cy_ipc_drv.h **** ****************************************************************************//**
 836:Generated_Source\PSoC6\pdl\drivers/peripheral/ipc/cy_ipc_drv.h **** *
 837:Generated_Source\PSoC6\pdl\drivers/peripheral/ipc/cy_ipc_drv.h **** * The function extracts an Acquire mask part from full interrupt mask value.
 838:Generated_Source\PSoC6\pdl\drivers/peripheral/ipc/cy_ipc_drv.h **** *
 839:Generated_Source\PSoC6\pdl\drivers/peripheral/ipc/cy_ipc_drv.h **** * This function is internal and should not be called directly by user
 840:Generated_Source\PSoC6\pdl\drivers/peripheral/ipc/cy_ipc_drv.h **** * software.
 841:Generated_Source\PSoC6\pdl\drivers/peripheral/ipc/cy_ipc_drv.h **** *
 842:Generated_Source\PSoC6\pdl\drivers/peripheral/ipc/cy_ipc_drv.h **** * \param intMask
 843:Generated_Source\PSoC6\pdl\drivers/peripheral/ipc/cy_ipc_drv.h **** * Interrupt mask value to be processed.
 844:Generated_Source\PSoC6\pdl\drivers/peripheral/ipc/cy_ipc_drv.h **** *
 845:Generated_Source\PSoC6\pdl\drivers/peripheral/ipc/cy_ipc_drv.h **** * \return
 846:Generated_Source\PSoC6\pdl\drivers/peripheral/ipc/cy_ipc_drv.h **** * Acquire mask value.
 847:Generated_Source\PSoC6\pdl\drivers/peripheral/ipc/cy_ipc_drv.h **** *
 848:Generated_Source\PSoC6\pdl\drivers/peripheral/ipc/cy_ipc_drv.h **** *******************************************************************************/
 849:Generated_Source\PSoC6\pdl\drivers/peripheral/ipc/cy_ipc_drv.h **** __STATIC_INLINE uint32_t Cy_IPC_Drv_ExtractAcquireMask (uint32_t intMask)
 850:Generated_Source\PSoC6\pdl\drivers/peripheral/ipc/cy_ipc_drv.h **** {
 851:Generated_Source\PSoC6\pdl\drivers/peripheral/ipc/cy_ipc_drv.h ****     return _FLD2VAL(IPC_INTR_STRUCT_INTR_MASK_NOTIFY, intMask);
 852:Generated_Source\PSoC6\pdl\drivers/peripheral/ipc/cy_ipc_drv.h **** }
 853:Generated_Source\PSoC6\pdl\drivers/peripheral/ipc/cy_ipc_drv.h **** 
 854:Generated_Source\PSoC6\pdl\drivers/peripheral/ipc/cy_ipc_drv.h **** 
 855:Generated_Source\PSoC6\pdl\drivers/peripheral/ipc/cy_ipc_drv.h **** /*******************************************************************************
 856:Generated_Source\PSoC6\pdl\drivers/peripheral/ipc/cy_ipc_drv.h **** * Function Name: Cy_IPC_Drv_ExtractReleaseMask
 857:Generated_Source\PSoC6\pdl\drivers/peripheral/ipc/cy_ipc_drv.h **** ****************************************************************************//**
ARM GAS  C:\Users\Rolf\AppData\Local\Temp\ccTwK7ru.s 			page 28


 858:Generated_Source\PSoC6\pdl\drivers/peripheral/ipc/cy_ipc_drv.h **** *
 859:Generated_Source\PSoC6\pdl\drivers/peripheral/ipc/cy_ipc_drv.h **** * The function extracts a Release mask part from full interrupt mask value.
 860:Generated_Source\PSoC6\pdl\drivers/peripheral/ipc/cy_ipc_drv.h **** *
 861:Generated_Source\PSoC6\pdl\drivers/peripheral/ipc/cy_ipc_drv.h **** * This function is internal and should not be called directly by user
 862:Generated_Source\PSoC6\pdl\drivers/peripheral/ipc/cy_ipc_drv.h **** * software.
 863:Generated_Source\PSoC6\pdl\drivers/peripheral/ipc/cy_ipc_drv.h **** *
 864:Generated_Source\PSoC6\pdl\drivers/peripheral/ipc/cy_ipc_drv.h **** * \param intMask
 865:Generated_Source\PSoC6\pdl\drivers/peripheral/ipc/cy_ipc_drv.h **** * Interrupt mask value to be processed.
 866:Generated_Source\PSoC6\pdl\drivers/peripheral/ipc/cy_ipc_drv.h **** *
 867:Generated_Source\PSoC6\pdl\drivers/peripheral/ipc/cy_ipc_drv.h **** * \return
 868:Generated_Source\PSoC6\pdl\drivers/peripheral/ipc/cy_ipc_drv.h **** * Release mask value.
 869:Generated_Source\PSoC6\pdl\drivers/peripheral/ipc/cy_ipc_drv.h **** *
 870:Generated_Source\PSoC6\pdl\drivers/peripheral/ipc/cy_ipc_drv.h **** *******************************************************************************/
 871:Generated_Source\PSoC6\pdl\drivers/peripheral/ipc/cy_ipc_drv.h **** __STATIC_INLINE uint32_t Cy_IPC_Drv_ExtractReleaseMask (uint32_t intMask)
 872:Generated_Source\PSoC6\pdl\drivers/peripheral/ipc/cy_ipc_drv.h **** {
 873:Generated_Source\PSoC6\pdl\drivers/peripheral/ipc/cy_ipc_drv.h ****     return _FLD2VAL(IPC_INTR_STRUCT_INTR_MASK_RELEASE, intMask);
 874:Generated_Source\PSoC6\pdl\drivers/peripheral/ipc/cy_ipc_drv.h **** }
 875:Generated_Source\PSoC6\pdl\drivers/peripheral/ipc/cy_ipc_drv.h **** 
 876:Generated_Source\PSoC6\pdl\drivers/peripheral/ipc/cy_ipc_drv.h **** 
 877:Generated_Source\PSoC6\pdl\drivers/peripheral/ipc/cy_ipc_drv.h **** /*******************************************************************************
 878:Generated_Source\PSoC6\pdl\drivers/peripheral/ipc/cy_ipc_drv.h **** * Function Name: Cy_IPC_Drv_SendMsgPtr
 879:Generated_Source\PSoC6\pdl\drivers/peripheral/ipc/cy_ipc_drv.h **** ****************************************************************************//**
 880:Generated_Source\PSoC6\pdl\drivers/peripheral/ipc/cy_ipc_drv.h **** *
 881:Generated_Source\PSoC6\pdl\drivers/peripheral/ipc/cy_ipc_drv.h **** * This function is used to send a message pointer through an IPC channel.
 882:Generated_Source\PSoC6\pdl\drivers/peripheral/ipc/cy_ipc_drv.h **** * The message structure may hold a generic pointer that may contain the address
 883:Generated_Source\PSoC6\pdl\drivers/peripheral/ipc/cy_ipc_drv.h **** * of any user data type or structure. This parameter could be a pointer to a 32-bit
 884:Generated_Source\PSoC6\pdl\drivers/peripheral/ipc/cy_ipc_drv.h **** * integer, an array, or even a data structure defined in the user code. This
 885:Generated_Source\PSoC6\pdl\drivers/peripheral/ipc/cy_ipc_drv.h **** * function acts as a transfer engine for sending the pointer. Any memory
 886:Generated_Source\PSoC6\pdl\drivers/peripheral/ipc/cy_ipc_drv.h **** * management of the pointer allocation and deallocation is up to the application
 887:Generated_Source\PSoC6\pdl\drivers/peripheral/ipc/cy_ipc_drv.h **** * code.
 888:Generated_Source\PSoC6\pdl\drivers/peripheral/ipc/cy_ipc_drv.h **** * The function also has an associated notification field that will let the
 889:Generated_Source\PSoC6\pdl\drivers/peripheral/ipc/cy_ipc_drv.h **** * message notify one or multiple interrupts.
 890:Generated_Source\PSoC6\pdl\drivers/peripheral/ipc/cy_ipc_drv.h **** *
 891:Generated_Source\PSoC6\pdl\drivers/peripheral/ipc/cy_ipc_drv.h **** * \param base
 892:Generated_Source\PSoC6\pdl\drivers/peripheral/ipc/cy_ipc_drv.h **** * This parameter is a handle that represents the base address of the registers
 893:Generated_Source\PSoC6\pdl\drivers/peripheral/ipc/cy_ipc_drv.h **** * of the IPC channel.
 894:Generated_Source\PSoC6\pdl\drivers/peripheral/ipc/cy_ipc_drv.h **** * The parameter is generally returned from a call to the \ref
 895:Generated_Source\PSoC6\pdl\drivers/peripheral/ipc/cy_ipc_drv.h **** * Cy_IPC_Drv_GetIpcBaseAddress.
 896:Generated_Source\PSoC6\pdl\drivers/peripheral/ipc/cy_ipc_drv.h **** *
 897:Generated_Source\PSoC6\pdl\drivers/peripheral/ipc/cy_ipc_drv.h **** * \param notifyEventIntr
 898:Generated_Source\PSoC6\pdl\drivers/peripheral/ipc/cy_ipc_drv.h **** * Bit encoded list of IPC interrupt lines that are triggered during the release
 899:Generated_Source\PSoC6\pdl\drivers/peripheral/ipc/cy_ipc_drv.h **** * action.
 900:Generated_Source\PSoC6\pdl\drivers/peripheral/ipc/cy_ipc_drv.h **** *
 901:Generated_Source\PSoC6\pdl\drivers/peripheral/ipc/cy_ipc_drv.h **** * \param msgPtr
 902:Generated_Source\PSoC6\pdl\drivers/peripheral/ipc/cy_ipc_drv.h **** * The message pointer that is being sent over the IPC channel.
 903:Generated_Source\PSoC6\pdl\drivers/peripheral/ipc/cy_ipc_drv.h **** *
 904:Generated_Source\PSoC6\pdl\drivers/peripheral/ipc/cy_ipc_drv.h **** * \return   Status of the operation:
 905:Generated_Source\PSoC6\pdl\drivers/peripheral/ipc/cy_ipc_drv.h **** *   \retval CY_IPC_DRV_SUCCESS: The send operation was successful.
 906:Generated_Source\PSoC6\pdl\drivers/peripheral/ipc/cy_ipc_drv.h **** *   \retval CY_IPC_DRV_ERROR:   The IPC channel is unavailable because
 907:Generated_Source\PSoC6\pdl\drivers/peripheral/ipc/cy_ipc_drv.h **** *                               it is already locked.
 908:Generated_Source\PSoC6\pdl\drivers/peripheral/ipc/cy_ipc_drv.h **** *
 909:Generated_Source\PSoC6\pdl\drivers/peripheral/ipc/cy_ipc_drv.h **** * \funcusage
 910:Generated_Source\PSoC6\pdl\drivers/peripheral/ipc/cy_ipc_drv.h **** * \snippet IPC_sut_01.cydsn/main_cm4.c snippet_Cy_IPC_Drv_SendMsgPtr
 911:Generated_Source\PSoC6\pdl\drivers/peripheral/ipc/cy_ipc_drv.h **** *
 912:Generated_Source\PSoC6\pdl\drivers/peripheral/ipc/cy_ipc_drv.h **** *******************************************************************************/
 913:Generated_Source\PSoC6\pdl\drivers/peripheral/ipc/cy_ipc_drv.h **** __STATIC_INLINE cy_en_ipcdrv_status_t  Cy_IPC_Drv_SendMsgPtr(IPC_STRUCT_Type* base, uint32_t notify
 914:Generated_Source\PSoC6\pdl\drivers/peripheral/ipc/cy_ipc_drv.h **** {
ARM GAS  C:\Users\Rolf\AppData\Local\Temp\ccTwK7ru.s 			page 29


 915:Generated_Source\PSoC6\pdl\drivers/peripheral/ipc/cy_ipc_drv.h ****     CY_ASSERT_L1(NULL != msgPtr);
 916:Generated_Source\PSoC6\pdl\drivers/peripheral/ipc/cy_ipc_drv.h ****     return Cy_IPC_Drv_SendMsgWord(base, notifyEventIntr, (uint32_t)msgPtr);
 376              		.loc 2 916 0
 377 001e 124A     		ldr	r2, .L35+8
 378 0020 0121     		movs	r1, #1
 379 0022 FFF7FEFF 		bl	Cy_IPC_Drv_SendMsgWord
 380              	.LVL20:
 381              	.LBE17:
 382              	.LBE16:
 307:Generated_Source\PSoC6\pdl\drivers\peripheral\syslib/cy_syslib.c ****     static uint32_t msg = CY_IPC_DATA_FOR_CM4_SOFT_RESET;
 308:Generated_Source\PSoC6\pdl\drivers\peripheral\syslib/cy_syslib.c **** 
 309:Generated_Source\PSoC6\pdl\drivers\peripheral\syslib/cy_syslib.c ****     /* Tries to acquire the IPC structure and pass the arguments to SROM API.
 310:Generated_Source\PSoC6\pdl\drivers\peripheral\syslib/cy_syslib.c ****     *  SROM API parameters:
 311:Generated_Source\PSoC6\pdl\drivers\peripheral\syslib/cy_syslib.c ****     *   ipcPtr: IPC Structure 0 reserved for M0+ Secure Access.
 312:Generated_Source\PSoC6\pdl\drivers\peripheral\syslib/cy_syslib.c ****     *   notifyEvent_Intr: 1U - IPC Interrupt Structure 1 is used for Releasing IPC 0 (M0+ NMI Handl
 313:Generated_Source\PSoC6\pdl\drivers\peripheral\syslib/cy_syslib.c ****     *   msgPtr: &msg - The address of SRAM with the API's parameters.
 314:Generated_Source\PSoC6\pdl\drivers\peripheral\syslib/cy_syslib.c ****     */
 315:Generated_Source\PSoC6\pdl\drivers\peripheral\syslib/cy_syslib.c ****     if(CY_IPC_DRV_SUCCESS != Cy_IPC_Drv_SendMsgPtr(Cy_IPC_Drv_GetIpcBaseAddress(CY_IPC_CHAN_SYSCALL
 383              		.loc 1 315 0
 384 0026 0028     		cmp	r0, #0
 385 0028 04D0     		beq	.L34
 316:Generated_Source\PSoC6\pdl\drivers\peripheral\syslib/cy_syslib.c ****     {
 317:Generated_Source\PSoC6\pdl\drivers\peripheral\syslib/cy_syslib.c ****         CY_ASSERT(0U != 0U);
 386              		.loc 1 317 0 discriminator 1
 387 002a 3E21     		movs	r1, #62
 388 002c FF31     		adds	r1, r1, #255
 389 002e 0F48     		ldr	r0, .L35+12
 390 0030 FFF7FEFF 		bl	Cy_SysLib_AssertFailed
 391              	.LVL21:
 392              	.L34:
 393              	.LBB18:
 394              	.LBB19:
 451:Generated_Source\PSoC6\pdl\drivers/peripheral/ipc/cy_ipc_drv.h ****     return ( (IPC_STRUCT_Type*) CY_IPC_STRUCT_PTR(ipcIndex));
 395              		.loc 2 451 0 discriminator 1
 396 0034 0A4B     		ldr	r3, .L35
 397 0036 1A68     		ldr	r2, [r3]
 398 0038 3123     		movs	r3, #49
 399 003a D35C     		ldrb	r3, [r2, r3]
 400 003c 002B     		cmp	r3, #0
 401 003e 04D1     		bne	.L33
 451:Generated_Source\PSoC6\pdl\drivers/peripheral/ipc/cy_ipc_drv.h ****     return ( (IPC_STRUCT_Type*) CY_IPC_STRUCT_PTR(ipcIndex));
 402              		.loc 2 451 0 is_stmt 0
 403 0040 C421     		movs	r1, #196
 404 0042 FF31     		adds	r1, r1, #255
 405 0044 0748     		ldr	r0, .L35+4
 406 0046 FFF7FEFF 		bl	Cy_SysLib_AssertFailed
 407              	.LVL22:
 408              	.L33:
 452:Generated_Source\PSoC6\pdl\drivers/peripheral/ipc/cy_ipc_drv.h **** }
 409              		.loc 2 452 0 is_stmt 1
 410 004a 054B     		ldr	r3, .L35
 411 004c 1A68     		ldr	r2, [r3]
 412 004e 136A     		ldr	r3, [r2, #32]
 413              	.LVL23:
 414              	.LBE19:
 415              	.LBE18:
 416              	.LBB20:
ARM GAS  C:\Users\Rolf\AppData\Local\Temp\ccTwK7ru.s 			page 30


 417              	.LBB21:
 804:Generated_Source\PSoC6\pdl\drivers/peripheral/ipc/cy_ipc_drv.h **** }
 418              		.loc 2 804 0
 419 0050 B421     		movs	r1, #180
 420 0052 5258     		ldr	r2, [r2, r1]
 421 0054 D318     		adds	r3, r2, r3
 422 0056 1B68     		ldr	r3, [r3]
 423              	.LBE21:
 424              	.LBE20:
 318:Generated_Source\PSoC6\pdl\drivers\peripheral\syslib/cy_syslib.c ****     }
 319:Generated_Source\PSoC6\pdl\drivers\peripheral\syslib/cy_syslib.c **** 
 320:Generated_Source\PSoC6\pdl\drivers\peripheral\syslib/cy_syslib.c ****     while(Cy_IPC_Drv_IsLockAcquired(Cy_IPC_Drv_GetIpcBaseAddress(CY_IPC_CHAN_SYSCALL_CM0)))
 425              		.loc 1 320 0
 426 0058 002B     		cmp	r3, #0
 427 005a EBDB     		blt	.L34
 321:Generated_Source\PSoC6\pdl\drivers\peripheral\syslib/cy_syslib.c ****     {
 322:Generated_Source\PSoC6\pdl\drivers\peripheral\syslib/cy_syslib.c ****         /* Waits until SROM API runs the command (sent over the IPC channel) and releases the IPC0 
 323:Generated_Source\PSoC6\pdl\drivers\peripheral\syslib/cy_syslib.c ****     }
 324:Generated_Source\PSoC6\pdl\drivers\peripheral\syslib/cy_syslib.c **** }
 428              		.loc 1 324 0
 429              		@ sp needed
 430 005c 10BD     		pop	{r4, pc}
 431              	.L36:
 432 005e C046     		.align	2
 433              	.L35:
 434 0060 00000000 		.word	cy_device
 435 0064 00000000 		.word	.LC6
 436 0068 00000000 		.word	.LANCHOR1
 437 006c 40000000 		.word	.LC9
 438              		.cfi_endproc
 439              	.LFE72:
 440              		.size	Cy_SysLib_SoftResetCM4, .-Cy_SysLib_SoftResetCM4
 441              		.section	.text.Cy_SysLib_GetUniqueId,"ax",%progbits
 442              		.align	2
 443              		.global	Cy_SysLib_GetUniqueId
 444              		.code	16
 445              		.thumb_func
 446              		.type	Cy_SysLib_GetUniqueId, %function
 447              	Cy_SysLib_GetUniqueId:
 448              	.LFB73:
 325:Generated_Source\PSoC6\pdl\drivers\peripheral\syslib/cy_syslib.c **** #endif /* CY_CPU_CORTEX_M0P || defined(CY_DOXYGEN) */
 326:Generated_Source\PSoC6\pdl\drivers\peripheral\syslib/cy_syslib.c **** 
 327:Generated_Source\PSoC6\pdl\drivers\peripheral\syslib/cy_syslib.c **** 
 328:Generated_Source\PSoC6\pdl\drivers\peripheral\syslib/cy_syslib.c **** /*******************************************************************************
 329:Generated_Source\PSoC6\pdl\drivers\peripheral\syslib/cy_syslib.c **** * Function Name: Cy_SysLib_GetUniqueId
 330:Generated_Source\PSoC6\pdl\drivers\peripheral\syslib/cy_syslib.c **** ****************************************************************************//**
 331:Generated_Source\PSoC6\pdl\drivers\peripheral\syslib/cy_syslib.c **** *
 332:Generated_Source\PSoC6\pdl\drivers\peripheral\syslib/cy_syslib.c **** * This function returns the silicon unique ID.
 333:Generated_Source\PSoC6\pdl\drivers\peripheral\syslib/cy_syslib.c **** * The ID includes Die lot[3]#, Die Wafer#, Die X, Die Y, Die Sort#, Die Minor
 334:Generated_Source\PSoC6\pdl\drivers\peripheral\syslib/cy_syslib.c **** * and Die Year.
 335:Generated_Source\PSoC6\pdl\drivers\peripheral\syslib/cy_syslib.c **** *
 336:Generated_Source\PSoC6\pdl\drivers\peripheral\syslib/cy_syslib.c **** * \return  A combined 64-bit unique ID.
 337:Generated_Source\PSoC6\pdl\drivers\peripheral\syslib/cy_syslib.c **** *          [63:57] - DIE_YEAR
 338:Generated_Source\PSoC6\pdl\drivers\peripheral\syslib/cy_syslib.c **** *          [56:56] - DIE_MINOR
 339:Generated_Source\PSoC6\pdl\drivers\peripheral\syslib/cy_syslib.c **** *          [55:48] - DIE_SORT
 340:Generated_Source\PSoC6\pdl\drivers\peripheral\syslib/cy_syslib.c **** *          [47:40] - DIE_Y
 341:Generated_Source\PSoC6\pdl\drivers\peripheral\syslib/cy_syslib.c **** *          [39:32] - DIE_X
ARM GAS  C:\Users\Rolf\AppData\Local\Temp\ccTwK7ru.s 			page 31


 342:Generated_Source\PSoC6\pdl\drivers\peripheral\syslib/cy_syslib.c **** *          [31:24] - DIE_WAFER
 343:Generated_Source\PSoC6\pdl\drivers\peripheral\syslib/cy_syslib.c **** *          [23:16] - DIE_LOT[2]
 344:Generated_Source\PSoC6\pdl\drivers\peripheral\syslib/cy_syslib.c **** *          [15: 8] - DIE_LOT[1]
 345:Generated_Source\PSoC6\pdl\drivers\peripheral\syslib/cy_syslib.c **** *          [ 7: 0] - DIE_LOT[0]
 346:Generated_Source\PSoC6\pdl\drivers\peripheral\syslib/cy_syslib.c **** *
 347:Generated_Source\PSoC6\pdl\drivers\peripheral\syslib/cy_syslib.c **** *******************************************************************************/
 348:Generated_Source\PSoC6\pdl\drivers\peripheral\syslib/cy_syslib.c **** uint64_t Cy_SysLib_GetUniqueId(void)
 349:Generated_Source\PSoC6\pdl\drivers\peripheral\syslib/cy_syslib.c **** {
 449              		.loc 1 349 0
 450              		.cfi_startproc
 451              		@ args = 0, pretend = 0, frame = 0
 452              		@ frame_needed = 0, uses_anonymous_args = 0
 453              		@ link register save eliminated.
 350:Generated_Source\PSoC6\pdl\drivers\peripheral\syslib/cy_syslib.c ****     uint32_t uniqueIdHi;
 351:Generated_Source\PSoC6\pdl\drivers\peripheral\syslib/cy_syslib.c ****     uint32_t uniqueIdLo;
 352:Generated_Source\PSoC6\pdl\drivers\peripheral\syslib/cy_syslib.c **** 
 353:Generated_Source\PSoC6\pdl\drivers\peripheral\syslib/cy_syslib.c ****     uniqueIdHi = ((uint32_t) SFLASH_DIE_YEAR        << (CY_UNIQUE_ID_DIE_YEAR_Pos  - CY_UNIQUE_ID_D
 454              		.loc 1 353 0
 455 0000 B023     		movs	r3, #176
 456 0002 5B05     		lsls	r3, r3, #21
 457 0004 114A     		ldr	r2, .L38
 458 0006 9A5C     		ldrb	r2, [r3, r2]
 459 0008 5106     		lsls	r1, r2, #25
 354:Generated_Source\PSoC6\pdl\drivers\peripheral\syslib/cy_syslib.c ****                  (((uint32_t)SFLASH_DIE_MINOR & 1U) << (CY_UNIQUE_ID_DIE_MINOR_Pos - CY_UNIQUE_ID_D
 460              		.loc 1 354 0
 461 000a 114A     		ldr	r2, .L38+4
 462 000c 9A5C     		ldrb	r2, [r3, r2]
 463 000e 0120     		movs	r0, #1
 464 0010 0240     		ands	r2, r0
 465 0012 1206     		lsls	r2, r2, #24
 353:Generated_Source\PSoC6\pdl\drivers\peripheral\syslib/cy_syslib.c ****                  (((uint32_t)SFLASH_DIE_MINOR & 1U) << (CY_UNIQUE_ID_DIE_MINOR_Pos - CY_UNIQUE_ID_D
 466              		.loc 1 353 0
 467 0014 0A43     		orrs	r2, r1
 355:Generated_Source\PSoC6\pdl\drivers\peripheral\syslib/cy_syslib.c ****                  ((uint32_t) SFLASH_DIE_SORT        << (CY_UNIQUE_ID_DIE_SORT_Pos  - CY_UNIQUE_ID_D
 468              		.loc 1 355 0
 469 0016 0F49     		ldr	r1, .L38+8
 470 0018 595C     		ldrb	r1, [r3, r1]
 471 001a 0904     		lsls	r1, r1, #16
 354:Generated_Source\PSoC6\pdl\drivers\peripheral\syslib/cy_syslib.c ****                  (((uint32_t)SFLASH_DIE_MINOR & 1U) << (CY_UNIQUE_ID_DIE_MINOR_Pos - CY_UNIQUE_ID_D
 472              		.loc 1 354 0
 473 001c 0A43     		orrs	r2, r1
 356:Generated_Source\PSoC6\pdl\drivers\peripheral\syslib/cy_syslib.c ****                  ((uint32_t) SFLASH_DIE_Y           << (CY_UNIQUE_ID_DIE_Y_Pos     - CY_UNIQUE_ID_D
 474              		.loc 1 356 0
 475 001e 0E49     		ldr	r1, .L38+12
 476 0020 585C     		ldrb	r0, [r3, r1]
 477 0022 0002     		lsls	r0, r0, #8
 355:Generated_Source\PSoC6\pdl\drivers\peripheral\syslib/cy_syslib.c ****                  ((uint32_t) SFLASH_DIE_SORT        << (CY_UNIQUE_ID_DIE_SORT_Pos  - CY_UNIQUE_ID_D
 478              		.loc 1 355 0
 479 0024 0243     		orrs	r2, r0
 357:Generated_Source\PSoC6\pdl\drivers\peripheral\syslib/cy_syslib.c ****                  ((uint32_t) SFLASH_DIE_X);
 480              		.loc 1 357 0
 481 0026 0D49     		ldr	r1, .L38+16
 482 0028 595C     		ldrb	r1, [r3, r1]
 353:Generated_Source\PSoC6\pdl\drivers\peripheral\syslib/cy_syslib.c ****                  (((uint32_t)SFLASH_DIE_MINOR & 1U) << (CY_UNIQUE_ID_DIE_MINOR_Pos - CY_UNIQUE_ID_D
 483              		.loc 1 353 0
 484 002a 1143     		orrs	r1, r2
 485              	.LVL24:
ARM GAS  C:\Users\Rolf\AppData\Local\Temp\ccTwK7ru.s 			page 32


 358:Generated_Source\PSoC6\pdl\drivers\peripheral\syslib/cy_syslib.c **** 
 359:Generated_Source\PSoC6\pdl\drivers\peripheral\syslib/cy_syslib.c ****     uniqueIdLo = ((uint32_t) SFLASH_DIE_WAFER       << CY_UNIQUE_ID_DIE_WAFER_Pos) |
 486              		.loc 1 359 0
 487 002c 0C4A     		ldr	r2, .L38+20
 488 002e 985C     		ldrb	r0, [r3, r2]
 489 0030 0006     		lsls	r0, r0, #24
 360:Generated_Source\PSoC6\pdl\drivers\peripheral\syslib/cy_syslib.c ****                  ((uint32_t) SFLASH_DIE_LOT(2U)     << CY_UNIQUE_ID_DIE_LOT_2_Pos) |
 490              		.loc 1 360 0
 491 0032 0C4A     		ldr	r2, .L38+24
 492 0034 9A5C     		ldrb	r2, [r3, r2]
 493 0036 1204     		lsls	r2, r2, #16
 359:Generated_Source\PSoC6\pdl\drivers\peripheral\syslib/cy_syslib.c ****                  ((uint32_t) SFLASH_DIE_LOT(2U)     << CY_UNIQUE_ID_DIE_LOT_2_Pos) |
 494              		.loc 1 359 0
 495 0038 1043     		orrs	r0, r2
 361:Generated_Source\PSoC6\pdl\drivers\peripheral\syslib/cy_syslib.c ****                  ((uint32_t) SFLASH_DIE_LOT(1U)     << CY_UNIQUE_ID_DIE_LOT_1_Pos) |
 496              		.loc 1 361 0
 497 003a 0B4A     		ldr	r2, .L38+28
 498 003c 9A5C     		ldrb	r2, [r3, r2]
 499 003e 1202     		lsls	r2, r2, #8
 360:Generated_Source\PSoC6\pdl\drivers\peripheral\syslib/cy_syslib.c ****                  ((uint32_t) SFLASH_DIE_LOT(2U)     << CY_UNIQUE_ID_DIE_LOT_2_Pos) |
 500              		.loc 1 360 0
 501 0040 1043     		orrs	r0, r2
 362:Generated_Source\PSoC6\pdl\drivers\peripheral\syslib/cy_syslib.c ****                  ((uint32_t) SFLASH_DIE_LOT(0U));
 502              		.loc 1 362 0
 503 0042 C022     		movs	r2, #192
 504 0044 D200     		lsls	r2, r2, #3
 505 0046 9B5C     		ldrb	r3, [r3, r2]
 359:Generated_Source\PSoC6\pdl\drivers\peripheral\syslib/cy_syslib.c ****                  ((uint32_t) SFLASH_DIE_LOT(2U)     << CY_UNIQUE_ID_DIE_LOT_2_Pos) |
 506              		.loc 1 359 0
 507 0048 1843     		orrs	r0, r3
 508              	.LVL25:
 363:Generated_Source\PSoC6\pdl\drivers\peripheral\syslib/cy_syslib.c **** 
 364:Generated_Source\PSoC6\pdl\drivers\peripheral\syslib/cy_syslib.c ****     return (((uint64_t) uniqueIdHi << CY_UNIQUE_ID_DIE_X_Pos) | uniqueIdLo);
 365:Generated_Source\PSoC6\pdl\drivers\peripheral\syslib/cy_syslib.c **** }
 509              		.loc 1 365 0
 510              		@ sp needed
 511 004a 7047     		bx	lr
 512              	.L39:
 513              		.align	2
 514              	.L38:
 515 004c 0A060000 		.word	1546
 516 0050 07060000 		.word	1543
 517 0054 06060000 		.word	1542
 518 0058 05060000 		.word	1541
 519 005c 04060000 		.word	1540
 520 0060 03060000 		.word	1539
 521 0064 02060000 		.word	1538
 522 0068 01060000 		.word	1537
 523              		.cfi_endproc
 524              	.LFE73:
 525              		.size	Cy_SysLib_GetUniqueId, .-Cy_SysLib_GetUniqueId
 526              		.section	.text.Cy_SysLib_ProcessingFault,"ax",%progbits
 527              		.align	2
 528              		.weak	Cy_SysLib_ProcessingFault
 529              		.code	16
 530              		.thumb_func
 531              		.type	Cy_SysLib_ProcessingFault, %function
ARM GAS  C:\Users\Rolf\AppData\Local\Temp\ccTwK7ru.s 			page 33


 532              	Cy_SysLib_ProcessingFault:
 533              	.LFB75:
 366:Generated_Source\PSoC6\pdl\drivers\peripheral\syslib/cy_syslib.c **** 
 367:Generated_Source\PSoC6\pdl\drivers\peripheral\syslib/cy_syslib.c **** 
 368:Generated_Source\PSoC6\pdl\drivers\peripheral\syslib/cy_syslib.c **** #if (CY_ARM_FAULT_DEBUG == CY_ARM_FAULT_DEBUG_ENABLED) || defined(CY_DOXYGEN)
 369:Generated_Source\PSoC6\pdl\drivers\peripheral\syslib/cy_syslib.c **** /*******************************************************************************
 370:Generated_Source\PSoC6\pdl\drivers\peripheral\syslib/cy_syslib.c **** * Function Name: Cy_SysLib_FaultHandler
 371:Generated_Source\PSoC6\pdl\drivers\peripheral\syslib/cy_syslib.c **** ****************************************************************************//**
 372:Generated_Source\PSoC6\pdl\drivers\peripheral\syslib/cy_syslib.c **** *
 373:Generated_Source\PSoC6\pdl\drivers\peripheral\syslib/cy_syslib.c **** * This function stores the ARM Cortex registers into a non-zero init area for
 374:Generated_Source\PSoC6\pdl\drivers\peripheral\syslib/cy_syslib.c **** * debugging. This function calls Cy_SysLib_ProcessingFault() after storing all
 375:Generated_Source\PSoC6\pdl\drivers\peripheral\syslib/cy_syslib.c **** * information.
 376:Generated_Source\PSoC6\pdl\drivers\peripheral\syslib/cy_syslib.c **** *
 377:Generated_Source\PSoC6\pdl\drivers\peripheral\syslib/cy_syslib.c **** * \param faultStackAddr The address of the stack pointer, indicates the lowest
 378:Generated_Source\PSoC6\pdl\drivers\peripheral\syslib/cy_syslib.c **** *                       address in the fault stack frame to be stored.
 379:Generated_Source\PSoC6\pdl\drivers\peripheral\syslib/cy_syslib.c **** * \note This function stores the fault stack frame only for the first occurred
 380:Generated_Source\PSoC6\pdl\drivers\peripheral\syslib/cy_syslib.c **** *       fault.
 381:Generated_Source\PSoC6\pdl\drivers\peripheral\syslib/cy_syslib.c **** * \note The PDL doesn't provide an API to analyze the stored register
 382:Generated_Source\PSoC6\pdl\drivers\peripheral\syslib/cy_syslib.c **** *       values. The user has to add additional functions for the analysis,
 383:Generated_Source\PSoC6\pdl\drivers\peripheral\syslib/cy_syslib.c **** *       if necessary.
 384:Generated_Source\PSoC6\pdl\drivers\peripheral\syslib/cy_syslib.c **** * \note The CY_ARM_FAULT_DEBUG macro defines if the Fault Handler is enabled.
 385:Generated_Source\PSoC6\pdl\drivers\peripheral\syslib/cy_syslib.c **** *       By default it is set to CY_ARM_FAULT_DEBUG_ENABLED and enables the
 386:Generated_Source\PSoC6\pdl\drivers\peripheral\syslib/cy_syslib.c **** *       Fault Handler.
 387:Generated_Source\PSoC6\pdl\drivers\peripheral\syslib/cy_syslib.c **** *       If there is a necessity to save memory or have some specific custom
 388:Generated_Source\PSoC6\pdl\drivers\peripheral\syslib/cy_syslib.c **** *       handler, etc. then CY_ARM_FAULT_DEBUG should be redefined as
 389:Generated_Source\PSoC6\pdl\drivers\peripheral\syslib/cy_syslib.c **** *       CY_ARM_FAULT_DEBUG_DISABLED. To do this, the following definition should
 390:Generated_Source\PSoC6\pdl\drivers\peripheral\syslib/cy_syslib.c **** *       be added to the compiler Command Line (through the project Build
 391:Generated_Source\PSoC6\pdl\drivers\peripheral\syslib/cy_syslib.c **** *       Settings): "-D CY_ARM_FAULT_DEBUG=0".
 392:Generated_Source\PSoC6\pdl\drivers\peripheral\syslib/cy_syslib.c **** *
 393:Generated_Source\PSoC6\pdl\drivers\peripheral\syslib/cy_syslib.c **** *******************************************************************************/
 394:Generated_Source\PSoC6\pdl\drivers\peripheral\syslib/cy_syslib.c **** void Cy_SysLib_FaultHandler(uint32_t const *faultStackAddr)
 395:Generated_Source\PSoC6\pdl\drivers\peripheral\syslib/cy_syslib.c **** {
 396:Generated_Source\PSoC6\pdl\drivers\peripheral\syslib/cy_syslib.c ****     /* Stores general registers */
 397:Generated_Source\PSoC6\pdl\drivers\peripheral\syslib/cy_syslib.c ****     cy_faultFrame.r0  = faultStackAddr[CY_R0_Pos];
 398:Generated_Source\PSoC6\pdl\drivers\peripheral\syslib/cy_syslib.c ****     cy_faultFrame.r1  = faultStackAddr[CY_R1_Pos];
 399:Generated_Source\PSoC6\pdl\drivers\peripheral\syslib/cy_syslib.c ****     cy_faultFrame.r2  = faultStackAddr[CY_R2_Pos];
 400:Generated_Source\PSoC6\pdl\drivers\peripheral\syslib/cy_syslib.c ****     cy_faultFrame.r3  = faultStackAddr[CY_R3_Pos];
 401:Generated_Source\PSoC6\pdl\drivers\peripheral\syslib/cy_syslib.c ****     cy_faultFrame.r12 = faultStackAddr[CY_R12_Pos];
 402:Generated_Source\PSoC6\pdl\drivers\peripheral\syslib/cy_syslib.c ****     cy_faultFrame.lr  = faultStackAddr[CY_LR_Pos];
 403:Generated_Source\PSoC6\pdl\drivers\peripheral\syslib/cy_syslib.c ****     cy_faultFrame.pc  = faultStackAddr[CY_PC_Pos];
 404:Generated_Source\PSoC6\pdl\drivers\peripheral\syslib/cy_syslib.c ****     cy_faultFrame.psr = faultStackAddr[CY_PSR_Pos];
 405:Generated_Source\PSoC6\pdl\drivers\peripheral\syslib/cy_syslib.c **** 
 406:Generated_Source\PSoC6\pdl\drivers\peripheral\syslib/cy_syslib.c ****     #if (CY_CPU_CORTEX_M4)
 407:Generated_Source\PSoC6\pdl\drivers\peripheral\syslib/cy_syslib.c ****         /* Stores the Configurable Fault Status Register state with the fault cause */
 408:Generated_Source\PSoC6\pdl\drivers\peripheral\syslib/cy_syslib.c ****         cy_faultFrame.cfsr.cfsrReg = SCB->CFSR;
 409:Generated_Source\PSoC6\pdl\drivers\peripheral\syslib/cy_syslib.c ****         /* Stores the Hard Fault Status Register */
 410:Generated_Source\PSoC6\pdl\drivers\peripheral\syslib/cy_syslib.c ****         cy_faultFrame.hfsr.hfsrReg = SCB->HFSR;
 411:Generated_Source\PSoC6\pdl\drivers\peripheral\syslib/cy_syslib.c ****         /* Stores the System Handler Control and State Register */
 412:Generated_Source\PSoC6\pdl\drivers\peripheral\syslib/cy_syslib.c ****         cy_faultFrame.shcsr.shcsrReg = SCB->SHCSR;
 413:Generated_Source\PSoC6\pdl\drivers\peripheral\syslib/cy_syslib.c ****         /* Store MemMange fault address */
 414:Generated_Source\PSoC6\pdl\drivers\peripheral\syslib/cy_syslib.c ****         cy_faultFrame.mmfar = SCB->MMFAR;
 415:Generated_Source\PSoC6\pdl\drivers\peripheral\syslib/cy_syslib.c ****         /* Store Bus fault address */
 416:Generated_Source\PSoC6\pdl\drivers\peripheral\syslib/cy_syslib.c ****         cy_faultFrame.bfar = SCB->BFAR;
 417:Generated_Source\PSoC6\pdl\drivers\peripheral\syslib/cy_syslib.c **** 
 418:Generated_Source\PSoC6\pdl\drivers\peripheral\syslib/cy_syslib.c ****         #if ((defined (__FPU_PRESENT) && (__FPU_PRESENT == 1U)) && \
 419:Generated_Source\PSoC6\pdl\drivers\peripheral\syslib/cy_syslib.c ****              (defined (__FPU_USED   ) && (__FPU_USED    == 1U)))
 420:Generated_Source\PSoC6\pdl\drivers\peripheral\syslib/cy_syslib.c ****             /* Checks cumulative exception bits for floating-point exceptions */
ARM GAS  C:\Users\Rolf\AppData\Local\Temp\ccTwK7ru.s 			page 34


 421:Generated_Source\PSoC6\pdl\drivers\peripheral\syslib/cy_syslib.c ****             if(0U != (__get_FPSCR() & (CY_FPSCR_IXC_Msk | CY_FPSCR_IDC_Msk)))
 422:Generated_Source\PSoC6\pdl\drivers\peripheral\syslib/cy_syslib.c ****             {
 423:Generated_Source\PSoC6\pdl\drivers\peripheral\syslib/cy_syslib.c ****                 cy_faultFrame.s0    = faultStackAddr[CY_S0_Pos];
 424:Generated_Source\PSoC6\pdl\drivers\peripheral\syslib/cy_syslib.c ****                 cy_faultFrame.s1    = faultStackAddr[CY_S1_Pos];
 425:Generated_Source\PSoC6\pdl\drivers\peripheral\syslib/cy_syslib.c ****                 cy_faultFrame.s2    = faultStackAddr[CY_S2_Pos];
 426:Generated_Source\PSoC6\pdl\drivers\peripheral\syslib/cy_syslib.c ****                 cy_faultFrame.s3    = faultStackAddr[CY_S3_Pos];
 427:Generated_Source\PSoC6\pdl\drivers\peripheral\syslib/cy_syslib.c ****                 cy_faultFrame.s4    = faultStackAddr[CY_S4_Pos];
 428:Generated_Source\PSoC6\pdl\drivers\peripheral\syslib/cy_syslib.c ****                 cy_faultFrame.s5    = faultStackAddr[CY_S5_Pos];
 429:Generated_Source\PSoC6\pdl\drivers\peripheral\syslib/cy_syslib.c ****                 cy_faultFrame.s6    = faultStackAddr[CY_S6_Pos];
 430:Generated_Source\PSoC6\pdl\drivers\peripheral\syslib/cy_syslib.c ****                 cy_faultFrame.s7    = faultStackAddr[CY_S7_Pos];
 431:Generated_Source\PSoC6\pdl\drivers\peripheral\syslib/cy_syslib.c ****                 cy_faultFrame.s8    = faultStackAddr[CY_S8_Pos];
 432:Generated_Source\PSoC6\pdl\drivers\peripheral\syslib/cy_syslib.c ****                 cy_faultFrame.s9    = faultStackAddr[CY_S9_Pos];
 433:Generated_Source\PSoC6\pdl\drivers\peripheral\syslib/cy_syslib.c ****                 cy_faultFrame.s10   = faultStackAddr[CY_S10_Pos];
 434:Generated_Source\PSoC6\pdl\drivers\peripheral\syslib/cy_syslib.c ****                 cy_faultFrame.s11   = faultStackAddr[CY_S11_Pos];
 435:Generated_Source\PSoC6\pdl\drivers\peripheral\syslib/cy_syslib.c ****                 cy_faultFrame.s12   = faultStackAddr[CY_S12_Pos];
 436:Generated_Source\PSoC6\pdl\drivers\peripheral\syslib/cy_syslib.c ****                 cy_faultFrame.s13   = faultStackAddr[CY_S13_Pos];
 437:Generated_Source\PSoC6\pdl\drivers\peripheral\syslib/cy_syslib.c ****                 cy_faultFrame.s14   = faultStackAddr[CY_S14_Pos];
 438:Generated_Source\PSoC6\pdl\drivers\peripheral\syslib/cy_syslib.c ****                 cy_faultFrame.s15   = faultStackAddr[CY_S15_Pos];
 439:Generated_Source\PSoC6\pdl\drivers\peripheral\syslib/cy_syslib.c ****                 cy_faultFrame.fpscr = faultStackAddr[CY_FPSCR_Pos];
 440:Generated_Source\PSoC6\pdl\drivers\peripheral\syslib/cy_syslib.c ****             }
 441:Generated_Source\PSoC6\pdl\drivers\peripheral\syslib/cy_syslib.c ****         #endif /* __FPU_PRESENT */
 442:Generated_Source\PSoC6\pdl\drivers\peripheral\syslib/cy_syslib.c ****     #endif /* CY_CPU_CORTEX_M4 */
 443:Generated_Source\PSoC6\pdl\drivers\peripheral\syslib/cy_syslib.c **** 
 444:Generated_Source\PSoC6\pdl\drivers\peripheral\syslib/cy_syslib.c ****     Cy_SysLib_ProcessingFault();
 445:Generated_Source\PSoC6\pdl\drivers\peripheral\syslib/cy_syslib.c **** }
 446:Generated_Source\PSoC6\pdl\drivers\peripheral\syslib/cy_syslib.c **** 
 447:Generated_Source\PSoC6\pdl\drivers\peripheral\syslib/cy_syslib.c **** 
 448:Generated_Source\PSoC6\pdl\drivers\peripheral\syslib/cy_syslib.c **** /*******************************************************************************
 449:Generated_Source\PSoC6\pdl\drivers\peripheral\syslib/cy_syslib.c **** * Function Name: Cy_SysLib_ProcessingFault
 450:Generated_Source\PSoC6\pdl\drivers\peripheral\syslib/cy_syslib.c **** ****************************************************************************//**
 451:Generated_Source\PSoC6\pdl\drivers\peripheral\syslib/cy_syslib.c **** *
 452:Generated_Source\PSoC6\pdl\drivers\peripheral\syslib/cy_syslib.c **** * This function determines how to process the current fault state. By default
 453:Generated_Source\PSoC6\pdl\drivers\peripheral\syslib/cy_syslib.c **** * in case of exception the system will stay in the infinite loop of this
 454:Generated_Source\PSoC6\pdl\drivers\peripheral\syslib/cy_syslib.c **** * function.
 455:Generated_Source\PSoC6\pdl\drivers\peripheral\syslib/cy_syslib.c **** *
 456:Generated_Source\PSoC6\pdl\drivers\peripheral\syslib/cy_syslib.c **** * \note This function has the WEAK option, so the user can redefine the function
 457:Generated_Source\PSoC6\pdl\drivers\peripheral\syslib/cy_syslib.c **** *       behavior for a custom processing.
 458:Generated_Source\PSoC6\pdl\drivers\peripheral\syslib/cy_syslib.c **** *       For example, the function redefinition could be constructed from fault
 459:Generated_Source\PSoC6\pdl\drivers\peripheral\syslib/cy_syslib.c **** *       stack processing and NVIC_SystemReset() function call.
 460:Generated_Source\PSoC6\pdl\drivers\peripheral\syslib/cy_syslib.c **** *
 461:Generated_Source\PSoC6\pdl\drivers\peripheral\syslib/cy_syslib.c **** *******************************************************************************/
 462:Generated_Source\PSoC6\pdl\drivers\peripheral\syslib/cy_syslib.c **** __WEAK void Cy_SysLib_ProcessingFault(void)
 463:Generated_Source\PSoC6\pdl\drivers\peripheral\syslib/cy_syslib.c **** {
 534              		.loc 1 463 0
 535              		.cfi_startproc
 536              		@ args = 0, pretend = 0, frame = 0
 537              		@ frame_needed = 0, uses_anonymous_args = 0
 538              		@ link register save eliminated.
 539              	.L41:
 540 0000 FEE7     		b	.L41
 541              		.cfi_endproc
 542              	.LFE75:
 543              		.size	Cy_SysLib_ProcessingFault, .-Cy_SysLib_ProcessingFault
 544 0002 C046     		.section	.text.Cy_SysLib_FaultHandler,"ax",%progbits
 545              		.align	2
 546              		.global	Cy_SysLib_FaultHandler
 547              		.code	16
ARM GAS  C:\Users\Rolf\AppData\Local\Temp\ccTwK7ru.s 			page 35


 548              		.thumb_func
 549              		.type	Cy_SysLib_FaultHandler, %function
 550              	Cy_SysLib_FaultHandler:
 551              	.LFB74:
 395:Generated_Source\PSoC6\pdl\drivers\peripheral\syslib/cy_syslib.c ****     /* Stores general registers */
 552              		.loc 1 395 0
 553              		.cfi_startproc
 554              		@ args = 0, pretend = 0, frame = 0
 555              		@ frame_needed = 0, uses_anonymous_args = 0
 556              	.LVL26:
 395:Generated_Source\PSoC6\pdl\drivers\peripheral\syslib/cy_syslib.c ****     /* Stores general registers */
 557              		.loc 1 395 0
 558 0000 10B5     		push	{r4, lr}
 559              		.cfi_def_cfa_offset 8
 560              		.cfi_offset 4, -8
 561              		.cfi_offset 14, -4
 397:Generated_Source\PSoC6\pdl\drivers\peripheral\syslib/cy_syslib.c ****     cy_faultFrame.r1  = faultStackAddr[CY_R1_Pos];
 562              		.loc 1 397 0
 563 0002 0A4B     		ldr	r3, .L43
 564 0004 0268     		ldr	r2, [r0]
 565 0006 DA61     		str	r2, [r3, #28]
 398:Generated_Source\PSoC6\pdl\drivers\peripheral\syslib/cy_syslib.c ****     cy_faultFrame.r2  = faultStackAddr[CY_R2_Pos];
 566              		.loc 1 398 0
 567 0008 4268     		ldr	r2, [r0, #4]
 568 000a 1A62     		str	r2, [r3, #32]
 399:Generated_Source\PSoC6\pdl\drivers\peripheral\syslib/cy_syslib.c ****     cy_faultFrame.r3  = faultStackAddr[CY_R3_Pos];
 569              		.loc 1 399 0
 570 000c 8268     		ldr	r2, [r0, #8]
 571 000e 5A62     		str	r2, [r3, #36]
 400:Generated_Source\PSoC6\pdl\drivers\peripheral\syslib/cy_syslib.c ****     cy_faultFrame.r12 = faultStackAddr[CY_R12_Pos];
 572              		.loc 1 400 0
 573 0010 C268     		ldr	r2, [r0, #12]
 574 0012 9A62     		str	r2, [r3, #40]
 401:Generated_Source\PSoC6\pdl\drivers\peripheral\syslib/cy_syslib.c ****     cy_faultFrame.lr  = faultStackAddr[CY_LR_Pos];
 575              		.loc 1 401 0
 576 0014 0269     		ldr	r2, [r0, #16]
 577 0016 DA62     		str	r2, [r3, #44]
 402:Generated_Source\PSoC6\pdl\drivers\peripheral\syslib/cy_syslib.c ****     cy_faultFrame.pc  = faultStackAddr[CY_PC_Pos];
 578              		.loc 1 402 0
 579 0018 4269     		ldr	r2, [r0, #20]
 580 001a 1A63     		str	r2, [r3, #48]
 403:Generated_Source\PSoC6\pdl\drivers\peripheral\syslib/cy_syslib.c ****     cy_faultFrame.psr = faultStackAddr[CY_PSR_Pos];
 581              		.loc 1 403 0
 582 001c 8269     		ldr	r2, [r0, #24]
 583 001e 5A63     		str	r2, [r3, #52]
 404:Generated_Source\PSoC6\pdl\drivers\peripheral\syslib/cy_syslib.c **** 
 584              		.loc 1 404 0
 585 0020 C269     		ldr	r2, [r0, #28]
 586 0022 9A63     		str	r2, [r3, #56]
 444:Generated_Source\PSoC6\pdl\drivers\peripheral\syslib/cy_syslib.c **** }
 587              		.loc 1 444 0
 588 0024 FFF7FEFF 		bl	Cy_SysLib_ProcessingFault
 589              	.LVL27:
 445:Generated_Source\PSoC6\pdl\drivers\peripheral\syslib/cy_syslib.c **** 
 590              		.loc 1 445 0
 591              		@ sp needed
 592 0028 10BD     		pop	{r4, pc}
ARM GAS  C:\Users\Rolf\AppData\Local\Temp\ccTwK7ru.s 			page 36


 593              	.L44:
 594 002a C046     		.align	2
 595              	.L43:
 596 002c 00000000 		.word	.LANCHOR0
 597              		.cfi_endproc
 598              	.LFE74:
 599              		.size	Cy_SysLib_FaultHandler, .-Cy_SysLib_FaultHandler
 600              		.section	.text.Cy_SysLib_SetWaitStates,"ax",%progbits
 601              		.align	2
 602              		.global	Cy_SysLib_SetWaitStates
 603              		.code	16
 604              		.thumb_func
 605              		.type	Cy_SysLib_SetWaitStates, %function
 606              	Cy_SysLib_SetWaitStates:
 607              	.LFB76:
 464:Generated_Source\PSoC6\pdl\drivers\peripheral\syslib/cy_syslib.c ****     #if defined(__ARMCC_VERSION)
 465:Generated_Source\PSoC6\pdl\drivers\peripheral\syslib/cy_syslib.c ****         /* Assembly implementation of an infinite loop
 466:Generated_Source\PSoC6\pdl\drivers\peripheral\syslib/cy_syslib.c ****          * is used for the armcc compiler to preserve the call stack.
 467:Generated_Source\PSoC6\pdl\drivers\peripheral\syslib/cy_syslib.c ****          * Otherwise, the compiler destroys the call stack,
 468:Generated_Source\PSoC6\pdl\drivers\peripheral\syslib/cy_syslib.c ****          * because treats this API as a no return function.
 469:Generated_Source\PSoC6\pdl\drivers\peripheral\syslib/cy_syslib.c ****          */
 470:Generated_Source\PSoC6\pdl\drivers\peripheral\syslib/cy_syslib.c ****         Cy_SysLib_AsmInfiniteLoop();
 471:Generated_Source\PSoC6\pdl\drivers\peripheral\syslib/cy_syslib.c ****     #else
 472:Generated_Source\PSoC6\pdl\drivers\peripheral\syslib/cy_syslib.c ****         while(1) {}
 473:Generated_Source\PSoC6\pdl\drivers\peripheral\syslib/cy_syslib.c ****     #endif  /* (__ARMCC_VERSION) */
 474:Generated_Source\PSoC6\pdl\drivers\peripheral\syslib/cy_syslib.c **** }
 475:Generated_Source\PSoC6\pdl\drivers\peripheral\syslib/cy_syslib.c **** #endif /* (CY_ARM_FAULT_DEBUG == CY_ARM_FAULT_DEBUG_ENABLED) || defined(CY_DOXYGEN) */
 476:Generated_Source\PSoC6\pdl\drivers\peripheral\syslib/cy_syslib.c **** 
 477:Generated_Source\PSoC6\pdl\drivers\peripheral\syslib/cy_syslib.c **** 
 478:Generated_Source\PSoC6\pdl\drivers\peripheral\syslib/cy_syslib.c **** /*******************************************************************************
 479:Generated_Source\PSoC6\pdl\drivers\peripheral\syslib/cy_syslib.c **** * Function Name: Cy_SysLib_SetWaitStates
 480:Generated_Source\PSoC6\pdl\drivers\peripheral\syslib/cy_syslib.c **** ****************************************************************************//**
 481:Generated_Source\PSoC6\pdl\drivers\peripheral\syslib/cy_syslib.c **** *
 482:Generated_Source\PSoC6\pdl\drivers\peripheral\syslib/cy_syslib.c **** * Sets the number of clock cycles the cache will wait for, before it samples
 483:Generated_Source\PSoC6\pdl\drivers\peripheral\syslib/cy_syslib.c **** * data coming back from ROM, SRAM, and Flash.
 484:Generated_Source\PSoC6\pdl\drivers\peripheral\syslib/cy_syslib.c **** *
 485:Generated_Source\PSoC6\pdl\drivers\peripheral\syslib/cy_syslib.c **** * Call this function before increasing the HFClk0 High Frequency clock.
 486:Generated_Source\PSoC6\pdl\drivers\peripheral\syslib/cy_syslib.c **** * Call this function optionally after lowering the HFClk0 High Frequency clock
 487:Generated_Source\PSoC6\pdl\drivers\peripheral\syslib/cy_syslib.c **** * in order to improve the CPU performance.
 488:Generated_Source\PSoC6\pdl\drivers\peripheral\syslib/cy_syslib.c **** *
 489:Generated_Source\PSoC6\pdl\drivers\peripheral\syslib/cy_syslib.c **** * Also, call this function before switching the core supply regulator voltage
 490:Generated_Source\PSoC6\pdl\drivers\peripheral\syslib/cy_syslib.c **** * (LDO or SIMO Buck) from 1.1V to 0.9V.
 491:Generated_Source\PSoC6\pdl\drivers\peripheral\syslib/cy_syslib.c **** * Call this function optionally after switching the core supply regulator
 492:Generated_Source\PSoC6\pdl\drivers\peripheral\syslib/cy_syslib.c **** * voltage from 0.9V to 1.1V in order to improve the CPU performance.
 493:Generated_Source\PSoC6\pdl\drivers\peripheral\syslib/cy_syslib.c **** *
 494:Generated_Source\PSoC6\pdl\drivers\peripheral\syslib/cy_syslib.c **** * \param ulpMode  The device power mode.
 495:Generated_Source\PSoC6\pdl\drivers\peripheral\syslib/cy_syslib.c **** *        true  if the device should be switched to the ULP mode (nominal
 496:Generated_Source\PSoC6\pdl\drivers\peripheral\syslib/cy_syslib.c **** *              voltage of the core supply regulator should be switched to 0.9V);
 497:Generated_Source\PSoC6\pdl\drivers\peripheral\syslib/cy_syslib.c **** *        false if the device should be switched to the LP mode (nominal
 498:Generated_Source\PSoC6\pdl\drivers\peripheral\syslib/cy_syslib.c **** *              voltage of the core supply regulator should be switched to 1.1V).
 499:Generated_Source\PSoC6\pdl\drivers\peripheral\syslib/cy_syslib.c **** *
 500:Generated_Source\PSoC6\pdl\drivers\peripheral\syslib/cy_syslib.c **** * \note Refer to the device TRM for the low power modes description.
 501:Generated_Source\PSoC6\pdl\drivers\peripheral\syslib/cy_syslib.c **** *
 502:Generated_Source\PSoC6\pdl\drivers\peripheral\syslib/cy_syslib.c **** * \param clkHfMHz  The HFClk0 clock frequency in MHz. Specifying a frequency
 503:Generated_Source\PSoC6\pdl\drivers\peripheral\syslib/cy_syslib.c **** *                  above the supported maximum will set the wait states as for
 504:Generated_Source\PSoC6\pdl\drivers\peripheral\syslib/cy_syslib.c **** *                  the maximum frequency.
 505:Generated_Source\PSoC6\pdl\drivers\peripheral\syslib/cy_syslib.c **** *
ARM GAS  C:\Users\Rolf\AppData\Local\Temp\ccTwK7ru.s 			page 37


 506:Generated_Source\PSoC6\pdl\drivers\peripheral\syslib/cy_syslib.c **** *******************************************************************************/
 507:Generated_Source\PSoC6\pdl\drivers\peripheral\syslib/cy_syslib.c **** void Cy_SysLib_SetWaitStates(bool ulpMode, uint32_t clkHfMHz)
 508:Generated_Source\PSoC6\pdl\drivers\peripheral\syslib/cy_syslib.c **** {
 608              		.loc 1 508 0
 609              		.cfi_startproc
 610              		@ args = 0, pretend = 0, frame = 0
 611              		@ frame_needed = 0, uses_anonymous_args = 0
 612              	.LVL28:
 613 0000 F0B5     		push	{r4, r5, r6, r7, lr}
 614              		.cfi_def_cfa_offset 20
 615              		.cfi_offset 4, -20
 616              		.cfi_offset 5, -16
 617              		.cfi_offset 6, -12
 618              		.cfi_offset 7, -8
 619              		.cfi_offset 14, -4
 620 0002 4746     		mov	r7, r8
 621 0004 80B4     		push	{r7}
 622              		.cfi_def_cfa_offset 24
 623              		.cfi_offset 8, -24
 509:Generated_Source\PSoC6\pdl\drivers\peripheral\syslib/cy_syslib.c ****     uint32_t waitStates;
 510:Generated_Source\PSoC6\pdl\drivers\peripheral\syslib/cy_syslib.c ****     uint32_t freqMax;
 511:Generated_Source\PSoC6\pdl\drivers\peripheral\syslib/cy_syslib.c **** 
 512:Generated_Source\PSoC6\pdl\drivers\peripheral\syslib/cy_syslib.c ****     freqMax = ulpMode ? CY_SYSLIB_ULP_SLOW_WS_0_FREQ_MAX : CY_SYSLIB_LP_SLOW_WS_0_FREQ_MAX;
 624              		.loc 1 512 0
 625 0006 0028     		cmp	r0, #0
 626 0008 01D0     		beq	.L49
 627 000a 1923     		movs	r3, #25
 628 000c 00E0     		b	.L46
 629              	.L49:
 630 000e 6423     		movs	r3, #100
 631              	.L46:
 632              	.LVL29:
 513:Generated_Source\PSoC6\pdl\drivers\peripheral\syslib/cy_syslib.c ****     waitStates = (clkHfMHz <= freqMax) ? 0UL : 1UL;
 633              		.loc 1 513 0 discriminator 4
 634 0010 8B42     		cmp	r3, r1
 635 0012 9B41     		sbcs	r3, r3, r3
 636              	.LVL30:
 637 0014 5B42     		rsbs	r3, r3, #0
 638              	.LVL31:
 514:Generated_Source\PSoC6\pdl\drivers\peripheral\syslib/cy_syslib.c **** 
 515:Generated_Source\PSoC6\pdl\drivers\peripheral\syslib/cy_syslib.c ****     /* ROM */
 516:Generated_Source\PSoC6\pdl\drivers\peripheral\syslib/cy_syslib.c ****     CPUSS_ROM_CTL = _CLR_SET_FLD32U(CPUSS_ROM_CTL, CPUSS_ROM_CTL_SLOW_WS, waitStates);
 639              		.loc 1 516 0 discriminator 4
 640 0016 304D     		ldr	r5, .L57
 641 0018 2C68     		ldr	r4, [r5]
 642 001a 2268     		ldr	r2, [r4]
 643 001c A826     		movs	r6, #168
 644 001e A45B     		ldrh	r4, [r4, r6]
 645 0020 A418     		adds	r4, r4, r2
 646 0022 2268     		ldr	r2, [r4]
 647 0024 0327     		movs	r7, #3
 648 0026 BA43     		bics	r2, r7
 649 0028 3B40     		ands	r3, r7
 650              	.LVL32:
 651 002a 1A43     		orrs	r2, r3
 652 002c 2260     		str	r2, [r4]
 517:Generated_Source\PSoC6\pdl\drivers\peripheral\syslib/cy_syslib.c ****     CPUSS_ROM_CTL = _CLR_SET_FLD32U(CPUSS_ROM_CTL, CPUSS_ROM_CTL_FAST_WS, 0UL);
ARM GAS  C:\Users\Rolf\AppData\Local\Temp\ccTwK7ru.s 			page 38


 653              		.loc 1 517 0 discriminator 4
 654 002e 2C68     		ldr	r4, [r5]
 655 0030 2268     		ldr	r2, [r4]
 656 0032 A45B     		ldrh	r4, [r4, r6]
 657 0034 A218     		adds	r2, r4, r2
 658 0036 1668     		ldr	r6, [r2]
 659 0038 284C     		ldr	r4, .L57+4
 660 003a A046     		mov	r8, r4
 661 003c 2640     		ands	r6, r4
 662 003e 1660     		str	r6, [r2]
 518:Generated_Source\PSoC6\pdl\drivers\peripheral\syslib/cy_syslib.c **** 
 519:Generated_Source\PSoC6\pdl\drivers\peripheral\syslib/cy_syslib.c ****     /* SRAM */
 520:Generated_Source\PSoC6\pdl\drivers\peripheral\syslib/cy_syslib.c ****     CPUSS_RAM0_CTL0 = _CLR_SET_FLD32U(CPUSS_RAM0_CTL0, CPUSS_RAM0_CTL0_SLOW_WS, waitStates);
 663              		.loc 1 520 0 discriminator 4
 664 0040 2C68     		ldr	r4, [r5]
 665 0042 2668     		ldr	r6, [r4]
 666 0044 AA22     		movs	r2, #170
 667 0046 9446     		mov	ip, r2
 668 0048 A25A     		ldrh	r2, [r4, r2]
 669 004a 9619     		adds	r6, r2, r6
 670 004c 3268     		ldr	r2, [r6]
 671 004e BA43     		bics	r2, r7
 672 0050 1343     		orrs	r3, r2
 673 0052 3360     		str	r3, [r6]
 521:Generated_Source\PSoC6\pdl\drivers\peripheral\syslib/cy_syslib.c ****     CPUSS_RAM0_CTL0 = _CLR_SET_FLD32U(CPUSS_RAM0_CTL0, CPUSS_RAM0_CTL0_FAST_WS, 0UL);
 674              		.loc 1 521 0 discriminator 4
 675 0054 2A68     		ldr	r2, [r5]
 676 0056 1368     		ldr	r3, [r2]
 677 0058 6546     		mov	r5, ip
 678 005a 525B     		ldrh	r2, [r2, r5]
 679 005c D318     		adds	r3, r2, r3
 680 005e 1A68     		ldr	r2, [r3]
 681 0060 4446     		mov	r4, r8
 682 0062 1440     		ands	r4, r2
 683 0064 1C60     		str	r4, [r3]
 522:Generated_Source\PSoC6\pdl\drivers\peripheral\syslib/cy_syslib.c ****     #if defined (RAMC1_PRESENT) && (RAMC1_PRESENT == 1UL)
 523:Generated_Source\PSoC6\pdl\drivers\peripheral\syslib/cy_syslib.c ****         CPUSS_RAM1_CTL0 = _CLR_SET_FLD32U(CPUSS_RAM1_CTL0, CPUSS_RAM1_CTL0_SLOW_WS, waitStates);
 524:Generated_Source\PSoC6\pdl\drivers\peripheral\syslib/cy_syslib.c ****         CPUSS_RAM1_CTL0 = _CLR_SET_FLD32U(CPUSS_RAM1_CTL0, CPUSS_RAM1_CTL0_FAST_WS, 0UL);
 525:Generated_Source\PSoC6\pdl\drivers\peripheral\syslib/cy_syslib.c ****     #endif /* defined (RAMC1_PRESENT) && (RAMC1_PRESENT == 1UL) */
 526:Generated_Source\PSoC6\pdl\drivers\peripheral\syslib/cy_syslib.c ****     #if defined (RAMC2_PRESENT) && (RAMC2_PRESENT == 1UL)
 527:Generated_Source\PSoC6\pdl\drivers\peripheral\syslib/cy_syslib.c ****         CPUSS_RAM2_CTL0 = _CLR_SET_FLD32U(CPUSS_RAM2_CTL0, CPUSS_RAM2_CTL0_SLOW_WS, waitStates);
 528:Generated_Source\PSoC6\pdl\drivers\peripheral\syslib/cy_syslib.c ****         CPUSS_RAM2_CTL0 = _CLR_SET_FLD32U(CPUSS_RAM2_CTL0, CPUSS_RAM2_CTL0_FAST_WS, 0UL);
 529:Generated_Source\PSoC6\pdl\drivers\peripheral\syslib/cy_syslib.c ****     #endif /* defined (RAMC2_PRESENT) && (RAMC2_PRESENT == 1UL) */
 530:Generated_Source\PSoC6\pdl\drivers\peripheral\syslib/cy_syslib.c **** 
 531:Generated_Source\PSoC6\pdl\drivers\peripheral\syslib/cy_syslib.c ****     /* Flash */
 532:Generated_Source\PSoC6\pdl\drivers\peripheral\syslib/cy_syslib.c ****     if (ulpMode)
 684              		.loc 1 532 0 discriminator 4
 685 0066 0028     		cmp	r0, #0
 686 0068 05D0     		beq	.L47
 533:Generated_Source\PSoC6\pdl\drivers\peripheral\syslib/cy_syslib.c ****     {
 534:Generated_Source\PSoC6\pdl\drivers\peripheral\syslib/cy_syslib.c ****         waitStates =  (clkHfMHz <= CY_SYSLIB_FLASH_ULP_WS_0_FREQ_MAX) ? 0UL :
 687              		.loc 1 534 0
 688 006a 1029     		cmp	r1, #16
 689 006c 1BD9     		bls	.L50
 535:Generated_Source\PSoC6\pdl\drivers\peripheral\syslib/cy_syslib.c ****                      ((clkHfMHz <= CY_SYSLIB_FLASH_ULP_WS_1_FREQ_MAX) ? 1UL : 2UL);
 690              		.loc 1 535 0
 691 006e 2129     		cmp	r1, #33
ARM GAS  C:\Users\Rolf\AppData\Local\Temp\ccTwK7ru.s 			page 39


 692 0070 1BD8     		bhi	.L51
 693 0072 0120     		movs	r0, #1
 694              	.LVL33:
 695 0074 24E0     		b	.L48
 696              	.LVL34:
 697              	.L47:
 536:Generated_Source\PSoC6\pdl\drivers\peripheral\syslib/cy_syslib.c ****     }
 537:Generated_Source\PSoC6\pdl\drivers\peripheral\syslib/cy_syslib.c ****     else
 538:Generated_Source\PSoC6\pdl\drivers\peripheral\syslib/cy_syslib.c ****     {
 539:Generated_Source\PSoC6\pdl\drivers\peripheral\syslib/cy_syslib.c ****         waitStates =  (clkHfMHz <= cy_device->flashCtlMainWs0Freq) ? 0UL :
 698              		.loc 1 539 0
 699 0076 184B     		ldr	r3, .L57
 700 0078 1B68     		ldr	r3, [r3]
 701 007a 5522     		movs	r2, #85
 702 007c 9A5C     		ldrb	r2, [r3, r2]
 703 007e 9142     		cmp	r1, r2
 704 0080 15D9     		bls	.L52
 540:Generated_Source\PSoC6\pdl\drivers\peripheral\syslib/cy_syslib.c ****                      ((clkHfMHz <= cy_device->flashCtlMainWs1Freq) ? 1UL :
 705              		.loc 1 540 0
 706 0082 5622     		movs	r2, #86
 707 0084 9A5C     		ldrb	r2, [r3, r2]
 708 0086 9142     		cmp	r1, r2
 709 0088 13D9     		bls	.L53
 541:Generated_Source\PSoC6\pdl\drivers\peripheral\syslib/cy_syslib.c ****                      ((clkHfMHz <= cy_device->flashCtlMainWs2Freq) ? 2UL :
 710              		.loc 1 541 0
 711 008a 5722     		movs	r2, #87
 712 008c 9A5C     		ldrb	r2, [r3, r2]
 713 008e 9142     		cmp	r1, r2
 714 0090 11D9     		bls	.L54
 542:Generated_Source\PSoC6\pdl\drivers\peripheral\syslib/cy_syslib.c ****                      ((clkHfMHz <= cy_device->flashCtlMainWs3Freq) ? 3UL : 
 715              		.loc 1 542 0
 716 0092 5822     		movs	r2, #88
 717 0094 9A5C     		ldrb	r2, [r3, r2]
 718 0096 9142     		cmp	r1, r2
 719 0098 0FD9     		bls	.L55
 543:Generated_Source\PSoC6\pdl\drivers\peripheral\syslib/cy_syslib.c ****                      ((clkHfMHz <= cy_device->flashCtlMainWs4Freq) ? 4UL : 5UL))));
 720              		.loc 1 543 0
 721 009a 5922     		movs	r2, #89
 722 009c 9B5C     		ldrb	r3, [r3, r2]
 723 009e 9942     		cmp	r1, r3
 724 00a0 0DD8     		bhi	.L56
 725 00a2 0420     		movs	r0, #4
 726              	.LVL35:
 727 00a4 0CE0     		b	.L48
 728              	.LVL36:
 729              	.L50:
 534:Generated_Source\PSoC6\pdl\drivers\peripheral\syslib/cy_syslib.c ****                      ((clkHfMHz <= CY_SYSLIB_FLASH_ULP_WS_1_FREQ_MAX) ? 1UL : 2UL);
 730              		.loc 1 534 0
 731 00a6 0020     		movs	r0, #0
 732              	.LVL37:
 733 00a8 0AE0     		b	.L48
 734              	.LVL38:
 735              	.L51:
 535:Generated_Source\PSoC6\pdl\drivers\peripheral\syslib/cy_syslib.c ****     }
 736              		.loc 1 535 0
 737 00aa 0220     		movs	r0, #2
 738              	.LVL39:
ARM GAS  C:\Users\Rolf\AppData\Local\Temp\ccTwK7ru.s 			page 40


 739 00ac 08E0     		b	.L48
 740              	.LVL40:
 741              	.L52:
 539:Generated_Source\PSoC6\pdl\drivers\peripheral\syslib/cy_syslib.c ****                      ((clkHfMHz <= cy_device->flashCtlMainWs1Freq) ? 1UL :
 742              		.loc 1 539 0
 743 00ae 0020     		movs	r0, #0
 744              	.LVL41:
 745 00b0 06E0     		b	.L48
 746              	.LVL42:
 747              	.L53:
 540:Generated_Source\PSoC6\pdl\drivers\peripheral\syslib/cy_syslib.c ****                      ((clkHfMHz <= cy_device->flashCtlMainWs2Freq) ? 2UL :
 748              		.loc 1 540 0
 749 00b2 0120     		movs	r0, #1
 750              	.LVL43:
 751 00b4 04E0     		b	.L48
 752              	.LVL44:
 753              	.L54:
 541:Generated_Source\PSoC6\pdl\drivers\peripheral\syslib/cy_syslib.c ****                      ((clkHfMHz <= cy_device->flashCtlMainWs3Freq) ? 3UL : 
 754              		.loc 1 541 0
 755 00b6 0220     		movs	r0, #2
 756              	.LVL45:
 757 00b8 02E0     		b	.L48
 758              	.LVL46:
 759              	.L55:
 542:Generated_Source\PSoC6\pdl\drivers\peripheral\syslib/cy_syslib.c ****                      ((clkHfMHz <= cy_device->flashCtlMainWs4Freq) ? 4UL : 5UL))));
 760              		.loc 1 542 0
 761 00ba 0320     		movs	r0, #3
 762              	.LVL47:
 763 00bc 00E0     		b	.L48
 764              	.LVL48:
 765              	.L56:
 766              		.loc 1 543 0
 767 00be 0520     		movs	r0, #5
 768              	.LVL49:
 769              	.L48:
 544:Generated_Source\PSoC6\pdl\drivers\peripheral\syslib/cy_syslib.c ****     }
 545:Generated_Source\PSoC6\pdl\drivers\peripheral\syslib/cy_syslib.c **** 
 546:Generated_Source\PSoC6\pdl\drivers\peripheral\syslib/cy_syslib.c ****     FLASHC_FLASH_CTL = _CLR_SET_FLD32U(FLASHC_FLASH_CTL, FLASHC_FLASH_CTL_MAIN_WS, waitStates);
 770              		.loc 1 546 0
 771 00c0 054A     		ldr	r2, .L57
 772 00c2 1268     		ldr	r2, [r2]
 773 00c4 5268     		ldr	r2, [r2, #4]
 774 00c6 1368     		ldr	r3, [r2]
 775 00c8 0F21     		movs	r1, #15
 776              	.LVL50:
 777 00ca 8B43     		bics	r3, r1
 778 00cc 0343     		orrs	r3, r0
 779 00ce 1360     		str	r3, [r2]
 547:Generated_Source\PSoC6\pdl\drivers\peripheral\syslib/cy_syslib.c **** }
 780              		.loc 1 547 0
 781              		@ sp needed
 782 00d0 04BC     		pop	{r2}
 783 00d2 9046     		mov	r8, r2
 784 00d4 F0BD     		pop	{r4, r5, r6, r7, pc}
 785              	.L58:
 786 00d6 C046     		.align	2
 787              	.L57:
ARM GAS  C:\Users\Rolf\AppData\Local\Temp\ccTwK7ru.s 			page 41


 788 00d8 00000000 		.word	cy_device
 789 00dc FFFCFFFF 		.word	-769
 790              		.cfi_endproc
 791              	.LFE76:
 792              		.size	Cy_SysLib_SetWaitStates, .-Cy_SysLib_SetWaitStates
 793              		.global	cy_faultFrame
 794              		.global	cy_assertLine
 795              		.global	cy_assertFileName
 796              		.data
 797              		.align	2
 798              		.set	.LANCHOR1,. + 0
 799              		.type	msg.10725, %object
 800              		.size	msg.10725, 4
 801              	msg.10725:
 802 0000 0200001B 		.word	452984834
 803              		.section	.noinit,"aw",%progbits
 804              		.align	2
 805              		.set	.LANCHOR0,. + 0
 806              		.type	cy_assertFileName, %object
 807              		.size	cy_assertFileName, 24
 808              	cy_assertFileName:
 809 0000 00000000 		.space	24
 809      00000000 
 809      00000000 
 809      00000000 
 809      00000000 
 810              		.type	cy_assertLine, %object
 811              		.size	cy_assertLine, 4
 812              	cy_assertLine:
 813 0018 00000000 		.space	4
 814              		.type	cy_faultFrame, %object
 815              		.size	cy_faultFrame, 32
 816              	cy_faultFrame:
 817 001c 00000000 		.space	32
 817      00000000 
 817      00000000 
 817      00000000 
 817      00000000 
 818              		.section	.rodata.str1.4,"aMS",%progbits,1
 819              		.align	2
 820              	.LC6:
 821 0000 47656E65 		.ascii	"Generated_Source\\PSoC6\\pdl\\drivers/peripheral/ip"
 821      72617465 
 821      645F536F 
 821      75726365 
 821      5C50536F 
 822 0030 632F6379 		.ascii	"c/cy_ipc_drv.h\000"
 822      5F697063 
 822      5F647276 
 822      2E6800
 823 003f 00       		.space	1
 824              	.LC9:
 825 0040 47656E65 		.ascii	"Generated_Source\\PSoC6\\pdl\\drivers\\peripheral\\"
 825      72617465 
 825      645F536F 
 825      75726365 
 825      5C50536F 
ARM GAS  C:\Users\Rolf\AppData\Local\Temp\ccTwK7ru.s 			page 42


 826 006e 7379736C 		.ascii	"syslib\\cy_syslib.c\000"
 826      69625C63 
 826      795F7379 
 826      736C6962 
 826      2E6300
 827              		.text
 828              	.Letext0:
 829              		.file 3 "c:\\program files (x86)\\cypress\\psoc creator\\4.4\\4.4\\psoc creator\\import\\gnu\\arm\
 830              		.file 4 "c:\\program files (x86)\\cypress\\psoc creator\\4.4\\4.4\\psoc creator\\import\\gnu\\arm\
 831              		.file 5 "Generated_Source\\PSoC6\\pdl\\devices/psoc6/include/ip/cyip_flashc.h"
 832              		.file 6 "Generated_Source\\PSoC6\\pdl\\devices/psoc6/include/ip/cyip_sflash.h"
 833              		.file 7 "Generated_Source\\PSoC6\\pdl\\devices/psoc6/include/ip/cyip_srss.h"
 834              		.file 8 "Generated_Source\\PSoC6\\pdl\\devices/psoc6/include/ip/cyip_backup.h"
 835              		.file 9 "Generated_Source\\PSoC6\\pdl\\devices/psoc6/include/ip/cyip_ipc.h"
 836              		.file 10 "Generated_Source\\PSoC6\\pdl\\drivers/peripheral/device/cy_device.h"
 837              		.file 11 "Generated_Source\\PSoC6\\pdl\\devices/psoc6/include/psoc6_01_config.h"
 838              		.file 12 "Generated_Source\\PSoC6\\pdl\\drivers\\peripheral\\syslib\\cy_syslib.h"
 839              		.file 13 "./system_psoc6.h"
 840              		.file 14 "c:\\program files (x86)\\cypress\\psoc creator\\4.4\\4.4\\psoc creator\\import\\gnu\\arm