ARM GAS  C:\Users\Rolf\AppData\Local\Temp\ccTwK7ru.s 			page 1


   1              		.syntax unified
   2              		.cpu cortex-m0plus
   3              		.fpu softvfp
   4              		.eabi_attribute 20, 1
   5              		.eabi_attribute 21, 1
   6              		.eabi_attribute 23, 3
   7              		.eabi_attribute 24, 1
   8              		.eabi_attribute 25, 1
   9              		.eabi_attribute 26, 1
  10              		.eabi_attribute 30, 1
  11              		.eabi_attribute 34, 0
  12              		.eabi_attribute 18, 4
  13              		.thumb
  14              		.syntax unified
  15              		.file	"cy_syslib.c"
  16              		.text
  17              	.Ltext0:
  18              		.cfi_sections	.debug_frame
  19              		.section	.text.Cy_SysLib_Delay,"ax",%progbits
  20              		.align	2
  21              		.global	Cy_SysLib_Delay
  22              		.code	16
  23              		.thumb_func
  24              		.type	Cy_SysLib_Delay, %function
  25              	Cy_SysLib_Delay:
  26              	.LFB64:
  27              		.file 1 "Generated_Source\\PSoC6\\pdl\\drivers\\peripheral\\syslib\\cy_syslib.c"
   1:Generated_Source\PSoC6\pdl\drivers\peripheral\syslib/cy_syslib.c **** /***************************************************************************//**
   2:Generated_Source\PSoC6\pdl\drivers\peripheral\syslib/cy_syslib.c **** * \file cy_syslib.c
   3:Generated_Source\PSoC6\pdl\drivers\peripheral\syslib/cy_syslib.c **** * \version 2.10
   4:Generated_Source\PSoC6\pdl\drivers\peripheral\syslib/cy_syslib.c **** *
   5:Generated_Source\PSoC6\pdl\drivers\peripheral\syslib/cy_syslib.c **** *  Description:
   6:Generated_Source\PSoC6\pdl\drivers\peripheral\syslib/cy_syslib.c **** *   Provides system API implementation for the SysLib driver.
   7:Generated_Source\PSoC6\pdl\drivers\peripheral\syslib/cy_syslib.c **** *
   8:Generated_Source\PSoC6\pdl\drivers\peripheral\syslib/cy_syslib.c **** ********************************************************************************
   9:Generated_Source\PSoC6\pdl\drivers\peripheral\syslib/cy_syslib.c **** * Copyright 2016-2018, Cypress Semiconductor Corporation. All rights reserved.
  10:Generated_Source\PSoC6\pdl\drivers\peripheral\syslib/cy_syslib.c **** * You may use this file only in accordance with the license, terms, conditions,
  11:Generated_Source\PSoC6\pdl\drivers\peripheral\syslib/cy_syslib.c **** * disclaimers, and limitations in the end user license agreement accompanying
  12:Generated_Source\PSoC6\pdl\drivers\peripheral\syslib/cy_syslib.c **** * the software package with which this file was provided.
  13:Generated_Source\PSoC6\pdl\drivers\peripheral\syslib/cy_syslib.c **** *******************************************************************************/
  14:Generated_Source\PSoC6\pdl\drivers\peripheral\syslib/cy_syslib.c **** 
  15:Generated_Source\PSoC6\pdl\drivers\peripheral\syslib/cy_syslib.c **** #include "cy_syslib.h"
  16:Generated_Source\PSoC6\pdl\drivers\peripheral\syslib/cy_syslib.c **** #include "cy_ipc_drv.h"
  17:Generated_Source\PSoC6\pdl\drivers\peripheral\syslib/cy_syslib.c **** #if !defined(NDEBUG)
  18:Generated_Source\PSoC6\pdl\drivers\peripheral\syslib/cy_syslib.c ****     #include <string.h>
  19:Generated_Source\PSoC6\pdl\drivers\peripheral\syslib/cy_syslib.c **** #endif /* NDEBUG */
  20:Generated_Source\PSoC6\pdl\drivers\peripheral\syslib/cy_syslib.c **** 
  21:Generated_Source\PSoC6\pdl\drivers\peripheral\syslib/cy_syslib.c **** /* Flash wait states (ULP mode at 0.9v) */
  22:Generated_Source\PSoC6\pdl\drivers\peripheral\syslib/cy_syslib.c **** #define CY_SYSLIB_FLASH_ULP_WS_0_FREQ_MAX    ( 16UL)
  23:Generated_Source\PSoC6\pdl\drivers\peripheral\syslib/cy_syslib.c **** #define CY_SYSLIB_FLASH_ULP_WS_1_FREQ_MAX    ( 33UL)
  24:Generated_Source\PSoC6\pdl\drivers\peripheral\syslib/cy_syslib.c **** #define CY_SYSLIB_FLASH_ULP_WS_2_FREQ_MAX    ( 50UL)
  25:Generated_Source\PSoC6\pdl\drivers\peripheral\syslib/cy_syslib.c **** 
  26:Generated_Source\PSoC6\pdl\drivers\peripheral\syslib/cy_syslib.c **** /* ROM and SRAM wait states for the slow clock domain (LP mode at 1.1v) */
  27:Generated_Source\PSoC6\pdl\drivers\peripheral\syslib/cy_syslib.c **** #define CY_SYSLIB_LP_SLOW_WS_0_FREQ_MAX      (100UL)
  28:Generated_Source\PSoC6\pdl\drivers\peripheral\syslib/cy_syslib.c **** #define CY_SYSLIB_LP_SLOW_WS_1_FREQ_MAX      (120UL)
  29:Generated_Source\PSoC6\pdl\drivers\peripheral\syslib/cy_syslib.c **** 
  30:Generated_Source\PSoC6\pdl\drivers\peripheral\syslib/cy_syslib.c **** /* ROM and SRAM wait states for the slow clock domain (ULP mode at 0.9v) */
ARM GAS  C:\Users\Rolf\AppData\Local\Temp\ccTwK7ru.s 			page 2


  31:Generated_Source\PSoC6\pdl\drivers\peripheral\syslib/cy_syslib.c **** #define CY_SYSLIB_ULP_SLOW_WS_0_FREQ_MAX     ( 25UL)
  32:Generated_Source\PSoC6\pdl\drivers\peripheral\syslib/cy_syslib.c **** #define CY_SYSLIB_ULP_SLOW_WS_1_FREQ_MAX     ( 50UL)
  33:Generated_Source\PSoC6\pdl\drivers\peripheral\syslib/cy_syslib.c **** 
  34:Generated_Source\PSoC6\pdl\drivers\peripheral\syslib/cy_syslib.c **** 
  35:Generated_Source\PSoC6\pdl\drivers\peripheral\syslib/cy_syslib.c **** #if !defined(NDEBUG)
  36:Generated_Source\PSoC6\pdl\drivers\peripheral\syslib/cy_syslib.c ****     CY_NOINIT char_t cy_assertFileName[CY_MAX_FILE_NAME_SIZE];
  37:Generated_Source\PSoC6\pdl\drivers\peripheral\syslib/cy_syslib.c ****     CY_NOINIT uint32_t cy_assertLine;
  38:Generated_Source\PSoC6\pdl\drivers\peripheral\syslib/cy_syslib.c **** #endif /* NDEBUG */
  39:Generated_Source\PSoC6\pdl\drivers\peripheral\syslib/cy_syslib.c **** 
  40:Generated_Source\PSoC6\pdl\drivers\peripheral\syslib/cy_syslib.c **** #if (CY_ARM_FAULT_DEBUG == CY_ARM_FAULT_DEBUG_ENABLED)
  41:Generated_Source\PSoC6\pdl\drivers\peripheral\syslib/cy_syslib.c ****     CY_NOINIT cy_stc_fault_frame_t cy_faultFrame;
  42:Generated_Source\PSoC6\pdl\drivers\peripheral\syslib/cy_syslib.c **** #endif /* (CY_ARM_FAULT_DEBUG == CY_ARM_FAULT_DEBUG_ENABLED) */
  43:Generated_Source\PSoC6\pdl\drivers\peripheral\syslib/cy_syslib.c **** 
  44:Generated_Source\PSoC6\pdl\drivers\peripheral\syslib/cy_syslib.c **** #if defined(__ARMCC_VERSION)
  45:Generated_Source\PSoC6\pdl\drivers\peripheral\syslib/cy_syslib.c ****     static __ASM void Cy_SysLib_AsmInfiniteLoop(void) { b . };
  46:Generated_Source\PSoC6\pdl\drivers\peripheral\syslib/cy_syslib.c **** #endif  /* (__ARMCC_VERSION) */
  47:Generated_Source\PSoC6\pdl\drivers\peripheral\syslib/cy_syslib.c **** 
  48:Generated_Source\PSoC6\pdl\drivers\peripheral\syslib/cy_syslib.c **** 
  49:Generated_Source\PSoC6\pdl\drivers\peripheral\syslib/cy_syslib.c **** /*******************************************************************************
  50:Generated_Source\PSoC6\pdl\drivers\peripheral\syslib/cy_syslib.c **** * Function Name: Cy_SysLib_Delay
  51:Generated_Source\PSoC6\pdl\drivers\peripheral\syslib/cy_syslib.c **** ****************************************************************************//**
  52:Generated_Source\PSoC6\pdl\drivers\peripheral\syslib/cy_syslib.c **** *
  53:Generated_Source\PSoC6\pdl\drivers\peripheral\syslib/cy_syslib.c **** * The function delays by the specified number of milliseconds.
  54:Generated_Source\PSoC6\pdl\drivers\peripheral\syslib/cy_syslib.c **** * By default, the number of cycles to delay is calculated based on the
  55:Generated_Source\PSoC6\pdl\drivers\peripheral\syslib/cy_syslib.c **** * \ref SystemCoreClock.
  56:Generated_Source\PSoC6\pdl\drivers\peripheral\syslib/cy_syslib.c **** *
  57:Generated_Source\PSoC6\pdl\drivers\peripheral\syslib/cy_syslib.c **** * \param milliseconds  The number of milliseconds to delay.
  58:Generated_Source\PSoC6\pdl\drivers\peripheral\syslib/cy_syslib.c **** *
  59:Generated_Source\PSoC6\pdl\drivers\peripheral\syslib/cy_syslib.c **** * \note The function calls \ref Cy_SysLib_DelayCycles() API to generate a delay.
  60:Generated_Source\PSoC6\pdl\drivers\peripheral\syslib/cy_syslib.c **** *       If the function parameter (milliseconds) is bigger than 
  61:Generated_Source\PSoC6\pdl\drivers\peripheral\syslib/cy_syslib.c **** *       CY_DELAY_MS_OVERFLOW constant, then an additional loop runs to prevent
  62:Generated_Source\PSoC6\pdl\drivers\peripheral\syslib/cy_syslib.c **** *       an overflow in parameter passed to \ref Cy_SysLib_DelayCycles() API.
  63:Generated_Source\PSoC6\pdl\drivers\peripheral\syslib/cy_syslib.c **** *
  64:Generated_Source\PSoC6\pdl\drivers\peripheral\syslib/cy_syslib.c **** *******************************************************************************/
  65:Generated_Source\PSoC6\pdl\drivers\peripheral\syslib/cy_syslib.c **** void Cy_SysLib_Delay(uint32_t milliseconds)
  66:Generated_Source\PSoC6\pdl\drivers\peripheral\syslib/cy_syslib.c **** {
  28              		.loc 1 66 0
  29              		.cfi_startproc
  30              		@ args = 0, pretend = 0, frame = 0
  31              		@ frame_needed = 0, uses_anonymous_args = 0
  32              	.LVL0:
  33 0000 10B5     		push	{r4, lr}
  34              		.cfi_def_cfa_offset 8
  35              		.cfi_offset 4, -8
  36              		.cfi_offset 14, -4
  37 0002 0400     		movs	r4, r0
  67:Generated_Source\PSoC6\pdl\drivers\peripheral\syslib/cy_syslib.c ****     while(milliseconds > CY_DELAY_MS_OVERFLOW)
  38              		.loc 1 67 0
  39 0004 06E0     		b	.L2
  40              	.LVL1:
  41              	.L3:
  68:Generated_Source\PSoC6\pdl\drivers\peripheral\syslib/cy_syslib.c ****     {
  69:Generated_Source\PSoC6\pdl\drivers\peripheral\syslib/cy_syslib.c ****         /* This loop prevents an overflow in value passed to Cy_SysLib_DelayCycles() API.
  70:Generated_Source\PSoC6\pdl\drivers\peripheral\syslib/cy_syslib.c ****          * At 100 MHz, (milliseconds * cy_delayFreqKhz) product overflows
  71:Generated_Source\PSoC6\pdl\drivers\peripheral\syslib/cy_syslib.c ****          * in case if milliseconds parameter is more than 42 seconds.
  72:Generated_Source\PSoC6\pdl\drivers\peripheral\syslib/cy_syslib.c ****          */
  73:Generated_Source\PSoC6\pdl\drivers\peripheral\syslib/cy_syslib.c ****         Cy_SysLib_DelayCycles(cy_delay32kMs);
ARM GAS  C:\Users\Rolf\AppData\Local\Temp\ccTwK7ru.s 			page 3


  42              		.loc 1 73 0
  43 0006 084B     		ldr	r3, .L4
  44 0008 1868     		ldr	r0, [r3]
  45 000a FFF7FEFF 		bl	Cy_SysLib_DelayCycles
  46              	.LVL2:
  74:Generated_Source\PSoC6\pdl\drivers\peripheral\syslib/cy_syslib.c ****         milliseconds -= CY_DELAY_MS_OVERFLOW;
  47              		.loc 1 74 0
  48 000e 074B     		ldr	r3, .L4+4
  49 0010 9C46     		mov	ip, r3
  50 0012 6444     		add	r4, r4, ip
  51              	.LVL3:
  52              	.L2:
  67:Generated_Source\PSoC6\pdl\drivers\peripheral\syslib/cy_syslib.c ****     while(milliseconds > CY_DELAY_MS_OVERFLOW)
  53              		.loc 1 67 0
  54 0014 8023     		movs	r3, #128
  55 0016 1B02     		lsls	r3, r3, #8
  56 0018 9C42     		cmp	r4, r3
  57 001a F4D8     		bhi	.L3
  75:Generated_Source\PSoC6\pdl\drivers\peripheral\syslib/cy_syslib.c ****     }
  76:Generated_Source\PSoC6\pdl\drivers\peripheral\syslib/cy_syslib.c **** 
  77:Generated_Source\PSoC6\pdl\drivers\peripheral\syslib/cy_syslib.c ****     Cy_SysLib_DelayCycles(milliseconds * cy_delayFreqKhz);
  58              		.loc 1 77 0
  59 001c 044B     		ldr	r3, .L4+8
  60 001e 1868     		ldr	r0, [r3]
  61 0020 6043     		muls	r0, r4
  62 0022 FFF7FEFF 		bl	Cy_SysLib_DelayCycles
  63              	.LVL4:
  78:Generated_Source\PSoC6\pdl\drivers\peripheral\syslib/cy_syslib.c **** }
  64              		.loc 1 78 0
  65              		@ sp needed
  66              	.LVL5:
  67 0026 10BD     		pop	{r4, pc}
  68              	.L5:
  69              		.align	2
  70              	.L4:
  71 0028 00000000 		.word	cy_delay32kMs
  72 002c 0080FFFF 		.word	-32768
  73 0030 00000000 		.word	cy_delayFreqKhz
  74              		.cfi_endproc
  75              	.LFE64:
  76              		.size	Cy_SysLib_Delay, .-Cy_SysLib_Delay
  77              		.section	.text.Cy_SysLib_DelayUs,"ax",%progbits
  78              		.align	2
  79              		.global	Cy_SysLib_DelayUs
  80              		.code	16
  81              		.thumb_func
  82              		.type	Cy_SysLib_DelayUs, %function
  83              	Cy_SysLib_DelayUs:
  84              	.LFB65:
  79:Generated_Source\PSoC6\pdl\drivers\peripheral\syslib/cy_syslib.c **** 
  80:Generated_Source\PSoC6\pdl\drivers\peripheral\syslib/cy_syslib.c **** 
  81:Generated_Source\PSoC6\pdl\drivers\peripheral\syslib/cy_syslib.c **** /*******************************************************************************
  82:Generated_Source\PSoC6\pdl\drivers\peripheral\syslib/cy_syslib.c **** * Function Name: Cy_SysLib_DelayUs
  83:Generated_Source\PSoC6\pdl\drivers\peripheral\syslib/cy_syslib.c **** ****************************************************************************//**
  84:Generated_Source\PSoC6\pdl\drivers\peripheral\syslib/cy_syslib.c **** *
  85:Generated_Source\PSoC6\pdl\drivers\peripheral\syslib/cy_syslib.c **** * The function delays by the specified number of microseconds.
  86:Generated_Source\PSoC6\pdl\drivers\peripheral\syslib/cy_syslib.c **** * By default, the number of cycles to delay is calculated based on the
ARM GAS  C:\Users\Rolf\AppData\Local\Temp\ccTwK7ru.s 			page 4


  87:Generated_Source\PSoC6\pdl\drivers\peripheral\syslib/cy_syslib.c **** * \ref SystemCoreClock.
  88:Generated_Source\PSoC6\pdl\drivers\peripheral\syslib/cy_syslib.c **** *
  89:Generated_Source\PSoC6\pdl\drivers\peripheral\syslib/cy_syslib.c **** * \param microseconds  The number of microseconds to delay.
  90:Generated_Source\PSoC6\pdl\drivers\peripheral\syslib/cy_syslib.c **** *
  91:Generated_Source\PSoC6\pdl\drivers\peripheral\syslib/cy_syslib.c **** * \note If the CPU frequency is a small non-integer number, the actual delay
  92:Generated_Source\PSoC6\pdl\drivers\peripheral\syslib/cy_syslib.c **** *       can be up to twice as long as the nominal value. The actual delay
  93:Generated_Source\PSoC6\pdl\drivers\peripheral\syslib/cy_syslib.c **** *       cannot be shorter than the nominal one.
  94:Generated_Source\PSoC6\pdl\drivers\peripheral\syslib/cy_syslib.c **** *
  95:Generated_Source\PSoC6\pdl\drivers\peripheral\syslib/cy_syslib.c **** *******************************************************************************/
  96:Generated_Source\PSoC6\pdl\drivers\peripheral\syslib/cy_syslib.c **** void Cy_SysLib_DelayUs(uint16_t microseconds)
  97:Generated_Source\PSoC6\pdl\drivers\peripheral\syslib/cy_syslib.c **** {
  85              		.loc 1 97 0
  86              		.cfi_startproc
  87              		@ args = 0, pretend = 0, frame = 0
  88              		@ frame_needed = 0, uses_anonymous_args = 0
  89              	.LVL6:
  90 0000 10B5     		push	{r4, lr}
  91              		.cfi_def_cfa_offset 8
  92              		.cfi_offset 4, -8
  93              		.cfi_offset 14, -4
  98:Generated_Source\PSoC6\pdl\drivers\peripheral\syslib/cy_syslib.c ****     Cy_SysLib_DelayCycles((uint32_t) microseconds * cy_delayFreqMhz);
  94              		.loc 1 98 0
  95 0002 034B     		ldr	r3, .L7
  96 0004 1B78     		ldrb	r3, [r3]
  97 0006 5843     		muls	r0, r3
  98              	.LVL7:
  99 0008 FFF7FEFF 		bl	Cy_SysLib_DelayCycles
 100              	.LVL8:
  99:Generated_Source\PSoC6\pdl\drivers\peripheral\syslib/cy_syslib.c **** }
 101              		.loc 1 99 0
 102              		@ sp needed
 103 000c 10BD     		pop	{r4, pc}
 104              	.L8:
 105 000e C046     		.align	2
 106              	.L7:
 107 0010 00000000 		.word	cy_delayFreqMhz
 108              		.cfi_endproc
 109              	.LFE65:
 110              		.size	Cy_SysLib_DelayUs, .-Cy_SysLib_DelayUs
 111              		.section	.text.Cy_SysLib_Halt,"ax",%progbits
 112              		.align	2
 113              		.global	Cy_SysLib_Halt
 114              		.code	16
 115              		.thumb_func
 116              		.type	Cy_SysLib_Halt, %function
 117              	Cy_SysLib_Halt:
 118              	.LFB66:
 100:Generated_Source\PSoC6\pdl\drivers\peripheral\syslib/cy_syslib.c **** 
 101:Generated_Source\PSoC6\pdl\drivers\peripheral\syslib/cy_syslib.c **** 
 102:Generated_Source\PSoC6\pdl\drivers\peripheral\syslib/cy_syslib.c **** /*******************************************************************************
 103:Generated_Source\PSoC6\pdl\drivers\peripheral\syslib/cy_syslib.c **** * Function Name: Cy_SysLib_Halt
 104:Generated_Source\PSoC6\pdl\drivers\peripheral\syslib/cy_syslib.c **** ****************************************************************************//**
 105:Generated_Source\PSoC6\pdl\drivers\peripheral\syslib/cy_syslib.c **** *
 106:Generated_Source\PSoC6\pdl\drivers\peripheral\syslib/cy_syslib.c **** * This function halts the CPU but only the CPU which calls the function.
 107:Generated_Source\PSoC6\pdl\drivers\peripheral\syslib/cy_syslib.c **** * It doesn't affect other CPUs.
 108:Generated_Source\PSoC6\pdl\drivers\peripheral\syslib/cy_syslib.c **** *
 109:Generated_Source\PSoC6\pdl\drivers\peripheral\syslib/cy_syslib.c **** * \param reason  The value to be used during debugging.
ARM GAS  C:\Users\Rolf\AppData\Local\Temp\ccTwK7ru.s 			page 5


 110:Generated_Source\PSoC6\pdl\drivers\peripheral\syslib/cy_syslib.c **** *
 111:Generated_Source\PSoC6\pdl\drivers\peripheral\syslib/cy_syslib.c **** * \note The function executes the BKPT instruction for halting CPU and is
 112:Generated_Source\PSoC6\pdl\drivers\peripheral\syslib/cy_syslib.c **** *       intended to be used for the debug purpose. A regular use case requires
 113:Generated_Source\PSoC6\pdl\drivers\peripheral\syslib/cy_syslib.c **** *       Debugger attachment before the function call.
 114:Generated_Source\PSoC6\pdl\drivers\peripheral\syslib/cy_syslib.c **** *       The BKPT instruction causes the CPU to enter the Debug state. Debug
 115:Generated_Source\PSoC6\pdl\drivers\peripheral\syslib/cy_syslib.c **** *       tools can use this to investigate the system state, when the
 116:Generated_Source\PSoC6\pdl\drivers\peripheral\syslib/cy_syslib.c **** *       instruction at a particular address is reached.
 117:Generated_Source\PSoC6\pdl\drivers\peripheral\syslib/cy_syslib.c **** *
 118:Generated_Source\PSoC6\pdl\drivers\peripheral\syslib/cy_syslib.c **** * \note Execution of a BKPT instruction without a debugger attached produces
 119:Generated_Source\PSoC6\pdl\drivers\peripheral\syslib/cy_syslib.c **** *       a fault. The fault results in the HardFault exception being taken
 120:Generated_Source\PSoC6\pdl\drivers\peripheral\syslib/cy_syslib.c **** *       or causes a Lockup state if it occurs in the NMI or HardFault handler.
 121:Generated_Source\PSoC6\pdl\drivers\peripheral\syslib/cy_syslib.c **** *       The default HardFault handler make a software reset if the build option
 122:Generated_Source\PSoC6\pdl\drivers\peripheral\syslib/cy_syslib.c **** *       is the release mode (NDEBUG). If the build option is the debug mode,
 123:Generated_Source\PSoC6\pdl\drivers\peripheral\syslib/cy_syslib.c **** *       the system will stay in the infinite loop of the
 124:Generated_Source\PSoC6\pdl\drivers\peripheral\syslib/cy_syslib.c **** *       \ref Cy_SysLib_ProcessingFault() function.
 125:Generated_Source\PSoC6\pdl\drivers\peripheral\syslib/cy_syslib.c **** *
 126:Generated_Source\PSoC6\pdl\drivers\peripheral\syslib/cy_syslib.c **** *******************************************************************************/
 127:Generated_Source\PSoC6\pdl\drivers\peripheral\syslib/cy_syslib.c **** __NO_RETURN void Cy_SysLib_Halt(uint32_t reason)
 128:Generated_Source\PSoC6\pdl\drivers\peripheral\syslib/cy_syslib.c **** {
 119              		.loc 1 128 0
 120              		.cfi_startproc
 121              		@ Volatile: function does not return.
 122              		@ args = 0, pretend = 0, frame = 0
 123              		@ frame_needed = 0, uses_anonymous_args = 0
 124              		@ link register save eliminated.
 125              	.LVL9:
 129:Generated_Source\PSoC6\pdl\drivers\peripheral\syslib/cy_syslib.c ****     if(0U != reason)
 130:Generated_Source\PSoC6\pdl\drivers\peripheral\syslib/cy_syslib.c ****     {
 131:Generated_Source\PSoC6\pdl\drivers\peripheral\syslib/cy_syslib.c ****         /* To remove an unreferenced local variable warning */
 132:Generated_Source\PSoC6\pdl\drivers\peripheral\syslib/cy_syslib.c ****     }
 133:Generated_Source\PSoC6\pdl\drivers\peripheral\syslib/cy_syslib.c **** 
 134:Generated_Source\PSoC6\pdl\drivers\peripheral\syslib/cy_syslib.c ****     #if defined (__ARMCC_VERSION)
 135:Generated_Source\PSoC6\pdl\drivers\peripheral\syslib/cy_syslib.c ****         __breakpoint(0x0);
 136:Generated_Source\PSoC6\pdl\drivers\peripheral\syslib/cy_syslib.c ****     #elif defined(__GNUC__)
 137:Generated_Source\PSoC6\pdl\drivers\peripheral\syslib/cy_syslib.c ****         __asm("    bkpt    1");
 126              		.loc 1 137 0
 127              		.syntax divided
 128              	@ 137 "Generated_Source\PSoC6\pdl\drivers\peripheral\syslib\cy_syslib.c" 1
 129 0000 01BE     		    bkpt    1
 130              	@ 0 "" 2
 131              		.thumb
 132              		.syntax unified
 133              	.L10:
 134 0002 FEE7     		b	.L10
 135              		.cfi_endproc
 136              	.LFE66:
 137              		.size	Cy_SysLib_Halt, .-Cy_SysLib_Halt
 138              		.section	.text.Cy_SysLib_AssertFailed,"ax",%progbits
 139              		.align	2
 140              		.weak	Cy_SysLib_AssertFailed
 141              		.code	16
 142              		.thumb_func
 143              		.type	Cy_SysLib_AssertFailed, %function
 144              	Cy_SysLib_AssertFailed:
 145              	.LFB67:
 138:Generated_Source\PSoC6\pdl\drivers\peripheral\syslib/cy_syslib.c ****     #elif defined (__ICCARM__)
 139:Generated_Source\PSoC6\pdl\drivers\peripheral\syslib/cy_syslib.c ****         __asm("    bkpt    1");
ARM GAS  C:\Users\Rolf\AppData\Local\Temp\ccTwK7ru.s 			page 6


 140:Generated_Source\PSoC6\pdl\drivers\peripheral\syslib/cy_syslib.c ****     #else
 141:Generated_Source\PSoC6\pdl\drivers\peripheral\syslib/cy_syslib.c ****         #error "An unsupported toolchain"
 142:Generated_Source\PSoC6\pdl\drivers\peripheral\syslib/cy_syslib.c ****     #endif  /* (__ARMCC_VERSION) */
 143:Generated_Source\PSoC6\pdl\drivers\peripheral\syslib/cy_syslib.c **** 
 144:Generated_Source\PSoC6\pdl\drivers\peripheral\syslib/cy_syslib.c ****     while(1) {}
 145:Generated_Source\PSoC6\pdl\drivers\peripheral\syslib/cy_syslib.c **** }
 146:Generated_Source\PSoC6\pdl\drivers\peripheral\syslib/cy_syslib.c **** 
 147:Generated_Source\PSoC6\pdl\drivers\peripheral\syslib/cy_syslib.c **** 
 148:Generated_Source\PSoC6\pdl\drivers\peripheral\syslib/cy_syslib.c **** #if !defined(NDEBUG) || defined(CY_DOXYGEN)
 149:Generated_Source\PSoC6\pdl\drivers\peripheral\syslib/cy_syslib.c **** /*******************************************************************************
 150:Generated_Source\PSoC6\pdl\drivers\peripheral\syslib/cy_syslib.c **** * Macro Name: Cy_SysLib_AssertFailed
 151:Generated_Source\PSoC6\pdl\drivers\peripheral\syslib/cy_syslib.c **** ****************************************************************************//**
 152:Generated_Source\PSoC6\pdl\drivers\peripheral\syslib/cy_syslib.c **** *
 153:Generated_Source\PSoC6\pdl\drivers\peripheral\syslib/cy_syslib.c **** * This function stores the ASSERT location of the file name (including path
 154:Generated_Source\PSoC6\pdl\drivers\peripheral\syslib/cy_syslib.c **** * to file) and line number in a non-zero init area for debugging. Also it calls
 155:Generated_Source\PSoC6\pdl\drivers\peripheral\syslib/cy_syslib.c **** * the \ref Cy_SysLib_Halt() function to halt the processor.
 156:Generated_Source\PSoC6\pdl\drivers\peripheral\syslib/cy_syslib.c **** *
 157:Generated_Source\PSoC6\pdl\drivers\peripheral\syslib/cy_syslib.c **** * \param file  The file name of the ASSERT location.
 158:Generated_Source\PSoC6\pdl\drivers\peripheral\syslib/cy_syslib.c **** * \param line  The line number of the ASSERT location.
 159:Generated_Source\PSoC6\pdl\drivers\peripheral\syslib/cy_syslib.c **** *
 160:Generated_Source\PSoC6\pdl\drivers\peripheral\syslib/cy_syslib.c **** * \note A stored file name and line number could be accessed by
 161:Generated_Source\PSoC6\pdl\drivers\peripheral\syslib/cy_syslib.c **** *       cy_assertFileName and cy_assertLine global variables.
 162:Generated_Source\PSoC6\pdl\drivers\peripheral\syslib/cy_syslib.c **** * \note This function has the WEAK option, so the user can redefine
 163:Generated_Source\PSoC6\pdl\drivers\peripheral\syslib/cy_syslib.c **** *       the function for a custom processing.
 164:Generated_Source\PSoC6\pdl\drivers\peripheral\syslib/cy_syslib.c **** *
 165:Generated_Source\PSoC6\pdl\drivers\peripheral\syslib/cy_syslib.c **** *******************************************************************************/
 166:Generated_Source\PSoC6\pdl\drivers\peripheral\syslib/cy_syslib.c **** __WEAK void Cy_SysLib_AssertFailed(const char_t * file, uint32_t line)
 167:Generated_Source\PSoC6\pdl\drivers\peripheral\syslib/cy_syslib.c **** {
 146              		.loc 1 167 0
 147              		.cfi_startproc
 148              		@ args = 0, pretend = 0, frame = 0
 149              		@ frame_needed = 0, uses_anonymous_args = 0
 150              	.LVL10:
 151 0000 70B5     		push	{r4, r5, r6, lr}
 152              		.cfi_def_cfa_offset 16
 153              		.cfi_offset 4, -16
 154              		.cfi_offset 5, -12
 155              		.cfi_offset 6, -8
 156              		.cfi_offset 14, -4
 157 0002 0D00     		movs	r5, r1
 168:Generated_Source\PSoC6\pdl\drivers\peripheral\syslib/cy_syslib.c ****     (void) strncpy(cy_assertFileName, file, CY_MAX_FILE_NAME_SIZE);
 158              		.loc 1 168 0
 159 0004 044C     		ldr	r4, .L12
 160 0006 1822     		movs	r2, #24
 161 0008 0100     		movs	r1, r0
 162              	.LVL11:
 163 000a 2000     		movs	r0, r4
 164              	.LVL12:
 165 000c FFF7FEFF 		bl	strncpy
 166              	.LVL13:
 169:Generated_Source\PSoC6\pdl\drivers\peripheral\syslib/cy_syslib.c ****     cy_assertLine = line;
 167              		.loc 1 169 0
 168 0010 A561     		str	r5, [r4, #24]
 170:Generated_Source\PSoC6\pdl\drivers\peripheral\syslib/cy_syslib.c ****     Cy_SysLib_Halt(0UL);
 169              		.loc 1 170 0
 170 0012 0020     		movs	r0, #0
 171 0014 FFF7FEFF 		bl	Cy_SysLib_Halt
ARM GAS  C:\Users\Rolf\AppData\Local\Temp\ccTwK7ru.s 			page 7


 172              	.LVL14:
 173              	.L13:
 174              		.align	2
 175              	.L12:
 176 0018 00000000 		.word	.LANCHOR0
 177              		.cfi_endproc
 178              	.LFE67:
 179              		.size	Cy_SysLib_AssertFailed, .-Cy_SysLib_AssertFailed
 180              		.section	.text.Cy_SysLib_ClearFlashCacheAndBuffer,"ax",%progbits
 181              		.align	2
 182              		.global	Cy_SysLib_ClearFlashCacheAndBuffer
 183              		.code	16
 184              		.thumb_func
 185              		.type	Cy_SysLib_ClearFlashCacheAndBuffer, %function
 186              	Cy_SysLib_ClearFlashCacheAndBuffer:
 187              	.LFB68:
 171:Generated_Source\PSoC6\pdl\drivers\peripheral\syslib/cy_syslib.c **** }
 172:Generated_Source\PSoC6\pdl\drivers\peripheral\syslib/cy_syslib.c **** #endif  /* !defined(NDEBUG) || defined(CY_DOXYGEN) */
 173:Generated_Source\PSoC6\pdl\drivers\peripheral\syslib/cy_syslib.c **** 
 174:Generated_Source\PSoC6\pdl\drivers\peripheral\syslib/cy_syslib.c **** 
 175:Generated_Source\PSoC6\pdl\drivers\peripheral\syslib/cy_syslib.c **** /*******************************************************************************
 176:Generated_Source\PSoC6\pdl\drivers\peripheral\syslib/cy_syslib.c **** * Function Name: Cy_SysLib_ClearFlashCacheAndBuffer
 177:Generated_Source\PSoC6\pdl\drivers\peripheral\syslib/cy_syslib.c **** ****************************************************************************//**
 178:Generated_Source\PSoC6\pdl\drivers\peripheral\syslib/cy_syslib.c **** *
 179:Generated_Source\PSoC6\pdl\drivers\peripheral\syslib/cy_syslib.c **** * This function invalidates the flash cache and buffer. It ensures the valid
 180:Generated_Source\PSoC6\pdl\drivers\peripheral\syslib/cy_syslib.c **** * data is read from flash instead of using outdated data from the cache.
 181:Generated_Source\PSoC6\pdl\drivers\peripheral\syslib/cy_syslib.c **** * The caches' LRU structure is also reset to their default state.
 182:Generated_Source\PSoC6\pdl\drivers\peripheral\syslib/cy_syslib.c **** *
 183:Generated_Source\PSoC6\pdl\drivers\peripheral\syslib/cy_syslib.c **** * \note The operation takes a maximum of three clock cycles on the slowest of
 184:Generated_Source\PSoC6\pdl\drivers\peripheral\syslib/cy_syslib.c **** *       the clk_slow and clk_fast clocks.
 185:Generated_Source\PSoC6\pdl\drivers\peripheral\syslib/cy_syslib.c **** *
 186:Generated_Source\PSoC6\pdl\drivers\peripheral\syslib/cy_syslib.c **** *******************************************************************************/
 187:Generated_Source\PSoC6\pdl\drivers\peripheral\syslib/cy_syslib.c **** void Cy_SysLib_ClearFlashCacheAndBuffer(void)
 188:Generated_Source\PSoC6\pdl\drivers\peripheral\syslib/cy_syslib.c **** {
 188              		.loc 1 188 0
 189              		.cfi_startproc
 190              		@ args = 0, pretend = 0, frame = 0
 191              		@ frame_needed = 0, uses_anonymous_args = 0
 192              		@ link register save eliminated.
 189:Generated_Source\PSoC6\pdl\drivers\peripheral\syslib/cy_syslib.c ****     FLASHC_FLASH_CMD = FLASHC_FLASH_CMD_INV_Msk;
 193              		.loc 1 189 0
 194 0000 024B     		ldr	r3, .L15
 195 0002 1B68     		ldr	r3, [r3]
 196 0004 5B68     		ldr	r3, [r3, #4]
 197 0006 0122     		movs	r2, #1
 198 0008 9A60     		str	r2, [r3, #8]
 190:Generated_Source\PSoC6\pdl\drivers\peripheral\syslib/cy_syslib.c **** }
 199              		.loc 1 190 0
 200              		@ sp needed
 201 000a 7047     		bx	lr
 202              	.L16:
 203              		.align	2
 204              	.L15:
 205 000c 00000000 		.word	cy_device
 206              		.cfi_endproc
 207              	.LFE68:
 208              		.size	Cy_SysLib_ClearFlashCacheAndBuffer, .-Cy_SysLib_ClearFlashCacheAndBuffer
ARM GAS  C:\Users\Rolf\AppData\Local\Temp\ccTwK7ru.s 			page 8


 209              		.section	.text.Cy_SysLib_ResetBackupDomain,"ax",%progbits
 210              		.align	2
 211              		.global	Cy_SysLib_ResetBackupDomain
 212              		.code	16
 213              		.thumb_func
 214              		.type	Cy_SysLib_ResetBackupDomain, %function
 215              	Cy_SysLib_ResetBackupDomain:
 216              	.LFB69:
 191:Generated_Source\PSoC6\pdl\drivers\peripheral\syslib/cy_syslib.c **** 
 192:Generated_Source\PSoC6\pdl\drivers\peripheral\syslib/cy_syslib.c **** 
 193:Generated_Source\PSoC6\pdl\drivers\peripheral\syslib/cy_syslib.c **** /*******************************************************************************
 194:Generated_Source\PSoC6\pdl\drivers\peripheral\syslib/cy_syslib.c **** * Function Name: Cy_SysLib_ResetBackupDomain
 195:Generated_Source\PSoC6\pdl\drivers\peripheral\syslib/cy_syslib.c **** ****************************************************************************//**
 196:Generated_Source\PSoC6\pdl\drivers\peripheral\syslib/cy_syslib.c **** *
 197:Generated_Source\PSoC6\pdl\drivers\peripheral\syslib/cy_syslib.c **** * This function resets the backup domain power to avoid the ILO glitch. The
 198:Generated_Source\PSoC6\pdl\drivers\peripheral\syslib/cy_syslib.c **** * glitch can occur when the device is reset due to POR/BOD/XRES while
 199:Generated_Source\PSoC6\pdl\drivers\peripheral\syslib/cy_syslib.c **** * the backup voltage is supplied into the system.
 200:Generated_Source\PSoC6\pdl\drivers\peripheral\syslib/cy_syslib.c **** *
 201:Generated_Source\PSoC6\pdl\drivers\peripheral\syslib/cy_syslib.c **** * \note Writing 1 to BACKUP->RESET resets the backup logic. Hardware clears it
 202:Generated_Source\PSoC6\pdl\drivers\peripheral\syslib/cy_syslib.c **** *       when the reset is complete. After setting the register, this function
 203:Generated_Source\PSoC6\pdl\drivers\peripheral\syslib/cy_syslib.c **** *       reads the register immediately for returning the result of the backup
 204:Generated_Source\PSoC6\pdl\drivers\peripheral\syslib/cy_syslib.c **** *       domain reset state. The reading register is important because the Read
 205:Generated_Source\PSoC6\pdl\drivers\peripheral\syslib/cy_syslib.c **** *       itself takes multiple AHB clock cycles, and the reset is actually
 206:Generated_Source\PSoC6\pdl\drivers\peripheral\syslib/cy_syslib.c **** *       finishing during that time.
 207:Generated_Source\PSoC6\pdl\drivers\peripheral\syslib/cy_syslib.c **** *
 208:Generated_Source\PSoC6\pdl\drivers\peripheral\syslib/cy_syslib.c **** * \return CY_SYSLIB_SUCCESS, if BACKUP->RESET read-back is 0.
 209:Generated_Source\PSoC6\pdl\drivers\peripheral\syslib/cy_syslib.c **** *         Otherwise returns CY_SYSLIB_INVALID_STATE.
 210:Generated_Source\PSoC6\pdl\drivers\peripheral\syslib/cy_syslib.c **** *
 211:Generated_Source\PSoC6\pdl\drivers\peripheral\syslib/cy_syslib.c **** *******************************************************************************/
 212:Generated_Source\PSoC6\pdl\drivers\peripheral\syslib/cy_syslib.c **** cy_en_syslib_status_t Cy_SysLib_ResetBackupDomain(void)
 213:Generated_Source\PSoC6\pdl\drivers\peripheral\syslib/cy_syslib.c **** {
 217              		.loc 1 213 0
 218              		.cfi_startproc
 219              		@ args = 0, pretend = 0, frame = 0
 220              		@ frame_needed = 0, uses_anonymous_args = 0
 221              		@ link register save eliminated.
 214:Generated_Source\PSoC6\pdl\drivers\peripheral\syslib/cy_syslib.c ****     BACKUP_RESET = BACKUP_RESET_RESET_Msk;
 222              		.loc 1 214 0
 223 0000 054B     		ldr	r3, .L20
 224 0002 8022     		movs	r2, #128
 225 0004 1206     		lsls	r2, r2, #24
 226 0006 9A64     		str	r2, [r3, #72]
 215:Generated_Source\PSoC6\pdl\drivers\peripheral\syslib/cy_syslib.c **** 
 216:Generated_Source\PSoC6\pdl\drivers\peripheral\syslib/cy_syslib.c ****     return ( ((BACKUP_RESET & BACKUP_RESET_RESET_Msk) == 0UL) ? CY_SYSLIB_SUCCESS : CY_SYSLIB_INVAL
 227              		.loc 1 216 0
 228 0008 9B6C     		ldr	r3, [r3, #72]
 229 000a 002B     		cmp	r3, #0
 230 000c 01DB     		blt	.L19
 231 000e 0020     		movs	r0, #0
 232 0010 00E0     		b	.L18
 233              	.L19:
 234 0012 0248     		ldr	r0, .L20+4
 235              	.L18:
 217:Generated_Source\PSoC6\pdl\drivers\peripheral\syslib/cy_syslib.c **** }
 236              		.loc 1 217 0 discriminator 4
 237              		@ sp needed
 238 0014 7047     		bx	lr
ARM GAS  C:\Users\Rolf\AppData\Local\Temp\ccTwK7ru.s 			page 9


 239              	.L21:
 240 0016 C046     		.align	2
 241              	.L20:
 242 0018 00002740 		.word	1076297728
 243 001c 03004600 		.word	4587523
 244              		.cfi_endproc
 245              	.LFE69:
 246              		.size	Cy_SysLib_ResetBackupDomain, .-Cy_SysLib_ResetBackupDomain
 247              		.section	.text.Cy_SysLib_GetResetReason,"ax",%progbits
 248              		.align	2
 249              		.global	Cy_SysLib_GetResetReason
 250              		.code	16
 251              		.thumb_func
 252              		.type	Cy_SysLib_GetResetReason, %function
 253              	Cy_SysLib_GetResetReason:
 254              	.LFB70:
 218:Generated_Source\PSoC6\pdl\drivers\peripheral\syslib/cy_syslib.c **** 
 219:Generated_Source\PSoC6\pdl\drivers\peripheral\syslib/cy_syslib.c **** 
 220:Generated_Source\PSoC6\pdl\drivers\peripheral\syslib/cy_syslib.c **** /*******************************************************************************
 221:Generated_Source\PSoC6\pdl\drivers\peripheral\syslib/cy_syslib.c **** * Function Name: Cy_SysLib_GetResetReason
 222:Generated_Source\PSoC6\pdl\drivers\peripheral\syslib/cy_syslib.c **** ****************************************************************************//**
 223:Generated_Source\PSoC6\pdl\drivers\peripheral\syslib/cy_syslib.c **** *
 224:Generated_Source\PSoC6\pdl\drivers\peripheral\syslib/cy_syslib.c **** * The function returns the cause for the latest reset(s) that occurred in
 225:Generated_Source\PSoC6\pdl\drivers\peripheral\syslib/cy_syslib.c **** * the system. The reset causes include an HFCLK error, system faults, and
 226:Generated_Source\PSoC6\pdl\drivers\peripheral\syslib/cy_syslib.c **** * device reset on a wakeup from Hibernate mode.
 227:Generated_Source\PSoC6\pdl\drivers\peripheral\syslib/cy_syslib.c **** * The return results are consolidated reset causes from reading RES_CAUSE,
 228:Generated_Source\PSoC6\pdl\drivers\peripheral\syslib/cy_syslib.c **** * RES_CAUSE2 and PWR_HIBERNATE token registers.
 229:Generated_Source\PSoC6\pdl\drivers\peripheral\syslib/cy_syslib.c **** *
 230:Generated_Source\PSoC6\pdl\drivers\peripheral\syslib/cy_syslib.c **** * \return The cause of a system reset.
 231:Generated_Source\PSoC6\pdl\drivers\peripheral\syslib/cy_syslib.c **** *
 232:Generated_Source\PSoC6\pdl\drivers\peripheral\syslib/cy_syslib.c **** * | Name                          | Value
 233:Generated_Source\PSoC6\pdl\drivers\peripheral\syslib/cy_syslib.c **** * |-------------------------------|---------------------
 234:Generated_Source\PSoC6\pdl\drivers\peripheral\syslib/cy_syslib.c **** * | CY_SYSLIB_RESET_HWWDT         | 0x00001 (bit0)
 235:Generated_Source\PSoC6\pdl\drivers\peripheral\syslib/cy_syslib.c **** * | CY_SYSLIB_RESET_ACT_FAULT     | 0x00002 (bit1)
 236:Generated_Source\PSoC6\pdl\drivers\peripheral\syslib/cy_syslib.c **** * | CY_SYSLIB_RESET_DPSLP_FAULT   | 0x00004 (bit2)
 237:Generated_Source\PSoC6\pdl\drivers\peripheral\syslib/cy_syslib.c **** * | CY_SYSLIB_RESET_CSV_WCO_LOSS  | 0x00008 (bit3)
 238:Generated_Source\PSoC6\pdl\drivers\peripheral\syslib/cy_syslib.c **** * | CY_SYSLIB_RESET_SOFT          | 0x00010 (bit4)
 239:Generated_Source\PSoC6\pdl\drivers\peripheral\syslib/cy_syslib.c **** * | CY_SYSLIB_RESET_SWWDT0        | 0x00020 (bit5)
 240:Generated_Source\PSoC6\pdl\drivers\peripheral\syslib/cy_syslib.c **** * | CY_SYSLIB_RESET_SWWDT1        | 0x00040 (bit6)
 241:Generated_Source\PSoC6\pdl\drivers\peripheral\syslib/cy_syslib.c **** * | CY_SYSLIB_RESET_SWWDT2        | 0x00080 (bit7)
 242:Generated_Source\PSoC6\pdl\drivers\peripheral\syslib/cy_syslib.c **** * | CY_SYSLIB_RESET_SWWDT3        | 0x00100 (bit8)
 243:Generated_Source\PSoC6\pdl\drivers\peripheral\syslib/cy_syslib.c **** * | CY_SYSLIB_RESET_HFCLK_LOSS    | 0x10000 (bit16)
 244:Generated_Source\PSoC6\pdl\drivers\peripheral\syslib/cy_syslib.c **** * | CY_SYSLIB_RESET_HFCLK_ERR     | 0x20000 (bit17)
 245:Generated_Source\PSoC6\pdl\drivers\peripheral\syslib/cy_syslib.c **** * | CY_SYSLIB_RESET_HIB_WAKEUP    | 0x40000 (bit18)
 246:Generated_Source\PSoC6\pdl\drivers\peripheral\syslib/cy_syslib.c **** *
 247:Generated_Source\PSoC6\pdl\drivers\peripheral\syslib/cy_syslib.c **** * \note CY_SYSLIB_RESET_CSV_WCO_LOSS, CY_SYSLIB_RESET_HFCLK_LOSS and
 248:Generated_Source\PSoC6\pdl\drivers\peripheral\syslib/cy_syslib.c **** *       CY_SYSLIB_RESET_HFCLK_ERR causes of a system reset available only if
 249:Generated_Source\PSoC6\pdl\drivers\peripheral\syslib/cy_syslib.c **** *       WCO CSV present in the device.
 250:Generated_Source\PSoC6\pdl\drivers\peripheral\syslib/cy_syslib.c **** *
 251:Generated_Source\PSoC6\pdl\drivers\peripheral\syslib/cy_syslib.c **** *******************************************************************************/
 252:Generated_Source\PSoC6\pdl\drivers\peripheral\syslib/cy_syslib.c **** uint32_t Cy_SysLib_GetResetReason(void)
 253:Generated_Source\PSoC6\pdl\drivers\peripheral\syslib/cy_syslib.c **** {
 255              		.loc 1 253 0
 256              		.cfi_startproc
 257              		@ args = 0, pretend = 0, frame = 0
 258              		@ frame_needed = 0, uses_anonymous_args = 0
 259              		@ link register save eliminated.
ARM GAS  C:\Users\Rolf\AppData\Local\Temp\ccTwK7ru.s 			page 10


 254:Generated_Source\PSoC6\pdl\drivers\peripheral\syslib/cy_syslib.c ****     uint32_t retVal = SRSS_RES_CAUSE;
 260              		.loc 1 254 0
 261 0000 054B     		ldr	r3, .L24
 262 0002 8022     		movs	r2, #128
 263 0004 1201     		lsls	r2, r2, #4
 264 0006 9858     		ldr	r0, [r3, r2]
 265              	.LVL15:
 255:Generated_Source\PSoC6\pdl\drivers\peripheral\syslib/cy_syslib.c **** 
 256:Generated_Source\PSoC6\pdl\drivers\peripheral\syslib/cy_syslib.c ****     if(0U != _FLD2VAL(SRSS_PWR_HIBERNATE_TOKEN, SRSS_PWR_HIBERNATE))
 266              		.loc 1 256 0
 267 0008 5B68     		ldr	r3, [r3, #4]
 268 000a FF22     		movs	r2, #255
 269 000c 1A42     		tst	r2, r3
 270 000e 02D0     		beq	.L23
 257:Generated_Source\PSoC6\pdl\drivers\peripheral\syslib/cy_syslib.c ****     {
 258:Generated_Source\PSoC6\pdl\drivers\peripheral\syslib/cy_syslib.c ****         retVal |= CY_SYSLIB_RESET_HIB_WAKEUP;
 271              		.loc 1 258 0
 272 0010 8023     		movs	r3, #128
 273 0012 DB02     		lsls	r3, r3, #11
 274 0014 1843     		orrs	r0, r3
 275              	.LVL16:
 276              	.L23:
 259:Generated_Source\PSoC6\pdl\drivers\peripheral\syslib/cy_syslib.c ****     }
 260:Generated_Source\PSoC6\pdl\drivers\peripheral\syslib/cy_syslib.c **** 
 261:Generated_Source\PSoC6\pdl\drivers\peripheral\syslib/cy_syslib.c ****     return (retVal);
 262:Generated_Source\PSoC6\pdl\drivers\peripheral\syslib/cy_syslib.c **** }
 277              		.loc 1 262 0
 278              		@ sp needed
 279 0016 7047     		bx	lr
 280              	.L25:
 281              		.align	2
 282              	.L24:
 283 0018 00002640 		.word	1076232192
 284              		.cfi_endproc
 285              	.LFE70:
 286              		.size	Cy_SysLib_GetResetReason, .-Cy_SysLib_GetResetReason
 287              		.section	.text.Cy_SysLib_ClearResetReason,"ax",%progbits
 288              		.align	2
 289              		.global	Cy_SysLib_ClearResetReason
 290              		.code	16
 291              		.thumb_func
 292              		.type	Cy_SysLib_ClearResetReason, %function
 293              	Cy_SysLib_ClearResetReason:
 294              	.LFB71:
 263:Generated_Source\PSoC6\pdl\drivers\peripheral\syslib/cy_syslib.c **** 
 264:Generated_Source\PSoC6\pdl\drivers\peripheral\syslib/cy_syslib.c **** 
 265:Generated_Source\PSoC6\pdl\drivers\peripheral\syslib/cy_syslib.c **** /*******************************************************************************
 266:Generated_Source\PSoC6\pdl\drivers\peripheral\syslib/cy_syslib.c **** * Function Name: Cy_SysLib_ClearResetReason
 267:Generated_Source\PSoC6\pdl\drivers\peripheral\syslib/cy_syslib.c **** ****************************************************************************//**
 268:Generated_Source\PSoC6\pdl\drivers\peripheral\syslib/cy_syslib.c **** *
 269:Generated_Source\PSoC6\pdl\drivers\peripheral\syslib/cy_syslib.c **** * This function clears the values of RES_CAUSE and RES_CAUSE2. Also it clears
 270:Generated_Source\PSoC6\pdl\drivers\peripheral\syslib/cy_syslib.c **** * PWR_HIBERNATE token, which indicates reset event on waking up from HIBERNATE.
 271:Generated_Source\PSoC6\pdl\drivers\peripheral\syslib/cy_syslib.c **** *
 272:Generated_Source\PSoC6\pdl\drivers\peripheral\syslib/cy_syslib.c **** *******************************************************************************/
 273:Generated_Source\PSoC6\pdl\drivers\peripheral\syslib/cy_syslib.c **** void Cy_SysLib_ClearResetReason(void)
 274:Generated_Source\PSoC6\pdl\drivers\peripheral\syslib/cy_syslib.c **** {
 295              		.loc 1 274 0
ARM GAS  C:\Users\Rolf\AppData\Local\Temp\ccTwK7ru.s 			page 11


 296              		.cfi_startproc
 297              		@ args = 0, pretend = 0, frame = 0
 298              		@ frame_needed = 0, uses_anonymous_args = 0
 299              		@ link register save eliminated.
 275:Generated_Source\PSoC6\pdl\drivers\peripheral\syslib/cy_syslib.c ****     /* RES_CAUSE and RES_CAUSE2 register's bits are RW1C (every bit is cleared upon writing 1),
 276:Generated_Source\PSoC6\pdl\drivers\peripheral\syslib/cy_syslib.c ****      * so write all ones to clear all the reset reasons.
 277:Generated_Source\PSoC6\pdl\drivers\peripheral\syslib/cy_syslib.c ****      */
 278:Generated_Source\PSoC6\pdl\drivers\peripheral\syslib/cy_syslib.c ****     SRSS_RES_CAUSE  = 0xFFFFFFFFU;
 300              		.loc 1 278 0
 301 0000 094B     		ldr	r3, .L28
 302 0002 0122     		movs	r2, #1
 303 0004 5242     		rsbs	r2, r2, #0
 304 0006 8021     		movs	r1, #128
 305 0008 0901     		lsls	r1, r1, #4
 306 000a 5A50     		str	r2, [r3, r1]
 279:Generated_Source\PSoC6\pdl\drivers\peripheral\syslib/cy_syslib.c ****     SRSS_RES_CAUSE2 = 0xFFFFFFFFU;
 307              		.loc 1 279 0
 308 000c 0749     		ldr	r1, .L28+4
 309 000e 5A50     		str	r2, [r3, r1]
 280:Generated_Source\PSoC6\pdl\drivers\peripheral\syslib/cy_syslib.c ****     
 281:Generated_Source\PSoC6\pdl\drivers\peripheral\syslib/cy_syslib.c ****     if(0U != _FLD2VAL(SRSS_PWR_HIBERNATE_TOKEN, SRSS_PWR_HIBERNATE))
 310              		.loc 1 281 0
 311 0010 5B68     		ldr	r3, [r3, #4]
 312 0012 0132     		adds	r2, r2, #1
 313 0014 FF32     		adds	r2, r2, #255
 314 0016 1A42     		tst	r2, r3
 315 0018 04D0     		beq	.L26
 282:Generated_Source\PSoC6\pdl\drivers\peripheral\syslib/cy_syslib.c ****     {
 283:Generated_Source\PSoC6\pdl\drivers\peripheral\syslib/cy_syslib.c ****         /* Clears PWR_HIBERNATE token */
 284:Generated_Source\PSoC6\pdl\drivers\peripheral\syslib/cy_syslib.c ****         SRSS_PWR_HIBERNATE &= ~SRSS_PWR_HIBERNATE_TOKEN_Msk;
 316              		.loc 1 284 0
 317 001a 034A     		ldr	r2, .L28
 318 001c 5368     		ldr	r3, [r2, #4]
 319 001e FF21     		movs	r1, #255
 320 0020 8B43     		bics	r3, r1
 321 0022 5360     		str	r3, [r2, #4]
 322              	.L26:
 285:Generated_Source\PSoC6\pdl\drivers\peripheral\syslib/cy_syslib.c ****     }
 286:Generated_Source\PSoC6\pdl\drivers\peripheral\syslib/cy_syslib.c **** }
 323              		.loc 1 286 0
 324              		@ sp needed
 325 0024 7047     		bx	lr
 326              	.L29:
 327 0026 C046     		.align	2
 328              	.L28:
 329 0028 00002640 		.word	1076232192
 330 002c 04080000 		.word	2052
 331              		.cfi_endproc
 332              	.LFE71:
 333              		.size	Cy_SysLib_ClearResetReason, .-Cy_SysLib_ClearResetReason
 334              		.section	.text.Cy_SysLib_SoftResetCM4,"ax",%progbits
 335              		.align	2
 336              		.global	Cy_SysLib_SoftResetCM4
 337              		.code	16
 338              		.thumb_func
 339              		.type	Cy_SysLib_SoftResetCM4, %function
 340              	Cy_SysLib_SoftResetCM4:
ARM GAS  C:\Users\Rolf\AppData\Local\Temp\ccTwK7ru.s 			page 12


 341              	.LFB72:
 287:Generated_Source\PSoC6\pdl\drivers\peripheral\syslib/cy_syslib.c **** 
 288:Generated_Source\PSoC6\pdl\drivers\peripheral\syslib/cy_syslib.c **** 
 289:Generated_Source\PSoC6\pdl\drivers\peripheral\syslib/cy_syslib.c **** #if (CY_CPU_CORTEX_M0P) || defined(CY_DOXYGEN)
 290:Generated_Source\PSoC6\pdl\drivers\peripheral\syslib/cy_syslib.c **** /*******************************************************************************
 291:Generated_Source\PSoC6\pdl\drivers\peripheral\syslib/cy_syslib.c **** * Function Name: Cy_SysLib_SoftResetCM4
 292:Generated_Source\PSoC6\pdl\drivers\peripheral\syslib/cy_syslib.c **** ****************************************************************************//**
 293:Generated_Source\PSoC6\pdl\drivers\peripheral\syslib/cy_syslib.c **** *
 294:Generated_Source\PSoC6\pdl\drivers\peripheral\syslib/cy_syslib.c **** * This function performs a CM4 Core software reset using the CM4_PWR_CTL
 295:Generated_Source\PSoC6\pdl\drivers\peripheral\syslib/cy_syslib.c **** * register. The register is accessed by CM0 Core by using a command transferred
 296:Generated_Source\PSoC6\pdl\drivers\peripheral\syslib/cy_syslib.c **** * to SROM API through the IPC channel. When the command is sent, the API waits
 297:Generated_Source\PSoC6\pdl\drivers\peripheral\syslib/cy_syslib.c **** * for the IPC channel release.
 298:Generated_Source\PSoC6\pdl\drivers\peripheral\syslib/cy_syslib.c **** *
 299:Generated_Source\PSoC6\pdl\drivers\peripheral\syslib/cy_syslib.c **** * \note This function should be called only when the CM4 core is in Deep
 300:Generated_Source\PSoC6\pdl\drivers\peripheral\syslib/cy_syslib.c **** *       Sleep mode.
 301:Generated_Source\PSoC6\pdl\drivers\peripheral\syslib/cy_syslib.c **** * \note This function will not reset CM0+ Core.
 302:Generated_Source\PSoC6\pdl\drivers\peripheral\syslib/cy_syslib.c **** * \note This function waits for an IPC channel release state.
 303:Generated_Source\PSoC6\pdl\drivers\peripheral\syslib/cy_syslib.c **** *
 304:Generated_Source\PSoC6\pdl\drivers\peripheral\syslib/cy_syslib.c **** *******************************************************************************/
 305:Generated_Source\PSoC6\pdl\drivers\peripheral\syslib/cy_syslib.c **** void Cy_SysLib_SoftResetCM4(void)
 306:Generated_Source\PSoC6\pdl\drivers\peripheral\syslib/cy_syslib.c **** {
 342              		.loc 1 306 0
 343              		.cfi_startproc
 344              		@ args = 0, pretend = 0, frame = 0
 345              		@ frame_needed = 0, uses_anonymous_args = 0
 346 0000 10B5     		push	{r4, lr}
 347              		.cfi_def_cfa_offset 8
 348              		.cfi_offset 4, -8
 349              		.cfi_offset 14, -4
 350              	.LVL17:
 351              	.LBB14:
 352              	.LBB15:
 353              		.file 2 "Generated_Source\\PSoC6\\pdl\\drivers/peripheral/ipc/cy_ipc_drv.h"
   1:Generated_Source\PSoC6\pdl\drivers/peripheral/ipc/cy_ipc_drv.h **** /***************************************************************************//**
   2:Generated_Source\PSoC6\pdl\drivers/peripheral/ipc/cy_ipc_drv.h **** * \file cy_ipc_drv.h
   3:Generated_Source\PSoC6\pdl\drivers/peripheral/ipc/cy_ipc_drv.h **** * \version 1.30
   4:Generated_Source\PSoC6\pdl\drivers/peripheral/ipc/cy_ipc_drv.h **** *
   5:Generated_Source\PSoC6\pdl\drivers/peripheral/ipc/cy_ipc_drv.h **** * Provides an API declaration of the IPC driver.
   6:Generated_Source\PSoC6\pdl\drivers/peripheral/ipc/cy_ipc_drv.h **** *
   7:Generated_Source\PSoC6\pdl\drivers/peripheral/ipc/cy_ipc_drv.h **** ********************************************************************************
   8:Generated_Source\PSoC6\pdl\drivers/peripheral/ipc/cy_ipc_drv.h **** * \copyright
   9:Generated_Source\PSoC6\pdl\drivers/peripheral/ipc/cy_ipc_drv.h **** * Copyright 2016-2018, Cypress Semiconductor Corporation. All rights reserved.
  10:Generated_Source\PSoC6\pdl\drivers/peripheral/ipc/cy_ipc_drv.h **** * You may use this file only in accordance with the license, terms, conditions,
  11:Generated_Source\PSoC6\pdl\drivers/peripheral/ipc/cy_ipc_drv.h **** * disclaimers, and limitations in the end user license agreement accompanying
  12:Generated_Source\PSoC6\pdl\drivers/peripheral/ipc/cy_ipc_drv.h **** * the software package with which this file was provided.
  13:Generated_Source\PSoC6\pdl\drivers/peripheral/ipc/cy_ipc_drv.h **** *******************************************************************************/
  14:Generated_Source\PSoC6\pdl\drivers/peripheral/ipc/cy_ipc_drv.h **** 
  15:Generated_Source\PSoC6\pdl\drivers/peripheral/ipc/cy_ipc_drv.h **** #ifndef CY_IPC_DRV_H
  16:Generated_Source\PSoC6\pdl\drivers/peripheral/ipc/cy_ipc_drv.h **** #define CY_IPC_DRV_H
  17:Generated_Source\PSoC6\pdl\drivers/peripheral/ipc/cy_ipc_drv.h **** 
  18:Generated_Source\PSoC6\pdl\drivers/peripheral/ipc/cy_ipc_drv.h **** 
  19:Generated_Source\PSoC6\pdl\drivers/peripheral/ipc/cy_ipc_drv.h **** /**
  20:Generated_Source\PSoC6\pdl\drivers/peripheral/ipc/cy_ipc_drv.h **** * \addtogroup group_ipc
  21:Generated_Source\PSoC6\pdl\drivers/peripheral/ipc/cy_ipc_drv.h **** * \{
  22:Generated_Source\PSoC6\pdl\drivers/peripheral/ipc/cy_ipc_drv.h **** * The inter-processor communication (IPC) driver provides a safe and reliable
  23:Generated_Source\PSoC6\pdl\drivers/peripheral/ipc/cy_ipc_drv.h **** * method to transfer data between CPUs. Hardware locking ensures that only one
  24:Generated_Source\PSoC6\pdl\drivers/peripheral/ipc/cy_ipc_drv.h **** * device can acquire and transfer data at a time so no data is lost or
ARM GAS  C:\Users\Rolf\AppData\Local\Temp\ccTwK7ru.s 			page 13


  25:Generated_Source\PSoC6\pdl\drivers/peripheral/ipc/cy_ipc_drv.h **** * overwritten by asynchronous processes or CPUs.
  26:Generated_Source\PSoC6\pdl\drivers/peripheral/ipc/cy_ipc_drv.h **** *
  27:Generated_Source\PSoC6\pdl\drivers/peripheral/ipc/cy_ipc_drv.h **** * Include either cy_ipc_pipe.h or cy_ipc_sema.h. Alternatively include cy_pdl.h 
  28:Generated_Source\PSoC6\pdl\drivers/peripheral/ipc/cy_ipc_drv.h **** * (ModusToolbox only) to get access to all functions and declarations in the PDL.
  29:Generated_Source\PSoC6\pdl\drivers/peripheral/ipc/cy_ipc_drv.h **** *
  30:Generated_Source\PSoC6\pdl\drivers/peripheral/ipc/cy_ipc_drv.h **** * There are three parts to the API:
  31:Generated_Source\PSoC6\pdl\drivers/peripheral/ipc/cy_ipc_drv.h **** *     - Driver-level (DRV) API - used internally by Semaphore and Pipe levels
  32:Generated_Source\PSoC6\pdl\drivers/peripheral/ipc/cy_ipc_drv.h **** *     - Pipe-level (PIPE) API - establishes a communication channel between
  33:Generated_Source\PSoC6\pdl\drivers/peripheral/ipc/cy_ipc_drv.h **** *       processors
  34:Generated_Source\PSoC6\pdl\drivers/peripheral/ipc/cy_ipc_drv.h **** *     - Semaphore-level (SEMA) API - enables users to set and clear flags to
  35:Generated_Source\PSoC6\pdl\drivers/peripheral/ipc/cy_ipc_drv.h **** *       synchronize operations.
  36:Generated_Source\PSoC6\pdl\drivers/peripheral/ipc/cy_ipc_drv.h **** *
  37:Generated_Source\PSoC6\pdl\drivers/peripheral/ipc/cy_ipc_drv.h **** * Firmware does not need to use the DRV API. It can implement IPC functionality
  38:Generated_Source\PSoC6\pdl\drivers/peripheral/ipc/cy_ipc_drv.h **** * entirely with the PIPE and SEMA APIs.
  39:Generated_Source\PSoC6\pdl\drivers/peripheral/ipc/cy_ipc_drv.h **** *
  40:Generated_Source\PSoC6\pdl\drivers/peripheral/ipc/cy_ipc_drv.h **** * \section group_ipc_background Background
  41:Generated_Source\PSoC6\pdl\drivers/peripheral/ipc/cy_ipc_drv.h **** *
  42:Generated_Source\PSoC6\pdl\drivers/peripheral/ipc/cy_ipc_drv.h **** * IPC is implemented in hardware as a collection of individual communication
  43:Generated_Source\PSoC6\pdl\drivers/peripheral/ipc/cy_ipc_drv.h **** * channels, each with a set of 32-bit registers. The IPC design implements a set
  44:Generated_Source\PSoC6\pdl\drivers/peripheral/ipc/cy_ipc_drv.h **** * of interrupts that enable each processor to notify the other that data is
  45:Generated_Source\PSoC6\pdl\drivers/peripheral/ipc/cy_ipc_drv.h **** * available, or has been processed. There is also a locking mechanism that
  46:Generated_Source\PSoC6\pdl\drivers/peripheral/ipc/cy_ipc_drv.h **** * allows only one CPU to gain access at a time.
  47:Generated_Source\PSoC6\pdl\drivers/peripheral/ipc/cy_ipc_drv.h **** *
  48:Generated_Source\PSoC6\pdl\drivers/peripheral/ipc/cy_ipc_drv.h **** * The Driver-level API manages each channel's registers to implement IPC
  49:Generated_Source\PSoC6\pdl\drivers/peripheral/ipc/cy_ipc_drv.h **** * functionality. For information on the IPC registers, see the IPC chapter of
  50:Generated_Source\PSoC6\pdl\drivers/peripheral/ipc/cy_ipc_drv.h **** * the Technical Reference Manual (TRM).
  51:Generated_Source\PSoC6\pdl\drivers/peripheral/ipc/cy_ipc_drv.h **** *
  52:Generated_Source\PSoC6\pdl\drivers/peripheral/ipc/cy_ipc_drv.h **** * At the hardware level, communication is a five-step process.
  53:Generated_Source\PSoC6\pdl\drivers/peripheral/ipc/cy_ipc_drv.h **** *     -#  The sending processor acquires a channel
  54:Generated_Source\PSoC6\pdl\drivers/peripheral/ipc/cy_ipc_drv.h **** *     -#  It puts data into the channel
  55:Generated_Source\PSoC6\pdl\drivers/peripheral/ipc/cy_ipc_drv.h **** *     -#  The sender generates a notify event (interrupt)
  56:Generated_Source\PSoC6\pdl\drivers/peripheral/ipc/cy_ipc_drv.h **** *     -#  The receiving processor identifies the sender and retrieves the data
  57:Generated_Source\PSoC6\pdl\drivers/peripheral/ipc/cy_ipc_drv.h **** *     -#  The receiving processor generates a release event (interrupt)
  58:Generated_Source\PSoC6\pdl\drivers/peripheral/ipc/cy_ipc_drv.h **** *
  59:Generated_Source\PSoC6\pdl\drivers/peripheral/ipc/cy_ipc_drv.h **** * \image html ipc_driver.png
  60:Generated_Source\PSoC6\pdl\drivers/peripheral/ipc/cy_ipc_drv.h **** *
  61:Generated_Source\PSoC6\pdl\drivers/peripheral/ipc/cy_ipc_drv.h **** * These transactions are handled transparently by the DRV-level API. Use the
  62:Generated_Source\PSoC6\pdl\drivers/peripheral/ipc/cy_ipc_drv.h **** * PIPE and SEMA layers of the API to implement communication in your application.
  63:Generated_Source\PSoC6\pdl\drivers/peripheral/ipc/cy_ipc_drv.h **** * The data transferred is limited to a single 32-bit value. As implemented by
  64:Generated_Source\PSoC6\pdl\drivers/peripheral/ipc/cy_ipc_drv.h **** * the PIPE API, that value is a pointer to a data structure of arbitrary size
  65:Generated_Source\PSoC6\pdl\drivers/peripheral/ipc/cy_ipc_drv.h **** * and complexity.
  66:Generated_Source\PSoC6\pdl\drivers/peripheral/ipc/cy_ipc_drv.h **** *
  67:Generated_Source\PSoC6\pdl\drivers/peripheral/ipc/cy_ipc_drv.h **** * \section group_ipc_overview Overview
  68:Generated_Source\PSoC6\pdl\drivers/peripheral/ipc/cy_ipc_drv.h **** *
  69:Generated_Source\PSoC6\pdl\drivers/peripheral/ipc/cy_ipc_drv.h **** * The Pipe is the key element in the PDL design. A pipe is typically a
  70:Generated_Source\PSoC6\pdl\drivers/peripheral/ipc/cy_ipc_drv.h **** * full-duplex communication channel between CPU cores. A pipe allows a single
  71:Generated_Source\PSoC6\pdl\drivers/peripheral/ipc/cy_ipc_drv.h **** * conduit to transfer messages or data to and from multiple processes or CPUs.
  72:Generated_Source\PSoC6\pdl\drivers/peripheral/ipc/cy_ipc_drv.h **** *
  73:Generated_Source\PSoC6\pdl\drivers/peripheral/ipc/cy_ipc_drv.h **** * A pipe has two endpoints, one on each core. Each endpoint contains a dedicated
  74:Generated_Source\PSoC6\pdl\drivers/peripheral/ipc/cy_ipc_drv.h **** * IPC channel and an interrupt. IPC channels 0-7 and IPC interrupts 0-7 are
  75:Generated_Source\PSoC6\pdl\drivers/peripheral/ipc/cy_ipc_drv.h **** * reserved for system use.
  76:Generated_Source\PSoC6\pdl\drivers/peripheral/ipc/cy_ipc_drv.h **** *
  77:Generated_Source\PSoC6\pdl\drivers/peripheral/ipc/cy_ipc_drv.h **** * The pipe also contains the number of clients it supports, and for each client
  78:Generated_Source\PSoC6\pdl\drivers/peripheral/ipc/cy_ipc_drv.h **** * a callback function. So the pipe can service a number of clients, each with a
  79:Generated_Source\PSoC6\pdl\drivers/peripheral/ipc/cy_ipc_drv.h **** * separate callback function, on either endpoint. The number of clients a pipe
  80:Generated_Source\PSoC6\pdl\drivers/peripheral/ipc/cy_ipc_drv.h **** * supports is the sum of each endpoint's clients.
  81:Generated_Source\PSoC6\pdl\drivers/peripheral/ipc/cy_ipc_drv.h **** *
ARM GAS  C:\Users\Rolf\AppData\Local\Temp\ccTwK7ru.s 			page 14


  82:Generated_Source\PSoC6\pdl\drivers/peripheral/ipc/cy_ipc_drv.h **** * This design enables any number of processes on the sending core to put
  83:Generated_Source\PSoC6\pdl\drivers/peripheral/ipc/cy_ipc_drv.h **** * arbitrary data into a single pipe. The first element of that data is the
  84:Generated_Source\PSoC6\pdl\drivers/peripheral/ipc/cy_ipc_drv.h **** * client ID of the client that should handle the data.
  85:Generated_Source\PSoC6\pdl\drivers/peripheral/ipc/cy_ipc_drv.h **** *
  86:Generated_Source\PSoC6\pdl\drivers/peripheral/ipc/cy_ipc_drv.h **** * An interrupt notifies the receiving core that data is available. The receiving
  87:Generated_Source\PSoC6\pdl\drivers/peripheral/ipc/cy_ipc_drv.h **** * core parses the data to identify the client, and then dispatches the event to
  88:Generated_Source\PSoC6\pdl\drivers/peripheral/ipc/cy_ipc_drv.h **** * the appropriate client via the client callback function. An interrupt notifies
  89:Generated_Source\PSoC6\pdl\drivers/peripheral/ipc/cy_ipc_drv.h **** * the sending core that the receiver is finished. In this way a single pipe can
  90:Generated_Source\PSoC6\pdl\drivers/peripheral/ipc/cy_ipc_drv.h **** * manage arbitrary data transfers between cores with data flowing in either
  91:Generated_Source\PSoC6\pdl\drivers/peripheral/ipc/cy_ipc_drv.h **** * direction.
  92:Generated_Source\PSoC6\pdl\drivers/peripheral/ipc/cy_ipc_drv.h **** *
  93:Generated_Source\PSoC6\pdl\drivers/peripheral/ipc/cy_ipc_drv.h **** * \image html ipc_ints.png
  94:Generated_Source\PSoC6\pdl\drivers/peripheral/ipc/cy_ipc_drv.h **** *
  95:Generated_Source\PSoC6\pdl\drivers/peripheral/ipc/cy_ipc_drv.h **** * The application can use semaphores to control access to shared resources, as
  96:Generated_Source\PSoC6\pdl\drivers/peripheral/ipc/cy_ipc_drv.h **** * required by the application's logic.
  97:Generated_Source\PSoC6\pdl\drivers/peripheral/ipc/cy_ipc_drv.h **** *
  98:Generated_Source\PSoC6\pdl\drivers/peripheral/ipc/cy_ipc_drv.h **** * The PDL provides specific files that set up default IPC functionality.
  99:Generated_Source\PSoC6\pdl\drivers/peripheral/ipc/cy_ipc_drv.h **** * They are system_psoc6.h, system_psoc6_cm0plus.c and system_psoc6_cm4.c. You 
 100:Generated_Source\PSoC6\pdl\drivers/peripheral/ipc/cy_ipc_drv.h **** * can modify these files based on the requirements of your design. 
 101:Generated_Source\PSoC6\pdl\drivers/peripheral/ipc/cy_ipc_drv.h **** * If you use PSoC Creator as a development environment, it will not overwrite 
 102:Generated_Source\PSoC6\pdl\drivers/peripheral/ipc/cy_ipc_drv.h **** * your changes when you generate the application or build your code.
 103:Generated_Source\PSoC6\pdl\drivers/peripheral/ipc/cy_ipc_drv.h **** *
 104:Generated_Source\PSoC6\pdl\drivers/peripheral/ipc/cy_ipc_drv.h **** * \section group_ipc_pipe_layer PIPE layer
 105:Generated_Source\PSoC6\pdl\drivers/peripheral/ipc/cy_ipc_drv.h **** *
 106:Generated_Source\PSoC6\pdl\drivers/peripheral/ipc/cy_ipc_drv.h **** * A pipe is a communication channel between two endpoints. PSoC 6 devices support
 107:Generated_Source\PSoC6\pdl\drivers/peripheral/ipc/cy_ipc_drv.h **** * 16 IPC channels, and 16 IPC interrupts, each numbered 0-15. IPC Channels 0-7
 108:Generated_Source\PSoC6\pdl\drivers/peripheral/ipc/cy_ipc_drv.h **** * and IPC interrupts 0-7 are reserved for system use. Channels 8-15 and
 109:Generated_Source\PSoC6\pdl\drivers/peripheral/ipc/cy_ipc_drv.h **** * interrupts 8-15 are available for application use.
 110:Generated_Source\PSoC6\pdl\drivers/peripheral/ipc/cy_ipc_drv.h **** *
 111:Generated_Source\PSoC6\pdl\drivers/peripheral/ipc/cy_ipc_drv.h **** * A full duplex pipe uses two IPC channels, one per endpoint. Each endpoint
 112:Generated_Source\PSoC6\pdl\drivers/peripheral/ipc/cy_ipc_drv.h **** * specifies all the information required to process a message (either sent or
 113:Generated_Source\PSoC6\pdl\drivers/peripheral/ipc/cy_ipc_drv.h **** * received). Each endpoint is configured to use an IPC channel, and an IPC
 114:Generated_Source\PSoC6\pdl\drivers/peripheral/ipc/cy_ipc_drv.h **** * interrupt. Common practice is to use the interrupt with the same number as
 115:Generated_Source\PSoC6\pdl\drivers/peripheral/ipc/cy_ipc_drv.h **** * the IPC channel. However, IPC Interrupts are not directly associated with the
 116:Generated_Source\PSoC6\pdl\drivers/peripheral/ipc/cy_ipc_drv.h **** * IPC channels, so any channel can use any interrupt.  Any IPC channel can
 117:Generated_Source\PSoC6\pdl\drivers/peripheral/ipc/cy_ipc_drv.h **** * trigger 0, 1 or all the IPC interrupts at once, depending on the Notify or
 118:Generated_Source\PSoC6\pdl\drivers/peripheral/ipc/cy_ipc_drv.h **** * Release masks used.
 119:Generated_Source\PSoC6\pdl\drivers/peripheral/ipc/cy_ipc_drv.h **** *
 120:Generated_Source\PSoC6\pdl\drivers/peripheral/ipc/cy_ipc_drv.h **** * It is also possible to set up a one-directional pipe, using a single IPC
 121:Generated_Source\PSoC6\pdl\drivers/peripheral/ipc/cy_ipc_drv.h **** * channel. In this design one processor is always the sender, and the other is
 122:Generated_Source\PSoC6\pdl\drivers/peripheral/ipc/cy_ipc_drv.h **** * always the receiver. However, there are still two endpoints.
 123:Generated_Source\PSoC6\pdl\drivers/peripheral/ipc/cy_ipc_drv.h **** *
 124:Generated_Source\PSoC6\pdl\drivers/peripheral/ipc/cy_ipc_drv.h **** * A pipe supports an arbitrary number of clients with an array of callback
 125:Generated_Source\PSoC6\pdl\drivers/peripheral/ipc/cy_ipc_drv.h **** * functions, one per client. The client ID is the index number into the array
 126:Generated_Source\PSoC6\pdl\drivers/peripheral/ipc/cy_ipc_drv.h **** * for the client. After a pipe is configured and initialized, the application
 127:Generated_Source\PSoC6\pdl\drivers/peripheral/ipc/cy_ipc_drv.h **** * calls Cy_IPC_Pipe_RegisterCallback() once per client to register each client's
 128:Generated_Source\PSoC6\pdl\drivers/peripheral/ipc/cy_ipc_drv.h **** * callback function. Multiple clients can use the same callback function. The
 129:Generated_Source\PSoC6\pdl\drivers/peripheral/ipc/cy_ipc_drv.h **** * endpoints in a pipe share the callback array.
 130:Generated_Source\PSoC6\pdl\drivers/peripheral/ipc/cy_ipc_drv.h **** *
 131:Generated_Source\PSoC6\pdl\drivers/peripheral/ipc/cy_ipc_drv.h **** * Use Cy_IPC_Pipe_SendMessage() to send data. You specify both the "to" and
 132:Generated_Source\PSoC6\pdl\drivers/peripheral/ipc/cy_ipc_drv.h **** * "from" endpoints, and a callback function to be used when the data transfer is
 133:Generated_Source\PSoC6\pdl\drivers/peripheral/ipc/cy_ipc_drv.h **** * complete. The data is a 32-bit void pointer. The data pointed to is arbitrary,
 134:Generated_Source\PSoC6\pdl\drivers/peripheral/ipc/cy_ipc_drv.h **** * and can be an array, a structure, or a location in memory. The only limitation
 135:Generated_Source\PSoC6\pdl\drivers/peripheral/ipc/cy_ipc_drv.h **** * is that the first element of the data must be a 32-bit unsigned word containing
 136:Generated_Source\PSoC6\pdl\drivers/peripheral/ipc/cy_ipc_drv.h **** * a client ID number. The ID number is the index into the callback array.
 137:Generated_Source\PSoC6\pdl\drivers/peripheral/ipc/cy_ipc_drv.h **** *
 138:Generated_Source\PSoC6\pdl\drivers/peripheral/ipc/cy_ipc_drv.h **** * When a message is sent, the receiving endpoint's interrupt handler is called.
ARM GAS  C:\Users\Rolf\AppData\Local\Temp\ccTwK7ru.s 			page 15


 139:Generated_Source\PSoC6\pdl\drivers/peripheral/ipc/cy_ipc_drv.h **** * The ISR can perform any task required by the design. However, as part of its
 140:Generated_Source\PSoC6\pdl\drivers/peripheral/ipc/cy_ipc_drv.h **** * function it calls \ref Cy_IPC_Pipe_ExecCallback. This function retrieves the
 141:Generated_Source\PSoC6\pdl\drivers/peripheral/ipc/cy_ipc_drv.h **** * client ID from the data and calls the associated callback function.
 142:Generated_Source\PSoC6\pdl\drivers/peripheral/ipc/cy_ipc_drv.h **** * The user-supplied callback function handles the data in whatever way is
 143:Generated_Source\PSoC6\pdl\drivers/peripheral/ipc/cy_ipc_drv.h **** * appropriate based on the application logic.
 144:Generated_Source\PSoC6\pdl\drivers/peripheral/ipc/cy_ipc_drv.h **** *
 145:Generated_Source\PSoC6\pdl\drivers/peripheral/ipc/cy_ipc_drv.h **** * After the callback function is returned by the receiver, it invokes the release
 146:Generated_Source\PSoC6\pdl\drivers/peripheral/ipc/cy_ipc_drv.h **** * callback function defined by the sender of the message.
 147:Generated_Source\PSoC6\pdl\drivers/peripheral/ipc/cy_ipc_drv.h **** *
 148:Generated_Source\PSoC6\pdl\drivers/peripheral/ipc/cy_ipc_drv.h **** * \section group_ipc_sema_layer SEMA Layer
 149:Generated_Source\PSoC6\pdl\drivers/peripheral/ipc/cy_ipc_drv.h **** *
 150:Generated_Source\PSoC6\pdl\drivers/peripheral/ipc/cy_ipc_drv.h **** * A semaphore is a flag the application uses to control access to a shared
 151:Generated_Source\PSoC6\pdl\drivers/peripheral/ipc/cy_ipc_drv.h **** * resource. The SEMA-level API uses an IPC channel to implement
 152:Generated_Source\PSoC6\pdl\drivers/peripheral/ipc/cy_ipc_drv.h **** * semaphores. Startup code sets up a default semaphore system. The
 153:Generated_Source\PSoC6\pdl\drivers/peripheral/ipc/cy_ipc_drv.h **** * default system creates an array of 128 semaphores (four 32-bit values).
 154:Generated_Source\PSoC6\pdl\drivers/peripheral/ipc/cy_ipc_drv.h **** * Semaphores 0-15 are reserved for system use. See
 155:Generated_Source\PSoC6\pdl\drivers/peripheral/ipc/cy_ipc_drv.h **** * Configuration Considerations - SEMA.
 156:Generated_Source\PSoC6\pdl\drivers/peripheral/ipc/cy_ipc_drv.h **** *
 157:Generated_Source\PSoC6\pdl\drivers/peripheral/ipc/cy_ipc_drv.h **** * Functions are available to initialize the semaphore system, to set or
 158:Generated_Source\PSoC6\pdl\drivers/peripheral/ipc/cy_ipc_drv.h **** * clear a semaphore, or to get the semaphore's current status. Application
 159:Generated_Source\PSoC6\pdl\drivers/peripheral/ipc/cy_ipc_drv.h **** * logic uses SEMA functions to relate a particular semaphore to a particular
 160:Generated_Source\PSoC6\pdl\drivers/peripheral/ipc/cy_ipc_drv.h **** * shared resource, and set, clear, or check the flag when accessing the
 161:Generated_Source\PSoC6\pdl\drivers/peripheral/ipc/cy_ipc_drv.h **** * shared resource.
 162:Generated_Source\PSoC6\pdl\drivers/peripheral/ipc/cy_ipc_drv.h **** *
 163:Generated_Source\PSoC6\pdl\drivers/peripheral/ipc/cy_ipc_drv.h **** * \section group_ipc_configuration_cypipe Configuration Considerations - CYPIPE
 164:Generated_Source\PSoC6\pdl\drivers/peripheral/ipc/cy_ipc_drv.h **** *
 165:Generated_Source\PSoC6\pdl\drivers/peripheral/ipc/cy_ipc_drv.h **** * There are none. The startup files set up the required CYPIPE for system
 166:Generated_Source\PSoC6\pdl\drivers/peripheral/ipc/cy_ipc_drv.h **** * use. Do not modify the CYPIPE. It uses IPC channels 5 and 6 to implement full
 167:Generated_Source\PSoC6\pdl\drivers/peripheral/ipc/cy_ipc_drv.h **** * duplex communication between cores. See System Interrupt (SysInt) for background.
 168:Generated_Source\PSoC6\pdl\drivers/peripheral/ipc/cy_ipc_drv.h **** *
 169:Generated_Source\PSoC6\pdl\drivers/peripheral/ipc/cy_ipc_drv.h **** * To create your own pipe (<b>USRPIPE</b>) you should edit startup files
 170:Generated_Source\PSoC6\pdl\drivers/peripheral/ipc/cy_ipc_drv.h **** * and take 4 steps:
 171:Generated_Source\PSoC6\pdl\drivers/peripheral/ipc/cy_ipc_drv.h **** *   -# Define a pipe callbacks processing interrupt handler
 172:Generated_Source\PSoC6\pdl\drivers/peripheral/ipc/cy_ipc_drv.h **** *      (similar to <b>Cy_SysIpcPipeIsrCm0</b> or <b>Cy_SysIpcPipeIsrCm4</b>)
 173:Generated_Source\PSoC6\pdl\drivers/peripheral/ipc/cy_ipc_drv.h **** *   -# Define a callbacks array (similar to <b>systemIpcPipeSysCbArray</b>)
 174:Generated_Source\PSoC6\pdl\drivers/peripheral/ipc/cy_ipc_drv.h **** *   -# Define your pipe configuration with a cy_stc_ipc_pipe_config_t type structure
 175:Generated_Source\PSoC6\pdl\drivers/peripheral/ipc/cy_ipc_drv.h **** *      (similar to <b>systemIpcPipeConfigCm0</b> and <b>systemIpcPipeConfigCm4</b>)
 176:Generated_Source\PSoC6\pdl\drivers/peripheral/ipc/cy_ipc_drv.h **** *   -# Call Cy_IPC_Pipe_Init() from each core to initialize your pipe (similar
 177:Generated_Source\PSoC6\pdl\drivers/peripheral/ipc/cy_ipc_drv.h **** *      to call in the <b>SystemInit</b>)
 178:Generated_Source\PSoC6\pdl\drivers/peripheral/ipc/cy_ipc_drv.h **** *
 179:Generated_Source\PSoC6\pdl\drivers/peripheral/ipc/cy_ipc_drv.h **** * \section group_ipc_configuration_sema Configuration Considerations - SEMA
 180:Generated_Source\PSoC6\pdl\drivers/peripheral/ipc/cy_ipc_drv.h **** *
 181:Generated_Source\PSoC6\pdl\drivers/peripheral/ipc/cy_ipc_drv.h **** * Startup code calls Cy_IPC_Sema_Init() with default values to set up semaphore 
 182:Generated_Source\PSoC6\pdl\drivers/peripheral/ipc/cy_ipc_drv.h **** * functionality. By default the semaphore system uses IPC channel 4, and 
 183:Generated_Source\PSoC6\pdl\drivers/peripheral/ipc/cy_ipc_drv.h **** * creates 128 semaphores. Do <b>not</b> change the IPC channel. 
 184:Generated_Source\PSoC6\pdl\drivers/peripheral/ipc/cy_ipc_drv.h **** * You can change the number of semaphores.
 185:Generated_Source\PSoC6\pdl\drivers/peripheral/ipc/cy_ipc_drv.h **** *
 186:Generated_Source\PSoC6\pdl\drivers/peripheral/ipc/cy_ipc_drv.h **** * To change the number of semaphores, modify this line of code in system_psoc6.h.
 187:Generated_Source\PSoC6\pdl\drivers/peripheral/ipc/cy_ipc_drv.h **** *
 188:Generated_Source\PSoC6\pdl\drivers/peripheral/ipc/cy_ipc_drv.h **** * \code
 189:Generated_Source\PSoC6\pdl\drivers/peripheral/ipc/cy_ipc_drv.h **** * #define CY_IPC_SEMA_COUNT               (uint32_t)(128u)
 190:Generated_Source\PSoC6\pdl\drivers/peripheral/ipc/cy_ipc_drv.h **** * \endcode
 191:Generated_Source\PSoC6\pdl\drivers/peripheral/ipc/cy_ipc_drv.h **** *
 192:Generated_Source\PSoC6\pdl\drivers/peripheral/ipc/cy_ipc_drv.h **** * Startup also declares array ipcSemaArray to hold the semaphore
 193:Generated_Source\PSoC6\pdl\drivers/peripheral/ipc/cy_ipc_drv.h **** * flags based on the size defined for this symbol. Use increments of 32. You
 194:Generated_Source\PSoC6\pdl\drivers/peripheral/ipc/cy_ipc_drv.h **** * must have at least 32 semaphores. Semaphores 0-15 are reserved for
 195:Generated_Source\PSoC6\pdl\drivers/peripheral/ipc/cy_ipc_drv.h **** * system use. Your application can use semaphores greater than 15.
ARM GAS  C:\Users\Rolf\AppData\Local\Temp\ccTwK7ru.s 			page 16


 196:Generated_Source\PSoC6\pdl\drivers/peripheral/ipc/cy_ipc_drv.h **** *
 197:Generated_Source\PSoC6\pdl\drivers/peripheral/ipc/cy_ipc_drv.h **** * \section group_ipc_more_information More Information
 198:Generated_Source\PSoC6\pdl\drivers/peripheral/ipc/cy_ipc_drv.h **** *
 199:Generated_Source\PSoC6\pdl\drivers/peripheral/ipc/cy_ipc_drv.h **** * If the default startup file is not used, or SystemInit() is not called in your 
 200:Generated_Source\PSoC6\pdl\drivers/peripheral/ipc/cy_ipc_drv.h **** * project, call the following three functions prior to executing any flash or 
 201:Generated_Source\PSoC6\pdl\drivers/peripheral/ipc/cy_ipc_drv.h **** * EmEEPROM write or erase operation:
 202:Generated_Source\PSoC6\pdl\drivers/peripheral/ipc/cy_ipc_drv.h **** *  -# Cy_IPC_Sema_Init()
 203:Generated_Source\PSoC6\pdl\drivers/peripheral/ipc/cy_ipc_drv.h **** *  -# Cy_IPC_Pipe_Config()
 204:Generated_Source\PSoC6\pdl\drivers/peripheral/ipc/cy_ipc_drv.h **** *  -# Cy_IPC_Pipe_Init()
 205:Generated_Source\PSoC6\pdl\drivers/peripheral/ipc/cy_ipc_drv.h **** *  -# Cy_Flash_Init()
 206:Generated_Source\PSoC6\pdl\drivers/peripheral/ipc/cy_ipc_drv.h **** *
 207:Generated_Source\PSoC6\pdl\drivers/peripheral/ipc/cy_ipc_drv.h **** * See the technical reference manual(TRM) for more information on the IPC.
 208:Generated_Source\PSoC6\pdl\drivers/peripheral/ipc/cy_ipc_drv.h **** *
 209:Generated_Source\PSoC6\pdl\drivers/peripheral/ipc/cy_ipc_drv.h **** * \section group_ipc_MISRA MISRA-C Compliance
 210:Generated_Source\PSoC6\pdl\drivers/peripheral/ipc/cy_ipc_drv.h **** *
 211:Generated_Source\PSoC6\pdl\drivers/peripheral/ipc/cy_ipc_drv.h **** * <table class="doxtable">
 212:Generated_Source\PSoC6\pdl\drivers/peripheral/ipc/cy_ipc_drv.h **** *   <tr>
 213:Generated_Source\PSoC6\pdl\drivers/peripheral/ipc/cy_ipc_drv.h **** *     <th>MISRA Rule</th>
 214:Generated_Source\PSoC6\pdl\drivers/peripheral/ipc/cy_ipc_drv.h **** *     <th>Rule Class (Required/Advisory)</th>
 215:Generated_Source\PSoC6\pdl\drivers/peripheral/ipc/cy_ipc_drv.h **** *     <th>Rule Description</th>
 216:Generated_Source\PSoC6\pdl\drivers/peripheral/ipc/cy_ipc_drv.h **** *     <th style="width: 50%;">Description of Deviation(s)</th>
 217:Generated_Source\PSoC6\pdl\drivers/peripheral/ipc/cy_ipc_drv.h **** *   </tr>
 218:Generated_Source\PSoC6\pdl\drivers/peripheral/ipc/cy_ipc_drv.h **** *   <tr>
 219:Generated_Source\PSoC6\pdl\drivers/peripheral/ipc/cy_ipc_drv.h **** *     <td>10.3</td>
 220:Generated_Source\PSoC6\pdl\drivers/peripheral/ipc/cy_ipc_drv.h **** *     <td>R</td>
 221:Generated_Source\PSoC6\pdl\drivers/peripheral/ipc/cy_ipc_drv.h **** *     <td>The value of a complex expression of integer type shall be cast
 222:Generated_Source\PSoC6\pdl\drivers/peripheral/ipc/cy_ipc_drv.h **** *         only to a type of the same signedness that is no wider than the underlying
 223:Generated_Source\PSoC6\pdl\drivers/peripheral/ipc/cy_ipc_drv.h **** *         type of the expression.</td>
 224:Generated_Source\PSoC6\pdl\drivers/peripheral/ipc/cy_ipc_drv.h **** *     <td>The cast from integer to enumeration value is used to calculate
 225:Generated_Source\PSoC6\pdl\drivers/peripheral/ipc/cy_ipc_drv.h **** *         the interrupt vector source from the integer number of the IPC interrupt
 226:Generated_Source\PSoC6\pdl\drivers/peripheral/ipc/cy_ipc_drv.h **** *         structure, so there is no way to avoid this cast.</td>
 227:Generated_Source\PSoC6\pdl\drivers/peripheral/ipc/cy_ipc_drv.h **** *   </tr>
 228:Generated_Source\PSoC6\pdl\drivers/peripheral/ipc/cy_ipc_drv.h **** *   <tr>
 229:Generated_Source\PSoC6\pdl\drivers/peripheral/ipc/cy_ipc_drv.h **** *     <td>11.4</td>
 230:Generated_Source\PSoC6\pdl\drivers/peripheral/ipc/cy_ipc_drv.h **** *     <td>A</td>
 231:Generated_Source\PSoC6\pdl\drivers/peripheral/ipc/cy_ipc_drv.h **** *     <td>A cast should not be performed between a pointer to the void to a
 232:Generated_Source\PSoC6\pdl\drivers/peripheral/ipc/cy_ipc_drv.h **** *         pointer to the object type.</td>
 233:Generated_Source\PSoC6\pdl\drivers/peripheral/ipc/cy_ipc_drv.h **** *     <td>The cast from the void to pointer and vice versa is used to transmit
 234:Generated_Source\PSoC6\pdl\drivers/peripheral/ipc/cy_ipc_drv.h **** *         data via the \ref group_ipc channel by exchanging the pointer. We
 235:Generated_Source\PSoC6\pdl\drivers/peripheral/ipc/cy_ipc_drv.h **** *         exchange only one pointer, so there is no way to avoid this cast.</td>
 236:Generated_Source\PSoC6\pdl\drivers/peripheral/ipc/cy_ipc_drv.h **** *   </tr>
 237:Generated_Source\PSoC6\pdl\drivers/peripheral/ipc/cy_ipc_drv.h **** * </table>
 238:Generated_Source\PSoC6\pdl\drivers/peripheral/ipc/cy_ipc_drv.h **** *
 239:Generated_Source\PSoC6\pdl\drivers/peripheral/ipc/cy_ipc_drv.h **** * \section group_ipc_changelog Changelog
 240:Generated_Source\PSoC6\pdl\drivers/peripheral/ipc/cy_ipc_drv.h **** *
 241:Generated_Source\PSoC6\pdl\drivers/peripheral/ipc/cy_ipc_drv.h **** * <table class="doxtable">
 242:Generated_Source\PSoC6\pdl\drivers/peripheral/ipc/cy_ipc_drv.h **** *   <tr><th>Version</th><th>Changes</th><th>Reason for Change</th></tr>
 243:Generated_Source\PSoC6\pdl\drivers/peripheral/ipc/cy_ipc_drv.h **** *   <tr>
 244:Generated_Source\PSoC6\pdl\drivers/peripheral/ipc/cy_ipc_drv.h **** *     <td rowspan="3">1.30</td>
 245:Generated_Source\PSoC6\pdl\drivers/peripheral/ipc/cy_ipc_drv.h **** *     <td>Flattened the organization of the driver source code into the single source directory and
 246:Generated_Source\PSoC6\pdl\drivers/peripheral/ipc/cy_ipc_drv.h **** *     <td>Driver library directory-structure simplification.</td>
 247:Generated_Source\PSoC6\pdl\drivers/peripheral/ipc/cy_ipc_drv.h **** *   </tr>
 248:Generated_Source\PSoC6\pdl\drivers/peripheral/ipc/cy_ipc_drv.h **** *   <tr>
 249:Generated_Source\PSoC6\pdl\drivers/peripheral/ipc/cy_ipc_drv.h **** *     <td>Moved the Cy_IPC_SystemSemaInit(), Cy_IPC_SystemPipeInit() functions implementation from 
 250:Generated_Source\PSoC6\pdl\drivers/peripheral/ipc/cy_ipc_drv.h **** *     <td>Changed IPC driver configuration method from compile time to run time.</td>
 251:Generated_Source\PSoC6\pdl\drivers/peripheral/ipc/cy_ipc_drv.h **** *   </tr>
 252:Generated_Source\PSoC6\pdl\drivers/peripheral/ipc/cy_ipc_drv.h **** *   <tr>
ARM GAS  C:\Users\Rolf\AppData\Local\Temp\ccTwK7ru.s 			page 17


 253:Generated_Source\PSoC6\pdl\drivers/peripheral/ipc/cy_ipc_drv.h **** *     <td>Added register access layer. Use register access macros instead
 254:Generated_Source\PSoC6\pdl\drivers/peripheral/ipc/cy_ipc_drv.h **** *         of direct register access using dereferenced pointers.</td>
 255:Generated_Source\PSoC6\pdl\drivers/peripheral/ipc/cy_ipc_drv.h **** *     <td>Makes register access device-independent, so that the PDL does 
 256:Generated_Source\PSoC6\pdl\drivers/peripheral/ipc/cy_ipc_drv.h **** *         not need to be recompiled for each supported part number.</td>
 257:Generated_Source\PSoC6\pdl\drivers/peripheral/ipc/cy_ipc_drv.h **** *   </tr>
 258:Generated_Source\PSoC6\pdl\drivers/peripheral/ipc/cy_ipc_drv.h **** *   <tr>
 259:Generated_Source\PSoC6\pdl\drivers/peripheral/ipc/cy_ipc_drv.h **** *     <td>1.20</td>
 260:Generated_Source\PSoC6\pdl\drivers/peripheral/ipc/cy_ipc_drv.h **** *     <td>Added \ref Cy_IPC_Pipe_ExecuteCallback function.
 261:Generated_Source\PSoC6\pdl\drivers/peripheral/ipc/cy_ipc_drv.h **** *         Updated documentation about user pipe initialization.
 262:Generated_Source\PSoC6\pdl\drivers/peripheral/ipc/cy_ipc_drv.h **** *     </td>
 263:Generated_Source\PSoC6\pdl\drivers/peripheral/ipc/cy_ipc_drv.h **** *     <td>Interface improvement, documentation update</td>
 264:Generated_Source\PSoC6\pdl\drivers/peripheral/ipc/cy_ipc_drv.h **** *   </tr>
 265:Generated_Source\PSoC6\pdl\drivers/peripheral/ipc/cy_ipc_drv.h **** *   <tr>
 266:Generated_Source\PSoC6\pdl\drivers/peripheral/ipc/cy_ipc_drv.h **** *     <td>1.10.1</td>
 267:Generated_Source\PSoC6\pdl\drivers/peripheral/ipc/cy_ipc_drv.h **** *     <td>Updated description of the \ref Cy_IPC_Pipe_Init,
 268:Generated_Source\PSoC6\pdl\drivers/peripheral/ipc/cy_ipc_drv.h **** *         \ref Cy_IPC_Pipe_EndpointInit, \ref Cy_IPC_Sema_Set functions.
 269:Generated_Source\PSoC6\pdl\drivers/peripheral/ipc/cy_ipc_drv.h **** *         Added / updated code snippets.
 270:Generated_Source\PSoC6\pdl\drivers/peripheral/ipc/cy_ipc_drv.h **** *     </td>
 271:Generated_Source\PSoC6\pdl\drivers/peripheral/ipc/cy_ipc_drv.h **** *     <td>Documentation update and clarification</td>
 272:Generated_Source\PSoC6\pdl\drivers/peripheral/ipc/cy_ipc_drv.h **** *   </tr>
 273:Generated_Source\PSoC6\pdl\drivers/peripheral/ipc/cy_ipc_drv.h **** *   <tr>
 274:Generated_Source\PSoC6\pdl\drivers/peripheral/ipc/cy_ipc_drv.h **** *     <td>1.10</td>
 275:Generated_Source\PSoC6\pdl\drivers/peripheral/ipc/cy_ipc_drv.h **** *     <td>Added support for more IPC structures</td>
 276:Generated_Source\PSoC6\pdl\drivers/peripheral/ipc/cy_ipc_drv.h **** *     <td>New device support</td>
 277:Generated_Source\PSoC6\pdl\drivers/peripheral/ipc/cy_ipc_drv.h **** *   </tr>
 278:Generated_Source\PSoC6\pdl\drivers/peripheral/ipc/cy_ipc_drv.h **** *   <tr>
 279:Generated_Source\PSoC6\pdl\drivers/peripheral/ipc/cy_ipc_drv.h **** *     <td>1.0</td>
 280:Generated_Source\PSoC6\pdl\drivers/peripheral/ipc/cy_ipc_drv.h **** *     <td>Initial version</td>
 281:Generated_Source\PSoC6\pdl\drivers/peripheral/ipc/cy_ipc_drv.h **** *     <td></td>
 282:Generated_Source\PSoC6\pdl\drivers/peripheral/ipc/cy_ipc_drv.h **** *   </tr>
 283:Generated_Source\PSoC6\pdl\drivers/peripheral/ipc/cy_ipc_drv.h **** * </table>
 284:Generated_Source\PSoC6\pdl\drivers/peripheral/ipc/cy_ipc_drv.h **** *
 285:Generated_Source\PSoC6\pdl\drivers/peripheral/ipc/cy_ipc_drv.h **** * \defgroup group_ipc_drv IPC driver layer (IPC_DRV)
 286:Generated_Source\PSoC6\pdl\drivers/peripheral/ipc/cy_ipc_drv.h **** * \{
 287:Generated_Source\PSoC6\pdl\drivers/peripheral/ipc/cy_ipc_drv.h **** *   The functions of this layer are used in the higher IPC levels
 288:Generated_Source\PSoC6\pdl\drivers/peripheral/ipc/cy_ipc_drv.h **** *   (Semaphores and Pipes).
 289:Generated_Source\PSoC6\pdl\drivers/peripheral/ipc/cy_ipc_drv.h **** *   Users are not expected to call any of these IPC functions directly (cy_ipc_drv.h). 
 290:Generated_Source\PSoC6\pdl\drivers/peripheral/ipc/cy_ipc_drv.h **** *   Instead include either of cy_ipc_sema.h or cy_ipc_pipe.h. 
 291:Generated_Source\PSoC6\pdl\drivers/peripheral/ipc/cy_ipc_drv.h **** *   Alternatively include cy_pdl.h to get access to all functions and declarations in the PDL.
 292:Generated_Source\PSoC6\pdl\drivers/peripheral/ipc/cy_ipc_drv.h **** *
 293:Generated_Source\PSoC6\pdl\drivers/peripheral/ipc/cy_ipc_drv.h **** *   \defgroup group_ipc_macros Macros
 294:Generated_Source\PSoC6\pdl\drivers/peripheral/ipc/cy_ipc_drv.h **** *       Macro definitions are used in the driver
 295:Generated_Source\PSoC6\pdl\drivers/peripheral/ipc/cy_ipc_drv.h **** *
 296:Generated_Source\PSoC6\pdl\drivers/peripheral/ipc/cy_ipc_drv.h **** *   \defgroup group_ipc_functions Functions
 297:Generated_Source\PSoC6\pdl\drivers/peripheral/ipc/cy_ipc_drv.h **** *       Functions are used in the driver
 298:Generated_Source\PSoC6\pdl\drivers/peripheral/ipc/cy_ipc_drv.h **** *
 299:Generated_Source\PSoC6\pdl\drivers/peripheral/ipc/cy_ipc_drv.h **** *   \defgroup group_ipc_data_structures Data Structures
 300:Generated_Source\PSoC6\pdl\drivers/peripheral/ipc/cy_ipc_drv.h **** *       Data structures are used in the driver
 301:Generated_Source\PSoC6\pdl\drivers/peripheral/ipc/cy_ipc_drv.h **** *
 302:Generated_Source\PSoC6\pdl\drivers/peripheral/ipc/cy_ipc_drv.h **** *   \defgroup group_ipc_enums Enumerated Types
 303:Generated_Source\PSoC6\pdl\drivers/peripheral/ipc/cy_ipc_drv.h **** *       Enumerations are used in the driver
 304:Generated_Source\PSoC6\pdl\drivers/peripheral/ipc/cy_ipc_drv.h **** * \}
 305:Generated_Source\PSoC6\pdl\drivers/peripheral/ipc/cy_ipc_drv.h **** *
 306:Generated_Source\PSoC6\pdl\drivers/peripheral/ipc/cy_ipc_drv.h **** * \defgroup group_ipc_sema IPC semaphores layer (IPC_SEMA)
 307:Generated_Source\PSoC6\pdl\drivers/peripheral/ipc/cy_ipc_drv.h **** * \defgroup group_ipc_pipe IPC pipes layer (IPC_PIPE)
 308:Generated_Source\PSoC6\pdl\drivers/peripheral/ipc/cy_ipc_drv.h **** *
 309:Generated_Source\PSoC6\pdl\drivers/peripheral/ipc/cy_ipc_drv.h **** */
ARM GAS  C:\Users\Rolf\AppData\Local\Temp\ccTwK7ru.s 			page 18


 310:Generated_Source\PSoC6\pdl\drivers/peripheral/ipc/cy_ipc_drv.h **** 
 311:Generated_Source\PSoC6\pdl\drivers/peripheral/ipc/cy_ipc_drv.h **** 
 312:Generated_Source\PSoC6\pdl\drivers/peripheral/ipc/cy_ipc_drv.h **** /******************************************************************************/
 313:Generated_Source\PSoC6\pdl\drivers/peripheral/ipc/cy_ipc_drv.h **** /* Include files                                                              */
 314:Generated_Source\PSoC6\pdl\drivers/peripheral/ipc/cy_ipc_drv.h **** /******************************************************************************/
 315:Generated_Source\PSoC6\pdl\drivers/peripheral/ipc/cy_ipc_drv.h **** 
 316:Generated_Source\PSoC6\pdl\drivers/peripheral/ipc/cy_ipc_drv.h **** #include "cy_device.h"
 317:Generated_Source\PSoC6\pdl\drivers/peripheral/ipc/cy_ipc_drv.h **** #include "cy_device_headers.h"
 318:Generated_Source\PSoC6\pdl\drivers/peripheral/ipc/cy_ipc_drv.h **** #include "cy_syslib.h"
 319:Generated_Source\PSoC6\pdl\drivers/peripheral/ipc/cy_ipc_drv.h **** #include <stddef.h>
 320:Generated_Source\PSoC6\pdl\drivers/peripheral/ipc/cy_ipc_drv.h **** 
 321:Generated_Source\PSoC6\pdl\drivers/peripheral/ipc/cy_ipc_drv.h **** 
 322:Generated_Source\PSoC6\pdl\drivers/peripheral/ipc/cy_ipc_drv.h **** /**
 323:Generated_Source\PSoC6\pdl\drivers/peripheral/ipc/cy_ipc_drv.h **** * \addtogroup group_ipc_macros
 324:Generated_Source\PSoC6\pdl\drivers/peripheral/ipc/cy_ipc_drv.h **** * \{
 325:Generated_Source\PSoC6\pdl\drivers/peripheral/ipc/cy_ipc_drv.h **** */
 326:Generated_Source\PSoC6\pdl\drivers/peripheral/ipc/cy_ipc_drv.h **** 
 327:Generated_Source\PSoC6\pdl\drivers/peripheral/ipc/cy_ipc_drv.h **** /** Driver major version */
 328:Generated_Source\PSoC6\pdl\drivers/peripheral/ipc/cy_ipc_drv.h **** #define CY_IPC_DRV_VERSION_MAJOR       1
 329:Generated_Source\PSoC6\pdl\drivers/peripheral/ipc/cy_ipc_drv.h **** 
 330:Generated_Source\PSoC6\pdl\drivers/peripheral/ipc/cy_ipc_drv.h **** /** Driver minor version */
 331:Generated_Source\PSoC6\pdl\drivers/peripheral/ipc/cy_ipc_drv.h **** #define CY_IPC_DRV_VERSION_MINOR       30
 332:Generated_Source\PSoC6\pdl\drivers/peripheral/ipc/cy_ipc_drv.h **** 
 333:Generated_Source\PSoC6\pdl\drivers/peripheral/ipc/cy_ipc_drv.h **** /** Defines a value to indicate that no notification events are needed */
 334:Generated_Source\PSoC6\pdl\drivers/peripheral/ipc/cy_ipc_drv.h **** #define CY_IPC_NO_NOTIFICATION         (uint32_t)(0x00000000ul)
 335:Generated_Source\PSoC6\pdl\drivers/peripheral/ipc/cy_ipc_drv.h **** 
 336:Generated_Source\PSoC6\pdl\drivers/peripheral/ipc/cy_ipc_drv.h **** /* Error Code constants */
 337:Generated_Source\PSoC6\pdl\drivers/peripheral/ipc/cy_ipc_drv.h **** #define CY_IPC_ID CY_PDL_DRV_ID(0x22u)  /**< Software PDL driver ID for IPC */
 338:Generated_Source\PSoC6\pdl\drivers/peripheral/ipc/cy_ipc_drv.h **** 
 339:Generated_Source\PSoC6\pdl\drivers/peripheral/ipc/cy_ipc_drv.h **** /** Return prefix for IPC driver function status codes */
 340:Generated_Source\PSoC6\pdl\drivers/peripheral/ipc/cy_ipc_drv.h **** #define CY_IPC_ID_INFO    (uint32_t)( CY_IPC_ID | CY_PDL_STATUS_INFO )
 341:Generated_Source\PSoC6\pdl\drivers/peripheral/ipc/cy_ipc_drv.h **** /** Return prefix for IPC driver function warning return values */
 342:Generated_Source\PSoC6\pdl\drivers/peripheral/ipc/cy_ipc_drv.h **** #define CY_IPC_ID_WARNING (uint32_t)( CY_IPC_ID | CY_PDL_STATUS_WARNING)
 343:Generated_Source\PSoC6\pdl\drivers/peripheral/ipc/cy_ipc_drv.h **** /** Return prefix for IPC driver function error return values */
 344:Generated_Source\PSoC6\pdl\drivers/peripheral/ipc/cy_ipc_drv.h **** #define CY_IPC_ID_ERROR   (uint32_t)( CY_IPC_ID | CY_PDL_STATUS_ERROR)
 345:Generated_Source\PSoC6\pdl\drivers/peripheral/ipc/cy_ipc_drv.h **** 
 346:Generated_Source\PSoC6\pdl\drivers/peripheral/ipc/cy_ipc_drv.h **** /** Converts the IPC interrupt channel number to interrupt vector */
 347:Generated_Source\PSoC6\pdl\drivers/peripheral/ipc/cy_ipc_drv.h **** #define CY_IPC_INTR_NUM_TO_VECT(x)         ((int32_t) cy_device->cpussIpc0Irq + (x))
 348:Generated_Source\PSoC6\pdl\drivers/peripheral/ipc/cy_ipc_drv.h **** 
 349:Generated_Source\PSoC6\pdl\drivers/peripheral/ipc/cy_ipc_drv.h **** /** \} group_ipc_macros */
 350:Generated_Source\PSoC6\pdl\drivers/peripheral/ipc/cy_ipc_drv.h **** 
 351:Generated_Source\PSoC6\pdl\drivers/peripheral/ipc/cy_ipc_drv.h **** /* end of definition in device.h */
 352:Generated_Source\PSoC6\pdl\drivers/peripheral/ipc/cy_ipc_drv.h **** 
 353:Generated_Source\PSoC6\pdl\drivers/peripheral/ipc/cy_ipc_drv.h **** /** \cond INTERNAL */
 354:Generated_Source\PSoC6\pdl\drivers/peripheral/ipc/cy_ipc_drv.h **** #if (CY_CPU_CORTEX_M0P)
 355:Generated_Source\PSoC6\pdl\drivers/peripheral/ipc/cy_ipc_drv.h ****     #define CY_IPC_CHAN_SYSCALL         CY_IPC_CHAN_SYSCALL_CM0
 356:Generated_Source\PSoC6\pdl\drivers/peripheral/ipc/cy_ipc_drv.h **** #else
 357:Generated_Source\PSoC6\pdl\drivers/peripheral/ipc/cy_ipc_drv.h ****     #define CY_IPC_CHAN_SYSCALL         CY_IPC_CHAN_SYSCALL_CM4
 358:Generated_Source\PSoC6\pdl\drivers/peripheral/ipc/cy_ipc_drv.h **** #endif  /* (CY_CPU_CORTEX_M0P) */
 359:Generated_Source\PSoC6\pdl\drivers/peripheral/ipc/cy_ipc_drv.h **** /** \endcond */
 360:Generated_Source\PSoC6\pdl\drivers/peripheral/ipc/cy_ipc_drv.h **** 
 361:Generated_Source\PSoC6\pdl\drivers/peripheral/ipc/cy_ipc_drv.h **** /**
 362:Generated_Source\PSoC6\pdl\drivers/peripheral/ipc/cy_ipc_drv.h **** * \addtogroup group_ipc_enums
 363:Generated_Source\PSoC6\pdl\drivers/peripheral/ipc/cy_ipc_drv.h **** * \{
 364:Generated_Source\PSoC6\pdl\drivers/peripheral/ipc/cy_ipc_drv.h **** */
 365:Generated_Source\PSoC6\pdl\drivers/peripheral/ipc/cy_ipc_drv.h **** 
 366:Generated_Source\PSoC6\pdl\drivers/peripheral/ipc/cy_ipc_drv.h **** /**
ARM GAS  C:\Users\Rolf\AppData\Local\Temp\ccTwK7ru.s 			page 19


 367:Generated_Source\PSoC6\pdl\drivers/peripheral/ipc/cy_ipc_drv.h **** * This is a list of ENUMs used for function return status.
 368:Generated_Source\PSoC6\pdl\drivers/peripheral/ipc/cy_ipc_drv.h **** */
 369:Generated_Source\PSoC6\pdl\drivers/peripheral/ipc/cy_ipc_drv.h **** typedef enum
 370:Generated_Source\PSoC6\pdl\drivers/peripheral/ipc/cy_ipc_drv.h **** {
 371:Generated_Source\PSoC6\pdl\drivers/peripheral/ipc/cy_ipc_drv.h ****     /** Function was successfully executed */
 372:Generated_Source\PSoC6\pdl\drivers/peripheral/ipc/cy_ipc_drv.h ****     CY_IPC_DRV_SUCCESS      = (0x00u),
 373:Generated_Source\PSoC6\pdl\drivers/peripheral/ipc/cy_ipc_drv.h ****     /** Function was not executed due to an error.
 374:Generated_Source\PSoC6\pdl\drivers/peripheral/ipc/cy_ipc_drv.h ****         Typical conditions for the error explained
 375:Generated_Source\PSoC6\pdl\drivers/peripheral/ipc/cy_ipc_drv.h ****         in the function description */
 376:Generated_Source\PSoC6\pdl\drivers/peripheral/ipc/cy_ipc_drv.h ****     CY_IPC_DRV_ERROR        = ( CY_IPC_ID_ERROR + 1ul),
 377:Generated_Source\PSoC6\pdl\drivers/peripheral/ipc/cy_ipc_drv.h **** } cy_en_ipcdrv_status_t;
 378:Generated_Source\PSoC6\pdl\drivers/peripheral/ipc/cy_ipc_drv.h **** 
 379:Generated_Source\PSoC6\pdl\drivers/peripheral/ipc/cy_ipc_drv.h **** /** \} group_ipc_enums */
 380:Generated_Source\PSoC6\pdl\drivers/peripheral/ipc/cy_ipc_drv.h **** 
 381:Generated_Source\PSoC6\pdl\drivers/peripheral/ipc/cy_ipc_drv.h **** 
 382:Generated_Source\PSoC6\pdl\drivers/peripheral/ipc/cy_ipc_drv.h **** #ifdef __cplusplus
 383:Generated_Source\PSoC6\pdl\drivers/peripheral/ipc/cy_ipc_drv.h **** extern "C" {
 384:Generated_Source\PSoC6\pdl\drivers/peripheral/ipc/cy_ipc_drv.h **** #endif
 385:Generated_Source\PSoC6\pdl\drivers/peripheral/ipc/cy_ipc_drv.h **** 
 386:Generated_Source\PSoC6\pdl\drivers/peripheral/ipc/cy_ipc_drv.h **** /** \cond INTERNAL */
 387:Generated_Source\PSoC6\pdl\drivers/peripheral/ipc/cy_ipc_drv.h **** 
 388:Generated_Source\PSoC6\pdl\drivers/peripheral/ipc/cy_ipc_drv.h **** __STATIC_INLINE void     Cy_IPC_Drv_WriteDataValue (IPC_STRUCT_Type* base, uint32_t dataValue);
 389:Generated_Source\PSoC6\pdl\drivers/peripheral/ipc/cy_ipc_drv.h **** __STATIC_INLINE uint32_t Cy_IPC_Drv_ReadDataValue (IPC_STRUCT_Type const * base);
 390:Generated_Source\PSoC6\pdl\drivers/peripheral/ipc/cy_ipc_drv.h **** 
 391:Generated_Source\PSoC6\pdl\drivers/peripheral/ipc/cy_ipc_drv.h **** __STATIC_INLINE uint32_t Cy_IPC_Drv_ExtractAcquireMask (uint32_t intMask);
 392:Generated_Source\PSoC6\pdl\drivers/peripheral/ipc/cy_ipc_drv.h **** __STATIC_INLINE uint32_t Cy_IPC_Drv_ExtractReleaseMask (uint32_t intMask);
 393:Generated_Source\PSoC6\pdl\drivers/peripheral/ipc/cy_ipc_drv.h **** 
 394:Generated_Source\PSoC6\pdl\drivers/peripheral/ipc/cy_ipc_drv.h **** /** \endcond */
 395:Generated_Source\PSoC6\pdl\drivers/peripheral/ipc/cy_ipc_drv.h **** 
 396:Generated_Source\PSoC6\pdl\drivers/peripheral/ipc/cy_ipc_drv.h **** /**
 397:Generated_Source\PSoC6\pdl\drivers/peripheral/ipc/cy_ipc_drv.h **** * \addtogroup group_ipc_functions
 398:Generated_Source\PSoC6\pdl\drivers/peripheral/ipc/cy_ipc_drv.h **** * \{
 399:Generated_Source\PSoC6\pdl\drivers/peripheral/ipc/cy_ipc_drv.h **** */
 400:Generated_Source\PSoC6\pdl\drivers/peripheral/ipc/cy_ipc_drv.h **** 
 401:Generated_Source\PSoC6\pdl\drivers/peripheral/ipc/cy_ipc_drv.h **** __STATIC_INLINE IPC_STRUCT_Type*       Cy_IPC_Drv_GetIpcBaseAddress (uint32_t ipcIndex);
 402:Generated_Source\PSoC6\pdl\drivers/peripheral/ipc/cy_ipc_drv.h **** __STATIC_INLINE IPC_INTR_STRUCT_Type*  Cy_IPC_Drv_GetIntrBaseAddr (uint32_t ipcIntrIndex);
 403:Generated_Source\PSoC6\pdl\drivers/peripheral/ipc/cy_ipc_drv.h **** 
 404:Generated_Source\PSoC6\pdl\drivers/peripheral/ipc/cy_ipc_drv.h **** __STATIC_INLINE void     Cy_IPC_Drv_AcquireNotify (IPC_STRUCT_Type * base, uint32_t notifyEventIntr
 405:Generated_Source\PSoC6\pdl\drivers/peripheral/ipc/cy_ipc_drv.h **** __STATIC_INLINE void     Cy_IPC_Drv_ReleaseNotify (IPC_STRUCT_Type * base, uint32_t notifyEventIntr
 406:Generated_Source\PSoC6\pdl\drivers/peripheral/ipc/cy_ipc_drv.h **** 
 407:Generated_Source\PSoC6\pdl\drivers/peripheral/ipc/cy_ipc_drv.h **** __STATIC_INLINE  cy_en_ipcdrv_status_t Cy_IPC_Drv_LockAcquire (IPC_STRUCT_Type const * base);
 408:Generated_Source\PSoC6\pdl\drivers/peripheral/ipc/cy_ipc_drv.h **** cy_en_ipcdrv_status_t    Cy_IPC_Drv_LockRelease (IPC_STRUCT_Type * base, uint32_t releaseEventIntr)
 409:Generated_Source\PSoC6\pdl\drivers/peripheral/ipc/cy_ipc_drv.h **** __STATIC_INLINE bool     Cy_IPC_Drv_IsLockAcquired (IPC_STRUCT_Type const * base);
 410:Generated_Source\PSoC6\pdl\drivers/peripheral/ipc/cy_ipc_drv.h **** __STATIC_INLINE uint32_t Cy_IPC_Drv_GetLockStatus (IPC_STRUCT_Type const * base);
 411:Generated_Source\PSoC6\pdl\drivers/peripheral/ipc/cy_ipc_drv.h **** 
 412:Generated_Source\PSoC6\pdl\drivers/peripheral/ipc/cy_ipc_drv.h **** cy_en_ipcdrv_status_t    Cy_IPC_Drv_SendMsgWord (IPC_STRUCT_Type * base, uint32_t notifyEventIntr, 
 413:Generated_Source\PSoC6\pdl\drivers/peripheral/ipc/cy_ipc_drv.h **** cy_en_ipcdrv_status_t    Cy_IPC_Drv_ReadMsgWord (IPC_STRUCT_Type const * base, uint32_t * message);
 414:Generated_Source\PSoC6\pdl\drivers/peripheral/ipc/cy_ipc_drv.h **** __STATIC_INLINE cy_en_ipcdrv_status_t Cy_IPC_Drv_SendMsgPtr (IPC_STRUCT_Type* base, uint32_t notify
 415:Generated_Source\PSoC6\pdl\drivers/peripheral/ipc/cy_ipc_drv.h **** __STATIC_INLINE cy_en_ipcdrv_status_t Cy_IPC_Drv_ReadMsgPtr (IPC_STRUCT_Type const * base, void ** 
 416:Generated_Source\PSoC6\pdl\drivers/peripheral/ipc/cy_ipc_drv.h **** 
 417:Generated_Source\PSoC6\pdl\drivers/peripheral/ipc/cy_ipc_drv.h **** __STATIC_INLINE void     Cy_IPC_Drv_SetInterruptMask (IPC_INTR_STRUCT_Type * base,
 418:Generated_Source\PSoC6\pdl\drivers/peripheral/ipc/cy_ipc_drv.h ****                                                       uint32_t ipcReleaseMask, uint32_t ipcAcquireM
 419:Generated_Source\PSoC6\pdl\drivers/peripheral/ipc/cy_ipc_drv.h **** __STATIC_INLINE uint32_t Cy_IPC_Drv_GetInterruptMask (IPC_INTR_STRUCT_Type const * base);
 420:Generated_Source\PSoC6\pdl\drivers/peripheral/ipc/cy_ipc_drv.h **** __STATIC_INLINE uint32_t Cy_IPC_Drv_GetInterruptStatusMasked (IPC_INTR_STRUCT_Type const * base);
 421:Generated_Source\PSoC6\pdl\drivers/peripheral/ipc/cy_ipc_drv.h **** __STATIC_INLINE uint32_t Cy_IPC_Drv_GetInterruptStatus (IPC_INTR_STRUCT_Type const * base);
 422:Generated_Source\PSoC6\pdl\drivers/peripheral/ipc/cy_ipc_drv.h **** __STATIC_INLINE void     Cy_IPC_Drv_SetInterrupt (IPC_INTR_STRUCT_Type * base,
 423:Generated_Source\PSoC6\pdl\drivers/peripheral/ipc/cy_ipc_drv.h ****                                                       uint32_t ipcReleaseMask, uint32_t ipcAcquireM
ARM GAS  C:\Users\Rolf\AppData\Local\Temp\ccTwK7ru.s 			page 20


 424:Generated_Source\PSoC6\pdl\drivers/peripheral/ipc/cy_ipc_drv.h **** __STATIC_INLINE void     Cy_IPC_Drv_ClearInterrupt (IPC_INTR_STRUCT_Type * base,
 425:Generated_Source\PSoC6\pdl\drivers/peripheral/ipc/cy_ipc_drv.h ****                                                       uint32_t ipcReleaseMask, uint32_t ipcAcquireM
 426:Generated_Source\PSoC6\pdl\drivers/peripheral/ipc/cy_ipc_drv.h **** 
 427:Generated_Source\PSoC6\pdl\drivers/peripheral/ipc/cy_ipc_drv.h **** 
 428:Generated_Source\PSoC6\pdl\drivers/peripheral/ipc/cy_ipc_drv.h **** /*******************************************************************************
 429:Generated_Source\PSoC6\pdl\drivers/peripheral/ipc/cy_ipc_drv.h **** * Function Name: Cy_IPC_Drv_GetIpcBaseAddress
 430:Generated_Source\PSoC6\pdl\drivers/peripheral/ipc/cy_ipc_drv.h **** ****************************************************************************//**
 431:Generated_Source\PSoC6\pdl\drivers/peripheral/ipc/cy_ipc_drv.h **** *
 432:Generated_Source\PSoC6\pdl\drivers/peripheral/ipc/cy_ipc_drv.h **** * This function takes an IPC channel index as a parameter and returns the base
 433:Generated_Source\PSoC6\pdl\drivers/peripheral/ipc/cy_ipc_drv.h **** * address the IPC registers corresponding to the IPC channel.
 434:Generated_Source\PSoC6\pdl\drivers/peripheral/ipc/cy_ipc_drv.h **** *
 435:Generated_Source\PSoC6\pdl\drivers/peripheral/ipc/cy_ipc_drv.h **** * \note The user is responsible for ensuring that ipcIndex does not exceed the
 436:Generated_Source\PSoC6\pdl\drivers/peripheral/ipc/cy_ipc_drv.h **** * limits.
 437:Generated_Source\PSoC6\pdl\drivers/peripheral/ipc/cy_ipc_drv.h **** *
 438:Generated_Source\PSoC6\pdl\drivers/peripheral/ipc/cy_ipc_drv.h **** * \param ipcIndex
 439:Generated_Source\PSoC6\pdl\drivers/peripheral/ipc/cy_ipc_drv.h **** * Represents the number of IPC structure. This is converted to the base address of
 440:Generated_Source\PSoC6\pdl\drivers/peripheral/ipc/cy_ipc_drv.h **** * the IPC channel registers.
 441:Generated_Source\PSoC6\pdl\drivers/peripheral/ipc/cy_ipc_drv.h **** *
 442:Generated_Source\PSoC6\pdl\drivers/peripheral/ipc/cy_ipc_drv.h **** * \return
 443:Generated_Source\PSoC6\pdl\drivers/peripheral/ipc/cy_ipc_drv.h **** * Returns a pointer to the base of the IPC registers.
 444:Generated_Source\PSoC6\pdl\drivers/peripheral/ipc/cy_ipc_drv.h **** *
 445:Generated_Source\PSoC6\pdl\drivers/peripheral/ipc/cy_ipc_drv.h **** * \funcusage
 446:Generated_Source\PSoC6\pdl\drivers/peripheral/ipc/cy_ipc_drv.h **** * \snippet IPC_sut_01.cydsn/main_cm4.c snippet_Cy_IPC_Drv_SendMsgWord
 447:Generated_Source\PSoC6\pdl\drivers/peripheral/ipc/cy_ipc_drv.h **** *
 448:Generated_Source\PSoC6\pdl\drivers/peripheral/ipc/cy_ipc_drv.h **** *******************************************************************************/
 449:Generated_Source\PSoC6\pdl\drivers/peripheral/ipc/cy_ipc_drv.h **** __STATIC_INLINE IPC_STRUCT_Type* Cy_IPC_Drv_GetIpcBaseAddress (uint32_t ipcIndex)
 450:Generated_Source\PSoC6\pdl\drivers/peripheral/ipc/cy_ipc_drv.h **** {
 451:Generated_Source\PSoC6\pdl\drivers/peripheral/ipc/cy_ipc_drv.h ****     CY_ASSERT_L1(CY_IPC_CHANNELS > ipcIndex);
 354              		.loc 2 451 0
 355 0002 174B     		ldr	r3, .L35
 356 0004 1A68     		ldr	r2, [r3]
 357 0006 3123     		movs	r3, #49
 358 0008 D35C     		ldrb	r3, [r2, r3]
 359 000a 002B     		cmp	r3, #0
 360 000c 04D1     		bne	.L31
 361 000e C421     		movs	r1, #196
 362 0010 FF31     		adds	r1, r1, #255
 363 0012 1448     		ldr	r0, .L35+4
 364 0014 FFF7FEFF 		bl	Cy_SysLib_AssertFailed
 365              	.LVL18:
 366              	.L31:
 452:Generated_Source\PSoC6\pdl\drivers/peripheral/ipc/cy_ipc_drv.h ****     return ( (IPC_STRUCT_Type*) CY_IPC_STRUCT_PTR(ipcIndex));
 367              		.loc 2 452 0
 368 0018 114B     		ldr	r3, .L35
 369 001a 1B68     		ldr	r3, [r3]
 370 001c 186A     		ldr	r0, [r3, #32]
 371              	.LVL19:
 372              	.LBE15:
 373              	.LBE14:
 374              	.LBB16:
 375              	.LBB17:
 453:Generated_Source\PSoC6\pdl\drivers/peripheral/ipc/cy_ipc_drv.h **** }
 454:Generated_Source\PSoC6\pdl\drivers/peripheral/ipc/cy_ipc_drv.h **** 
 455:Generated_Source\PSoC6\pdl\drivers/peripheral/ipc/cy_ipc_drv.h **** 
 456:Generated_Source\PSoC6\pdl\drivers/peripheral/ipc/cy_ipc_drv.h **** /*******************************************************************************
 457:Generated_Source\PSoC6\pdl\drivers/peripheral/ipc/cy_ipc_drv.h **** * Function Name: Cy_IPC_Drv_GetIntrBaseAddr
 458:Generated_Source\PSoC6\pdl\drivers/peripheral/ipc/cy_ipc_drv.h **** ****************************************************************************//**
ARM GAS  C:\Users\Rolf\AppData\Local\Temp\ccTwK7ru.s 			page 21


 459:Generated_Source\PSoC6\pdl\drivers/peripheral/ipc/cy_ipc_drv.h **** *
 460:Generated_Source\PSoC6\pdl\drivers/peripheral/ipc/cy_ipc_drv.h **** * This function takes an IPC interrupt structure index and returns the base
 461:Generated_Source\PSoC6\pdl\drivers/peripheral/ipc/cy_ipc_drv.h **** * address of the IPC interrupt registers corresponding to the IPC Interrupt.
 462:Generated_Source\PSoC6\pdl\drivers/peripheral/ipc/cy_ipc_drv.h **** *
 463:Generated_Source\PSoC6\pdl\drivers/peripheral/ipc/cy_ipc_drv.h **** * \note The user is responsible for ensuring that ipcIntrIndex does not exceed the
 464:Generated_Source\PSoC6\pdl\drivers/peripheral/ipc/cy_ipc_drv.h **** * limits.
 465:Generated_Source\PSoC6\pdl\drivers/peripheral/ipc/cy_ipc_drv.h **** *
 466:Generated_Source\PSoC6\pdl\drivers/peripheral/ipc/cy_ipc_drv.h **** * \param ipcIntrIndex
 467:Generated_Source\PSoC6\pdl\drivers/peripheral/ipc/cy_ipc_drv.h **** * Represents the number of IPC interrupt structure. This is converted to the
 468:Generated_Source\PSoC6\pdl\drivers/peripheral/ipc/cy_ipc_drv.h **** * base address of the IPC interrupt registers.
 469:Generated_Source\PSoC6\pdl\drivers/peripheral/ipc/cy_ipc_drv.h **** *
 470:Generated_Source\PSoC6\pdl\drivers/peripheral/ipc/cy_ipc_drv.h **** * \return
 471:Generated_Source\PSoC6\pdl\drivers/peripheral/ipc/cy_ipc_drv.h **** * Returns a pointer to the base of the IPC interrupt registers.
 472:Generated_Source\PSoC6\pdl\drivers/peripheral/ipc/cy_ipc_drv.h **** *
 473:Generated_Source\PSoC6\pdl\drivers/peripheral/ipc/cy_ipc_drv.h **** * \funcusage
 474:Generated_Source\PSoC6\pdl\drivers/peripheral/ipc/cy_ipc_drv.h **** * \snippet IPC_sut_01.cydsn/main_cm4.c snippet_Cy_IPC_Drv_GetInterruptStatus
 475:Generated_Source\PSoC6\pdl\drivers/peripheral/ipc/cy_ipc_drv.h **** *
 476:Generated_Source\PSoC6\pdl\drivers/peripheral/ipc/cy_ipc_drv.h **** *******************************************************************************/
 477:Generated_Source\PSoC6\pdl\drivers/peripheral/ipc/cy_ipc_drv.h **** __STATIC_INLINE IPC_INTR_STRUCT_Type* Cy_IPC_Drv_GetIntrBaseAddr (uint32_t ipcIntrIndex)
 478:Generated_Source\PSoC6\pdl\drivers/peripheral/ipc/cy_ipc_drv.h **** {
 479:Generated_Source\PSoC6\pdl\drivers/peripheral/ipc/cy_ipc_drv.h ****     CY_ASSERT_L1(CY_IPC_INTERRUPTS > ipcIntrIndex);
 480:Generated_Source\PSoC6\pdl\drivers/peripheral/ipc/cy_ipc_drv.h ****     return ( (IPC_INTR_STRUCT_Type*) &(((IPC_Type *)cy_device->ipcBase)->INTR_STRUCT[ipcIntrIndex])
 481:Generated_Source\PSoC6\pdl\drivers/peripheral/ipc/cy_ipc_drv.h **** }
 482:Generated_Source\PSoC6\pdl\drivers/peripheral/ipc/cy_ipc_drv.h **** 
 483:Generated_Source\PSoC6\pdl\drivers/peripheral/ipc/cy_ipc_drv.h **** 
 484:Generated_Source\PSoC6\pdl\drivers/peripheral/ipc/cy_ipc_drv.h **** /*******************************************************************************
 485:Generated_Source\PSoC6\pdl\drivers/peripheral/ipc/cy_ipc_drv.h **** * Function Name: Cy_IPC_Drv_SetInterruptMask
 486:Generated_Source\PSoC6\pdl\drivers/peripheral/ipc/cy_ipc_drv.h **** ****************************************************************************//**
 487:Generated_Source\PSoC6\pdl\drivers/peripheral/ipc/cy_ipc_drv.h **** *
 488:Generated_Source\PSoC6\pdl\drivers/peripheral/ipc/cy_ipc_drv.h **** * This function is used to set the interrupt mask for an IPC Interrupt.
 489:Generated_Source\PSoC6\pdl\drivers/peripheral/ipc/cy_ipc_drv.h **** * The mask sets release or acquire notification events for all IPC channels.
 490:Generated_Source\PSoC6\pdl\drivers/peripheral/ipc/cy_ipc_drv.h **** *
 491:Generated_Source\PSoC6\pdl\drivers/peripheral/ipc/cy_ipc_drv.h **** * \param base
 492:Generated_Source\PSoC6\pdl\drivers/peripheral/ipc/cy_ipc_drv.h **** * This is a handle to the IPC interrupt. This handle can be calculated from the
 493:Generated_Source\PSoC6\pdl\drivers/peripheral/ipc/cy_ipc_drv.h **** * IPC interrupt number using \ref Cy_IPC_Drv_GetIntrBaseAddr.
 494:Generated_Source\PSoC6\pdl\drivers/peripheral/ipc/cy_ipc_drv.h **** *
 495:Generated_Source\PSoC6\pdl\drivers/peripheral/ipc/cy_ipc_drv.h **** * \param ipcReleaseMask
 496:Generated_Source\PSoC6\pdl\drivers/peripheral/ipc/cy_ipc_drv.h **** * An encoded list of all IPC channels that can trigger the interrupt on a
 497:Generated_Source\PSoC6\pdl\drivers/peripheral/ipc/cy_ipc_drv.h **** * release event.
 498:Generated_Source\PSoC6\pdl\drivers/peripheral/ipc/cy_ipc_drv.h **** *
 499:Generated_Source\PSoC6\pdl\drivers/peripheral/ipc/cy_ipc_drv.h **** * \param ipcAcquireMask
 500:Generated_Source\PSoC6\pdl\drivers/peripheral/ipc/cy_ipc_drv.h **** * An encoded list of all IPC channels that can trigger the interrupt on a
 501:Generated_Source\PSoC6\pdl\drivers/peripheral/ipc/cy_ipc_drv.h **** * notify event.
 502:Generated_Source\PSoC6\pdl\drivers/peripheral/ipc/cy_ipc_drv.h **** *
 503:Generated_Source\PSoC6\pdl\drivers/peripheral/ipc/cy_ipc_drv.h **** * \funcusage
 504:Generated_Source\PSoC6\pdl\drivers/peripheral/ipc/cy_ipc_drv.h **** * \snippet IPC_sut_01.cydsn/main_cm4.c snippet_Cy_IPC_Drv_GetInterruptStatusMasked
 505:Generated_Source\PSoC6\pdl\drivers/peripheral/ipc/cy_ipc_drv.h **** *
 506:Generated_Source\PSoC6\pdl\drivers/peripheral/ipc/cy_ipc_drv.h **** *******************************************************************************/
 507:Generated_Source\PSoC6\pdl\drivers/peripheral/ipc/cy_ipc_drv.h **** __STATIC_INLINE void  Cy_IPC_Drv_SetInterruptMask (IPC_INTR_STRUCT_Type* base,
 508:Generated_Source\PSoC6\pdl\drivers/peripheral/ipc/cy_ipc_drv.h ****                                               uint32_t ipcReleaseMask, uint32_t ipcAcquireMask)
 509:Generated_Source\PSoC6\pdl\drivers/peripheral/ipc/cy_ipc_drv.h **** {
 510:Generated_Source\PSoC6\pdl\drivers/peripheral/ipc/cy_ipc_drv.h ****     CY_ASSERT_L1(0ul == (ipcAcquireMask & ~(uint32_t)(IPC_STRUCT_NOTIFY_INTR_NOTIFY_Msk)));
 511:Generated_Source\PSoC6\pdl\drivers/peripheral/ipc/cy_ipc_drv.h ****     CY_ASSERT_L1(0ul == (ipcReleaseMask & ~(uint32_t)(IPC_STRUCT_RELEASE_INTR_RELEASE_Msk)));
 512:Generated_Source\PSoC6\pdl\drivers/peripheral/ipc/cy_ipc_drv.h ****     REG_IPC_INTR_STRUCT_INTR_MASK(base) = _VAL2FLD( IPC_INTR_STRUCT_INTR_MASK_NOTIFY,  ipcAcquireMa
 513:Generated_Source\PSoC6\pdl\drivers/peripheral/ipc/cy_ipc_drv.h ****                       _VAL2FLD( IPC_INTR_STRUCT_INTR_MASK_RELEASE, ipcReleaseMask);
 514:Generated_Source\PSoC6\pdl\drivers/peripheral/ipc/cy_ipc_drv.h **** }
 515:Generated_Source\PSoC6\pdl\drivers/peripheral/ipc/cy_ipc_drv.h **** 
ARM GAS  C:\Users\Rolf\AppData\Local\Temp\ccTwK7ru.s 			page 22


 516:Generated_Source\PSoC6\pdl\drivers/peripheral/ipc/cy_ipc_drv.h **** 
 517:Generated_Source\PSoC6\pdl\drivers/peripheral/ipc/cy_ipc_drv.h **** /*******************************************************************************
 518:Generated_Source\PSoC6\pdl\drivers/peripheral/ipc/cy_ipc_drv.h **** * Function Name: Cy_IPC_Drv_GetInterruptMask
 519:Generated_Source\PSoC6\pdl\drivers/peripheral/ipc/cy_ipc_drv.h **** ****************************************************************************//**
 520:Generated_Source\PSoC6\pdl\drivers/peripheral/ipc/cy_ipc_drv.h **** *
 521:Generated_Source\PSoC6\pdl\drivers/peripheral/ipc/cy_ipc_drv.h **** * This function is used to read the interrupt mask.
 522:Generated_Source\PSoC6\pdl\drivers/peripheral/ipc/cy_ipc_drv.h **** *
 523:Generated_Source\PSoC6\pdl\drivers/peripheral/ipc/cy_ipc_drv.h **** * \param base
 524:Generated_Source\PSoC6\pdl\drivers/peripheral/ipc/cy_ipc_drv.h **** * This is a handle to the IPC interrupt. This handle can be calculated from
 525:Generated_Source\PSoC6\pdl\drivers/peripheral/ipc/cy_ipc_drv.h **** * the IPC interrupt number using \ref Cy_IPC_Drv_GetIntrBaseAddr.
 526:Generated_Source\PSoC6\pdl\drivers/peripheral/ipc/cy_ipc_drv.h **** *
 527:Generated_Source\PSoC6\pdl\drivers/peripheral/ipc/cy_ipc_drv.h **** * \return
 528:Generated_Source\PSoC6\pdl\drivers/peripheral/ipc/cy_ipc_drv.h **** *   The return value is encoded as follows
 529:Generated_Source\PSoC6\pdl\drivers/peripheral/ipc/cy_ipc_drv.h **** *   <table>
 530:Generated_Source\PSoC6\pdl\drivers/peripheral/ipc/cy_ipc_drv.h **** *   <tr><th>Interrupt sources   <th>Value
 531:Generated_Source\PSoC6\pdl\drivers/peripheral/ipc/cy_ipc_drv.h **** *   <tr><td>Ipc_PORTX_RELEASE   <td>Xth bit set
 532:Generated_Source\PSoC6\pdl\drivers/peripheral/ipc/cy_ipc_drv.h **** *   <tr><td>Ipc_PORTX_NOTIFY    <td>X+16th bit set
 533:Generated_Source\PSoC6\pdl\drivers/peripheral/ipc/cy_ipc_drv.h **** *   </table>
 534:Generated_Source\PSoC6\pdl\drivers/peripheral/ipc/cy_ipc_drv.h **** *
 535:Generated_Source\PSoC6\pdl\drivers/peripheral/ipc/cy_ipc_drv.h **** * \funcusage
 536:Generated_Source\PSoC6\pdl\drivers/peripheral/ipc/cy_ipc_drv.h **** * \snippet IPC_sut_01.cydsn/main_cm4.c snippet_Cy_IPC_Drv_GetInterruptStatusMasked
 537:Generated_Source\PSoC6\pdl\drivers/peripheral/ipc/cy_ipc_drv.h **** *
 538:Generated_Source\PSoC6\pdl\drivers/peripheral/ipc/cy_ipc_drv.h **** *******************************************************************************/
 539:Generated_Source\PSoC6\pdl\drivers/peripheral/ipc/cy_ipc_drv.h **** __STATIC_INLINE uint32_t Cy_IPC_Drv_GetInterruptMask(IPC_INTR_STRUCT_Type const * base)
 540:Generated_Source\PSoC6\pdl\drivers/peripheral/ipc/cy_ipc_drv.h **** {
 541:Generated_Source\PSoC6\pdl\drivers/peripheral/ipc/cy_ipc_drv.h ****     return REG_IPC_INTR_STRUCT_INTR_MASK(base);
 542:Generated_Source\PSoC6\pdl\drivers/peripheral/ipc/cy_ipc_drv.h **** }
 543:Generated_Source\PSoC6\pdl\drivers/peripheral/ipc/cy_ipc_drv.h **** 
 544:Generated_Source\PSoC6\pdl\drivers/peripheral/ipc/cy_ipc_drv.h **** 
 545:Generated_Source\PSoC6\pdl\drivers/peripheral/ipc/cy_ipc_drv.h **** /*******************************************************************************
 546:Generated_Source\PSoC6\pdl\drivers/peripheral/ipc/cy_ipc_drv.h **** * Function Name: Cy_IPC_Drv_GetInterruptStatusMasked
 547:Generated_Source\PSoC6\pdl\drivers/peripheral/ipc/cy_ipc_drv.h **** ****************************************************************************//**
 548:Generated_Source\PSoC6\pdl\drivers/peripheral/ipc/cy_ipc_drv.h **** *
 549:Generated_Source\PSoC6\pdl\drivers/peripheral/ipc/cy_ipc_drv.h **** * This function is used to read the active unmasked interrupt. This function
 550:Generated_Source\PSoC6\pdl\drivers/peripheral/ipc/cy_ipc_drv.h **** * can be used in the interrupt service routine to find which source triggered
 551:Generated_Source\PSoC6\pdl\drivers/peripheral/ipc/cy_ipc_drv.h **** * the interrupt.
 552:Generated_Source\PSoC6\pdl\drivers/peripheral/ipc/cy_ipc_drv.h **** *
 553:Generated_Source\PSoC6\pdl\drivers/peripheral/ipc/cy_ipc_drv.h **** * \param base
 554:Generated_Source\PSoC6\pdl\drivers/peripheral/ipc/cy_ipc_drv.h **** * This is a handle to the IPC interrupt. This handle can be calculated from the
 555:Generated_Source\PSoC6\pdl\drivers/peripheral/ipc/cy_ipc_drv.h **** * IPC interrupt number using \ref Cy_IPC_Drv_GetIntrBaseAddr.
 556:Generated_Source\PSoC6\pdl\drivers/peripheral/ipc/cy_ipc_drv.h **** *
 557:Generated_Source\PSoC6\pdl\drivers/peripheral/ipc/cy_ipc_drv.h **** * \return
 558:Generated_Source\PSoC6\pdl\drivers/peripheral/ipc/cy_ipc_drv.h **** *   The return value is encoded as follows
 559:Generated_Source\PSoC6\pdl\drivers/peripheral/ipc/cy_ipc_drv.h **** *   <table>
 560:Generated_Source\PSoC6\pdl\drivers/peripheral/ipc/cy_ipc_drv.h **** *   <tr><th>Interrupt sources   <th>Value
 561:Generated_Source\PSoC6\pdl\drivers/peripheral/ipc/cy_ipc_drv.h **** *   <tr><td>Ipc_PORTX_RELEASE   <td>Xth bit set
 562:Generated_Source\PSoC6\pdl\drivers/peripheral/ipc/cy_ipc_drv.h **** *   <tr><td>Ipc_PORTX_NOTIFY    <td>X+16th bit set
 563:Generated_Source\PSoC6\pdl\drivers/peripheral/ipc/cy_ipc_drv.h **** *   </table>
 564:Generated_Source\PSoC6\pdl\drivers/peripheral/ipc/cy_ipc_drv.h **** *
 565:Generated_Source\PSoC6\pdl\drivers/peripheral/ipc/cy_ipc_drv.h **** * \funcusage
 566:Generated_Source\PSoC6\pdl\drivers/peripheral/ipc/cy_ipc_drv.h **** * \snippet IPC_sut_01.cydsn/main_cm4.c snippet_Cy_IPC_Drv_GetInterruptStatusMasked
 567:Generated_Source\PSoC6\pdl\drivers/peripheral/ipc/cy_ipc_drv.h **** *
 568:Generated_Source\PSoC6\pdl\drivers/peripheral/ipc/cy_ipc_drv.h **** *******************************************************************************/
 569:Generated_Source\PSoC6\pdl\drivers/peripheral/ipc/cy_ipc_drv.h **** __STATIC_INLINE uint32_t Cy_IPC_Drv_GetInterruptStatusMasked (IPC_INTR_STRUCT_Type const * base)
 570:Generated_Source\PSoC6\pdl\drivers/peripheral/ipc/cy_ipc_drv.h **** {
 571:Generated_Source\PSoC6\pdl\drivers/peripheral/ipc/cy_ipc_drv.h ****     return REG_IPC_INTR_STRUCT_INTR_MASKED(base);
 572:Generated_Source\PSoC6\pdl\drivers/peripheral/ipc/cy_ipc_drv.h **** }
ARM GAS  C:\Users\Rolf\AppData\Local\Temp\ccTwK7ru.s 			page 23


 573:Generated_Source\PSoC6\pdl\drivers/peripheral/ipc/cy_ipc_drv.h **** 
 574:Generated_Source\PSoC6\pdl\drivers/peripheral/ipc/cy_ipc_drv.h **** 
 575:Generated_Source\PSoC6\pdl\drivers/peripheral/ipc/cy_ipc_drv.h **** /*******************************************************************************
 576:Generated_Source\PSoC6\pdl\drivers/peripheral/ipc/cy_ipc_drv.h **** * Function Name: Cy_IPC_Drv_GetInterruptStatus
 577:Generated_Source\PSoC6\pdl\drivers/peripheral/ipc/cy_ipc_drv.h **** ****************************************************************************//**
 578:Generated_Source\PSoC6\pdl\drivers/peripheral/ipc/cy_ipc_drv.h **** *
 579:Generated_Source\PSoC6\pdl\drivers/peripheral/ipc/cy_ipc_drv.h **** * This function is used to read the pending interrupts. Note that this read is
 580:Generated_Source\PSoC6\pdl\drivers/peripheral/ipc/cy_ipc_drv.h **** * an unmasked read of the interrupt status. Interrupt sources read as active by
 581:Generated_Source\PSoC6\pdl\drivers/peripheral/ipc/cy_ipc_drv.h **** * this function would generate interrupts only if they were not masked.
 582:Generated_Source\PSoC6\pdl\drivers/peripheral/ipc/cy_ipc_drv.h **** *
 583:Generated_Source\PSoC6\pdl\drivers/peripheral/ipc/cy_ipc_drv.h **** * \param base
 584:Generated_Source\PSoC6\pdl\drivers/peripheral/ipc/cy_ipc_drv.h **** * This is a handle to the IPC interrupt. This handle can be calculated from the
 585:Generated_Source\PSoC6\pdl\drivers/peripheral/ipc/cy_ipc_drv.h **** * IPC interrupt number using \ref Cy_IPC_Drv_GetIntrBaseAddr.
 586:Generated_Source\PSoC6\pdl\drivers/peripheral/ipc/cy_ipc_drv.h **** *
 587:Generated_Source\PSoC6\pdl\drivers/peripheral/ipc/cy_ipc_drv.h **** * \return
 588:Generated_Source\PSoC6\pdl\drivers/peripheral/ipc/cy_ipc_drv.h **** *   The return value is encoded as follows
 589:Generated_Source\PSoC6\pdl\drivers/peripheral/ipc/cy_ipc_drv.h **** *   <table>
 590:Generated_Source\PSoC6\pdl\drivers/peripheral/ipc/cy_ipc_drv.h **** *   <tr><th>Interrupt sources   <th>Value
 591:Generated_Source\PSoC6\pdl\drivers/peripheral/ipc/cy_ipc_drv.h **** *   <tr><td>Ipc_PORTX_RELEASE   <td>Xth bit set
 592:Generated_Source\PSoC6\pdl\drivers/peripheral/ipc/cy_ipc_drv.h **** *   <tr><td>Ipc_PORTX_NOTIFY    <td>X+16th bit set
 593:Generated_Source\PSoC6\pdl\drivers/peripheral/ipc/cy_ipc_drv.h **** *   </table>
 594:Generated_Source\PSoC6\pdl\drivers/peripheral/ipc/cy_ipc_drv.h **** *
 595:Generated_Source\PSoC6\pdl\drivers/peripheral/ipc/cy_ipc_drv.h **** * \funcusage
 596:Generated_Source\PSoC6\pdl\drivers/peripheral/ipc/cy_ipc_drv.h **** * \snippet IPC_sut_01.cydsn/main_cm4.c snippet_Cy_IPC_Drv_GetInterruptStatus
 597:Generated_Source\PSoC6\pdl\drivers/peripheral/ipc/cy_ipc_drv.h **** *
 598:Generated_Source\PSoC6\pdl\drivers/peripheral/ipc/cy_ipc_drv.h **** *******************************************************************************/
 599:Generated_Source\PSoC6\pdl\drivers/peripheral/ipc/cy_ipc_drv.h **** __STATIC_INLINE uint32_t Cy_IPC_Drv_GetInterruptStatus(IPC_INTR_STRUCT_Type const * base)
 600:Generated_Source\PSoC6\pdl\drivers/peripheral/ipc/cy_ipc_drv.h **** {
 601:Generated_Source\PSoC6\pdl\drivers/peripheral/ipc/cy_ipc_drv.h ****     return REG_IPC_INTR_STRUCT_INTR(base);
 602:Generated_Source\PSoC6\pdl\drivers/peripheral/ipc/cy_ipc_drv.h **** }
 603:Generated_Source\PSoC6\pdl\drivers/peripheral/ipc/cy_ipc_drv.h **** 
 604:Generated_Source\PSoC6\pdl\drivers/peripheral/ipc/cy_ipc_drv.h **** 
 605:Generated_Source\PSoC6\pdl\drivers/peripheral/ipc/cy_ipc_drv.h **** /*******************************************************************************
 606:Generated_Source\PSoC6\pdl\drivers/peripheral/ipc/cy_ipc_drv.h **** * Function Name: Cy_IPC_Drv_SetInterrupt
 607:Generated_Source\PSoC6\pdl\drivers/peripheral/ipc/cy_ipc_drv.h **** ****************************************************************************//**
 608:Generated_Source\PSoC6\pdl\drivers/peripheral/ipc/cy_ipc_drv.h **** *
 609:Generated_Source\PSoC6\pdl\drivers/peripheral/ipc/cy_ipc_drv.h **** * This function is used to set the interrupt source. This function can be used
 610:Generated_Source\PSoC6\pdl\drivers/peripheral/ipc/cy_ipc_drv.h **** * to activate interrupts through software.
 611:Generated_Source\PSoC6\pdl\drivers/peripheral/ipc/cy_ipc_drv.h **** * \note That interrupt sources set using this interrupt would generate interrupts
 612:Generated_Source\PSoC6\pdl\drivers/peripheral/ipc/cy_ipc_drv.h **** * only if they are not masked.
 613:Generated_Source\PSoC6\pdl\drivers/peripheral/ipc/cy_ipc_drv.h **** *
 614:Generated_Source\PSoC6\pdl\drivers/peripheral/ipc/cy_ipc_drv.h **** * \param base
 615:Generated_Source\PSoC6\pdl\drivers/peripheral/ipc/cy_ipc_drv.h **** * This is a handle to the IPC interrupt. This handle can be calculated from the
 616:Generated_Source\PSoC6\pdl\drivers/peripheral/ipc/cy_ipc_drv.h **** * IPC interrupt number using \ref Cy_IPC_Drv_GetIntrBaseAddr.
 617:Generated_Source\PSoC6\pdl\drivers/peripheral/ipc/cy_ipc_drv.h **** *
 618:Generated_Source\PSoC6\pdl\drivers/peripheral/ipc/cy_ipc_drv.h **** * \param ipcReleaseMask
 619:Generated_Source\PSoC6\pdl\drivers/peripheral/ipc/cy_ipc_drv.h **** * An encoded list of all IPC channels that can trigger the interrupt on a
 620:Generated_Source\PSoC6\pdl\drivers/peripheral/ipc/cy_ipc_drv.h **** * release event.
 621:Generated_Source\PSoC6\pdl\drivers/peripheral/ipc/cy_ipc_drv.h **** *
 622:Generated_Source\PSoC6\pdl\drivers/peripheral/ipc/cy_ipc_drv.h **** * \param ipcAcquireMask
 623:Generated_Source\PSoC6\pdl\drivers/peripheral/ipc/cy_ipc_drv.h **** * An encoded list of all IPC channels that can trigger the interrupt on a
 624:Generated_Source\PSoC6\pdl\drivers/peripheral/ipc/cy_ipc_drv.h **** * notify event.
 625:Generated_Source\PSoC6\pdl\drivers/peripheral/ipc/cy_ipc_drv.h **** *
 626:Generated_Source\PSoC6\pdl\drivers/peripheral/ipc/cy_ipc_drv.h **** * \funcusage
 627:Generated_Source\PSoC6\pdl\drivers/peripheral/ipc/cy_ipc_drv.h **** * \snippet IPC_sut_01.cydsn/main_cm4.c snippet_Cy_IPC_Drv_SetInterrupt
 628:Generated_Source\PSoC6\pdl\drivers/peripheral/ipc/cy_ipc_drv.h **** *
 629:Generated_Source\PSoC6\pdl\drivers/peripheral/ipc/cy_ipc_drv.h **** *******************************************************************************/
ARM GAS  C:\Users\Rolf\AppData\Local\Temp\ccTwK7ru.s 			page 24


 630:Generated_Source\PSoC6\pdl\drivers/peripheral/ipc/cy_ipc_drv.h **** __STATIC_INLINE void  Cy_IPC_Drv_SetInterrupt(IPC_INTR_STRUCT_Type* base, uint32_t ipcReleaseMask, 
 631:Generated_Source\PSoC6\pdl\drivers/peripheral/ipc/cy_ipc_drv.h **** {
 632:Generated_Source\PSoC6\pdl\drivers/peripheral/ipc/cy_ipc_drv.h ****     CY_ASSERT_L1(0ul == (ipcAcquireMask  & ~(uint32_t)(IPC_STRUCT_NOTIFY_INTR_NOTIFY_Msk)));
 633:Generated_Source\PSoC6\pdl\drivers/peripheral/ipc/cy_ipc_drv.h ****     CY_ASSERT_L1(0ul == (ipcReleaseMask & ~(uint32_t)(IPC_STRUCT_RELEASE_INTR_RELEASE_Msk)));
 634:Generated_Source\PSoC6\pdl\drivers/peripheral/ipc/cy_ipc_drv.h ****     REG_IPC_INTR_STRUCT_INTR_SET(base) =  _VAL2FLD( IPC_INTR_STRUCT_INTR_NOTIFY,  ipcAcquireMask ) 
 635:Generated_Source\PSoC6\pdl\drivers/peripheral/ipc/cy_ipc_drv.h ****                       _VAL2FLD( IPC_INTR_STRUCT_INTR_RELEASE, ipcReleaseMask );
 636:Generated_Source\PSoC6\pdl\drivers/peripheral/ipc/cy_ipc_drv.h **** }
 637:Generated_Source\PSoC6\pdl\drivers/peripheral/ipc/cy_ipc_drv.h **** 
 638:Generated_Source\PSoC6\pdl\drivers/peripheral/ipc/cy_ipc_drv.h **** 
 639:Generated_Source\PSoC6\pdl\drivers/peripheral/ipc/cy_ipc_drv.h **** /*******************************************************************************
 640:Generated_Source\PSoC6\pdl\drivers/peripheral/ipc/cy_ipc_drv.h **** * Function Name: Cy_IPC_Drv_ClearInterrupt
 641:Generated_Source\PSoC6\pdl\drivers/peripheral/ipc/cy_ipc_drv.h **** ****************************************************************************//**
 642:Generated_Source\PSoC6\pdl\drivers/peripheral/ipc/cy_ipc_drv.h **** *
 643:Generated_Source\PSoC6\pdl\drivers/peripheral/ipc/cy_ipc_drv.h **** * This function is used to clear the interrupt source. Use this function to clear
 644:Generated_Source\PSoC6\pdl\drivers/peripheral/ipc/cy_ipc_drv.h **** * a pending interrupt source in the interrupt status.
 645:Generated_Source\PSoC6\pdl\drivers/peripheral/ipc/cy_ipc_drv.h **** *
 646:Generated_Source\PSoC6\pdl\drivers/peripheral/ipc/cy_ipc_drv.h **** * \param base
 647:Generated_Source\PSoC6\pdl\drivers/peripheral/ipc/cy_ipc_drv.h **** * This is a handle to the IPC interrupt. This handle can be calculated from the
 648:Generated_Source\PSoC6\pdl\drivers/peripheral/ipc/cy_ipc_drv.h **** * IPC interrupt number using \ref Cy_IPC_Drv_GetIntrBaseAddr.
 649:Generated_Source\PSoC6\pdl\drivers/peripheral/ipc/cy_ipc_drv.h **** *
 650:Generated_Source\PSoC6\pdl\drivers/peripheral/ipc/cy_ipc_drv.h **** * \param ipcReleaseMask
 651:Generated_Source\PSoC6\pdl\drivers/peripheral/ipc/cy_ipc_drv.h **** * An encoded list of all IPC channels that can trigger the interrupt on a
 652:Generated_Source\PSoC6\pdl\drivers/peripheral/ipc/cy_ipc_drv.h **** * release event.
 653:Generated_Source\PSoC6\pdl\drivers/peripheral/ipc/cy_ipc_drv.h **** *
 654:Generated_Source\PSoC6\pdl\drivers/peripheral/ipc/cy_ipc_drv.h **** * \param ipcAcquireMask
 655:Generated_Source\PSoC6\pdl\drivers/peripheral/ipc/cy_ipc_drv.h **** * An encoded list of all IPC channels that can trigger the interrupt on a
 656:Generated_Source\PSoC6\pdl\drivers/peripheral/ipc/cy_ipc_drv.h **** * notify event.
 657:Generated_Source\PSoC6\pdl\drivers/peripheral/ipc/cy_ipc_drv.h **** *
 658:Generated_Source\PSoC6\pdl\drivers/peripheral/ipc/cy_ipc_drv.h **** * \funcusage
 659:Generated_Source\PSoC6\pdl\drivers/peripheral/ipc/cy_ipc_drv.h **** * \snippet IPC_sut_01.cydsn/main_cm4.c snippet_Cy_IPC_Drv_GetInterruptStatusMasked
 660:Generated_Source\PSoC6\pdl\drivers/peripheral/ipc/cy_ipc_drv.h **** *
 661:Generated_Source\PSoC6\pdl\drivers/peripheral/ipc/cy_ipc_drv.h **** *******************************************************************************/
 662:Generated_Source\PSoC6\pdl\drivers/peripheral/ipc/cy_ipc_drv.h **** __STATIC_INLINE void  Cy_IPC_Drv_ClearInterrupt(IPC_INTR_STRUCT_Type* base, uint32_t ipcReleaseMask
 663:Generated_Source\PSoC6\pdl\drivers/peripheral/ipc/cy_ipc_drv.h **** {
 664:Generated_Source\PSoC6\pdl\drivers/peripheral/ipc/cy_ipc_drv.h ****     CY_ASSERT_L1(0ul == (ipcAcquireMask  & ~(uint32_t)(IPC_STRUCT_NOTIFY_INTR_NOTIFY_Msk)));
 665:Generated_Source\PSoC6\pdl\drivers/peripheral/ipc/cy_ipc_drv.h ****     CY_ASSERT_L1(0ul == (ipcReleaseMask & ~(uint32_t)(IPC_STRUCT_RELEASE_INTR_RELEASE_Msk)));
 666:Generated_Source\PSoC6\pdl\drivers/peripheral/ipc/cy_ipc_drv.h ****     REG_IPC_INTR_STRUCT_INTR(base) =  _VAL2FLD(IPC_INTR_STRUCT_INTR_NOTIFY,  ipcAcquireMask) |
 667:Generated_Source\PSoC6\pdl\drivers/peripheral/ipc/cy_ipc_drv.h ****                   _VAL2FLD(IPC_INTR_STRUCT_INTR_RELEASE, ipcReleaseMask);
 668:Generated_Source\PSoC6\pdl\drivers/peripheral/ipc/cy_ipc_drv.h ****     (void)REG_IPC_INTR_STRUCT_INTR(base);  /* Read the register to flush the cache */
 669:Generated_Source\PSoC6\pdl\drivers/peripheral/ipc/cy_ipc_drv.h **** }
 670:Generated_Source\PSoC6\pdl\drivers/peripheral/ipc/cy_ipc_drv.h **** 
 671:Generated_Source\PSoC6\pdl\drivers/peripheral/ipc/cy_ipc_drv.h **** /** \} group_ipc_functions */
 672:Generated_Source\PSoC6\pdl\drivers/peripheral/ipc/cy_ipc_drv.h **** 
 673:Generated_Source\PSoC6\pdl\drivers/peripheral/ipc/cy_ipc_drv.h **** /** \} group_ipc */
 674:Generated_Source\PSoC6\pdl\drivers/peripheral/ipc/cy_ipc_drv.h **** 
 675:Generated_Source\PSoC6\pdl\drivers/peripheral/ipc/cy_ipc_drv.h **** 
 676:Generated_Source\PSoC6\pdl\drivers/peripheral/ipc/cy_ipc_drv.h **** /*******************************************************************************
 677:Generated_Source\PSoC6\pdl\drivers/peripheral/ipc/cy_ipc_drv.h **** * Function Name: Cy_IPC_Drv_AcquireNotify
 678:Generated_Source\PSoC6\pdl\drivers/peripheral/ipc/cy_ipc_drv.h **** ****************************************************************************//**
 679:Generated_Source\PSoC6\pdl\drivers/peripheral/ipc/cy_ipc_drv.h **** *
 680:Generated_Source\PSoC6\pdl\drivers/peripheral/ipc/cy_ipc_drv.h **** * The function generates a acquire notification event by IPC interrupt structure.
 681:Generated_Source\PSoC6\pdl\drivers/peripheral/ipc/cy_ipc_drv.h **** *
 682:Generated_Source\PSoC6\pdl\drivers/peripheral/ipc/cy_ipc_drv.h **** * \param base
 683:Generated_Source\PSoC6\pdl\drivers/peripheral/ipc/cy_ipc_drv.h **** * This parameter is a handle that represents the base address of the registers
 684:Generated_Source\PSoC6\pdl\drivers/peripheral/ipc/cy_ipc_drv.h **** * of the IPC channel.
 685:Generated_Source\PSoC6\pdl\drivers/peripheral/ipc/cy_ipc_drv.h **** * The parameter is generally returned from a call to the \ref
 686:Generated_Source\PSoC6\pdl\drivers/peripheral/ipc/cy_ipc_drv.h **** * Cy_IPC_Drv_GetIpcBaseAddress.
ARM GAS  C:\Users\Rolf\AppData\Local\Temp\ccTwK7ru.s 			page 25


 687:Generated_Source\PSoC6\pdl\drivers/peripheral/ipc/cy_ipc_drv.h **** *
 688:Generated_Source\PSoC6\pdl\drivers/peripheral/ipc/cy_ipc_drv.h **** * \param notifyEventIntr
 689:Generated_Source\PSoC6\pdl\drivers/peripheral/ipc/cy_ipc_drv.h **** * Bit encoded list of IPC interrupt structures that are triggered
 690:Generated_Source\PSoC6\pdl\drivers/peripheral/ipc/cy_ipc_drv.h **** * by a notification. Bit number correspond to number of the IPC interrupt
 691:Generated_Source\PSoC6\pdl\drivers/peripheral/ipc/cy_ipc_drv.h **** * structure.
 692:Generated_Source\PSoC6\pdl\drivers/peripheral/ipc/cy_ipc_drv.h **** *
 693:Generated_Source\PSoC6\pdl\drivers/peripheral/ipc/cy_ipc_drv.h **** * \funcusage
 694:Generated_Source\PSoC6\pdl\drivers/peripheral/ipc/cy_ipc_drv.h **** * \snippet IPC_sut_01.cydsn/main_cm4.c snippet_Cy_IPC_Drv_LockAcquire
 695:Generated_Source\PSoC6\pdl\drivers/peripheral/ipc/cy_ipc_drv.h **** *
 696:Generated_Source\PSoC6\pdl\drivers/peripheral/ipc/cy_ipc_drv.h **** *******************************************************************************/
 697:Generated_Source\PSoC6\pdl\drivers/peripheral/ipc/cy_ipc_drv.h **** __STATIC_INLINE void  Cy_IPC_Drv_AcquireNotify (IPC_STRUCT_Type* base, uint32_t notifyEventIntr)
 698:Generated_Source\PSoC6\pdl\drivers/peripheral/ipc/cy_ipc_drv.h **** {
 699:Generated_Source\PSoC6\pdl\drivers/peripheral/ipc/cy_ipc_drv.h ****     CY_ASSERT_L1(0ul == (notifyEventIntr  & ~(uint32_t)(IPC_STRUCT_NOTIFY_INTR_NOTIFY_Msk)));
 700:Generated_Source\PSoC6\pdl\drivers/peripheral/ipc/cy_ipc_drv.h ****     REG_IPC_STRUCT_NOTIFY(base) = _VAL2FLD(IPC_STRUCT_NOTIFY_INTR_NOTIFY, notifyEventIntr);
 701:Generated_Source\PSoC6\pdl\drivers/peripheral/ipc/cy_ipc_drv.h **** }
 702:Generated_Source\PSoC6\pdl\drivers/peripheral/ipc/cy_ipc_drv.h **** 
 703:Generated_Source\PSoC6\pdl\drivers/peripheral/ipc/cy_ipc_drv.h **** 
 704:Generated_Source\PSoC6\pdl\drivers/peripheral/ipc/cy_ipc_drv.h **** /*******************************************************************************
 705:Generated_Source\PSoC6\pdl\drivers/peripheral/ipc/cy_ipc_drv.h **** * Function Name: Cy_IPC_Drv_ReleaseNotify
 706:Generated_Source\PSoC6\pdl\drivers/peripheral/ipc/cy_ipc_drv.h **** ****************************************************************************//**
 707:Generated_Source\PSoC6\pdl\drivers/peripheral/ipc/cy_ipc_drv.h **** *
 708:Generated_Source\PSoC6\pdl\drivers/peripheral/ipc/cy_ipc_drv.h **** * The function generates a release notification event by IPC interrupt structure.
 709:Generated_Source\PSoC6\pdl\drivers/peripheral/ipc/cy_ipc_drv.h **** *
 710:Generated_Source\PSoC6\pdl\drivers/peripheral/ipc/cy_ipc_drv.h **** * \param base
 711:Generated_Source\PSoC6\pdl\drivers/peripheral/ipc/cy_ipc_drv.h **** * This parameter is a handle that represents the base address of the registers
 712:Generated_Source\PSoC6\pdl\drivers/peripheral/ipc/cy_ipc_drv.h **** * of the IPC channel.
 713:Generated_Source\PSoC6\pdl\drivers/peripheral/ipc/cy_ipc_drv.h **** * The parameter is generally returned from a call to the \ref
 714:Generated_Source\PSoC6\pdl\drivers/peripheral/ipc/cy_ipc_drv.h **** * Cy_IPC_Drv_GetIpcBaseAddress.
 715:Generated_Source\PSoC6\pdl\drivers/peripheral/ipc/cy_ipc_drv.h **** *
 716:Generated_Source\PSoC6\pdl\drivers/peripheral/ipc/cy_ipc_drv.h **** * \param notifyEventIntr
 717:Generated_Source\PSoC6\pdl\drivers/peripheral/ipc/cy_ipc_drv.h **** * Bit encoded list of IPC interrupt lines that are triggered by a notification.
 718:Generated_Source\PSoC6\pdl\drivers/peripheral/ipc/cy_ipc_drv.h **** *
 719:Generated_Source\PSoC6\pdl\drivers/peripheral/ipc/cy_ipc_drv.h **** * \funcusage
 720:Generated_Source\PSoC6\pdl\drivers/peripheral/ipc/cy_ipc_drv.h **** * \snippet IPC_sut_01.cydsn/main_cm4.c snippet_Cy_IPC_Drv_ReadMsgWord
 721:Generated_Source\PSoC6\pdl\drivers/peripheral/ipc/cy_ipc_drv.h **** *
 722:Generated_Source\PSoC6\pdl\drivers/peripheral/ipc/cy_ipc_drv.h **** *******************************************************************************/
 723:Generated_Source\PSoC6\pdl\drivers/peripheral/ipc/cy_ipc_drv.h **** __STATIC_INLINE void  Cy_IPC_Drv_ReleaseNotify (IPC_STRUCT_Type* base, uint32_t notifyEventIntr)
 724:Generated_Source\PSoC6\pdl\drivers/peripheral/ipc/cy_ipc_drv.h **** {
 725:Generated_Source\PSoC6\pdl\drivers/peripheral/ipc/cy_ipc_drv.h ****     CY_ASSERT_L1(0ul == (notifyEventIntr  & ~(uint32_t)(IPC_INTR_STRUCT_INTR_RELEASE_Msk)));
 726:Generated_Source\PSoC6\pdl\drivers/peripheral/ipc/cy_ipc_drv.h ****     REG_IPC_STRUCT_RELEASE(base) = _VAL2FLD(IPC_INTR_STRUCT_INTR_RELEASE, notifyEventIntr);
 727:Generated_Source\PSoC6\pdl\drivers/peripheral/ipc/cy_ipc_drv.h **** }
 728:Generated_Source\PSoC6\pdl\drivers/peripheral/ipc/cy_ipc_drv.h **** 
 729:Generated_Source\PSoC6\pdl\drivers/peripheral/ipc/cy_ipc_drv.h **** 
 730:Generated_Source\PSoC6\pdl\drivers/peripheral/ipc/cy_ipc_drv.h **** /*******************************************************************************
 731:Generated_Source\PSoC6\pdl\drivers/peripheral/ipc/cy_ipc_drv.h **** * Function Name: Cy_IPC_Drv_WriteDataValue
 732:Generated_Source\PSoC6\pdl\drivers/peripheral/ipc/cy_ipc_drv.h **** ****************************************************************************//**
 733:Generated_Source\PSoC6\pdl\drivers/peripheral/ipc/cy_ipc_drv.h **** *
 734:Generated_Source\PSoC6\pdl\drivers/peripheral/ipc/cy_ipc_drv.h **** * The function writes a value to the DATA register of the IPC channel.
 735:Generated_Source\PSoC6\pdl\drivers/peripheral/ipc/cy_ipc_drv.h **** *
 736:Generated_Source\PSoC6\pdl\drivers/peripheral/ipc/cy_ipc_drv.h **** * This function is internal and should not be called directly by user
 737:Generated_Source\PSoC6\pdl\drivers/peripheral/ipc/cy_ipc_drv.h **** * software.
 738:Generated_Source\PSoC6\pdl\drivers/peripheral/ipc/cy_ipc_drv.h **** *
 739:Generated_Source\PSoC6\pdl\drivers/peripheral/ipc/cy_ipc_drv.h **** * \param base
 740:Generated_Source\PSoC6\pdl\drivers/peripheral/ipc/cy_ipc_drv.h **** * This parameter is a handle that represents the base address of the registers
 741:Generated_Source\PSoC6\pdl\drivers/peripheral/ipc/cy_ipc_drv.h **** * of the IPC channel.
 742:Generated_Source\PSoC6\pdl\drivers/peripheral/ipc/cy_ipc_drv.h **** * The parameter is generally returned from a call to the \ref
 743:Generated_Source\PSoC6\pdl\drivers/peripheral/ipc/cy_ipc_drv.h **** * Cy_IPC_Drv_GetIpcBaseAddress.
ARM GAS  C:\Users\Rolf\AppData\Local\Temp\ccTwK7ru.s 			page 26


 744:Generated_Source\PSoC6\pdl\drivers/peripheral/ipc/cy_ipc_drv.h **** *
 745:Generated_Source\PSoC6\pdl\drivers/peripheral/ipc/cy_ipc_drv.h **** * \param dataValue
 746:Generated_Source\PSoC6\pdl\drivers/peripheral/ipc/cy_ipc_drv.h **** * Value to be written.
 747:Generated_Source\PSoC6\pdl\drivers/peripheral/ipc/cy_ipc_drv.h **** *
 748:Generated_Source\PSoC6\pdl\drivers/peripheral/ipc/cy_ipc_drv.h **** *******************************************************************************/
 749:Generated_Source\PSoC6\pdl\drivers/peripheral/ipc/cy_ipc_drv.h **** __STATIC_INLINE void     Cy_IPC_Drv_WriteDataValue (IPC_STRUCT_Type* base, uint32_t dataValue)
 750:Generated_Source\PSoC6\pdl\drivers/peripheral/ipc/cy_ipc_drv.h **** {
 751:Generated_Source\PSoC6\pdl\drivers/peripheral/ipc/cy_ipc_drv.h ****     REG_IPC_STRUCT_DATA(base) = dataValue;
 752:Generated_Source\PSoC6\pdl\drivers/peripheral/ipc/cy_ipc_drv.h **** }
 753:Generated_Source\PSoC6\pdl\drivers/peripheral/ipc/cy_ipc_drv.h **** 
 754:Generated_Source\PSoC6\pdl\drivers/peripheral/ipc/cy_ipc_drv.h **** 
 755:Generated_Source\PSoC6\pdl\drivers/peripheral/ipc/cy_ipc_drv.h **** /*******************************************************************************
 756:Generated_Source\PSoC6\pdl\drivers/peripheral/ipc/cy_ipc_drv.h **** * Function Name: Cy_IPC_Drv_ReadDataValue
 757:Generated_Source\PSoC6\pdl\drivers/peripheral/ipc/cy_ipc_drv.h **** ****************************************************************************//**
 758:Generated_Source\PSoC6\pdl\drivers/peripheral/ipc/cy_ipc_drv.h **** *
 759:Generated_Source\PSoC6\pdl\drivers/peripheral/ipc/cy_ipc_drv.h **** * The function reads a value from the DATA register of the IPC channel.
 760:Generated_Source\PSoC6\pdl\drivers/peripheral/ipc/cy_ipc_drv.h **** *
 761:Generated_Source\PSoC6\pdl\drivers/peripheral/ipc/cy_ipc_drv.h **** * This function is internal and should not be called directly by user
 762:Generated_Source\PSoC6\pdl\drivers/peripheral/ipc/cy_ipc_drv.h **** * software.
 763:Generated_Source\PSoC6\pdl\drivers/peripheral/ipc/cy_ipc_drv.h **** *
 764:Generated_Source\PSoC6\pdl\drivers/peripheral/ipc/cy_ipc_drv.h **** * \param base
 765:Generated_Source\PSoC6\pdl\drivers/peripheral/ipc/cy_ipc_drv.h **** * This parameter is a handle that represents the base address of the registers
 766:Generated_Source\PSoC6\pdl\drivers/peripheral/ipc/cy_ipc_drv.h **** * of the IPC channel.
 767:Generated_Source\PSoC6\pdl\drivers/peripheral/ipc/cy_ipc_drv.h **** * The parameter is generally returned from a call to the \ref
 768:Generated_Source\PSoC6\pdl\drivers/peripheral/ipc/cy_ipc_drv.h **** * Cy_IPC_Drv_GetIpcBaseAddress.
 769:Generated_Source\PSoC6\pdl\drivers/peripheral/ipc/cy_ipc_drv.h **** *
 770:Generated_Source\PSoC6\pdl\drivers/peripheral/ipc/cy_ipc_drv.h **** * \return
 771:Generated_Source\PSoC6\pdl\drivers/peripheral/ipc/cy_ipc_drv.h **** * Value from DATA register.
 772:Generated_Source\PSoC6\pdl\drivers/peripheral/ipc/cy_ipc_drv.h **** *
 773:Generated_Source\PSoC6\pdl\drivers/peripheral/ipc/cy_ipc_drv.h **** *******************************************************************************/
 774:Generated_Source\PSoC6\pdl\drivers/peripheral/ipc/cy_ipc_drv.h **** __STATIC_INLINE uint32_t Cy_IPC_Drv_ReadDataValue (IPC_STRUCT_Type const * base)
 775:Generated_Source\PSoC6\pdl\drivers/peripheral/ipc/cy_ipc_drv.h **** {
 776:Generated_Source\PSoC6\pdl\drivers/peripheral/ipc/cy_ipc_drv.h ****     return REG_IPC_STRUCT_DATA(base);
 777:Generated_Source\PSoC6\pdl\drivers/peripheral/ipc/cy_ipc_drv.h **** }
 778:Generated_Source\PSoC6\pdl\drivers/peripheral/ipc/cy_ipc_drv.h **** 
 779:Generated_Source\PSoC6\pdl\drivers/peripheral/ipc/cy_ipc_drv.h **** 
 780:Generated_Source\PSoC6\pdl\drivers/peripheral/ipc/cy_ipc_drv.h **** /*******************************************************************************
 781:Generated_Source\PSoC6\pdl\drivers/peripheral/ipc/cy_ipc_drv.h **** * Function Name: Cy_IPC_Drv_IsLockAcquired
 782:Generated_Source\PSoC6\pdl\drivers/peripheral/ipc/cy_ipc_drv.h **** ****************************************************************************//**
 783:Generated_Source\PSoC6\pdl\drivers/peripheral/ipc/cy_ipc_drv.h **** *
 784:Generated_Source\PSoC6\pdl\drivers/peripheral/ipc/cy_ipc_drv.h **** * The function is used to test the status of an IPC channel. The function
 785:Generated_Source\PSoC6\pdl\drivers/peripheral/ipc/cy_ipc_drv.h **** * tells the reader if the IPC channel was in the locked or released state.
 786:Generated_Source\PSoC6\pdl\drivers/peripheral/ipc/cy_ipc_drv.h **** *
 787:Generated_Source\PSoC6\pdl\drivers/peripheral/ipc/cy_ipc_drv.h **** * \param base
 788:Generated_Source\PSoC6\pdl\drivers/peripheral/ipc/cy_ipc_drv.h **** * This parameter is a handle that represents the base address of the registers
 789:Generated_Source\PSoC6\pdl\drivers/peripheral/ipc/cy_ipc_drv.h **** * of the IPC channel.
 790:Generated_Source\PSoC6\pdl\drivers/peripheral/ipc/cy_ipc_drv.h **** * The parameter is generally returned from a call to the \ref
 791:Generated_Source\PSoC6\pdl\drivers/peripheral/ipc/cy_ipc_drv.h **** * Cy_IPC_Drv_GetIpcBaseAddress.
 792:Generated_Source\PSoC6\pdl\drivers/peripheral/ipc/cy_ipc_drv.h **** *
 793:Generated_Source\PSoC6\pdl\drivers/peripheral/ipc/cy_ipc_drv.h **** * \return
 794:Generated_Source\PSoC6\pdl\drivers/peripheral/ipc/cy_ipc_drv.h **** *   Status for the function:
 795:Generated_Source\PSoC6\pdl\drivers/peripheral/ipc/cy_ipc_drv.h **** *   true:  The IPC channel is in the Locked state.
 796:Generated_Source\PSoC6\pdl\drivers/peripheral/ipc/cy_ipc_drv.h **** *   false: The IPC channel is in the Released state.
 797:Generated_Source\PSoC6\pdl\drivers/peripheral/ipc/cy_ipc_drv.h **** *
 798:Generated_Source\PSoC6\pdl\drivers/peripheral/ipc/cy_ipc_drv.h **** * \funcusage
 799:Generated_Source\PSoC6\pdl\drivers/peripheral/ipc/cy_ipc_drv.h **** * \snippet IPC_sut_01.cydsn/main_cm4.c snippet_Cy_IPC_Drv_LockAcquire
 800:Generated_Source\PSoC6\pdl\drivers/peripheral/ipc/cy_ipc_drv.h **** *
ARM GAS  C:\Users\Rolf\AppData\Local\Temp\ccTwK7ru.s 			page 27


 801:Generated_Source\PSoC6\pdl\drivers/peripheral/ipc/cy_ipc_drv.h **** *******************************************************************************/
 802:Generated_Source\PSoC6\pdl\drivers/peripheral/ipc/cy_ipc_drv.h **** __STATIC_INLINE bool Cy_IPC_Drv_IsLockAcquired (IPC_STRUCT_Type const * base)
 803:Generated_Source\PSoC6\pdl\drivers/peripheral/ipc/cy_ipc_drv.h **** {
 804:Generated_Source\PSoC6\pdl\drivers/peripheral/ipc/cy_ipc_drv.h ****     return ( 0u != _FLD2VAL(IPC_STRUCT_ACQUIRE_SUCCESS, REG_IPC_STRUCT_LOCK_STATUS(base)) );
 805:Generated_Source\PSoC6\pdl\drivers/peripheral/ipc/cy_ipc_drv.h **** }
 806:Generated_Source\PSoC6\pdl\drivers/peripheral/ipc/cy_ipc_drv.h **** 
 807:Generated_Source\PSoC6\pdl\drivers/peripheral/ipc/cy_ipc_drv.h **** 
 808:Generated_Source\PSoC6\pdl\drivers/peripheral/ipc/cy_ipc_drv.h **** /*******************************************************************************
 809:Generated_Source\PSoC6\pdl\drivers/peripheral/ipc/cy_ipc_drv.h **** * Function Name: Cy_IPC_Drv_GetLockStatus
 810:Generated_Source\PSoC6\pdl\drivers/peripheral/ipc/cy_ipc_drv.h **** ****************************************************************************//**
 811:Generated_Source\PSoC6\pdl\drivers/peripheral/ipc/cy_ipc_drv.h **** *
 812:Generated_Source\PSoC6\pdl\drivers/peripheral/ipc/cy_ipc_drv.h **** * The function is used to get the status of an IPC channel.
 813:Generated_Source\PSoC6\pdl\drivers/peripheral/ipc/cy_ipc_drv.h **** *
 814:Generated_Source\PSoC6\pdl\drivers/peripheral/ipc/cy_ipc_drv.h **** * \param base
 815:Generated_Source\PSoC6\pdl\drivers/peripheral/ipc/cy_ipc_drv.h **** * This parameter is a handle that represents the base address of the registers
 816:Generated_Source\PSoC6\pdl\drivers/peripheral/ipc/cy_ipc_drv.h **** * of the IPC channel.
 817:Generated_Source\PSoC6\pdl\drivers/peripheral/ipc/cy_ipc_drv.h **** * The parameter is generally returned from a call to the \ref
 818:Generated_Source\PSoC6\pdl\drivers/peripheral/ipc/cy_ipc_drv.h **** * Cy_IPC_Drv_GetIpcBaseAddress.
 819:Generated_Source\PSoC6\pdl\drivers/peripheral/ipc/cy_ipc_drv.h **** *
 820:Generated_Source\PSoC6\pdl\drivers/peripheral/ipc/cy_ipc_drv.h **** * \return
 821:Generated_Source\PSoC6\pdl\drivers/peripheral/ipc/cy_ipc_drv.h **** * Value from LOCK_STATUS register.
 822:Generated_Source\PSoC6\pdl\drivers/peripheral/ipc/cy_ipc_drv.h **** *
 823:Generated_Source\PSoC6\pdl\drivers/peripheral/ipc/cy_ipc_drv.h **** * \funcusage
 824:Generated_Source\PSoC6\pdl\drivers/peripheral/ipc/cy_ipc_drv.h **** * \snippet IPC_sut_01.cydsn/main_cm4.c snippet_Cy_IPC_Drv_GetLockStatus
 825:Generated_Source\PSoC6\pdl\drivers/peripheral/ipc/cy_ipc_drv.h **** *
 826:Generated_Source\PSoC6\pdl\drivers/peripheral/ipc/cy_ipc_drv.h **** *******************************************************************************/
 827:Generated_Source\PSoC6\pdl\drivers/peripheral/ipc/cy_ipc_drv.h **** __STATIC_INLINE uint32_t Cy_IPC_Drv_GetLockStatus (IPC_STRUCT_Type const * base)
 828:Generated_Source\PSoC6\pdl\drivers/peripheral/ipc/cy_ipc_drv.h **** {
 829:Generated_Source\PSoC6\pdl\drivers/peripheral/ipc/cy_ipc_drv.h ****     return REG_IPC_STRUCT_LOCK_STATUS(base);
 830:Generated_Source\PSoC6\pdl\drivers/peripheral/ipc/cy_ipc_drv.h **** }
 831:Generated_Source\PSoC6\pdl\drivers/peripheral/ipc/cy_ipc_drv.h **** 
 832:Generated_Source\PSoC6\pdl\drivers/peripheral/ipc/cy_ipc_drv.h **** 
 833:Generated_Source\PSoC6\pdl\drivers/peripheral/ipc/cy_ipc_drv.h **** /*******************************************************************************
 834:Generated_Source\PSoC6\pdl\drivers/peripheral/ipc/cy_ipc_drv.h **** * Function Name: Cy_IPC_Drv_ExtractAcquireMask
 835:Generated_Source\PSoC6\pdl\drivers/peripheral/ipc/cy_ipc_drv.h **** ****************************************************************************//**
 836:Generated_Source\PSoC6\pdl\drivers/peripheral/ipc/cy_ipc_drv.h **** *
 837:Generated_Source\PSoC6\pdl\drivers/peripheral/ipc/cy_ipc_drv.h **** * The function extracts an Acquire mask part from full interrupt mask value.
 838:Generated_Source\PSoC6\pdl\drivers/peripheral/ipc/cy_ipc_drv.h **** *
 839:Generated_Source\PSoC6\pdl\drivers/peripheral/ipc/cy_ipc_drv.h **** * This function is internal and should not be called directly by user
 840:Generated_Source\PSoC6\pdl\drivers/peripheral/ipc/cy_ipc_drv.h **** * software.
 841:Generated_Source\PSoC6\pdl\drivers/peripheral/ipc/cy_ipc_drv.h **** *
 842:Generated_Source\PSoC6\pdl\drivers/peripheral/ipc/cy_ipc_drv.h **** * \param intMask
 843:Generated_Source\PSoC6\pdl\drivers/peripheral/ipc/cy_ipc_drv.h **** * Interrupt mask value to be processed.
 844:Generated_Source\PSoC6\pdl\drivers/peripheral/ipc/cy_ipc_drv.h **** *
 845:Generated_Source\PSoC6\pdl\drivers/peripheral/ipc/cy_ipc_drv.h **** * \return
 846:Generated_Source\PSoC6\pdl\drivers/peripheral/ipc/cy_ipc_drv.h **** * Acquire mask value.
 847:Generated_Source\PSoC6\pdl\drivers/peripheral/ipc/cy_ipc_drv.h **** *
 848:Generated_Source\PSoC6\pdl\drivers/peripheral/ipc/cy_ipc_drv.h **** *******************************************************************************/
 849:Generated_Source\PSoC6\pdl\drivers/peripheral/ipc/cy_ipc_drv.h **** __STATIC_INLINE uint32_t Cy_IPC_Drv_ExtractAcquireMask (uint32_t intMask)
 850:Generated_Source\PSoC6\pdl\drivers/peripheral/ipc/cy_ipc_drv.h **** {
 851:Generated_Source\PSoC6\pdl\drivers/peripheral/ipc/cy_ipc_drv.h ****     return _FLD2VAL(IPC_INTR_STRUCT_INTR_MASK_NOTIFY, intMask);
 852:Generated_Source\PSoC6\pdl\drivers/peripheral/ipc/cy_ipc_drv.h **** }
 853:Generated_Source\PSoC6\pdl\drivers/peripheral/ipc/cy_ipc_drv.h **** 
 854:Generated_Source\PSoC6\pdl\drivers/peripheral/ipc/cy_ipc_drv.h **** 
 855:Generated_Source\PSoC6\pdl\drivers/peripheral/ipc/cy_ipc_drv.h **** /*******************************************************************************
 856:Generated_Source\PSoC6\pdl\drivers/peripheral/ipc/cy_ipc_drv.h **** * Function Name: Cy_IPC_Drv_ExtractReleaseMask
 857:Generated_Source\PSoC6\pdl\drivers/peripheral/ipc/cy_ipc_drv.h **** ****************************************************************************//**
ARM GAS  C:\Users\Rolf\AppData\Local\Temp\ccTwK7ru.s 			page 28


 858:Generated_Source\PSoC6\pdl\drivers/peripheral/ipc/cy_ipc_drv.h **** *
 859:Generated_Source\PSoC6\pdl\drivers/peripheral/ipc/cy_ipc_drv.h **** * The function extracts a Release mask part from full interrupt mask value.
 860:Generated_Source\PSoC6\pdl\drivers/peripheral/ipc/cy_ipc_drv.h **** *
 861:Generated_Source\PSoC6\pdl\drivers/peripheral/ipc/cy_ipc_drv.h **** * This function is internal and should not be called directly by user
 862:Generated_Source\PSoC6\pdl\drivers/peripheral/ipc/cy_ipc_drv.h **** * software.
 863:Generated_Source\PSoC6\pdl\drivers/peripheral/ipc/cy_ipc_drv.h **** *
 864:Generated_Source\PSoC6\pdl\drivers/peripheral/ipc/cy_ipc_drv.h **** * \param intMask
 865:Generated_Source\PSoC6\pdl\drivers/peripheral/ipc/cy_ipc_drv.h **** * Interrupt mask value to be processed.
 866:Generated_Source\PSoC6\pdl\drivers/peripheral/ipc/cy_ipc_drv.h **** *
 867:Generated_Source\PSoC6\pdl\drivers/peripheral/ipc/cy_ipc_drv.h **** * \return
 868:Generated_Source\PSoC6\pdl\drivers/peripheral/ipc/cy_ipc_drv.h **** * Release mask value.
 869:Generated_Source\PSoC6\pdl\drivers/peripheral/ipc/cy_ipc_drv.h **** *
 870:Generated_Source\PSoC6\pdl\drivers/peripheral/ipc/cy_ipc_drv.h **** *******************************************************************************/
 871:Generated_Source\PSoC6\pdl\drivers/peripheral/ipc/cy_ipc_drv.h **** __STATIC_INLINE uint32_t Cy_IPC_Drv_ExtractReleaseMask (uint32_t intMask)
 872:Generated_Source\PSoC6\pdl\drivers/peripheral/ipc/cy_ipc_drv.h **** {
 873:Generated_Source\PSoC6\pdl\drivers/peripheral/ipc/cy_ipc_drv.h ****     return _FLD2VAL(IPC_INTR_STRUCT_INTR_MASK_RELEASE, intMask);
 874:Generated_Source\PSoC6\pdl\drivers/peripheral/ipc/cy_ipc_drv.h **** }
 875:Generated_Source\PSoC6\pdl\drivers/peripheral/ipc/cy_ipc_drv.h **** 
 876:Generated_Source\PSoC6\pdl\drivers/peripheral/ipc/cy_ipc_drv.h **** 
 877:Generated_Source\PSoC6\pdl\drivers/peripheral/ipc/cy_ipc_drv.h **** /*******************************************************************************
 878:Generated_Source\PSoC6\pdl\drivers/peripheral/ipc/cy_ipc_drv.h **** * Function Name: Cy_IPC_Drv_SendMsgPtr
 879:Generated_Source\PSoC6\pdl\drivers/peripheral/ipc/cy_ipc_drv.h **** ****************************************************************************//**
 880:Generated_Source\PSoC6\pdl\drivers/peripheral/ipc/cy_ipc_drv.h **** *
 881:Generated_Source\PSoC6\pdl\drivers/peripheral/ipc/cy_ipc_drv.h **** * This function is used to send a message pointer through an IPC channel.
 882:Generated_Source\PSoC6\pdl\drivers/peripheral/ipc/cy_ipc_drv.h **** * The message structure may hold a generic pointer that may contain the address
 883:Generated_Source\PSoC6\pdl\drivers/peripheral/ipc/cy_ipc_drv.h **** * of any user data type or structure. This parameter could be a pointer to a 32-bit
 884:Generated_Source\PSoC6\pdl\drivers/peripheral/ipc/cy_ipc_drv.h **** * integer, an array, or even a data structure defined in the user code. This
 885:Generated_Source\PSoC6\pdl\drivers/peripheral/ipc/cy_ipc_drv.h **** * function acts as a transfer engine for sending the pointer. Any memory
 886:Generated_Source\PSoC6\pdl\drivers/peripheral/ipc/cy_ipc_drv.h **** * management of the pointer allocation and deallocation is up to the application
 887:Generated_Source\PSoC6\pdl\drivers/peripheral/ipc/cy_ipc_drv.h **** * code.
 888:Generated_Source\PSoC6\pdl\drivers/peripheral/ipc/cy_ipc_drv.h **** * The function also has an associated notification field that will let the
 889:Generated_Source\PSoC6\pdl\drivers/peripheral/ipc/cy_ipc_drv.h **** * message notify one or multiple interrupts.
 890:Generated_Source\PSoC6\pdl\drivers/peripheral/ipc/cy_ipc_drv.h **** *
 891:Generated_Source\PSoC6\pdl\drivers/peripheral/ipc/cy_ipc_drv.h **** * \param base
 892:Generated_Source\PSoC6\pdl\drivers/peripheral/ipc/cy_ipc_drv.h **** * This parameter is a handle that represents the base address of the registers
 893:Generated_Source\PSoC6\pdl\drivers/peripheral/ipc/cy_ipc_drv.h **** * of the IPC channel.
 894:Generated_Source\PSoC6\pdl\drivers/peripheral/ipc/cy_ipc_drv.h **** * The parameter is generally returned from a call to the \ref
 895:Generated_Source\PSoC6\pdl\drivers/peripheral/ipc/cy_ipc_drv.h **** * Cy_IPC_Drv_GetIpcBaseAddress.
 896:Generated_Source\PSoC6\pdl\drivers/peripheral/ipc/cy_ipc_drv.h **** *
 897:Generated_Source\PSoC6\pdl\drivers/peripheral/ipc/cy_ipc_drv.h **** * \param notifyEventIntr
 898:Generated_Source\PSoC6\pdl\drivers/peripheral/ipc/cy_ipc_drv.h **** * Bit encoded list of IPC interrupt lines that are triggered during the release
 899:Generated_Source\PSoC6\pdl\drivers/peripheral/ipc/cy_ipc_drv.h **** * action.
 900:Generated_Source\PSoC6\pdl\drivers/peripheral/ipc/cy_ipc_drv.h **** *
 901:Generated_Source\PSoC6\pdl\drivers/peripheral/ipc/cy_ipc_drv.h **** * \param msgPtr
 902:Generated_Source\PSoC6\pdl\drivers/peripheral/ipc/cy_ipc_drv.h **** * The message pointer that is being sent over the IPC channel.
 903:Generated_Source\PSoC6\pdl\drivers/peripheral/ipc/cy_ipc_drv.h **** *
 904:Generated_Source\PSoC6\pdl\drivers/peripheral/ipc/cy_ipc_drv.h **** * \return   Status of the operation:
 905:Generated_Source\PSoC6\pdl\drivers/peripheral/ipc/cy_ipc_drv.h **** *   \retval CY_IPC_DRV_SUCCESS: The send operation was successful.
 906:Generated_Source\PSoC6\pdl\drivers/peripheral/ipc/cy_ipc_drv.h **** *   \retval CY_IPC_DRV_ERROR:   The IPC channel is unavailable because
 907:Generated_Source\PSoC6\pdl\drivers/peripheral/ipc/cy_ipc_drv.h **** *                               it is already locked.
 908:Generated_Source\PSoC6\pdl\drivers/peripheral/ipc/cy_ipc_drv.h **** *
 909:Generated_Source\PSoC6\pdl\drivers/peripheral/ipc/cy_ipc_drv.h **** * \funcusage
 910:Generated_Source\PSoC6\pdl\drivers/peripheral/ipc/cy_ipc_drv.h **** * \snippet IPC_sut_01.cydsn/main_cm4.c snippet_Cy_IPC_Drv_SendMsgPtr
 911:Generated_Source\PSoC6\pdl\drivers/peripheral/ipc/cy_ipc_drv.h **** *
 912:Generated_Source\PSoC6\pdl\drivers/peripheral/ipc/cy_ipc_drv.h **** *******************************************************************************/
 913:Generated_Source\PSoC6\pdl\drivers/peripheral/ipc/cy_ipc_drv.h **** __STATIC_INLINE cy_en_ipcdrv_status_t  Cy_IPC_Drv_SendMsgPtr(IPC_STRUCT_Type* base, uint32_t notify
 914:Generated_Source\PSoC6\pdl\drivers/peripheral/ipc/cy_ipc_drv.h **** {
ARM GAS  C:\Users\Rolf\AppData\Local\Temp\ccTwK7ru.s 			page 29


 915:Generated_Source\PSoC6\pdl\drivers/peripheral/ipc/cy_ipc_drv.h ****     CY_ASSERT_L1(NULL != msgPtr);
 916:Generated_Source\PSoC6\pdl\drivers/peripheral/ipc/cy_ipc_drv.h ****     return Cy_IPC_Drv_SendMsgWord(base, notifyEventIntr, (uint32_t)msgPtr);
 376              		.loc 2 916 0
 377 001e 124A     		ldr	r2, .L35+8
 378 0020 0121     		movs	r1, #1
 379 0022 FFF7FEFF 		bl	Cy_IPC_Drv_SendMsgWord
 380              	.LVL20:
 381              	.LBE17:
 382              	.LBE16:
 307:Generated_Source\PSoC6\pdl\drivers\peripheral\syslib/cy_syslib.c ****     static uint32_t msg = CY_IPC_DATA_FOR_CM4_SOFT_RESET;
 308:Generated_Source\PSoC6\pdl\drivers\peripheral\syslib/cy_syslib.c **** 
 309:Generated_Source\PSoC6\pdl\drivers\peripheral\syslib/cy_syslib.c ****     /* Tries to acquire the IPC structure and pass the arguments to SROM API.
 310:Generated_Source\PSoC6\pdl\drivers\peripheral\syslib/cy_syslib.c ****     *  SROM API parameters:
 311:Generated_Source\PSoC6\pdl\drivers\peripheral\syslib/cy_syslib.c ****     *   ipcPtr: IPC Structure 0 reserved for M0+ Secure Access.
 312:Generated_Source\PSoC6\pdl\drivers\peripheral\syslib/cy_syslib.c ****     *   notifyEvent_Intr: 1U - IPC Interrupt Structure 1 is used for Releasing IPC 0 (M0+ NMI Handl
 313:Generated_Source\PSoC6\pdl\drivers\peripheral\syslib/cy_syslib.c ****     *   msgPtr: &msg - The address of SRAM with the API's parameters.
 314:Generated_Source\PSoC6\pdl\drivers\peripheral\syslib/cy_syslib.c ****     */
 315:Generated_Source\PSoC6\pdl\drivers\peripheral\syslib/cy_syslib.c ****     if(CY_IPC_DRV_SUCCESS != Cy_IPC_Drv_SendMsgPtr(Cy_IPC_Drv_GetIpcBaseAddress(CY_IPC_CHAN_SYSCALL
 383              		.loc 1 315 0
 384 0026 0028     		cmp	r0, #0
 385 0028 04D0     		beq	.L34
 316:Generated_Source\PSoC6\pdl\drivers\peripheral\syslib/cy_syslib.c ****     {
 317:Generated_Source\PSoC6\pdl\drivers\peripheral\syslib/cy_syslib.c ****         CY_ASSERT(0U != 0U);
 386              		.loc 1 317 0 discriminator 1
 387 002a 3E21     		movs	r1, #62
 388 002c FF31     		adds	r1, r1, #255
 389 002e 0F48     		ldr	r0, .L35+12
 390 0030 FFF7FEFF 		bl	Cy_SysLib_AssertFailed
 391              	.LVL21:
 392              	.L34:
 393              	.LBB18:
 394              	.LBB19:
 451:Generated_Source\PSoC6\pdl\drivers/peripheral/ipc/cy_ipc_drv.h ****     return ( (IPC_STRUCT_Type*) CY_IPC_STRUCT_PTR(ipcIndex));
 395              		.loc 2 451 0 discriminator 1
 396 0034 0A4B     		ldr	r3, .L35
 397 0036 1A68     		ldr	r2, [r3]
 398 0038 3123     		movs	r3, #49
 399 003a D35C     		ldrb	r3, [r2, r3]
 400 003c 002B     		cmp	r3, #0
 401 003e 04D1     		bne	.L33
 451:Generated_Source\PSoC6\pdl\drivers/peripheral/ipc/cy_ipc_drv.h ****     return ( (IPC_STRUCT_Type*) CY_IPC_STRUCT_PTR(ipcIndex));
 402              		.loc 2 451 0 is_stmt 0
 403 0040 C421     		movs	r1, #196
 404 0042 FF31     		adds	r1, r1, #255
 405 0044 0748     		ldr	r0, .L35+4
 406 0046 FFF7FEFF 		bl	Cy_SysLib_AssertFailed
 407              	.LVL22:
 408              	.L33:
 452:Generated_Source\PSoC6\pdl\drivers/peripheral/ipc/cy_ipc_drv.h **** }
 409              		.loc 2 452 0 is_stmt 1
 410 004a 054B     		ldr	r3, .L35
 411 004c 1A68     		ldr	r2, [r3]
 412 004e 136A     		ldr	r3, [r2, #32]
 413              	.LVL23:
 414              	.LBE19:
 415              	.LBE18:
 416              	.LBB20:
ARM GAS  C:\Users\Rolf\AppData\Local\Temp\ccTwK7ru.s 			page 30


 417              	.LBB21:
 804:Generated_Source\PSoC6\pdl\drivers/peripheral/ipc/cy_ipc_drv.h **** }
 418              		.loc 2 804 0
 419 0050 B421     		movs	r1, #180
 420 0052 5258     		ldr	r2, [r2, r1]
 421 0054 D318     		adds	r3, r2, r3
 422 0056 1B68     		ldr	r3, [r3]
 423              	.LBE21:
 424              	.LBE20:
 318:Generated_Source\PSoC6\pdl\drivers\peripheral\syslib/cy_syslib.c ****     }
 319:Generated_Source\PSoC6\pdl\drivers\peripheral\syslib/cy_syslib.c **** 
 320:Generated_Source\PSoC6\pdl\drivers\peripheral\syslib/cy_syslib.c ****     while(Cy_IPC_Drv_IsLockAcquired(Cy_IPC_Drv_GetIpcBaseAddress(CY_IPC_CHAN_SYSCALL_CM0)))
 425              		.loc 1 320 0
 426 0058 002B     		cmp	r3, #0
 427 005a EBDB     		blt	.L34
 321:Generated_Source\PSoC6\pdl\drivers\peripheral\syslib/cy_syslib.c ****     {
 322:Generated_Source\PSoC6\pdl\drivers\peripheral\syslib/cy_syslib.c ****         /* Waits until SROM API runs the command (sent over the IPC channel) and releases the IPC0 
 323:Generated_Source\PSoC6\pdl\drivers\peripheral\syslib/cy_syslib.c ****     }
 324:Generated_Source\PSoC6\pdl\drivers\peripheral\syslib/cy_syslib.c **** }
 428              		.loc 1 324 0
 429              		@ sp needed
 430 005c 10BD     		pop	{r4, pc}
 431              	.L36:
 432 005e C046     		.align	2
 433              	.L35:
 434 0060 00000000 		.word	cy_device
 435 0064 00000000 		.word	.LC6
 436 0068 00000000 		.word	.LANCHOR1
 437 006c 40000000 		.word	.LC9
 438              		.cfi_endproc
 439              	.LFE72:
 440              		.size	Cy_SysLib_SoftResetCM4, .-Cy_SysLib_SoftResetCM4
 441              		.section	.text.Cy_SysLib_GetUniqueId,"ax",%progbits
 442              		.align	2
 443              		.global	Cy_SysLib_GetUniqueId
 444              		.code	16
 445              		.thumb_func
 446              		.type	Cy_SysLib_GetUniqueId, %function
 447              	Cy_SysLib_GetUniqueId:
 448              	.LFB73:
 325:Generated_Source\PSoC6\pdl\drivers\peripheral\syslib/cy_syslib.c **** #endif /* CY_CPU_CORTEX_M0P || defined(CY_DOXYGEN) */
 326:Generated_Source\PSoC6\pdl\drivers\peripheral\syslib/cy_syslib.c **** 
 327:Generated_Source\PSoC6\pdl\drivers\peripheral\syslib/cy_syslib.c **** 
 328:Generated_Source\PSoC6\pdl\drivers\peripheral\syslib/cy_syslib.c **** /*******************************************************************************
 329:Generated_Source\PSoC6\pdl\drivers\peripheral\syslib/cy_syslib.c **** * Function Name: Cy_SysLib_GetUniqueId
 330:Generated_Source\PSoC6\pdl\drivers\peripheral\syslib/cy_syslib.c **** ****************************************************************************//**
 331:Generated_Source\PSoC6\pdl\drivers\peripheral\syslib/cy_syslib.c **** *
 332:Generated_Source\PSoC6\pdl\drivers\peripheral\syslib/cy_syslib.c **** * This function returns the silicon unique ID.
 333:Generated_Source\PSoC6\pdl\drivers\peripheral\syslib/cy_syslib.c **** * The ID includes Die lot[3]#, Die Wafer#, Die X, Die Y, Die Sort#, Die Minor
 334:Generated_Source\PSoC6\pdl\drivers\peripheral\syslib/cy_syslib.c **** * and Die Year.
 335:Generated_Source\PSoC6\pdl\drivers\peripheral\syslib/cy_syslib.c **** *
 336:Generated_Source\PSoC6\pdl\drivers\peripheral\syslib/cy_syslib.c **** * \return  A combined 64-bit unique ID.
 337:Generated_Source\PSoC6\pdl\drivers\peripheral\syslib/cy_syslib.c **** *          [63:57] - DIE_YEAR
 338:Generated_Source\PSoC6\pdl\drivers\peripheral\syslib/cy_syslib.c **** *          [56:56] - DIE_MINOR
 339:Generated_Source\PSoC6\pdl\drivers\peripheral\syslib/cy_syslib.c **** *          [55:48] - DIE_SORT
 340:Generated_Source\PSoC6\pdl\drivers\peripheral\syslib/cy_syslib.c **** *          [47:40] - DIE_Y
 341:Generated_Source\PSoC6\pdl\drivers\peripheral\syslib/cy_syslib.c **** *          [39:32] - DIE_X
ARM GAS  C:\Users\Rolf\AppData\Local\Temp\ccTwK7ru.s 			page 31


 342:Generated_Source\PSoC6\pdl\drivers\peripheral\syslib/cy_syslib.c **** *          [31:24] - DIE_WAFER
 343:Generated_Source\PSoC6\pdl\drivers\peripheral\syslib/cy_syslib.c **** *          [23:16] - DIE_LOT[2]
 344:Generated_Source\PSoC6\pdl\drivers\peripheral\syslib/cy_syslib.c **** *          [15: 8] - DIE_LOT[1]
 345:Generated_Source\PSoC6\pdl\drivers\peripheral\syslib/cy_syslib.c **** *          [ 7: 0] - DIE_LOT[0]
 346:Generated_Source\PSoC6\pdl\drivers\peripheral\syslib/cy_syslib.c **** *
 347:Generated_Source\PSoC6\pdl\drivers\peripheral\syslib/cy_syslib.c **** *******************************************************************************/
 348:Generated_Source\PSoC6\pdl\drivers\peripheral\syslib/cy_syslib.c **** uint64_t Cy_SysLib_GetUniqueId(void)
 349:Generated_Source\PSoC6\pdl\drivers\peripheral\syslib/cy_syslib.c **** {
 449              		.loc 1 349 0
 450              		.cfi_startproc
 451              		@ args = 0, pretend = 0, frame = 0
 452              		@ frame_needed = 0, uses_anonymous_args = 0
 453              		@ link register save eliminated.
 350:Generated_Source\PSoC6\pdl\drivers\peripheral\syslib/cy_syslib.c ****     uint32_t uniqueIdHi;
 351:Generated_Source\PSoC6\pdl\drivers\peripheral\syslib/cy_syslib.c ****     uint32_t uniqueIdLo;
 352:Generated_Source\PSoC6\pdl\drivers\peripheral\syslib/cy_syslib.c **** 
 353:Generated_Source\PSoC6\pdl\drivers\peripheral\syslib/cy_syslib.c ****     uniqueIdHi = ((uint32_t) SFLASH_DIE_YEAR        << (CY_UNIQUE_ID_DIE_YEAR_Pos  - CY_UNIQUE_ID_D
 454              		.loc 1 353 0
 455 0000 B023     		movs	r3, #176
 456 0002 5B05     		lsls	r3, r3, #21
 457 0004 114A     		ldr	r2, .L38
 458 0006 9A5C     		ldrb	r2, [r3, r2]
 459 0008 5106     		lsls	r1, r2, #25
 354:Generated_Source\PSoC6\pdl\drivers\peripheral\syslib/cy_syslib.c ****                  (((uint32_t)SFLASH_DIE_MINOR & 1U) << (CY_UNIQUE_ID_DIE_MINOR_Pos - CY_UNIQUE_ID_D
 460              		.loc 1 354 0
 461 000a 114A     		ldr	r2, .L38+4
 462 000c 9A5C     		ldrb	r2, [r3, r2]
 463 000e 0120     		movs	r0, #1
 464 0010 0240     		ands	r2, r0
 465 0012 1206     		lsls	r2, r2, #24
 353:Generated_Source\PSoC6\pdl\drivers\peripheral\syslib/cy_syslib.c ****                  (((uint32_t)SFLASH_DIE_MINOR & 1U) << (CY_UNIQUE_ID_DIE_MINOR_Pos - CY_UNIQUE_ID_D
 466              		.loc 1 353 0
 467 0014 0A43     		orrs	r2, r1
 355:Generated_Source\PSoC6\pdl\drivers\peripheral\syslib/cy_syslib.c ****                  ((uint32_t) SFLASH_DIE_SORT        << (CY_UNIQUE_ID_DIE_SORT_Pos  - CY_UNIQUE_ID_D
 468              		.loc 1 355 0
 469 0016 0F49     		ldr	r1, .L38+8
 470 0018 595C     		ldrb	r1, [r3, r1]
 471 001a 0904     		lsls	r1, r1, #16
 354:Generated_Source\PSoC6\pdl\drivers\peripheral\syslib/cy_syslib.c ****                  (((uint32_t)SFLASH_DIE_MINOR & 1U) << (CY_UNIQUE_ID_DIE_MINOR_Pos - CY_UNIQUE_ID_D
 472              		.loc 1 354 0
 473 001c 0A43     		orrs	r2, r1
 356:Generated_Source\PSoC6\pdl\drivers\peripheral\syslib/cy_syslib.c ****                  ((uint32_t) SFLASH_DIE_Y           << (CY_UNIQUE_ID_DIE_Y_Pos     - CY_UNIQUE_ID_D
 474              		.loc 1 356 0
 475 001e 0E49     		ldr	r1, .L38+12
 476 0020 585C     		ldrb	r0, [r3, r1]
 477 0022 0002     		lsls	r0, r0, #8
 355:Generated_Source\PSoC6\pdl\drivers\peripheral\syslib/cy_syslib.c ****                  ((uint32_t) SFLASH_DIE_SORT        << (CY_UNIQUE_ID_DIE_SORT_Pos  - CY_UNIQUE_ID_D
 478              		.loc 1 355 0
 479 0024 0243     		orrs	r2, r0
 357:Generated_Source\PSoC6\pdl\drivers\peripheral\syslib/cy_syslib.c ****                  ((uint32_t) SFLASH_DIE_X);
 480              		.loc 1 357 0
 481 0026 0D49     		ldr	r1, .L38+16
 482 0028 595C     		ldrb	r1, [r3, r1]
 353:Generated_Source\PSoC6\pdl\drivers\peripheral\syslib/cy_syslib.c ****                  (((uint32_t)SFLASH_DIE_MINOR & 1U) << (CY_UNIQUE_ID_DIE_MINOR_Pos - CY_UNIQUE_ID_D
 483              		.loc 1 353 0
 484 002a 1143     		orrs	r1, r2
 485              	.LVL24:
ARM GAS  C:\Users\Rolf\AppData\Local\Temp\ccTwK7ru.s 			page 32


 358:Generated_Source\PSoC6\pdl\drivers\peripheral\syslib/cy_syslib.c **** 
 359:Generated_Source\PSoC6\pdl\drivers\peripheral\syslib/cy_syslib.c ****     uniqueIdLo = ((uint32_t) SFLASH_DIE_WAFER       << CY_UNIQUE_ID_DIE_WAFER_Pos) |
 486              		.loc 1 359 0
 487 002c 0C4A     		ldr	r2, .L38+20
 488 002e 985C     		ldrb	r0, [r3, r2]
 489 0030 0006     		lsls	r0, r0, #24
 360:Generated_Source\PSoC6\pdl\drivers\peripheral\syslib/cy_syslib.c ****                  ((uint32_t) SFLASH_DIE_LOT(2U)     << CY_UNIQUE_ID_DIE_LOT_2_Pos) |
 490              		.loc 1 360 0
 491 0032 0C4A     		ldr	r2, .L38+24
 492 0034 9A5C     		ldrb	r2, [r3, r2]
 493 0036 1204     		lsls	r2, r2, #16
 359:Generated_Source\PSoC6\pdl\drivers\peripheral\syslib/cy_syslib.c ****                  ((uint32_t) SFLASH_DIE_LOT(2U)     << CY_UNIQUE_ID_DIE_LOT_2_Pos) |
 494              		.loc 1 359 0
 495 0038 1043     		orrs	r0, r2
 361:Generated_Source\PSoC6\pdl\drivers\peripheral\syslib/cy_syslib.c ****                  ((uint32_t) SFLASH_DIE_LOT(1U)     << CY_UNIQUE_ID_DIE_LOT_1_Pos) |
 496              		.loc 1 361 0
 497 003a 0B4A     		ldr	r2, .L38+28
 498 003c 9A5C     		ldrb	r2, [r3, r2]
 499 003e 1202     		lsls	r2, r2, #8
 360:Generated_Source\PSoC6\pdl\drivers\peripheral\syslib/cy_syslib.c ****                  ((uint32_t) SFLASH_DIE_LOT(2U)     << CY_UNIQUE_ID_DIE_LOT_2_Pos) |
 500              		.loc 1 360 0
 501 0040 1043     		orrs	r0, r2
 362:Generated_Source\PSoC6\pdl\drivers\peripheral\syslib/cy_syslib.c ****                  ((uint32_t) SFLASH_DIE_LOT(0U));
 502              		.loc 1 362 0
 503 0042 C022     		movs	r2, #192
 504 0044 D200     		lsls	r2, r2, #3
 505 0046 9B5C     		ldrb	r3, [r3, r2]
 359:Generated_Source\PSoC6\pdl\drivers\peripheral\syslib/cy_syslib.c ****                  ((uint32_t) SFLASH_DIE_LOT(2U)     << CY_UNIQUE_ID_DIE_LOT_2_Pos) |
 506              		.loc 1 359 0
 507 0048 1843     		orrs	r0, r3
 508              	.LVL25:
 363:Generated_Source\PSoC6\pdl\drivers\peripheral\syslib/cy_syslib.c **** 
 364:Generated_Source\PSoC6\pdl\drivers\peripheral\syslib/cy_syslib.c ****     return (((uint64_t) uniqueIdHi << CY_UNIQUE_ID_DIE_X_Pos) | uniqueIdLo);
 365:Generated_Source\PSoC6\pdl\drivers\peripheral\syslib/cy_syslib.c **** }
 509              		.loc 1 365 0
 510              		@ sp needed
 511 004a 7047     		bx	lr
 512              	.L39:
 513              		.align	2
 514              	.L38:
 515 004c 0A060000 		.word	1546
 516 0050 07060000 		.word	1543
 517 0054 06060000 		.word	1542
 518 0058 05060000 		.word	1541
 519 005c 04060000 		.word	1540
 520 0060 03060000 		.word	1539
 521 0064 02060000 		.word	1538
 522 0068 01060000 		.word	1537
 523              		.cfi_endproc
 524              	.LFE73:
 525              		.size	Cy_SysLib_GetUniqueId, .-Cy_SysLib_GetUniqueId
 526              		.section	.text.Cy_SysLib_ProcessingFault,"ax",%progbits
 527              		.align	2
 528              		.weak	Cy_SysLib_ProcessingFault
 529              		.code	16
 530              		.thumb_func
 531              		.type	Cy_SysLib_ProcessingFault, %function
ARM GAS  C:\Users\Rolf\AppData\Local\Temp\ccTwK7ru.s 			page 33


 532              	Cy_SysLib_ProcessingFault:
 533              	.LFB75:
 366:Generated_Source\PSoC6\pdl\drivers\peripheral\syslib/cy_syslib.c **** 
 367:Generated_Source\PSoC6\pdl\drivers\peripheral\syslib/cy_syslib.c **** 
 368:Generated_Source\PSoC6\pdl\drivers\peripheral\syslib/cy_syslib.c **** #if (CY_ARM_FAULT_DEBUG == CY_ARM_FAULT_DEBUG_ENABLED) || defined(CY_DOXYGEN)
 369:Generated_Source\PSoC6\pdl\drivers\peripheral\syslib/cy_syslib.c **** /*******************************************************************************
 370:Generated_Source\PSoC6\pdl\drivers\peripheral\syslib/cy_syslib.c **** * Function Name: Cy_SysLib_FaultHandler
 371:Generated_Source\PSoC6\pdl\drivers\peripheral\syslib/cy_syslib.c **** ****************************************************************************//**
 372:Generated_Source\PSoC6\pdl\drivers\peripheral\syslib/cy_syslib.c **** *
 373:Generated_Source\PSoC6\pdl\drivers\peripheral\syslib/cy_syslib.c **** * This function stores the ARM Cortex registers into a non-zero init area for
 374:Generated_Source\PSoC6\pdl\drivers\peripheral\syslib/cy_syslib.c **** * debugging. This function calls Cy_SysLib_ProcessingFault() after storing all
 375:Generated_Source\PSoC6\pdl\drivers\peripheral\syslib/cy_syslib.c **** * information.
 376:Generated_Source\PSoC6\pdl\drivers\peripheral\syslib/cy_syslib.c **** *
 377:Generated_Source\PSoC6\pdl\drivers\peripheral\syslib/cy_syslib.c **** * \param faultStackAddr The address of the stack pointer, indicates the lowest
 378:Generated_Source\PSoC6\pdl\drivers\peripheral\syslib/cy_syslib.c **** *                       address in the fault stack frame to be stored.
 379:Generated_Source\PSoC6\pdl\drivers\peripheral\syslib/cy_syslib.c **** * \note This function stores the fault stack frame only for the first occurred
 380:Generated_Source\PSoC6\pdl\drivers\peripheral\syslib/cy_syslib.c **** *       fault.
 381:Generated_Source\PSoC6\pdl\drivers\peripheral\syslib/cy_syslib.c **** * \note The PDL doesn't provide an API to analyze the stored register
 382:Generated_Source\PSoC6\pdl\drivers\peripheral\syslib/cy_syslib.c **** *       values. The user has to add additional functions for the analysis,
 383:Generated_Source\PSoC6\pdl\drivers\peripheral\syslib/cy_syslib.c **** *       if necessary.
 384:Generated_Source\PSoC6\pdl\drivers\peripheral\syslib/cy_syslib.c **** * \note The CY_ARM_FAULT_DEBUG macro defines if the Fault Handler is enabled.
 385:Generated_Source\PSoC6\pdl\drivers\peripheral\syslib/cy_syslib.c **** *       By default it is set to CY_ARM_FAULT_DEBUG_ENABLED and enables the
 386:Generated_Source\PSoC6\pdl\drivers\peripheral\syslib/cy_syslib.c **** *       Fault Handler.
 387:Generated_Source\PSoC6\pdl\drivers\peripheral\syslib/cy_syslib.c **** *       If there is a necessity to save memory or have some specific custom
 388:Generated_Source\PSoC6\pdl\drivers\peripheral\syslib/cy_syslib.c **** *       handler, etc. then CY_ARM_FAULT_DEBUG should be redefined as
 389:Generated_Source\PSoC6\pdl\drivers\peripheral\syslib/cy_syslib.c **** *       CY_ARM_FAULT_DEBUG_DISABLED. To do this, the following definition should
 390:Generated_Source\PSoC6\pdl\drivers\peripheral\syslib/cy_syslib.c **** *       be added to the compiler Command Line (through the project Build
 391:Generated_Source\PSoC6\pdl\drivers\peripheral\syslib/cy_syslib.c **** *       Settings): "-D CY_ARM_FAULT_DEBUG=0".
 392:Generated_Source\PSoC6\pdl\drivers\peripheral\syslib/cy_syslib.c **** *
 393:Generated_Source\PSoC6\pdl\drivers\peripheral\syslib/cy_syslib.c **** *******************************************************************************/
 394:Generated_Source\PSoC6\pdl\drivers\peripheral\syslib/cy_syslib.c **** void Cy_SysLib_FaultHandler(uint32_t const *faultStackAddr)
 395:Generated_Source\PSoC6\pdl\drivers\peripheral\syslib/cy_syslib.c **** {
 396:Generated_Source\PSoC6\pdl\drivers\peripheral\syslib/cy_syslib.c ****     /* Stores general registers */
 397:Generated_Source\PSoC6\pdl\drivers\peripheral\syslib/cy_syslib.c ****     cy_faultFrame.r0  = faultStackAddr[CY_R0_Pos];
 398:Generated_Source\PSoC6\pdl\drivers\peripheral\syslib/cy_syslib.c ****     cy_faultFrame.r1  = faultStackAddr[CY_R1_Pos];
 399:Generated_Source\PSoC6\pdl\drivers\peripheral\syslib/cy_syslib.c ****     cy_faultFrame.r2  = faultStackAddr[CY_R2_Pos];
 400:Generated_Source\PSoC6\pdl\drivers\peripheral\syslib/cy_syslib.c ****     cy_faultFrame.r3  = faultStackAddr[CY_R3_Pos];
 401:Generated_Source\PSoC6\pdl\drivers\peripheral\syslib/cy_syslib.c ****     cy_faultFrame.r12 = faultStackAddr[CY_R12_Pos];
 402:Generated_Source\PSoC6\pdl\drivers\peripheral\syslib/cy_syslib.c ****     cy_faultFrame.lr  = faultStackAddr[CY_LR_Pos];
 403:Generated_Source\PSoC6\pdl\drivers\peripheral\syslib/cy_syslib.c ****     cy_faultFrame.pc  = faultStackAddr[CY_PC_Pos];
 404:Generated_Source\PSoC6\pdl\drivers\peripheral\syslib/cy_syslib.c ****     cy_faultFrame.psr = faultStackAddr[CY_PSR_Pos];
 405:Generated_Source\PSoC6\pdl\drivers\peripheral\syslib/cy_syslib.c **** 
 406:Generated_Source\PSoC6\pdl\drivers\peripheral\syslib/cy_syslib.c ****     #if (CY_CPU_CORTEX_M4)
 407:Generated_Source\PSoC6\pdl\drivers\peripheral\syslib/cy_syslib.c ****         /* Stores the Configurable Fault Status Register state with the fault cause */
 408:Generated_Source\PSoC6\pdl\drivers\peripheral\syslib/cy_syslib.c ****         cy_faultFrame.cfsr.cfsrReg = SCB->CFSR;
 409:Generated_Source\PSoC6\pdl\drivers\peripheral\syslib/cy_syslib.c ****         /* Stores the Hard Fault Status Register */
 410:Generated_Source\PSoC6\pdl\drivers\peripheral\syslib/cy_syslib.c ****         cy_faultFrame.hfsr.hfsrReg = SCB->HFSR;
 411:Generated_Source\PSoC6\pdl\drivers\peripheral\syslib/cy_syslib.c ****         /* Stores the System Handler Control and State Register */
 412:Generated_Source\PSoC6\pdl\drivers\peripheral\syslib/cy_syslib.c ****         cy_faultFrame.shcsr.shcsrReg = SCB->SHCSR;
 413:Generated_Source\PSoC6\pdl\drivers\peripheral\syslib/cy_syslib.c ****         /* Store MemMange fault address */
 414:Generated_Source\PSoC6\pdl\drivers\peripheral\syslib/cy_syslib.c ****         cy_faultFrame.mmfar = SCB->MMFAR;
 415:Generated_Source\PSoC6\pdl\drivers\peripheral\syslib/cy_syslib.c ****         /* Store Bus fault address */
 416:Generated_Source\PSoC6\pdl\drivers\peripheral\syslib/cy_syslib.c ****         cy_faultFrame.bfar = SCB->BFAR;
 417:Generated_Source\PSoC6\pdl\drivers\peripheral\syslib/cy_syslib.c **** 
 418:Generated_Source\PSoC6\pdl\drivers\peripheral\syslib/cy_syslib.c ****         #if ((defined (__FPU_PRESENT) && (__FPU_PRESENT == 1U)) && \
 419:Generated_Source\PSoC6\pdl\drivers\peripheral\syslib/cy_syslib.c ****              (defined (__FPU_USED   ) && (__FPU_USED    == 1U)))
 420:Generated_Source\PSoC6\pdl\drivers\peripheral\syslib/cy_syslib.c ****             /* Checks cumulative exception bits for floating-point exceptions */
ARM GAS  C:\Users\Rolf\AppData\Local\Temp\ccTwK7ru.s 			page 34


 421:Generated_Source\PSoC6\pdl\drivers\peripheral\syslib/cy_syslib.c ****             if(0U != (__get_FPSCR() & (CY_FPSCR_IXC_Msk | CY_FPSCR_IDC_Msk)))
 422:Generated_Source\PSoC6\pdl\drivers\peripheral\syslib/cy_syslib.c ****             {
 423:Generated_Source\PSoC6\pdl\drivers\peripheral\syslib/cy_syslib.c ****                 cy_faultFrame.s0    = faultStackAddr[CY_S0_Pos];
 424:Generated_Source\PSoC6\pdl\drivers\peripheral\syslib/cy_syslib.c ****                 cy_faultFrame.s1    = faultStackAddr[CY_S1_Pos];
 425:Generated_Source\PSoC6\pdl\drivers\peripheral\syslib/cy_syslib.c ****                 cy_faultFrame.s2    = faultStackAddr[CY_S2_Pos];
 426:Generated_Source\PSoC6\pdl\drivers\peripheral\syslib/cy_syslib.c ****                 cy_faultFrame.s3    = faultStackAddr[CY_S3_Pos];
 427:Generated_Source\PSoC6\pdl\drivers\peripheral\syslib/cy_syslib.c ****                 cy_faultFrame.s4    = faultStackAddr[CY_S4_Pos];
 428:Generated_Source\PSoC6\pdl\drivers\peripheral\syslib/cy_syslib.c ****                 cy_faultFrame.s5    = faultStackAddr[CY_S5_Pos];
 429:Generated_Source\PSoC6\pdl\drivers\peripheral\syslib/cy_syslib.c ****                 cy_faultFrame.s6    = faultStackAddr[CY_S6_Pos];
 430:Generated_Source\PSoC6\pdl\drivers\peripheral\syslib/cy_syslib.c ****                 cy_faultFrame.s7    = faultStackAddr[CY_S7_Pos];
 431:Generated_Source\PSoC6\pdl\drivers\peripheral\syslib/cy_syslib.c ****                 cy_faultFrame.s8    = faultStackAddr[CY_S8_Pos];
 432:Generated_Source\PSoC6\pdl\drivers\peripheral\syslib/cy_syslib.c ****                 cy_faultFrame.s9    = faultStackAddr[CY_S9_Pos];
 433:Generated_Source\PSoC6\pdl\drivers\peripheral\syslib/cy_syslib.c ****                 cy_faultFrame.s10   = faultStackAddr[CY_S10_Pos];
 434:Generated_Source\PSoC6\pdl\drivers\peripheral\syslib/cy_syslib.c ****                 cy_faultFrame.s11   = faultStackAddr[CY_S11_Pos];
 435:Generated_Source\PSoC6\pdl\drivers\peripheral\syslib/cy_syslib.c ****                 cy_faultFrame.s12   = faultStackAddr[CY_S12_Pos];
 436:Generated_Source\PSoC6\pdl\drivers\peripheral\syslib/cy_syslib.c ****                 cy_faultFrame.s13   = faultStackAddr[CY_S13_Pos];
 437:Generated_Source\PSoC6\pdl\drivers\peripheral\syslib/cy_syslib.c ****                 cy_faultFrame.s14   = faultStackAddr[CY_S14_Pos];
 438:Generated_Source\PSoC6\pdl\drivers\peripheral\syslib/cy_syslib.c ****                 cy_faultFrame.s15   = faultStackAddr[CY_S15_Pos];
 439:Generated_Source\PSoC6\pdl\drivers\peripheral\syslib/cy_syslib.c ****                 cy_faultFrame.fpscr = faultStackAddr[CY_FPSCR_Pos];
 440:Generated_Source\PSoC6\pdl\drivers\peripheral\syslib/cy_syslib.c ****             }
 441:Generated_Source\PSoC6\pdl\drivers\peripheral\syslib/cy_syslib.c ****         #endif /* __FPU_PRESENT */
 442:Generated_Source\PSoC6\pdl\drivers\peripheral\syslib/cy_syslib.c ****     #endif /* CY_CPU_CORTEX_M4 */
 443:Generated_Source\PSoC6\pdl\drivers\peripheral\syslib/cy_syslib.c **** 
 444:Generated_Source\PSoC6\pdl\drivers\peripheral\syslib/cy_syslib.c ****     Cy_SysLib_ProcessingFault();
 445:Generated_Source\PSoC6\pdl\drivers\peripheral\syslib/cy_syslib.c **** }
 446:Generated_Source\PSoC6\pdl\drivers\peripheral\syslib/cy_syslib.c **** 
 447:Generated_Source\PSoC6\pdl\drivers\peripheral\syslib/cy_syslib.c **** 
 448:Generated_Source\PSoC6\pdl\drivers\peripheral\syslib/cy_syslib.c **** /*******************************************************************************
 449:Generated_Source\PSoC6\pdl\drivers\peripheral\syslib/cy_syslib.c **** * Function Name: Cy_SysLib_ProcessingFault
 450:Generated_Source\PSoC6\pdl\drivers\peripheral\syslib/cy_syslib.c **** ****************************************************************************//**
 451:Generated_Source\PSoC6\pdl\drivers\peripheral\syslib/cy_syslib.c **** *
 452:Generated_Source\PSoC6\pdl\drivers\peripheral\syslib/cy_syslib.c **** * This function determines how to process the current fault state. By default
 453:Generated_Source\PSoC6\pdl\drivers\peripheral\syslib/cy_syslib.c **** * in case of exception the system will stay in the infinite loop of this
 454:Generated_Source\PSoC6\pdl\drivers\peripheral\syslib/cy_syslib.c **** * function.
 455:Generated_Source\PSoC6\pdl\drivers\peripheral\syslib/cy_syslib.c **** *
 456:Generated_Source\PSoC6\pdl\drivers\peripheral\syslib/cy_syslib.c **** * \note This function has the WEAK option, so the user can redefine the function
 457:Generated_Source\PSoC6\pdl\drivers\peripheral\syslib/cy_syslib.c **** *       behavior for a custom processing.
 458:Generated_Source\PSoC6\pdl\drivers\peripheral\syslib/cy_syslib.c **** *       For example, the function redefinition could be constructed from fault
 459:Generated_Source\PSoC6\pdl\drivers\peripheral\syslib/cy_syslib.c **** *       stack processing and NVIC_SystemReset() function call.
 460:Generated_Source\PSoC6\pdl\drivers\peripheral\syslib/cy_syslib.c **** *
 461:Generated_Source\PSoC6\pdl\drivers\peripheral\syslib/cy_syslib.c **** *******************************************************************************/
 462:Generated_Source\PSoC6\pdl\drivers\peripheral\syslib/cy_syslib.c **** __WEAK void Cy_SysLib_ProcessingFault(void)
 463:Generated_Source\PSoC6\pdl\drivers\peripheral\syslib/cy_syslib.c **** {
 534              		.loc 1 463 0
 535              		.cfi_startproc
 536              		@ args = 0, pretend = 0, frame = 0
 537              		@ frame_needed = 0, uses_anonymous_args = 0
 538              		@ link register save eliminated.
 539              	.L41:
 540 0000 FEE7     		b	.L41
 541              		.cfi_endproc
 542              	.LFE75:
 543              		.size	Cy_SysLib_ProcessingFault, .-Cy_SysLib_ProcessingFault
 544 0002 C046     		.section	.text.Cy_SysLib_FaultHandler,"ax",%progbits
 545              		.align	2
 546              		.global	Cy_SysLib_FaultHandler
 547              		.code	16
ARM GAS  C:\Users\Rolf\AppData\Local\Temp\ccTwK7ru.s 			page 35


 548              		.thumb_func
 549              		.type	Cy_SysLib_FaultHandler, %function
 550              	Cy_SysLib_FaultHandler:
 551              	.LFB74:
 395:Generated_Source\PSoC6\pdl\drivers\peripheral\syslib/cy_syslib.c ****     /* Stores general registers */
 552              		.loc 1 395 0
 553              		.cfi_startproc
 554              		@ args = 0, pretend = 0, frame = 0
 555              		@ frame_needed = 0, uses_anonymous_args = 0
 556              	.LVL26:
 395:Generated_Source\PSoC6\pdl\drivers\peripheral\syslib/cy_syslib.c ****     /* Stores general registers */
 557              		.loc 1 395 0
 558 0000 10B5     		push	{r4, lr}
 559              		.cfi_def_cfa_offset 8
 560              		.cfi_offset 4, -8
 561              		.cfi_offset 14, -4
 397:Generated_Source\PSoC6\pdl\drivers\peripheral\syslib/cy_syslib.c ****     cy_faultFrame.r1  = faultStackAddr[CY_R1_Pos];
 562              		.loc 1 397 0
 563 0002 0A4B     		ldr	r3, .L43
 564 0004 0268     		ldr	r2, [r0]
 565 0006 DA61     		str	r2, [r3, #28]
 398:Generated_Source\PSoC6\pdl\drivers\peripheral\syslib/cy_syslib.c ****     cy_faultFrame.r2  = faultStackAddr[CY_R2_Pos];
 566              		.loc 1 398 0
 567 0008 4268     		ldr	r2, [r0, #4]
 568 000a 1A62     		str	r2, [r3, #32]
 399:Generated_Source\PSoC6\pdl\drivers\peripheral\syslib/cy_syslib.c ****     cy_faultFrame.r3  = faultStackAddr[CY_R3_Pos];
 569              		.loc 1 399 0
 570 000c 8268     		ldr	r2, [r0, #8]
 571 000e 5A62     		str	r2, [r3, #36]
 400:Generated_Source\PSoC6\pdl\drivers\peripheral\syslib/cy_syslib.c ****     cy_faultFrame.r12 = faultStackAddr[CY_R12_Pos];
 572              		.loc 1 400 0
 573 0010 C268     		ldr	r2, [r0, #12]
 574 0012 9A62     		str	r2, [r3, #40]
 401:Generated_Source\PSoC6\pdl\drivers\peripheral\syslib/cy_syslib.c ****     cy_faultFrame.lr  = faultStackAddr[CY_LR_Pos];
 575              		.loc 1 401 0
 576 0014 0269     		ldr	r2, [r0, #16]
 577 0016 DA62     		str	r2, [r3, #44]
 402:Generated_Source\PSoC6\pdl\drivers\peripheral\syslib/cy_syslib.c ****     cy_faultFrame.pc  = faultStackAddr[CY_PC_Pos];
 578              		.loc 1 402 0
 579 0018 4269     		ldr	r2, [r0, #20]
 580 001a 1A63     		str	r2, [r3, #48]
 403:Generated_Source\PSoC6\pdl\drivers\peripheral\syslib/cy_syslib.c ****     cy_faultFrame.psr = faultStackAddr[CY_PSR_Pos];
 581              		.loc 1 403 0
 582 001c 8269     		ldr	r2, [r0, #24]
 583 001e 5A63     		str	r2, [r3, #52]
 404:Generated_Source\PSoC6\pdl\drivers\peripheral\syslib/cy_syslib.c **** 
 584              		.loc 1 404 0
 585 0020 C269     		ldr	r2, [r0, #28]
 586 0022 9A63     		str	r2, [r3, #56]
 444:Generated_Source\PSoC6\pdl\drivers\peripheral\syslib/cy_syslib.c **** }
 587              		.loc 1 444 0
 588 0024 FFF7FEFF 		bl	Cy_SysLib_ProcessingFault
 589              	.LVL27:
 445:Generated_Source\PSoC6\pdl\drivers\peripheral\syslib/cy_syslib.c **** 
 590              		.loc 1 445 0
 591              		@ sp needed
 592 0028 10BD     		pop	{r4, pc}
ARM GAS  C:\Users\Rolf\AppData\Local\Temp\ccTwK7ru.s 			page 36


 593              	.L44:
 594 002a C046     		.align	2
 595              	.L43:
 596 002c 00000000 		.word	.LANCHOR0
 597              		.cfi_endproc
 598              	.LFE74:
 599              		.size	Cy_SysLib_FaultHandler, .-Cy_SysLib_FaultHandler
 600              		.section	.text.Cy_SysLib_SetWaitStates,"ax",%progbits
 601              		.align	2
 602              		.global	Cy_SysLib_SetWaitStates
 603              		.code	16
 604              		.thumb_func
 605              		.type	Cy_SysLib_SetWaitStates, %function
 606              	Cy_SysLib_SetWaitStates:
 607              	.LFB76:
 464:Generated_Source\PSoC6\pdl\drivers\peripheral\syslib/cy_syslib.c ****     #if defined(__ARMCC_VERSION)
 465:Generated_Source\PSoC6\pdl\drivers\peripheral\syslib/cy_syslib.c ****         /* Assembly implementation of an infinite loop
 466:Generated_Source\PSoC6\pdl\drivers\peripheral\syslib/cy_syslib.c ****          * is used for the armcc compiler to preserve the call stack.
 467:Generated_Source\PSoC6\pdl\drivers\peripheral\syslib/cy_syslib.c ****          * Otherwise, the compiler destroys the call stack,
 468:Generated_Source\PSoC6\pdl\drivers\peripheral\syslib/cy_syslib.c ****          * because treats this API as a no return function.
 469:Generated_Source\PSoC6\pdl\drivers\peripheral\syslib/cy_syslib.c ****          */
 470:Generated_Source\PSoC6\pdl\drivers\peripheral\syslib/cy_syslib.c ****         Cy_SysLib_AsmInfiniteLoop();
 471:Generated_Source\PSoC6\pdl\drivers\peripheral\syslib/cy_syslib.c ****     #else
 472:Generated_Source\PSoC6\pdl\drivers\peripheral\syslib/cy_syslib.c ****         while(1) {}
 473:Generated_Source\PSoC6\pdl\drivers\peripheral\syslib/cy_syslib.c ****     #endif  /* (__ARMCC_VERSION) */
 474:Generated_Source\PSoC6\pdl\drivers\peripheral\syslib/cy_syslib.c **** }
 475:Generated_Source\PSoC6\pdl\drivers\peripheral\syslib/cy_syslib.c **** #endif /* (CY_ARM_FAULT_DEBUG == CY_ARM_FAULT_DEBUG_ENABLED) || defined(CY_DOXYGEN) */
 476:Generated_Source\PSoC6\pdl\drivers\peripheral\syslib/cy_syslib.c **** 
 477:Generated_Source\PSoC6\pdl\drivers\peripheral\syslib/cy_syslib.c **** 
 478:Generated_Source\PSoC6\pdl\drivers\peripheral\syslib/cy_syslib.c **** /*******************************************************************************
 479:Generated_Source\PSoC6\pdl\drivers\peripheral\syslib/cy_syslib.c **** * Function Name: Cy_SysLib_SetWaitStates
 480:Generated_Source\PSoC6\pdl\drivers\peripheral\syslib/cy_syslib.c **** ****************************************************************************//**
 481:Generated_Source\PSoC6\pdl\drivers\peripheral\syslib/cy_syslib.c **** *
 482:Generated_Source\PSoC6\pdl\drivers\peripheral\syslib/cy_syslib.c **** * Sets the number of clock cycles the cache will wait for, before it samples
 483:Generated_Source\PSoC6\pdl\drivers\peripheral\syslib/cy_syslib.c **** * data coming back from ROM, SRAM, and Flash.
 484:Generated_Source\PSoC6\pdl\drivers\peripheral\syslib/cy_syslib.c **** *
 485:Generated_Source\PSoC6\pdl\drivers\peripheral\syslib/cy_syslib.c **** * Call this function before increasing the HFClk0 High Frequency clock.
 486:Generated_Source\PSoC6\pdl\drivers\peripheral\syslib/cy_syslib.c **** * Call this function optionally after lowering the HFClk0 High Frequency clock
 487:Generated_Source\PSoC6\pdl\drivers\peripheral\syslib/cy_syslib.c **** * in order to improve the CPU performance.
 488:Generated_Source\PSoC6\pdl\drivers\peripheral\syslib/cy_syslib.c **** *
 489:Generated_Source\PSoC6\pdl\drivers\peripheral\syslib/cy_syslib.c **** * Also, call this function before switching the core supply regulator voltage
 490:Generated_Source\PSoC6\pdl\drivers\peripheral\syslib/cy_syslib.c **** * (LDO or SIMO Buck) from 1.1V to 0.9V.
 491:Generated_Source\PSoC6\pdl\drivers\peripheral\syslib/cy_syslib.c **** * Call this function optionally after switching the core supply regulator
 492:Generated_Source\PSoC6\pdl\drivers\peripheral\syslib/cy_syslib.c **** * voltage from 0.9V to 1.1V in order to improve the CPU performance.
 493:Generated_Source\PSoC6\pdl\drivers\peripheral\syslib/cy_syslib.c **** *
 494:Generated_Source\PSoC6\pdl\drivers\peripheral\syslib/cy_syslib.c **** * \param ulpMode  The device power mode.
 495:Generated_Source\PSoC6\pdl\drivers\peripheral\syslib/cy_syslib.c **** *        true  if the device should be switched to the ULP mode (nominal
 496:Generated_Source\PSoC6\pdl\drivers\peripheral\syslib/cy_syslib.c **** *              voltage of the core supply regulator should be switched to 0.9V);
 497:Generated_Source\PSoC6\pdl\drivers\peripheral\syslib/cy_syslib.c **** *        false if the device should be switched to the LP mode (nominal
 498:Generated_Source\PSoC6\pdl\drivers\peripheral\syslib/cy_syslib.c **** *              voltage of the core supply regulator should be switched to 1.1V).
 499:Generated_Source\PSoC6\pdl\drivers\peripheral\syslib/cy_syslib.c **** *
 500:Generated_Source\PSoC6\pdl\drivers\peripheral\syslib/cy_syslib.c **** * \note Refer to the device TRM for the low power modes description.
 501:Generated_Source\PSoC6\pdl\drivers\peripheral\syslib/cy_syslib.c **** *
 502:Generated_Source\PSoC6\pdl\drivers\peripheral\syslib/cy_syslib.c **** * \param clkHfMHz  The HFClk0 clock frequency in MHz. Specifying a frequency
 503:Generated_Source\PSoC6\pdl\drivers\peripheral\syslib/cy_syslib.c **** *                  above the supported maximum will set the wait states as for
 504:Generated_Source\PSoC6\pdl\drivers\peripheral\syslib/cy_syslib.c **** *                  the maximum frequency.
 505:Generated_Source\PSoC6\pdl\drivers\peripheral\syslib/cy_syslib.c **** *
ARM GAS  C:\Users\Rolf\AppData\Local\Temp\ccTwK7ru.s 			page 37


 506:Generated_Source\PSoC6\pdl\drivers\peripheral\syslib/cy_syslib.c **** *******************************************************************************/
 507:Generated_Source\PSoC6\pdl\drivers\peripheral\syslib/cy_syslib.c **** void Cy_SysLib_SetWaitStates(bool ulpMode, uint32_t clkHfMHz)
 508:Generated_Source\PSoC6\pdl\drivers\peripheral\syslib/cy_syslib.c **** {
 608              		.loc 1 508 0
 609              		.cfi_startproc
 610              		@ args = 0, pretend = 0, frame = 0
 611              		@ frame_needed = 0, uses_anonymous_args = 0
 612              	.LVL28:
 613 0000 F0B5     		push	{r4, r5, r6, r7, lr}
 614              		.cfi_def_cfa_offset 20
 615              		.cfi_offset 4, -20
 616              		.cfi_offset 5, -16
 617              		.cfi_offset 6, -12
 618              		.cfi_offset 7, -8
 619              		.cfi_offset 14, -4
 620 0002 4746     		mov	r7, r8
 621 0004 80B4     		push	{r7}
 622              		.cfi_def_cfa_offset 24
 623              		.cfi_offset 8, -24
 509:Generated_Source\PSoC6\pdl\drivers\peripheral\syslib/cy_syslib.c ****     uint32_t waitStates;
 510:Generated_Source\PSoC6\pdl\drivers\peripheral\syslib/cy_syslib.c ****     uint32_t freqMax;
 511:Generated_Source\PSoC6\pdl\drivers\peripheral\syslib/cy_syslib.c **** 
 512:Generated_Source\PSoC6\pdl\drivers\peripheral\syslib/cy_syslib.c ****     freqMax = ulpMode ? CY_SYSLIB_ULP_SLOW_WS_0_FREQ_MAX : CY_SYSLIB_LP_SLOW_WS_0_FREQ_MAX;
 624              		.loc 1 512 0
 625 0006 0028     		cmp	r0, #0
 626 0008 01D0     		beq	.L49
 627 000a 1923     		movs	r3, #25
 628 000c 00E0     		b	.L46
 629              	.L49:
 630 000e 6423     		movs	r3, #100
 631              	.L46:
 632              	.LVL29:
 513:Generated_Source\PSoC6\pdl\drivers\peripheral\syslib/cy_syslib.c ****     waitStates = (clkHfMHz <= freqMax) ? 0UL : 1UL;
 633              		.loc 1 513 0 discriminator 4
 634 0010 8B42     		cmp	r3, r1
 635 0012 9B41     		sbcs	r3, r3, r3
 636              	.LVL30:
 637 0014 5B42     		rsbs	r3, r3, #0
 638              	.LVL31:
 514:Generated_Source\PSoC6\pdl\drivers\peripheral\syslib/cy_syslib.c **** 
 515:Generated_Source\PSoC6\pdl\drivers\peripheral\syslib/cy_syslib.c ****     /* ROM */
 516:Generated_Source\PSoC6\pdl\drivers\peripheral\syslib/cy_syslib.c ****     CPUSS_ROM_CTL = _CLR_SET_FLD32U(CPUSS_ROM_CTL, CPUSS_ROM_CTL_SLOW_WS, waitStates);
 639              		.loc 1 516 0 discriminator 4
 640 0016 304D     		ldr	r5, .L57
 641 0018 2C68     		ldr	r4, [r5]
 642 001a 2268     		ldr	r2, [r4]
 643 001c A826     		movs	r6, #168
 644 001e A45B     		ldrh	r4, [r4, r6]
 645 0020 A418     		adds	r4, r4, r2
 646 0022 2268     		ldr	r2, [r4]
 647 0024 0327     		movs	r7, #3
 648 0026 BA43     		bics	r2, r7
 649 0028 3B40     		ands	r3, r7
 650              	.LVL32:
 651 002a 1A43     		orrs	r2, r3
 652 002c 2260     		str	r2, [r4]
 517:Generated_Source\PSoC6\pdl\drivers\peripheral\syslib/cy_syslib.c ****     CPUSS_ROM_CTL = _CLR_SET_FLD32U(CPUSS_ROM_CTL, CPUSS_ROM_CTL_FAST_WS, 0UL);
ARM GAS  C:\Users\Rolf\AppData\Local\Temp\ccTwK7ru.s 			page 38


 653              		.loc 1 517 0 discriminator 4
 654 002e 2C68     		ldr	r4, [r5]
 655 0030 2268     		ldr	r2, [r4]
 656 0032 A45B     		ldrh	r4, [r4, r6]
 657 0034 A218     		adds	r2, r4, r2
 658 0036 1668     		ldr	r6, [r2]
 659 0038 284C     		ldr	r4, .L57+4
 660 003a A046     		mov	r8, r4
 661 003c 2640     		ands	r6, r4
 662 003e 1660     		str	r6, [r2]
 518:Generated_Source\PSoC6\pdl\drivers\peripheral\syslib/cy_syslib.c **** 
 519:Generated_Source\PSoC6\pdl\drivers\peripheral\syslib/cy_syslib.c ****     /* SRAM */
 520:Generated_Source\PSoC6\pdl\drivers\peripheral\syslib/cy_syslib.c ****     CPUSS_RAM0_CTL0 = _CLR_SET_FLD32U(CPUSS_RAM0_CTL0, CPUSS_RAM0_CTL0_SLOW_WS, waitStates);
 663              		.loc 1 520 0 discriminator 4
 664 0040 2C68     		ldr	r4, [r5]
 665 0042 2668     		ldr	r6, [r4]
 666 0044 AA22     		movs	r2, #170
 667 0046 9446     		mov	ip, r2
 668 0048 A25A     		ldrh	r2, [r4, r2]
 669 004a 9619     		adds	r6, r2, r6
 670 004c 3268     		ldr	r2, [r6]
 671 004e BA43     		bics	r2, r7
 672 0050 1343     		orrs	r3, r2
 673 0052 3360     		str	r3, [r6]
 521:Generated_Source\PSoC6\pdl\drivers\peripheral\syslib/cy_syslib.c ****     CPUSS_RAM0_CTL0 = _CLR_SET_FLD32U(CPUSS_RAM0_CTL0, CPUSS_RAM0_CTL0_FAST_WS, 0UL);
 674              		.loc 1 521 0 discriminator 4
 675 0054 2A68     		ldr	r2, [r5]
 676 0056 1368     		ldr	r3, [r2]
 677 0058 6546     		mov	r5, ip
 678 005a 525B     		ldrh	r2, [r2, r5]
 679 005c D318     		adds	r3, r2, r3
 680 005e 1A68     		ldr	r2, [r3]
 681 0060 4446     		mov	r4, r8
 682 0062 1440     		ands	r4, r2
 683 0064 1C60     		str	r4, [r3]
 522:Generated_Source\PSoC6\pdl\drivers\peripheral\syslib/cy_syslib.c ****     #if defined (RAMC1_PRESENT) && (RAMC1_PRESENT == 1UL)
 523:Generated_Source\PSoC6\pdl\drivers\peripheral\syslib/cy_syslib.c ****         CPUSS_RAM1_CTL0 = _CLR_SET_FLD32U(CPUSS_RAM1_CTL0, CPUSS_RAM1_CTL0_SLOW_WS, waitStates);
 524:Generated_Source\PSoC6\pdl\drivers\peripheral\syslib/cy_syslib.c ****         CPUSS_RAM1_CTL0 = _CLR_SET_FLD32U(CPUSS_RAM1_CTL0, CPUSS_RAM1_CTL0_FAST_WS, 0UL);
 525:Generated_Source\PSoC6\pdl\drivers\peripheral\syslib/cy_syslib.c ****     #endif /* defined (RAMC1_PRESENT) && (RAMC1_PRESENT == 1UL) */
 526:Generated_Source\PSoC6\pdl\drivers\peripheral\syslib/cy_syslib.c ****     #if defined (RAMC2_PRESENT) && (RAMC2_PRESENT == 1UL)
 527:Generated_Source\PSoC6\pdl\drivers\peripheral\syslib/cy_syslib.c ****         CPUSS_RAM2_CTL0 = _CLR_SET_FLD32U(CPUSS_RAM2_CTL0, CPUSS_RAM2_CTL0_SLOW_WS, waitStates);
 528:Generated_Source\PSoC6\pdl\drivers\peripheral\syslib/cy_syslib.c ****         CPUSS_RAM2_CTL0 = _CLR_SET_FLD32U(CPUSS_RAM2_CTL0, CPUSS_RAM2_CTL0_FAST_WS, 0UL);
 529:Generated_Source\PSoC6\pdl\drivers\peripheral\syslib/cy_syslib.c ****     #endif /* defined (RAMC2_PRESENT) && (RAMC2_PRESENT == 1UL) */
 530:Generated_Source\PSoC6\pdl\drivers\peripheral\syslib/cy_syslib.c **** 
 531:Generated_Source\PSoC6\pdl\drivers\peripheral\syslib/cy_syslib.c ****     /* Flash */
 532:Generated_Source\PSoC6\pdl\drivers\peripheral\syslib/cy_syslib.c ****     if (ulpMode)
 684              		.loc 1 532 0 discriminator 4
 685 0066 0028     		cmp	r0, #0
 686 0068 05D0     		beq	.L47
 533:Generated_Source\PSoC6\pdl\drivers\peripheral\syslib/cy_syslib.c ****     {
 534:Generated_Source\PSoC6\pdl\drivers\peripheral\syslib/cy_syslib.c ****         waitStates =  (clkHfMHz <= CY_SYSLIB_FLASH_ULP_WS_0_FREQ_MAX) ? 0UL :
 687              		.loc 1 534 0
 688 006a 1029     		cmp	r1, #16
 689 006c 1BD9     		bls	.L50
 535:Generated_Source\PSoC6\pdl\drivers\peripheral\syslib/cy_syslib.c ****                      ((clkHfMHz <= CY_SYSLIB_FLASH_ULP_WS_1_FREQ_MAX) ? 1UL : 2UL);
 690              		.loc 1 535 0
 691 006e 2129     		cmp	r1, #33
ARM GAS  C:\Users\Rolf\AppData\Local\Temp\ccTwK7ru.s 			page 39


 692 0070 1BD8     		bhi	.L51
 693 0072 0120     		movs	r0, #1
 694              	.LVL33:
 695 0074 24E0     		b	.L48
 696              	.LVL34:
 697              	.L47:
 536:Generated_Source\PSoC6\pdl\drivers\peripheral\syslib/cy_syslib.c ****     }
 537:Generated_Source\PSoC6\pdl\drivers\peripheral\syslib/cy_syslib.c ****     else
 538:Generated_Source\PSoC6\pdl\drivers\peripheral\syslib/cy_syslib.c ****     {
 539:Generated_Source\PSoC6\pdl\drivers\peripheral\syslib/cy_syslib.c ****         waitStates =  (clkHfMHz <= cy_device->flashCtlMainWs0Freq) ? 0UL :
 698              		.loc 1 539 0
 699 0076 184B     		ldr	r3, .L57
 700 0078 1B68     		ldr	r3, [r3]
 701 007a 5522     		movs	r2, #85
 702 007c 9A5C     		ldrb	r2, [r3, r2]
 703 007e 9142     		cmp	r1, r2
 704 0080 15D9     		bls	.L52
 540:Generated_Source\PSoC6\pdl\drivers\peripheral\syslib/cy_syslib.c ****                      ((clkHfMHz <= cy_device->flashCtlMainWs1Freq) ? 1UL :
 705              		.loc 1 540 0
 706 0082 5622     		movs	r2, #86
 707 0084 9A5C     		ldrb	r2, [r3, r2]
 708 0086 9142     		cmp	r1, r2
 709 0088 13D9     		bls	.L53
 541:Generated_Source\PSoC6\pdl\drivers\peripheral\syslib/cy_syslib.c ****                      ((clkHfMHz <= cy_device->flashCtlMainWs2Freq) ? 2UL :
 710              		.loc 1 541 0
 711 008a 5722     		movs	r2, #87
 712 008c 9A5C     		ldrb	r2, [r3, r2]
 713 008e 9142     		cmp	r1, r2
 714 0090 11D9     		bls	.L54
 542:Generated_Source\PSoC6\pdl\drivers\peripheral\syslib/cy_syslib.c ****                      ((clkHfMHz <= cy_device->flashCtlMainWs3Freq) ? 3UL : 
 715              		.loc 1 542 0
 716 0092 5822     		movs	r2, #88
 717 0094 9A5C     		ldrb	r2, [r3, r2]
 718 0096 9142     		cmp	r1, r2
 719 0098 0FD9     		bls	.L55
 543:Generated_Source\PSoC6\pdl\drivers\peripheral\syslib/cy_syslib.c ****                      ((clkHfMHz <= cy_device->flashCtlMainWs4Freq) ? 4UL : 5UL))));
 720              		.loc 1 543 0
 721 009a 5922     		movs	r2, #89
 722 009c 9B5C     		ldrb	r3, [r3, r2]
 723 009e 9942     		cmp	r1, r3
 724 00a0 0DD8     		bhi	.L56
 725 00a2 0420     		movs	r0, #4
 726              	.LVL35:
 727 00a4 0CE0     		b	.L48
 728              	.LVL36:
 729              	.L50:
 534:Generated_Source\PSoC6\pdl\drivers\peripheral\syslib/cy_syslib.c ****                      ((clkHfMHz <= CY_SYSLIB_FLASH_ULP_WS_1_FREQ_MAX) ? 1UL : 2UL);
 730              		.loc 1 534 0
 731 00a6 0020     		movs	r0, #0
 732              	.LVL37:
 733 00a8 0AE0     		b	.L48
 734              	.LVL38:
 735              	.L51:
 535:Generated_Source\PSoC6\pdl\drivers\peripheral\syslib/cy_syslib.c ****     }
 736              		.loc 1 535 0
 737 00aa 0220     		movs	r0, #2
 738              	.LVL39:
ARM GAS  C:\Users\Rolf\AppData\Local\Temp\ccTwK7ru.s 			page 40


 739 00ac 08E0     		b	.L48
 740              	.LVL40:
 741              	.L52:
 539:Generated_Source\PSoC6\pdl\drivers\peripheral\syslib/cy_syslib.c ****                      ((clkHfMHz <= cy_device->flashCtlMainWs1Freq) ? 1UL :
 742              		.loc 1 539 0
 743 00ae 0020     		movs	r0, #0
 744              	.LVL41:
 745 00b0 06E0     		b	.L48
 746              	.LVL42:
 747              	.L53:
 540:Generated_Source\PSoC6\pdl\drivers\peripheral\syslib/cy_syslib.c ****                      ((clkHfMHz <= cy_device->flashCtlMainWs2Freq) ? 2UL :
 748              		.loc 1 540 0
 749 00b2 0120     		movs	r0, #1
 750              	.LVL43:
 751 00b4 04E0     		b	.L48
 752              	.LVL44:
 753              	.L54:
 541:Generated_Source\PSoC6\pdl\drivers\peripheral\syslib/cy_syslib.c ****                      ((clkHfMHz <= cy_device->flashCtlMainWs3Freq) ? 3UL : 
 754              		.loc 1 541 0
 755 00b6 0220     		movs	r0, #2
 756              	.LVL45:
 757 00b8 02E0     		b	.L48
 758              	.LVL46:
 759              	.L55:
 542:Generated_Source\PSoC6\pdl\drivers\peripheral\syslib/cy_syslib.c ****                      ((clkHfMHz <= cy_device->flashCtlMainWs4Freq) ? 4UL : 5UL))));
 760              		.loc 1 542 0
 761 00ba 0320     		movs	r0, #3
 762              	.LVL47:
 763 00bc 00E0     		b	.L48
 764              	.LVL48:
 765              	.L56:
 766              		.loc 1 543 0
 767 00be 0520     		movs	r0, #5
 768              	.LVL49:
 769              	.L48:
 544:Generated_Source\PSoC6\pdl\drivers\peripheral\syslib/cy_syslib.c ****     }
 545:Generated_Source\PSoC6\pdl\drivers\peripheral\syslib/cy_syslib.c **** 
 546:Generated_Source\PSoC6\pdl\drivers\peripheral\syslib/cy_syslib.c ****     FLASHC_FLASH_CTL = _CLR_SET_FLD32U(FLASHC_FLASH_CTL, FLASHC_FLASH_CTL_MAIN_WS, waitStates);
 770              		.loc 1 546 0
 771 00c0 054A     		ldr	r2, .L57
 772 00c2 1268     		ldr	r2, [r2]
 773 00c4 5268     		ldr	r2, [r2, #4]
 774 00c6 1368     		ldr	r3, [r2]
 775 00c8 0F21     		movs	r1, #15
 776              	.LVL50:
 777 00ca 8B43     		bics	r3, r1
 778 00cc 0343     		orrs	r3, r0
 779 00ce 1360     		str	r3, [r2]
 547:Generated_Source\PSoC6\pdl\drivers\peripheral\syslib/cy_syslib.c **** }
 780              		.loc 1 547 0
 781              		@ sp needed
 782 00d0 04BC     		pop	{r2}
 783 00d2 9046     		mov	r8, r2
 784 00d4 F0BD     		pop	{r4, r5, r6, r7, pc}
 785              	.L58:
 786 00d6 C046     		.align	2
 787              	.L57:
ARM GAS  C:\Users\Rolf\AppData\Local\Temp\ccTwK7ru.s 			page 41


 788 00d8 00000000 		.word	cy_device
 789 00dc FFFCFFFF 		.word	-769
 790              		.cfi_endproc
 791              	.LFE76:
 792              		.size	Cy_SysLib_SetWaitStates, .-Cy_SysLib_SetWaitStates
 793              		.global	cy_faultFrame
 794              		.global	cy_assertLine
 795              		.global	cy_assertFileName
 796              		.data
 797              		.align	2
 798              		.set	.LANCHOR1,. + 0
 799              		.type	msg.10725, %object
 800              		.size	msg.10725, 4
 801              	msg.10725:
 802 0000 0200001B 		.word	452984834
 803              		.section	.noinit,"aw",%progbits
 804              		.align	2
 805              		.set	.LANCHOR0,. + 0
 806              		.type	cy_assertFileName, %object
 807              		.size	cy_assertFileName, 24
 808              	cy_assertFileName:
 809 0000 00000000 		.space	24
 809      00000000 
 809      00000000 
 809      00000000 
 809      00000000 
 810              		.type	cy_assertLine, %object
 811              		.size	cy_assertLine, 4
 812              	cy_assertLine:
 813 0018 00000000 		.space	4
 814              		.type	cy_faultFrame, %object
 815              		.size	cy_faultFrame, 32
 816              	cy_faultFrame:
 817 001c 00000000 		.space	32
 817      00000000 
 817      00000000 
 817      00000000 
 817      00000000 
 818              		.section	.rodata.str1.4,"aMS",%progbits,1
 819              		.align	2
 820              	.LC6:
 821 0000 47656E65 		.ascii	"Generated_Source\\PSoC6\\pdl\\drivers/peripheral/ip"
 821      72617465 
 821      645F536F 
 821      75726365 
 821      5C50536F 
 822 0030 632F6379 		.ascii	"c/cy_ipc_drv.h\000"
 822      5F697063 
 822      5F647276 
 822      2E6800
 823 003f 00       		.space	1
 824              	.LC9:
 825 0040 47656E65 		.ascii	"Generated_Source\\PSoC6\\pdl\\drivers\\peripheral\\"
 825      72617465 
 825      645F536F 
 825      75726365 
 825      5C50536F 
ARM GAS  C:\Users\Rolf\AppData\Local\Temp\ccTwK7ru.s 			page 42


 826 006e 7379736C 		.ascii	"syslib\\cy_syslib.c\000"
 826      69625C63 
 826      795F7379 
 826      736C6962 
 826      2E6300
 827              		.text
 828              	.Letext0:
 829              		.file 3 "c:\\program files (x86)\\cypress\\psoc creator\\4.4\\4.4\\psoc creator\\import\\gnu\\arm\
 830              		.file 4 "c:\\program files (x86)\\cypress\\psoc creator\\4.4\\4.4\\psoc creator\\import\\gnu\\arm\
 831              		.file 5 "Generated_Source\\PSoC6\\pdl\\devices/psoc6/include/ip/cyip_flashc.h"
 832              		.file 6 "Generated_Source\\PSoC6\\pdl\\devices/psoc6/include/ip/cyip_sflash.h"
 833              		.file 7 "Generated_Source\\PSoC6\\pdl\\devices/psoc6/include/ip/cyip_srss.h"
 834              		.file 8 "Generated_Source\\PSoC6\\pdl\\devices/psoc6/include/ip/cyip_backup.h"
 835              		.file 9 "Generated_Source\\PSoC6\\pdl\\devices/psoc6/include/ip/cyip_ipc.h"
 836              		.file 10 "Generated_Source\\PSoC6\\pdl\\drivers/peripheral/device/cy_device.h"
 837              		.file 11 "Generated_Source\\PSoC6\\pdl\\devices/psoc6/include/psoc6_01_config.h"
 838              		.file 12 "Generated_Source\\PSoC6\\pdl\\drivers\\peripheral\\syslib\\cy_syslib.h"
 839              		.file 13 "./system_psoc6.h"
 840              		.file 14 "c:\\program files (x86)\\cypress\\psoc creator\\4.4\\4.4\\psoc creator\\import\\gnu\\arm
 841              		.section	.debug_info,"",%progbits
 842              	.Ldebug_info0:
 843 0000 B7200000 		.4byte	0x20b7
 844 0004 0400     		.2byte	0x4
 845 0006 00000000 		.4byte	.Ldebug_abbrev0
 846 000a 04       		.byte	0x4
 847 000b 01       		.uleb128 0x1
 848 000c 440E0000 		.4byte	.LASF441
 849 0010 0C       		.byte	0xc
 850 0011 00030000 		.4byte	.LASF442
 851 0015 21140000 		.4byte	.LASF443
 852 0019 00000000 		.4byte	.Ldebug_ranges0+0
 853 001d 00000000 		.4byte	0
 854 0021 00000000 		.4byte	.Ldebug_line0
 855 0025 02       		.uleb128 0x2
 856 0026 01       		.byte	0x1
 857 0027 06       		.byte	0x6
 858 0028 EB180000 		.4byte	.LASF0
 859 002c 03       		.uleb128 0x3
 860 002d A8140000 		.4byte	.LASF2
 861 0031 03       		.byte	0x3
 862 0032 1D       		.byte	0x1d
 863 0033 37000000 		.4byte	0x37
 864 0037 02       		.uleb128 0x2
 865 0038 01       		.byte	0x1
 866 0039 08       		.byte	0x8
 867 003a BA160000 		.4byte	.LASF1
 868 003e 03       		.uleb128 0x3
 869 003f FD0E0000 		.4byte	.LASF3
 870 0043 03       		.byte	0x3
 871 0044 29       		.byte	0x29
 872 0045 49000000 		.4byte	0x49
 873 0049 02       		.uleb128 0x2
 874 004a 02       		.byte	0x2
 875 004b 05       		.byte	0x5
 876 004c 320D0000 		.4byte	.LASF4
 877 0050 03       		.uleb128 0x3
 878 0051 24080000 		.4byte	.LASF5
ARM GAS  C:\Users\Rolf\AppData\Local\Temp\ccTwK7ru.s 			page 43


 879 0055 03       		.byte	0x3
 880 0056 2B       		.byte	0x2b
 881 0057 5B000000 		.4byte	0x5b
 882 005b 02       		.uleb128 0x2
 883 005c 02       		.byte	0x2
 884 005d 07       		.byte	0x7
 885 005e A8100000 		.4byte	.LASF6
 886 0062 02       		.uleb128 0x2
 887 0063 04       		.byte	0x4
 888 0064 05       		.byte	0x5
 889 0065 F4120000 		.4byte	.LASF7
 890 0069 03       		.uleb128 0x3
 891 006a C8160000 		.4byte	.LASF8
 892 006e 03       		.byte	0x3
 893 006f 41       		.byte	0x41
 894 0070 74000000 		.4byte	0x74
 895 0074 02       		.uleb128 0x2
 896 0075 04       		.byte	0x4
 897 0076 07       		.byte	0x7
 898 0077 C6150000 		.4byte	.LASF9
 899 007b 02       		.uleb128 0x2
 900 007c 08       		.byte	0x8
 901 007d 05       		.byte	0x5
 902 007e 980D0000 		.4byte	.LASF10
 903 0082 03       		.uleb128 0x3
 904 0083 C60A0000 		.4byte	.LASF11
 905 0087 03       		.byte	0x3
 906 0088 5B       		.byte	0x5b
 907 0089 8D000000 		.4byte	0x8d
 908 008d 02       		.uleb128 0x2
 909 008e 08       		.byte	0x8
 910 008f 07       		.byte	0x7
 911 0090 97070000 		.4byte	.LASF12
 912 0094 04       		.uleb128 0x4
 913 0095 04       		.byte	0x4
 914 0096 05       		.byte	0x5
 915 0097 696E7400 		.ascii	"int\000"
 916 009b 02       		.uleb128 0x2
 917 009c 04       		.byte	0x4
 918 009d 07       		.byte	0x7
 919 009e 30020000 		.4byte	.LASF13
 920 00a2 03       		.uleb128 0x3
 921 00a3 F20C0000 		.4byte	.LASF14
 922 00a7 04       		.byte	0x4
 923 00a8 18       		.byte	0x18
 924 00a9 2C000000 		.4byte	0x2c
 925 00ad 03       		.uleb128 0x3
 926 00ae 51070000 		.4byte	.LASF15
 927 00b2 04       		.byte	0x4
 928 00b3 20       		.byte	0x20
 929 00b4 3E000000 		.4byte	0x3e
 930 00b8 03       		.uleb128 0x3
 931 00b9 9D160000 		.4byte	.LASF16
 932 00bd 04       		.byte	0x4
 933 00be 24       		.byte	0x24
 934 00bf 50000000 		.4byte	0x50
 935 00c3 03       		.uleb128 0x3
ARM GAS  C:\Users\Rolf\AppData\Local\Temp\ccTwK7ru.s 			page 44


 936 00c4 36060000 		.4byte	.LASF17
 937 00c8 04       		.byte	0x4
 938 00c9 30       		.byte	0x30
 939 00ca 69000000 		.4byte	0x69
 940 00ce 03       		.uleb128 0x3
 941 00cf DF130000 		.4byte	.LASF18
 942 00d3 04       		.byte	0x4
 943 00d4 3C       		.byte	0x3c
 944 00d5 82000000 		.4byte	0x82
 945 00d9 02       		.uleb128 0x2
 946 00da 08       		.byte	0x8
 947 00db 04       		.byte	0x4
 948 00dc DD100000 		.4byte	.LASF19
 949 00e0 05       		.uleb128 0x5
 950 00e1 C3000000 		.4byte	0xc3
 951 00e5 06       		.uleb128 0x6
 952 00e6 E0000000 		.4byte	0xe0
 953 00ea 07       		.uleb128 0x7
 954 00eb E5000000 		.4byte	0xe5
 955 00ef FA000000 		.4byte	0xfa
 956 00f3 08       		.uleb128 0x8
 957 00f4 FA000000 		.4byte	0xfa
 958 00f8 02       		.byte	0x2
 959 00f9 00       		.byte	0
 960 00fa 02       		.uleb128 0x2
 961 00fb 04       		.byte	0x4
 962 00fc 07       		.byte	0x7
 963 00fd 10120000 		.4byte	.LASF20
 964 0101 07       		.uleb128 0x7
 965 0102 E5000000 		.4byte	0xe5
 966 0106 11010000 		.4byte	0x111
 967 010a 08       		.uleb128 0x8
 968 010b FA000000 		.4byte	0xfa
 969 010f 0F       		.byte	0xf
 970 0110 00       		.byte	0
 971 0111 07       		.uleb128 0x7
 972 0112 E0000000 		.4byte	0xe0
 973 0116 21010000 		.4byte	0x121
 974 011a 08       		.uleb128 0x8
 975 011b FA000000 		.4byte	0xfa
 976 011f 0F       		.byte	0xf
 977 0120 00       		.byte	0
 978 0121 07       		.uleb128 0x7
 979 0122 E5000000 		.4byte	0xe5
 980 0126 31010000 		.4byte	0x131
 981 012a 08       		.uleb128 0x8
 982 012b FA000000 		.4byte	0xfa
 983 012f 06       		.byte	0x6
 984 0130 00       		.byte	0
 985 0131 07       		.uleb128 0x7
 986 0132 E5000000 		.4byte	0xe5
 987 0136 41010000 		.4byte	0x141
 988 013a 08       		.uleb128 0x8
 989 013b FA000000 		.4byte	0xfa
 990 013f 04       		.byte	0x4
 991 0140 00       		.byte	0
 992 0141 07       		.uleb128 0x7
ARM GAS  C:\Users\Rolf\AppData\Local\Temp\ccTwK7ru.s 			page 45


 993 0142 E5000000 		.4byte	0xe5
 994 0146 51010000 		.4byte	0x151
 995 014a 08       		.uleb128 0x8
 996 014b FA000000 		.4byte	0xfa
 997 014f 1A       		.byte	0x1a
 998 0150 00       		.byte	0
 999 0151 07       		.uleb128 0x7
 1000 0152 E5000000 		.4byte	0xe5
 1001 0156 61010000 		.4byte	0x161
 1002 015a 08       		.uleb128 0x8
 1003 015b FA000000 		.4byte	0xfa
 1004 015f 3C       		.byte	0x3c
 1005 0160 00       		.byte	0
 1006 0161 07       		.uleb128 0x7
 1007 0162 E5000000 		.4byte	0xe5
 1008 0166 71010000 		.4byte	0x171
 1009 016a 08       		.uleb128 0x8
 1010 016b FA000000 		.4byte	0xfa
 1011 016f 0C       		.byte	0xc
 1012 0170 00       		.byte	0
 1013 0171 07       		.uleb128 0x7
 1014 0172 E5000000 		.4byte	0xe5
 1015 0176 81010000 		.4byte	0x181
 1016 017a 08       		.uleb128 0x8
 1017 017b FA000000 		.4byte	0xfa
 1018 017f 1C       		.byte	0x1c
 1019 0180 00       		.byte	0
 1020 0181 09       		.uleb128 0x9
 1021 0182 0010     		.2byte	0x1000
 1022 0184 05       		.byte	0x5
 1023 0185 22       		.byte	0x22
 1024 0186 3F030000 		.4byte	0x33f
 1025 018a 0A       		.uleb128 0xa
 1026 018b 91180000 		.4byte	.LASF21
 1027 018f 05       		.byte	0x5
 1028 0190 23       		.byte	0x23
 1029 0191 E0000000 		.4byte	0xe0
 1030 0195 00       		.byte	0
 1031 0196 0A       		.uleb128 0xa
 1032 0197 EE190000 		.4byte	.LASF22
 1033 019b 05       		.byte	0x5
 1034 019c 24       		.byte	0x24
 1035 019d E5000000 		.4byte	0xe5
 1036 01a1 04       		.byte	0x4
 1037 01a2 0A       		.uleb128 0xa
 1038 01a3 DA020000 		.4byte	.LASF23
 1039 01a7 05       		.byte	0x5
 1040 01a8 25       		.byte	0x25
 1041 01a9 E0000000 		.4byte	0xe0
 1042 01ad 08       		.byte	0x8
 1043 01ae 0A       		.uleb128 0xa
 1044 01af 780B0000 		.4byte	.LASF24
 1045 01b3 05       		.byte	0x5
 1046 01b4 26       		.byte	0x26
 1047 01b5 E5000000 		.4byte	0xe5
 1048 01b9 0C       		.byte	0xc
 1049 01ba 0A       		.uleb128 0xa
ARM GAS  C:\Users\Rolf\AppData\Local\Temp\ccTwK7ru.s 			page 46


 1050 01bb 8E040000 		.4byte	.LASF25
 1051 01bf 05       		.byte	0x5
 1052 01c0 27       		.byte	0x27
 1053 01c1 E5000000 		.4byte	0xe5
 1054 01c5 10       		.byte	0x10
 1055 01c6 0A       		.uleb128 0xa
 1056 01c7 F9130000 		.4byte	.LASF26
 1057 01cb 05       		.byte	0x5
 1058 01cc 28       		.byte	0x28
 1059 01cd E0000000 		.4byte	0xe0
 1060 01d1 14       		.byte	0x14
 1061 01d2 0A       		.uleb128 0xa
 1062 01d3 20180000 		.4byte	.LASF27
 1063 01d7 05       		.byte	0x5
 1064 01d8 29       		.byte	0x29
 1065 01d9 E0000000 		.4byte	0xe0
 1066 01dd 18       		.byte	0x18
 1067 01de 0A       		.uleb128 0xa
 1068 01df 29180000 		.4byte	.LASF28
 1069 01e3 05       		.byte	0x5
 1070 01e4 2A       		.byte	0x2a
 1071 01e5 E0000000 		.4byte	0xe0
 1072 01e9 1C       		.byte	0x1c
 1073 01ea 0A       		.uleb128 0xa
 1074 01eb D0050000 		.4byte	.LASF29
 1075 01ef 05       		.byte	0x5
 1076 01f0 2B       		.byte	0x2b
 1077 01f1 E5000000 		.4byte	0xe5
 1078 01f5 20       		.byte	0x20
 1079 01f6 0A       		.uleb128 0xa
 1080 01f7 1F0B0000 		.4byte	.LASF30
 1081 01fb 05       		.byte	0x5
 1082 01fc 2C       		.byte	0x2c
 1083 01fd E0000000 		.4byte	0xe0
 1084 0201 24       		.byte	0x24
 1085 0202 0A       		.uleb128 0xa
 1086 0203 92050000 		.4byte	.LASF31
 1087 0207 05       		.byte	0x5
 1088 0208 2D       		.byte	0x2d
 1089 0209 E0000000 		.4byte	0xe0
 1090 020d 28       		.byte	0x28
 1091 020e 0A       		.uleb128 0xa
 1092 020f 270F0000 		.4byte	.LASF32
 1093 0213 05       		.byte	0x5
 1094 0214 2E       		.byte	0x2e
 1095 0215 E5000000 		.4byte	0xe5
 1096 0219 2C       		.byte	0x2c
 1097 021a 0A       		.uleb128 0xa
 1098 021b A6160000 		.4byte	.LASF33
 1099 021f 05       		.byte	0x5
 1100 0220 2F       		.byte	0x2f
 1101 0221 E0000000 		.4byte	0xe0
 1102 0225 30       		.byte	0x30
 1103 0226 0A       		.uleb128 0xa
 1104 0227 87040000 		.4byte	.LASF34
 1105 022b 05       		.byte	0x5
 1106 022c 30       		.byte	0x30
ARM GAS  C:\Users\Rolf\AppData\Local\Temp\ccTwK7ru.s 			page 47


 1107 022d E0000000 		.4byte	0xe0
 1108 0231 34       		.byte	0x34
 1109 0232 0A       		.uleb128 0xa
 1110 0233 4B090000 		.4byte	.LASF35
 1111 0237 05       		.byte	0x5
 1112 0238 31       		.byte	0x31
 1113 0239 E0000000 		.4byte	0xe0
 1114 023d 38       		.byte	0x38
 1115 023e 0A       		.uleb128 0xa
 1116 023f A1060000 		.4byte	.LASF36
 1117 0243 05       		.byte	0x5
 1118 0244 32       		.byte	0x32
 1119 0245 E0000000 		.4byte	0xe0
 1120 0249 3C       		.byte	0x3c
 1121 024a 0A       		.uleb128 0xa
 1122 024b 48040000 		.4byte	.LASF37
 1123 024f 05       		.byte	0x5
 1124 0250 33       		.byte	0x33
 1125 0251 E0000000 		.4byte	0xe0
 1126 0255 40       		.byte	0x40
 1127 0256 0A       		.uleb128 0xa
 1128 0257 5D0F0000 		.4byte	.LASF38
 1129 025b 05       		.byte	0x5
 1130 025c 34       		.byte	0x34
 1131 025d E0000000 		.4byte	0xe0
 1132 0261 44       		.byte	0x44
 1133 0262 0A       		.uleb128 0xa
 1134 0263 59150000 		.4byte	.LASF39
 1135 0267 05       		.byte	0x5
 1136 0268 35       		.byte	0x35
 1137 0269 E5000000 		.4byte	0xe5
 1138 026d 48       		.byte	0x48
 1139 026e 0A       		.uleb128 0xa
 1140 026f EE0E0000 		.4byte	.LASF40
 1141 0273 05       		.byte	0x5
 1142 0274 36       		.byte	0x36
 1143 0275 E0000000 		.4byte	0xe0
 1144 0279 4C       		.byte	0x4c
 1145 027a 0A       		.uleb128 0xa
 1146 027b 8B110000 		.4byte	.LASF41
 1147 027f 05       		.byte	0x5
 1148 0280 38       		.byte	0x38
 1149 0281 E0000000 		.4byte	0xe0
 1150 0285 50       		.byte	0x50
 1151 0286 0A       		.uleb128 0xa
 1152 0287 CA190000 		.4byte	.LASF42
 1153 028b 05       		.byte	0x5
 1154 028c 39       		.byte	0x39
 1155 028d E0000000 		.4byte	0xe0
 1156 0291 54       		.byte	0x54
 1157 0292 0A       		.uleb128 0xa
 1158 0293 C7110000 		.4byte	.LASF43
 1159 0297 05       		.byte	0x5
 1160 0298 3A       		.byte	0x3a
 1161 0299 E0000000 		.4byte	0xe0
 1162 029d 58       		.byte	0x58
 1163 029e 0A       		.uleb128 0xa
ARM GAS  C:\Users\Rolf\AppData\Local\Temp\ccTwK7ru.s 			page 48


 1164 029f D0110000 		.4byte	.LASF44
 1165 02a3 05       		.byte	0x5
 1166 02a4 3B       		.byte	0x3b
 1167 02a5 E0000000 		.4byte	0xe0
 1168 02a9 5C       		.byte	0x5c
 1169 02aa 0A       		.uleb128 0xa
 1170 02ab F9150000 		.4byte	.LASF45
 1171 02af 05       		.byte	0x5
 1172 02b0 3C       		.byte	0x3c
 1173 02b1 E0000000 		.4byte	0xe0
 1174 02b5 60       		.byte	0x60
 1175 02b6 0A       		.uleb128 0xa
 1176 02b7 0C000000 		.4byte	.LASF46
 1177 02bb 05       		.byte	0x5
 1178 02bc 3D       		.byte	0x3d
 1179 02bd 44030000 		.4byte	0x344
 1180 02c1 64       		.byte	0x64
 1181 02c2 0A       		.uleb128 0xa
 1182 02c3 D50D0000 		.4byte	.LASF47
 1183 02c7 05       		.byte	0x5
 1184 02c8 3E       		.byte	0x3e
 1185 02c9 E0000000 		.4byte	0xe0
 1186 02cd 80       		.byte	0x80
 1187 02ce 0A       		.uleb128 0xa
 1188 02cf 870F0000 		.4byte	.LASF48
 1189 02d3 05       		.byte	0x5
 1190 02d4 3F       		.byte	0x3f
 1191 02d5 E0000000 		.4byte	0xe0
 1192 02d9 84       		.byte	0x84
 1193 02da 0A       		.uleb128 0xa
 1194 02db 51180000 		.4byte	.LASF49
 1195 02df 05       		.byte	0x5
 1196 02e0 40       		.byte	0x40
 1197 02e1 E0000000 		.4byte	0xe0
 1198 02e5 88       		.byte	0x88
 1199 02e6 0A       		.uleb128 0xa
 1200 02e7 98180000 		.4byte	.LASF50
 1201 02eb 05       		.byte	0x5
 1202 02ec 41       		.byte	0x41
 1203 02ed E0000000 		.4byte	0xe0
 1204 02f1 8C       		.byte	0x8c
 1205 02f2 0A       		.uleb128 0xa
 1206 02f3 2C050000 		.4byte	.LASF51
 1207 02f7 05       		.byte	0x5
 1208 02f8 42       		.byte	0x42
 1209 02f9 E0000000 		.4byte	0xe0
 1210 02fd 90       		.byte	0x90
 1211 02fe 0A       		.uleb128 0xa
 1212 02ff 35070000 		.4byte	.LASF52
 1213 0303 05       		.byte	0x5
 1214 0304 43       		.byte	0x43
 1215 0305 4E030000 		.4byte	0x34e
 1216 0309 94       		.byte	0x94
 1217 030a 0B       		.uleb128 0xb
 1218 030b DA0B0000 		.4byte	.LASF53
 1219 030f 05       		.byte	0x5
 1220 0310 44       		.byte	0x44
ARM GAS  C:\Users\Rolf\AppData\Local\Temp\ccTwK7ru.s 			page 49


 1221 0311 68030000 		.4byte	0x368
 1222 0315 0001     		.2byte	0x100
 1223 0317 0B       		.uleb128 0xb
 1224 0318 55120000 		.4byte	.LASF54
 1225 031c 05       		.byte	0x5
 1226 031d 45       		.byte	0x45
 1227 031e 83030000 		.4byte	0x383
 1228 0322 8001     		.2byte	0x180
 1229 0324 0B       		.uleb128 0xb
 1230 0325 13050000 		.4byte	.LASF55
 1231 0329 05       		.byte	0x5
 1232 032a 46       		.byte	0x46
 1233 032b 98030000 		.4byte	0x398
 1234 032f 0008     		.2byte	0x800
 1235 0331 0B       		.uleb128 0xb
 1236 0332 02160000 		.4byte	.LASF56
 1237 0336 05       		.byte	0x5
 1238 0337 47       		.byte	0x47
 1239 0338 B2030000 		.4byte	0x3b2
 1240 033c 000C     		.2byte	0xc00
 1241 033e 00       		.byte	0
 1242 033f 05       		.uleb128 0x5
 1243 0340 21010000 		.4byte	0x121
 1244 0344 06       		.uleb128 0x6
 1245 0345 3F030000 		.4byte	0x33f
 1246 0349 05       		.uleb128 0x5
 1247 034a 41010000 		.4byte	0x141
 1248 034e 06       		.uleb128 0x6
 1249 034f 49030000 		.4byte	0x349
 1250 0353 07       		.uleb128 0x7
 1251 0354 E5000000 		.4byte	0xe5
 1252 0358 63030000 		.4byte	0x363
 1253 035c 08       		.uleb128 0x8
 1254 035d FA000000 		.4byte	0xfa
 1255 0361 1F       		.byte	0x1f
 1256 0362 00       		.byte	0
 1257 0363 05       		.uleb128 0x5
 1258 0364 53030000 		.4byte	0x353
 1259 0368 06       		.uleb128 0x6
 1260 0369 63030000 		.4byte	0x363
 1261 036d 07       		.uleb128 0x7
 1262 036e E5000000 		.4byte	0xe5
 1263 0372 7E030000 		.4byte	0x37e
 1264 0376 0C       		.uleb128 0xc
 1265 0377 FA000000 		.4byte	0xfa
 1266 037b 9F01     		.2byte	0x19f
 1267 037d 00       		.byte	0
 1268 037e 05       		.uleb128 0x5
 1269 037f 6D030000 		.4byte	0x36d
 1270 0383 06       		.uleb128 0x6
 1271 0384 7E030000 		.4byte	0x37e
 1272 0388 07       		.uleb128 0x7
 1273 0389 E0000000 		.4byte	0xe0
 1274 038d 98030000 		.4byte	0x398
 1275 0391 08       		.uleb128 0x8
 1276 0392 FA000000 		.4byte	0xfa
 1277 0396 FF       		.byte	0xff
ARM GAS  C:\Users\Rolf\AppData\Local\Temp\ccTwK7ru.s 			page 50


 1278 0397 00       		.byte	0
 1279 0398 05       		.uleb128 0x5
 1280 0399 88030000 		.4byte	0x388
 1281 039d 07       		.uleb128 0x7
 1282 039e E5000000 		.4byte	0xe5
 1283 03a2 AD030000 		.4byte	0x3ad
 1284 03a6 08       		.uleb128 0x8
 1285 03a7 FA000000 		.4byte	0xfa
 1286 03ab FF       		.byte	0xff
 1287 03ac 00       		.byte	0
 1288 03ad 05       		.uleb128 0x5
 1289 03ae 9D030000 		.4byte	0x39d
 1290 03b2 06       		.uleb128 0x6
 1291 03b3 AD030000 		.4byte	0x3ad
 1292 03b7 03       		.uleb128 0x3
 1293 03b8 670D0000 		.4byte	.LASF57
 1294 03bc 05       		.byte	0x5
 1295 03bd 48       		.byte	0x48
 1296 03be 81010000 		.4byte	0x181
 1297 03c2 0D       		.uleb128 0xd
 1298 03c3 00000100 		.4byte	0x10000
 1299 03c7 05       		.byte	0x5
 1300 03c8 4D       		.byte	0x4d
 1301 03c9 A2060000 		.4byte	0x6a2
 1302 03cd 0A       		.uleb128 0xa
 1303 03ce 12020000 		.4byte	.LASF58
 1304 03d2 05       		.byte	0x5
 1305 03d3 4E       		.byte	0x4e
 1306 03d4 E0000000 		.4byte	0xe0
 1307 03d8 00       		.byte	0
 1308 03d9 0A       		.uleb128 0xa
 1309 03da A21A0000 		.4byte	.LASF59
 1310 03de 05       		.byte	0x5
 1311 03df 4F       		.byte	0x4f
 1312 03e0 E0000000 		.4byte	0xe0
 1313 03e4 04       		.byte	0x4
 1314 03e5 0A       		.uleb128 0xa
 1315 03e6 39100000 		.4byte	.LASF60
 1316 03ea 05       		.byte	0x5
 1317 03eb 50       		.byte	0x50
 1318 03ec E0000000 		.4byte	0xe0
 1319 03f0 08       		.byte	0x8
 1320 03f1 0A       		.uleb128 0xa
 1321 03f2 0C000000 		.4byte	.LASF46
 1322 03f6 05       		.byte	0x5
 1323 03f7 51       		.byte	0x51
 1324 03f8 A7060000 		.4byte	0x6a7
 1325 03fc 0C       		.byte	0xc
 1326 03fd 0B       		.uleb128 0xb
 1327 03fe EB140000 		.4byte	.LASF61
 1328 0402 05       		.byte	0x5
 1329 0403 52       		.byte	0x52
 1330 0404 E0000000 		.4byte	0xe0
 1331 0408 0001     		.2byte	0x100
 1332 040a 0B       		.uleb128 0xb
 1333 040b D4100000 		.4byte	.LASF62
 1334 040f 05       		.byte	0x5
ARM GAS  C:\Users\Rolf\AppData\Local\Temp\ccTwK7ru.s 			page 51


 1335 0410 53       		.byte	0x53
 1336 0411 E0000000 		.4byte	0xe0
 1337 0415 0401     		.2byte	0x104
 1338 0417 0B       		.uleb128 0xb
 1339 0418 090C0000 		.4byte	.LASF63
 1340 041c 05       		.byte	0x5
 1341 041d 54       		.byte	0x54
 1342 041e E0000000 		.4byte	0xe0
 1343 0422 0801     		.2byte	0x108
 1344 0424 0B       		.uleb128 0xb
 1345 0425 440C0000 		.4byte	.LASF64
 1346 0429 05       		.byte	0x5
 1347 042a 55       		.byte	0x55
 1348 042b BC060000 		.4byte	0x6bc
 1349 042f 0C01     		.2byte	0x10c
 1350 0431 0B       		.uleb128 0xb
 1351 0432 DF150000 		.4byte	.LASF65
 1352 0436 05       		.byte	0x5
 1353 0437 56       		.byte	0x56
 1354 0438 D6060000 		.4byte	0x6d6
 1355 043c 2C01     		.2byte	0x12c
 1356 043e 0B       		.uleb128 0xb
 1357 043f DD140000 		.4byte	.LASF66
 1358 0443 05       		.byte	0x5
 1359 0444 57       		.byte	0x57
 1360 0445 E0060000 		.4byte	0x6e0
 1361 0449 4C01     		.2byte	0x14c
 1362 044b 0B       		.uleb128 0xb
 1363 044c F70D0000 		.4byte	.LASF67
 1364 0450 05       		.byte	0x5
 1365 0451 58       		.byte	0x58
 1366 0452 E5000000 		.4byte	0xe5
 1367 0456 6C01     		.2byte	0x16c
 1368 0458 0B       		.uleb128 0xb
 1369 0459 360F0000 		.4byte	.LASF68
 1370 045d 05       		.byte	0x5
 1371 045e 59       		.byte	0x59
 1372 045f E0000000 		.4byte	0xe0
 1373 0463 7001     		.2byte	0x170
 1374 0465 0B       		.uleb128 0xb
 1375 0466 35070000 		.4byte	.LASF52
 1376 046a 05       		.byte	0x5
 1377 046b 5A       		.byte	0x5a
 1378 046c FA060000 		.4byte	0x6fa
 1379 0470 7401     		.2byte	0x174
 1380 0472 0B       		.uleb128 0xb
 1381 0473 D1140000 		.4byte	.LASF69
 1382 0477 05       		.byte	0x5
 1383 0478 5B       		.byte	0x5b
 1384 0479 E0000000 		.4byte	0xe0
 1385 047d 0004     		.2byte	0x400
 1386 047f 0B       		.uleb128 0xb
 1387 0480 7A0C0000 		.4byte	.LASF70
 1388 0484 05       		.byte	0x5
 1389 0485 5C       		.byte	0x5c
 1390 0486 E0000000 		.4byte	0xe0
 1391 048a 0404     		.2byte	0x404
ARM GAS  C:\Users\Rolf\AppData\Local\Temp\ccTwK7ru.s 			page 52


 1392 048c 0B       		.uleb128 0xb
 1393 048d E2020000 		.4byte	.LASF71
 1394 0491 05       		.byte	0x5
 1395 0492 5D       		.byte	0x5d
 1396 0493 E0000000 		.4byte	0xe0
 1397 0497 0804     		.2byte	0x408
 1398 0499 0B       		.uleb128 0xb
 1399 049a DC030000 		.4byte	.LASF72
 1400 049e 05       		.byte	0x5
 1401 049f 5E       		.byte	0x5e
 1402 04a0 E0000000 		.4byte	0xe0
 1403 04a4 0C04     		.2byte	0x40c
 1404 04a6 0B       		.uleb128 0xb
 1405 04a7 55120000 		.4byte	.LASF54
 1406 04ab 05       		.byte	0x5
 1407 04ac 5F       		.byte	0x5f
 1408 04ad 14070000 		.4byte	0x714
 1409 04b1 1004     		.2byte	0x410
 1410 04b3 0B       		.uleb128 0xb
 1411 04b4 FD090000 		.4byte	.LASF73
 1412 04b8 05       		.byte	0x5
 1413 04b9 60       		.byte	0x60
 1414 04ba E5000000 		.4byte	0xe5
 1415 04be 4004     		.2byte	0x440
 1416 04c0 0B       		.uleb128 0xb
 1417 04c1 BA170000 		.4byte	.LASF74
 1418 04c5 05       		.byte	0x5
 1419 04c6 61       		.byte	0x61
 1420 04c7 E5000000 		.4byte	0xe5
 1421 04cb 4404     		.2byte	0x444
 1422 04cd 0B       		.uleb128 0xb
 1423 04ce 1C0A0000 		.4byte	.LASF75
 1424 04d2 05       		.byte	0x5
 1425 04d3 62       		.byte	0x62
 1426 04d4 E5000000 		.4byte	0xe5
 1427 04d8 4804     		.2byte	0x448
 1428 04da 0B       		.uleb128 0xb
 1429 04db 5F120000 		.4byte	.LASF76
 1430 04df 05       		.byte	0x5
 1431 04e0 63       		.byte	0x63
 1432 04e1 1E070000 		.4byte	0x71e
 1433 04e5 4C04     		.2byte	0x44c
 1434 04e7 0B       		.uleb128 0xb
 1435 04e8 C80F0000 		.4byte	.LASF77
 1436 04ec 05       		.byte	0x5
 1437 04ed 64       		.byte	0x64
 1438 04ee E0000000 		.4byte	0xe0
 1439 04f2 8004     		.2byte	0x480
 1440 04f4 0B       		.uleb128 0xb
 1441 04f5 460D0000 		.4byte	.LASF78
 1442 04f9 05       		.byte	0x5
 1443 04fa 65       		.byte	0x65
 1444 04fb E0000000 		.4byte	0xe0
 1445 04ff 8404     		.2byte	0x484
 1446 0501 0B       		.uleb128 0xb
 1447 0502 DE0F0000 		.4byte	.LASF79
 1448 0506 05       		.byte	0x5
ARM GAS  C:\Users\Rolf\AppData\Local\Temp\ccTwK7ru.s 			page 53


 1449 0507 66       		.byte	0x66
 1450 0508 E0000000 		.4byte	0xe0
 1451 050c 8804     		.2byte	0x488
 1452 050e 0B       		.uleb128 0xb
 1453 050f 9D100000 		.4byte	.LASF80
 1454 0513 05       		.byte	0x5
 1455 0514 67       		.byte	0x67
 1456 0515 E0000000 		.4byte	0xe0
 1457 0519 8C04     		.2byte	0x48c
 1458 051b 0B       		.uleb128 0xb
 1459 051c 69120000 		.4byte	.LASF81
 1460 0520 05       		.byte	0x5
 1461 0521 68       		.byte	0x68
 1462 0522 28070000 		.4byte	0x728
 1463 0526 9004     		.2byte	0x490
 1464 0528 0B       		.uleb128 0xb
 1465 0529 AA050000 		.4byte	.LASF82
 1466 052d 05       		.byte	0x5
 1467 052e 69       		.byte	0x69
 1468 052f E5000000 		.4byte	0xe5
 1469 0533 C004     		.2byte	0x4c0
 1470 0535 0B       		.uleb128 0xb
 1471 0536 B9050000 		.4byte	.LASF83
 1472 053a 05       		.byte	0x5
 1473 053b 6A       		.byte	0x6a
 1474 053c E5000000 		.4byte	0xe5
 1475 0540 C404     		.2byte	0x4c4
 1476 0542 0B       		.uleb128 0xb
 1477 0543 27060000 		.4byte	.LASF84
 1478 0547 05       		.byte	0x5
 1479 0548 6B       		.byte	0x6b
 1480 0549 E5000000 		.4byte	0xe5
 1481 054d C804     		.2byte	0x4c8
 1482 054f 0B       		.uleb128 0xb
 1483 0550 73120000 		.4byte	.LASF85
 1484 0554 05       		.byte	0x5
 1485 0555 6C       		.byte	0x6c
 1486 0556 32070000 		.4byte	0x732
 1487 055a CC04     		.2byte	0x4cc
 1488 055c 0B       		.uleb128 0xb
 1489 055d 0C0A0000 		.4byte	.LASF86
 1490 0561 05       		.byte	0x5
 1491 0562 6D       		.byte	0x6d
 1492 0563 E0000000 		.4byte	0xe0
 1493 0567 0005     		.2byte	0x500
 1494 0569 0B       		.uleb128 0xb
 1495 056a 7D120000 		.4byte	.LASF87
 1496 056e 05       		.byte	0x5
 1497 056f 6E       		.byte	0x6e
 1498 0570 E5000000 		.4byte	0xe5
 1499 0574 0405     		.2byte	0x504
 1500 0576 0B       		.uleb128 0xb
 1501 0577 06180000 		.4byte	.LASF88
 1502 057b 05       		.byte	0x5
 1503 057c 6F       		.byte	0x6f
 1504 057d E0000000 		.4byte	0xe0
 1505 0581 0805     		.2byte	0x508
ARM GAS  C:\Users\Rolf\AppData\Local\Temp\ccTwK7ru.s 			page 54


 1506 0583 0B       		.uleb128 0xb
 1507 0584 87120000 		.4byte	.LASF89
 1508 0588 05       		.byte	0x5
 1509 0589 70       		.byte	0x70
 1510 058a 3C070000 		.4byte	0x73c
 1511 058e 0C05     		.2byte	0x50c
 1512 0590 0B       		.uleb128 0xb
 1513 0591 7B010000 		.4byte	.LASF90
 1514 0595 05       		.byte	0x5
 1515 0596 71       		.byte	0x71
 1516 0597 E0000000 		.4byte	0xe0
 1517 059b 8005     		.2byte	0x580
 1518 059d 0B       		.uleb128 0xb
 1519 059e 91120000 		.4byte	.LASF91
 1520 05a2 05       		.byte	0x5
 1521 05a3 72       		.byte	0x72
 1522 05a4 E5000000 		.4byte	0xe5
 1523 05a8 8405     		.2byte	0x584
 1524 05aa 0B       		.uleb128 0xb
 1525 05ab EA0F0000 		.4byte	.LASF92
 1526 05af 05       		.byte	0x5
 1527 05b0 73       		.byte	0x73
 1528 05b1 E0000000 		.4byte	0xe0
 1529 05b5 8805     		.2byte	0x588
 1530 05b7 0B       		.uleb128 0xb
 1531 05b8 9B120000 		.4byte	.LASF93
 1532 05bc 05       		.byte	0x5
 1533 05bd 74       		.byte	0x74
 1534 05be 46070000 		.4byte	0x746
 1535 05c2 8C05     		.2byte	0x58c
 1536 05c4 0B       		.uleb128 0xb
 1537 05c5 6E080000 		.4byte	.LASF94
 1538 05c9 05       		.byte	0x5
 1539 05ca 75       		.byte	0x75
 1540 05cb E0000000 		.4byte	0xe0
 1541 05cf 0006     		.2byte	0x600
 1542 05d1 0B       		.uleb128 0xb
 1543 05d2 4C170000 		.4byte	.LASF95
 1544 05d6 05       		.byte	0x5
 1545 05d7 76       		.byte	0x76
 1546 05d8 E5000000 		.4byte	0xe5
 1547 05dc 0406     		.2byte	0x604
 1548 05de 0B       		.uleb128 0xb
 1549 05df 15160000 		.4byte	.LASF96
 1550 05e3 05       		.byte	0x5
 1551 05e4 77       		.byte	0x77
 1552 05e5 E0000000 		.4byte	0xe0
 1553 05e9 0806     		.2byte	0x608
 1554 05eb 0B       		.uleb128 0xb
 1555 05ec 57170000 		.4byte	.LASF97
 1556 05f0 05       		.byte	0x5
 1557 05f1 78       		.byte	0x78
 1558 05f2 50070000 		.4byte	0x750
 1559 05f6 0C06     		.2byte	0x60c
 1560 05f8 0B       		.uleb128 0xb
 1561 05f9 85100000 		.4byte	.LASF98
 1562 05fd 05       		.byte	0x5
ARM GAS  C:\Users\Rolf\AppData\Local\Temp\ccTwK7ru.s 			page 55


 1563 05fe 79       		.byte	0x79
 1564 05ff E0000000 		.4byte	0xe0
 1565 0603 8006     		.2byte	0x680
 1566 0605 0B       		.uleb128 0xb
 1567 0606 62170000 		.4byte	.LASF99
 1568 060a 05       		.byte	0x5
 1569 060b 7A       		.byte	0x7a
 1570 060c E5000000 		.4byte	0xe5
 1571 0610 8406     		.2byte	0x684
 1572 0612 0B       		.uleb128 0xb
 1573 0613 C2180000 		.4byte	.LASF100
 1574 0617 05       		.byte	0x5
 1575 0618 7B       		.byte	0x7b
 1576 0619 E0000000 		.4byte	0xe0
 1577 061d 8806     		.2byte	0x688
 1578 061f 0B       		.uleb128 0xb
 1579 0620 6D170000 		.4byte	.LASF101
 1580 0624 05       		.byte	0x5
 1581 0625 7C       		.byte	0x7c
 1582 0626 5A070000 		.4byte	0x75a
 1583 062a 8C06     		.2byte	0x68c
 1584 062c 0B       		.uleb128 0xb
 1585 062d 24070000 		.4byte	.LASF102
 1586 0631 05       		.byte	0x5
 1587 0632 7D       		.byte	0x7d
 1588 0633 E0000000 		.4byte	0xe0
 1589 0637 0007     		.2byte	0x700
 1590 0639 0B       		.uleb128 0xb
 1591 063a 78170000 		.4byte	.LASF103
 1592 063e 05       		.byte	0x5
 1593 063f 7E       		.byte	0x7e
 1594 0640 E5000000 		.4byte	0xe5
 1595 0644 0407     		.2byte	0x704
 1596 0646 0B       		.uleb128 0xb
 1597 0647 31150000 		.4byte	.LASF104
 1598 064b 05       		.byte	0x5
 1599 064c 7F       		.byte	0x7f
 1600 064d E0000000 		.4byte	0xe0
 1601 0651 0807     		.2byte	0x708
 1602 0653 0B       		.uleb128 0xb
 1603 0654 83170000 		.4byte	.LASF105
 1604 0658 05       		.byte	0x5
 1605 0659 80       		.byte	0x80
 1606 065a 64070000 		.4byte	0x764
 1607 065e 0C07     		.2byte	0x70c
 1608 0660 0B       		.uleb128 0xb
 1609 0661 080D0000 		.4byte	.LASF106
 1610 0665 05       		.byte	0x5
 1611 0666 81       		.byte	0x81
 1612 0667 E0000000 		.4byte	0xe0
 1613 066b 8007     		.2byte	0x780
 1614 066d 0B       		.uleb128 0xb
 1615 066e 8E170000 		.4byte	.LASF107
 1616 0672 05       		.byte	0x5
 1617 0673 82       		.byte	0x82
 1618 0674 E5000000 		.4byte	0xe5
 1619 0678 8407     		.2byte	0x784
ARM GAS  C:\Users\Rolf\AppData\Local\Temp\ccTwK7ru.s 			page 56


 1620 067a 0B       		.uleb128 0xb
 1621 067b D21A0000 		.4byte	.LASF108
 1622 067f 05       		.byte	0x5
 1623 0680 83       		.byte	0x83
 1624 0681 E0000000 		.4byte	0xe0
 1625 0685 8807     		.2byte	0x788
 1626 0687 0B       		.uleb128 0xb
 1627 0688 99170000 		.4byte	.LASF109
 1628 068c 05       		.byte	0x5
 1629 068d 84       		.byte	0x84
 1630 068e 7F070000 		.4byte	0x77f
 1631 0692 8C07     		.2byte	0x78c
 1632 0694 0B       		.uleb128 0xb
 1633 0695 91180000 		.4byte	.LASF21
 1634 0699 05       		.byte	0x5
 1635 069a 85       		.byte	0x85
 1636 069b B7030000 		.4byte	0x3b7
 1637 069f 00F0     		.2byte	0xf000
 1638 06a1 00       		.byte	0
 1639 06a2 05       		.uleb128 0x5
 1640 06a3 51010000 		.4byte	0x151
 1641 06a7 06       		.uleb128 0x6
 1642 06a8 A2060000 		.4byte	0x6a2
 1643 06ac 07       		.uleb128 0x7
 1644 06ad E0000000 		.4byte	0xe0
 1645 06b1 BC060000 		.4byte	0x6bc
 1646 06b5 08       		.uleb128 0x8
 1647 06b6 FA000000 		.4byte	0xfa
 1648 06ba 07       		.byte	0x7
 1649 06bb 00       		.byte	0
 1650 06bc 05       		.uleb128 0x5
 1651 06bd AC060000 		.4byte	0x6ac
 1652 06c1 07       		.uleb128 0x7
 1653 06c2 E5000000 		.4byte	0xe5
 1654 06c6 D1060000 		.4byte	0x6d1
 1655 06ca 08       		.uleb128 0x8
 1656 06cb FA000000 		.4byte	0xfa
 1657 06cf 07       		.byte	0x7
 1658 06d0 00       		.byte	0
 1659 06d1 05       		.uleb128 0x5
 1660 06d2 C1060000 		.4byte	0x6c1
 1661 06d6 06       		.uleb128 0x6
 1662 06d7 D1060000 		.4byte	0x6d1
 1663 06db 05       		.uleb128 0x5
 1664 06dc C1060000 		.4byte	0x6c1
 1665 06e0 06       		.uleb128 0x6
 1666 06e1 DB060000 		.4byte	0x6db
 1667 06e5 07       		.uleb128 0x7
 1668 06e6 E5000000 		.4byte	0xe5
 1669 06ea F5060000 		.4byte	0x6f5
 1670 06ee 08       		.uleb128 0x8
 1671 06ef FA000000 		.4byte	0xfa
 1672 06f3 A2       		.byte	0xa2
 1673 06f4 00       		.byte	0
 1674 06f5 05       		.uleb128 0x5
 1675 06f6 E5060000 		.4byte	0x6e5
 1676 06fa 06       		.uleb128 0x6
ARM GAS  C:\Users\Rolf\AppData\Local\Temp\ccTwK7ru.s 			page 57


 1677 06fb F5060000 		.4byte	0x6f5
 1678 06ff 07       		.uleb128 0x7
 1679 0700 E5000000 		.4byte	0xe5
 1680 0704 0F070000 		.4byte	0x70f
 1681 0708 08       		.uleb128 0x8
 1682 0709 FA000000 		.4byte	0xfa
 1683 070d 0B       		.byte	0xb
 1684 070e 00       		.byte	0
 1685 070f 05       		.uleb128 0x5
 1686 0710 FF060000 		.4byte	0x6ff
 1687 0714 06       		.uleb128 0x6
 1688 0715 0F070000 		.4byte	0x70f
 1689 0719 05       		.uleb128 0x5
 1690 071a 61010000 		.4byte	0x161
 1691 071e 06       		.uleb128 0x6
 1692 071f 19070000 		.4byte	0x719
 1693 0723 05       		.uleb128 0x5
 1694 0724 FF060000 		.4byte	0x6ff
 1695 0728 06       		.uleb128 0x6
 1696 0729 23070000 		.4byte	0x723
 1697 072d 05       		.uleb128 0x5
 1698 072e 61010000 		.4byte	0x161
 1699 0732 06       		.uleb128 0x6
 1700 0733 2D070000 		.4byte	0x72d
 1701 0737 05       		.uleb128 0x5
 1702 0738 71010000 		.4byte	0x171
 1703 073c 06       		.uleb128 0x6
 1704 073d 37070000 		.4byte	0x737
 1705 0741 05       		.uleb128 0x5
 1706 0742 71010000 		.4byte	0x171
 1707 0746 06       		.uleb128 0x6
 1708 0747 41070000 		.4byte	0x741
 1709 074b 05       		.uleb128 0x5
 1710 074c 71010000 		.4byte	0x171
 1711 0750 06       		.uleb128 0x6
 1712 0751 4B070000 		.4byte	0x74b
 1713 0755 05       		.uleb128 0x5
 1714 0756 71010000 		.4byte	0x171
 1715 075a 06       		.uleb128 0x6
 1716 075b 55070000 		.4byte	0x755
 1717 075f 05       		.uleb128 0x5
 1718 0760 71010000 		.4byte	0x171
 1719 0764 06       		.uleb128 0x6
 1720 0765 5F070000 		.4byte	0x75f
 1721 0769 07       		.uleb128 0x7
 1722 076a E5000000 		.4byte	0xe5
 1723 076e 7A070000 		.4byte	0x77a
 1724 0772 0C       		.uleb128 0xc
 1725 0773 FA000000 		.4byte	0xfa
 1726 0777 1C3A     		.2byte	0x3a1c
 1727 0779 00       		.byte	0
 1728 077a 05       		.uleb128 0x5
 1729 077b 69070000 		.4byte	0x769
 1730 077f 06       		.uleb128 0x6
 1731 0780 7A070000 		.4byte	0x77a
 1732 0784 03       		.uleb128 0x3
 1733 0785 2B0A0000 		.4byte	.LASF110
ARM GAS  C:\Users\Rolf\AppData\Local\Temp\ccTwK7ru.s 			page 58


 1734 0789 05       		.byte	0x5
 1735 078a 86       		.byte	0x86
 1736 078b C2030000 		.4byte	0x3c2
 1737 078f 07       		.uleb128 0x7
 1738 0790 E5000000 		.4byte	0xe5
 1739 0794 9F070000 		.4byte	0x79f
 1740 0798 08       		.uleb128 0x8
 1741 0799 FA000000 		.4byte	0xfa
 1742 079d 01       		.byte	0x1
 1743 079e 00       		.byte	0
 1744 079f 07       		.uleb128 0x7
 1745 07a0 E5000000 		.4byte	0xe5
 1746 07a4 AF070000 		.4byte	0x7af
 1747 07a8 08       		.uleb128 0x8
 1748 07a9 FA000000 		.4byte	0xfa
 1749 07ad 4F       		.byte	0x4f
 1750 07ae 00       		.byte	0
 1751 07af 07       		.uleb128 0x7
 1752 07b0 E0000000 		.4byte	0xe0
 1753 07b4 BF070000 		.4byte	0x7bf
 1754 07b8 08       		.uleb128 0x8
 1755 07b9 FA000000 		.4byte	0xfa
 1756 07bd 3F       		.byte	0x3f
 1757 07be 00       		.byte	0
 1758 07bf 09       		.uleb128 0x9
 1759 07c0 0080     		.2byte	0x8000
 1760 07c2 06       		.byte	0x6
 1761 07c3 21       		.byte	0x21
 1762 07c4 A50D0000 		.4byte	0xda5
 1763 07c8 0A       		.uleb128 0xa
 1764 07c9 0C000000 		.4byte	.LASF46
 1765 07cd 06       		.byte	0x6
 1766 07ce 22       		.byte	0x22
 1767 07cf AA0D0000 		.4byte	0xdaa
 1768 07d3 00       		.byte	0
 1769 07d4 0A       		.uleb128 0xa
 1770 07d5 9B050000 		.4byte	.LASF111
 1771 07d9 06       		.byte	0x6
 1772 07da 23       		.byte	0x23
 1773 07db A50D0000 		.4byte	0xda5
 1774 07df 01       		.byte	0x1
 1775 07e0 0A       		.uleb128 0xa
 1776 07e1 B2140000 		.4byte	.LASF112
 1777 07e5 06       		.byte	0x6
 1778 07e6 24       		.byte	0x24
 1779 07e7 AF0D0000 		.4byte	0xdaf
 1780 07eb 02       		.byte	0x2
 1781 07ec 0A       		.uleb128 0xa
 1782 07ed 35070000 		.4byte	.LASF52
 1783 07f1 06       		.byte	0x6
 1784 07f2 25       		.byte	0x25
 1785 07f3 B90D0000 		.4byte	0xdb9
 1786 07f7 04       		.byte	0x4
 1787 07f8 0A       		.uleb128 0xa
 1788 07f9 3D080000 		.4byte	.LASF113
 1789 07fd 06       		.byte	0x6
 1790 07fe 26       		.byte	0x26
ARM GAS  C:\Users\Rolf\AppData\Local\Temp\ccTwK7ru.s 			page 59


 1791 07ff AF0D0000 		.4byte	0xdaf
 1792 0803 0C       		.byte	0xc
 1793 0804 0A       		.uleb128 0xa
 1794 0805 55120000 		.4byte	.LASF54
 1795 0809 06       		.byte	0x6
 1796 080a 27       		.byte	0x27
 1797 080b D80D0000 		.4byte	0xdd8
 1798 080f 0E       		.byte	0xe
 1799 0810 0A       		.uleb128 0xa
 1800 0811 5C000000 		.4byte	.LASF114
 1801 0815 06       		.byte	0x6
 1802 0816 28       		.byte	0x28
 1803 0817 E0000000 		.4byte	0xe0
 1804 081b 14       		.byte	0x14
 1805 081c 0A       		.uleb128 0xa
 1806 081d 5F120000 		.4byte	.LASF76
 1807 0821 06       		.byte	0x6
 1808 0822 29       		.byte	0x29
 1809 0823 F30D0000 		.4byte	0xdf3
 1810 0827 18       		.byte	0x18
 1811 0828 0B       		.uleb128 0xb
 1812 0829 A6150000 		.4byte	.LASF115
 1813 082d 06       		.byte	0x6
 1814 082e 2A       		.byte	0x2a
 1815 082f 080E0000 		.4byte	0xe08
 1816 0833 0006     		.2byte	0x600
 1817 0835 0B       		.uleb128 0xb
 1818 0836 5D110000 		.4byte	.LASF116
 1819 083a 06       		.byte	0x6
 1820 083b 2B       		.byte	0x2b
 1821 083c A50D0000 		.4byte	0xda5
 1822 0840 0306     		.2byte	0x603
 1823 0842 0B       		.uleb128 0xb
 1824 0843 F7010000 		.4byte	.LASF117
 1825 0847 06       		.byte	0x6
 1826 0848 2C       		.byte	0x2c
 1827 0849 A50D0000 		.4byte	0xda5
 1828 084d 0406     		.2byte	0x604
 1829 084f 0B       		.uleb128 0xb
 1830 0850 FD010000 		.4byte	.LASF118
 1831 0854 06       		.byte	0x6
 1832 0855 2D       		.byte	0x2d
 1833 0856 A50D0000 		.4byte	0xda5
 1834 085a 0506     		.2byte	0x605
 1835 085c 0B       		.uleb128 0xb
 1836 085d 56060000 		.4byte	.LASF119
 1837 0861 06       		.byte	0x6
 1838 0862 2E       		.byte	0x2e
 1839 0863 A50D0000 		.4byte	0xda5
 1840 0867 0606     		.2byte	0x606
 1841 0869 0B       		.uleb128 0xb
 1842 086a D40F0000 		.4byte	.LASF120
 1843 086e 06       		.byte	0x6
 1844 086f 2F       		.byte	0x2f
 1845 0870 A50D0000 		.4byte	0xda5
 1846 0874 0706     		.2byte	0x607
 1847 0876 0B       		.uleb128 0xb
ARM GAS  C:\Users\Rolf\AppData\Local\Temp\ccTwK7ru.s 			page 60


 1848 0877 37090000 		.4byte	.LASF121
 1849 087b 06       		.byte	0x6
 1850 087c 30       		.byte	0x30
 1851 087d A50D0000 		.4byte	0xda5
 1852 0881 0806     		.2byte	0x608
 1853 0883 0B       		.uleb128 0xb
 1854 0884 EE0A0000 		.4byte	.LASF122
 1855 0888 06       		.byte	0x6
 1856 0889 31       		.byte	0x31
 1857 088a A50D0000 		.4byte	0xda5
 1858 088e 0906     		.2byte	0x609
 1859 0890 0B       		.uleb128 0xb
 1860 0891 BC130000 		.4byte	.LASF123
 1861 0895 06       		.byte	0x6
 1862 0896 32       		.byte	0x32
 1863 0897 A50D0000 		.4byte	0xda5
 1864 089b 0A06     		.2byte	0x60a
 1865 089d 0B       		.uleb128 0xb
 1866 089e 69120000 		.4byte	.LASF81
 1867 08a2 06       		.byte	0x6
 1868 08a3 33       		.byte	0x33
 1869 08a4 220E0000 		.4byte	0xe22
 1870 08a8 0B06     		.2byte	0x60b
 1871 08aa 0B       		.uleb128 0xb
 1872 08ab D3160000 		.4byte	.LASF124
 1873 08af 06       		.byte	0x6
 1874 08b0 34       		.byte	0x34
 1875 08b1 AF0D0000 		.4byte	0xdaf
 1876 08b5 4806     		.2byte	0x648
 1877 08b7 0B       		.uleb128 0xb
 1878 08b8 BE0C0000 		.4byte	.LASF125
 1879 08bc 06       		.byte	0x6
 1880 08bd 35       		.byte	0x35
 1881 08be AF0D0000 		.4byte	0xdaf
 1882 08c2 4A06     		.2byte	0x64a
 1883 08c4 0B       		.uleb128 0xb
 1884 08c5 73120000 		.4byte	.LASF85
 1885 08c9 06       		.byte	0x6
 1886 08ca 36       		.byte	0x36
 1887 08cb 2C0E0000 		.4byte	0xe2c
 1888 08cf 4C06     		.2byte	0x64c
 1889 08d1 0B       		.uleb128 0xb
 1890 08d2 C80D0000 		.4byte	.LASF126
 1891 08d6 06       		.byte	0x6
 1892 08d7 37       		.byte	0x37
 1893 08d8 E0000000 		.4byte	0xe0
 1894 08dc 6C06     		.2byte	0x66c
 1895 08de 0B       		.uleb128 0xb
 1896 08df 7D120000 		.4byte	.LASF87
 1897 08e3 06       		.byte	0x6
 1898 08e4 38       		.byte	0x38
 1899 08e5 460E0000 		.4byte	0xe46
 1900 08e9 7006     		.2byte	0x670
 1901 08eb 0B       		.uleb128 0xb
 1902 08ec 69020000 		.4byte	.LASF127
 1903 08f0 06       		.byte	0x6
 1904 08f1 39       		.byte	0x39
ARM GAS  C:\Users\Rolf\AppData\Local\Temp\ccTwK7ru.s 			page 61


 1905 08f2 A50D0000 		.4byte	0xda5
 1906 08f6 4007     		.2byte	0x740
 1907 08f8 0B       		.uleb128 0xb
 1908 08f9 291A0000 		.4byte	.LASF128
 1909 08fd 06       		.byte	0x6
 1910 08fe 3A       		.byte	0x3a
 1911 08ff A50D0000 		.4byte	0xda5
 1912 0903 4107     		.2byte	0x741
 1913 0905 0B       		.uleb128 0xb
 1914 0906 87120000 		.4byte	.LASF89
 1915 090a 06       		.byte	0x6
 1916 090b 3B       		.byte	0x3b
 1917 090c 600E0000 		.4byte	0xe60
 1918 0910 4207     		.2byte	0x742
 1919 0912 0B       		.uleb128 0xb
 1920 0913 EA090000 		.4byte	.LASF129
 1921 0917 06       		.byte	0x6
 1922 0918 3C       		.byte	0x3c
 1923 0919 750E0000 		.4byte	0xe75
 1924 091d 0008     		.2byte	0x800
 1925 091f 0B       		.uleb128 0xb
 1926 0920 EC160000 		.4byte	.LASF130
 1927 0924 06       		.byte	0x6
 1928 0925 3D       		.byte	0x3d
 1929 0926 7A0E0000 		.4byte	0xe7a
 1930 092a 000A     		.2byte	0xa00
 1931 092c 0B       		.uleb128 0xb
 1932 092d FB160000 		.4byte	.LASF131
 1933 0931 06       		.byte	0x6
 1934 0932 3E       		.byte	0x3e
 1935 0933 7F0E0000 		.4byte	0xe7f
 1936 0937 000C     		.2byte	0xc00
 1937 0939 0B       		.uleb128 0xb
 1938 093a 0A170000 		.4byte	.LASF132
 1939 093e 06       		.byte	0x6
 1940 093f 3F       		.byte	0x3f
 1941 0940 840E0000 		.4byte	0xe84
 1942 0944 000E     		.2byte	0xe00
 1943 0946 0B       		.uleb128 0xb
 1944 0947 91120000 		.4byte	.LASF91
 1945 094b 06       		.byte	0x6
 1946 094c 40       		.byte	0x40
 1947 094d 9F0E0000 		.4byte	0xe9f
 1948 0951 0010     		.2byte	0x1000
 1949 0953 0B       		.uleb128 0xb
 1950 0954 D7010000 		.4byte	.LASF133
 1951 0958 06       		.byte	0x6
 1952 0959 41       		.byte	0x41
 1953 095a B40E0000 		.4byte	0xeb4
 1954 095e B814     		.2byte	0x14b8
 1955 0960 0B       		.uleb128 0xb
 1956 0961 D4090000 		.4byte	.LASF134
 1957 0965 06       		.byte	0x6
 1958 0966 42       		.byte	0x42
 1959 0967 B90E0000 		.4byte	0xeb9
 1960 096b C814     		.2byte	0x14c8
 1961 096d 0B       		.uleb128 0xb
ARM GAS  C:\Users\Rolf\AppData\Local\Temp\ccTwK7ru.s 			page 62


 1962 096e F2100000 		.4byte	.LASF135
 1963 0972 06       		.byte	0x6
 1964 0973 43       		.byte	0x43
 1965 0974 BE0E0000 		.4byte	0xebe
 1966 0978 D814     		.2byte	0x14d8
 1967 097a 0B       		.uleb128 0xb
 1968 097b EB000000 		.4byte	.LASF136
 1969 097f 06       		.byte	0x6
 1970 0980 44       		.byte	0x44
 1971 0981 C30E0000 		.4byte	0xec3
 1972 0985 1815     		.2byte	0x1518
 1973 0987 0B       		.uleb128 0xb
 1974 0988 C5040000 		.4byte	.LASF137
 1975 098c 06       		.byte	0x6
 1976 098d 45       		.byte	0x45
 1977 098e C80E0000 		.4byte	0xec8
 1978 0992 5815     		.2byte	0x1558
 1979 0994 0B       		.uleb128 0xb
 1980 0995 67110000 		.4byte	.LASF138
 1981 0999 06       		.byte	0x6
 1982 099a 46       		.byte	0x46
 1983 099b CD0E0000 		.4byte	0xecd
 1984 099f 9815     		.2byte	0x1598
 1985 09a1 0B       		.uleb128 0xb
 1986 09a2 B0090000 		.4byte	.LASF139
 1987 09a6 06       		.byte	0x6
 1988 09a7 47       		.byte	0x47
 1989 09a8 D20E0000 		.4byte	0xed2
 1990 09ac D815     		.2byte	0x15d8
 1991 09ae 0B       		.uleb128 0xb
 1992 09af 9B120000 		.4byte	.LASF93
 1993 09b3 06       		.byte	0x6
 1994 09b4 48       		.byte	0x48
 1995 09b5 EC0E0000 		.4byte	0xeec
 1996 09b9 1816     		.2byte	0x1618
 1997 09bb 0B       		.uleb128 0xb
 1998 09bc 12110000 		.4byte	.LASF140
 1999 09c0 06       		.byte	0x6
 2000 09c1 49       		.byte	0x49
 2001 09c2 AF0D0000 		.4byte	0xdaf
 2002 09c6 0018     		.2byte	0x1800
 2003 09c8 0B       		.uleb128 0xb
 2004 09c9 4C170000 		.4byte	.LASF95
 2005 09cd 06       		.byte	0x6
 2006 09ce 4A       		.byte	0x4a
 2007 09cf CE0D0000 		.4byte	0xdce
 2008 09d3 0218     		.2byte	0x1802
 2009 09d5 0B       		.uleb128 0xb
 2010 09d6 A5120000 		.4byte	.LASF141
 2011 09da 06       		.byte	0x6
 2012 09db 4B       		.byte	0x4b
 2013 09dc E0000000 		.4byte	0xe0
 2014 09e0 0418     		.2byte	0x1804
 2015 09e2 0B       		.uleb128 0xb
 2016 09e3 BA120000 		.4byte	.LASF142
 2017 09e7 06       		.byte	0x6
 2018 09e8 4C       		.byte	0x4c
ARM GAS  C:\Users\Rolf\AppData\Local\Temp\ccTwK7ru.s 			page 63


 2019 09e9 E0000000 		.4byte	0xe0
 2020 09ed 0818     		.2byte	0x1808
 2021 09ef 0B       		.uleb128 0xb
 2022 09f0 CF120000 		.4byte	.LASF143
 2023 09f4 06       		.byte	0x6
 2024 09f5 4D       		.byte	0x4d
 2025 09f6 E0000000 		.4byte	0xe0
 2026 09fa 0C18     		.2byte	0x180c
 2027 09fc 0B       		.uleb128 0xb
 2028 09fd DD050000 		.4byte	.LASF144
 2029 0a01 06       		.byte	0x6
 2030 0a02 4E       		.byte	0x4e
 2031 0a03 E0000000 		.4byte	0xe0
 2032 0a07 1018     		.2byte	0x1810
 2033 0a09 0B       		.uleb128 0xb
 2034 0a0a 57170000 		.4byte	.LASF97
 2035 0a0e 06       		.byte	0x6
 2036 0a0f 4F       		.byte	0x4f
 2037 0a10 CE0D0000 		.4byte	0xdce
 2038 0a14 1418     		.2byte	0x1814
 2039 0a16 0B       		.uleb128 0xb
 2040 0a17 47080000 		.4byte	.LASF145
 2041 0a1b 06       		.byte	0x6
 2042 0a1c 50       		.byte	0x50
 2043 0a1d AF0D0000 		.4byte	0xdaf
 2044 0a21 1618     		.2byte	0x1816
 2045 0a23 0B       		.uleb128 0xb
 2046 0a24 920C0000 		.4byte	.LASF146
 2047 0a28 06       		.byte	0x6
 2048 0a29 51       		.byte	0x51
 2049 0a2a E0000000 		.4byte	0xe0
 2050 0a2e 1818     		.2byte	0x1818
 2051 0a30 0B       		.uleb128 0xb
 2052 0a31 35170000 		.4byte	.LASF147
 2053 0a35 06       		.byte	0x6
 2054 0a36 52       		.byte	0x52
 2055 0a37 E0000000 		.4byte	0xe0
 2056 0a3b 1C18     		.2byte	0x181c
 2057 0a3d 0B       		.uleb128 0xb
 2058 0a3e 03140000 		.4byte	.LASF148
 2059 0a42 06       		.byte	0x6
 2060 0a43 53       		.byte	0x53
 2061 0a44 E0000000 		.4byte	0xe0
 2062 0a48 2018     		.2byte	0x1820
 2063 0a4a 0B       		.uleb128 0xb
 2064 0a4b 43100000 		.4byte	.LASF149
 2065 0a4f 06       		.byte	0x6
 2066 0a50 54       		.byte	0x54
 2067 0a51 E0000000 		.4byte	0xe0
 2068 0a55 2418     		.2byte	0x1824
 2069 0a57 0B       		.uleb128 0xb
 2070 0a58 62170000 		.4byte	.LASF99
 2071 0a5c 06       		.byte	0x6
 2072 0a5d 55       		.byte	0x55
 2073 0a5e F60E0000 		.4byte	0xef6
 2074 0a62 2818     		.2byte	0x1828
 2075 0a64 0B       		.uleb128 0xb
ARM GAS  C:\Users\Rolf\AppData\Local\Temp\ccTwK7ru.s 			page 64


 2076 0a65 AA0A0000 		.4byte	.LASF150
 2077 0a69 06       		.byte	0x6
 2078 0a6a 56       		.byte	0x56
 2079 0a6b E0000000 		.4byte	0xe0
 2080 0a6f 4418     		.2byte	0x1844
 2081 0a71 0B       		.uleb128 0xb
 2082 0a72 4E050000 		.4byte	.LASF151
 2083 0a76 06       		.byte	0x6
 2084 0a77 57       		.byte	0x57
 2085 0a78 E0000000 		.4byte	0xe0
 2086 0a7c 4818     		.2byte	0x1848
 2087 0a7e 0B       		.uleb128 0xb
 2088 0a7f 090E0000 		.4byte	.LASF152
 2089 0a83 06       		.byte	0x6
 2090 0a84 58       		.byte	0x58
 2091 0a85 E0000000 		.4byte	0xe0
 2092 0a89 4C18     		.2byte	0x184c
 2093 0a8b 0B       		.uleb128 0xb
 2094 0a8c 60010000 		.4byte	.LASF153
 2095 0a90 06       		.byte	0x6
 2096 0a91 59       		.byte	0x59
 2097 0a92 E0000000 		.4byte	0xe0
 2098 0a96 5018     		.2byte	0x1850
 2099 0a98 0B       		.uleb128 0xb
 2100 0a99 6D170000 		.4byte	.LASF101
 2101 0a9d 06       		.byte	0x6
 2102 0a9e 5A       		.byte	0x5a
 2103 0a9f 110F0000 		.4byte	0xf11
 2104 0aa3 5418     		.2byte	0x1854
 2105 0aa5 0B       		.uleb128 0xb
 2106 0aa6 57080000 		.4byte	.LASF154
 2107 0aaa 06       		.byte	0x6
 2108 0aab 5B       		.byte	0x5b
 2109 0aac E0000000 		.4byte	0xe0
 2110 0ab0 0020     		.2byte	0x2000
 2111 0ab2 0B       		.uleb128 0xb
 2112 0ab3 1E0C0000 		.4byte	.LASF155
 2113 0ab7 06       		.byte	0x6
 2114 0ab8 5C       		.byte	0x5c
 2115 0ab9 E0000000 		.4byte	0xe0
 2116 0abd 0420     		.2byte	0x2004
 2117 0abf 0B       		.uleb128 0xb
 2118 0ac0 94110000 		.4byte	.LASF156
 2119 0ac4 06       		.byte	0x6
 2120 0ac5 5D       		.byte	0x5d
 2121 0ac6 E0000000 		.4byte	0xe0
 2122 0aca 0820     		.2byte	0x2008
 2123 0acc 0B       		.uleb128 0xb
 2124 0acd FC030000 		.4byte	.LASF157
 2125 0ad1 06       		.byte	0x6
 2126 0ad2 5E       		.byte	0x5e
 2127 0ad3 E0000000 		.4byte	0xe0
 2128 0ad7 0C20     		.2byte	0x200c
 2129 0ad9 0B       		.uleb128 0xb
 2130 0ada 670F0000 		.4byte	.LASF158
 2131 0ade 06       		.byte	0x6
 2132 0adf 5F       		.byte	0x5f
ARM GAS  C:\Users\Rolf\AppData\Local\Temp\ccTwK7ru.s 			page 65


 2133 0ae0 E0000000 		.4byte	0xe0
 2134 0ae4 1020     		.2byte	0x2010
 2135 0ae6 0B       		.uleb128 0xb
 2136 0ae7 070F0000 		.4byte	.LASF159
 2137 0aeb 06       		.byte	0x6
 2138 0aec 60       		.byte	0x60
 2139 0aed E0000000 		.4byte	0xe0
 2140 0af1 1420     		.2byte	0x2014
 2141 0af3 0B       		.uleb128 0xb
 2142 0af4 78170000 		.4byte	.LASF103
 2143 0af8 06       		.byte	0x6
 2144 0af9 61       		.byte	0x61
 2145 0afa 2B0F0000 		.4byte	0xf2b
 2146 0afe 1820     		.2byte	0x2018
 2147 0b00 0B       		.uleb128 0xb
 2148 0b01 AC130000 		.4byte	.LASF160
 2149 0b05 06       		.byte	0x6
 2150 0b06 62       		.byte	0x62
 2151 0b07 410F0000 		.4byte	0xf41
 2152 0b0b D820     		.2byte	0x20d8
 2153 0b0d 0B       		.uleb128 0xb
 2154 0b0e ED1A0000 		.4byte	.LASF161
 2155 0b12 06       		.byte	0x6
 2156 0b13 63       		.byte	0x63
 2157 0b14 570F0000 		.4byte	0xf57
 2158 0b18 005A     		.2byte	0x5a00
 2159 0b1a 0B       		.uleb128 0xb
 2160 0b1b 93150000 		.4byte	.LASF162
 2161 0b1f 06       		.byte	0x6
 2162 0b20 64       		.byte	0x64
 2163 0b21 6D0F0000 		.4byte	0xf6d
 2164 0b25 0066     		.2byte	0x6600
 2165 0b27 0B       		.uleb128 0xb
 2166 0b28 83170000 		.4byte	.LASF105
 2167 0b2c 06       		.byte	0x6
 2168 0b2d 65       		.byte	0x65
 2169 0b2e 880F0000 		.4byte	0xf88
 2170 0b32 006C     		.2byte	0x6c00
 2171 0b34 0B       		.uleb128 0xb
 2172 0b35 8C160000 		.4byte	.LASF163
 2173 0b39 06       		.byte	0x6
 2174 0b3a 66       		.byte	0x66
 2175 0b3b E0000000 		.4byte	0xe0
 2176 0b3f 0078     		.2byte	0x7800
 2177 0b41 0B       		.uleb128 0xb
 2178 0b42 80050000 		.4byte	.LASF164
 2179 0b46 06       		.byte	0x6
 2180 0b47 68       		.byte	0x68
 2181 0b48 E0000000 		.4byte	0xe0
 2182 0b4c 0478     		.2byte	0x7804
 2183 0b4e 0B       		.uleb128 0xb
 2184 0b4f B9000000 		.4byte	.LASF165
 2185 0b53 06       		.byte	0x6
 2186 0b54 69       		.byte	0x69
 2187 0b55 E0000000 		.4byte	0xe0
 2188 0b59 0878     		.2byte	0x7808
 2189 0b5b 0B       		.uleb128 0xb
ARM GAS  C:\Users\Rolf\AppData\Local\Temp\ccTwK7ru.s 			page 66


 2190 0b5c 5B1A0000 		.4byte	.LASF166
 2191 0b60 06       		.byte	0x6
 2192 0b61 6B       		.byte	0x6b
 2193 0b62 E0000000 		.4byte	0xe0
 2194 0b66 0C78     		.2byte	0x780c
 2195 0b68 0B       		.uleb128 0xb
 2196 0b69 5F060000 		.4byte	.LASF167
 2197 0b6d 06       		.byte	0x6
 2198 0b6e 6C       		.byte	0x6c
 2199 0b6f E0000000 		.4byte	0xe0
 2200 0b73 1078     		.2byte	0x7810
 2201 0b75 0B       		.uleb128 0xb
 2202 0b76 01080000 		.4byte	.LASF168
 2203 0b7a 06       		.byte	0x6
 2204 0b7b 6D       		.byte	0x6d
 2205 0b7c E0000000 		.4byte	0xe0
 2206 0b80 1478     		.2byte	0x7814
 2207 0b82 0B       		.uleb128 0xb
 2208 0b83 F1110000 		.4byte	.LASF169
 2209 0b87 06       		.byte	0x6
 2210 0b88 6E       		.byte	0x6e
 2211 0b89 E0000000 		.4byte	0xe0
 2212 0b8d 1878     		.2byte	0x7818
 2213 0b8f 0B       		.uleb128 0xb
 2214 0b90 D9110000 		.4byte	.LASF170
 2215 0b94 06       		.byte	0x6
 2216 0b95 6F       		.byte	0x6f
 2217 0b96 E0000000 		.4byte	0xe0
 2218 0b9a 1C78     		.2byte	0x781c
 2219 0b9c 0B       		.uleb128 0xb
 2220 0b9d 8E170000 		.4byte	.LASF107
 2221 0ba1 06       		.byte	0x6
 2222 0ba2 70       		.byte	0x70
 2223 0ba3 A20F0000 		.4byte	0xfa2
 2224 0ba7 2078     		.2byte	0x7820
 2225 0ba9 0B       		.uleb128 0xb
 2226 0baa E00A0000 		.4byte	.LASF171
 2227 0bae 06       		.byte	0x6
 2228 0baf 71       		.byte	0x71
 2229 0bb0 E0000000 		.4byte	0xe0
 2230 0bb4 FC79     		.2byte	0x79fc
 2231 0bb6 0B       		.uleb128 0xb
 2232 0bb7 D9000000 		.4byte	.LASF172
 2233 0bbb 06       		.byte	0x6
 2234 0bbc 72       		.byte	0x72
 2235 0bbd E0000000 		.4byte	0xe0
 2236 0bc1 007A     		.2byte	0x7a00
 2237 0bc3 0B       		.uleb128 0xb
 2238 0bc4 91190000 		.4byte	.LASF173
 2239 0bc8 06       		.byte	0x6
 2240 0bc9 74       		.byte	0x74
 2241 0bca E0000000 		.4byte	0xe0
 2242 0bce 047A     		.2byte	0x7a04
 2243 0bd0 0B       		.uleb128 0xb
 2244 0bd1 BD140000 		.4byte	.LASF174
 2245 0bd5 06       		.byte	0x6
 2246 0bd6 75       		.byte	0x75
ARM GAS  C:\Users\Rolf\AppData\Local\Temp\ccTwK7ru.s 			page 67


 2247 0bd7 E0000000 		.4byte	0xe0
 2248 0bdb 087A     		.2byte	0x7a08
 2249 0bdd 0B       		.uleb128 0xb
 2250 0bde FE140000 		.4byte	.LASF175
 2251 0be2 06       		.byte	0x6
 2252 0be3 77       		.byte	0x77
 2253 0be4 E0000000 		.4byte	0xe0
 2254 0be8 0C7A     		.2byte	0x7a0c
 2255 0bea 0B       		.uleb128 0xb
 2256 0beb 371A0000 		.4byte	.LASF176
 2257 0bef 06       		.byte	0x6
 2258 0bf0 78       		.byte	0x78
 2259 0bf1 E0000000 		.4byte	0xe0
 2260 0bf5 107A     		.2byte	0x7a10
 2261 0bf7 0B       		.uleb128 0xb
 2262 0bf8 AB0B0000 		.4byte	.LASF177
 2263 0bfc 06       		.byte	0x6
 2264 0bfd 79       		.byte	0x79
 2265 0bfe E0000000 		.4byte	0xe0
 2266 0c02 147A     		.2byte	0x7a14
 2267 0c04 0B       		.uleb128 0xb
 2268 0c05 F5190000 		.4byte	.LASF178
 2269 0c09 06       		.byte	0x6
 2270 0c0a 7B       		.byte	0x7b
 2271 0c0b E0000000 		.4byte	0xe0
 2272 0c0f 187A     		.2byte	0x7a18
 2273 0c11 0B       		.uleb128 0xb
 2274 0c12 6B000000 		.4byte	.LASF179
 2275 0c16 06       		.byte	0x6
 2276 0c17 7C       		.byte	0x7c
 2277 0c18 E0000000 		.4byte	0xe0
 2278 0c1c 1C7A     		.2byte	0x7a1c
 2279 0c1e 0B       		.uleb128 0xb
 2280 0c1f 99170000 		.4byte	.LASF109
 2281 0c23 06       		.byte	0x6
 2282 0c24 7D       		.byte	0x7d
 2283 0c25 AC0F0000 		.4byte	0xfac
 2284 0c29 207A     		.2byte	0x7a20
 2285 0c2b 0B       		.uleb128 0xb
 2286 0c2c 931A0000 		.4byte	.LASF180
 2287 0c30 06       		.byte	0x6
 2288 0c31 7E       		.byte	0x7e
 2289 0c32 E0000000 		.4byte	0xe0
 2290 0c36 FC7B     		.2byte	0x7bfc
 2291 0c38 0B       		.uleb128 0xb
 2292 0c39 900A0000 		.4byte	.LASF181
 2293 0c3d 06       		.byte	0x6
 2294 0c3e 80       		.byte	0x80
 2295 0c3f E0000000 		.4byte	0xe0
 2296 0c43 007C     		.2byte	0x7c00
 2297 0c45 0B       		.uleb128 0xb
 2298 0c46 EE020000 		.4byte	.LASF182
 2299 0c4a 06       		.byte	0x6
 2300 0c4b 82       		.byte	0x82
 2301 0c4c E0000000 		.4byte	0xe0
 2302 0c50 047C     		.2byte	0x7c04
 2303 0c52 0B       		.uleb128 0xb
ARM GAS  C:\Users\Rolf\AppData\Local\Temp\ccTwK7ru.s 			page 68


 2304 0c53 65150000 		.4byte	.LASF183
 2305 0c57 06       		.byte	0x6
 2306 0c58 83       		.byte	0x83
 2307 0c59 E0000000 		.4byte	0xe0
 2308 0c5d 087C     		.2byte	0x7c08
 2309 0c5f 0B       		.uleb128 0xb
 2310 0c60 79150000 		.4byte	.LASF184
 2311 0c64 06       		.byte	0x6
 2312 0c65 84       		.byte	0x84
 2313 0c66 E0000000 		.4byte	0xe0
 2314 0c6a 0C7C     		.2byte	0x7c0c
 2315 0c6c 0B       		.uleb128 0xb
 2316 0c6d BB100000 		.4byte	.LASF185
 2317 0c71 06       		.byte	0x6
 2318 0c72 86       		.byte	0x86
 2319 0c73 E0000000 		.4byte	0xe0
 2320 0c77 107C     		.2byte	0x7c10
 2321 0c79 0B       		.uleb128 0xb
 2322 0c7a 3D010000 		.4byte	.LASF186
 2323 0c7e 06       		.byte	0x6
 2324 0c7f 87       		.byte	0x87
 2325 0c80 E0000000 		.4byte	0xe0
 2326 0c84 147C     		.2byte	0x7c14
 2327 0c86 0B       		.uleb128 0xb
 2328 0c87 73060000 		.4byte	.LASF187
 2329 0c8b 06       		.byte	0x6
 2330 0c8c 89       		.byte	0x89
 2331 0c8d E0000000 		.4byte	0xe0
 2332 0c91 187C     		.2byte	0x7c18
 2333 0c93 0B       		.uleb128 0xb
 2334 0c94 3E190000 		.4byte	.LASF188
 2335 0c98 06       		.byte	0x6
 2336 0c99 8A       		.byte	0x8a
 2337 0c9a E0000000 		.4byte	0xe0
 2338 0c9e 1C7C     		.2byte	0x7c1c
 2339 0ca0 0B       		.uleb128 0xb
 2340 0ca1 060B0000 		.4byte	.LASF189
 2341 0ca5 06       		.byte	0x6
 2342 0ca6 8C       		.byte	0x8c
 2343 0ca7 E0000000 		.4byte	0xe0
 2344 0cab 207C     		.2byte	0x7c20
 2345 0cad 0B       		.uleb128 0xb
 2346 0cae 920B0000 		.4byte	.LASF190
 2347 0cb2 06       		.byte	0x6
 2348 0cb3 8F       		.byte	0x8f
 2349 0cb4 E0000000 		.4byte	0xe0
 2350 0cb8 247C     		.2byte	0x7c24
 2351 0cba 0B       		.uleb128 0xb
 2352 0cbb A4170000 		.4byte	.LASF191
 2353 0cbf 06       		.byte	0x6
 2354 0cc0 91       		.byte	0x91
 2355 0cc1 C60F0000 		.4byte	0xfc6
 2356 0cc5 287C     		.2byte	0x7c28
 2357 0cc7 0B       		.uleb128 0xb
 2358 0cc8 16070000 		.4byte	.LASF192
 2359 0ccc 06       		.byte	0x6
 2360 0ccd 92       		.byte	0x92
ARM GAS  C:\Users\Rolf\AppData\Local\Temp\ccTwK7ru.s 			page 69


 2361 0cce E0000000 		.4byte	0xe0
 2362 0cd2 F47D     		.2byte	0x7df4
 2363 0cd4 0B       		.uleb128 0xb
 2364 0cd5 7C0F0000 		.4byte	.LASF193
 2365 0cd9 06       		.byte	0x6
 2366 0cda 93       		.byte	0x93
 2367 0cdb E0000000 		.4byte	0xe0
 2368 0cdf F87D     		.2byte	0x7df8
 2369 0ce1 0B       		.uleb128 0xb
 2370 0ce2 B8150000 		.4byte	.LASF194
 2371 0ce6 06       		.byte	0x6
 2372 0ce7 94       		.byte	0x94
 2373 0ce8 E0000000 		.4byte	0xe0
 2374 0cec FC7D     		.2byte	0x7dfc
 2375 0cee 0B       		.uleb128 0xb
 2376 0cef 57020000 		.4byte	.LASF195
 2377 0cf3 06       		.byte	0x6
 2378 0cf4 95       		.byte	0x95
 2379 0cf5 E0000000 		.4byte	0xe0
 2380 0cf9 007E     		.2byte	0x7e00
 2381 0cfb 0B       		.uleb128 0xb
 2382 0cfc 35040000 		.4byte	.LASF196
 2383 0d00 06       		.byte	0x6
 2384 0d01 97       		.byte	0x97
 2385 0d02 E0000000 		.4byte	0xe0
 2386 0d06 047E     		.2byte	0x7e04
 2387 0d08 0B       		.uleb128 0xb
 2388 0d09 C4080000 		.4byte	.LASF197
 2389 0d0d 06       		.byte	0x6
 2390 0d0e 98       		.byte	0x98
 2391 0d0f E0000000 		.4byte	0xe0
 2392 0d13 087E     		.2byte	0x7e08
 2393 0d15 0B       		.uleb128 0xb
 2394 0d16 22010000 		.4byte	.LASF198
 2395 0d1a 06       		.byte	0x6
 2396 0d1b 99       		.byte	0x99
 2397 0d1c E0000000 		.4byte	0xe0
 2398 0d20 0C7E     		.2byte	0x7e0c
 2399 0d22 0B       		.uleb128 0xb
 2400 0d23 2E000000 		.4byte	.LASF199
 2401 0d27 06       		.byte	0x6
 2402 0d28 9B       		.byte	0x9b
 2403 0d29 E0000000 		.4byte	0xe0
 2404 0d2d 107E     		.2byte	0x7e10
 2405 0d2f 0B       		.uleb128 0xb
 2406 0d30 CF180000 		.4byte	.LASF200
 2407 0d34 06       		.byte	0x6
 2408 0d35 9C       		.byte	0x9c
 2409 0d36 E0000000 		.4byte	0xe0
 2410 0d3a 147E     		.2byte	0x7e14
 2411 0d3c 0B       		.uleb128 0xb
 2412 0d3d F81A0000 		.4byte	.LASF201
 2413 0d41 06       		.byte	0x6
 2414 0d42 9E       		.byte	0x9e
 2415 0d43 E0000000 		.4byte	0xe0
 2416 0d47 187E     		.2byte	0x7e18
 2417 0d49 0B       		.uleb128 0xb
ARM GAS  C:\Users\Rolf\AppData\Local\Temp\ccTwK7ru.s 			page 70


 2418 0d4a 69030000 		.4byte	.LASF202
 2419 0d4e 06       		.byte	0x6
 2420 0d4f 9F       		.byte	0x9f
 2421 0d50 E0000000 		.4byte	0xe0
 2422 0d54 1C7E     		.2byte	0x7e1c
 2423 0d56 0B       		.uleb128 0xb
 2424 0d57 1D150000 		.4byte	.LASF203
 2425 0d5b 06       		.byte	0x6
 2426 0d5c A1       		.byte	0xa1
 2427 0d5d E0000000 		.4byte	0xe0
 2428 0d61 207E     		.2byte	0x7e20
 2429 0d63 0B       		.uleb128 0xb
 2430 0d64 5F040000 		.4byte	.LASF204
 2431 0d68 06       		.byte	0x6
 2432 0d69 A4       		.byte	0xa4
 2433 0d6a E0000000 		.4byte	0xe0
 2434 0d6e 247E     		.2byte	0x7e24
 2435 0d70 0B       		.uleb128 0xb
 2436 0d71 AF170000 		.4byte	.LASF205
 2437 0d75 06       		.byte	0x6
 2438 0d76 A7       		.byte	0xa7
 2439 0d77 D00F0000 		.4byte	0xfd0
 2440 0d7b 287E     		.2byte	0x7e28
 2441 0d7d 0B       		.uleb128 0xb
 2442 0d7e 15080000 		.4byte	.LASF206
 2443 0d82 06       		.byte	0x6
 2444 0d83 A8       		.byte	0xa8
 2445 0d84 E0000000 		.4byte	0xe0
 2446 0d88 F47F     		.2byte	0x7ff4
 2447 0d8a 0B       		.uleb128 0xb
 2448 0d8b 29040000 		.4byte	.LASF207
 2449 0d8f 06       		.byte	0x6
 2450 0d90 A9       		.byte	0xa9
 2451 0d91 E0000000 		.4byte	0xe0
 2452 0d95 F87F     		.2byte	0x7ff8
 2453 0d97 0B       		.uleb128 0xb
 2454 0d98 47060000 		.4byte	.LASF208
 2455 0d9c 06       		.byte	0x6
 2456 0d9d AA       		.byte	0xaa
 2457 0d9e E0000000 		.4byte	0xe0
 2458 0da2 FC7F     		.2byte	0x7ffc
 2459 0da4 00       		.byte	0
 2460 0da5 05       		.uleb128 0x5
 2461 0da6 A2000000 		.4byte	0xa2
 2462 0daa 06       		.uleb128 0x6
 2463 0dab A50D0000 		.4byte	0xda5
 2464 0daf 05       		.uleb128 0x5
 2465 0db0 B8000000 		.4byte	0xb8
 2466 0db4 05       		.uleb128 0x5
 2467 0db5 8F070000 		.4byte	0x78f
 2468 0db9 06       		.uleb128 0x6
 2469 0dba B40D0000 		.4byte	0xdb4
 2470 0dbe 07       		.uleb128 0x7
 2471 0dbf CE0D0000 		.4byte	0xdce
 2472 0dc3 CE0D0000 		.4byte	0xdce
 2473 0dc7 08       		.uleb128 0x8
 2474 0dc8 FA000000 		.4byte	0xfa
ARM GAS  C:\Users\Rolf\AppData\Local\Temp\ccTwK7ru.s 			page 71


 2475 0dcc 02       		.byte	0x2
 2476 0dcd 00       		.byte	0
 2477 0dce 06       		.uleb128 0x6
 2478 0dcf AF0D0000 		.4byte	0xdaf
 2479 0dd3 05       		.uleb128 0x5
 2480 0dd4 BE0D0000 		.4byte	0xdbe
 2481 0dd8 06       		.uleb128 0x6
 2482 0dd9 D30D0000 		.4byte	0xdd3
 2483 0ddd 07       		.uleb128 0x7
 2484 0dde E5000000 		.4byte	0xe5
 2485 0de2 EE0D0000 		.4byte	0xdee
 2486 0de6 0C       		.uleb128 0xc
 2487 0de7 FA000000 		.4byte	0xfa
 2488 0deb 7901     		.2byte	0x179
 2489 0ded 00       		.byte	0
 2490 0dee 05       		.uleb128 0x5
 2491 0def DD0D0000 		.4byte	0xddd
 2492 0df3 06       		.uleb128 0x6
 2493 0df4 EE0D0000 		.4byte	0xdee
 2494 0df8 07       		.uleb128 0x7
 2495 0df9 A50D0000 		.4byte	0xda5
 2496 0dfd 080E0000 		.4byte	0xe08
 2497 0e01 08       		.uleb128 0x8
 2498 0e02 FA000000 		.4byte	0xfa
 2499 0e06 02       		.byte	0x2
 2500 0e07 00       		.byte	0
 2501 0e08 05       		.uleb128 0x5
 2502 0e09 F80D0000 		.4byte	0xdf8
 2503 0e0d 07       		.uleb128 0x7
 2504 0e0e AA0D0000 		.4byte	0xdaa
 2505 0e12 1D0E0000 		.4byte	0xe1d
 2506 0e16 08       		.uleb128 0x8
 2507 0e17 FA000000 		.4byte	0xfa
 2508 0e1b 3C       		.byte	0x3c
 2509 0e1c 00       		.byte	0
 2510 0e1d 05       		.uleb128 0x5
 2511 0e1e 0D0E0000 		.4byte	0xe0d
 2512 0e22 06       		.uleb128 0x6
 2513 0e23 1D0E0000 		.4byte	0xe1d
 2514 0e27 05       		.uleb128 0x5
 2515 0e28 C1060000 		.4byte	0x6c1
 2516 0e2c 06       		.uleb128 0x6
 2517 0e2d 270E0000 		.4byte	0xe27
 2518 0e31 07       		.uleb128 0x7
 2519 0e32 E5000000 		.4byte	0xe5
 2520 0e36 410E0000 		.4byte	0xe41
 2521 0e3a 08       		.uleb128 0x8
 2522 0e3b FA000000 		.4byte	0xfa
 2523 0e3f 33       		.byte	0x33
 2524 0e40 00       		.byte	0
 2525 0e41 05       		.uleb128 0x5
 2526 0e42 310E0000 		.4byte	0xe31
 2527 0e46 06       		.uleb128 0x6
 2528 0e47 410E0000 		.4byte	0xe41
 2529 0e4b 07       		.uleb128 0x7
 2530 0e4c CE0D0000 		.4byte	0xdce
 2531 0e50 5B0E0000 		.4byte	0xe5b
ARM GAS  C:\Users\Rolf\AppData\Local\Temp\ccTwK7ru.s 			page 72


 2532 0e54 08       		.uleb128 0x8
 2533 0e55 FA000000 		.4byte	0xfa
 2534 0e59 5E       		.byte	0x5e
 2535 0e5a 00       		.byte	0
 2536 0e5b 05       		.uleb128 0x5
 2537 0e5c 4B0E0000 		.4byte	0xe4b
 2538 0e60 06       		.uleb128 0x6
 2539 0e61 5B0E0000 		.4byte	0xe5b
 2540 0e65 07       		.uleb128 0x7
 2541 0e66 E0000000 		.4byte	0xe0
 2542 0e6a 750E0000 		.4byte	0xe75
 2543 0e6e 08       		.uleb128 0x8
 2544 0e6f FA000000 		.4byte	0xfa
 2545 0e73 7F       		.byte	0x7f
 2546 0e74 00       		.byte	0
 2547 0e75 05       		.uleb128 0x5
 2548 0e76 650E0000 		.4byte	0xe65
 2549 0e7a 05       		.uleb128 0x5
 2550 0e7b 650E0000 		.4byte	0xe65
 2551 0e7f 05       		.uleb128 0x5
 2552 0e80 650E0000 		.4byte	0xe65
 2553 0e84 05       		.uleb128 0x5
 2554 0e85 650E0000 		.4byte	0xe65
 2555 0e89 07       		.uleb128 0x7
 2556 0e8a E5000000 		.4byte	0xe5
 2557 0e8e 9A0E0000 		.4byte	0xe9a
 2558 0e92 0C       		.uleb128 0xc
 2559 0e93 FA000000 		.4byte	0xfa
 2560 0e97 2D01     		.2byte	0x12d
 2561 0e99 00       		.byte	0
 2562 0e9a 05       		.uleb128 0x5
 2563 0e9b 890E0000 		.4byte	0xe89
 2564 0e9f 06       		.uleb128 0x6
 2565 0ea0 9A0E0000 		.4byte	0xe9a
 2566 0ea4 07       		.uleb128 0x7
 2567 0ea5 A50D0000 		.4byte	0xda5
 2568 0ea9 B40E0000 		.4byte	0xeb4
 2569 0ead 08       		.uleb128 0x8
 2570 0eae FA000000 		.4byte	0xfa
 2571 0eb2 0F       		.byte	0xf
 2572 0eb3 00       		.byte	0
 2573 0eb4 05       		.uleb128 0x5
 2574 0eb5 A40E0000 		.4byte	0xea4
 2575 0eb9 05       		.uleb128 0x5
 2576 0eba A40E0000 		.4byte	0xea4
 2577 0ebe 05       		.uleb128 0x5
 2578 0ebf 11010000 		.4byte	0x111
 2579 0ec3 05       		.uleb128 0x5
 2580 0ec4 11010000 		.4byte	0x111
 2581 0ec8 05       		.uleb128 0x5
 2582 0ec9 11010000 		.4byte	0x111
 2583 0ecd 05       		.uleb128 0x5
 2584 0ece 11010000 		.4byte	0x111
 2585 0ed2 05       		.uleb128 0x5
 2586 0ed3 11010000 		.4byte	0x111
 2587 0ed7 07       		.uleb128 0x7
 2588 0ed8 E5000000 		.4byte	0xe5
ARM GAS  C:\Users\Rolf\AppData\Local\Temp\ccTwK7ru.s 			page 73


 2589 0edc E70E0000 		.4byte	0xee7
 2590 0ee0 08       		.uleb128 0x8
 2591 0ee1 FA000000 		.4byte	0xfa
 2592 0ee5 79       		.byte	0x79
 2593 0ee6 00       		.byte	0
 2594 0ee7 05       		.uleb128 0x5
 2595 0ee8 D70E0000 		.4byte	0xed7
 2596 0eec 06       		.uleb128 0x6
 2597 0eed E70E0000 		.4byte	0xee7
 2598 0ef1 05       		.uleb128 0x5
 2599 0ef2 21010000 		.4byte	0x121
 2600 0ef6 06       		.uleb128 0x6
 2601 0ef7 F10E0000 		.4byte	0xef1
 2602 0efb 07       		.uleb128 0x7
 2603 0efc E5000000 		.4byte	0xe5
 2604 0f00 0C0F0000 		.4byte	0xf0c
 2605 0f04 0C       		.uleb128 0xc
 2606 0f05 FA000000 		.4byte	0xfa
 2607 0f09 EA01     		.2byte	0x1ea
 2608 0f0b 00       		.byte	0
 2609 0f0c 05       		.uleb128 0x5
 2610 0f0d FB0E0000 		.4byte	0xefb
 2611 0f11 06       		.uleb128 0x6
 2612 0f12 0C0F0000 		.4byte	0xf0c
 2613 0f16 07       		.uleb128 0x7
 2614 0f17 E5000000 		.4byte	0xe5
 2615 0f1b 260F0000 		.4byte	0xf26
 2616 0f1f 08       		.uleb128 0x8
 2617 0f20 FA000000 		.4byte	0xfa
 2618 0f24 2F       		.byte	0x2f
 2619 0f25 00       		.byte	0
 2620 0f26 05       		.uleb128 0x5
 2621 0f27 160F0000 		.4byte	0xf16
 2622 0f2b 06       		.uleb128 0x6
 2623 0f2c 260F0000 		.4byte	0xf26
 2624 0f30 07       		.uleb128 0x7
 2625 0f31 A50D0000 		.4byte	0xda5
 2626 0f35 410F0000 		.4byte	0xf41
 2627 0f39 0C       		.uleb128 0xc
 2628 0f3a FA000000 		.4byte	0xfa
 2629 0f3e 2739     		.2byte	0x3927
 2630 0f40 00       		.byte	0
 2631 0f41 05       		.uleb128 0x5
 2632 0f42 300F0000 		.4byte	0xf30
 2633 0f46 07       		.uleb128 0x7
 2634 0f47 A50D0000 		.4byte	0xda5
 2635 0f4b 570F0000 		.4byte	0xf57
 2636 0f4f 0C       		.uleb128 0xc
 2637 0f50 FA000000 		.4byte	0xfa
 2638 0f54 FF0B     		.2byte	0xbff
 2639 0f56 00       		.byte	0
 2640 0f57 05       		.uleb128 0x5
 2641 0f58 460F0000 		.4byte	0xf46
 2642 0f5c 07       		.uleb128 0x7
 2643 0f5d E0000000 		.4byte	0xe0
 2644 0f61 6D0F0000 		.4byte	0xf6d
 2645 0f65 0C       		.uleb128 0xc
ARM GAS  C:\Users\Rolf\AppData\Local\Temp\ccTwK7ru.s 			page 74


 2646 0f66 FA000000 		.4byte	0xfa
 2647 0f6a 7F01     		.2byte	0x17f
 2648 0f6c 00       		.byte	0
 2649 0f6d 05       		.uleb128 0x5
 2650 0f6e 5C0F0000 		.4byte	0xf5c
 2651 0f72 07       		.uleb128 0x7
 2652 0f73 E5000000 		.4byte	0xe5
 2653 0f77 830F0000 		.4byte	0xf83
 2654 0f7b 0C       		.uleb128 0xc
 2655 0f7c FA000000 		.4byte	0xfa
 2656 0f80 FF02     		.2byte	0x2ff
 2657 0f82 00       		.byte	0
 2658 0f83 05       		.uleb128 0x5
 2659 0f84 720F0000 		.4byte	0xf72
 2660 0f88 06       		.uleb128 0x6
 2661 0f89 830F0000 		.4byte	0xf83
 2662 0f8d 07       		.uleb128 0x7
 2663 0f8e E5000000 		.4byte	0xe5
 2664 0f92 9D0F0000 		.4byte	0xf9d
 2665 0f96 08       		.uleb128 0x8
 2666 0f97 FA000000 		.4byte	0xfa
 2667 0f9b 76       		.byte	0x76
 2668 0f9c 00       		.byte	0
 2669 0f9d 05       		.uleb128 0x5
 2670 0f9e 8D0F0000 		.4byte	0xf8d
 2671 0fa2 06       		.uleb128 0x6
 2672 0fa3 9D0F0000 		.4byte	0xf9d
 2673 0fa7 05       		.uleb128 0x5
 2674 0fa8 8D0F0000 		.4byte	0xf8d
 2675 0fac 06       		.uleb128 0x6
 2676 0fad A70F0000 		.4byte	0xfa7
 2677 0fb1 07       		.uleb128 0x7
 2678 0fb2 E5000000 		.4byte	0xe5
 2679 0fb6 C10F0000 		.4byte	0xfc1
 2680 0fba 08       		.uleb128 0x8
 2681 0fbb FA000000 		.4byte	0xfa
 2682 0fbf 72       		.byte	0x72
 2683 0fc0 00       		.byte	0
 2684 0fc1 05       		.uleb128 0x5
 2685 0fc2 B10F0000 		.4byte	0xfb1
 2686 0fc6 06       		.uleb128 0x6
 2687 0fc7 C10F0000 		.4byte	0xfc1
 2688 0fcb 05       		.uleb128 0x5
 2689 0fcc B10F0000 		.4byte	0xfb1
 2690 0fd0 06       		.uleb128 0x6
 2691 0fd1 CB0F0000 		.4byte	0xfcb
 2692 0fd5 03       		.uleb128 0x3
 2693 0fd6 E6040000 		.4byte	.LASF209
 2694 0fda 06       		.byte	0x6
 2695 0fdb AC       		.byte	0xac
 2696 0fdc BF070000 		.4byte	0x7bf
 2697 0fe0 0E       		.uleb128 0xe
 2698 0fe1 40       		.byte	0x40
 2699 0fe2 07       		.byte	0x7
 2700 0fe3 22       		.byte	0x22
 2701 0fe4 79100000 		.4byte	0x1079
 2702 0fe8 0A       		.uleb128 0xa
ARM GAS  C:\Users\Rolf\AppData\Local\Temp\ccTwK7ru.s 			page 75


 2703 0fe9 0C000000 		.4byte	.LASF46
 2704 0fed 07       		.byte	0x7
 2705 0fee 23       		.byte	0x23
 2706 0fef E5000000 		.4byte	0xe5
 2707 0ff3 00       		.byte	0
 2708 0ff4 0A       		.uleb128 0xa
 2709 0ff5 7D0D0000 		.4byte	.LASF210
 2710 0ff9 07       		.byte	0x7
 2711 0ffa 24       		.byte	0x24
 2712 0ffb E0000000 		.4byte	0xe0
 2713 0fff 04       		.byte	0x4
 2714 1000 0A       		.uleb128 0xa
 2715 1001 FC050000 		.4byte	.LASF211
 2716 1005 07       		.byte	0x7
 2717 1006 25       		.byte	0x25
 2718 1007 E0000000 		.4byte	0xe0
 2719 100b 08       		.byte	0x8
 2720 100c 0A       		.uleb128 0xa
 2721 100d D3190000 		.4byte	.LASF212
 2722 1011 07       		.byte	0x7
 2723 1012 26       		.byte	0x26
 2724 1013 E0000000 		.4byte	0xe0
 2725 1017 0C       		.byte	0xc
 2726 1018 0A       		.uleb128 0xa
 2727 1019 44180000 		.4byte	.LASF213
 2728 101d 07       		.byte	0x7
 2729 101e 27       		.byte	0x27
 2730 101f E0000000 		.4byte	0xe0
 2731 1023 10       		.byte	0x10
 2732 1024 0A       		.uleb128 0xa
 2733 1025 16180000 		.4byte	.LASF214
 2734 1029 07       		.byte	0x7
 2735 102a 28       		.byte	0x28
 2736 102b E0000000 		.4byte	0xe0
 2737 102f 14       		.byte	0x14
 2738 1030 0A       		.uleb128 0xa
 2739 1031 DF0D0000 		.4byte	.LASF215
 2740 1035 07       		.byte	0x7
 2741 1036 29       		.byte	0x29
 2742 1037 E0000000 		.4byte	0xe0
 2743 103b 18       		.byte	0x18
 2744 103c 0A       		.uleb128 0xa
 2745 103d 300C0000 		.4byte	.LASF216
 2746 1041 07       		.byte	0x7
 2747 1042 2A       		.byte	0x2a
 2748 1043 E0000000 		.4byte	0xe0
 2749 1047 1C       		.byte	0x1c
 2750 1048 0A       		.uleb128 0xa
 2751 1049 5D0A0000 		.4byte	.LASF217
 2752 104d 07       		.byte	0x7
 2753 104e 2B       		.byte	0x2b
 2754 104f E0000000 		.4byte	0xe0
 2755 1053 20       		.byte	0x20
 2756 1054 0A       		.uleb128 0xa
 2757 1055 B7060000 		.4byte	.LASF218
 2758 1059 07       		.byte	0x7
 2759 105a 2C       		.byte	0x2c
ARM GAS  C:\Users\Rolf\AppData\Local\Temp\ccTwK7ru.s 			page 76


 2760 105b E5000000 		.4byte	0xe5
 2761 105f 24       		.byte	0x24
 2762 1060 0A       		.uleb128 0xa
 2763 1061 92100000 		.4byte	.LASF219
 2764 1065 07       		.byte	0x7
 2765 1066 2D       		.byte	0x2d
 2766 1067 E0000000 		.4byte	0xe0
 2767 106b 28       		.byte	0x28
 2768 106c 0A       		.uleb128 0xa
 2769 106d 35070000 		.4byte	.LASF52
 2770 1071 07       		.byte	0x7
 2771 1072 2E       		.byte	0x2e
 2772 1073 7E100000 		.4byte	0x107e
 2773 1077 2C       		.byte	0x2c
 2774 1078 00       		.byte	0
 2775 1079 05       		.uleb128 0x5
 2776 107a 31010000 		.4byte	0x131
 2777 107e 06       		.uleb128 0x6
 2778 107f 79100000 		.4byte	0x1079
 2779 1083 03       		.uleb128 0x3
 2780 1084 91010000 		.4byte	.LASF220
 2781 1088 07       		.byte	0x7
 2782 1089 2F       		.byte	0x2f
 2783 108a E00F0000 		.4byte	0xfe0
 2784 108e 09       		.uleb128 0x9
 2785 108f 30FF     		.2byte	0xff30
 2786 1091 07       		.byte	0x7
 2787 1092 34       		.byte	0x34
 2788 1093 02140000 		.4byte	0x1402
 2789 1097 0A       		.uleb128 0xa
 2790 1098 C8050000 		.4byte	.LASF221
 2791 109c 07       		.byte	0x7
 2792 109d 35       		.byte	0x35
 2793 109e E0000000 		.4byte	0xe0
 2794 10a2 00       		.byte	0
 2795 10a3 0A       		.uleb128 0xa
 2796 10a4 EA0B0000 		.4byte	.LASF222
 2797 10a8 07       		.byte	0x7
 2798 10a9 36       		.byte	0x36
 2799 10aa E0000000 		.4byte	0xe0
 2800 10ae 04       		.byte	0x4
 2801 10af 0A       		.uleb128 0xa
 2802 10b0 860C0000 		.4byte	.LASF223
 2803 10b4 07       		.byte	0x7
 2804 10b5 37       		.byte	0x37
 2805 10b6 E0000000 		.4byte	0xe0
 2806 10ba 08       		.byte	0x8
 2807 10bb 0A       		.uleb128 0xa
 2808 10bc 0C000000 		.4byte	.LASF46
 2809 10c0 07       		.byte	0x7
 2810 10c1 38       		.byte	0x38
 2811 10c2 07140000 		.4byte	0x1407
 2812 10c6 0C       		.byte	0xc
 2813 10c7 0A       		.uleb128 0xa
 2814 10c8 63130000 		.4byte	.LASF224
 2815 10cc 07       		.byte	0x7
 2816 10cd 39       		.byte	0x39
ARM GAS  C:\Users\Rolf\AppData\Local\Temp\ccTwK7ru.s 			page 77


 2817 10ce E0000000 		.4byte	0xe0
 2818 10d2 14       		.byte	0x14
 2819 10d3 0A       		.uleb128 0xa
 2820 10d4 2F080000 		.4byte	.LASF225
 2821 10d8 07       		.byte	0x7
 2822 10d9 3A       		.byte	0x3a
 2823 10da E0000000 		.4byte	0xe0
 2824 10de 18       		.byte	0x18
 2825 10df 0A       		.uleb128 0xa
 2826 10e0 3D020000 		.4byte	.LASF226
 2827 10e4 07       		.byte	0x7
 2828 10e5 3B       		.byte	0x3b
 2829 10e6 E5000000 		.4byte	0xe5
 2830 10ea 1C       		.byte	0x1c
 2831 10eb 0A       		.uleb128 0xa
 2832 10ec 35070000 		.4byte	.LASF52
 2833 10f0 07       		.byte	0x7
 2834 10f1 3C       		.byte	0x3c
 2835 10f2 21140000 		.4byte	0x1421
 2836 10f6 20       		.byte	0x20
 2837 10f7 0A       		.uleb128 0xa
 2838 10f8 EF050000 		.4byte	.LASF227
 2839 10fc 07       		.byte	0x7
 2840 10fd 3D       		.byte	0x3d
 2841 10fe 26140000 		.4byte	0x1426
 2842 1102 80       		.byte	0x80
 2843 1103 0A       		.uleb128 0xa
 2844 1104 55120000 		.4byte	.LASF54
 2845 1108 07       		.byte	0x7
 2846 1109 3E       		.byte	0x3e
 2847 110a 30140000 		.4byte	0x1430
 2848 110e C0       		.byte	0xc0
 2849 110f 0B       		.uleb128 0xb
 2850 1110 B2160000 		.4byte	.LASF228
 2851 1114 07       		.byte	0x7
 2852 1115 3F       		.byte	0x3f
 2853 1116 E0000000 		.4byte	0xe0
 2854 111a 8001     		.2byte	0x180
 2855 111c 0B       		.uleb128 0xb
 2856 111d B60C0000 		.4byte	.LASF229
 2857 1121 07       		.byte	0x7
 2858 1122 40       		.byte	0x40
 2859 1123 E0000000 		.4byte	0xe0
 2860 1127 8401     		.2byte	0x184
 2861 1129 0B       		.uleb128 0xb
 2862 112a 3C0D0000 		.4byte	.LASF230
 2863 112e 07       		.byte	0x7
 2864 112f 41       		.byte	0x41
 2865 1130 E0000000 		.4byte	0xe0
 2866 1134 8801     		.2byte	0x188
 2867 1136 0B       		.uleb128 0xb
 2868 1137 5F120000 		.4byte	.LASF76
 2869 113b 07       		.byte	0x7
 2870 113c 42       		.byte	0x42
 2871 113d 3A140000 		.4byte	0x143a
 2872 1141 8C01     		.2byte	0x18c
 2873 1143 0B       		.uleb128 0xb
ARM GAS  C:\Users\Rolf\AppData\Local\Temp\ccTwK7ru.s 			page 78


 2874 1144 C5130000 		.4byte	.LASF231
 2875 1148 07       		.byte	0x7
 2876 1149 43       		.byte	0x43
 2877 114a 3F140000 		.4byte	0x143f
 2878 114e 0002     		.2byte	0x200
 2879 1150 0B       		.uleb128 0xb
 2880 1151 4C1A0000 		.4byte	.LASF232
 2881 1155 07       		.byte	0x7
 2882 1156 44       		.byte	0x44
 2883 1157 4F140000 		.4byte	0x144f
 2884 115b 0003     		.2byte	0x300
 2885 115d 0B       		.uleb128 0xb
 2886 115e E4120000 		.4byte	.LASF233
 2887 1162 07       		.byte	0x7
 2888 1163 45       		.byte	0x45
 2889 1164 54140000 		.4byte	0x1454
 2890 1168 4003     		.2byte	0x340
 2891 116a 0B       		.uleb128 0xb
 2892 116b 7B110000 		.4byte	.LASF234
 2893 116f 07       		.byte	0x7
 2894 1170 46       		.byte	0x46
 2895 1171 59140000 		.4byte	0x1459
 2896 1175 8003     		.2byte	0x380
 2897 1177 0B       		.uleb128 0xb
 2898 1178 69120000 		.4byte	.LASF81
 2899 117c 07       		.byte	0x7
 2900 117d 47       		.byte	0x47
 2901 117e 63140000 		.4byte	0x1463
 2902 1182 C003     		.2byte	0x3c0
 2903 1184 0B       		.uleb128 0xb
 2904 1185 1E040000 		.4byte	.LASF235
 2905 1189 07       		.byte	0x7
 2906 118a 48       		.byte	0x48
 2907 118b E0000000 		.4byte	0xe0
 2908 118f 0005     		.2byte	0x500
 2909 1191 0B       		.uleb128 0xb
 2910 1192 FA0C0000 		.4byte	.LASF236
 2911 1196 07       		.byte	0x7
 2912 1197 49       		.byte	0x49
 2913 1198 E0000000 		.4byte	0xe0
 2914 119c 0405     		.2byte	0x504
 2915 119e 0B       		.uleb128 0xb
 2916 119f 73120000 		.4byte	.LASF85
 2917 11a3 07       		.byte	0x7
 2918 11a4 4A       		.byte	0x4a
 2919 11a5 E5000000 		.4byte	0xe5
 2920 11a9 0805     		.2byte	0x508
 2921 11ab 0B       		.uleb128 0xb
 2922 11ac 41030000 		.4byte	.LASF237
 2923 11b0 07       		.byte	0x7
 2924 11b1 4B       		.byte	0x4b
 2925 11b2 E0000000 		.4byte	0xe0
 2926 11b6 0C05     		.2byte	0x50c
 2927 11b8 0B       		.uleb128 0xb
 2928 11b9 5A030000 		.4byte	.LASF238
 2929 11bd 07       		.byte	0x7
 2930 11be 4C       		.byte	0x4c
ARM GAS  C:\Users\Rolf\AppData\Local\Temp\ccTwK7ru.s 			page 79


 2931 11bf E0000000 		.4byte	0xe0
 2932 11c3 1005     		.2byte	0x510
 2933 11c5 0B       		.uleb128 0xb
 2934 11c6 340E0000 		.4byte	.LASF239
 2935 11ca 07       		.byte	0x7
 2936 11cb 4D       		.byte	0x4d
 2937 11cc E0000000 		.4byte	0xe0
 2938 11d0 1405     		.2byte	0x514
 2939 11d2 0B       		.uleb128 0xb
 2940 11d3 CC030000 		.4byte	.LASF240
 2941 11d7 07       		.byte	0x7
 2942 11d8 4E       		.byte	0x4e
 2943 11d9 E0000000 		.4byte	0xe0
 2944 11dd 1805     		.2byte	0x518
 2945 11df 0B       		.uleb128 0xb
 2946 11e0 84090000 		.4byte	.LASF241
 2947 11e4 07       		.byte	0x7
 2948 11e5 4F       		.byte	0x4f
 2949 11e6 E0000000 		.4byte	0xe0
 2950 11ea 1C05     		.2byte	0x51c
 2951 11ec 0B       		.uleb128 0xb
 2952 11ed 91090000 		.4byte	.LASF242
 2953 11f1 07       		.byte	0x7
 2954 11f2 50       		.byte	0x50
 2955 11f3 E5000000 		.4byte	0xe5
 2956 11f7 2005     		.2byte	0x520
 2957 11f9 0B       		.uleb128 0xb
 2958 11fa 7D120000 		.4byte	.LASF87
 2959 11fe 07       		.byte	0x7
 2960 11ff 51       		.byte	0x51
 2961 1200 6D140000 		.4byte	0x146d
 2962 1204 2405     		.2byte	0x524
 2963 1206 0B       		.uleb128 0xb
 2964 1207 9C030000 		.4byte	.LASF243
 2965 120b 07       		.byte	0x7
 2966 120c 52       		.byte	0x52
 2967 120d E0000000 		.4byte	0xe0
 2968 1211 2C05     		.2byte	0x52c
 2969 1213 0B       		.uleb128 0xb
 2970 1214 09090000 		.4byte	.LASF244
 2971 1218 07       		.byte	0x7
 2972 1219 53       		.byte	0x53
 2973 121a E5000000 		.4byte	0xe5
 2974 121e 3005     		.2byte	0x530
 2975 1220 0B       		.uleb128 0xb
 2976 1221 87120000 		.4byte	.LASF89
 2977 1225 07       		.byte	0x7
 2978 1226 54       		.byte	0x54
 2979 1227 77140000 		.4byte	0x1477
 2980 122b 3405     		.2byte	0x534
 2981 122d 0B       		.uleb128 0xb
 2982 122e 15100000 		.4byte	.LASF245
 2983 1232 07       		.byte	0x7
 2984 1233 55       		.byte	0x55
 2985 1234 E0000000 		.4byte	0xe0
 2986 1238 3C05     		.2byte	0x53c
 2987 123a 0B       		.uleb128 0xb
ARM GAS  C:\Users\Rolf\AppData\Local\Temp\ccTwK7ru.s 			page 80


 2988 123b 91120000 		.4byte	.LASF91
 2989 123f 07       		.byte	0x7
 2990 1240 56       		.byte	0x56
 2991 1241 81140000 		.4byte	0x1481
 2992 1245 4005     		.2byte	0x540
 2993 1247 0B       		.uleb128 0xb
 2994 1248 D9080000 		.4byte	.LASF246
 2995 124c 07       		.byte	0x7
 2996 124d 57       		.byte	0x57
 2997 124e E0000000 		.4byte	0xe0
 2998 1252 8005     		.2byte	0x580
 2999 1254 0B       		.uleb128 0xb
 3000 1255 54090000 		.4byte	.LASF247
 3001 1259 07       		.byte	0x7
 3002 125a 58       		.byte	0x58
 3003 125b E0000000 		.4byte	0xe0
 3004 125f 8405     		.2byte	0x584
 3005 1261 0B       		.uleb128 0xb
 3006 1262 64090000 		.4byte	.LASF248
 3007 1266 07       		.byte	0x7
 3008 1267 59       		.byte	0x59
 3009 1268 E0000000 		.4byte	0xe0
 3010 126c 8805     		.2byte	0x588
 3011 126e 0B       		.uleb128 0xb
 3012 126f 74090000 		.4byte	.LASF249
 3013 1273 07       		.byte	0x7
 3014 1274 5A       		.byte	0x5a
 3015 1275 E0000000 		.4byte	0xe0
 3016 1279 8C05     		.2byte	0x58c
 3017 127b 0B       		.uleb128 0xb
 3018 127c 03020000 		.4byte	.LASF250
 3019 1280 07       		.byte	0x7
 3020 1281 5B       		.byte	0x5b
 3021 1282 E0000000 		.4byte	0xe0
 3022 1286 9005     		.2byte	0x590
 3023 1288 0B       		.uleb128 0xb
 3024 1289 9B120000 		.4byte	.LASF93
 3025 128d 07       		.byte	0x7
 3026 128e 5C       		.byte	0x5c
 3027 128f 8B140000 		.4byte	0x148b
 3028 1293 9405     		.2byte	0x594
 3029 1295 0B       		.uleb128 0xb
 3030 1296 910F0000 		.4byte	.LASF251
 3031 129a 07       		.byte	0x7
 3032 129b 5D       		.byte	0x5d
 3033 129c A0140000 		.4byte	0x14a0
 3034 12a0 0006     		.2byte	0x600
 3035 12a2 0B       		.uleb128 0xb
 3036 12a3 4C170000 		.4byte	.LASF95
 3037 12a7 07       		.byte	0x7
 3038 12a8 5E       		.byte	0x5e
 3039 12a9 E5000000 		.4byte	0xe5
 3040 12ad 3C06     		.2byte	0x63c
 3041 12af 0B       		.uleb128 0xb
 3042 12b0 D10A0000 		.4byte	.LASF252
 3043 12b4 07       		.byte	0x7
 3044 12b5 5F       		.byte	0x5f
ARM GAS  C:\Users\Rolf\AppData\Local\Temp\ccTwK7ru.s 			page 81


 3045 12b6 A5140000 		.4byte	0x14a5
 3046 12ba 4006     		.2byte	0x640
 3047 12bc 0B       		.uleb128 0xb
 3048 12bd 57170000 		.4byte	.LASF97
 3049 12c1 07       		.byte	0x7
 3050 12c2 60       		.byte	0x60
 3051 12c3 BF140000 		.4byte	0x14bf
 3052 12c7 7C06     		.2byte	0x67c
 3053 12c9 0B       		.uleb128 0xb
 3054 12ca F4140000 		.4byte	.LASF253
 3055 12ce 07       		.byte	0x7
 3056 12cf 61       		.byte	0x61
 3057 12d0 E0000000 		.4byte	0xe0
 3058 12d4 0007     		.2byte	0x700
 3059 12d6 0B       		.uleb128 0xb
 3060 12d7 E40C0000 		.4byte	.LASF254
 3061 12db 07       		.byte	0x7
 3062 12dc 62       		.byte	0x62
 3063 12dd E0000000 		.4byte	0xe0
 3064 12e1 0407     		.2byte	0x704
 3065 12e3 0B       		.uleb128 0xb
 3066 12e4 B8020000 		.4byte	.LASF255
 3067 12e8 07       		.byte	0x7
 3068 12e9 63       		.byte	0x63
 3069 12ea E0000000 		.4byte	0xe0
 3070 12ee 0807     		.2byte	0x708
 3071 12f0 0B       		.uleb128 0xb
 3072 12f1 52130000 		.4byte	.LASF256
 3073 12f5 07       		.byte	0x7
 3074 12f6 64       		.byte	0x64
 3075 12f7 E5000000 		.4byte	0xe5
 3076 12fb 0C07     		.2byte	0x70c
 3077 12fd 0B       		.uleb128 0xb
 3078 12fe 1E050000 		.4byte	.LASF257
 3079 1302 07       		.byte	0x7
 3080 1303 65       		.byte	0x65
 3081 1304 E0000000 		.4byte	0xe0
 3082 1308 1007     		.2byte	0x710
 3083 130a 0B       		.uleb128 0xb
 3084 130b 62170000 		.4byte	.LASF99
 3085 130f 07       		.byte	0x7
 3086 1310 66       		.byte	0x66
 3087 1311 D9140000 		.4byte	0x14d9
 3088 1315 1407     		.2byte	0x714
 3089 1317 0B       		.uleb128 0xb
 3090 1318 AE150000 		.4byte	.LASF258
 3091 131c 07       		.byte	0x7
 3092 131d 67       		.byte	0x67
 3093 131e E0000000 		.4byte	0xe0
 3094 1322 0008     		.2byte	0x800
 3095 1324 0B       		.uleb128 0xb
 3096 1325 4C020000 		.4byte	.LASF259
 3097 1329 07       		.byte	0x7
 3098 132a 68       		.byte	0x68
 3099 132b E0000000 		.4byte	0xe0
 3100 132f 0408     		.2byte	0x804
 3101 1331 0B       		.uleb128 0xb
ARM GAS  C:\Users\Rolf\AppData\Local\Temp\ccTwK7ru.s 			page 82


 3102 1332 6D170000 		.4byte	.LASF101
 3103 1336 07       		.byte	0x7
 3104 1337 69       		.byte	0x69
 3105 1338 F4140000 		.4byte	0x14f4
 3106 133c 0808     		.2byte	0x808
 3107 133e 0B       		.uleb128 0xb
 3108 133f F7180000 		.4byte	.LASF260
 3109 1343 07       		.byte	0x7
 3110 1344 6A       		.byte	0x6a
 3111 1345 E0000000 		.4byte	0xe0
 3112 1349 007F     		.2byte	0x7f00
 3113 134b 0B       		.uleb128 0xb
 3114 134c B1040000 		.4byte	.LASF261
 3115 1350 07       		.byte	0x7
 3116 1351 6B       		.byte	0x6b
 3117 1352 E0000000 		.4byte	0xe0
 3118 1356 047F     		.2byte	0x7f04
 3119 1358 0B       		.uleb128 0xb
 3120 1359 E8130000 		.4byte	.LASF262
 3121 135d 07       		.byte	0x7
 3122 135e 6C       		.byte	0x6c
 3123 135f E0000000 		.4byte	0xe0
 3124 1363 087F     		.2byte	0x7f08
 3125 1365 0B       		.uleb128 0xb
 3126 1366 08190000 		.4byte	.LASF263
 3127 136a 07       		.byte	0x7
 3128 136b 6D       		.byte	0x6d
 3129 136c E0000000 		.4byte	0xe0
 3130 1370 0C7F     		.2byte	0x7f0c
 3131 1372 0B       		.uleb128 0xb
 3132 1373 78170000 		.4byte	.LASF103
 3133 1377 07       		.byte	0x7
 3134 1378 6E       		.byte	0x6e
 3135 1379 FE140000 		.4byte	0x14fe
 3136 137d 107F     		.2byte	0x7f10
 3137 137f 0B       		.uleb128 0xb
 3138 1380 DD050000 		.4byte	.LASF144
 3139 1384 07       		.byte	0x7
 3140 1385 6F       		.byte	0x6f
 3141 1386 E0000000 		.4byte	0xe0
 3142 138a 307F     		.2byte	0x7f30
 3143 138c 0B       		.uleb128 0xb
 3144 138d 83170000 		.4byte	.LASF105
 3145 1391 07       		.byte	0x7
 3146 1392 70       		.byte	0x70
 3147 1393 19150000 		.4byte	0x1519
 3148 1397 347F     		.2byte	0x7f34
 3149 1399 0B       		.uleb128 0xb
 3150 139a 86070000 		.4byte	.LASF264
 3151 139e 07       		.byte	0x7
 3152 139f 71       		.byte	0x71
 3153 13a0 E0000000 		.4byte	0xe0
 3154 13a4 10FF     		.2byte	0xff10
 3155 13a6 0B       		.uleb128 0xb
 3156 13a7 8E170000 		.4byte	.LASF107
 3157 13ab 07       		.byte	0x7
 3158 13ac 72       		.byte	0x72
ARM GAS  C:\Users\Rolf\AppData\Local\Temp\ccTwK7ru.s 			page 83


 3159 13ad E5000000 		.4byte	0xe5
 3160 13b1 14FF     		.2byte	0xff14
 3161 13b3 0B       		.uleb128 0xb
 3162 13b4 A6060000 		.4byte	.LASF265
 3163 13b8 07       		.byte	0x7
 3164 13b9 73       		.byte	0x73
 3165 13ba E0000000 		.4byte	0xe0
 3166 13be 18FF     		.2byte	0xff18
 3167 13c0 0B       		.uleb128 0xb
 3168 13c1 6C180000 		.4byte	.LASF266
 3169 13c5 07       		.byte	0x7
 3170 13c6 74       		.byte	0x74
 3171 13c7 E0000000 		.4byte	0xe0
 3172 13cb 1CFF     		.2byte	0xff1c
 3173 13cd 0B       		.uleb128 0xb
 3174 13ce 6C070000 		.4byte	.LASF267
 3175 13d2 07       		.byte	0x7
 3176 13d3 75       		.byte	0x75
 3177 13d4 E0000000 		.4byte	0xe0
 3178 13d8 20FF     		.2byte	0xff20
 3179 13da 0B       		.uleb128 0xb
 3180 13db 2A130000 		.4byte	.LASF268
 3181 13df 07       		.byte	0x7
 3182 13e0 76       		.byte	0x76
 3183 13e1 E0000000 		.4byte	0xe0
 3184 13e5 24FF     		.2byte	0xff24
 3185 13e7 0B       		.uleb128 0xb
 3186 13e8 520B0000 		.4byte	.LASF269
 3187 13ec 07       		.byte	0x7
 3188 13ed 77       		.byte	0x77
 3189 13ee E0000000 		.4byte	0xe0
 3190 13f2 28FF     		.2byte	0xff28
 3191 13f4 0B       		.uleb128 0xb
 3192 13f5 650B0000 		.4byte	.LASF270
 3193 13f9 07       		.byte	0x7
 3194 13fa 78       		.byte	0x78
 3195 13fb E0000000 		.4byte	0xe0
 3196 13ff 2CFF     		.2byte	0xff2c
 3197 1401 00       		.byte	0
 3198 1402 05       		.uleb128 0x5
 3199 1403 8F070000 		.4byte	0x78f
 3200 1407 06       		.uleb128 0x6
 3201 1408 02140000 		.4byte	0x1402
 3202 140c 07       		.uleb128 0x7
 3203 140d E5000000 		.4byte	0xe5
 3204 1411 1C140000 		.4byte	0x141c
 3205 1415 08       		.uleb128 0x8
 3206 1416 FA000000 		.4byte	0xfa
 3207 141a 17       		.byte	0x17
 3208 141b 00       		.byte	0
 3209 141c 05       		.uleb128 0x5
 3210 141d 0C140000 		.4byte	0x140c
 3211 1421 06       		.uleb128 0x6
 3212 1422 1C140000 		.4byte	0x141c
 3213 1426 05       		.uleb128 0x5
 3214 1427 11010000 		.4byte	0x111
 3215 142b 05       		.uleb128 0x5
ARM GAS  C:\Users\Rolf\AppData\Local\Temp\ccTwK7ru.s 			page 84


 3216 142c 160F0000 		.4byte	0xf16
 3217 1430 06       		.uleb128 0x6
 3218 1431 2B140000 		.4byte	0x142b
 3219 1435 05       		.uleb128 0x5
 3220 1436 71010000 		.4byte	0x171
 3221 143a 06       		.uleb128 0x6
 3222 143b 35140000 		.4byte	0x1435
 3223 143f 07       		.uleb128 0x7
 3224 1440 83100000 		.4byte	0x1083
 3225 1444 4F140000 		.4byte	0x144f
 3226 1448 08       		.uleb128 0x8
 3227 1449 FA000000 		.4byte	0xfa
 3228 144d 03       		.byte	0x3
 3229 144e 00       		.byte	0
 3230 144f 05       		.uleb128 0x5
 3231 1450 11010000 		.4byte	0x111
 3232 1454 05       		.uleb128 0x5
 3233 1455 11010000 		.4byte	0x111
 3234 1459 05       		.uleb128 0x5
 3235 145a 11010000 		.4byte	0x111
 3236 145e 05       		.uleb128 0x5
 3237 145f 9F070000 		.4byte	0x79f
 3238 1463 06       		.uleb128 0x6
 3239 1464 5E140000 		.4byte	0x145e
 3240 1468 05       		.uleb128 0x5
 3241 1469 8F070000 		.4byte	0x78f
 3242 146d 06       		.uleb128 0x6
 3243 146e 68140000 		.4byte	0x1468
 3244 1472 05       		.uleb128 0x5
 3245 1473 8F070000 		.4byte	0x78f
 3246 1477 06       		.uleb128 0x6
 3247 1478 72140000 		.4byte	0x1472
 3248 147c 05       		.uleb128 0x5
 3249 147d 01010000 		.4byte	0x101
 3250 1481 06       		.uleb128 0x6
 3251 1482 7C140000 		.4byte	0x147c
 3252 1486 05       		.uleb128 0x5
 3253 1487 41010000 		.4byte	0x141
 3254 148b 06       		.uleb128 0x6
 3255 148c 86140000 		.4byte	0x1486
 3256 1490 07       		.uleb128 0x7
 3257 1491 E0000000 		.4byte	0xe0
 3258 1495 A0140000 		.4byte	0x14a0
 3259 1499 08       		.uleb128 0x8
 3260 149a FA000000 		.4byte	0xfa
 3261 149e 0E       		.byte	0xe
 3262 149f 00       		.byte	0
 3263 14a0 05       		.uleb128 0x5
 3264 14a1 90140000 		.4byte	0x1490
 3265 14a5 05       		.uleb128 0x5
 3266 14a6 90140000 		.4byte	0x1490
 3267 14aa 07       		.uleb128 0x7
 3268 14ab E5000000 		.4byte	0xe5
 3269 14af BA140000 		.4byte	0x14ba
 3270 14b3 08       		.uleb128 0x8
 3271 14b4 FA000000 		.4byte	0xfa
 3272 14b8 20       		.byte	0x20
ARM GAS  C:\Users\Rolf\AppData\Local\Temp\ccTwK7ru.s 			page 85


 3273 14b9 00       		.byte	0
 3274 14ba 05       		.uleb128 0x5
 3275 14bb AA140000 		.4byte	0x14aa
 3276 14bf 06       		.uleb128 0x6
 3277 14c0 BA140000 		.4byte	0x14ba
 3278 14c4 07       		.uleb128 0x7
 3279 14c5 E5000000 		.4byte	0xe5
 3280 14c9 D4140000 		.4byte	0x14d4
 3281 14cd 08       		.uleb128 0x8
 3282 14ce FA000000 		.4byte	0xfa
 3283 14d2 3A       		.byte	0x3a
 3284 14d3 00       		.byte	0
 3285 14d4 05       		.uleb128 0x5
 3286 14d5 C4140000 		.4byte	0x14c4
 3287 14d9 06       		.uleb128 0x6
 3288 14da D4140000 		.4byte	0x14d4
 3289 14de 07       		.uleb128 0x7
 3290 14df E5000000 		.4byte	0xe5
 3291 14e3 EF140000 		.4byte	0x14ef
 3292 14e7 0C       		.uleb128 0xc
 3293 14e8 FA000000 		.4byte	0xfa
 3294 14ec BD1D     		.2byte	0x1dbd
 3295 14ee 00       		.byte	0
 3296 14ef 05       		.uleb128 0x5
 3297 14f0 DE140000 		.4byte	0x14de
 3298 14f4 06       		.uleb128 0x6
 3299 14f5 EF140000 		.4byte	0x14ef
 3300 14f9 05       		.uleb128 0x5
 3301 14fa C1060000 		.4byte	0x6c1
 3302 14fe 06       		.uleb128 0x6
 3303 14ff F9140000 		.4byte	0x14f9
 3304 1503 07       		.uleb128 0x7
 3305 1504 E5000000 		.4byte	0xe5
 3306 1508 14150000 		.4byte	0x1514
 3307 150c 0C       		.uleb128 0xc
 3308 150d FA000000 		.4byte	0xfa
 3309 1511 F61F     		.2byte	0x1ff6
 3310 1513 00       		.byte	0
 3311 1514 05       		.uleb128 0x5
 3312 1515 03150000 		.4byte	0x1503
 3313 1519 06       		.uleb128 0x6
 3314 151a 14150000 		.4byte	0x1514
 3315 151e 03       		.uleb128 0x3
 3316 151f EA0D0000 		.4byte	.LASF271
 3317 1523 07       		.byte	0x7
 3318 1524 79       		.byte	0x79
 3319 1525 8E100000 		.4byte	0x108e
 3320 1529 09       		.uleb128 0x9
 3321 152a 04FF     		.2byte	0xff04
 3322 152c 08       		.byte	0x8
 3323 152d 21       		.byte	0x21
 3324 152e 4A160000 		.4byte	0x164a
 3325 1532 0F       		.uleb128 0xf
 3326 1533 43544C00 		.ascii	"CTL\000"
 3327 1537 08       		.byte	0x8
 3328 1538 22       		.byte	0x22
 3329 1539 E0000000 		.4byte	0xe0
ARM GAS  C:\Users\Rolf\AppData\Local\Temp\ccTwK7ru.s 			page 86


 3330 153d 00       		.byte	0
 3331 153e 0A       		.uleb128 0xa
 3332 153f 0C000000 		.4byte	.LASF46
 3333 1543 08       		.byte	0x8
 3334 1544 23       		.byte	0x23
 3335 1545 E5000000 		.4byte	0xe5
 3336 1549 04       		.byte	0x4
 3337 154a 0A       		.uleb128 0xa
 3338 154b 48110000 		.4byte	.LASF272
 3339 154f 08       		.byte	0x8
 3340 1550 24       		.byte	0x24
 3341 1551 E0000000 		.4byte	0xe0
 3342 1555 08       		.byte	0x8
 3343 1556 0A       		.uleb128 0xa
 3344 1557 19140000 		.4byte	.LASF273
 3345 155b 08       		.byte	0x8
 3346 155c 25       		.byte	0x25
 3347 155d E0000000 		.4byte	0xe0
 3348 1561 0C       		.byte	0xc
 3349 1562 0A       		.uleb128 0xa
 3350 1563 EE190000 		.4byte	.LASF22
 3351 1567 08       		.byte	0x8
 3352 1568 26       		.byte	0x26
 3353 1569 E5000000 		.4byte	0xe5
 3354 156d 10       		.byte	0x10
 3355 156e 0A       		.uleb128 0xa
 3356 156f 7D070000 		.4byte	.LASF274
 3357 1573 08       		.byte	0x8
 3358 1574 27       		.byte	0x27
 3359 1575 E0000000 		.4byte	0xe0
 3360 1579 14       		.byte	0x14
 3361 157a 0A       		.uleb128 0xa
 3362 157b EB170000 		.4byte	.LASF275
 3363 157f 08       		.byte	0x8
 3364 1580 28       		.byte	0x28
 3365 1581 E0000000 		.4byte	0xe0
 3366 1585 18       		.byte	0x18
 3367 1586 0A       		.uleb128 0xa
 3368 1587 F8080000 		.4byte	.LASF276
 3369 158b 08       		.byte	0x8
 3370 158c 29       		.byte	0x29
 3371 158d E0000000 		.4byte	0xe0
 3372 1591 1C       		.byte	0x1c
 3373 1592 0A       		.uleb128 0xa
 3374 1593 860A0000 		.4byte	.LASF277
 3375 1597 08       		.byte	0x8
 3376 1598 2A       		.byte	0x2a
 3377 1599 E0000000 		.4byte	0xe0
 3378 159d 20       		.byte	0x20
 3379 159e 0A       		.uleb128 0xa
 3380 159f A4190000 		.4byte	.LASF278
 3381 15a3 08       		.byte	0x8
 3382 15a4 2B       		.byte	0x2b
 3383 15a5 E0000000 		.4byte	0xe0
 3384 15a9 24       		.byte	0x24
 3385 15aa 0A       		.uleb128 0xa
 3386 15ab E31A0000 		.4byte	.LASF279
ARM GAS  C:\Users\Rolf\AppData\Local\Temp\ccTwK7ru.s 			page 87


 3387 15af 08       		.byte	0x8
 3388 15b0 2C       		.byte	0x2c
 3389 15b1 E0000000 		.4byte	0xe0
 3390 15b5 28       		.byte	0x28
 3391 15b6 0A       		.uleb128 0xa
 3392 15b7 A1060000 		.4byte	.LASF36
 3393 15bb 08       		.byte	0x8
 3394 15bc 2D       		.byte	0x2d
 3395 15bd E0000000 		.4byte	0xe0
 3396 15c1 2C       		.byte	0x2c
 3397 15c2 0A       		.uleb128 0xa
 3398 15c3 48040000 		.4byte	.LASF37
 3399 15c7 08       		.byte	0x8
 3400 15c8 2E       		.byte	0x2e
 3401 15c9 E0000000 		.4byte	0xe0
 3402 15cd 30       		.byte	0x30
 3403 15ce 0A       		.uleb128 0xa
 3404 15cf 5D0F0000 		.4byte	.LASF38
 3405 15d3 08       		.byte	0x8
 3406 15d4 2F       		.byte	0x2f
 3407 15d5 E0000000 		.4byte	0xe0
 3408 15d9 34       		.byte	0x34
 3409 15da 0A       		.uleb128 0xa
 3410 15db 59150000 		.4byte	.LASF39
 3411 15df 08       		.byte	0x8
 3412 15e0 30       		.byte	0x30
 3413 15e1 E5000000 		.4byte	0xe5
 3414 15e5 38       		.byte	0x38
 3415 15e6 0A       		.uleb128 0xa
 3416 15e7 0E160000 		.4byte	.LASF280
 3417 15eb 08       		.byte	0x8
 3418 15ec 31       		.byte	0x31
 3419 15ed E5000000 		.4byte	0xe5
 3420 15f1 3C       		.byte	0x3c
 3421 15f2 0A       		.uleb128 0xa
 3422 15f3 190B0000 		.4byte	.LASF281
 3423 15f7 08       		.byte	0x8
 3424 15f8 32       		.byte	0x32
 3425 15f9 E5000000 		.4byte	0xe5
 3426 15fd 40       		.byte	0x40
 3427 15fe 0A       		.uleb128 0xa
 3428 15ff CE070000 		.4byte	.LASF282
 3429 1603 08       		.byte	0x8
 3430 1604 33       		.byte	0x33
 3431 1605 E0000000 		.4byte	0xe0
 3432 1609 44       		.byte	0x44
 3433 160a 0A       		.uleb128 0xa
 3434 160b D9130000 		.4byte	.LASF283
 3435 160f 08       		.byte	0x8
 3436 1610 34       		.byte	0x34
 3437 1611 E0000000 		.4byte	0xe0
 3438 1615 48       		.byte	0x48
 3439 1616 0A       		.uleb128 0xa
 3440 1617 35070000 		.4byte	.LASF52
 3441 161b 08       		.byte	0x8
 3442 161c 35       		.byte	0x35
 3443 161d 60160000 		.4byte	0x1660
ARM GAS  C:\Users\Rolf\AppData\Local\Temp\ccTwK7ru.s 			page 88


 3444 1621 4C       		.byte	0x4c
 3445 1622 0B       		.uleb128 0xb
 3446 1623 2D0D0000 		.4byte	.LASF284
 3447 1627 08       		.byte	0x8
 3448 1628 36       		.byte	0x36
 3449 1629 65160000 		.4byte	0x1665
 3450 162d 0010     		.2byte	0x1000
 3451 162f 0B       		.uleb128 0xb
 3452 1630 55120000 		.4byte	.LASF54
 3453 1634 08       		.byte	0x8
 3454 1635 37       		.byte	0x37
 3455 1636 80160000 		.4byte	0x1680
 3456 163a 0011     		.2byte	0x1100
 3457 163c 0B       		.uleb128 0xb
 3458 163d 3F0C0000 		.4byte	.LASF285
 3459 1641 08       		.byte	0x8
 3460 1642 38       		.byte	0x38
 3461 1643 E0000000 		.4byte	0xe0
 3462 1647 00FF     		.2byte	0xff00
 3463 1649 00       		.byte	0
 3464 164a 07       		.uleb128 0x7
 3465 164b E5000000 		.4byte	0xe5
 3466 164f 5B160000 		.4byte	0x165b
 3467 1653 0C       		.uleb128 0xc
 3468 1654 FA000000 		.4byte	0xfa
 3469 1658 EC03     		.2byte	0x3ec
 3470 165a 00       		.byte	0
 3471 165b 05       		.uleb128 0x5
 3472 165c 4A160000 		.4byte	0x164a
 3473 1660 06       		.uleb128 0x6
 3474 1661 5B160000 		.4byte	0x165b
 3475 1665 05       		.uleb128 0x5
 3476 1666 AF070000 		.4byte	0x7af
 3477 166a 07       		.uleb128 0x7
 3478 166b E5000000 		.4byte	0xe5
 3479 166f 7B160000 		.4byte	0x167b
 3480 1673 0C       		.uleb128 0xc
 3481 1674 FA000000 		.4byte	0xfa
 3482 1678 7F3B     		.2byte	0x3b7f
 3483 167a 00       		.byte	0
 3484 167b 05       		.uleb128 0x5
 3485 167c 6A160000 		.4byte	0x166a
 3486 1680 06       		.uleb128 0x6
 3487 1681 7B160000 		.4byte	0x167b
 3488 1685 03       		.uleb128 0x3
 3489 1686 15000000 		.4byte	.LASF286
 3490 168a 08       		.byte	0x8
 3491 168b 39       		.byte	0x39
 3492 168c 29150000 		.4byte	0x1529
 3493 1690 0E       		.uleb128 0xe
 3494 1691 20       		.byte	0x20
 3495 1692 09       		.byte	0x9
 3496 1693 23       		.byte	0x23
 3497 1694 E1160000 		.4byte	0x16e1
 3498 1698 0A       		.uleb128 0xa
 3499 1699 010E0000 		.4byte	.LASF287
 3500 169d 09       		.byte	0x9
ARM GAS  C:\Users\Rolf\AppData\Local\Temp\ccTwK7ru.s 			page 89


 3501 169e 24       		.byte	0x24
 3502 169f E5000000 		.4byte	0xe5
 3503 16a3 00       		.byte	0
 3504 16a4 0A       		.uleb128 0xa
 3505 16a5 AB0F0000 		.4byte	.LASF288
 3506 16a9 09       		.byte	0x9
 3507 16aa 25       		.byte	0x25
 3508 16ab E0000000 		.4byte	0xe0
 3509 16af 04       		.byte	0x4
 3510 16b0 0A       		.uleb128 0xa
 3511 16b1 20060000 		.4byte	.LASF289
 3512 16b5 09       		.byte	0x9
 3513 16b6 26       		.byte	0x26
 3514 16b7 E0000000 		.4byte	0xe0
 3515 16bb 08       		.byte	0x8
 3516 16bc 0A       		.uleb128 0xa
 3517 16bd 02050000 		.4byte	.LASF290
 3518 16c1 09       		.byte	0x9
 3519 16c2 27       		.byte	0x27
 3520 16c3 E0000000 		.4byte	0xe0
 3521 16c7 0C       		.byte	0xc
 3522 16c8 0A       		.uleb128 0xa
 3523 16c9 3F090000 		.4byte	.LASF291
 3524 16cd 09       		.byte	0x9
 3525 16ce 28       		.byte	0x28
 3526 16cf E5000000 		.4byte	0xe5
 3527 16d3 10       		.byte	0x10
 3528 16d4 0A       		.uleb128 0xa
 3529 16d5 0C000000 		.4byte	.LASF46
 3530 16d9 09       		.byte	0x9
 3531 16da 29       		.byte	0x29
 3532 16db E6160000 		.4byte	0x16e6
 3533 16df 14       		.byte	0x14
 3534 16e0 00       		.byte	0
 3535 16e1 05       		.uleb128 0x5
 3536 16e2 EA000000 		.4byte	0xea
 3537 16e6 06       		.uleb128 0x6
 3538 16e7 E1160000 		.4byte	0x16e1
 3539 16eb 03       		.uleb128 0x3
 3540 16ec 5E160000 		.4byte	.LASF292
 3541 16f0 09       		.byte	0x9
 3542 16f1 2A       		.byte	0x2a
 3543 16f2 90160000 		.4byte	0x1690
 3544 16f6 0E       		.uleb128 0xe
 3545 16f7 B8       		.byte	0xb8
 3546 16f8 0A       		.byte	0xa
 3547 16f9 34       		.byte	0x34
 3548 16fa 071B0000 		.4byte	0x1b07
 3549 16fe 0A       		.uleb128 0xa
 3550 16ff 50030000 		.4byte	.LASF293
 3551 1703 0A       		.byte	0xa
 3552 1704 37       		.byte	0x37
 3553 1705 C3000000 		.4byte	0xc3
 3554 1709 00       		.byte	0
 3555 170a 0A       		.uleb128 0xa
 3556 170b CC010000 		.4byte	.LASF294
 3557 170f 0A       		.byte	0xa
ARM GAS  C:\Users\Rolf\AppData\Local\Temp\ccTwK7ru.s 			page 90


 3558 1710 38       		.byte	0x38
 3559 1711 C3000000 		.4byte	0xc3
 3560 1715 04       		.byte	0x4
 3561 1716 0A       		.uleb128 0xa
 3562 1717 88010000 		.4byte	.LASF295
 3563 171b 0A       		.byte	0xa
 3564 171c 39       		.byte	0x39
 3565 171d C3000000 		.4byte	0xc3
 3566 1721 08       		.byte	0x8
 3567 1722 0A       		.uleb128 0xa
 3568 1723 58010000 		.4byte	.LASF296
 3569 1727 0A       		.byte	0xa
 3570 1728 3A       		.byte	0x3a
 3571 1729 C3000000 		.4byte	0xc3
 3572 172d 0C       		.byte	0xc
 3573 172e 0A       		.uleb128 0xa
 3574 172f E9100000 		.4byte	.LASF297
 3575 1733 0A       		.byte	0xa
 3576 1734 3B       		.byte	0x3b
 3577 1735 C3000000 		.4byte	0xc3
 3578 1739 10       		.byte	0x10
 3579 173a 0A       		.uleb128 0xa
 3580 173b 1D0F0000 		.4byte	.LASF298
 3581 173f 0A       		.byte	0xa
 3582 1740 3C       		.byte	0x3c
 3583 1741 C3000000 		.4byte	0xc3
 3584 1745 14       		.byte	0x14
 3585 1746 0A       		.uleb128 0xa
 3586 1747 A10A0000 		.4byte	.LASF299
 3587 174b 0A       		.byte	0xa
 3588 174c 3D       		.byte	0x3d
 3589 174d C3000000 		.4byte	0xc3
 3590 1751 18       		.byte	0x18
 3591 1752 0A       		.uleb128 0xa
 3592 1753 C1190000 		.4byte	.LASF300
 3593 1757 0A       		.byte	0xa
 3594 1758 3E       		.byte	0x3e
 3595 1759 C3000000 		.4byte	0xc3
 3596 175d 1C       		.byte	0x1c
 3597 175e 0A       		.uleb128 0xa
 3598 175f A60D0000 		.4byte	.LASF301
 3599 1763 0A       		.byte	0xa
 3600 1764 3F       		.byte	0x3f
 3601 1765 C3000000 		.4byte	0xc3
 3602 1769 20       		.byte	0x20
 3603 176a 0A       		.uleb128 0xa
 3604 176b BD0D0000 		.4byte	.LASF302
 3605 176f 0A       		.byte	0xa
 3606 1770 40       		.byte	0x40
 3607 1771 C3000000 		.4byte	0xc3
 3608 1775 24       		.byte	0x24
 3609 1776 0A       		.uleb128 0xa
 3610 1777 FD120000 		.4byte	.LASF303
 3611 177b 0A       		.byte	0xa
 3612 177c 43       		.byte	0x43
 3613 177d A2000000 		.4byte	0xa2
 3614 1781 28       		.byte	0x28
ARM GAS  C:\Users\Rolf\AppData\Local\Temp\ccTwK7ru.s 			page 91


 3615 1782 0A       		.uleb128 0xa
 3616 1783 E1060000 		.4byte	.LASF304
 3617 1787 0A       		.byte	0xa
 3618 1788 44       		.byte	0x44
 3619 1789 A2000000 		.4byte	0xa2
 3620 178d 29       		.byte	0x29
 3621 178e 0A       		.uleb128 0xa
 3622 178f A9110000 		.4byte	.LASF305
 3623 1793 0A       		.byte	0xa
 3624 1794 45       		.byte	0x45
 3625 1795 A2000000 		.4byte	0xa2
 3626 1799 2A       		.byte	0x2a
 3627 179a 0A       		.uleb128 0xa
 3628 179b 70130000 		.4byte	.LASF306
 3629 179f 0A       		.byte	0xa
 3630 17a0 46       		.byte	0x46
 3631 17a1 A2000000 		.4byte	0xa2
 3632 17a5 2B       		.byte	0x2b
 3633 17a6 0A       		.uleb128 0xa
 3634 17a7 1E130000 		.4byte	.LASF307
 3635 17ab 0A       		.byte	0xa
 3636 17ac 47       		.byte	0x47
 3637 17ad A2000000 		.4byte	0xa2
 3638 17b1 2C       		.byte	0x2c
 3639 17b2 0A       		.uleb128 0xa
 3640 17b3 A90C0000 		.4byte	.LASF308
 3641 17b7 0A       		.byte	0xa
 3642 17b8 48       		.byte	0x48
 3643 17b9 A2000000 		.4byte	0xa2
 3644 17bd 2D       		.byte	0x2d
 3645 17be 0A       		.uleb128 0xa
 3646 17bf C71A0000 		.4byte	.LASF309
 3647 17c3 0A       		.byte	0xa
 3648 17c4 49       		.byte	0x49
 3649 17c5 A2000000 		.4byte	0xa2
 3650 17c9 2E       		.byte	0x2e
 3651 17ca 0A       		.uleb128 0xa
 3652 17cb AE190000 		.4byte	.LASF310
 3653 17cf 0A       		.byte	0xa
 3654 17d0 4A       		.byte	0x4a
 3655 17d1 A2000000 		.4byte	0xa2
 3656 17d5 2F       		.byte	0x2f
 3657 17d6 0A       		.uleb128 0xa
 3658 17d7 07050000 		.4byte	.LASF311
 3659 17db 0A       		.byte	0xa
 3660 17dc 4B       		.byte	0x4b
 3661 17dd A2000000 		.4byte	0xa2
 3662 17e1 30       		.byte	0x30
 3663 17e2 0A       		.uleb128 0xa
 3664 17e3 A00F0000 		.4byte	.LASF312
 3665 17e7 0A       		.byte	0xa
 3666 17e8 4E       		.byte	0x4e
 3667 17e9 A2000000 		.4byte	0xa2
 3668 17ed 31       		.byte	0x31
 3669 17ee 0A       		.uleb128 0xa
 3670 17ef 1A190000 		.4byte	.LASF313
 3671 17f3 0A       		.byte	0xa
ARM GAS  C:\Users\Rolf\AppData\Local\Temp\ccTwK7ru.s 			page 92


 3672 17f4 4F       		.byte	0x4f
 3673 17f5 A2000000 		.4byte	0xa2
 3674 17f9 32       		.byte	0x32
 3675 17fa 0A       		.uleb128 0xa
 3676 17fb 510F0000 		.4byte	.LASF314
 3677 17ff 0A       		.byte	0xa
 3678 1800 50       		.byte	0x50
 3679 1801 A2000000 		.4byte	0xa2
 3680 1805 33       		.byte	0x33
 3681 1806 0A       		.uleb128 0xa
 3682 1807 F80B0000 		.4byte	.LASF315
 3683 180b 0A       		.byte	0xa
 3684 180c 51       		.byte	0x51
 3685 180d A2000000 		.4byte	0xa2
 3686 1811 34       		.byte	0x34
 3687 1812 0A       		.uleb128 0xa
 3688 1813 DF070000 		.4byte	.LASF316
 3689 1817 0A       		.byte	0xa
 3690 1818 52       		.byte	0x52
 3691 1819 AD000000 		.4byte	0xad
 3692 181d 36       		.byte	0x36
 3693 181e 0A       		.uleb128 0xa
 3694 181f C1030000 		.4byte	.LASF317
 3695 1823 0A       		.byte	0xa
 3696 1824 53       		.byte	0x53
 3697 1825 AD000000 		.4byte	0xad
 3698 1829 38       		.byte	0x38
 3699 182a 0A       		.uleb128 0xa
 3700 182b E7030000 		.4byte	.LASF318
 3701 182f 0A       		.byte	0xa
 3702 1830 54       		.byte	0x54
 3703 1831 AD000000 		.4byte	0xad
 3704 1835 3A       		.byte	0x3a
 3705 1836 0A       		.uleb128 0xa
 3706 1837 DF190000 		.4byte	.LASF319
 3707 183b 0A       		.byte	0xa
 3708 183c 55       		.byte	0x55
 3709 183d A2000000 		.4byte	0xa2
 3710 1841 3C       		.byte	0x3c
 3711 1842 0A       		.uleb128 0xa
 3712 1843 2C090000 		.4byte	.LASF320
 3713 1847 0A       		.byte	0xa
 3714 1848 56       		.byte	0x56
 3715 1849 A2000000 		.4byte	0xa2
 3716 184d 3D       		.byte	0x3d
 3717 184e 0A       		.uleb128 0xa
 3718 184f 4F110000 		.4byte	.LASF321
 3719 1853 0A       		.byte	0xa
 3720 1854 57       		.byte	0x57
 3721 1855 A2000000 		.4byte	0xa2
 3722 1859 3E       		.byte	0x3e
 3723 185a 0A       		.uleb128 0xa
 3724 185b 91080000 		.4byte	.LASF322
 3725 185f 0A       		.byte	0xa
 3726 1860 58       		.byte	0x58
 3727 1861 A2000000 		.4byte	0xa2
 3728 1865 3F       		.byte	0x3f
ARM GAS  C:\Users\Rolf\AppData\Local\Temp\ccTwK7ru.s 			page 93


 3729 1866 0A       		.uleb128 0xa
 3730 1867 77020000 		.4byte	.LASF323
 3731 186b 0A       		.byte	0xa
 3732 186c 59       		.byte	0x59
 3733 186d A2000000 		.4byte	0xa2
 3734 1871 40       		.byte	0x40
 3735 1872 0A       		.uleb128 0xa
 3736 1873 F70F0000 		.4byte	.LASF324
 3737 1877 0A       		.byte	0xa
 3738 1878 5A       		.byte	0x5a
 3739 1879 A2000000 		.4byte	0xa2
 3740 187d 41       		.byte	0x41
 3741 187e 0A       		.uleb128 0xa
 3742 187f A2180000 		.4byte	.LASF325
 3743 1883 0A       		.byte	0xa
 3744 1884 5B       		.byte	0x5b
 3745 1885 A2000000 		.4byte	0xa2
 3746 1889 42       		.byte	0x42
 3747 188a 0A       		.uleb128 0xa
 3748 188b 4E0C0000 		.4byte	.LASF326
 3749 188f 0A       		.byte	0xa
 3750 1890 5C       		.byte	0x5c
 3751 1891 A2000000 		.4byte	0xa2
 3752 1895 43       		.byte	0x43
 3753 1896 0A       		.uleb128 0xa
 3754 1897 690C0000 		.4byte	.LASF327
 3755 189b 0A       		.byte	0xa
 3756 189c 5D       		.byte	0x5d
 3757 189d A2000000 		.4byte	0xa2
 3758 18a1 44       		.byte	0x44
 3759 18a2 0A       		.uleb128 0xa
 3760 18a3 7E130000 		.4byte	.LASF328
 3761 18a7 0A       		.byte	0xa
 3762 18a8 5E       		.byte	0x5e
 3763 18a9 C3000000 		.4byte	0xc3
 3764 18ad 48       		.byte	0x48
 3765 18ae 0A       		.uleb128 0xa
 3766 18af 51040000 		.4byte	.LASF329
 3767 18b3 0A       		.byte	0xa
 3768 18b4 5F       		.byte	0x5f
 3769 18b5 C3000000 		.4byte	0xc3
 3770 18b9 4C       		.byte	0x4c
 3771 18ba 0A       		.uleb128 0xa
 3772 18bb 5B180000 		.4byte	.LASF330
 3773 18bf 0A       		.byte	0xa
 3774 18c0 60       		.byte	0x60
 3775 18c1 A2000000 		.4byte	0xa2
 3776 18c5 50       		.byte	0x50
 3777 18c6 0A       		.uleb128 0xa
 3778 18c7 9E090000 		.4byte	.LASF331
 3779 18cb 0A       		.byte	0xa
 3780 18cc 61       		.byte	0x61
 3781 18cd A2000000 		.4byte	0xa2
 3782 18d1 51       		.byte	0x51
 3783 18d2 0A       		.uleb128 0xa
 3784 18d3 240E0000 		.4byte	.LASF332
 3785 18d7 0A       		.byte	0xa
ARM GAS  C:\Users\Rolf\AppData\Local\Temp\ccTwK7ru.s 			page 94


 3786 18d8 62       		.byte	0x62
 3787 18d9 A2000000 		.4byte	0xa2
 3788 18dd 52       		.byte	0x52
 3789 18de 0A       		.uleb128 0xa
 3790 18df EF060000 		.4byte	.LASF333
 3791 18e3 0A       		.byte	0xa
 3792 18e4 63       		.byte	0x63
 3793 18e5 A2000000 		.4byte	0xa2
 3794 18e9 53       		.byte	0x53
 3795 18ea 0A       		.uleb128 0xa
 3796 18eb E8080000 		.4byte	.LASF334
 3797 18ef 0A       		.byte	0xa
 3798 18f0 64       		.byte	0x64
 3799 18f1 A2000000 		.4byte	0xa2
 3800 18f5 54       		.byte	0x54
 3801 18f6 0A       		.uleb128 0xa
 3802 18f7 3E0B0000 		.4byte	.LASF335
 3803 18fb 0A       		.byte	0xa
 3804 18fc 65       		.byte	0x65
 3805 18fd A2000000 		.4byte	0xa2
 3806 1901 55       		.byte	0x55
 3807 1902 0A       		.uleb128 0xa
 3808 1903 AE180000 		.4byte	.LASF336
 3809 1907 0A       		.byte	0xa
 3810 1908 66       		.byte	0x66
 3811 1909 A2000000 		.4byte	0xa2
 3812 190d 56       		.byte	0x56
 3813 190e 0A       		.uleb128 0xa
 3814 190f B3110000 		.4byte	.LASF337
 3815 1913 0A       		.byte	0xa
 3816 1914 67       		.byte	0x67
 3817 1915 A2000000 		.4byte	0xa2
 3818 1919 57       		.byte	0x57
 3819 191a 0A       		.uleb128 0xa
 3820 191b 18090000 		.4byte	.LASF338
 3821 191f 0A       		.byte	0xa
 3822 1920 68       		.byte	0x68
 3823 1921 A2000000 		.4byte	0xa2
 3824 1925 58       		.byte	0x58
 3825 1926 0A       		.uleb128 0xa
 3826 1927 151A0000 		.4byte	.LASF339
 3827 192b 0A       		.byte	0xa
 3828 192c 69       		.byte	0x69
 3829 192d A2000000 		.4byte	0xa2
 3830 1931 59       		.byte	0x59
 3831 1932 0A       		.uleb128 0xa
 3832 1933 41160000 		.4byte	.LASF340
 3833 1937 0A       		.byte	0xa
 3834 1938 6E       		.byte	0x6e
 3835 1939 B8000000 		.4byte	0xb8
 3836 193d 5A       		.byte	0x5a
 3837 193e 0A       		.uleb128 0xa
 3838 193f 25100000 		.4byte	.LASF341
 3839 1943 0A       		.byte	0xa
 3840 1944 6F       		.byte	0x6f
 3841 1945 B8000000 		.4byte	0xb8
 3842 1949 5C       		.byte	0x5c
ARM GAS  C:\Users\Rolf\AppData\Local\Temp\ccTwK7ru.s 			page 95


 3843 194a 0A       		.uleb128 0xa
 3844 194b AE0D0000 		.4byte	.LASF342
 3845 194f 0A       		.byte	0xa
 3846 1950 70       		.byte	0x70
 3847 1951 A2000000 		.4byte	0xa2
 3848 1955 5E       		.byte	0x5e
 3849 1956 0A       		.uleb128 0xa
 3850 1957 28190000 		.4byte	.LASF343
 3851 195b 0A       		.byte	0xa
 3852 195c 71       		.byte	0x71
 3853 195d A2000000 		.4byte	0xa2
 3854 1961 5F       		.byte	0x5f
 3855 1962 0A       		.uleb128 0xa
 3856 1963 810B0000 		.4byte	.LASF344
 3857 1967 0A       		.byte	0xa
 3858 1968 72       		.byte	0x72
 3859 1969 A2000000 		.4byte	0xa2
 3860 196d 60       		.byte	0x60
 3861 196e 0A       		.uleb128 0xa
 3862 196f D30C0000 		.4byte	.LASF345
 3863 1973 0A       		.byte	0xa
 3864 1974 73       		.byte	0x73
 3865 1975 C3000000 		.4byte	0xc3
 3866 1979 64       		.byte	0x64
 3867 197a 0A       		.uleb128 0xa
 3868 197b C4090000 		.4byte	.LASF346
 3869 197f 0A       		.byte	0xa
 3870 1980 76       		.byte	0x76
 3871 1981 B8000000 		.4byte	0xb8
 3872 1985 68       		.byte	0x68
 3873 1986 0A       		.uleb128 0xa
 3874 1987 21110000 		.4byte	.LASF347
 3875 198b 0A       		.byte	0xa
 3876 198c 77       		.byte	0x77
 3877 198d B8000000 		.4byte	0xb8
 3878 1991 6A       		.byte	0x6a
 3879 1992 0A       		.uleb128 0xa
 3880 1993 420F0000 		.4byte	.LASF348
 3881 1997 0A       		.byte	0xa
 3882 1998 78       		.byte	0x78
 3883 1999 B8000000 		.4byte	0xb8
 3884 199d 6C       		.byte	0x6c
 3885 199e 0A       		.uleb128 0xa
 3886 199f F5040000 		.4byte	.LASF349
 3887 19a3 0A       		.byte	0xa
 3888 19a4 79       		.byte	0x79
 3889 19a5 B8000000 		.4byte	0xb8
 3890 19a9 6E       		.byte	0x6e
 3891 19aa 0A       		.uleb128 0xa
 3892 19ab 190D0000 		.4byte	.LASF350
 3893 19af 0A       		.byte	0xa
 3894 19b0 7B       		.byte	0x7b
 3895 19b1 A2000000 		.4byte	0xa2
 3896 19b5 70       		.byte	0x70
 3897 19b6 0A       		.uleb128 0xa
 3898 19b7 39050000 		.4byte	.LASF351
 3899 19bb 0A       		.byte	0xa
ARM GAS  C:\Users\Rolf\AppData\Local\Temp\ccTwK7ru.s 			page 96


 3900 19bc 7C       		.byte	0x7c
 3901 19bd A2000000 		.4byte	0xa2
 3902 19c1 71       		.byte	0x71
 3903 19c2 0A       		.uleb128 0xa
 3904 19c3 7B080000 		.4byte	.LASF352
 3905 19c7 0A       		.byte	0xa
 3906 19c8 7D       		.byte	0x7d
 3907 19c9 A2000000 		.4byte	0xa2
 3908 19cd 72       		.byte	0x72
 3909 19ce 0A       		.uleb128 0xa
 3910 19cf 84020000 		.4byte	.LASF353
 3911 19d3 0A       		.byte	0xa
 3912 19d4 7E       		.byte	0x7e
 3913 19d5 A2000000 		.4byte	0xa2
 3914 19d9 73       		.byte	0x73
 3915 19da 0A       		.uleb128 0xa
 3916 19db 43120000 		.4byte	.LASF354
 3917 19df 0A       		.byte	0xa
 3918 19e0 80       		.byte	0x80
 3919 19e1 B8000000 		.4byte	0xb8
 3920 19e5 74       		.byte	0x74
 3921 19e6 0A       		.uleb128 0xa
 3922 19e7 59100000 		.4byte	.LASF355
 3923 19eb 0A       		.byte	0xa
 3924 19ec 81       		.byte	0x81
 3925 19ed B8000000 		.4byte	0xb8
 3926 19f1 76       		.byte	0x76
 3927 19f2 0A       		.uleb128 0xa
 3928 19f3 520D0000 		.4byte	.LASF356
 3929 19f7 0A       		.byte	0xa
 3930 19f8 82       		.byte	0x82
 3931 19f9 B8000000 		.4byte	0xb8
 3932 19fd 78       		.byte	0x78
 3933 19fe 0A       		.uleb128 0xa
 3934 19ff B9070000 		.4byte	.LASF357
 3935 1a03 0A       		.byte	0xa
 3936 1a04 83       		.byte	0x83
 3937 1a05 B8000000 		.4byte	0xb8
 3938 1a09 7A       		.byte	0x7a
 3939 1a0a 0A       		.uleb128 0xa
 3940 1a0b 33110000 		.4byte	.LASF358
 3941 1a0f 0A       		.byte	0xa
 3942 1a10 86       		.byte	0x86
 3943 1a11 A2000000 		.4byte	0xa2
 3944 1a15 7C       		.byte	0x7c
 3945 1a16 0A       		.uleb128 0xa
 3946 1a17 80180000 		.4byte	.LASF359
 3947 1a1b 0A       		.byte	0xa
 3948 1a1c 87       		.byte	0x87
 3949 1a1d A2000000 		.4byte	0xa2
 3950 1a21 7D       		.byte	0x7d
 3951 1a22 0A       		.uleb128 0xa
 3952 1a23 59070000 		.4byte	.LASF360
 3953 1a27 0A       		.byte	0xa
 3954 1a28 88       		.byte	0x88
 3955 1a29 A2000000 		.4byte	0xa2
 3956 1a2d 7E       		.byte	0x7e
ARM GAS  C:\Users\Rolf\AppData\Local\Temp\ccTwK7ru.s 			page 97


 3957 1a2e 0A       		.uleb128 0xa
 3958 1a2f 8D060000 		.4byte	.LASF361
 3959 1a33 0A       		.byte	0xa
 3960 1a34 89       		.byte	0x89
 3961 1a35 A2000000 		.4byte	0xa2
 3962 1a39 7F       		.byte	0x7f
 3963 1a3a 0A       		.uleb128 0xa
 3964 1a3b 0A130000 		.4byte	.LASF362
 3965 1a3f 0A       		.byte	0xa
 3966 1a40 8A       		.byte	0x8a
 3967 1a41 A2000000 		.4byte	0xa2
 3968 1a45 80       		.byte	0x80
 3969 1a46 0A       		.uleb128 0xa
 3970 1a47 0B010000 		.4byte	.LASF363
 3971 1a4b 0A       		.byte	0xa
 3972 1a4c 8D       		.byte	0x8d
 3973 1a4d C3000000 		.4byte	0xc3
 3974 1a51 84       		.byte	0x84
 3975 1a52 0A       		.uleb128 0xa
 3976 1a53 42150000 		.4byte	.LASF364
 3977 1a57 0A       		.byte	0xa
 3978 1a58 8E       		.byte	0x8e
 3979 1a59 C3000000 		.4byte	0xc3
 3980 1a5d 88       		.byte	0x88
 3981 1a5e 0A       		.uleb128 0xa
 3982 1a5f B30F0000 		.4byte	.LASF365
 3983 1a63 0A       		.byte	0xa
 3984 1a64 8F       		.byte	0x8f
 3985 1a65 C3000000 		.4byte	0xc3
 3986 1a69 8C       		.byte	0x8c
 3987 1a6a 0A       		.uleb128 0xa
 3988 1a6b 2E120000 		.4byte	.LASF366
 3989 1a6f 0A       		.byte	0xa
 3990 1a70 90       		.byte	0x90
 3991 1a71 C3000000 		.4byte	0xc3
 3992 1a75 90       		.byte	0x90
 3993 1a76 0A       		.uleb128 0xa
 3994 1a77 93140000 		.4byte	.LASF367
 3995 1a7b 0A       		.byte	0xa
 3996 1a7c 91       		.byte	0x91
 3997 1a7d C3000000 		.4byte	0xc3
 3998 1a81 94       		.byte	0x94
 3999 1a82 0A       		.uleb128 0xa
 4000 1a83 6A050000 		.4byte	.LASF368
 4001 1a87 0A       		.byte	0xa
 4002 1a88 92       		.byte	0x92
 4003 1a89 C3000000 		.4byte	0xc3
 4004 1a8d 98       		.byte	0x98
 4005 1a8e 0A       		.uleb128 0xa
 4006 1a8f 3C130000 		.4byte	.LASF369
 4007 1a93 0A       		.byte	0xa
 4008 1a94 93       		.byte	0x93
 4009 1a95 C3000000 		.4byte	0xc3
 4010 1a99 9C       		.byte	0x9c
 4011 1a9a 0A       		.uleb128 0xa
 4012 1a9b 280B0000 		.4byte	.LASF370
 4013 1a9f 0A       		.byte	0xa
ARM GAS  C:\Users\Rolf\AppData\Local\Temp\ccTwK7ru.s 			page 98


 4014 1aa0 94       		.byte	0x94
 4015 1aa1 C3000000 		.4byte	0xc3
 4016 1aa5 A0       		.byte	0xa0
 4017 1aa6 0A       		.uleb128 0xa
 4018 1aa7 E2010000 		.4byte	.LASF371
 4019 1aab 0A       		.byte	0xa
 4020 1aac 95       		.byte	0x95
 4021 1aad B8000000 		.4byte	0xb8
 4022 1ab1 A4       		.byte	0xa4
 4023 1ab2 0A       		.uleb128 0xa
 4024 1ab3 19120000 		.4byte	.LASF372
 4025 1ab7 0A       		.byte	0xa
 4026 1ab8 96       		.byte	0x96
 4027 1ab9 B8000000 		.4byte	0xb8
 4028 1abd A6       		.byte	0xa6
 4029 1abe 0A       		.uleb128 0xa
 4030 1abf ED150000 		.4byte	.LASF373
 4031 1ac3 0A       		.byte	0xa
 4032 1ac4 97       		.byte	0x97
 4033 1ac5 B8000000 		.4byte	0xb8
 4034 1ac9 A8       		.byte	0xa8
 4035 1aca 0A       		.uleb128 0xa
 4036 1acb 8A0D0000 		.4byte	.LASF374
 4037 1acf 0A       		.byte	0xa
 4038 1ad0 98       		.byte	0x98
 4039 1ad1 B8000000 		.4byte	0xb8
 4040 1ad5 AA       		.byte	0xaa
 4041 1ad6 0A       		.uleb128 0xa
 4042 1ad7 79040000 		.4byte	.LASF375
 4043 1adb 0A       		.byte	0xa
 4044 1adc 99       		.byte	0x99
 4045 1add B8000000 		.4byte	0xb8
 4046 1ae1 AC       		.byte	0xac
 4047 1ae2 0A       		.uleb128 0xa
 4048 1ae3 07100000 		.4byte	.LASF376
 4049 1ae7 0A       		.byte	0xa
 4050 1ae8 9A       		.byte	0x9a
 4051 1ae9 B8000000 		.4byte	0xb8
 4052 1aed AE       		.byte	0xae
 4053 1aee 0A       		.uleb128 0xa
 4054 1aef A3040000 		.4byte	.LASF377
 4055 1af3 0A       		.byte	0xa
 4056 1af4 9D       		.byte	0x9d
 4057 1af5 B8000000 		.4byte	0xb8
 4058 1af9 B0       		.byte	0xb0
 4059 1afa 0A       		.uleb128 0xa
 4060 1afb 48000000 		.4byte	.LASF378
 4061 1aff 0A       		.byte	0xa
 4062 1b00 9E       		.byte	0x9e
 4063 1b01 C3000000 		.4byte	0xc3
 4064 1b05 B4       		.byte	0xb4
 4065 1b06 00       		.byte	0
 4066 1b07 03       		.uleb128 0x3
 4067 1b08 6A190000 		.4byte	.LASF379
 4068 1b0c 0A       		.byte	0xa
 4069 1b0d 9F       		.byte	0x9f
 4070 1b0e F6160000 		.4byte	0x16f6
ARM GAS  C:\Users\Rolf\AppData\Local\Temp\ccTwK7ru.s 			page 99


 4071 1b12 10       		.uleb128 0x10
 4072 1b13 DF170000 		.4byte	.LASF380
 4073 1b17 0B       		.byte	0xb
 4074 1b18 1106     		.2byte	0x611
 4075 1b1a D50F0000 		.4byte	0xfd5
 4076 1b1e 10       		.uleb128 0x10
 4077 1b1f 75100000 		.4byte	.LASF381
 4078 1b23 0B       		.byte	0xb
 4079 1b24 1D06     		.2byte	0x61d
 4080 1b26 EB160000 		.4byte	0x16eb
 4081 1b2a 10       		.uleb128 0x10
 4082 1b2b 24000000 		.4byte	.LASF382
 4083 1b2f 0B       		.byte	0xb
 4084 1b30 2806     		.2byte	0x628
 4085 1b32 1E150000 		.4byte	0x151e
 4086 1b36 10       		.uleb128 0x10
 4087 1b37 00000000 		.4byte	.LASF383
 4088 1b3b 0B       		.byte	0xb
 4089 1b3c 2906     		.2byte	0x629
 4090 1b3e 85160000 		.4byte	0x1685
 4091 1b42 11       		.uleb128 0x11
 4092 1b43 04       		.byte	0x4
 4093 1b44 9B000000 		.4byte	0x9b
 4094 1b48 0C       		.byte	0xc
 4095 1b49 1601     		.2byte	0x116
 4096 1b4b 7A1B0000 		.4byte	0x1b7a
 4097 1b4f 12       		.uleb128 0x12
 4098 1b50 3F070000 		.4byte	.LASF384
 4099 1b54 00       		.byte	0
 4100 1b55 13       		.uleb128 0x13
 4101 1b56 1C020000 		.4byte	.LASF385
 4102 1b5a 01004600 		.4byte	0x460001
 4103 1b5e 13       		.uleb128 0x13
 4104 1b5f CF060000 		.4byte	.LASF386
 4105 1b63 02004600 		.4byte	0x460002
 4106 1b67 13       		.uleb128 0x13
 4107 1b68 D60E0000 		.4byte	.LASF387
 4108 1b6c 03004600 		.4byte	0x460003
 4109 1b70 13       		.uleb128 0x13
 4110 1b71 32180000 		.4byte	.LASF388
 4111 1b75 FF004600 		.4byte	0x4600ff
 4112 1b79 00       		.byte	0
 4113 1b7a 10       		.uleb128 0x10
 4114 1b7b C9170000 		.4byte	.LASF389
 4115 1b7f 0C       		.byte	0xc
 4116 1b80 1C01     		.2byte	0x11c
 4117 1b82 421B0000 		.4byte	0x1b42
 4118 1b86 14       		.uleb128 0x14
 4119 1b87 20       		.byte	0x20
 4120 1b88 0C       		.byte	0xc
 4121 1b89 6901     		.2byte	0x169
 4122 1b8b F21B0000 		.4byte	0x1bf2
 4123 1b8f 15       		.uleb128 0x15
 4124 1b90 723000   		.ascii	"r0\000"
 4125 1b93 0C       		.byte	0xc
 4126 1b94 6B01     		.2byte	0x16b
 4127 1b96 C3000000 		.4byte	0xc3
ARM GAS  C:\Users\Rolf\AppData\Local\Temp\ccTwK7ru.s 			page 100


 4128 1b9a 00       		.byte	0
 4129 1b9b 15       		.uleb128 0x15
 4130 1b9c 723100   		.ascii	"r1\000"
 4131 1b9f 0C       		.byte	0xc
 4132 1ba0 6C01     		.2byte	0x16c
 4133 1ba2 C3000000 		.4byte	0xc3
 4134 1ba6 04       		.byte	0x4
 4135 1ba7 15       		.uleb128 0x15
 4136 1ba8 723200   		.ascii	"r2\000"
 4137 1bab 0C       		.byte	0xc
 4138 1bac 6D01     		.2byte	0x16d
 4139 1bae C3000000 		.4byte	0xc3
 4140 1bb2 08       		.byte	0x8
 4141 1bb3 15       		.uleb128 0x15
 4142 1bb4 723300   		.ascii	"r3\000"
 4143 1bb7 0C       		.byte	0xc
 4144 1bb8 6E01     		.2byte	0x16e
 4145 1bba C3000000 		.4byte	0xc3
 4146 1bbe 0C       		.byte	0xc
 4147 1bbf 15       		.uleb128 0x15
 4148 1bc0 72313200 		.ascii	"r12\000"
 4149 1bc4 0C       		.byte	0xc
 4150 1bc5 6F01     		.2byte	0x16f
 4151 1bc7 C3000000 		.4byte	0xc3
 4152 1bcb 10       		.byte	0x10
 4153 1bcc 15       		.uleb128 0x15
 4154 1bcd 6C7200   		.ascii	"lr\000"
 4155 1bd0 0C       		.byte	0xc
 4156 1bd1 7001     		.2byte	0x170
 4157 1bd3 C3000000 		.4byte	0xc3
 4158 1bd7 14       		.byte	0x14
 4159 1bd8 15       		.uleb128 0x15
 4160 1bd9 706300   		.ascii	"pc\000"
 4161 1bdc 0C       		.byte	0xc
 4162 1bdd 7101     		.2byte	0x171
 4163 1bdf C3000000 		.4byte	0xc3
 4164 1be3 18       		.byte	0x18
 4165 1be4 15       		.uleb128 0x15
 4166 1be5 70737200 		.ascii	"psr\000"
 4167 1be9 0C       		.byte	0xc
 4168 1bea 7201     		.2byte	0x172
 4169 1bec C3000000 		.4byte	0xc3
 4170 1bf0 1C       		.byte	0x1c
 4171 1bf1 00       		.byte	0
 4172 1bf2 10       		.uleb128 0x10
 4173 1bf3 A4000000 		.4byte	.LASF390
 4174 1bf7 0C       		.byte	0xc
 4175 1bf8 9A01     		.2byte	0x19a
 4176 1bfa 861B0000 		.4byte	0x1b86
 4177 1bfe 10       		.uleb128 0x10
 4178 1bff D2130000 		.4byte	.LASF391
 4179 1c03 0C       		.byte	0xc
 4180 1c04 F601     		.2byte	0x1f6
 4181 1c06 0A1C0000 		.4byte	0x1c0a
 4182 1c0a 02       		.uleb128 0x2
 4183 1c0b 01       		.byte	0x1
 4184 1c0c 08       		.byte	0x8
ARM GAS  C:\Users\Rolf\AppData\Local\Temp\ccTwK7ru.s 			page 101


 4185 1c0d 190C0000 		.4byte	.LASF392
 4186 1c11 02       		.uleb128 0x2
 4187 1c12 04       		.byte	0x4
 4188 1c13 04       		.byte	0x4
 4189 1c14 C9060000 		.4byte	.LASF393
 4190 1c18 02       		.uleb128 0x2
 4191 1c19 08       		.byte	0x8
 4192 1c1a 04       		.byte	0x4
 4193 1c1b BA190000 		.4byte	.LASF394
 4194 1c1f 11       		.uleb128 0x11
 4195 1c20 04       		.byte	0x4
 4196 1c21 9B000000 		.4byte	0x9b
 4197 1c25 02       		.byte	0x2
 4198 1c26 7201     		.2byte	0x172
 4199 1c28 3C1C0000 		.4byte	0x1c3c
 4200 1c2c 12       		.uleb128 0x12
 4201 1c2d C7020000 		.4byte	.LASF395
 4202 1c31 00       		.byte	0
 4203 1c32 13       		.uleb128 0x13
 4204 1c33 30160000 		.4byte	.LASF396
 4205 1c37 01008A00 		.4byte	0x8a0001
 4206 1c3b 00       		.byte	0
 4207 1c3c 10       		.uleb128 0x10
 4208 1c3d 8E000000 		.4byte	.LASF397
 4209 1c41 02       		.byte	0x2
 4210 1c42 7901     		.2byte	0x179
 4211 1c44 1F1C0000 		.4byte	0x1c1f
 4212 1c48 16       		.uleb128 0x16
 4213 1c49 86030000 		.4byte	.LASF401
 4214 1c4d 02       		.byte	0x2
 4215 1c4e 9103     		.2byte	0x391
 4216 1c50 3C1C0000 		.4byte	0x1c3c
 4217 1c54 03       		.byte	0x3
 4218 1c55 7E1C0000 		.4byte	0x1c7e
 4219 1c59 17       		.uleb128 0x17
 4220 1c5a 01070000 		.4byte	.LASF398
 4221 1c5e 02       		.byte	0x2
 4222 1c5f 9103     		.2byte	0x391
 4223 1c61 7E1C0000 		.4byte	0x1c7e
 4224 1c65 17       		.uleb128 0x17
 4225 1c66 B4080000 		.4byte	.LASF399
 4226 1c6a 02       		.byte	0x2
 4227 1c6b 9103     		.2byte	0x391
 4228 1c6d C3000000 		.4byte	0xc3
 4229 1c71 17       		.uleb128 0x17
 4230 1c72 02090000 		.4byte	.LASF400
 4231 1c76 02       		.byte	0x2
 4232 1c77 9103     		.2byte	0x391
 4233 1c79 841C0000 		.4byte	0x1c84
 4234 1c7d 00       		.byte	0
 4235 1c7e 18       		.uleb128 0x18
 4236 1c7f 04       		.byte	0x4
 4237 1c80 1E1B0000 		.4byte	0x1b1e
 4238 1c84 18       		.uleb128 0x18
 4239 1c85 04       		.byte	0x4
 4240 1c86 8A1C0000 		.4byte	0x1c8a
 4241 1c8a 19       		.uleb128 0x19
ARM GAS  C:\Users\Rolf\AppData\Local\Temp\ccTwK7ru.s 			page 102


 4242 1c8b 16       		.uleb128 0x16
 4243 1c8c 791A0000 		.4byte	.LASF402
 4244 1c90 02       		.byte	0x2
 4245 1c91 2203     		.2byte	0x322
 4246 1c93 A91C0000 		.4byte	0x1ca9
 4247 1c97 03       		.byte	0x3
 4248 1c98 A91C0000 		.4byte	0x1ca9
 4249 1c9c 17       		.uleb128 0x17
 4250 1c9d 01070000 		.4byte	.LASF398
 4251 1ca1 02       		.byte	0x2
 4252 1ca2 2203     		.2byte	0x322
 4253 1ca4 B01C0000 		.4byte	0x1cb0
 4254 1ca8 00       		.byte	0
 4255 1ca9 02       		.uleb128 0x2
 4256 1caa 01       		.byte	0x1
 4257 1cab 02       		.byte	0x2
 4258 1cac 0F040000 		.4byte	.LASF403
 4259 1cb0 18       		.uleb128 0x18
 4260 1cb1 04       		.byte	0x4
 4261 1cb2 B61C0000 		.4byte	0x1cb6
 4262 1cb6 06       		.uleb128 0x6
 4263 1cb7 1E1B0000 		.4byte	0x1b1e
 4264 1cbb 1A       		.uleb128 0x1a
 4265 1cbc 06070000 		.4byte	.LASF404
 4266 1cc0 01       		.byte	0x1
 4267 1cc1 41       		.byte	0x41
 4268 1cc2 00000000 		.4byte	.LFB64
 4269 1cc6 34000000 		.4byte	.LFE64-.LFB64
 4270 1cca 01       		.uleb128 0x1
 4271 1ccb 9C       		.byte	0x9c
 4272 1ccc F21C0000 		.4byte	0x1cf2
 4273 1cd0 1B       		.uleb128 0x1b
 4274 1cd1 CC000000 		.4byte	.LASF406
 4275 1cd5 01       		.byte	0x1
 4276 1cd6 41       		.byte	0x41
 4277 1cd7 C3000000 		.4byte	0xc3
 4278 1cdb 00000000 		.4byte	.LLST0
 4279 1cdf 1C       		.uleb128 0x1c
 4280 1ce0 0E000000 		.4byte	.LVL2
 4281 1ce4 97200000 		.4byte	0x2097
 4282 1ce8 1C       		.uleb128 0x1c
 4283 1ce9 26000000 		.4byte	.LVL4
 4284 1ced 97200000 		.4byte	0x2097
 4285 1cf1 00       		.byte	0
 4286 1cf2 1A       		.uleb128 0x1a
 4287 1cf3 4C160000 		.4byte	.LASF405
 4288 1cf7 01       		.byte	0x1
 4289 1cf8 60       		.byte	0x60
 4290 1cf9 00000000 		.4byte	.LFB65
 4291 1cfd 14000000 		.4byte	.LFE65-.LFB65
 4292 1d01 01       		.uleb128 0x1
 4293 1d02 9C       		.byte	0x9c
 4294 1d03 201D0000 		.4byte	0x1d20
 4295 1d07 1B       		.uleb128 0x1b
 4296 1d08 28170000 		.4byte	.LASF407
 4297 1d0c 01       		.byte	0x1
 4298 1d0d 60       		.byte	0x60
ARM GAS  C:\Users\Rolf\AppData\Local\Temp\ccTwK7ru.s 			page 103


 4299 1d0e B8000000 		.4byte	0xb8
 4300 1d12 1E000000 		.4byte	.LLST1
 4301 1d16 1C       		.uleb128 0x1c
 4302 1d17 0C000000 		.4byte	.LVL8
 4303 1d1b 97200000 		.4byte	0x2097
 4304 1d1f 00       		.byte	0
 4305 1d20 1D       		.uleb128 0x1d
 4306 1d21 A6010000 		.4byte	.LASF412
 4307 1d25 01       		.byte	0x1
 4308 1d26 7F       		.byte	0x7f
 4309 1d27 00000000 		.4byte	.LFB66
 4310 1d2b 04000000 		.4byte	.LFE66-.LFB66
 4311 1d2f 01       		.uleb128 0x1
 4312 1d30 9C       		.byte	0x9c
 4313 1d31 431D0000 		.4byte	0x1d43
 4314 1d35 1E       		.uleb128 0x1e
 4315 1d36 EC070000 		.4byte	.LASF408
 4316 1d3a 01       		.byte	0x1
 4317 1d3b 7F       		.byte	0x7f
 4318 1d3c C3000000 		.4byte	0xc3
 4319 1d40 01       		.uleb128 0x1
 4320 1d41 50       		.byte	0x50
 4321 1d42 00       		.byte	0
 4322 1d43 1A       		.uleb128 0x1a
 4323 1d44 9D080000 		.4byte	.LASF409
 4324 1d48 01       		.byte	0x1
 4325 1d49 A6       		.byte	0xa6
 4326 1d4a 00000000 		.4byte	.LFB67
 4327 1d4e 1C000000 		.4byte	.LFE67-.LFB67
 4328 1d52 01       		.uleb128 0x1
 4329 1d53 9C       		.byte	0x9c
 4330 1d54 A61D0000 		.4byte	0x1da6
 4331 1d58 1B       		.uleb128 0x1b
 4332 1d59 CE0C0000 		.4byte	.LASF410
 4333 1d5d 01       		.byte	0x1
 4334 1d5e A6       		.byte	0xa6
 4335 1d5f A61D0000 		.4byte	0x1da6
 4336 1d63 3F000000 		.4byte	.LLST2
 4337 1d67 1B       		.uleb128 0x1b
 4338 1d68 E7160000 		.4byte	.LASF411
 4339 1d6c 01       		.byte	0x1
 4340 1d6d A6       		.byte	0xa6
 4341 1d6e C3000000 		.4byte	0xc3
 4342 1d72 6B000000 		.4byte	.LLST3
 4343 1d76 1F       		.uleb128 0x1f
 4344 1d77 10000000 		.4byte	.LVL13
 4345 1d7b A3200000 		.4byte	0x20a3
 4346 1d7f 961D0000 		.4byte	0x1d96
 4347 1d83 20       		.uleb128 0x20
 4348 1d84 01       		.uleb128 0x1
 4349 1d85 50       		.byte	0x50
 4350 1d86 02       		.uleb128 0x2
 4351 1d87 74       		.byte	0x74
 4352 1d88 00       		.sleb128 0
 4353 1d89 20       		.uleb128 0x20
 4354 1d8a 01       		.uleb128 0x1
 4355 1d8b 51       		.byte	0x51
ARM GAS  C:\Users\Rolf\AppData\Local\Temp\ccTwK7ru.s 			page 104


 4356 1d8c 03       		.uleb128 0x3
 4357 1d8d F3       		.byte	0xf3
 4358 1d8e 01       		.uleb128 0x1
 4359 1d8f 50       		.byte	0x50
 4360 1d90 20       		.uleb128 0x20
 4361 1d91 01       		.uleb128 0x1
 4362 1d92 52       		.byte	0x52
 4363 1d93 01       		.uleb128 0x1
 4364 1d94 48       		.byte	0x48
 4365 1d95 00       		.byte	0
 4366 1d96 21       		.uleb128 0x21
 4367 1d97 18000000 		.4byte	.LVL14
 4368 1d9b 201D0000 		.4byte	0x1d20
 4369 1d9f 20       		.uleb128 0x20
 4370 1da0 01       		.uleb128 0x1
 4371 1da1 50       		.byte	0x50
 4372 1da2 01       		.uleb128 0x1
 4373 1da3 30       		.byte	0x30
 4374 1da4 00       		.byte	0
 4375 1da5 00       		.byte	0
 4376 1da6 18       		.uleb128 0x18
 4377 1da7 04       		.byte	0x4
 4378 1da8 AC1D0000 		.4byte	0x1dac
 4379 1dac 06       		.uleb128 0x6
 4380 1dad FE1B0000 		.4byte	0x1bfe
 4381 1db1 22       		.uleb128 0x22
 4382 1db2 3A0A0000 		.4byte	.LASF414
 4383 1db6 01       		.byte	0x1
 4384 1db7 BB       		.byte	0xbb
 4385 1db8 00000000 		.4byte	.LFB68
 4386 1dbc 10000000 		.4byte	.LFE68-.LFB68
 4387 1dc0 01       		.uleb128 0x1
 4388 1dc1 9C       		.byte	0x9c
 4389 1dc2 23       		.uleb128 0x23
 4390 1dc3 90130000 		.4byte	.LASF444
 4391 1dc7 01       		.byte	0x1
 4392 1dc8 D4       		.byte	0xd4
 4393 1dc9 7A1B0000 		.4byte	0x1b7a
 4394 1dcd 00000000 		.4byte	.LFB69
 4395 1dd1 20000000 		.4byte	.LFE69-.LFB69
 4396 1dd5 01       		.uleb128 0x1
 4397 1dd6 9C       		.byte	0x9c
 4398 1dd7 24       		.uleb128 0x24
 4399 1dd8 6D0A0000 		.4byte	.LASF413
 4400 1ddc 01       		.byte	0x1
 4401 1ddd FC       		.byte	0xfc
 4402 1dde C3000000 		.4byte	0xc3
 4403 1de2 00000000 		.4byte	.LFB70
 4404 1de6 1C000000 		.4byte	.LFE70-.LFB70
 4405 1dea 01       		.uleb128 0x1
 4406 1deb 9C       		.byte	0x9c
 4407 1dec FE1D0000 		.4byte	0x1dfe
 4408 1df0 25       		.uleb128 0x25
 4409 1df1 D8150000 		.4byte	.LASF419
 4410 1df5 01       		.byte	0x1
 4411 1df6 FE       		.byte	0xfe
 4412 1df7 C3000000 		.4byte	0xc3
ARM GAS  C:\Users\Rolf\AppData\Local\Temp\ccTwK7ru.s 			page 105


 4413 1dfb 01       		.uleb128 0x1
 4414 1dfc 50       		.byte	0x50
 4415 1dfd 00       		.byte	0
 4416 1dfe 26       		.uleb128 0x26
 4417 1dff 71160000 		.4byte	.LASF415
 4418 1e03 01       		.byte	0x1
 4419 1e04 1101     		.2byte	0x111
 4420 1e06 00000000 		.4byte	.LFB71
 4421 1e0a 30000000 		.4byte	.LFE71-.LFB71
 4422 1e0e 01       		.uleb128 0x1
 4423 1e0f 9C       		.byte	0x9c
 4424 1e10 16       		.uleb128 0x16
 4425 1e11 9B020000 		.4byte	.LASF416
 4426 1e15 02       		.byte	0x2
 4427 1e16 C101     		.2byte	0x1c1
 4428 1e18 7E1C0000 		.4byte	0x1c7e
 4429 1e1c 03       		.byte	0x3
 4430 1e1d 2E1E0000 		.4byte	0x1e2e
 4431 1e21 17       		.uleb128 0x17
 4432 1e22 15040000 		.4byte	.LASF417
 4433 1e26 02       		.byte	0x2
 4434 1e27 C101     		.2byte	0x1c1
 4435 1e29 C3000000 		.4byte	0xc3
 4436 1e2d 00       		.byte	0
 4437 1e2e 27       		.uleb128 0x27
 4438 1e2f B5010000 		.4byte	.LASF418
 4439 1e33 01       		.byte	0x1
 4440 1e34 3101     		.2byte	0x131
 4441 1e36 00000000 		.4byte	.LFB72
 4442 1e3a 70000000 		.4byte	.LFE72-.LFB72
 4443 1e3e 01       		.uleb128 0x1
 4444 1e3f 9C       		.byte	0x9c
 4445 1e40 3F1F0000 		.4byte	0x1f3f
 4446 1e44 28       		.uleb128 0x28
 4447 1e45 6D736700 		.ascii	"msg\000"
 4448 1e49 01       		.byte	0x1
 4449 1e4a 3301     		.2byte	0x133
 4450 1e4c C3000000 		.4byte	0xc3
 4451 1e50 05       		.uleb128 0x5
 4452 1e51 03       		.byte	0x3
 4453 1e52 00000000 		.4byte	msg.10725
 4454 1e56 29       		.uleb128 0x29
 4455 1e57 101E0000 		.4byte	0x1e10
 4456 1e5b 02000000 		.4byte	.LBB14
 4457 1e5f 1C000000 		.4byte	.LBE14-.LBB14
 4458 1e63 01       		.byte	0x1
 4459 1e64 3B01     		.2byte	0x13b
 4460 1e66 8E1E0000 		.4byte	0x1e8e
 4461 1e6a 2A       		.uleb128 0x2a
 4462 1e6b 211E0000 		.4byte	0x1e21
 4463 1e6f 89000000 		.4byte	.LLST4
 4464 1e73 21       		.uleb128 0x21
 4465 1e74 18000000 		.4byte	.LVL18
 4466 1e78 431D0000 		.4byte	0x1d43
 4467 1e7c 20       		.uleb128 0x20
 4468 1e7d 01       		.uleb128 0x1
 4469 1e7e 50       		.byte	0x50
ARM GAS  C:\Users\Rolf\AppData\Local\Temp\ccTwK7ru.s 			page 106


 4470 1e7f 05       		.uleb128 0x5
 4471 1e80 03       		.byte	0x3
 4472 1e81 00000000 		.4byte	.LC6
 4473 1e85 20       		.uleb128 0x20
 4474 1e86 01       		.uleb128 0x1
 4475 1e87 51       		.byte	0x51
 4476 1e88 03       		.uleb128 0x3
 4477 1e89 0A       		.byte	0xa
 4478 1e8a C301     		.2byte	0x1c3
 4479 1e8c 00       		.byte	0
 4480 1e8d 00       		.byte	0
 4481 1e8e 29       		.uleb128 0x29
 4482 1e8f 481C0000 		.4byte	0x1c48
 4483 1e93 1E000000 		.4byte	.LBB16
 4484 1e97 08000000 		.4byte	.LBE16-.LBB16
 4485 1e9b 01       		.byte	0x1
 4486 1e9c 3B01     		.2byte	0x13b
 4487 1e9e D21E0000 		.4byte	0x1ed2
 4488 1ea2 2A       		.uleb128 0x2a
 4489 1ea3 711C0000 		.4byte	0x1c71
 4490 1ea7 9D000000 		.4byte	.LLST5
 4491 1eab 2A       		.uleb128 0x2a
 4492 1eac 651C0000 		.4byte	0x1c65
 4493 1eb0 B5000000 		.4byte	.LLST6
 4494 1eb4 2B       		.uleb128 0x2b
 4495 1eb5 591C0000 		.4byte	0x1c59
 4496 1eb9 21       		.uleb128 0x21
 4497 1eba 26000000 		.4byte	.LVL20
 4498 1ebe AE200000 		.4byte	0x20ae
 4499 1ec2 20       		.uleb128 0x20
 4500 1ec3 01       		.uleb128 0x1
 4501 1ec4 51       		.byte	0x51
 4502 1ec5 01       		.uleb128 0x1
 4503 1ec6 31       		.byte	0x31
 4504 1ec7 20       		.uleb128 0x20
 4505 1ec8 01       		.uleb128 0x1
 4506 1ec9 52       		.byte	0x52
 4507 1eca 05       		.uleb128 0x5
 4508 1ecb 03       		.byte	0x3
 4509 1ecc 00000000 		.4byte	.LANCHOR1
 4510 1ed0 00       		.byte	0
 4511 1ed1 00       		.byte	0
 4512 1ed2 29       		.uleb128 0x29
 4513 1ed3 101E0000 		.4byte	0x1e10
 4514 1ed7 34000000 		.4byte	.LBB18
 4515 1edb 1C000000 		.4byte	.LBE18-.LBB18
 4516 1edf 01       		.byte	0x1
 4517 1ee0 4001     		.2byte	0x140
 4518 1ee2 0A1F0000 		.4byte	0x1f0a
 4519 1ee6 2A       		.uleb128 0x2a
 4520 1ee7 211E0000 		.4byte	0x1e21
 4521 1eeb C9000000 		.4byte	.LLST7
 4522 1eef 21       		.uleb128 0x21
 4523 1ef0 4A000000 		.4byte	.LVL22
 4524 1ef4 431D0000 		.4byte	0x1d43
 4525 1ef8 20       		.uleb128 0x20
 4526 1ef9 01       		.uleb128 0x1
ARM GAS  C:\Users\Rolf\AppData\Local\Temp\ccTwK7ru.s 			page 107


 4527 1efa 50       		.byte	0x50
 4528 1efb 05       		.uleb128 0x5
 4529 1efc 03       		.byte	0x3
 4530 1efd 00000000 		.4byte	.LC6
 4531 1f01 20       		.uleb128 0x20
 4532 1f02 01       		.uleb128 0x1
 4533 1f03 51       		.byte	0x51
 4534 1f04 03       		.uleb128 0x3
 4535 1f05 0A       		.byte	0xa
 4536 1f06 C301     		.2byte	0x1c3
 4537 1f08 00       		.byte	0
 4538 1f09 00       		.byte	0
 4539 1f0a 29       		.uleb128 0x29
 4540 1f0b 8B1C0000 		.4byte	0x1c8b
 4541 1f0f 50000000 		.4byte	.LBB20
 4542 1f13 08000000 		.4byte	.LBE20-.LBB20
 4543 1f17 01       		.byte	0x1
 4544 1f18 4001     		.2byte	0x140
 4545 1f1a 241F0000 		.4byte	0x1f24
 4546 1f1e 2B       		.uleb128 0x2b
 4547 1f1f 9C1C0000 		.4byte	0x1c9c
 4548 1f23 00       		.byte	0
 4549 1f24 21       		.uleb128 0x21
 4550 1f25 34000000 		.4byte	.LVL21
 4551 1f29 431D0000 		.4byte	0x1d43
 4552 1f2d 20       		.uleb128 0x20
 4553 1f2e 01       		.uleb128 0x1
 4554 1f2f 50       		.byte	0x50
 4555 1f30 05       		.uleb128 0x5
 4556 1f31 03       		.byte	0x3
 4557 1f32 40000000 		.4byte	.LC9
 4558 1f36 20       		.uleb128 0x20
 4559 1f37 01       		.uleb128 0x1
 4560 1f38 51       		.byte	0x51
 4561 1f39 03       		.uleb128 0x3
 4562 1f3a 0A       		.byte	0xa
 4563 1f3b 3D01     		.2byte	0x13d
 4564 1f3d 00       		.byte	0
 4565 1f3e 00       		.byte	0
 4566 1f3f 2C       		.uleb128 0x2c
 4567 1f40 AB030000 		.4byte	.LASF420
 4568 1f44 01       		.byte	0x1
 4569 1f45 5C01     		.2byte	0x15c
 4570 1f47 CE000000 		.4byte	0xce
 4571 1f4b 00000000 		.4byte	.LFB73
 4572 1f4f 6C000000 		.4byte	.LFE73-.LFB73
 4573 1f53 01       		.uleb128 0x1
 4574 1f54 9C       		.byte	0x9c
 4575 1f55 761F0000 		.4byte	0x1f76
 4576 1f59 2D       		.uleb128 0x2d
 4577 1f5a AE070000 		.4byte	.LASF421
 4578 1f5e 01       		.byte	0x1
 4579 1f5f 5E01     		.2byte	0x15e
 4580 1f61 C3000000 		.4byte	0xc3
 4581 1f65 01       		.uleb128 0x1
 4582 1f66 51       		.byte	0x51
 4583 1f67 2D       		.uleb128 0x2d
ARM GAS  C:\Users\Rolf\AppData\Local\Temp\ccTwK7ru.s 			page 108


 4584 1f68 DF090000 		.4byte	.LASF422
 4585 1f6c 01       		.byte	0x1
 4586 1f6d 5F01     		.2byte	0x15f
 4587 1f6f C3000000 		.4byte	0xc3
 4588 1f73 01       		.uleb128 0x1
 4589 1f74 50       		.byte	0x50
 4590 1f75 00       		.byte	0
 4591 1f76 26       		.uleb128 0x26
 4592 1f77 C00B0000 		.4byte	.LASF423
 4593 1f7b 01       		.byte	0x1
 4594 1f7c CE01     		.2byte	0x1ce
 4595 1f7e 00000000 		.4byte	.LFB75
 4596 1f82 02000000 		.4byte	.LFE75-.LFB75
 4597 1f86 01       		.uleb128 0x1
 4598 1f87 9C       		.byte	0x9c
 4599 1f88 27       		.uleb128 0x27
 4600 1f89 7A190000 		.4byte	.LASF424
 4601 1f8d 01       		.byte	0x1
 4602 1f8e 8A01     		.2byte	0x18a
 4603 1f90 00000000 		.4byte	.LFB74
 4604 1f94 30000000 		.4byte	.LFE74-.LFB74
 4605 1f98 01       		.uleb128 0x1
 4606 1f99 9C       		.byte	0x9c
 4607 1f9a B81F0000 		.4byte	0x1fb8
 4608 1f9e 2E       		.uleb128 0x2e
 4609 1f9f 19170000 		.4byte	.LASF425
 4610 1fa3 01       		.byte	0x1
 4611 1fa4 8A01     		.2byte	0x18a
 4612 1fa6 B81F0000 		.4byte	0x1fb8
 4613 1faa DD000000 		.4byte	.LLST8
 4614 1fae 1C       		.uleb128 0x1c
 4615 1faf 28000000 		.4byte	.LVL27
 4616 1fb3 761F0000 		.4byte	0x1f76
 4617 1fb7 00       		.byte	0
 4618 1fb8 18       		.uleb128 0x18
 4619 1fb9 04       		.byte	0x4
 4620 1fba BE1F0000 		.4byte	0x1fbe
 4621 1fbe 06       		.uleb128 0x6
 4622 1fbf C3000000 		.4byte	0xc3
 4623 1fc3 27       		.uleb128 0x27
 4624 1fc4 7B140000 		.4byte	.LASF426
 4625 1fc8 01       		.byte	0x1
 4626 1fc9 FB01     		.2byte	0x1fb
 4627 1fcb 00000000 		.4byte	.LFB76
 4628 1fcf E0000000 		.4byte	.LFE76-.LFB76
 4629 1fd3 01       		.uleb128 0x1
 4630 1fd4 9C       		.byte	0x9c
 4631 1fd5 1A200000 		.4byte	0x201a
 4632 1fd9 2E       		.uleb128 0x2e
 4633 1fda 3F060000 		.4byte	.LASF427
 4634 1fde 01       		.byte	0x1
 4635 1fdf FB01     		.2byte	0x1fb
 4636 1fe1 A91C0000 		.4byte	0x1ca9
 4637 1fe5 FE000000 		.4byte	.LLST9
 4638 1fe9 2E       		.uleb128 0x2e
 4639 1fea 6C100000 		.4byte	.LASF428
 4640 1fee 01       		.byte	0x1
ARM GAS  C:\Users\Rolf\AppData\Local\Temp\ccTwK7ru.s 			page 109


 4641 1fef FB01     		.2byte	0x1fb
 4642 1ff1 C3000000 		.4byte	0xc3
 4643 1ff5 E7010000 		.4byte	.LLST10
 4644 1ff9 2F       		.uleb128 0x2f
 4645 1ffa 2E100000 		.4byte	.LASF429
 4646 1ffe 01       		.byte	0x1
 4647 1fff FD01     		.2byte	0x1fd
 4648 2001 C3000000 		.4byte	0xc3
 4649 2005 08020000 		.4byte	.LLST11
 4650 2009 2F       		.uleb128 0x2f
 4651 200a E20B0000 		.4byte	.LASF430
 4652 200e 01       		.byte	0x1
 4653 200f FE01     		.2byte	0x1fe
 4654 2011 C3000000 		.4byte	0xc3
 4655 2015 26020000 		.4byte	.LLST12
 4656 2019 00       		.byte	0
 4657 201a 30       		.uleb128 0x30
 4658 201b 84000000 		.4byte	.LASF431
 4659 201f 0A       		.byte	0xa
 4660 2020 A7       		.byte	0xa7
 4661 2021 25200000 		.4byte	0x2025
 4662 2025 18       		.uleb128 0x18
 4663 2026 04       		.byte	0x4
 4664 2027 2B200000 		.4byte	0x202b
 4665 202b 06       		.uleb128 0x6
 4666 202c 071B0000 		.4byte	0x1b07
 4667 2030 31       		.uleb128 0x31
 4668 2031 5A190000 		.4byte	.LASF432
 4669 2035 0D       		.byte	0xd
 4670 2036 2902     		.2byte	0x229
 4671 2038 C3000000 		.4byte	0xc3
 4672 203c 31       		.uleb128 0x31
 4673 203d 590C0000 		.4byte	.LASF433
 4674 2041 0D       		.byte	0xd
 4675 2042 2A02     		.2byte	0x22a
 4676 2044 A2000000 		.4byte	0xa2
 4677 2048 31       		.uleb128 0x31
 4678 2049 F3070000 		.4byte	.LASF434
 4679 204d 0D       		.byte	0xd
 4680 204e 2B02     		.2byte	0x22b
 4681 2050 C3000000 		.4byte	0xc3
 4682 2054 07       		.uleb128 0x7
 4683 2055 FE1B0000 		.4byte	0x1bfe
 4684 2059 64200000 		.4byte	0x2064
 4685 205d 08       		.uleb128 0x8
 4686 205e FA000000 		.4byte	0xfa
 4687 2062 17       		.byte	0x17
 4688 2063 00       		.byte	0
 4689 2064 32       		.uleb128 0x32
 4690 2065 F4170000 		.4byte	.LASF435
 4691 2069 01       		.byte	0x1
 4692 206a 24       		.byte	0x24
 4693 206b 54200000 		.4byte	0x2054
 4694 206f 05       		.uleb128 0x5
 4695 2070 03       		.byte	0x3
 4696 2071 00000000 		.4byte	cy_assertFileName
 4697 2075 32       		.uleb128 0x32
ARM GAS  C:\Users\Rolf\AppData\Local\Temp\ccTwK7ru.s 			page 110


 4698 2076 22160000 		.4byte	.LASF436
 4699 207a 01       		.byte	0x1
 4700 207b 25       		.byte	0x25
 4701 207c C3000000 		.4byte	0xc3
 4702 2080 05       		.uleb128 0x5
 4703 2081 03       		.byte	0x3
 4704 2082 00000000 		.4byte	cy_assertLine
 4705 2086 32       		.uleb128 0x32
 4706 2087 F80A0000 		.4byte	.LASF437
 4707 208b 01       		.byte	0x1
 4708 208c 29       		.byte	0x29
 4709 208d F21B0000 		.4byte	0x1bf2
 4710 2091 05       		.uleb128 0x5
 4711 2092 03       		.byte	0x3
 4712 2093 00000000 		.4byte	cy_faultFrame
 4713 2097 33       		.uleb128 0x33
 4714 2098 0A060000 		.4byte	.LASF438
 4715 209c 0A060000 		.4byte	.LASF438
 4716 20a0 0C       		.byte	0xc
 4717 20a1 8F03     		.2byte	0x38f
 4718 20a3 34       		.uleb128 0x34
 4719 20a4 D7070000 		.4byte	.LASF439
 4720 20a8 D7070000 		.4byte	.LASF439
 4721 20ac 0E       		.byte	0xe
 4722 20ad 24       		.byte	0x24
 4723 20ae 33       		.uleb128 0x33
 4724 20af B01A0000 		.4byte	.LASF440
 4725 20b3 B01A0000 		.4byte	.LASF440
 4726 20b7 02       		.byte	0x2
 4727 20b8 9C01     		.2byte	0x19c
 4728 20ba 00       		.byte	0
 4729              		.section	.debug_abbrev,"",%progbits
 4730              	.Ldebug_abbrev0:
 4731 0000 01       		.uleb128 0x1
 4732 0001 11       		.uleb128 0x11
 4733 0002 01       		.byte	0x1
 4734 0003 25       		.uleb128 0x25
 4735 0004 0E       		.uleb128 0xe
 4736 0005 13       		.uleb128 0x13
 4737 0006 0B       		.uleb128 0xb
 4738 0007 03       		.uleb128 0x3
 4739 0008 0E       		.uleb128 0xe
 4740 0009 1B       		.uleb128 0x1b
 4741 000a 0E       		.uleb128 0xe
 4742 000b 55       		.uleb128 0x55
 4743 000c 17       		.uleb128 0x17
 4744 000d 11       		.uleb128 0x11
 4745 000e 01       		.uleb128 0x1
 4746 000f 10       		.uleb128 0x10
 4747 0010 17       		.uleb128 0x17
 4748 0011 00       		.byte	0
 4749 0012 00       		.byte	0
 4750 0013 02       		.uleb128 0x2
 4751 0014 24       		.uleb128 0x24
 4752 0015 00       		.byte	0
 4753 0016 0B       		.uleb128 0xb
 4754 0017 0B       		.uleb128 0xb
ARM GAS  C:\Users\Rolf\AppData\Local\Temp\ccTwK7ru.s 			page 111


 4755 0018 3E       		.uleb128 0x3e
 4756 0019 0B       		.uleb128 0xb
 4757 001a 03       		.uleb128 0x3
 4758 001b 0E       		.uleb128 0xe
 4759 001c 00       		.byte	0
 4760 001d 00       		.byte	0
 4761 001e 03       		.uleb128 0x3
 4762 001f 16       		.uleb128 0x16
 4763 0020 00       		.byte	0
 4764 0021 03       		.uleb128 0x3
 4765 0022 0E       		.uleb128 0xe
 4766 0023 3A       		.uleb128 0x3a
 4767 0024 0B       		.uleb128 0xb
 4768 0025 3B       		.uleb128 0x3b
 4769 0026 0B       		.uleb128 0xb
 4770 0027 49       		.uleb128 0x49
 4771 0028 13       		.uleb128 0x13
 4772 0029 00       		.byte	0
 4773 002a 00       		.byte	0
 4774 002b 04       		.uleb128 0x4
 4775 002c 24       		.uleb128 0x24
 4776 002d 00       		.byte	0
 4777 002e 0B       		.uleb128 0xb
 4778 002f 0B       		.uleb128 0xb
 4779 0030 3E       		.uleb128 0x3e
 4780 0031 0B       		.uleb128 0xb
 4781 0032 03       		.uleb128 0x3
 4782 0033 08       		.uleb128 0x8
 4783 0034 00       		.byte	0
 4784 0035 00       		.byte	0
 4785 0036 05       		.uleb128 0x5
 4786 0037 35       		.uleb128 0x35
 4787 0038 00       		.byte	0
 4788 0039 49       		.uleb128 0x49
 4789 003a 13       		.uleb128 0x13
 4790 003b 00       		.byte	0
 4791 003c 00       		.byte	0
 4792 003d 06       		.uleb128 0x6
 4793 003e 26       		.uleb128 0x26
 4794 003f 00       		.byte	0
 4795 0040 49       		.uleb128 0x49
 4796 0041 13       		.uleb128 0x13
 4797 0042 00       		.byte	0
 4798 0043 00       		.byte	0
 4799 0044 07       		.uleb128 0x7
 4800 0045 01       		.uleb128 0x1
 4801 0046 01       		.byte	0x1
 4802 0047 49       		.uleb128 0x49
 4803 0048 13       		.uleb128 0x13
 4804 0049 01       		.uleb128 0x1
 4805 004a 13       		.uleb128 0x13
 4806 004b 00       		.byte	0
 4807 004c 00       		.byte	0
 4808 004d 08       		.uleb128 0x8
 4809 004e 21       		.uleb128 0x21
 4810 004f 00       		.byte	0
 4811 0050 49       		.uleb128 0x49
ARM GAS  C:\Users\Rolf\AppData\Local\Temp\ccTwK7ru.s 			page 112


 4812 0051 13       		.uleb128 0x13
 4813 0052 2F       		.uleb128 0x2f
 4814 0053 0B       		.uleb128 0xb
 4815 0054 00       		.byte	0
 4816 0055 00       		.byte	0
 4817 0056 09       		.uleb128 0x9
 4818 0057 13       		.uleb128 0x13
 4819 0058 01       		.byte	0x1
 4820 0059 0B       		.uleb128 0xb
 4821 005a 05       		.uleb128 0x5
 4822 005b 3A       		.uleb128 0x3a
 4823 005c 0B       		.uleb128 0xb
 4824 005d 3B       		.uleb128 0x3b
 4825 005e 0B       		.uleb128 0xb
 4826 005f 01       		.uleb128 0x1
 4827 0060 13       		.uleb128 0x13
 4828 0061 00       		.byte	0
 4829 0062 00       		.byte	0
 4830 0063 0A       		.uleb128 0xa
 4831 0064 0D       		.uleb128 0xd
 4832 0065 00       		.byte	0
 4833 0066 03       		.uleb128 0x3
 4834 0067 0E       		.uleb128 0xe
 4835 0068 3A       		.uleb128 0x3a
 4836 0069 0B       		.uleb128 0xb
 4837 006a 3B       		.uleb128 0x3b
 4838 006b 0B       		.uleb128 0xb
 4839 006c 49       		.uleb128 0x49
 4840 006d 13       		.uleb128 0x13
 4841 006e 38       		.uleb128 0x38
 4842 006f 0B       		.uleb128 0xb
 4843 0070 00       		.byte	0
 4844 0071 00       		.byte	0
 4845 0072 0B       		.uleb128 0xb
 4846 0073 0D       		.uleb128 0xd
 4847 0074 00       		.byte	0
 4848 0075 03       		.uleb128 0x3
 4849 0076 0E       		.uleb128 0xe
 4850 0077 3A       		.uleb128 0x3a
 4851 0078 0B       		.uleb128 0xb
 4852 0079 3B       		.uleb128 0x3b
 4853 007a 0B       		.uleb128 0xb
 4854 007b 49       		.uleb128 0x49
 4855 007c 13       		.uleb128 0x13
 4856 007d 38       		.uleb128 0x38
 4857 007e 05       		.uleb128 0x5
 4858 007f 00       		.byte	0
 4859 0080 00       		.byte	0
 4860 0081 0C       		.uleb128 0xc
 4861 0082 21       		.uleb128 0x21
 4862 0083 00       		.byte	0
 4863 0084 49       		.uleb128 0x49
 4864 0085 13       		.uleb128 0x13
 4865 0086 2F       		.uleb128 0x2f
 4866 0087 05       		.uleb128 0x5
 4867 0088 00       		.byte	0
 4868 0089 00       		.byte	0
ARM GAS  C:\Users\Rolf\AppData\Local\Temp\ccTwK7ru.s 			page 113


 4869 008a 0D       		.uleb128 0xd
 4870 008b 13       		.uleb128 0x13
 4871 008c 01       		.byte	0x1
 4872 008d 0B       		.uleb128 0xb
 4873 008e 06       		.uleb128 0x6
 4874 008f 3A       		.uleb128 0x3a
 4875 0090 0B       		.uleb128 0xb
 4876 0091 3B       		.uleb128 0x3b
 4877 0092 0B       		.uleb128 0xb
 4878 0093 01       		.uleb128 0x1
 4879 0094 13       		.uleb128 0x13
 4880 0095 00       		.byte	0
 4881 0096 00       		.byte	0
 4882 0097 0E       		.uleb128 0xe
 4883 0098 13       		.uleb128 0x13
 4884 0099 01       		.byte	0x1
 4885 009a 0B       		.uleb128 0xb
 4886 009b 0B       		.uleb128 0xb
 4887 009c 3A       		.uleb128 0x3a
 4888 009d 0B       		.uleb128 0xb
 4889 009e 3B       		.uleb128 0x3b
 4890 009f 0B       		.uleb128 0xb
 4891 00a0 01       		.uleb128 0x1
 4892 00a1 13       		.uleb128 0x13
 4893 00a2 00       		.byte	0
 4894 00a3 00       		.byte	0
 4895 00a4 0F       		.uleb128 0xf
 4896 00a5 0D       		.uleb128 0xd
 4897 00a6 00       		.byte	0
 4898 00a7 03       		.uleb128 0x3
 4899 00a8 08       		.uleb128 0x8
 4900 00a9 3A       		.uleb128 0x3a
 4901 00aa 0B       		.uleb128 0xb
 4902 00ab 3B       		.uleb128 0x3b
 4903 00ac 0B       		.uleb128 0xb
 4904 00ad 49       		.uleb128 0x49
 4905 00ae 13       		.uleb128 0x13
 4906 00af 38       		.uleb128 0x38
 4907 00b0 0B       		.uleb128 0xb
 4908 00b1 00       		.byte	0
 4909 00b2 00       		.byte	0
 4910 00b3 10       		.uleb128 0x10
 4911 00b4 16       		.uleb128 0x16
 4912 00b5 00       		.byte	0
 4913 00b6 03       		.uleb128 0x3
 4914 00b7 0E       		.uleb128 0xe
 4915 00b8 3A       		.uleb128 0x3a
 4916 00b9 0B       		.uleb128 0xb
 4917 00ba 3B       		.uleb128 0x3b
 4918 00bb 05       		.uleb128 0x5
 4919 00bc 49       		.uleb128 0x49
 4920 00bd 13       		.uleb128 0x13
 4921 00be 00       		.byte	0
 4922 00bf 00       		.byte	0
 4923 00c0 11       		.uleb128 0x11
 4924 00c1 04       		.uleb128 0x4
 4925 00c2 01       		.byte	0x1
ARM GAS  C:\Users\Rolf\AppData\Local\Temp\ccTwK7ru.s 			page 114


 4926 00c3 0B       		.uleb128 0xb
 4927 00c4 0B       		.uleb128 0xb
 4928 00c5 49       		.uleb128 0x49
 4929 00c6 13       		.uleb128 0x13
 4930 00c7 3A       		.uleb128 0x3a
 4931 00c8 0B       		.uleb128 0xb
 4932 00c9 3B       		.uleb128 0x3b
 4933 00ca 05       		.uleb128 0x5
 4934 00cb 01       		.uleb128 0x1
 4935 00cc 13       		.uleb128 0x13
 4936 00cd 00       		.byte	0
 4937 00ce 00       		.byte	0
 4938 00cf 12       		.uleb128 0x12
 4939 00d0 28       		.uleb128 0x28
 4940 00d1 00       		.byte	0
 4941 00d2 03       		.uleb128 0x3
 4942 00d3 0E       		.uleb128 0xe
 4943 00d4 1C       		.uleb128 0x1c
 4944 00d5 0B       		.uleb128 0xb
 4945 00d6 00       		.byte	0
 4946 00d7 00       		.byte	0
 4947 00d8 13       		.uleb128 0x13
 4948 00d9 28       		.uleb128 0x28
 4949 00da 00       		.byte	0
 4950 00db 03       		.uleb128 0x3
 4951 00dc 0E       		.uleb128 0xe
 4952 00dd 1C       		.uleb128 0x1c
 4953 00de 06       		.uleb128 0x6
 4954 00df 00       		.byte	0
 4955 00e0 00       		.byte	0
 4956 00e1 14       		.uleb128 0x14
 4957 00e2 13       		.uleb128 0x13
 4958 00e3 01       		.byte	0x1
 4959 00e4 0B       		.uleb128 0xb
 4960 00e5 0B       		.uleb128 0xb
 4961 00e6 3A       		.uleb128 0x3a
 4962 00e7 0B       		.uleb128 0xb
 4963 00e8 3B       		.uleb128 0x3b
 4964 00e9 05       		.uleb128 0x5
 4965 00ea 01       		.uleb128 0x1
 4966 00eb 13       		.uleb128 0x13
 4967 00ec 00       		.byte	0
 4968 00ed 00       		.byte	0
 4969 00ee 15       		.uleb128 0x15
 4970 00ef 0D       		.uleb128 0xd
 4971 00f0 00       		.byte	0
 4972 00f1 03       		.uleb128 0x3
 4973 00f2 08       		.uleb128 0x8
 4974 00f3 3A       		.uleb128 0x3a
 4975 00f4 0B       		.uleb128 0xb
 4976 00f5 3B       		.uleb128 0x3b
 4977 00f6 05       		.uleb128 0x5
 4978 00f7 49       		.uleb128 0x49
 4979 00f8 13       		.uleb128 0x13
 4980 00f9 38       		.uleb128 0x38
 4981 00fa 0B       		.uleb128 0xb
 4982 00fb 00       		.byte	0
ARM GAS  C:\Users\Rolf\AppData\Local\Temp\ccTwK7ru.s 			page 115


 4983 00fc 00       		.byte	0
 4984 00fd 16       		.uleb128 0x16
 4985 00fe 2E       		.uleb128 0x2e
 4986 00ff 01       		.byte	0x1
 4987 0100 03       		.uleb128 0x3
 4988 0101 0E       		.uleb128 0xe
 4989 0102 3A       		.uleb128 0x3a
 4990 0103 0B       		.uleb128 0xb
 4991 0104 3B       		.uleb128 0x3b
 4992 0105 05       		.uleb128 0x5
 4993 0106 27       		.uleb128 0x27
 4994 0107 19       		.uleb128 0x19
 4995 0108 49       		.uleb128 0x49
 4996 0109 13       		.uleb128 0x13
 4997 010a 20       		.uleb128 0x20
 4998 010b 0B       		.uleb128 0xb
 4999 010c 01       		.uleb128 0x1
 5000 010d 13       		.uleb128 0x13
 5001 010e 00       		.byte	0
 5002 010f 00       		.byte	0
 5003 0110 17       		.uleb128 0x17
 5004 0111 05       		.uleb128 0x5
 5005 0112 00       		.byte	0
 5006 0113 03       		.uleb128 0x3
 5007 0114 0E       		.uleb128 0xe
 5008 0115 3A       		.uleb128 0x3a
 5009 0116 0B       		.uleb128 0xb
 5010 0117 3B       		.uleb128 0x3b
 5011 0118 05       		.uleb128 0x5
 5012 0119 49       		.uleb128 0x49
 5013 011a 13       		.uleb128 0x13
 5014 011b 00       		.byte	0
 5015 011c 00       		.byte	0
 5016 011d 18       		.uleb128 0x18
 5017 011e 0F       		.uleb128 0xf
 5018 011f 00       		.byte	0
 5019 0120 0B       		.uleb128 0xb
 5020 0121 0B       		.uleb128 0xb
 5021 0122 49       		.uleb128 0x49
 5022 0123 13       		.uleb128 0x13
 5023 0124 00       		.byte	0
 5024 0125 00       		.byte	0
 5025 0126 19       		.uleb128 0x19
 5026 0127 26       		.uleb128 0x26
 5027 0128 00       		.byte	0
 5028 0129 00       		.byte	0
 5029 012a 00       		.byte	0
 5030 012b 1A       		.uleb128 0x1a
 5031 012c 2E       		.uleb128 0x2e
 5032 012d 01       		.byte	0x1
 5033 012e 3F       		.uleb128 0x3f
 5034 012f 19       		.uleb128 0x19
 5035 0130 03       		.uleb128 0x3
 5036 0131 0E       		.uleb128 0xe
 5037 0132 3A       		.uleb128 0x3a
 5038 0133 0B       		.uleb128 0xb
 5039 0134 3B       		.uleb128 0x3b
ARM GAS  C:\Users\Rolf\AppData\Local\Temp\ccTwK7ru.s 			page 116


 5040 0135 0B       		.uleb128 0xb
 5041 0136 27       		.uleb128 0x27
 5042 0137 19       		.uleb128 0x19
 5043 0138 11       		.uleb128 0x11
 5044 0139 01       		.uleb128 0x1
 5045 013a 12       		.uleb128 0x12
 5046 013b 06       		.uleb128 0x6
 5047 013c 40       		.uleb128 0x40
 5048 013d 18       		.uleb128 0x18
 5049 013e 9742     		.uleb128 0x2117
 5050 0140 19       		.uleb128 0x19
 5051 0141 01       		.uleb128 0x1
 5052 0142 13       		.uleb128 0x13
 5053 0143 00       		.byte	0
 5054 0144 00       		.byte	0
 5055 0145 1B       		.uleb128 0x1b
 5056 0146 05       		.uleb128 0x5
 5057 0147 00       		.byte	0
 5058 0148 03       		.uleb128 0x3
 5059 0149 0E       		.uleb128 0xe
 5060 014a 3A       		.uleb128 0x3a
 5061 014b 0B       		.uleb128 0xb
 5062 014c 3B       		.uleb128 0x3b
 5063 014d 0B       		.uleb128 0xb
 5064 014e 49       		.uleb128 0x49
 5065 014f 13       		.uleb128 0x13
 5066 0150 02       		.uleb128 0x2
 5067 0151 17       		.uleb128 0x17
 5068 0152 00       		.byte	0
 5069 0153 00       		.byte	0
 5070 0154 1C       		.uleb128 0x1c
 5071 0155 898201   		.uleb128 0x4109
 5072 0158 00       		.byte	0
 5073 0159 11       		.uleb128 0x11
 5074 015a 01       		.uleb128 0x1
 5075 015b 31       		.uleb128 0x31
 5076 015c 13       		.uleb128 0x13
 5077 015d 00       		.byte	0
 5078 015e 00       		.byte	0
 5079 015f 1D       		.uleb128 0x1d
 5080 0160 2E       		.uleb128 0x2e
 5081 0161 01       		.byte	0x1
 5082 0162 3F       		.uleb128 0x3f
 5083 0163 19       		.uleb128 0x19
 5084 0164 03       		.uleb128 0x3
 5085 0165 0E       		.uleb128 0xe
 5086 0166 3A       		.uleb128 0x3a
 5087 0167 0B       		.uleb128 0xb
 5088 0168 3B       		.uleb128 0x3b
 5089 0169 0B       		.uleb128 0xb
 5090 016a 27       		.uleb128 0x27
 5091 016b 19       		.uleb128 0x19
 5092 016c 8701     		.uleb128 0x87
 5093 016e 19       		.uleb128 0x19
 5094 016f 11       		.uleb128 0x11
 5095 0170 01       		.uleb128 0x1
 5096 0171 12       		.uleb128 0x12
ARM GAS  C:\Users\Rolf\AppData\Local\Temp\ccTwK7ru.s 			page 117


 5097 0172 06       		.uleb128 0x6
 5098 0173 40       		.uleb128 0x40
 5099 0174 18       		.uleb128 0x18
 5100 0175 9742     		.uleb128 0x2117
 5101 0177 19       		.uleb128 0x19
 5102 0178 01       		.uleb128 0x1
 5103 0179 13       		.uleb128 0x13
 5104 017a 00       		.byte	0
 5105 017b 00       		.byte	0
 5106 017c 1E       		.uleb128 0x1e
 5107 017d 05       		.uleb128 0x5
 5108 017e 00       		.byte	0
 5109 017f 03       		.uleb128 0x3
 5110 0180 0E       		.uleb128 0xe
 5111 0181 3A       		.uleb128 0x3a
 5112 0182 0B       		.uleb128 0xb
 5113 0183 3B       		.uleb128 0x3b
 5114 0184 0B       		.uleb128 0xb
 5115 0185 49       		.uleb128 0x49
 5116 0186 13       		.uleb128 0x13
 5117 0187 02       		.uleb128 0x2
 5118 0188 18       		.uleb128 0x18
 5119 0189 00       		.byte	0
 5120 018a 00       		.byte	0
 5121 018b 1F       		.uleb128 0x1f
 5122 018c 898201   		.uleb128 0x4109
 5123 018f 01       		.byte	0x1
 5124 0190 11       		.uleb128 0x11
 5125 0191 01       		.uleb128 0x1
 5126 0192 31       		.uleb128 0x31
 5127 0193 13       		.uleb128 0x13
 5128 0194 01       		.uleb128 0x1
 5129 0195 13       		.uleb128 0x13
 5130 0196 00       		.byte	0
 5131 0197 00       		.byte	0
 5132 0198 20       		.uleb128 0x20
 5133 0199 8A8201   		.uleb128 0x410a
 5134 019c 00       		.byte	0
 5135 019d 02       		.uleb128 0x2
 5136 019e 18       		.uleb128 0x18
 5137 019f 9142     		.uleb128 0x2111
 5138 01a1 18       		.uleb128 0x18
 5139 01a2 00       		.byte	0
 5140 01a3 00       		.byte	0
 5141 01a4 21       		.uleb128 0x21
 5142 01a5 898201   		.uleb128 0x4109
 5143 01a8 01       		.byte	0x1
 5144 01a9 11       		.uleb128 0x11
 5145 01aa 01       		.uleb128 0x1
 5146 01ab 31       		.uleb128 0x31
 5147 01ac 13       		.uleb128 0x13
 5148 01ad 00       		.byte	0
 5149 01ae 00       		.byte	0
 5150 01af 22       		.uleb128 0x22
 5151 01b0 2E       		.uleb128 0x2e
 5152 01b1 00       		.byte	0
 5153 01b2 3F       		.uleb128 0x3f
ARM GAS  C:\Users\Rolf\AppData\Local\Temp\ccTwK7ru.s 			page 118


 5154 01b3 19       		.uleb128 0x19
 5155 01b4 03       		.uleb128 0x3
 5156 01b5 0E       		.uleb128 0xe
 5157 01b6 3A       		.uleb128 0x3a
 5158 01b7 0B       		.uleb128 0xb
 5159 01b8 3B       		.uleb128 0x3b
 5160 01b9 0B       		.uleb128 0xb
 5161 01ba 27       		.uleb128 0x27
 5162 01bb 19       		.uleb128 0x19
 5163 01bc 11       		.uleb128 0x11
 5164 01bd 01       		.uleb128 0x1
 5165 01be 12       		.uleb128 0x12
 5166 01bf 06       		.uleb128 0x6
 5167 01c0 40       		.uleb128 0x40
 5168 01c1 18       		.uleb128 0x18
 5169 01c2 9742     		.uleb128 0x2117
 5170 01c4 19       		.uleb128 0x19
 5171 01c5 00       		.byte	0
 5172 01c6 00       		.byte	0
 5173 01c7 23       		.uleb128 0x23
 5174 01c8 2E       		.uleb128 0x2e
 5175 01c9 00       		.byte	0
 5176 01ca 3F       		.uleb128 0x3f
 5177 01cb 19       		.uleb128 0x19
 5178 01cc 03       		.uleb128 0x3
 5179 01cd 0E       		.uleb128 0xe
 5180 01ce 3A       		.uleb128 0x3a
 5181 01cf 0B       		.uleb128 0xb
 5182 01d0 3B       		.uleb128 0x3b
 5183 01d1 0B       		.uleb128 0xb
 5184 01d2 27       		.uleb128 0x27
 5185 01d3 19       		.uleb128 0x19
 5186 01d4 49       		.uleb128 0x49
 5187 01d5 13       		.uleb128 0x13
 5188 01d6 11       		.uleb128 0x11
 5189 01d7 01       		.uleb128 0x1
 5190 01d8 12       		.uleb128 0x12
 5191 01d9 06       		.uleb128 0x6
 5192 01da 40       		.uleb128 0x40
 5193 01db 18       		.uleb128 0x18
 5194 01dc 9742     		.uleb128 0x2117
 5195 01de 19       		.uleb128 0x19
 5196 01df 00       		.byte	0
 5197 01e0 00       		.byte	0
 5198 01e1 24       		.uleb128 0x24
 5199 01e2 2E       		.uleb128 0x2e
 5200 01e3 01       		.byte	0x1
 5201 01e4 3F       		.uleb128 0x3f
 5202 01e5 19       		.uleb128 0x19
 5203 01e6 03       		.uleb128 0x3
 5204 01e7 0E       		.uleb128 0xe
 5205 01e8 3A       		.uleb128 0x3a
 5206 01e9 0B       		.uleb128 0xb
 5207 01ea 3B       		.uleb128 0x3b
 5208 01eb 0B       		.uleb128 0xb
 5209 01ec 27       		.uleb128 0x27
 5210 01ed 19       		.uleb128 0x19
ARM GAS  C:\Users\Rolf\AppData\Local\Temp\ccTwK7ru.s 			page 119


 5211 01ee 49       		.uleb128 0x49
 5212 01ef 13       		.uleb128 0x13
 5213 01f0 11       		.uleb128 0x11
 5214 01f1 01       		.uleb128 0x1
 5215 01f2 12       		.uleb128 0x12
 5216 01f3 06       		.uleb128 0x6
 5217 01f4 40       		.uleb128 0x40
 5218 01f5 18       		.uleb128 0x18
 5219 01f6 9742     		.uleb128 0x2117
 5220 01f8 19       		.uleb128 0x19
 5221 01f9 01       		.uleb128 0x1
 5222 01fa 13       		.uleb128 0x13
 5223 01fb 00       		.byte	0
 5224 01fc 00       		.byte	0
 5225 01fd 25       		.uleb128 0x25
 5226 01fe 34       		.uleb128 0x34
 5227 01ff 00       		.byte	0
 5228 0200 03       		.uleb128 0x3
 5229 0201 0E       		.uleb128 0xe
 5230 0202 3A       		.uleb128 0x3a
 5231 0203 0B       		.uleb128 0xb
 5232 0204 3B       		.uleb128 0x3b
 5233 0205 0B       		.uleb128 0xb
 5234 0206 49       		.uleb128 0x49
 5235 0207 13       		.uleb128 0x13
 5236 0208 02       		.uleb128 0x2
 5237 0209 18       		.uleb128 0x18
 5238 020a 00       		.byte	0
 5239 020b 00       		.byte	0
 5240 020c 26       		.uleb128 0x26
 5241 020d 2E       		.uleb128 0x2e
 5242 020e 00       		.byte	0
 5243 020f 3F       		.uleb128 0x3f
 5244 0210 19       		.uleb128 0x19
 5245 0211 03       		.uleb128 0x3
 5246 0212 0E       		.uleb128 0xe
 5247 0213 3A       		.uleb128 0x3a
 5248 0214 0B       		.uleb128 0xb
 5249 0215 3B       		.uleb128 0x3b
 5250 0216 05       		.uleb128 0x5
 5251 0217 27       		.uleb128 0x27
 5252 0218 19       		.uleb128 0x19
 5253 0219 11       		.uleb128 0x11
 5254 021a 01       		.uleb128 0x1
 5255 021b 12       		.uleb128 0x12
 5256 021c 06       		.uleb128 0x6
 5257 021d 40       		.uleb128 0x40
 5258 021e 18       		.uleb128 0x18
 5259 021f 9742     		.uleb128 0x2117
 5260 0221 19       		.uleb128 0x19
 5261 0222 00       		.byte	0
 5262 0223 00       		.byte	0
 5263 0224 27       		.uleb128 0x27
 5264 0225 2E       		.uleb128 0x2e
 5265 0226 01       		.byte	0x1
 5266 0227 3F       		.uleb128 0x3f
 5267 0228 19       		.uleb128 0x19
ARM GAS  C:\Users\Rolf\AppData\Local\Temp\ccTwK7ru.s 			page 120


 5268 0229 03       		.uleb128 0x3
 5269 022a 0E       		.uleb128 0xe
 5270 022b 3A       		.uleb128 0x3a
 5271 022c 0B       		.uleb128 0xb
 5272 022d 3B       		.uleb128 0x3b
 5273 022e 05       		.uleb128 0x5
 5274 022f 27       		.uleb128 0x27
 5275 0230 19       		.uleb128 0x19
 5276 0231 11       		.uleb128 0x11
 5277 0232 01       		.uleb128 0x1
 5278 0233 12       		.uleb128 0x12
 5279 0234 06       		.uleb128 0x6
 5280 0235 40       		.uleb128 0x40
 5281 0236 18       		.uleb128 0x18
 5282 0237 9742     		.uleb128 0x2117
 5283 0239 19       		.uleb128 0x19
 5284 023a 01       		.uleb128 0x1
 5285 023b 13       		.uleb128 0x13
 5286 023c 00       		.byte	0
 5287 023d 00       		.byte	0
 5288 023e 28       		.uleb128 0x28
 5289 023f 34       		.uleb128 0x34
 5290 0240 00       		.byte	0
 5291 0241 03       		.uleb128 0x3
 5292 0242 08       		.uleb128 0x8
 5293 0243 3A       		.uleb128 0x3a
 5294 0244 0B       		.uleb128 0xb
 5295 0245 3B       		.uleb128 0x3b
 5296 0246 05       		.uleb128 0x5
 5297 0247 49       		.uleb128 0x49
 5298 0248 13       		.uleb128 0x13
 5299 0249 02       		.uleb128 0x2
 5300 024a 18       		.uleb128 0x18
 5301 024b 00       		.byte	0
 5302 024c 00       		.byte	0
 5303 024d 29       		.uleb128 0x29
 5304 024e 1D       		.uleb128 0x1d
 5305 024f 01       		.byte	0x1
 5306 0250 31       		.uleb128 0x31
 5307 0251 13       		.uleb128 0x13
 5308 0252 11       		.uleb128 0x11
 5309 0253 01       		.uleb128 0x1
 5310 0254 12       		.uleb128 0x12
 5311 0255 06       		.uleb128 0x6
 5312 0256 58       		.uleb128 0x58
 5313 0257 0B       		.uleb128 0xb
 5314 0258 59       		.uleb128 0x59
 5315 0259 05       		.uleb128 0x5
 5316 025a 01       		.uleb128 0x1
 5317 025b 13       		.uleb128 0x13
 5318 025c 00       		.byte	0
 5319 025d 00       		.byte	0
 5320 025e 2A       		.uleb128 0x2a
 5321 025f 05       		.uleb128 0x5
 5322 0260 00       		.byte	0
 5323 0261 31       		.uleb128 0x31
 5324 0262 13       		.uleb128 0x13
ARM GAS  C:\Users\Rolf\AppData\Local\Temp\ccTwK7ru.s 			page 121


 5325 0263 02       		.uleb128 0x2
 5326 0264 17       		.uleb128 0x17
 5327 0265 00       		.byte	0
 5328 0266 00       		.byte	0
 5329 0267 2B       		.uleb128 0x2b
 5330 0268 05       		.uleb128 0x5
 5331 0269 00       		.byte	0
 5332 026a 31       		.uleb128 0x31
 5333 026b 13       		.uleb128 0x13
 5334 026c 00       		.byte	0
 5335 026d 00       		.byte	0
 5336 026e 2C       		.uleb128 0x2c
 5337 026f 2E       		.uleb128 0x2e
 5338 0270 01       		.byte	0x1
 5339 0271 3F       		.uleb128 0x3f
 5340 0272 19       		.uleb128 0x19
 5341 0273 03       		.uleb128 0x3
 5342 0274 0E       		.uleb128 0xe
 5343 0275 3A       		.uleb128 0x3a
 5344 0276 0B       		.uleb128 0xb
 5345 0277 3B       		.uleb128 0x3b
 5346 0278 05       		.uleb128 0x5
 5347 0279 27       		.uleb128 0x27
 5348 027a 19       		.uleb128 0x19
 5349 027b 49       		.uleb128 0x49
 5350 027c 13       		.uleb128 0x13
 5351 027d 11       		.uleb128 0x11
 5352 027e 01       		.uleb128 0x1
 5353 027f 12       		.uleb128 0x12
 5354 0280 06       		.uleb128 0x6
 5355 0281 40       		.uleb128 0x40
 5356 0282 18       		.uleb128 0x18
 5357 0283 9742     		.uleb128 0x2117
 5358 0285 19       		.uleb128 0x19
 5359 0286 01       		.uleb128 0x1
 5360 0287 13       		.uleb128 0x13
 5361 0288 00       		.byte	0
 5362 0289 00       		.byte	0
 5363 028a 2D       		.uleb128 0x2d
 5364 028b 34       		.uleb128 0x34
 5365 028c 00       		.byte	0
 5366 028d 03       		.uleb128 0x3
 5367 028e 0E       		.uleb128 0xe
 5368 028f 3A       		.uleb128 0x3a
 5369 0290 0B       		.uleb128 0xb
 5370 0291 3B       		.uleb128 0x3b
 5371 0292 05       		.uleb128 0x5
 5372 0293 49       		.uleb128 0x49
 5373 0294 13       		.uleb128 0x13
 5374 0295 02       		.uleb128 0x2
 5375 0296 18       		.uleb128 0x18
 5376 0297 00       		.byte	0
 5377 0298 00       		.byte	0
 5378 0299 2E       		.uleb128 0x2e
 5379 029a 05       		.uleb128 0x5
 5380 029b 00       		.byte	0
 5381 029c 03       		.uleb128 0x3
ARM GAS  C:\Users\Rolf\AppData\Local\Temp\ccTwK7ru.s 			page 122


 5382 029d 0E       		.uleb128 0xe
 5383 029e 3A       		.uleb128 0x3a
 5384 029f 0B       		.uleb128 0xb
 5385 02a0 3B       		.uleb128 0x3b
 5386 02a1 05       		.uleb128 0x5
 5387 02a2 49       		.uleb128 0x49
 5388 02a3 13       		.uleb128 0x13
 5389 02a4 02       		.uleb128 0x2
 5390 02a5 17       		.uleb128 0x17
 5391 02a6 00       		.byte	0
 5392 02a7 00       		.byte	0
 5393 02a8 2F       		.uleb128 0x2f
 5394 02a9 34       		.uleb128 0x34
 5395 02aa 00       		.byte	0
 5396 02ab 03       		.uleb128 0x3
 5397 02ac 0E       		.uleb128 0xe
 5398 02ad 3A       		.uleb128 0x3a
 5399 02ae 0B       		.uleb128 0xb
 5400 02af 3B       		.uleb128 0x3b
 5401 02b0 05       		.uleb128 0x5
 5402 02b1 49       		.uleb128 0x49
 5403 02b2 13       		.uleb128 0x13
 5404 02b3 02       		.uleb128 0x2
 5405 02b4 17       		.uleb128 0x17
 5406 02b5 00       		.byte	0
 5407 02b6 00       		.byte	0
 5408 02b7 30       		.uleb128 0x30
 5409 02b8 34       		.uleb128 0x34
 5410 02b9 00       		.byte	0
 5411 02ba 03       		.uleb128 0x3
 5412 02bb 0E       		.uleb128 0xe
 5413 02bc 3A       		.uleb128 0x3a
 5414 02bd 0B       		.uleb128 0xb
 5415 02be 3B       		.uleb128 0x3b
 5416 02bf 0B       		.uleb128 0xb
 5417 02c0 49       		.uleb128 0x49
 5418 02c1 13       		.uleb128 0x13
 5419 02c2 3F       		.uleb128 0x3f
 5420 02c3 19       		.uleb128 0x19
 5421 02c4 3C       		.uleb128 0x3c
 5422 02c5 19       		.uleb128 0x19
 5423 02c6 00       		.byte	0
 5424 02c7 00       		.byte	0
 5425 02c8 31       		.uleb128 0x31
 5426 02c9 34       		.uleb128 0x34
 5427 02ca 00       		.byte	0
 5428 02cb 03       		.uleb128 0x3
 5429 02cc 0E       		.uleb128 0xe
 5430 02cd 3A       		.uleb128 0x3a
 5431 02ce 0B       		.uleb128 0xb
 5432 02cf 3B       		.uleb128 0x3b
 5433 02d0 05       		.uleb128 0x5
 5434 02d1 49       		.uleb128 0x49
 5435 02d2 13       		.uleb128 0x13
 5436 02d3 3F       		.uleb128 0x3f
 5437 02d4 19       		.uleb128 0x19
 5438 02d5 3C       		.uleb128 0x3c
ARM GAS  C:\Users\Rolf\AppData\Local\Temp\ccTwK7ru.s 			page 123


 5439 02d6 19       		.uleb128 0x19
 5440 02d7 00       		.byte	0
 5441 02d8 00       		.byte	0
 5442 02d9 32       		.uleb128 0x32
 5443 02da 34       		.uleb128 0x34
 5444 02db 00       		.byte	0
 5445 02dc 03       		.uleb128 0x3
 5446 02dd 0E       		.uleb128 0xe
 5447 02de 3A       		.uleb128 0x3a
 5448 02df 0B       		.uleb128 0xb
 5449 02e0 3B       		.uleb128 0x3b
 5450 02e1 0B       		.uleb128 0xb
 5451 02e2 49       		.uleb128 0x49
 5452 02e3 13       		.uleb128 0x13
 5453 02e4 3F       		.uleb128 0x3f
 5454 02e5 19       		.uleb128 0x19
 5455 02e6 02       		.uleb128 0x2
 5456 02e7 18       		.uleb128 0x18
 5457 02e8 00       		.byte	0
 5458 02e9 00       		.byte	0
 5459 02ea 33       		.uleb128 0x33
 5460 02eb 2E       		.uleb128 0x2e
 5461 02ec 00       		.byte	0
 5462 02ed 3F       		.uleb128 0x3f
 5463 02ee 19       		.uleb128 0x19
 5464 02ef 3C       		.uleb128 0x3c
 5465 02f0 19       		.uleb128 0x19
 5466 02f1 6E       		.uleb128 0x6e
 5467 02f2 0E       		.uleb128 0xe
 5468 02f3 03       		.uleb128 0x3
 5469 02f4 0E       		.uleb128 0xe
 5470 02f5 3A       		.uleb128 0x3a
 5471 02f6 0B       		.uleb128 0xb
 5472 02f7 3B       		.uleb128 0x3b
 5473 02f8 05       		.uleb128 0x5
 5474 02f9 00       		.byte	0
 5475 02fa 00       		.byte	0
 5476 02fb 34       		.uleb128 0x34
 5477 02fc 2E       		.uleb128 0x2e
 5478 02fd 00       		.byte	0
 5479 02fe 3F       		.uleb128 0x3f
 5480 02ff 19       		.uleb128 0x19
 5481 0300 3C       		.uleb128 0x3c
 5482 0301 19       		.uleb128 0x19
 5483 0302 6E       		.uleb128 0x6e
 5484 0303 0E       		.uleb128 0xe
 5485 0304 03       		.uleb128 0x3
 5486 0305 0E       		.uleb128 0xe
 5487 0306 3A       		.uleb128 0x3a
 5488 0307 0B       		.uleb128 0xb
 5489 0308 3B       		.uleb128 0x3b
 5490 0309 0B       		.uleb128 0xb
 5491 030a 00       		.byte	0
 5492 030b 00       		.byte	0
 5493 030c 00       		.byte	0
 5494              		.section	.debug_loc,"",%progbits
 5495              	.Ldebug_loc0:
ARM GAS  C:\Users\Rolf\AppData\Local\Temp\ccTwK7ru.s 			page 124


 5496              	.LLST0:
 5497 0000 00000000 		.4byte	.LVL0
 5498 0004 06000000 		.4byte	.LVL1
 5499 0008 0100     		.2byte	0x1
 5500 000a 50       		.byte	0x50
 5501 000b 06000000 		.4byte	.LVL1
 5502 000f 26000000 		.4byte	.LVL5
 5503 0013 0100     		.2byte	0x1
 5504 0015 54       		.byte	0x54
 5505 0016 00000000 		.4byte	0
 5506 001a 00000000 		.4byte	0
 5507              	.LLST1:
 5508 001e 00000000 		.4byte	.LVL6
 5509 0022 08000000 		.4byte	.LVL7
 5510 0026 0100     		.2byte	0x1
 5511 0028 50       		.byte	0x50
 5512 0029 08000000 		.4byte	.LVL7
 5513 002d 14000000 		.4byte	.LFE65
 5514 0031 0400     		.2byte	0x4
 5515 0033 F3       		.byte	0xf3
 5516 0034 01       		.uleb128 0x1
 5517 0035 50       		.byte	0x50
 5518 0036 9F       		.byte	0x9f
 5519 0037 00000000 		.4byte	0
 5520 003b 00000000 		.4byte	0
 5521              	.LLST2:
 5522 003f 00000000 		.4byte	.LVL10
 5523 0043 0C000000 		.4byte	.LVL12
 5524 0047 0100     		.2byte	0x1
 5525 0049 50       		.byte	0x50
 5526 004a 0C000000 		.4byte	.LVL12
 5527 004e 0F000000 		.4byte	.LVL13-1
 5528 0052 0100     		.2byte	0x1
 5529 0054 51       		.byte	0x51
 5530 0055 0F000000 		.4byte	.LVL13-1
 5531 0059 1C000000 		.4byte	.LFE67
 5532 005d 0400     		.2byte	0x4
 5533 005f F3       		.byte	0xf3
 5534 0060 01       		.uleb128 0x1
 5535 0061 50       		.byte	0x50
 5536 0062 9F       		.byte	0x9f
 5537 0063 00000000 		.4byte	0
 5538 0067 00000000 		.4byte	0
 5539              	.LLST3:
 5540 006b 00000000 		.4byte	.LVL10
 5541 006f 0A000000 		.4byte	.LVL11
 5542 0073 0100     		.2byte	0x1
 5543 0075 51       		.byte	0x51
 5544 0076 0A000000 		.4byte	.LVL11
 5545 007a 1C000000 		.4byte	.LFE67
 5546 007e 0100     		.2byte	0x1
 5547 0080 55       		.byte	0x55
 5548 0081 00000000 		.4byte	0
 5549 0085 00000000 		.4byte	0
 5550              	.LLST4:
 5551 0089 02000000 		.4byte	.LVL17
 5552 008d 1E000000 		.4byte	.LVL19
ARM GAS  C:\Users\Rolf\AppData\Local\Temp\ccTwK7ru.s 			page 125


 5553 0091 0200     		.2byte	0x2
 5554 0093 30       		.byte	0x30
 5555 0094 9F       		.byte	0x9f
 5556 0095 00000000 		.4byte	0
 5557 0099 00000000 		.4byte	0
 5558              	.LLST5:
 5559 009d 1E000000 		.4byte	.LVL19
 5560 00a1 26000000 		.4byte	.LVL20
 5561 00a5 0600     		.2byte	0x6
 5562 00a7 03       		.byte	0x3
 5563 00a8 00000000 		.4byte	msg.10725
 5564 00ac 9F       		.byte	0x9f
 5565 00ad 00000000 		.4byte	0
 5566 00b1 00000000 		.4byte	0
 5567              	.LLST6:
 5568 00b5 1E000000 		.4byte	.LVL19
 5569 00b9 26000000 		.4byte	.LVL20
 5570 00bd 0200     		.2byte	0x2
 5571 00bf 31       		.byte	0x31
 5572 00c0 9F       		.byte	0x9f
 5573 00c1 00000000 		.4byte	0
 5574 00c5 00000000 		.4byte	0
 5575              	.LLST7:
 5576 00c9 34000000 		.4byte	.LVL21
 5577 00cd 50000000 		.4byte	.LVL23
 5578 00d1 0200     		.2byte	0x2
 5579 00d3 30       		.byte	0x30
 5580 00d4 9F       		.byte	0x9f
 5581 00d5 00000000 		.4byte	0
 5582 00d9 00000000 		.4byte	0
 5583              	.LLST8:
 5584 00dd 00000000 		.4byte	.LVL26
 5585 00e1 27000000 		.4byte	.LVL27-1
 5586 00e5 0100     		.2byte	0x1
 5587 00e7 50       		.byte	0x50
 5588 00e8 27000000 		.4byte	.LVL27-1
 5589 00ec 30000000 		.4byte	.LFE74
 5590 00f0 0400     		.2byte	0x4
 5591 00f2 F3       		.byte	0xf3
 5592 00f3 01       		.uleb128 0x1
 5593 00f4 50       		.byte	0x50
 5594 00f5 9F       		.byte	0x9f
 5595 00f6 00000000 		.4byte	0
 5596 00fa 00000000 		.4byte	0
 5597              	.LLST9:
 5598 00fe 00000000 		.4byte	.LVL28
 5599 0102 74000000 		.4byte	.LVL33
 5600 0106 0100     		.2byte	0x1
 5601 0108 50       		.byte	0x50
 5602 0109 74000000 		.4byte	.LVL33
 5603 010d 76000000 		.4byte	.LVL34
 5604 0111 0400     		.2byte	0x4
 5605 0113 F3       		.byte	0xf3
 5606 0114 01       		.uleb128 0x1
 5607 0115 50       		.byte	0x50
 5608 0116 9F       		.byte	0x9f
 5609 0117 76000000 		.4byte	.LVL34
ARM GAS  C:\Users\Rolf\AppData\Local\Temp\ccTwK7ru.s 			page 126


 5610 011b A4000000 		.4byte	.LVL35
 5611 011f 0100     		.2byte	0x1
 5612 0121 50       		.byte	0x50
 5613 0122 A4000000 		.4byte	.LVL35
 5614 0126 A6000000 		.4byte	.LVL36
 5615 012a 0400     		.2byte	0x4
 5616 012c F3       		.byte	0xf3
 5617 012d 01       		.uleb128 0x1
 5618 012e 50       		.byte	0x50
 5619 012f 9F       		.byte	0x9f
 5620 0130 A6000000 		.4byte	.LVL36
 5621 0134 A8000000 		.4byte	.LVL37
 5622 0138 0100     		.2byte	0x1
 5623 013a 50       		.byte	0x50
 5624 013b A8000000 		.4byte	.LVL37
 5625 013f AA000000 		.4byte	.LVL38
 5626 0143 0400     		.2byte	0x4
 5627 0145 F3       		.byte	0xf3
 5628 0146 01       		.uleb128 0x1
 5629 0147 50       		.byte	0x50
 5630 0148 9F       		.byte	0x9f
 5631 0149 AA000000 		.4byte	.LVL38
 5632 014d AC000000 		.4byte	.LVL39
 5633 0151 0100     		.2byte	0x1
 5634 0153 50       		.byte	0x50
 5635 0154 AC000000 		.4byte	.LVL39
 5636 0158 AE000000 		.4byte	.LVL40
 5637 015c 0400     		.2byte	0x4
 5638 015e F3       		.byte	0xf3
 5639 015f 01       		.uleb128 0x1
 5640 0160 50       		.byte	0x50
 5641 0161 9F       		.byte	0x9f
 5642 0162 AE000000 		.4byte	.LVL40
 5643 0166 B0000000 		.4byte	.LVL41
 5644 016a 0100     		.2byte	0x1
 5645 016c 50       		.byte	0x50
 5646 016d B0000000 		.4byte	.LVL41
 5647 0171 B2000000 		.4byte	.LVL42
 5648 0175 0400     		.2byte	0x4
 5649 0177 F3       		.byte	0xf3
 5650 0178 01       		.uleb128 0x1
 5651 0179 50       		.byte	0x50
 5652 017a 9F       		.byte	0x9f
 5653 017b B2000000 		.4byte	.LVL42
 5654 017f B4000000 		.4byte	.LVL43
 5655 0183 0100     		.2byte	0x1
 5656 0185 50       		.byte	0x50
 5657 0186 B4000000 		.4byte	.LVL43
 5658 018a B6000000 		.4byte	.LVL44
 5659 018e 0400     		.2byte	0x4
 5660 0190 F3       		.byte	0xf3
 5661 0191 01       		.uleb128 0x1
 5662 0192 50       		.byte	0x50
 5663 0193 9F       		.byte	0x9f
 5664 0194 B6000000 		.4byte	.LVL44
 5665 0198 B8000000 		.4byte	.LVL45
 5666 019c 0100     		.2byte	0x1
ARM GAS  C:\Users\Rolf\AppData\Local\Temp\ccTwK7ru.s 			page 127


 5667 019e 50       		.byte	0x50
 5668 019f B8000000 		.4byte	.LVL45
 5669 01a3 BA000000 		.4byte	.LVL46
 5670 01a7 0400     		.2byte	0x4
 5671 01a9 F3       		.byte	0xf3
 5672 01aa 01       		.uleb128 0x1
 5673 01ab 50       		.byte	0x50
 5674 01ac 9F       		.byte	0x9f
 5675 01ad BA000000 		.4byte	.LVL46
 5676 01b1 BC000000 		.4byte	.LVL47
 5677 01b5 0100     		.2byte	0x1
 5678 01b7 50       		.byte	0x50
 5679 01b8 BC000000 		.4byte	.LVL47
 5680 01bc BE000000 		.4byte	.LVL48
 5681 01c0 0400     		.2byte	0x4
 5682 01c2 F3       		.byte	0xf3
 5683 01c3 01       		.uleb128 0x1
 5684 01c4 50       		.byte	0x50
 5685 01c5 9F       		.byte	0x9f
 5686 01c6 BE000000 		.4byte	.LVL48
 5687 01ca C0000000 		.4byte	.LVL49
 5688 01ce 0100     		.2byte	0x1
 5689 01d0 50       		.byte	0x50
 5690 01d1 C0000000 		.4byte	.LVL49
 5691 01d5 E0000000 		.4byte	.LFE76
 5692 01d9 0400     		.2byte	0x4
 5693 01db F3       		.byte	0xf3
 5694 01dc 01       		.uleb128 0x1
 5695 01dd 50       		.byte	0x50
 5696 01de 9F       		.byte	0x9f
 5697 01df 00000000 		.4byte	0
 5698 01e3 00000000 		.4byte	0
 5699              	.LLST10:
 5700 01e7 00000000 		.4byte	.LVL28
 5701 01eb CA000000 		.4byte	.LVL50
 5702 01ef 0100     		.2byte	0x1
 5703 01f1 51       		.byte	0x51
 5704 01f2 CA000000 		.4byte	.LVL50
 5705 01f6 E0000000 		.4byte	.LFE76
 5706 01fa 0400     		.2byte	0x4
 5707 01fc F3       		.byte	0xf3
 5708 01fd 01       		.uleb128 0x1
 5709 01fe 51       		.byte	0x51
 5710 01ff 9F       		.byte	0x9f
 5711 0200 00000000 		.4byte	0
 5712 0204 00000000 		.4byte	0
 5713              	.LLST11:
 5714 0208 16000000 		.4byte	.LVL31
 5715 020c 2A000000 		.4byte	.LVL32
 5716 0210 0100     		.2byte	0x1
 5717 0212 53       		.byte	0x53
 5718 0213 C0000000 		.4byte	.LVL49
 5719 0217 E0000000 		.4byte	.LFE76
 5720 021b 0100     		.2byte	0x1
 5721 021d 50       		.byte	0x50
 5722 021e 00000000 		.4byte	0
 5723 0222 00000000 		.4byte	0
ARM GAS  C:\Users\Rolf\AppData\Local\Temp\ccTwK7ru.s 			page 128


 5724              	.LLST12:
 5725 0226 10000000 		.4byte	.LVL29
 5726 022a 14000000 		.4byte	.LVL30
 5727 022e 0100     		.2byte	0x1
 5728 0230 53       		.byte	0x53
 5729 0231 00000000 		.4byte	0
 5730 0235 00000000 		.4byte	0
 5731              		.section	.debug_aranges,"",%progbits
 5732 0000 7C000000 		.4byte	0x7c
 5733 0004 0200     		.2byte	0x2
 5734 0006 00000000 		.4byte	.Ldebug_info0
 5735 000a 04       		.byte	0x4
 5736 000b 00       		.byte	0
 5737 000c 0000     		.2byte	0
 5738 000e 0000     		.2byte	0
 5739 0010 00000000 		.4byte	.LFB64
 5740 0014 34000000 		.4byte	.LFE64-.LFB64
 5741 0018 00000000 		.4byte	.LFB65
 5742 001c 14000000 		.4byte	.LFE65-.LFB65
 5743 0020 00000000 		.4byte	.LFB66
 5744 0024 04000000 		.4byte	.LFE66-.LFB66
 5745 0028 00000000 		.4byte	.LFB67
 5746 002c 1C000000 		.4byte	.LFE67-.LFB67
 5747 0030 00000000 		.4byte	.LFB68
 5748 0034 10000000 		.4byte	.LFE68-.LFB68
 5749 0038 00000000 		.4byte	.LFB69
 5750 003c 20000000 		.4byte	.LFE69-.LFB69
 5751 0040 00000000 		.4byte	.LFB70
 5752 0044 1C000000 		.4byte	.LFE70-.LFB70
 5753 0048 00000000 		.4byte	.LFB71
 5754 004c 30000000 		.4byte	.LFE71-.LFB71
 5755 0050 00000000 		.4byte	.LFB72
 5756 0054 70000000 		.4byte	.LFE72-.LFB72
 5757 0058 00000000 		.4byte	.LFB73
 5758 005c 6C000000 		.4byte	.LFE73-.LFB73
 5759 0060 00000000 		.4byte	.LFB75
 5760 0064 02000000 		.4byte	.LFE75-.LFB75
 5761 0068 00000000 		.4byte	.LFB74
 5762 006c 30000000 		.4byte	.LFE74-.LFB74
 5763 0070 00000000 		.4byte	.LFB76
 5764 0074 E0000000 		.4byte	.LFE76-.LFB76
 5765 0078 00000000 		.4byte	0
 5766 007c 00000000 		.4byte	0
 5767              		.section	.debug_ranges,"",%progbits
 5768              	.Ldebug_ranges0:
 5769 0000 00000000 		.4byte	.LFB64
 5770 0004 34000000 		.4byte	.LFE64
 5771 0008 00000000 		.4byte	.LFB65
 5772 000c 14000000 		.4byte	.LFE65
 5773 0010 00000000 		.4byte	.LFB66
 5774 0014 04000000 		.4byte	.LFE66
 5775 0018 00000000 		.4byte	.LFB67
 5776 001c 1C000000 		.4byte	.LFE67
 5777 0020 00000000 		.4byte	.LFB68
 5778 0024 10000000 		.4byte	.LFE68
 5779 0028 00000000 		.4byte	.LFB69
 5780 002c 20000000 		.4byte	.LFE69
ARM GAS  C:\Users\Rolf\AppData\Local\Temp\ccTwK7ru.s 			page 129


 5781 0030 00000000 		.4byte	.LFB70
 5782 0034 1C000000 		.4byte	.LFE70
 5783 0038 00000000 		.4byte	.LFB71
 5784 003c 30000000 		.4byte	.LFE71
 5785 0040 00000000 		.4byte	.LFB72
 5786 0044 70000000 		.4byte	.LFE72
 5787 0048 00000000 		.4byte	.LFB73
 5788 004c 6C000000 		.4byte	.LFE73
 5789 0050 00000000 		.4byte	.LFB75
 5790 0054 02000000 		.4byte	.LFE75
 5791 0058 00000000 		.4byte	.LFB74
 5792 005c 30000000 		.4byte	.LFE74
 5793 0060 00000000 		.4byte	.LFB76
 5794 0064 E0000000 		.4byte	.LFE76
 5795 0068 00000000 		.4byte	0
 5796 006c 00000000 		.4byte	0
 5797              		.section	.debug_line,"",%progbits
 5798              	.Ldebug_line0:
 5799 0000 C0040000 		.section	.debug_str,"MS",%progbits,1
 5799      02004703 
 5799      00000201 
 5799      FB0E0D00 
 5799      01010101 
 5800              	.LASF383:
 5801 0000 4241434B 		.ascii	"BACKUP_Type\000"
 5801      55505F54 
 5801      79706500 
 5802              	.LASF46:
 5803 000c 52455345 		.ascii	"RESERVED\000"
 5803      52564544 
 5803      00
 5804              	.LASF286:
 5805 0015 4241434B 		.ascii	"BACKUP_V1_Type\000"
 5805      55505F56 
 5805      315F5479 
 5805      706500
 5806              	.LASF382:
 5807 0024 53525353 		.ascii	"SRSS_Type\000"
 5807      5F547970 
 5807      6500
 5808              	.LASF199:
 5809 002e 52544F43 		.ascii	"RTOC2_FIRST_USER_APP_ADDR\000"
 5809      325F4649 
 5809      5253545F 
 5809      55534552 
 5809      5F415050 
 5810              	.LASF378:
 5811 0048 6970634C 		.ascii	"ipcLockStatusOffset\000"
 5811      6F636B53 
 5811      74617475 
 5811      734F6666 
 5811      73657400 
 5812              	.LASF114:
 5813 005c 43505553 		.ascii	"CPUSS_WOUNDING\000"
 5813      535F574F 
 5813      554E4449 
 5813      4E4700
ARM GAS  C:\Users\Rolf\AppData\Local\Temp\ccTwK7ru.s 			page 130


 5814              	.LASF179:
 5815 006b 52544F43 		.ascii	"RTOC1_OBJECT_ADDR_UNUSED\000"
 5815      315F4F42 
 5815      4A454354 
 5815      5F414444 
 5815      525F554E 
 5816              	.LASF431:
 5817 0084 63795F64 		.ascii	"cy_device\000"
 5817      65766963 
 5817      6500
 5818              	.LASF397:
 5819 008e 63795F65 		.ascii	"cy_en_ipcdrv_status_t\000"
 5819      6E5F6970 
 5819      63647276 
 5819      5F737461 
 5819      7475735F 
 5820              	.LASF390:
 5821 00a4 63795F73 		.ascii	"cy_stc_fault_frame_t\000"
 5821      74635F66 
 5821      61756C74 
 5821      5F667261 
 5821      6D655F74 
 5822              	.LASF165:
 5823 00b9 544F4331 		.ascii	"TOC1_FHASH_OBJECTS\000"
 5823      5F464841 
 5823      53485F4F 
 5823      424A4543 
 5823      545300
 5824              	.LASF406:
 5825 00cc 6D696C6C 		.ascii	"milliseconds\000"
 5825      69736563 
 5825      6F6E6473 
 5825      00
 5826              	.LASF172:
 5827 00d9 52544F43 		.ascii	"RTOC1_OBJECT_SIZE\000"
 5827      315F4F42 
 5827      4A454354 
 5827      5F53495A 
 5827      4500
 5828              	.LASF136:
 5829 00eb 5354414E 		.ascii	"STANDARD_SMPU_STRUCT_SLAVE_ATTR\000"
 5829      44415244 
 5829      5F534D50 
 5829      555F5354 
 5829      52554354 
 5830              	.LASF363:
 5831 010b 63707573 		.ascii	"cpussCm0ClockCtlOffset\000"
 5831      73436D30 
 5831      436C6F63 
 5831      6B43746C 
 5831      4F666673 
 5832              	.LASF198:
 5833 0122 52544F43 		.ascii	"RTOC2_SMIF_CFG_STRUCT_ADDR\000"
 5833      325F534D 
 5833      49465F43 
 5833      46475F53 
 5833      54525543 
ARM GAS  C:\Users\Rolf\AppData\Local\Temp\ccTwK7ru.s 			page 131


 5834              	.LASF186:
 5835 013d 544F4332 		.ascii	"TOC2_FIRST_USER_APP_FORMAT\000"
 5835      5F464952 
 5835      53545F55 
 5835      5345525F 
 5835      4150505F 
 5836              	.LASF296:
 5837 0158 75646242 		.ascii	"udbBase\000"
 5837      61736500 
 5838              	.LASF153:
 5839 0160 43505553 		.ascii	"CPUSS_TRIM_RAM_CTL_HALF_LP\000"
 5839      535F5452 
 5839      494D5F52 
 5839      414D5F43 
 5839      544C5F48 
 5840              	.LASF90:
 5841 017b 4457305F 		.ascii	"DW0_BUFF_CTL\000"
 5841      42554646 
 5841      5F43544C 
 5841      00
 5842              	.LASF295:
 5843 0188 70657269 		.ascii	"periBase\000"
 5843      42617365 
 5843      00
 5844              	.LASF220:
 5845 0191 4D435744 		.ascii	"MCWDT_STRUCT_V1_Type\000"
 5845      545F5354 
 5845      52554354 
 5845      5F56315F 
 5845      54797065 
 5846              	.LASF412:
 5847 01a6 43795F53 		.ascii	"Cy_SysLib_Halt\000"
 5847      79734C69 
 5847      625F4861 
 5847      6C7400
 5848              	.LASF418:
 5849 01b5 43795F53 		.ascii	"Cy_SysLib_SoftResetCM4\000"
 5849      79734C69 
 5849      625F536F 
 5849      66745265 
 5849      73657443 
 5850              	.LASF294:
 5851 01cc 666C6173 		.ascii	"flashcBase\000"
 5851      68634261 
 5851      736500
 5852              	.LASF133:
 5853 01d7 44455649 		.ascii	"DEVICE_UID\000"
 5853      43455F55 
 5853      494400
 5854              	.LASF371:
 5855 01e2 63707573 		.ascii	"cpussCm0NmiCtlOffset\000"
 5855      73436D30 
 5855      4E6D6943 
 5855      746C4F66 
 5855      66736574 
 5856              	.LASF117:
 5857 01f7 4449455F 		.ascii	"DIE_X\000"
ARM GAS  C:\Users\Rolf\AppData\Local\Temp\ccTwK7ru.s 			page 132


 5857      5800
 5858              	.LASF118:
 5859 01fd 4449455F 		.ascii	"DIE_Y\000"
 5859      5900
 5860              	.LASF250:
 5861 0203 434C4B5F 		.ascii	"CLK_FLL_STATUS\000"
 5861      464C4C5F 
 5861      53544154 
 5861      555300
 5862              	.LASF58:
 5863 0212 464C4153 		.ascii	"FLASH_CTL\000"
 5863      485F4354 
 5863      4C00
 5864              	.LASF385:
 5865 021c 43595F53 		.ascii	"CY_SYSLIB_BAD_PARAM\000"
 5865      59534C49 
 5865      425F4241 
 5865      445F5041 
 5865      52414D00 
 5866              	.LASF13:
 5867 0230 756E7369 		.ascii	"unsigned int\000"
 5867      676E6564 
 5867      20696E74 
 5867      00
 5868              	.LASF226:
 5869 023d 5057525F 		.ascii	"PWR_LVD_STATUS\000"
 5869      4C56445F 
 5869      53544154 
 5869      555300
 5870              	.LASF259:
 5871 024c 5245535F 		.ascii	"RES_CAUSE2\000"
 5871      43415553 
 5871      453200
 5872              	.LASF195:
 5873 0257 52544F43 		.ascii	"RTOC2_OBJECT_SIZE\000"
 5873      325F4F42 
 5873      4A454354 
 5873      5F53495A 
 5873      4500
 5874              	.LASF127:
 5875 0269 4C444F5F 		.ascii	"LDO_0P9V_TRIM\000"
 5875      30503956 
 5875      5F545249 
 5875      4D00
 5876              	.LASF323:
 5877 0277 736D6966 		.ascii	"smifDeviceNr\000"
 5877      44657669 
 5877      63654E72 
 5877      00
 5878              	.LASF353:
 5879 0284 70657269 		.ascii	"periDivCmdPaTypeSelPos\000"
 5879      44697643 
 5879      6D645061 
 5879      54797065 
 5879      53656C50 
 5880              	.LASF416:
 5881 029b 43795F49 		.ascii	"Cy_IPC_Drv_GetIpcBaseAddress\000"
ARM GAS  C:\Users\Rolf\AppData\Local\Temp\ccTwK7ru.s 			page 133


 5881      50435F44 
 5881      72765F47 
 5881      65744970 
 5881      63426173 
 5882              	.LASF255:
 5883 02b8 53525353 		.ascii	"SRSS_INTR_MASK\000"
 5883      5F494E54 
 5883      525F4D41 
 5883      534B00
 5884              	.LASF395:
 5885 02c7 43595F49 		.ascii	"CY_IPC_DRV_SUCCESS\000"
 5885      50435F44 
 5885      52565F53 
 5885      55434345 
 5885      535300
 5886              	.LASF23:
 5887 02da 464D5F41 		.ascii	"FM_ADDR\000"
 5887      44445200 
 5888              	.LASF71:
 5889 02e2 434D305F 		.ascii	"CM0_CA_CTL2\000"
 5889      43415F43 
 5889      544C3200 
 5890              	.LASF182:
 5891 02ee 544F4332 		.ascii	"TOC2_MAGIC_NUMBER\000"
 5891      5F4D4147 
 5891      49435F4E 
 5891      554D4245 
 5891      5200
 5892              	.LASF442:
 5893 0300 47656E65 		.ascii	"Generated_Source\\PSoC6\\pdl\\drivers\\peripheral\\"
 5893      72617465 
 5893      645F536F 
 5893      75726365 
 5893      5C50536F 
 5894 032e 7379736C 		.ascii	"syslib\\cy_syslib.c\000"
 5894      69625C63 
 5894      795F7379 
 5894      736C6962 
 5894      2E6300
 5895              	.LASF237:
 5896 0341 434C4B5F 		.ascii	"CLK_ILO_CONFIG\000"
 5896      494C4F5F 
 5896      434F4E46 
 5896      494700
 5897              	.LASF293:
 5898 0350 63707573 		.ascii	"cpussBase\000"
 5898      73426173 
 5898      6500
 5899              	.LASF238:
 5900 035a 434C4B5F 		.ascii	"CLK_IMO_CONFIG\000"
 5900      494D4F5F 
 5900      434F4E46 
 5900      494700
 5901              	.LASF202:
 5902 0369 52544F43 		.ascii	"RTOC2_SECOND_USER_APP_FORMAT\000"
 5902      325F5345 
 5902      434F4E44 
ARM GAS  C:\Users\Rolf\AppData\Local\Temp\ccTwK7ru.s 			page 134


 5902      5F555345 
 5902      525F4150 
 5903              	.LASF401:
 5904 0386 43795F49 		.ascii	"Cy_IPC_Drv_SendMsgPtr\000"
 5904      50435F44 
 5904      72765F53 
 5904      656E644D 
 5904      73675074 
 5905              	.LASF243:
 5906 039c 434C4B5F 		.ascii	"CLK_ECO_CONFIG\000"
 5906      45434F5F 
 5906      434F4E46 
 5906      494700
 5907              	.LASF420:
 5908 03ab 43795F53 		.ascii	"Cy_SysLib_GetUniqueId\000"
 5908      79734C69 
 5908      625F4765 
 5908      74556E69 
 5908      71756549 
 5909              	.LASF317:
 5910 03c1 63707573 		.ascii	"cpussFmIrq\000"
 5910      73466D49 
 5910      727100
 5911              	.LASF240:
 5912 03cc 434C4B5F 		.ascii	"CLK_OUTPUT_SLOW\000"
 5912      4F555450 
 5912      55545F53 
 5912      4C4F5700 
 5913              	.LASF72:
 5914 03dc 434D305F 		.ascii	"CM0_CA_CMD\000"
 5914      43415F43 
 5914      4D4400
 5915              	.LASF318:
 5916 03e7 63707573 		.ascii	"cpussNotConnectedIrq\000"
 5916      734E6F74 
 5916      436F6E6E 
 5916      65637465 
 5916      64497271 
 5917              	.LASF157:
 5918 03fc 464C4153 		.ascii	"FLASH_BOOT_N_CORES\000"
 5918      485F424F 
 5918      4F545F4E 
 5918      5F434F52 
 5918      455300
 5919              	.LASF403:
 5920 040f 5F426F6F 		.ascii	"_Bool\000"
 5920      6C00
 5921              	.LASF417:
 5922 0415 69706349 		.ascii	"ipcIndex\000"
 5922      6E646578 
 5922      00
 5923              	.LASF235:
 5924 041e 434C4B5F 		.ascii	"CLK_SELECT\000"
 5924      53454C45 
 5924      435400
 5925              	.LASF207:
 5926 0429 52544F43 		.ascii	"RTOC2_FLAGS\000"
ARM GAS  C:\Users\Rolf\AppData\Local\Temp\ccTwK7ru.s 			page 135


 5926      325F464C 
 5926      41475300 
 5927              	.LASF196:
 5928 0435 52544F43 		.ascii	"RTOC2_MAGIC_NUMBER\000"
 5928      325F4D41 
 5928      4749435F 
 5928      4E554D42 
 5928      455200
 5929              	.LASF37:
 5930 0448 494E5452 		.ascii	"INTR_SET\000"
 5930      5F534554 
 5930      00
 5931              	.LASF329:
 5932 0451 63727970 		.ascii	"cryptoMemSize\000"
 5932      746F4D65 
 5932      6D53697A 
 5932      6500
 5933              	.LASF204:
 5934 045f 52544F43 		.ascii	"RTOC2_SIGNATURE_VERIF_KEY\000"
 5934      325F5349 
 5934      474E4154 
 5934      5552455F 
 5934      56455249 
 5935              	.LASF375:
 5936 0479 63707573 		.ascii	"cpussRam1Ctl0\000"
 5936      7352616D 
 5936      3143746C 
 5936      3000
 5937              	.LASF34:
 5938 0487 48565F43 		.ascii	"HV_CTL\000"
 5938      544C00
 5939              	.LASF25:
 5940 048e 47454F4D 		.ascii	"GEOMETRY_SUPERVISORY\000"
 5940      45545259 
 5940      5F535550 
 5940      45525649 
 5940      534F5259 
 5941              	.LASF377:
 5942 04a3 69706353 		.ascii	"ipcStructSize\000"
 5942      74727563 
 5942      7453697A 
 5942      6500
 5943              	.LASF261:
 5944 04b1 5057525F 		.ascii	"PWR_TRIM_BODOVP_CTL\000"
 5944      5452494D 
 5944      5F424F44 
 5944      4F56505F 
 5944      43544C00 
 5945              	.LASF137:
 5946 04c5 5354414E 		.ascii	"STANDARD_SMPU_STRUCT_MASTER_ATTR\000"
 5946      44415244 
 5946      5F534D50 
 5946      555F5354 
 5946      52554354 
 5947              	.LASF209:
 5948 04e6 53464C41 		.ascii	"SFLASH_V1_Type\000"
 5948      53485F56 
ARM GAS  C:\Users\Rolf\AppData\Local\Temp\ccTwK7ru.s 			page 136


 5948      315F5479 
 5948      706500
 5949              	.LASF349:
 5950 04f5 70657269 		.ascii	"periTrGrSize\000"
 5950      54724772 
 5950      53697A65 
 5950      00
 5951              	.LASF290:
 5952 0502 44415441 		.ascii	"DATA\000"
 5952      00
 5953              	.LASF311:
 5954 0507 70726F74 		.ascii	"protVersion\000"
 5954      56657273 
 5954      696F6E00 
 5955              	.LASF55:
 5956 0513 464D5F48 		.ascii	"FM_HV_DATA\000"
 5956      565F4441 
 5956      544100
 5957              	.LASF257:
 5958 051e 53525353 		.ascii	"SRSS_INTR_CFG\000"
 5958      5F494E54 
 5958      525F4346 
 5958      4700
 5959              	.LASF51:
 5960 052c 5245445F 		.ascii	"RED_CTL_SM01\000"
 5960      43544C5F 
 5960      534D3031 
 5960      00
 5961              	.LASF351:
 5962 0539 70657269 		.ascii	"periDivCmdTypeSelPos\000"
 5962      44697643 
 5962      6D645479 
 5962      70655365 
 5962      6C506F73 
 5963              	.LASF151:
 5964 054e 43505553 		.ascii	"CPUSS_TRIM_RAM_CTL_HALF_ULP\000"
 5964      535F5452 
 5964      494D5F52 
 5964      414D5F43 
 5964      544C5F48 
 5965              	.LASF368:
 5966 056a 63707573 		.ascii	"cpussTrimRamCtlOffset\000"
 5966      73547269 
 5966      6D52616D 
 5966      43746C4F 
 5966      66667365 
 5967              	.LASF164:
 5968 0580 544F4331 		.ascii	"TOC1_MAGIC_NUMBER\000"
 5968      5F4D4147 
 5968      49435F4E 
 5968      554D4245 
 5968      5200
 5969              	.LASF31:
 5970 0592 57414954 		.ascii	"WAIT_CTL\000"
 5970      5F43544C 
 5970      00
 5971              	.LASF111:
ARM GAS  C:\Users\Rolf\AppData\Local\Temp\ccTwK7ru.s 			page 137


 5972 059b 53495F52 		.ascii	"SI_REVISION_ID\000"
 5972      45564953 
 5972      494F4E5F 
 5972      494400
 5973              	.LASF82:
 5974 05aa 434D345F 		.ascii	"CM4_CA_STATUS0\000"
 5974      43415F53 
 5974      54415455 
 5974      533000
 5975              	.LASF83:
 5976 05b9 434D345F 		.ascii	"CM4_CA_STATUS1\000"
 5976      43415F53 
 5976      54415455 
 5976      533100
 5977              	.LASF221:
 5978 05c8 5057525F 		.ascii	"PWR_CTL\000"
 5978      43544C00 
 5979              	.LASF29:
 5980 05d0 47454F4D 		.ascii	"GEOMETRY_GEN\000"
 5980      45545259 
 5980      5F47454E 
 5980      00
 5981              	.LASF144:
 5982 05dd 5057525F 		.ascii	"PWR_TRIM_WAKE_CTL\000"
 5982      5452494D 
 5982      5F57414B 
 5982      455F4354 
 5982      4C00
 5983              	.LASF227:
 5984 05ef 5057525F 		.ascii	"PWR_HIB_DATA\000"
 5984      4849425F 
 5984      44415441 
 5984      00
 5985              	.LASF211:
 5986 05fc 4D435744 		.ascii	"MCWDT_CNTHIGH\000"
 5986      545F434E 
 5986      54484947 
 5986      4800
 5987              	.LASF438:
 5988 060a 43795F53 		.ascii	"Cy_SysLib_DelayCycles\000"
 5988      79734C69 
 5988      625F4465 
 5988      6C617943 
 5988      79636C65 
 5989              	.LASF289:
 5990 0620 4E4F5449 		.ascii	"NOTIFY\000"
 5990      465900
 5991              	.LASF84:
 5992 0627 434D345F 		.ascii	"CM4_CA_STATUS2\000"
 5992      43415F53 
 5992      54415455 
 5992      533200
 5993              	.LASF17:
 5994 0636 75696E74 		.ascii	"uint32_t\000"
 5994      33325F74 
 5994      00
 5995              	.LASF427:
ARM GAS  C:\Users\Rolf\AppData\Local\Temp\ccTwK7ru.s 			page 138


 5996 063f 756C704D 		.ascii	"ulpMode\000"
 5996      6F646500 
 5997              	.LASF208:
 5998 0647 52544F43 		.ascii	"RTOC2_CRC_ADDR\000"
 5998      325F4352 
 5998      435F4144 
 5998      445200
 5999              	.LASF119:
 6000 0656 4449455F 		.ascii	"DIE_SORT\000"
 6000      534F5254 
 6000      00
 6001              	.LASF167:
 6002 065f 544F4331 		.ascii	"TOC1_UNIQUE_ID_ADDR\000"
 6002      5F554E49 
 6002      5155455F 
 6002      49445F41 
 6002      44445200 
 6003              	.LASF187:
 6004 0673 544F4332 		.ascii	"TOC2_SECOND_USER_APP_ADDR\000"
 6004      5F534543 
 6004      4F4E445F 
 6004      55534552 
 6004      5F415050 
 6005              	.LASF361:
 6006 068d 6770696F 		.ascii	"gpioPrtCfgOutOffset\000"
 6006      50727443 
 6006      66674F75 
 6006      744F6666 
 6006      73657400 
 6007              	.LASF36:
 6008 06a1 494E5452 		.ascii	"INTR\000"
 6008      00
 6009              	.LASF265:
 6010 06a6 434C4B5F 		.ascii	"CLK_TRIM_ILO_CTL\000"
 6010      5452494D 
 6010      5F494C4F 
 6010      5F43544C 
 6010      00
 6011              	.LASF218:
 6012 06b7 4D435744 		.ascii	"MCWDT_INTR_MASKED\000"
 6012      545F494E 
 6012      54525F4D 
 6012      41534B45 
 6012      4400
 6013              	.LASF393:
 6014 06c9 666C6F61 		.ascii	"float\000"
 6014      7400
 6015              	.LASF386:
 6016 06cf 43595F53 		.ascii	"CY_SYSLIB_TIMEOUT\000"
 6016      59534C49 
 6016      425F5449 
 6016      4D454F55 
 6016      5400
 6017              	.LASF304:
 6018 06e1 63727970 		.ascii	"cryptoVersion\000"
 6018      746F5665 
 6018      7273696F 
ARM GAS  C:\Users\Rolf\AppData\Local\Temp\ccTwK7ru.s 			page 139


 6018      6E00
 6019              	.LASF333:
 6020 06ef 666C6173 		.ascii	"flashProgramDelay\000"
 6020      6850726F 
 6020      6772616D 
 6020      44656C61 
 6020      7900
 6021              	.LASF398:
 6022 0701 62617365 		.ascii	"base\000"
 6022      00
 6023              	.LASF404:
 6024 0706 43795F53 		.ascii	"Cy_SysLib_Delay\000"
 6024      79734C69 
 6024      625F4465 
 6024      6C617900 
 6025              	.LASF192:
 6026 0716 544F4332 		.ascii	"TOC2_REVISION\000"
 6026      5F524556 
 6026      4953494F 
 6026      4E00
 6027              	.LASF102:
 6028 0724 4558545F 		.ascii	"EXT_MS0_BUFF_CTL\000"
 6028      4D53305F 
 6028      42554646 
 6028      5F43544C 
 6028      00
 6029              	.LASF52:
 6030 0735 52455345 		.ascii	"RESERVED1\000"
 6030      52564544 
 6030      3100
 6031              	.LASF384:
 6032 073f 43595F53 		.ascii	"CY_SYSLIB_SUCCESS\000"
 6032      59534C49 
 6032      425F5355 
 6032      43434553 
 6032      5300
 6033              	.LASF15:
 6034 0751 696E7431 		.ascii	"int16_t\000"
 6034      365F7400 
 6035              	.LASF360:
 6036 0759 6770696F 		.ascii	"gpioPrtCfgInOffset\000"
 6036      50727443 
 6036      6667496E 
 6036      4F666673 
 6036      657400
 6037              	.LASF267:
 6038 076c 434C4B5F 		.ascii	"CLK_TRIM_ECO_CTL\000"
 6038      5452494D 
 6038      5F45434F 
 6038      5F43544C 
 6038      00
 6039              	.LASF274:
 6040 077d 5254435F 		.ascii	"RTC_TIME\000"
 6040      54494D45 
 6040      00
 6041              	.LASF264:
 6042 0786 5057525F 		.ascii	"PWR_TRIM_LVD_CTL\000"
ARM GAS  C:\Users\Rolf\AppData\Local\Temp\ccTwK7ru.s 			page 140


 6042      5452494D 
 6042      5F4C5644 
 6042      5F43544C 
 6042      00
 6043              	.LASF12:
 6044 0797 6C6F6E67 		.ascii	"long long unsigned int\000"
 6044      206C6F6E 
 6044      6720756E 
 6044      7369676E 
 6044      65642069 
 6045              	.LASF421:
 6046 07ae 756E6971 		.ascii	"uniqueIdHi\000"
 6046      75654964 
 6046      486900
 6047              	.LASF357:
 6048 07b9 70657269 		.ascii	"periDiv24_5CtlOffset\000"
 6048      44697632 
 6048      345F3543 
 6048      746C4F66 
 6048      66736574 
 6049              	.LASF282:
 6050 07ce 504D4943 		.ascii	"PMIC_CTL\000"
 6050      5F43544C 
 6050      00
 6051              	.LASF439:
 6052 07d7 7374726E 		.ascii	"strncpy\000"
 6052      63707900 
 6053              	.LASF316:
 6054 07df 63707573 		.ascii	"cpussIpc0Irq\000"
 6054      73497063 
 6054      30497271 
 6054      00
 6055              	.LASF408:
 6056 07ec 72656173 		.ascii	"reason\000"
 6056      6F6E00
 6057              	.LASF434:
 6058 07f3 63795F64 		.ascii	"cy_delay32kMs\000"
 6058      656C6179 
 6058      33326B4D 
 6058      7300
 6059              	.LASF168:
 6060 0801 544F4331 		.ascii	"TOC1_FB_OBJECT_ADDR\000"
 6060      5F46425F 
 6060      4F424A45 
 6060      43545F41 
 6060      44445200 
 6061              	.LASF206:
 6062 0815 52544F43 		.ascii	"RTOC2_REVISION\000"
 6062      325F5245 
 6062      56495349 
 6062      4F4E00
 6063              	.LASF5:
 6064 0824 5F5F7569 		.ascii	"__uint16_t\000"
 6064      6E743136 
 6064      5F7400
 6065              	.LASF225:
 6066 082f 5057525F 		.ascii	"PWR_BUCK_CTL2\000"
ARM GAS  C:\Users\Rolf\AppData\Local\Temp\ccTwK7ru.s 			page 141


 6066      4255434B 
 6066      5F43544C 
 6066      3200
 6067              	.LASF113:
 6068 083d 46414D49 		.ascii	"FAMILY_ID\000"
 6068      4C595F49 
 6068      4400
 6069              	.LASF145:
 6070 0847 52414449 		.ascii	"RADIO_LDO_TRIMS\000"
 6070      4F5F4C44 
 6070      4F5F5452 
 6070      494D5300 
 6071              	.LASF154:
 6072 0857 464C4153 		.ascii	"FLASH_BOOT_OBJECT_SIZE\000"
 6072      485F424F 
 6072      4F545F4F 
 6072      424A4543 
 6072      545F5349 
 6073              	.LASF94:
 6074 086e 4457315F 		.ascii	"DW1_BUFF_CTL\000"
 6074      42554646 
 6074      5F43544C 
 6074      00
 6075              	.LASF352:
 6076 087b 70657269 		.ascii	"periDivCmdPaDivSelPos\000"
 6076      44697643 
 6076      6D645061 
 6076      44697653 
 6076      656C506F 
 6077              	.LASF322:
 6078 0891 70657269 		.ascii	"periClockNr\000"
 6078      436C6F63 
 6078      6B4E7200 
 6079              	.LASF409:
 6080 089d 43795F53 		.ascii	"Cy_SysLib_AssertFailed\000"
 6080      79734C69 
 6080      625F4173 
 6080      73657274 
 6080      4661696C 
 6081              	.LASF399:
 6082 08b4 6E6F7469 		.ascii	"notifyEventIntr\000"
 6082      66794576 
 6082      656E7449 
 6082      6E747200 
 6083              	.LASF197:
 6084 08c4 52544F43 		.ascii	"RTOC2_KEY_BLOCK_ADDR\000"
 6084      325F4B45 
 6084      595F424C 
 6084      4F434B5F 
 6084      41444452 
 6085              	.LASF246:
 6086 08d9 434C4B5F 		.ascii	"CLK_FLL_CONFIG\000"
 6086      464C4C5F 
 6086      434F4E46 
 6086      494700
 6087              	.LASF334:
 6088 08e8 666C6173 		.ascii	"flashEraseDelay\000"
ARM GAS  C:\Users\Rolf\AppData\Local\Temp\ccTwK7ru.s 			page 142


 6088      68457261 
 6088      73654465 
 6088      6C617900 
 6089              	.LASF276:
 6090 08f8 414C4D31 		.ascii	"ALM1_TIME\000"
 6090      5F54494D 
 6090      4500
 6091              	.LASF400:
 6092 0902 6D736750 		.ascii	"msgPtr\000"
 6092      747200
 6093              	.LASF244:
 6094 0909 434C4B5F 		.ascii	"CLK_ECO_STATUS\000"
 6094      45434F5F 
 6094      53544154 
 6094      555300
 6095              	.LASF338:
 6096 0918 666C6173 		.ascii	"flashCtlMainWs3Freq\000"
 6096      6843746C 
 6096      4D61696E 
 6096      57733346 
 6096      72657100 
 6097              	.LASF320:
 6098 092c 73727373 		.ascii	"srssNumPll\000"
 6098      4E756D50 
 6098      6C6C00
 6099              	.LASF121:
 6100 0937 4449455F 		.ascii	"DIE_DAY\000"
 6100      44415900 
 6101              	.LASF291:
 6102 093f 4C4F434B 		.ascii	"LOCK_STATUS\000"
 6102      5F535441 
 6102      54555300 
 6103              	.LASF35:
 6104 094b 41434C4B 		.ascii	"ACLK_CTL\000"
 6104      5F43544C 
 6104      00
 6105              	.LASF247:
 6106 0954 434C4B5F 		.ascii	"CLK_FLL_CONFIG2\000"
 6106      464C4C5F 
 6106      434F4E46 
 6106      49473200 
 6107              	.LASF248:
 6108 0964 434C4B5F 		.ascii	"CLK_FLL_CONFIG3\000"
 6108      464C4C5F 
 6108      434F4E46 
 6108      49473300 
 6109              	.LASF249:
 6110 0974 434C4B5F 		.ascii	"CLK_FLL_CONFIG4\000"
 6110      464C4C5F 
 6110      434F4E46 
 6110      49473400 
 6111              	.LASF241:
 6112 0984 434C4B5F 		.ascii	"CLK_CAL_CNT1\000"
 6112      43414C5F 
 6112      434E5431 
 6112      00
 6113              	.LASF242:
ARM GAS  C:\Users\Rolf\AppData\Local\Temp\ccTwK7ru.s 			page 143


 6114 0991 434C4B5F 		.ascii	"CLK_CAL_CNT2\000"
 6114      43414C5F 
 6114      434E5432 
 6114      00
 6115              	.LASF331:
 6116 099e 666C6173 		.ascii	"flashPipeRequired\000"
 6116      68506970 
 6116      65526571 
 6116      75697265 
 6116      6400
 6117              	.LASF139:
 6118 09b0 5354414E 		.ascii	"STANDARD_PPU_STRUCT\000"
 6118      44415244 
 6118      5F505055 
 6118      5F535452 
 6118      55435400 
 6119              	.LASF346:
 6120 09c4 70657269 		.ascii	"periTrCmdOffset\000"
 6120      5472436D 
 6120      644F6666 
 6120      73657400 
 6121              	.LASF134:
 6122 09d4 4D415354 		.ascii	"MASTER_KEY\000"
 6122      45525F4B 
 6122      455900
 6123              	.LASF422:
 6124 09df 756E6971 		.ascii	"uniqueIdLo\000"
 6124      75654964 
 6124      4C6F00
 6125              	.LASF129:
 6126 09ea 424C455F 		.ascii	"BLE_DEVICE_ADDRESS\000"
 6126      44455649 
 6126      43455F41 
 6126      44445245 
 6126      535300
 6127              	.LASF73:
 6128 09fd 434D305F 		.ascii	"CM0_CA_STATUS0\000"
 6128      43415F53 
 6128      54415455 
 6128      533000
 6129              	.LASF86:
 6130 0a0c 43525950 		.ascii	"CRYPTO_BUFF_CTL\000"
 6130      544F5F42 
 6130      5546465F 
 6130      43544C00 
 6131              	.LASF75:
 6132 0a1c 434D305F 		.ascii	"CM0_CA_STATUS2\000"
 6132      43415F53 
 6132      54415455 
 6132      533200
 6133              	.LASF110:
 6134 0a2b 464C4153 		.ascii	"FLASHC_V1_Type\000"
 6134      48435F56 
 6134      315F5479 
 6134      706500
 6135              	.LASF414:
 6136 0a3a 43795F53 		.ascii	"Cy_SysLib_ClearFlashCacheAndBuffer\000"
ARM GAS  C:\Users\Rolf\AppData\Local\Temp\ccTwK7ru.s 			page 144


 6136      79734C69 
 6136      625F436C 
 6136      65617246 
 6136      6C617368 
 6137              	.LASF217:
 6138 0a5d 4D435744 		.ascii	"MCWDT_INTR_MASK\000"
 6138      545F494E 
 6138      54525F4D 
 6138      41534B00 
 6139              	.LASF413:
 6140 0a6d 43795F53 		.ascii	"Cy_SysLib_GetResetReason\000"
 6140      79734C69 
 6140      625F4765 
 6140      74526573 
 6140      65745265 
 6141              	.LASF277:
 6142 0a86 414C4D31 		.ascii	"ALM1_DATE\000"
 6142      5F444154 
 6142      4500
 6143              	.LASF181:
 6144 0a90 544F4332 		.ascii	"TOC2_OBJECT_SIZE\000"
 6144      5F4F424A 
 6144      4543545F 
 6144      53495A45 
 6144      00
 6145              	.LASF299:
 6146 0aa1 6770696F 		.ascii	"gpioBase\000"
 6146      42617365 
 6146      00
 6147              	.LASF150:
 6148 0aaa 43505553 		.ascii	"CPUSS_TRIM_ROM_CTL_HALF_ULP\000"
 6148      535F5452 
 6148      494D5F52 
 6148      4F4D5F43 
 6148      544C5F48 
 6149              	.LASF11:
 6150 0ac6 5F5F7569 		.ascii	"__uint64_t\000"
 6150      6E743634 
 6150      5F7400
 6151              	.LASF252:
 6152 0ad1 434C4B5F 		.ascii	"CLK_PLL_STATUS\000"
 6152      504C4C5F 
 6152      53544154 
 6152      555300
 6153              	.LASF171:
 6154 0ae0 544F4331 		.ascii	"TOC1_CRC_ADDR\000"
 6154      5F435243 
 6154      5F414444 
 6154      5200
 6155              	.LASF122:
 6156 0aee 4449455F 		.ascii	"DIE_MONTH\000"
 6156      4D4F4E54 
 6156      4800
 6157              	.LASF437:
 6158 0af8 63795F66 		.ascii	"cy_faultFrame\000"
 6158      61756C74 
 6158      4672616D 
ARM GAS  C:\Users\Rolf\AppData\Local\Temp\ccTwK7ru.s 			page 145


 6158      6500
 6159              	.LASF189:
 6160 0b06 544F4332 		.ascii	"TOC2_SHASH_OBJECTS\000"
 6160      5F534841 
 6160      53485F4F 
 6160      424A4543 
 6160      545300
 6161              	.LASF281:
 6162 0b19 5449434B 		.ascii	"TICKS\000"
 6162      5300
 6163              	.LASF30:
 6164 0b1f 54455354 		.ascii	"TEST_CTL\000"
 6164      5F43544C 
 6164      00
 6165              	.LASF370:
 6166 0b28 63707573 		.ascii	"cpussSysTickCtlOffset\000"
 6166      73537973 
 6166      5469636B 
 6166      43746C4F 
 6166      66667365 
 6167              	.LASF335:
 6168 0b3e 666C6173 		.ascii	"flashCtlMainWs0Freq\000"
 6168      6843746C 
 6168      4D61696E 
 6168      57733046 
 6168      72657100 
 6169              	.LASF269:
 6170 0b52 434C4B5F 		.ascii	"CLK_TRIM_PILO_CTL2\000"
 6170      5452494D 
 6170      5F50494C 
 6170      4F5F4354 
 6170      4C3200
 6171              	.LASF270:
 6172 0b65 434C4B5F 		.ascii	"CLK_TRIM_PILO_CTL3\000"
 6172      5452494D 
 6172      5F50494C 
 6172      4F5F4354 
 6172      4C3300
 6173              	.LASF24:
 6174 0b78 47454F4D 		.ascii	"GEOMETRY\000"
 6174      45545259 
 6174      00
 6175              	.LASF344:
 6176 0b81 64775374 		.ascii	"dwStatusChIdxPos\000"
 6176      61747573 
 6176      43684964 
 6176      78506F73 
 6176      00
 6177              	.LASF190:
 6178 0b92 544F4332 		.ascii	"TOC2_SIGNATURE_VERIF_KEY\000"
 6178      5F534947 
 6178      4E415455 
 6178      52455F56 
 6178      45524946 
 6179              	.LASF177:
 6180 0bab 52544F43 		.ascii	"RTOC1_FB_OBJECT_ADDR\000"
 6180      315F4642 
ARM GAS  C:\Users\Rolf\AppData\Local\Temp\ccTwK7ru.s 			page 146


 6180      5F4F424A 
 6180      4543545F 
 6180      41444452 
 6181              	.LASF423:
 6182 0bc0 43795F53 		.ascii	"Cy_SysLib_ProcessingFault\000"
 6182      79734C69 
 6182      625F5072 
 6182      6F636573 
 6182      73696E67 
 6183              	.LASF53:
 6184 0bda 544D5F43 		.ascii	"TM_CMPR\000"
 6184      4D505200 
 6185              	.LASF430:
 6186 0be2 66726571 		.ascii	"freqMax\000"
 6186      4D617800 
 6187              	.LASF222:
 6188 0bea 5057525F 		.ascii	"PWR_HIBERNATE\000"
 6188      48494245 
 6188      524E4154 
 6188      4500
 6189              	.LASF315:
 6190 0bf8 63707573 		.ascii	"cpussFlashPaSize\000"
 6190      73466C61 
 6190      73685061 
 6190      53697A65 
 6190      00
 6191              	.LASF63:
 6192 0c09 42495354 		.ascii	"BIST_ADDR_START\000"
 6192      5F414444 
 6192      525F5354 
 6192      41525400 
 6193              	.LASF392:
 6194 0c19 63686172 		.ascii	"char\000"
 6194      00
 6195              	.LASF155:
 6196 0c1e 464C4153 		.ascii	"FLASH_BOOT_APP_ID\000"
 6196      485F424F 
 6196      4F545F41 
 6196      50505F49 
 6196      4400
 6197              	.LASF216:
 6198 0c30 4D435744 		.ascii	"MCWDT_INTR_SET\000"
 6198      545F494E 
 6198      54525F53 
 6198      455400
 6199              	.LASF285:
 6200 0c3f 5452494D 		.ascii	"TRIM\000"
 6200      00
 6201              	.LASF64:
 6202 0c44 42495354 		.ascii	"BIST_DATA\000"
 6202      5F444154 
 6202      4100
 6203              	.LASF326:
 6204 0c4e 75646250 		.ascii	"udbPresent\000"
 6204      72657365 
 6204      6E7400
 6205              	.LASF433:
ARM GAS  C:\Users\Rolf\AppData\Local\Temp\ccTwK7ru.s 			page 147


 6206 0c59 63795F64 		.ascii	"cy_delayFreqMhz\000"
 6206      656C6179 
 6206      46726571 
 6206      4D687A00 
 6207              	.LASF327:
 6208 0c69 73797350 		.ascii	"sysPmSimoPresent\000"
 6208      6D53696D 
 6208      6F507265 
 6208      73656E74 
 6208      00
 6209              	.LASF70:
 6210 0c7a 434D305F 		.ascii	"CM0_CA_CTL1\000"
 6210      43415F43 
 6210      544C3100 
 6211              	.LASF223:
 6212 0c86 5057525F 		.ascii	"PWR_LVD_CTL\000"
 6212      4C56445F 
 6212      43544C00 
 6213              	.LASF146:
 6214 0c92 43505553 		.ascii	"CPUSS_TRIM_ROM_CTL_ULP\000"
 6214      535F5452 
 6214      494D5F52 
 6214      4F4D5F43 
 6214      544C5F55 
 6215              	.LASF308:
 6216 0ca9 6873696F 		.ascii	"hsiomVersion\000"
 6216      6D566572 
 6216      73696F6E 
 6216      00
 6217              	.LASF229:
 6218 0cb6 5744545F 		.ascii	"WDT_CNT\000"
 6218      434E5400 
 6219              	.LASF125:
 6220 0cbe 5341525F 		.ascii	"SAR_TEMP_OFFSET\000"
 6220      54454D50 
 6220      5F4F4646 
 6220      53455400 
 6221              	.LASF410:
 6222 0cce 66696C65 		.ascii	"file\000"
 6222      00
 6223              	.LASF345:
 6224 0cd3 64775374 		.ascii	"dwStatusChIdxMsk\000"
 6224      61747573 
 6224      43684964 
 6224      784D736B 
 6224      00
 6225              	.LASF254:
 6226 0ce4 53525353 		.ascii	"SRSS_INTR_SET\000"
 6226      5F494E54 
 6226      525F5345 
 6226      5400
 6227              	.LASF14:
 6228 0cf2 75696E74 		.ascii	"uint8_t\000"
 6228      385F7400 
 6229              	.LASF236:
 6230 0cfa 434C4B5F 		.ascii	"CLK_TIMER_CTL\000"
 6230      54494D45 
ARM GAS  C:\Users\Rolf\AppData\Local\Temp\ccTwK7ru.s 			page 148


 6230      525F4354 
 6230      4C00
 6231              	.LASF106:
 6232 0d08 4558545F 		.ascii	"EXT_MS1_BUFF_CTL\000"
 6232      4D53315F 
 6232      42554646 
 6232      5F43544C 
 6232      00
 6233              	.LASF350:
 6234 0d19 70657269 		.ascii	"periDivCmdDivSelMsk\000"
 6234      44697643 
 6234      6D644469 
 6234      7653656C 
 6234      4D736B00 
 6235              	.LASF284:
 6236 0d2d 42524547 		.ascii	"BREG\000"
 6236      00
 6237              	.LASF4:
 6238 0d32 73686F72 		.ascii	"short int\000"
 6238      7420696E 
 6238      7400
 6239              	.LASF230:
 6240 0d3c 5744545F 		.ascii	"WDT_MATCH\000"
 6240      4D415443 
 6240      4800
 6241              	.LASF78:
 6242 0d46 434D345F 		.ascii	"CM4_CA_CTL1\000"
 6242      43415F43 
 6242      544C3100 
 6243              	.LASF356:
 6244 0d52 70657269 		.ascii	"periDiv16_5CtlOffset\000"
 6244      44697631 
 6244      365F3543 
 6244      746C4F66 
 6244      66736574 
 6245              	.LASF57:
 6246 0d67 464C4153 		.ascii	"FLASHC_FM_CTL_V1_Type\000"
 6246      48435F46 
 6246      4D5F4354 
 6246      4C5F5631 
 6246      5F547970 
 6247              	.LASF210:
 6248 0d7d 4D435744 		.ascii	"MCWDT_CNTLOW\000"
 6248      545F434E 
 6248      544C4F57 
 6248      00
 6249              	.LASF374:
 6250 0d8a 63707573 		.ascii	"cpussRam0Ctl0\000"
 6250      7352616D 
 6250      3043746C 
 6250      3000
 6251              	.LASF10:
 6252 0d98 6C6F6E67 		.ascii	"long long int\000"
 6252      206C6F6E 
 6252      6720696E 
 6252      7400
 6253              	.LASF301:
ARM GAS  C:\Users\Rolf\AppData\Local\Temp\ccTwK7ru.s 			page 149


 6254 0da6 69706342 		.ascii	"ipcBase\000"
 6254      61736500 
 6255              	.LASF342:
 6256 0dae 64774368 		.ascii	"dwChCtlPrioPos\000"
 6256      43746C50 
 6256      72696F50 
 6256      6F7300
 6257              	.LASF302:
 6258 0dbd 63727970 		.ascii	"cryptoBase\000"
 6258      746F4261 
 6258      736500
 6259              	.LASF126:
 6260 0dc8 4353505F 		.ascii	"CSP_PANEL_ID\000"
 6260      50414E45 
 6260      4C5F4944 
 6260      00
 6261              	.LASF47:
 6262 0dd5 5245445F 		.ascii	"RED_CTL01\000"
 6262      43544C30 
 6262      3100
 6263              	.LASF215:
 6264 0ddf 4D435744 		.ascii	"MCWDT_INTR\000"
 6264      545F494E 
 6264      545200
 6265              	.LASF271:
 6266 0dea 53525353 		.ascii	"SRSS_V1_Type\000"
 6266      5F56315F 
 6266      54797065 
 6266      00
 6267              	.LASF67:
 6268 0df7 42495354 		.ascii	"BIST_ADDR\000"
 6268      5F414444 
 6268      5200
 6269              	.LASF287:
 6270 0e01 41435155 		.ascii	"ACQUIRE\000"
 6270      49524500 
 6271              	.LASF152:
 6272 0e09 43505553 		.ascii	"CPUSS_TRIM_ROM_CTL_HALF_LP\000"
 6272      535F5452 
 6272      494D5F52 
 6272      4F4D5F43 
 6272      544C5F48 
 6273              	.LASF332:
 6274 0e24 666C6173 		.ascii	"flashWriteDelay\000"
 6274      68577269 
 6274      74654465 
 6274      6C617900 
 6275              	.LASF239:
 6276 0e34 434C4B5F 		.ascii	"CLK_OUTPUT_FAST\000"
 6276      4F555450 
 6276      55545F46 
 6276      41535400 
 6277              	.LASF441:
 6278 0e44 474E5520 		.ascii	"GNU C11 5.4.1 20160609 (release) [ARM/embedded-5-br"
 6278      43313120 
 6278      352E342E 
 6278      31203230 
ARM GAS  C:\Users\Rolf\AppData\Local\Temp\ccTwK7ru.s 			page 150


 6278      31363036 
 6279 0e77 616E6368 		.ascii	"anch revision 237715] -mcpu=cortex-m0plus -mthumb -"
 6279      20726576 
 6279      6973696F 
 6279      6E203233 
 6279      37373135 
 6280 0eaa 67202D4F 		.ascii	"g -Og -ffunction-sections -ffat-lto-objects\000"
 6280      67202D66 
 6280      66756E63 
 6280      74696F6E 
 6280      2D736563 
 6281              	.LASF387:
 6282 0ed6 43595F53 		.ascii	"CY_SYSLIB_INVALID_STATE\000"
 6282      59534C49 
 6282      425F494E 
 6282      56414C49 
 6282      445F5354 
 6283              	.LASF40:
 6284 0eee 464D5F48 		.ascii	"FM_HV_DATA_ALL\000"
 6284      565F4441 
 6284      54415F41 
 6284      4C4C00
 6285              	.LASF3:
 6286 0efd 5F5F696E 		.ascii	"__int16_t\000"
 6286      7431365F 
 6286      7400
 6287              	.LASF159:
 6288 0f07 464C4153 		.ascii	"FLASH_BOOT_CORE_CPUID\000"
 6288      485F424F 
 6288      4F545F43 
 6288      4F52455F 
 6288      43505549 
 6289              	.LASF298:
 6290 0f1d 6873696F 		.ascii	"hsiomBase\000"
 6290      6D426173 
 6290      6500
 6291              	.LASF32:
 6292 0f27 4D4F4E49 		.ascii	"MONITOR_STATUS\000"
 6292      544F525F 
 6292      53544154 
 6292      555300
 6293              	.LASF68:
 6294 0f36 42495354 		.ascii	"BIST_STATUS\000"
 6294      5F535441 
 6294      54555300 
 6295              	.LASF348:
 6296 0f42 70657269 		.ascii	"periTrGrOffset\000"
 6296      54724772 
 6296      4F666673 
 6296      657400
 6297              	.LASF314:
 6298 0f51 63707573 		.ascii	"cpussDwChNr\000"
 6298      73447743 
 6298      684E7200 
 6299              	.LASF38:
 6300 0f5d 494E5452 		.ascii	"INTR_MASK\000"
 6300      5F4D4153 
ARM GAS  C:\Users\Rolf\AppData\Local\Temp\ccTwK7ru.s 			page 151


 6300      4B00
 6301              	.LASF158:
 6302 0f67 464C4153 		.ascii	"FLASH_BOOT_VT_OFFSET\000"
 6302      485F424F 
 6302      4F545F56 
 6302      545F4F46 
 6302      46534554 
 6303              	.LASF193:
 6304 0f7c 544F4332 		.ascii	"TOC2_FLAGS\000"
 6304      5F464C41 
 6304      475300
 6305              	.LASF48:
 6306 0f87 5245445F 		.ascii	"RED_CTL23\000"
 6306      43544C32 
 6306      3300
 6307              	.LASF251:
 6308 0f91 434C4B5F 		.ascii	"CLK_PLL_CONFIG\000"
 6308      504C4C5F 
 6308      434F4E46 
 6308      494700
 6309              	.LASF312:
 6310 0fa0 63707573 		.ascii	"cpussIpcNr\000"
 6310      73497063 
 6310      4E7200
 6311              	.LASF288:
 6312 0fab 52454C45 		.ascii	"RELEASE\000"
 6312      41534500 
 6313              	.LASF365:
 6314 0fb3 63707573 		.ascii	"cpussCm4StatusOffset\000"
 6314      73436D34 
 6314      53746174 
 6314      75734F66 
 6314      66736574 
 6315              	.LASF77:
 6316 0fc8 434D345F 		.ascii	"CM4_CA_CTL0\000"
 6316      43415F43 
 6316      544C3000 
 6317              	.LASF120:
 6318 0fd4 4449455F 		.ascii	"DIE_MINOR\000"
 6318      4D494E4F 
 6318      5200
 6319              	.LASF79:
 6320 0fde 434D345F 		.ascii	"CM4_CA_CTL2\000"
 6320      43415F43 
 6320      544C3200 
 6321              	.LASF92:
 6322 0fea 4457305F 		.ascii	"DW0_BUFF_CMD\000"
 6322      42554646 
 6322      5F434D44 
 6322      00
 6323              	.LASF324:
 6324 0ff7 70617373 		.ascii	"passSarChannels\000"
 6324      53617243 
 6324      68616E6E 
 6324      656C7300 
 6325              	.LASF376:
 6326 1007 63707573 		.ascii	"cpussRam2Ctl0\000"
ARM GAS  C:\Users\Rolf\AppData\Local\Temp\ccTwK7ru.s 			page 152


 6326      7352616D 
 6326      3243746C 
 6326      3000
 6327              	.LASF245:
 6328 1015 434C4B5F 		.ascii	"CLK_PILO_CONFIG\000"
 6328      50494C4F 
 6328      5F434F4E 
 6328      46494700 
 6329              	.LASF341:
 6330 1025 64774368 		.ascii	"dwChSize\000"
 6330      53697A65 
 6330      00
 6331              	.LASF429:
 6332 102e 77616974 		.ascii	"waitStates\000"
 6332      53746174 
 6332      657300
 6333              	.LASF60:
 6334 1039 464C4153 		.ascii	"FLASH_CMD\000"
 6334      485F434D 
 6334      4400
 6335              	.LASF149:
 6336 1043 43505553 		.ascii	"CPUSS_TRIM_RAM_CTL_LP\000"
 6336      535F5452 
 6336      494D5F52 
 6336      414D5F43 
 6336      544C5F4C 
 6337              	.LASF355:
 6338 1059 70657269 		.ascii	"periDiv16CtlOffset\000"
 6338      44697631 
 6338      3643746C 
 6338      4F666673 
 6338      657400
 6339              	.LASF428:
 6340 106c 636C6B48 		.ascii	"clkHfMHz\000"
 6340      664D487A 
 6340      00
 6341              	.LASF381:
 6342 1075 4950435F 		.ascii	"IPC_STRUCT_Type\000"
 6342      53545255 
 6342      43545F54 
 6342      79706500 
 6343              	.LASF98:
 6344 1085 4441505F 		.ascii	"DAP_BUFF_CTL\000"
 6344      42554646 
 6344      5F43544C 
 6344      00
 6345              	.LASF219:
 6346 1092 4D435744 		.ascii	"MCWDT_LOCK\000"
 6346      545F4C4F 
 6346      434B00
 6347              	.LASF80:
 6348 109d 434D345F 		.ascii	"CM4_CA_CMD\000"
 6348      43415F43 
 6348      4D4400
 6349              	.LASF6:
 6350 10a8 73686F72 		.ascii	"short unsigned int\000"
 6350      7420756E 
ARM GAS  C:\Users\Rolf\AppData\Local\Temp\ccTwK7ru.s 			page 153


 6350      7369676E 
 6350      65642069 
 6350      6E7400
 6351              	.LASF185:
 6352 10bb 544F4332 		.ascii	"TOC2_FIRST_USER_APP_ADDR\000"
 6352      5F464952 
 6352      53545F55 
 6352      5345525F 
 6352      4150505F 
 6353              	.LASF62:
 6354 10d4 42495354 		.ascii	"BIST_CMD\000"
 6354      5F434D44 
 6354      00
 6355              	.LASF19:
 6356 10dd 6C6F6E67 		.ascii	"long double\000"
 6356      20646F75 
 6356      626C6500 
 6357              	.LASF297:
 6358 10e9 70726F74 		.ascii	"protBase\000"
 6358      42617365 
 6358      00
 6359              	.LASF135:
 6360 10f2 5354414E 		.ascii	"STANDARD_SMPU_STRUCT_SLAVE_ADDR\000"
 6360      44415244 
 6360      5F534D50 
 6360      555F5354 
 6360      52554354 
 6361              	.LASF140:
 6362 1112 50494C4F 		.ascii	"PILO_FREQ_STEP\000"
 6362      5F465245 
 6362      515F5354 
 6362      455000
 6363              	.LASF347:
 6364 1121 70657269 		.ascii	"periTrCmdGrSelMsk\000"
 6364      5472436D 
 6364      64477253 
 6364      656C4D73 
 6364      6B00
 6365              	.LASF358:
 6366 1133 6770696F 		.ascii	"gpioPrtIntrCfgOffset\000"
 6366      50727449 
 6366      6E747243 
 6366      66674F66 
 6366      66736574 
 6367              	.LASF272:
 6368 1148 5254435F 		.ascii	"RTC_RW\000"
 6368      525700
 6369              	.LASF321:
 6370 114f 73727373 		.ascii	"srssNumHfroot\000"
 6370      4E756D48 
 6370      66726F6F 
 6370      7400
 6371              	.LASF116:
 6372 115d 4449455F 		.ascii	"DIE_WAFER\000"
 6372      57414645 
 6372      5200
 6373              	.LASF138:
ARM GAS  C:\Users\Rolf\AppData\Local\Temp\ccTwK7ru.s 			page 154


 6374 1167 5354414E 		.ascii	"STANDARD_MPU_STRUCT\000"
 6374      44415244 
 6374      5F4D5055 
 6374      5F535452 
 6374      55435400 
 6375              	.LASF234:
 6376 117b 434C4B5F 		.ascii	"CLK_ROOT_SELECT\000"
 6376      524F4F54 
 6376      5F53454C 
 6376      45435400 
 6377              	.LASF41:
 6378 118b 43414C5F 		.ascii	"CAL_CTL0\000"
 6378      43544C30 
 6378      00
 6379              	.LASF156:
 6380 1194 464C4153 		.ascii	"FLASH_BOOT_ATTRIBUTE\000"
 6380      485F424F 
 6380      4F545F41 
 6380      54545249 
 6380      42555445 
 6381              	.LASF305:
 6382 11a9 64775665 		.ascii	"dwVersion\000"
 6382      7273696F 
 6382      6E00
 6383              	.LASF337:
 6384 11b3 666C6173 		.ascii	"flashCtlMainWs2Freq\000"
 6384      6843746C 
 6384      4D61696E 
 6384      57733246 
 6384      72657100 
 6385              	.LASF43:
 6386 11c7 43414C5F 		.ascii	"CAL_CTL2\000"
 6386      43544C32 
 6386      00
 6387              	.LASF44:
 6388 11d0 43414C5F 		.ascii	"CAL_CTL3\000"
 6388      43544C33 
 6388      00
 6389              	.LASF170:
 6390 11d9 544F4331 		.ascii	"TOC1_OBJECT_ADDR_UNUSED\000"
 6390      5F4F424A 
 6390      4543545F 
 6390      41444452 
 6390      5F554E55 
 6391              	.LASF169:
 6392 11f1 544F4331 		.ascii	"TOC1_SYSCALL_TABLE_ADDR_UNUSED\000"
 6392      5F535953 
 6392      43414C4C 
 6392      5F544142 
 6392      4C455F41 
 6393              	.LASF20:
 6394 1210 73697A65 		.ascii	"sizetype\000"
 6394      74797065 
 6394      00
 6395              	.LASF372:
 6396 1219 63707573 		.ascii	"cpussCm4NmiCtlOffset\000"
 6396      73436D34 
ARM GAS  C:\Users\Rolf\AppData\Local\Temp\ccTwK7ru.s 			page 155


 6396      4E6D6943 
 6396      746C4F66 
 6396      66736574 
 6397              	.LASF366:
 6398 122e 63707573 		.ascii	"cpussCm0StatusOffset\000"
 6398      73436D30 
 6398      53746174 
 6398      75734F66 
 6398      66736574 
 6399              	.LASF354:
 6400 1243 70657269 		.ascii	"periDiv8CtlOffset\000"
 6400      44697638 
 6400      43746C4F 
 6400      66667365 
 6400      7400
 6401              	.LASF54:
 6402 1255 52455345 		.ascii	"RESERVED2\000"
 6402      52564544 
 6402      3200
 6403              	.LASF76:
 6404 125f 52455345 		.ascii	"RESERVED3\000"
 6404      52564544 
 6404      3300
 6405              	.LASF81:
 6406 1269 52455345 		.ascii	"RESERVED4\000"
 6406      52564544 
 6406      3400
 6407              	.LASF85:
 6408 1273 52455345 		.ascii	"RESERVED5\000"
 6408      52564544 
 6408      3500
 6409              	.LASF87:
 6410 127d 52455345 		.ascii	"RESERVED6\000"
 6410      52564544 
 6410      3600
 6411              	.LASF89:
 6412 1287 52455345 		.ascii	"RESERVED7\000"
 6412      52564544 
 6412      3700
 6413              	.LASF91:
 6414 1291 52455345 		.ascii	"RESERVED8\000"
 6414      52564544 
 6414      3800
 6415              	.LASF93:
 6416 129b 52455345 		.ascii	"RESERVED9\000"
 6416      52564544 
 6416      3900
 6417              	.LASF141:
 6418 12a5 43534456 		.ascii	"CSDV2_CSD0_ADC_VREF0\000"
 6418      325F4353 
 6418      44305F41 
 6418      44435F56 
 6418      52454630 
 6419              	.LASF142:
 6420 12ba 43534456 		.ascii	"CSDV2_CSD0_ADC_VREF1\000"
 6420      325F4353 
 6420      44305F41 
ARM GAS  C:\Users\Rolf\AppData\Local\Temp\ccTwK7ru.s 			page 156


 6420      44435F56 
 6420      52454631 
 6421              	.LASF143:
 6422 12cf 43534456 		.ascii	"CSDV2_CSD0_ADC_VREF2\000"
 6422      325F4353 
 6422      44305F41 
 6422      44435F56 
 6422      52454632 
 6423              	.LASF233:
 6424 12e4 434C4B5F 		.ascii	"CLK_PATH_SELECT\000"
 6424      50415448 
 6424      5F53454C 
 6424      45435400 
 6425              	.LASF7:
 6426 12f4 6C6F6E67 		.ascii	"long int\000"
 6426      20696E74 
 6426      00
 6427              	.LASF303:
 6428 12fd 63707573 		.ascii	"cpussVersion\000"
 6428      73566572 
 6428      73696F6E 
 6428      00
 6429              	.LASF362:
 6430 130a 6770696F 		.ascii	"gpioPrtCfgSioOffset\000"
 6430      50727443 
 6430      66675369 
 6430      6F4F6666 
 6430      73657400 
 6431              	.LASF307:
 6432 131e 6770696F 		.ascii	"gpioVersion\000"
 6432      56657273 
 6432      696F6E00 
 6433              	.LASF268:
 6434 132a 434C4B5F 		.ascii	"CLK_TRIM_PILO_CTL\000"
 6434      5452494D 
 6434      5F50494C 
 6434      4F5F4354 
 6434      4C00
 6435              	.LASF369:
 6436 133c 63707573 		.ascii	"cpussTrimRomCtlOffset\000"
 6436      73547269 
 6436      6D526F6D 
 6436      43746C4F 
 6436      66667365 
 6437              	.LASF256:
 6438 1352 53525353 		.ascii	"SRSS_INTR_MASKED\000"
 6438      5F494E54 
 6438      525F4D41 
 6438      534B4544 
 6438      00
 6439              	.LASF224:
 6440 1363 5057525F 		.ascii	"PWR_BUCK_CTL\000"
 6440      4255434B 
 6440      5F43544C 
 6440      00
 6441              	.LASF306:
 6442 1370 666C6173 		.ascii	"flashcVersion\000"
ARM GAS  C:\Users\Rolf\AppData\Local\Temp\ccTwK7ru.s 			page 157


 6442      68635665 
 6442      7273696F 
 6442      6E00
 6443              	.LASF328:
 6444 137e 70726F74 		.ascii	"protBusMasterMask\000"
 6444      4275734D 
 6444      61737465 
 6444      724D6173 
 6444      6B00
 6445              	.LASF444:
 6446 1390 43795F53 		.ascii	"Cy_SysLib_ResetBackupDomain\000"
 6446      79734C69 
 6446      625F5265 
 6446      73657442 
 6446      61636B75 
 6447              	.LASF160:
 6448 13ac 464C4153 		.ascii	"FLASH_BOOT_CODE\000"
 6448      485F424F 
 6448      4F545F43 
 6448      4F444500 
 6449              	.LASF123:
 6450 13bc 4449455F 		.ascii	"DIE_YEAR\000"
 6450      59454152 
 6450      00
 6451              	.LASF231:
 6452 13c5 4D435744 		.ascii	"MCWDT_STRUCT\000"
 6452      545F5354 
 6452      52554354 
 6452      00
 6453              	.LASF391:
 6454 13d2 63686172 		.ascii	"char_t\000"
 6454      5F7400
 6455              	.LASF283:
 6456 13d9 52455345 		.ascii	"RESET\000"
 6456      5400
 6457              	.LASF18:
 6458 13df 75696E74 		.ascii	"uint64_t\000"
 6458      36345F74 
 6458      00
 6459              	.LASF262:
 6460 13e8 434C4B5F 		.ascii	"CLK_TRIM_CCO_CTL\000"
 6460      5452494D 
 6460      5F43434F 
 6460      5F43544C 
 6460      00
 6461              	.LASF26:
 6462 13f9 54494D45 		.ascii	"TIMER_CTL\000"
 6462      525F4354 
 6462      4C00
 6463              	.LASF148:
 6464 1403 43505553 		.ascii	"CPUSS_TRIM_ROM_CTL_LP\000"
 6464      535F5452 
 6464      494D5F52 
 6464      4F4D5F43 
 6464      544C5F4C 
 6465              	.LASF273:
 6466 1419 43414C5F 		.ascii	"CAL_CTL\000"
ARM GAS  C:\Users\Rolf\AppData\Local\Temp\ccTwK7ru.s 			page 158


 6466      43544C00 
 6467              	.LASF443:
 6468 1421 5C5C4D61 		.ascii	"\\\\Mac\\Data\\VScode\\GIT\\Onethinx_Project_Exampl"
 6468      635C4461 
 6468      74615C56 
 6468      53636F64 
 6468      655C4749 
 6469 144e 65735C45 		.ascii	"es\\Example_HelloWorld\\Onethinx_Creator.cydsn\000"
 6469      78616D70 
 6469      6C655F48 
 6469      656C6C6F 
 6469      576F726C 
 6470              	.LASF426:
 6471 147b 43795F53 		.ascii	"Cy_SysLib_SetWaitStates\000"
 6471      79734C69 
 6471      625F5365 
 6471      74576169 
 6471      74537461 
 6472              	.LASF367:
 6473 1493 63707573 		.ascii	"cpussCm4PwrCtlOffset\000"
 6473      73436D34 
 6473      50777243 
 6473      746C4F66 
 6473      66736574 
 6474              	.LASF2:
 6475 14a8 5F5F7569 		.ascii	"__uint8_t\000"
 6475      6E74385F 
 6475      7400
 6476              	.LASF112:
 6477 14b2 53494C49 		.ascii	"SILICON_ID\000"
 6477      434F4E5F 
 6477      494400
 6478              	.LASF174:
 6479 14bd 52544F43 		.ascii	"RTOC1_FHASH_OBJECTS\000"
 6479      315F4648 
 6479      4153485F 
 6479      4F424A45 
 6479      43545300 
 6480              	.LASF69:
 6481 14d1 434D305F 		.ascii	"CM0_CA_CTL0\000"
 6481      43415F43 
 6481      544C3000 
 6482              	.LASF66:
 6483 14dd 42495354 		.ascii	"BIST_DATA_EXP\000"
 6483      5F444154 
 6483      415F4558 
 6483      5000
 6484              	.LASF61:
 6485 14eb 42495354 		.ascii	"BIST_CTL\000"
 6485      5F43544C 
 6485      00
 6486              	.LASF253:
 6487 14f4 53525353 		.ascii	"SRSS_INTR\000"
 6487      5F494E54 
 6487      5200
 6488              	.LASF175:
 6489 14fe 52544F43 		.ascii	"RTOC1_GENERAL_TRIM_ADDR_UNUSED\000"
ARM GAS  C:\Users\Rolf\AppData\Local\Temp\ccTwK7ru.s 			page 159


 6489      315F4745 
 6489      4E455241 
 6489      4C5F5452 
 6489      494D5F41 
 6490              	.LASF203:
 6491 151d 52544F43 		.ascii	"RTOC2_SHASH_OBJECTS\000"
 6491      325F5348 
 6491      4153485F 
 6491      4F424A45 
 6491      43545300 
 6492              	.LASF104:
 6493 1531 4558545F 		.ascii	"EXT_MS0_BUFF_CMD\000"
 6493      4D53305F 
 6493      42554646 
 6493      5F434D44 
 6493      00
 6494              	.LASF364:
 6495 1542 63707573 		.ascii	"cpussCm4ClockCtlOffset\000"
 6495      73436D34 
 6495      436C6F63 
 6495      6B43746C 
 6495      4F666673 
 6496              	.LASF39:
 6497 1559 494E5452 		.ascii	"INTR_MASKED\000"
 6497      5F4D4153 
 6497      4B454400 
 6498              	.LASF183:
 6499 1565 544F4332 		.ascii	"TOC2_KEY_BLOCK_ADDR\000"
 6499      5F4B4559 
 6499      5F424C4F 
 6499      434B5F41 
 6499      44445200 
 6500              	.LASF184:
 6501 1579 544F4332 		.ascii	"TOC2_SMIF_CFG_STRUCT_ADDR\000"
 6501      5F534D49 
 6501      465F4346 
 6501      475F5354 
 6501      52554354 
 6502              	.LASF162:
 6503 1593 424F4F54 		.ascii	"BOOT_PROT_SETTINGS\000"
 6503      5F50524F 
 6503      545F5345 
 6503      5454494E 
 6503      475300
 6504              	.LASF115:
 6505 15a6 4449455F 		.ascii	"DIE_LOT\000"
 6505      4C4F5400 
 6506              	.LASF258:
 6507 15ae 5245535F 		.ascii	"RES_CAUSE\000"
 6507      43415553 
 6507      4500
 6508              	.LASF194:
 6509 15b8 544F4332 		.ascii	"TOC2_CRC_ADDR\000"
 6509      5F435243 
 6509      5F414444 
 6509      5200
 6510              	.LASF9:
ARM GAS  C:\Users\Rolf\AppData\Local\Temp\ccTwK7ru.s 			page 160


 6511 15c6 6C6F6E67 		.ascii	"long unsigned int\000"
 6511      20756E73 
 6511      69676E65 
 6511      6420696E 
 6511      7400
 6512              	.LASF419:
 6513 15d8 72657456 		.ascii	"retVal\000"
 6513      616C00
 6514              	.LASF65:
 6515 15df 42495354 		.ascii	"BIST_DATA_ACT\000"
 6515      5F444154 
 6515      415F4143 
 6515      5400
 6516              	.LASF373:
 6517 15ed 63707573 		.ascii	"cpussRomCtl\000"
 6517      73526F6D 
 6517      43746C00 
 6518              	.LASF45:
 6519 15f9 424F4F4B 		.ascii	"BOOKMARK\000"
 6519      4D41524B 
 6519      00
 6520              	.LASF56:
 6521 1602 464D5F4D 		.ascii	"FM_MEM_DATA\000"
 6521      454D5F44 
 6521      41544100 
 6522              	.LASF280:
 6523 160e 4F534343 		.ascii	"OSCCNT\000"
 6523      4E5400
 6524              	.LASF96:
 6525 1615 4457315F 		.ascii	"DW1_BUFF_CMD\000"
 6525      42554646 
 6525      5F434D44 
 6525      00
 6526              	.LASF436:
 6527 1622 63795F61 		.ascii	"cy_assertLine\000"
 6527      73736572 
 6527      744C696E 
 6527      6500
 6528              	.LASF396:
 6529 1630 43595F49 		.ascii	"CY_IPC_DRV_ERROR\000"
 6529      50435F44 
 6529      52565F45 
 6529      52524F52 
 6529      00
 6530              	.LASF340:
 6531 1641 64774368 		.ascii	"dwChOffset\000"
 6531      4F666673 
 6531      657400
 6532              	.LASF405:
 6533 164c 43795F53 		.ascii	"Cy_SysLib_DelayUs\000"
 6533      79734C69 
 6533      625F4465 
 6533      6C617955 
 6533      7300
 6534              	.LASF292:
 6535 165e 4950435F 		.ascii	"IPC_STRUCT_V1_Type\000"
 6535      53545255 
ARM GAS  C:\Users\Rolf\AppData\Local\Temp\ccTwK7ru.s 			page 161


 6535      43545F56 
 6535      315F5479 
 6535      706500
 6536              	.LASF415:
 6537 1671 43795F53 		.ascii	"Cy_SysLib_ClearResetReason\000"
 6537      79734C69 
 6537      625F436C 
 6537      65617252 
 6537      65736574 
 6538              	.LASF163:
 6539 168c 544F4331 		.ascii	"TOC1_OBJECT_SIZE\000"
 6539      5F4F424A 
 6539      4543545F 
 6539      53495A45 
 6539      00
 6540              	.LASF16:
 6541 169d 75696E74 		.ascii	"uint16_t\000"
 6541      31365F74 
 6541      00
 6542              	.LASF33:
 6543 16a6 53435241 		.ascii	"SCRATCH_CTL\000"
 6543      5443485F 
 6543      43544C00 
 6544              	.LASF228:
 6545 16b2 5744545F 		.ascii	"WDT_CTL\000"
 6545      43544C00 
 6546              	.LASF1:
 6547 16ba 756E7369 		.ascii	"unsigned char\000"
 6547      676E6564 
 6547      20636861 
 6547      7200
 6548              	.LASF8:
 6549 16c8 5F5F7569 		.ascii	"__uint32_t\000"
 6549      6E743332 
 6549      5F7400
 6550              	.LASF124:
 6551 16d3 5341525F 		.ascii	"SAR_TEMP_MULTIPLIER\000"
 6551      54454D50 
 6551      5F4D554C 
 6551      5449504C 
 6551      49455200 
 6552              	.LASF411:
 6553 16e7 6C696E65 		.ascii	"line\000"
 6553      00
 6554              	.LASF130:
 6555 16ec 55534552 		.ascii	"USER_FREE_ROW1\000"
 6555      5F465245 
 6555      455F524F 
 6555      573100
 6556              	.LASF131:
 6557 16fb 55534552 		.ascii	"USER_FREE_ROW2\000"
 6557      5F465245 
 6557      455F524F 
 6557      573200
 6558              	.LASF132:
 6559 170a 55534552 		.ascii	"USER_FREE_ROW3\000"
 6559      5F465245 
ARM GAS  C:\Users\Rolf\AppData\Local\Temp\ccTwK7ru.s 			page 162


 6559      455F524F 
 6559      573300
 6560              	.LASF425:
 6561 1719 6661756C 		.ascii	"faultStackAddr\000"
 6561      74537461 
 6561      636B4164 
 6561      647200
 6562              	.LASF407:
 6563 1728 6D696372 		.ascii	"microseconds\000"
 6563      6F736563 
 6563      6F6E6473 
 6563      00
 6564              	.LASF147:
 6565 1735 43505553 		.ascii	"CPUSS_TRIM_RAM_CTL_ULP\000"
 6565      535F5452 
 6565      494D5F52 
 6565      414D5F43 
 6565      544C5F55 
 6566              	.LASF95:
 6567 174c 52455345 		.ascii	"RESERVED10\000"
 6567      52564544 
 6567      313000
 6568              	.LASF97:
 6569 1757 52455345 		.ascii	"RESERVED11\000"
 6569      52564544 
 6569      313100
 6570              	.LASF99:
 6571 1762 52455345 		.ascii	"RESERVED12\000"
 6571      52564544 
 6571      313200
 6572              	.LASF101:
 6573 176d 52455345 		.ascii	"RESERVED13\000"
 6573      52564544 
 6573      313300
 6574              	.LASF103:
 6575 1778 52455345 		.ascii	"RESERVED14\000"
 6575      52564544 
 6575      313400
 6576              	.LASF105:
 6577 1783 52455345 		.ascii	"RESERVED15\000"
 6577      52564544 
 6577      313500
 6578              	.LASF107:
 6579 178e 52455345 		.ascii	"RESERVED16\000"
 6579      52564544 
 6579      313600
 6580              	.LASF109:
 6581 1799 52455345 		.ascii	"RESERVED17\000"
 6581      52564544 
 6581      313700
 6582              	.LASF191:
 6583 17a4 52455345 		.ascii	"RESERVED18\000"
 6583      52564544 
 6583      313800
 6584              	.LASF205:
 6585 17af 52455345 		.ascii	"RESERVED19\000"
 6585      52564544 
ARM GAS  C:\Users\Rolf\AppData\Local\Temp\ccTwK7ru.s 			page 163


 6585      313900
 6586              	.LASF74:
 6587 17ba 434D305F 		.ascii	"CM0_CA_STATUS1\000"
 6587      43415F53 
 6587      54415455 
 6587      533100
 6588              	.LASF389:
 6589 17c9 63795F65 		.ascii	"cy_en_syslib_status_t\000"
 6589      6E5F7379 
 6589      736C6962 
 6589      5F737461 
 6589      7475735F 
 6590              	.LASF380:
 6591 17df 53464C41 		.ascii	"SFLASH_Type\000"
 6591      53485F54 
 6591      79706500 
 6592              	.LASF275:
 6593 17eb 5254435F 		.ascii	"RTC_DATE\000"
 6593      44415445 
 6593      00
 6594              	.LASF435:
 6595 17f4 63795F61 		.ascii	"cy_assertFileName\000"
 6595      73736572 
 6595      7446696C 
 6595      654E616D 
 6595      6500
 6596              	.LASF88:
 6597 1806 43525950 		.ascii	"CRYPTO_BUFF_CMD\000"
 6597      544F5F42 
 6597      5546465F 
 6597      434D4400 
 6598              	.LASF214:
 6599 1816 4D435744 		.ascii	"MCWDT_CTL\000"
 6599      545F4354 
 6599      4C00
 6600              	.LASF27:
 6601 1820 414E415F 		.ascii	"ANA_CTL0\000"
 6601      43544C30 
 6601      00
 6602              	.LASF28:
 6603 1829 414E415F 		.ascii	"ANA_CTL1\000"
 6603      43544C31 
 6603      00
 6604              	.LASF388:
 6605 1832 43595F53 		.ascii	"CY_SYSLIB_UNKNOWN\000"
 6605      59534C49 
 6605      425F554E 
 6605      4B4E4F57 
 6605      4E00
 6606              	.LASF213:
 6607 1844 4D435744 		.ascii	"MCWDT_CONFIG\000"
 6607      545F434F 
 6607      4E464947 
 6607      00
 6608              	.LASF49:
 6609 1851 5245445F 		.ascii	"RED_CTL45\000"
 6609      43544C34 
ARM GAS  C:\Users\Rolf\AppData\Local\Temp\ccTwK7ru.s 			page 164


 6609      3500
 6610              	.LASF330:
 6611 185b 666C6173 		.ascii	"flashRwwRequired\000"
 6611      68527777 
 6611      52657175 
 6611      69726564 
 6611      00
 6612              	.LASF266:
 6613 186c 5057525F 		.ascii	"PWR_TRIM_PWRSYS_CTL\000"
 6613      5452494D 
 6613      5F505752 
 6613      5359535F 
 6613      43544C00 
 6614              	.LASF359:
 6615 1880 6770696F 		.ascii	"gpioPrtCfgOffset\000"
 6615      50727443 
 6615      66674F66 
 6615      66736574 
 6615      00
 6616              	.LASF21:
 6617 1891 464D5F43 		.ascii	"FM_CTL\000"
 6617      544C00
 6618              	.LASF50:
 6619 1898 5245445F 		.ascii	"RED_CTL67\000"
 6619      43544C36 
 6619      3700
 6620              	.LASF325:
 6621 18a2 65704D6F 		.ascii	"epMonitorNr\000"
 6621      6E69746F 
 6621      724E7200 
 6622              	.LASF336:
 6623 18ae 666C6173 		.ascii	"flashCtlMainWs1Freq\000"
 6623      6843746C 
 6623      4D61696E 
 6623      57733146 
 6623      72657100 
 6624              	.LASF100:
 6625 18c2 4441505F 		.ascii	"DAP_BUFF_CMD\000"
 6625      42554646 
 6625      5F434D44 
 6625      00
 6626              	.LASF200:
 6627 18cf 52544F43 		.ascii	"RTOC2_FIRST_USER_APP_FORMAT\000"
 6627      325F4649 
 6627      5253545F 
 6627      55534552 
 6627      5F415050 
 6628              	.LASF0:
 6629 18eb 7369676E 		.ascii	"signed char\000"
 6629      65642063 
 6629      68617200 
 6630              	.LASF260:
 6631 18f7 5057525F 		.ascii	"PWR_TRIM_REF_CTL\000"
 6631      5452494D 
 6631      5F524546 
 6631      5F43544C 
 6631      00
ARM GAS  C:\Users\Rolf\AppData\Local\Temp\ccTwK7ru.s 			page 165


 6632              	.LASF263:
 6633 1908 434C4B5F 		.ascii	"CLK_TRIM_CCO_CTL2\000"
 6633      5452494D 
 6633      5F43434F 
 6633      5F43544C 
 6633      3200
 6634              	.LASF313:
 6635 191a 63707573 		.ascii	"cpussIpcIrqNr\000"
 6635      73497063 
 6635      4972714E 
 6635      7200
 6636              	.LASF343:
 6637 1928 64774368 		.ascii	"dwChCtlPreemptablePos\000"
 6637      43746C50 
 6637      7265656D 
 6637      70746162 
 6637      6C65506F 
 6638              	.LASF188:
 6639 193e 544F4332 		.ascii	"TOC2_SECOND_USER_APP_FORMAT\000"
 6639      5F534543 
 6639      4F4E445F 
 6639      55534552 
 6639      5F415050 
 6640              	.LASF432:
 6641 195a 63795F64 		.ascii	"cy_delayFreqKhz\000"
 6641      656C6179 
 6641      46726571 
 6641      4B687A00 
 6642              	.LASF379:
 6643 196a 63795F73 		.ascii	"cy_stc_device_t\000"
 6643      74635F64 
 6643      65766963 
 6643      655F7400 
 6644              	.LASF424:
 6645 197a 43795F53 		.ascii	"Cy_SysLib_FaultHandler\000"
 6645      79734C69 
 6645      625F4661 
 6645      756C7448 
 6645      616E646C 
 6646              	.LASF173:
 6647 1991 52544F43 		.ascii	"RTOC1_MAGIC_NUMBER\000"
 6647      315F4D41 
 6647      4749435F 
 6647      4E554D42 
 6647      455200
 6648              	.LASF278:
 6649 19a4 414C4D32 		.ascii	"ALM2_TIME\000"
 6649      5F54494D 
 6649      4500
 6650              	.LASF310:
 6651 19ae 70657269 		.ascii	"periVersion\000"
 6651      56657273 
 6651      696F6E00 
 6652              	.LASF394:
 6653 19ba 646F7562 		.ascii	"double\000"
 6653      6C6500
 6654              	.LASF300:
ARM GAS  C:\Users\Rolf\AppData\Local\Temp\ccTwK7ru.s 			page 166


 6655 19c1 70617373 		.ascii	"passBase\000"
 6655      42617365 
 6655      00
 6656              	.LASF42:
 6657 19ca 43414C5F 		.ascii	"CAL_CTL1\000"
 6657      43544C31 
 6657      00
 6658              	.LASF212:
 6659 19d3 4D435744 		.ascii	"MCWDT_MATCH\000"
 6659      545F4D41 
 6659      54434800 
 6660              	.LASF319:
 6661 19df 73727373 		.ascii	"srssNumClkpath\000"
 6661      4E756D43 
 6661      6C6B7061 
 6661      746800
 6662              	.LASF22:
 6663 19ee 53544154 		.ascii	"STATUS\000"
 6663      555300
 6664              	.LASF178:
 6665 19f5 52544F43 		.ascii	"RTOC1_SYSCALL_TABLE_ADDR_UNUSED\000"
 6665      315F5359 
 6665      5343414C 
 6665      4C5F5441 
 6665      424C455F 
 6666              	.LASF339:
 6667 1a15 666C6173 		.ascii	"flashCtlMainWs4Freq\000"
 6667      6843746C 
 6667      4D61696E 
 6667      57733446 
 6667      72657100 
 6668              	.LASF128:
 6669 1a29 4C444F5F 		.ascii	"LDO_1P1V_TRIM\000"
 6669      31503156 
 6669      5F545249 
 6669      4D00
 6670              	.LASF176:
 6671 1a37 52544F43 		.ascii	"RTOC1_UNIQUE_ID_ADDR\000"
 6671      315F554E 
 6671      49515545 
 6671      5F49445F 
 6671      41444452 
 6672              	.LASF232:
 6673 1a4c 434C4B5F 		.ascii	"CLK_DSI_SELECT\000"
 6673      4453495F 
 6673      53454C45 
 6673      435400
 6674              	.LASF166:
 6675 1a5b 544F4331 		.ascii	"TOC1_GENERAL_TRIM_ADDR_UNUSED\000"
 6675      5F47454E 
 6675      4552414C 
 6675      5F545249 
 6675      4D5F4144 
 6676              	.LASF402:
 6677 1a79 43795F49 		.ascii	"Cy_IPC_Drv_IsLockAcquired\000"
 6677      50435F44 
 6677      72765F49 
ARM GAS  C:\Users\Rolf\AppData\Local\Temp\ccTwK7ru.s 			page 167


 6677      734C6F63 
 6677      6B416371 
 6678              	.LASF180:
 6679 1a93 52544F43 		.ascii	"RTOC1_CRC_ADDR\000"
 6679      315F4352 
 6679      435F4144 
 6679      445200
 6680              	.LASF59:
 6681 1aa2 464C4153 		.ascii	"FLASH_PWR_CTL\000"
 6681      485F5057 
 6681      525F4354 
 6681      4C00
 6682              	.LASF440:
 6683 1ab0 43795F49 		.ascii	"Cy_IPC_Drv_SendMsgWord\000"
 6683      50435F44 
 6683      72765F53 
 6683      656E644D 
 6683      7367576F 
 6684              	.LASF309:
 6685 1ac7 69706356 		.ascii	"ipcVersion\000"
 6685      65727369 
 6685      6F6E00
 6686              	.LASF108:
 6687 1ad2 4558545F 		.ascii	"EXT_MS1_BUFF_CMD\000"
 6687      4D53315F 
 6687      42554646 
 6687      5F434D44 
 6687      00
 6688              	.LASF279:
 6689 1ae3 414C4D32 		.ascii	"ALM2_DATE\000"
 6689      5F444154 
 6689      4500
 6690              	.LASF161:
 6691 1aed 5055424C 		.ascii	"PUBLIC_KEY\000"
 6691      49435F4B 
 6691      455900
 6692              	.LASF201:
 6693 1af8 52544F43 		.ascii	"RTOC2_SECOND_USER_APP_ADDR\000"
 6693      325F5345 
 6693      434F4E44 
 6693      5F555345 
 6693      525F4150 
 6694              		.ident	"GCC: (GNU Tools for ARM Embedded Processors) 5.4.1 20160609 (release) [ARM/embedded-5-bran
