ARM GAS  C:\Users\Rolf\AppData\Local\Temp\ccEpnmfk.s 			page 1


   1              		.syntax unified
   2              		.cpu cortex-m4
   3              		.eabi_attribute 27, 1
   4              		.fpu fpv4-sp-d16
   5              		.eabi_attribute 20, 1
   6              		.eabi_attribute 21, 1
   7              		.eabi_attribute 23, 3
   8              		.eabi_attribute 24, 1
   9              		.eabi_attribute 25, 1
  10              		.eabi_attribute 26, 1
  11              		.eabi_attribute 30, 1
  12              		.eabi_attribute 34, 1
  13              		.eabi_attribute 18, 4
  14              		.thumb
  15              		.syntax unified
  16              		.file	"cy_profile.c"
  17              		.text
  18              	.Ltext0:
  19              		.cfi_sections	.debug_frame
  20              		.section	.text.Cy_Profile_IsPtrValid,"ax",%progbits
  21              		.align	2
  22              		.thumb
  23              		.thumb_func
  24              		.type	Cy_Profile_IsPtrValid, %function
  25              	Cy_Profile_IsPtrValid:
  26              	.LFB137:
  27              		.file 1 "Generated_Source\\PSoC6\\pdl\\drivers\\peripheral\\profile\\cy_profile.c"
   1:Generated_Source\PSoC6\pdl\drivers\peripheral\profile/cy_profile.c **** /***************************************************************************//** 
   2:Generated_Source\PSoC6\pdl\drivers\peripheral\profile/cy_profile.c **** * \file cy_profile.c
   3:Generated_Source\PSoC6\pdl\drivers\peripheral\profile/cy_profile.c **** * \version 1.10
   4:Generated_Source\PSoC6\pdl\drivers\peripheral\profile/cy_profile.c **** * 
   5:Generated_Source\PSoC6\pdl\drivers\peripheral\profile/cy_profile.c **** * Provides an API declaration of the energy profiler (EP) driver. 
   6:Generated_Source\PSoC6\pdl\drivers\peripheral\profile/cy_profile.c **** *
   7:Generated_Source\PSoC6\pdl\drivers\peripheral\profile/cy_profile.c **** ******************************************************************************** 
   8:Generated_Source\PSoC6\pdl\drivers\peripheral\profile/cy_profile.c **** * \copyright 
   9:Generated_Source\PSoC6\pdl\drivers\peripheral\profile/cy_profile.c **** * Copyright 2016-2018, Cypress Semiconductor Corporation. All rights reserved. 
  10:Generated_Source\PSoC6\pdl\drivers\peripheral\profile/cy_profile.c **** * You may use this file only in accordance with the license, terms, conditions, 
  11:Generated_Source\PSoC6\pdl\drivers\peripheral\profile/cy_profile.c **** * disclaimers, and limitations in the end user license agreement accompanying 
  12:Generated_Source\PSoC6\pdl\drivers\peripheral\profile/cy_profile.c **** * the software package with which this file was provided.
  13:Generated_Source\PSoC6\pdl\drivers\peripheral\profile/cy_profile.c **** *******************************************************************************/
  14:Generated_Source\PSoC6\pdl\drivers\peripheral\profile/cy_profile.c **** 
  15:Generated_Source\PSoC6\pdl\drivers\peripheral\profile/cy_profile.c **** #include "cy_profile.h"
  16:Generated_Source\PSoC6\pdl\drivers\peripheral\profile/cy_profile.c **** #include <string.h>
  17:Generated_Source\PSoC6\pdl\drivers\peripheral\profile/cy_profile.c **** 
  18:Generated_Source\PSoC6\pdl\drivers\peripheral\profile/cy_profile.c **** #ifdef CY_IP_MXPROFILE
  19:Generated_Source\PSoC6\pdl\drivers\peripheral\profile/cy_profile.c **** 
  20:Generated_Source\PSoC6\pdl\drivers\peripheral\profile/cy_profile.c **** #if defined(__cplusplus)
  21:Generated_Source\PSoC6\pdl\drivers\peripheral\profile/cy_profile.c **** extern "C" {
  22:Generated_Source\PSoC6\pdl\drivers\peripheral\profile/cy_profile.c **** #endif /* __cplusplus */
  23:Generated_Source\PSoC6\pdl\drivers\peripheral\profile/cy_profile.c **** 
  24:Generated_Source\PSoC6\pdl\drivers\peripheral\profile/cy_profile.c **** /* Number of elements in an array */
  25:Generated_Source\PSoC6\pdl\drivers\peripheral\profile/cy_profile.c **** #define CY_N_ELMTS(a) (sizeof(a)/sizeof((a)[0]))
  26:Generated_Source\PSoC6\pdl\drivers\peripheral\profile/cy_profile.c **** 
  27:Generated_Source\PSoC6\pdl\drivers\peripheral\profile/cy_profile.c **** static cy_en_profile_status_t Cy_Profile_IsPtrValid(const cy_stc_profile_ctr_ptr_t ctrAddr);
  28:Generated_Source\PSoC6\pdl\drivers\peripheral\profile/cy_profile.c **** 
  29:Generated_Source\PSoC6\pdl\drivers\peripheral\profile/cy_profile.c **** /* Internal structure - Control and status information for each counter */
  30:Generated_Source\PSoC6\pdl\drivers\peripheral\profile/cy_profile.c **** static cy_stc_profile_ctr_t cy_ep_ctrs[CY_PROFILE_PRFL_CNT_NR];
ARM GAS  C:\Users\Rolf\AppData\Local\Temp\ccEpnmfk.s 			page 2


  31:Generated_Source\PSoC6\pdl\drivers\peripheral\profile/cy_profile.c **** 
  32:Generated_Source\PSoC6\pdl\drivers\peripheral\profile/cy_profile.c **** 
  33:Generated_Source\PSoC6\pdl\drivers\peripheral\profile/cy_profile.c **** /* ========================================================================== */
  34:Generated_Source\PSoC6\pdl\drivers\peripheral\profile/cy_profile.c **** /* =====================     LOCAL FUNCTION SECTION    ====================== */
  35:Generated_Source\PSoC6\pdl\drivers\peripheral\profile/cy_profile.c **** /* ========================================================================== */
  36:Generated_Source\PSoC6\pdl\drivers\peripheral\profile/cy_profile.c **** /*******************************************************************************
  37:Generated_Source\PSoC6\pdl\drivers\peripheral\profile/cy_profile.c **** * Function Name: Cy_Profile_IsPtrValid
  38:Generated_Source\PSoC6\pdl\drivers\peripheral\profile/cy_profile.c **** ****************************************************************************//**
  39:Generated_Source\PSoC6\pdl\drivers\peripheral\profile/cy_profile.c **** *
  40:Generated_Source\PSoC6\pdl\drivers\peripheral\profile/cy_profile.c **** * Local utility function: reports (1) whether or not a given pointer points into
  41:Generated_Source\PSoC6\pdl\drivers\peripheral\profile/cy_profile.c **** * the cy_ep_ctrs[] array, and (2) whether the counter has been assigned.
  42:Generated_Source\PSoC6\pdl\drivers\peripheral\profile/cy_profile.c **** *
  43:Generated_Source\PSoC6\pdl\drivers\peripheral\profile/cy_profile.c **** * \param ctrAddr The handle to (address of) the assigned counter
  44:Generated_Source\PSoC6\pdl\drivers\peripheral\profile/cy_profile.c **** * 
  45:Generated_Source\PSoC6\pdl\drivers\peripheral\profile/cy_profile.c **** * \return CY_PROFILE_SUCCESS, or CY_PROFILE_BAD_PARAM for invalid ctrAddr or counter not
  46:Generated_Source\PSoC6\pdl\drivers\peripheral\profile/cy_profile.c **** * in use.
  47:Generated_Source\PSoC6\pdl\drivers\peripheral\profile/cy_profile.c **** *
  48:Generated_Source\PSoC6\pdl\drivers\peripheral\profile/cy_profile.c **** *******************************************************************************/
  49:Generated_Source\PSoC6\pdl\drivers\peripheral\profile/cy_profile.c **** static cy_en_profile_status_t Cy_Profile_IsPtrValid(const cy_stc_profile_ctr_ptr_t ctrAddr)
  50:Generated_Source\PSoC6\pdl\drivers\peripheral\profile/cy_profile.c **** {
  28              		.loc 1 50 0
  29              		.cfi_startproc
  30              		@ args = 0, pretend = 0, frame = 0
  31              		@ frame_needed = 0, uses_anonymous_args = 0
  32              		@ link register save eliminated.
  33              	.LVL0:
  51:Generated_Source\PSoC6\pdl\drivers\peripheral\profile/cy_profile.c ****     cy_en_profile_status_t retStatus = CY_PROFILE_BAD_PARAM;
  52:Generated_Source\PSoC6\pdl\drivers\peripheral\profile/cy_profile.c **** 
  53:Generated_Source\PSoC6\pdl\drivers\peripheral\profile/cy_profile.c ****     /* check for valid ctrAddr */
  54:Generated_Source\PSoC6\pdl\drivers\peripheral\profile/cy_profile.c ****     uint32_t p_epCtrs = (uint32_t)cy_ep_ctrs;
  34              		.loc 1 54 0
  35 0000 074B     		ldr	r3, .L6
  36              	.LVL1:
  55:Generated_Source\PSoC6\pdl\drivers\peripheral\profile/cy_profile.c ****     if ((p_epCtrs <= (uint32_t)ctrAddr) && ((uint32_t)ctrAddr < (p_epCtrs + (uint32_t)sizeof(cy_ep_
  37              		.loc 1 55 0
  38 0002 8342     		cmp	r3, r0
  39 0004 06D8     		bhi	.L3
  40              		.loc 1 55 0 is_stmt 0 discriminator 1
  41 0006 E033     		adds	r3, r3, #224
  42 0008 9842     		cmp	r0, r3
  43 000a 05D2     		bcs	.L4
  56:Generated_Source\PSoC6\pdl\drivers\peripheral\profile/cy_profile.c ****     {
  57:Generated_Source\PSoC6\pdl\drivers\peripheral\profile/cy_profile.c ****         if (ctrAddr->used != 0u) /* check for counter being used */
  44              		.loc 1 57 0 is_stmt 1
  45 000c 4378     		ldrb	r3, [r0, #1]	@ zero_extendqisi2
  46 000e 2BB9     		cbnz	r3, .L5
  51:Generated_Source\PSoC6\pdl\drivers\peripheral\profile/cy_profile.c **** 
  47              		.loc 1 51 0
  48 0010 0448     		ldr	r0, .L6+4
  49              	.LVL2:
  50 0012 7047     		bx	lr
  51              	.LVL3:
  52              	.L3:
  53 0014 0348     		ldr	r0, .L6+4
  54              	.LVL4:
  55 0016 7047     		bx	lr
  56              	.LVL5:
ARM GAS  C:\Users\Rolf\AppData\Local\Temp\ccEpnmfk.s 			page 3


  57              	.L4:
  58 0018 0248     		ldr	r0, .L6+4
  59              	.LVL6:
  60 001a 7047     		bx	lr
  61              	.LVL7:
  62              	.L5:
  58:Generated_Source\PSoC6\pdl\drivers\peripheral\profile/cy_profile.c ****         {
  59:Generated_Source\PSoC6\pdl\drivers\peripheral\profile/cy_profile.c ****             retStatus = CY_PROFILE_SUCCESS;
  63              		.loc 1 59 0
  64 001c 0020     		movs	r0, #0
  65              	.LVL8:
  60:Generated_Source\PSoC6\pdl\drivers\peripheral\profile/cy_profile.c ****         }
  61:Generated_Source\PSoC6\pdl\drivers\peripheral\profile/cy_profile.c ****     }
  62:Generated_Source\PSoC6\pdl\drivers\peripheral\profile/cy_profile.c ****     return (retStatus);
  63:Generated_Source\PSoC6\pdl\drivers\peripheral\profile/cy_profile.c **** }
  66              		.loc 1 63 0
  67 001e 7047     		bx	lr
  68              	.L7:
  69              		.align	2
  70              	.L6:
  71 0020 00000000 		.word	.LANCHOR0
  72 0024 01007A00 		.word	7995393
  73              		.cfi_endproc
  74              	.LFE137:
  75              		.size	Cy_Profile_IsPtrValid, .-Cy_Profile_IsPtrValid
  76              		.section	.text.Cy_Profile_ISR,"ax",%progbits
  77              		.align	2
  78              		.global	Cy_Profile_ISR
  79              		.thumb
  80              		.thumb_func
  81              		.type	Cy_Profile_ISR, %function
  82              	Cy_Profile_ISR:
  83              	.LFB138:
  64:Generated_Source\PSoC6\pdl\drivers\peripheral\profile/cy_profile.c **** 
  65:Generated_Source\PSoC6\pdl\drivers\peripheral\profile/cy_profile.c **** 
  66:Generated_Source\PSoC6\pdl\drivers\peripheral\profile/cy_profile.c **** /* ========================================================================== */
  67:Generated_Source\PSoC6\pdl\drivers\peripheral\profile/cy_profile.c **** /* ====================    INTERRUPT FUNCTION SECTION    ==================== */
  68:Generated_Source\PSoC6\pdl\drivers\peripheral\profile/cy_profile.c **** /* ========================================================================== */
  69:Generated_Source\PSoC6\pdl\drivers\peripheral\profile/cy_profile.c **** /*******************************************************************************
  70:Generated_Source\PSoC6\pdl\drivers\peripheral\profile/cy_profile.c **** * Function Name: Cy_Profile_ISR
  71:Generated_Source\PSoC6\pdl\drivers\peripheral\profile/cy_profile.c **** ****************************************************************************//**
  72:Generated_Source\PSoC6\pdl\drivers\peripheral\profile/cy_profile.c **** *
  73:Generated_Source\PSoC6\pdl\drivers\peripheral\profile/cy_profile.c **** * EP interrupt handler: Increments the overflow member of the counter structure,
  74:Generated_Source\PSoC6\pdl\drivers\peripheral\profile/cy_profile.c **** * for each counter that is in use and has an overflow.
  75:Generated_Source\PSoC6\pdl\drivers\peripheral\profile/cy_profile.c **** *
  76:Generated_Source\PSoC6\pdl\drivers\peripheral\profile/cy_profile.c **** * This handler is not configured or used automatically. You must configure the 
  77:Generated_Source\PSoC6\pdl\drivers\peripheral\profile/cy_profile.c **** * interrupt handler for the EP, using Cy_SysInt_Init(). Typically you configure 
  78:Generated_Source\PSoC6\pdl\drivers\peripheral\profile/cy_profile.c **** * the system to use \ref Cy_Profile_ISR() as the overflow interrupt handler. You
  79:Generated_Source\PSoC6\pdl\drivers\peripheral\profile/cy_profile.c **** * can provide a custom interrupt handler to perform additional operations if
  80:Generated_Source\PSoC6\pdl\drivers\peripheral\profile/cy_profile.c **** * required. Your handler can call \ref Cy_Profile_ISR() to handle counter
  81:Generated_Source\PSoC6\pdl\drivers\peripheral\profile/cy_profile.c **** * overflow. 
  82:Generated_Source\PSoC6\pdl\drivers\peripheral\profile/cy_profile.c **** *
  83:Generated_Source\PSoC6\pdl\drivers\peripheral\profile/cy_profile.c **** *******************************************************************************/
  84:Generated_Source\PSoC6\pdl\drivers\peripheral\profile/cy_profile.c **** void Cy_Profile_ISR(void)
  85:Generated_Source\PSoC6\pdl\drivers\peripheral\profile/cy_profile.c **** {
  84              		.loc 1 85 0
  85              		.cfi_startproc
ARM GAS  C:\Users\Rolf\AppData\Local\Temp\ccEpnmfk.s 			page 4


  86              		@ args = 0, pretend = 0, frame = 0
  87              		@ frame_needed = 0, uses_anonymous_args = 0
  88              		@ link register save eliminated.
  86:Generated_Source\PSoC6\pdl\drivers\peripheral\profile/cy_profile.c ****     uint32_t ctr;
  87:Generated_Source\PSoC6\pdl\drivers\peripheral\profile/cy_profile.c **** 
  88:Generated_Source\PSoC6\pdl\drivers\peripheral\profile/cy_profile.c ****     /* Grab a copy of the overflow register. Each bit in the register indicates
  89:Generated_Source\PSoC6\pdl\drivers\peripheral\profile/cy_profile.c ****        whether or not the respective counter has overflowed. */
  90:Generated_Source\PSoC6\pdl\drivers\peripheral\profile/cy_profile.c ****     uint32_t ovflowBits = _FLD2VAL(PROFILE_INTR_MASKED_CNT_OVFLW, PROFILE_INTR_MASKED);
  89              		.loc 1 90 0
  90 0000 0F4B     		ldr	r3, .L13
  91 0002 D3F8CC27 		ldr	r2, [r3, #1996]
  92              	.LVL9:
  91:Generated_Source\PSoC6\pdl\drivers\peripheral\profile/cy_profile.c **** 
  92:Generated_Source\PSoC6\pdl\drivers\peripheral\profile/cy_profile.c ****     PROFILE_INTR = ovflowBits; /* clear the sources of the interrupts */
  93              		.loc 1 92 0
  94 0006 C3F8C027 		str	r2, [r3, #1984]
  95              	.LVL10:
  93:Generated_Source\PSoC6\pdl\drivers\peripheral\profile/cy_profile.c **** 
  94:Generated_Source\PSoC6\pdl\drivers\peripheral\profile/cy_profile.c ****     /* scan through the overflow bits, i.e., for each counter */
  95:Generated_Source\PSoC6\pdl\drivers\peripheral\profile/cy_profile.c ****     for (ctr = 0UL; (ctr < (uint32_t)(CY_PROFILE_PRFL_CNT_NR)) && (ovflowBits != 0UL); ctr++)
  96              		.loc 1 95 0
  97 000a 0023     		movs	r3, #0
  98 000c 13E0     		b	.L9
  99              	.LVL11:
 100              	.L12:
  96:Generated_Source\PSoC6\pdl\drivers\peripheral\profile/cy_profile.c ****     {
  97:Generated_Source\PSoC6\pdl\drivers\peripheral\profile/cy_profile.c ****         /* Increment the overflow bit only if the counter is being used.
  98:Generated_Source\PSoC6\pdl\drivers\peripheral\profile/cy_profile.c ****            (which should always be the case.) */
  99:Generated_Source\PSoC6\pdl\drivers\peripheral\profile/cy_profile.c ****         if (((ovflowBits & 1UL) != 0UL) && (cy_ep_ctrs[ctr].used != 0u))
 101              		.loc 1 99 0
 102 000e 12F0010F 		tst	r2, #1
 103 0012 0ED0     		beq	.L10
 104              		.loc 1 99 0 is_stmt 0 discriminator 1
 105 0014 C3EBC300 		rsb	r0, r3, r3, lsl #3
 106 0018 8100     		lsls	r1, r0, #2
 107 001a 0A48     		ldr	r0, .L13+4
 108 001c 0144     		add	r1, r1, r0
 109 001e 4978     		ldrb	r1, [r1, #1]	@ zero_extendqisi2
 110 0020 39B1     		cbz	r1, .L10
 100:Generated_Source\PSoC6\pdl\drivers\peripheral\profile/cy_profile.c ****         {
 101:Generated_Source\PSoC6\pdl\drivers\peripheral\profile/cy_profile.c ****             cy_ep_ctrs[ctr].overflow++;
 111              		.loc 1 101 0 is_stmt 1
 112 0022 D800     		lsls	r0, r3, #3
 113 0024 C01A     		subs	r0, r0, r3
 114 0026 8100     		lsls	r1, r0, #2
 115 0028 0648     		ldr	r0, .L13+4
 116 002a 0144     		add	r1, r1, r0
 117 002c 4869     		ldr	r0, [r1, #20]
 118 002e 0130     		adds	r0, r0, #1
 119 0030 4861     		str	r0, [r1, #20]
 120              	.L10:
 102:Generated_Source\PSoC6\pdl\drivers\peripheral\profile/cy_profile.c ****         }
 103:Generated_Source\PSoC6\pdl\drivers\peripheral\profile/cy_profile.c ****         ovflowBits >>= 1; /* check the next bit, by shifting it into the LS position */
 121              		.loc 1 103 0 discriminator 2
 122 0032 5208     		lsrs	r2, r2, #1
 123              	.LVL12:
  95:Generated_Source\PSoC6\pdl\drivers\peripheral\profile/cy_profile.c ****     {
ARM GAS  C:\Users\Rolf\AppData\Local\Temp\ccEpnmfk.s 			page 5


 124              		.loc 1 95 0 discriminator 2
 125 0034 0133     		adds	r3, r3, #1
 126              	.LVL13:
 127              	.L9:
  95:Generated_Source\PSoC6\pdl\drivers\peripheral\profile/cy_profile.c ****     {
 128              		.loc 1 95 0 is_stmt 0 discriminator 1
 129 0036 072B     		cmp	r3, #7
 130 0038 01D8     		bhi	.L8
  95:Generated_Source\PSoC6\pdl\drivers\peripheral\profile/cy_profile.c ****     {
 131              		.loc 1 95 0 discriminator 3
 132 003a 002A     		cmp	r2, #0
 133 003c E7D1     		bne	.L12
 134              	.L8:
 135 003e 7047     		bx	lr
 136              	.L14:
 137              		.align	2
 138              	.L13:
 139 0040 00002D40 		.word	1076690944
 140 0044 00000000 		.word	.LANCHOR0
 141              		.cfi_endproc
 142              	.LFE138:
 143              		.size	Cy_Profile_ISR, .-Cy_Profile_ISR
 144              		.section	.text.Cy_Profile_StartProfiling,"ax",%progbits
 145              		.align	2
 146              		.global	Cy_Profile_StartProfiling
 147              		.thumb
 148              		.thumb_func
 149              		.type	Cy_Profile_StartProfiling, %function
 150              	Cy_Profile_StartProfiling:
 151              	.LFB139:
 104:Generated_Source\PSoC6\pdl\drivers\peripheral\profile/cy_profile.c ****     }
 105:Generated_Source\PSoC6\pdl\drivers\peripheral\profile/cy_profile.c **** }
 106:Generated_Source\PSoC6\pdl\drivers\peripheral\profile/cy_profile.c **** 
 107:Generated_Source\PSoC6\pdl\drivers\peripheral\profile/cy_profile.c **** 
 108:Generated_Source\PSoC6\pdl\drivers\peripheral\profile/cy_profile.c **** /* ========================================================================== */
 109:Generated_Source\PSoC6\pdl\drivers\peripheral\profile/cy_profile.c **** /* ==================      GENERAL PROFILE FUNCTIONS     ==================== */
 110:Generated_Source\PSoC6\pdl\drivers\peripheral\profile/cy_profile.c **** /* ========================================================================== */
 111:Generated_Source\PSoC6\pdl\drivers\peripheral\profile/cy_profile.c **** /*******************************************************************************
 112:Generated_Source\PSoC6\pdl\drivers\peripheral\profile/cy_profile.c **** * Function Name: Cy_Profile_StartProfiling
 113:Generated_Source\PSoC6\pdl\drivers\peripheral\profile/cy_profile.c **** ****************************************************************************//**
 114:Generated_Source\PSoC6\pdl\drivers\peripheral\profile/cy_profile.c **** *
 115:Generated_Source\PSoC6\pdl\drivers\peripheral\profile/cy_profile.c **** * Starts the profiling/measurement window.
 116:Generated_Source\PSoC6\pdl\drivers\peripheral\profile/cy_profile.c **** *
 117:Generated_Source\PSoC6\pdl\drivers\peripheral\profile/cy_profile.c **** * This operation allows the enabled profile counters to start counting.
 118:Generated_Source\PSoC6\pdl\drivers\peripheral\profile/cy_profile.c **** *
 119:Generated_Source\PSoC6\pdl\drivers\peripheral\profile/cy_profile.c **** * \note The profile interrupt should be enabled before calling this function
 120:Generated_Source\PSoC6\pdl\drivers\peripheral\profile/cy_profile.c **** * for the firmware to be notified when a counter overflow occurs.
 121:Generated_Source\PSoC6\pdl\drivers\peripheral\profile/cy_profile.c **** *
 122:Generated_Source\PSoC6\pdl\drivers\peripheral\profile/cy_profile.c **** * \funcusage
 123:Generated_Source\PSoC6\pdl\drivers\peripheral\profile/cy_profile.c **** * \snippet profile/profile_v1_0_sut_01.cydsn/main_cm4.c snippet_Cy_Profile_StartProfiling
 124:Generated_Source\PSoC6\pdl\drivers\peripheral\profile/cy_profile.c **** *
 125:Generated_Source\PSoC6\pdl\drivers\peripheral\profile/cy_profile.c **** *******************************************************************************/
 126:Generated_Source\PSoC6\pdl\drivers\peripheral\profile/cy_profile.c **** void Cy_Profile_StartProfiling(void)
 127:Generated_Source\PSoC6\pdl\drivers\peripheral\profile/cy_profile.c **** {
 152              		.loc 1 127 0 is_stmt 1
 153              		.cfi_startproc
 154              		@ args = 0, pretend = 0, frame = 0
ARM GAS  C:\Users\Rolf\AppData\Local\Temp\ccEpnmfk.s 			page 6


 155              		@ frame_needed = 0, uses_anonymous_args = 0
 156              		@ link register save eliminated.
 157              	.LVL14:
 128:Generated_Source\PSoC6\pdl\drivers\peripheral\profile/cy_profile.c ****     uint32_t i;
 129:Generated_Source\PSoC6\pdl\drivers\peripheral\profile/cy_profile.c **** 
 130:Generated_Source\PSoC6\pdl\drivers\peripheral\profile/cy_profile.c ****     /* clear all of the counter array overflow variables */
 131:Generated_Source\PSoC6\pdl\drivers\peripheral\profile/cy_profile.c ****     for (i = 0UL; i < CY_N_ELMTS(cy_ep_ctrs); cy_ep_ctrs[i++].overflow = 0UL){}
 158              		.loc 1 131 0
 159 0000 0023     		movs	r3, #0
 160 0002 07E0     		b	.L16
 161              	.LVL15:
 162              	.L17:
 163              		.loc 1 131 0 is_stmt 0 discriminator 3
 164 0004 C3EBC301 		rsb	r1, r3, r3, lsl #3
 165 0008 8A00     		lsls	r2, r1, #2
 166 000a 0549     		ldr	r1, .L18
 167 000c 0A44     		add	r2, r2, r1
 168 000e 0021     		movs	r1, #0
 169 0010 5161     		str	r1, [r2, #20]
 170 0012 0133     		adds	r3, r3, #1
 171              	.LVL16:
 172              	.L16:
 173              		.loc 1 131 0 discriminator 1
 174 0014 072B     		cmp	r3, #7
 175 0016 F5D9     		bls	.L17
 132:Generated_Source\PSoC6\pdl\drivers\peripheral\profile/cy_profile.c ****     /* send the hardware command */
 133:Generated_Source\PSoC6\pdl\drivers\peripheral\profile/cy_profile.c ****     PROFILE_CMD = CY_PROFILE_START_TR;
 176              		.loc 1 133 0 is_stmt 1
 177 0018 0122     		movs	r2, #1
 178 001a 024B     		ldr	r3, .L18+4
 179              	.LVL17:
 180 001c 1A61     		str	r2, [r3, #16]
 181 001e 7047     		bx	lr
 182              	.L19:
 183              		.align	2
 184              	.L18:
 185 0020 00000000 		.word	.LANCHOR0
 186 0024 00002D40 		.word	1076690944
 187              		.cfi_endproc
 188              	.LFE139:
 189              		.size	Cy_Profile_StartProfiling, .-Cy_Profile_StartProfiling
 190              		.section	.text.Cy_Profile_ClearConfiguration,"ax",%progbits
 191              		.align	2
 192              		.global	Cy_Profile_ClearConfiguration
 193              		.thumb
 194              		.thumb_func
 195              		.type	Cy_Profile_ClearConfiguration, %function
 196              	Cy_Profile_ClearConfiguration:
 197              	.LFB140:
 134:Generated_Source\PSoC6\pdl\drivers\peripheral\profile/cy_profile.c **** }
 135:Generated_Source\PSoC6\pdl\drivers\peripheral\profile/cy_profile.c **** 
 136:Generated_Source\PSoC6\pdl\drivers\peripheral\profile/cy_profile.c **** 
 137:Generated_Source\PSoC6\pdl\drivers\peripheral\profile/cy_profile.c **** /* ========================================================================== */
 138:Generated_Source\PSoC6\pdl\drivers\peripheral\profile/cy_profile.c **** /* ===================    COUNTER FUNCTIONS SECTION    ====================== */
 139:Generated_Source\PSoC6\pdl\drivers\peripheral\profile/cy_profile.c **** /* ========================================================================== */
 140:Generated_Source\PSoC6\pdl\drivers\peripheral\profile/cy_profile.c **** /*******************************************************************************
 141:Generated_Source\PSoC6\pdl\drivers\peripheral\profile/cy_profile.c **** * Function Name: Cy_Profile_ClearConfiguration
ARM GAS  C:\Users\Rolf\AppData\Local\Temp\ccEpnmfk.s 			page 7


 142:Generated_Source\PSoC6\pdl\drivers\peripheral\profile/cy_profile.c **** ****************************************************************************//**
 143:Generated_Source\PSoC6\pdl\drivers\peripheral\profile/cy_profile.c **** *
 144:Generated_Source\PSoC6\pdl\drivers\peripheral\profile/cy_profile.c **** * Clears all counter configurations and sets all counters and overflow counters 
 145:Generated_Source\PSoC6\pdl\drivers\peripheral\profile/cy_profile.c **** * to 0. Calls Cy_Profile_ClearCounters() to clear counter registers.
 146:Generated_Source\PSoC6\pdl\drivers\peripheral\profile/cy_profile.c **** *
 147:Generated_Source\PSoC6\pdl\drivers\peripheral\profile/cy_profile.c **** * \funcusage
 148:Generated_Source\PSoC6\pdl\drivers\peripheral\profile/cy_profile.c **** * \snippet profile/profile_v1_0_sut_01.cydsn/main_cm4.c snippet_Cy_Profile_ClearConfiguration
 149:Generated_Source\PSoC6\pdl\drivers\peripheral\profile/cy_profile.c **** *
 150:Generated_Source\PSoC6\pdl\drivers\peripheral\profile/cy_profile.c **** *******************************************************************************/
 151:Generated_Source\PSoC6\pdl\drivers\peripheral\profile/cy_profile.c **** void Cy_Profile_ClearConfiguration(void)
 152:Generated_Source\PSoC6\pdl\drivers\peripheral\profile/cy_profile.c **** {
 198              		.loc 1 152 0
 199              		.cfi_startproc
 200              		@ args = 0, pretend = 0, frame = 0
 201              		@ frame_needed = 0, uses_anonymous_args = 0
 202 0000 08B5     		push	{r3, lr}
 203              		.cfi_def_cfa_offset 8
 204              		.cfi_offset 3, -8
 205              		.cfi_offset 14, -4
 153:Generated_Source\PSoC6\pdl\drivers\peripheral\profile/cy_profile.c ****     (void)memset((void *)cy_ep_ctrs, 0, sizeof(cy_ep_ctrs));
 206              		.loc 1 153 0
 207 0002 E022     		movs	r2, #224
 208 0004 0021     		movs	r1, #0
 209 0006 0448     		ldr	r0, .L22
 210 0008 FFF7FEFF 		bl	memset
 211              	.LVL18:
 212              	.LBB4:
 213              	.LBB5:
 214              		.file 2 "Generated_Source\\PSoC6\\pdl\\drivers\\peripheral\\profile\\cy_profile.h"
   1:Generated_Source\PSoC6\pdl\drivers\peripheral\profile/cy_profile.h **** /***************************************************************************//**
   2:Generated_Source\PSoC6\pdl\drivers\peripheral\profile/cy_profile.h **** * \file cy_profile.h
   3:Generated_Source\PSoC6\pdl\drivers\peripheral\profile/cy_profile.h **** * \version 1.10
   4:Generated_Source\PSoC6\pdl\drivers\peripheral\profile/cy_profile.h **** *
   5:Generated_Source\PSoC6\pdl\drivers\peripheral\profile/cy_profile.h **** * Provides an API declaration of the energy profiler driver.
   6:Generated_Source\PSoC6\pdl\drivers\peripheral\profile/cy_profile.h **** *
   7:Generated_Source\PSoC6\pdl\drivers\peripheral\profile/cy_profile.h **** ********************************************************************************
   8:Generated_Source\PSoC6\pdl\drivers\peripheral\profile/cy_profile.h **** * \copyright
   9:Generated_Source\PSoC6\pdl\drivers\peripheral\profile/cy_profile.h **** * Copyright 2016-2018, Cypress Semiconductor Corporation. All rights reserved.
  10:Generated_Source\PSoC6\pdl\drivers\peripheral\profile/cy_profile.h **** * You may use this file only in accordance with the license, terms, conditions,
  11:Generated_Source\PSoC6\pdl\drivers\peripheral\profile/cy_profile.h **** * disclaimers, and limitations in the end user license agreement accompanying
  12:Generated_Source\PSoC6\pdl\drivers\peripheral\profile/cy_profile.h **** * the software package with which this file was provided.
  13:Generated_Source\PSoC6\pdl\drivers\peripheral\profile/cy_profile.h **** *******************************************************************************/
  14:Generated_Source\PSoC6\pdl\drivers\peripheral\profile/cy_profile.h **** 
  15:Generated_Source\PSoC6\pdl\drivers\peripheral\profile/cy_profile.h **** /**
  16:Generated_Source\PSoC6\pdl\drivers\peripheral\profile/cy_profile.h **** * \addtogroup group_energy_profiler
  17:Generated_Source\PSoC6\pdl\drivers\peripheral\profile/cy_profile.h **** * \{
  18:Generated_Source\PSoC6\pdl\drivers\peripheral\profile/cy_profile.h **** * 
  19:Generated_Source\PSoC6\pdl\drivers\peripheral\profile/cy_profile.h **** * The energy profiler driver is an API for configuring and using the profile 
  20:Generated_Source\PSoC6\pdl\drivers\peripheral\profile/cy_profile.h **** * hardware block. 
  21:Generated_Source\PSoC6\pdl\drivers\peripheral\profile/cy_profile.h **** *
  22:Generated_Source\PSoC6\pdl\drivers\peripheral\profile/cy_profile.h **** * The functions and other declarations used in this driver are in cy_profile.h. 
  23:Generated_Source\PSoC6\pdl\drivers\peripheral\profile/cy_profile.h **** * You can include cy_pdl.h (ModusToolbox only) to get access to all functions 
  24:Generated_Source\PSoC6\pdl\drivers\peripheral\profile/cy_profile.h **** * and declarations in the PDL. 
  25:Generated_Source\PSoC6\pdl\drivers\peripheral\profile/cy_profile.h **** *
  26:Generated_Source\PSoC6\pdl\drivers\peripheral\profile/cy_profile.h **** * The profile block enables measurement of the signal activity
  27:Generated_Source\PSoC6\pdl\drivers\peripheral\profile/cy_profile.h **** * of select peripherals and monitor sources during a measurement window. Using
  28:Generated_Source\PSoC6\pdl\drivers\peripheral\profile/cy_profile.h **** * these measurements, you can construct a profile of the energy consumed
ARM GAS  C:\Users\Rolf\AppData\Local\Temp\ccEpnmfk.s 			page 8


  29:Generated_Source\PSoC6\pdl\drivers\peripheral\profile/cy_profile.h **** * in the device by scaling the individual peripheral activities with appropriate
  30:Generated_Source\PSoC6\pdl\drivers\peripheral\profile/cy_profile.h **** * scaling (weight) factors. This gives the application the ability to monitor
  31:Generated_Source\PSoC6\pdl\drivers\peripheral\profile/cy_profile.h **** * the energy consumed by the internal resources with minimal CPU overhead and
  32:Generated_Source\PSoC6\pdl\drivers\peripheral\profile/cy_profile.h **** * without external monitoring hardware.
  33:Generated_Source\PSoC6\pdl\drivers\peripheral\profile/cy_profile.h **** *
  34:Generated_Source\PSoC6\pdl\drivers\peripheral\profile/cy_profile.h **** * \section group_profile_details Details
  35:Generated_Source\PSoC6\pdl\drivers\peripheral\profile/cy_profile.h **** *
  36:Generated_Source\PSoC6\pdl\drivers\peripheral\profile/cy_profile.h **** * \subsection group_profile_hardware Profile Hardware
  37:Generated_Source\PSoC6\pdl\drivers\peripheral\profile/cy_profile.h **** *
  38:Generated_Source\PSoC6\pdl\drivers\peripheral\profile/cy_profile.h **** * The profile hardware consists of a number of profile counters that accept specific
  39:Generated_Source\PSoC6\pdl\drivers\peripheral\profile/cy_profile.h **** * triggers for incrementing the count value. This allows the events of the source 
  40:Generated_Source\PSoC6\pdl\drivers\peripheral\profile/cy_profile.h **** * (such as the number of SCB0 bus accesses or the duration of time the BLE RX radio
  41:Generated_Source\PSoC6\pdl\drivers\peripheral\profile/cy_profile.h **** * is active) to be counted during the measurement window. The available monitor 
  42:Generated_Source\PSoC6\pdl\drivers\peripheral\profile/cy_profile.h **** * sources in the device can be found in the en_ep_mon_sel_t enum in the device 
  43:Generated_Source\PSoC6\pdl\drivers\peripheral\profile/cy_profile.h **** * configuration file (e.g. psoc62_config.h). These can be sourced to any of the
  44:Generated_Source\PSoC6\pdl\drivers\peripheral\profile/cy_profile.h **** * profile counters as triggers. There are two methods of using the monitor sources
  45:Generated_Source\PSoC6\pdl\drivers\peripheral\profile/cy_profile.h **** * in a profile counter.
  46:Generated_Source\PSoC6\pdl\drivers\peripheral\profile/cy_profile.h **** *
  47:Generated_Source\PSoC6\pdl\drivers\peripheral\profile/cy_profile.h **** * - Event: The count value is incremented when a pulse event signal is seen by the
  48:Generated_Source\PSoC6\pdl\drivers\peripheral\profile/cy_profile.h **** *   counter. This type of monitoring is suitable when the monitoring source of 
  49:Generated_Source\PSoC6\pdl\drivers\peripheral\profile/cy_profile.h **** *   interest needs to count the discrete events (such as the number of flash read 
  50:Generated_Source\PSoC6\pdl\drivers\peripheral\profile/cy_profile.h **** *   accesses) happening in the measurement window.
  51:Generated_Source\PSoC6\pdl\drivers\peripheral\profile/cy_profile.h **** *
  52:Generated_Source\PSoC6\pdl\drivers\peripheral\profile/cy_profile.h **** * - Duration: The count value is incremented at every clock edge while the monitor
  53:Generated_Source\PSoC6\pdl\drivers\peripheral\profile/cy_profile.h **** *   signal is high. This type of monitoring is suitable when a signal is active for
  54:Generated_Source\PSoC6\pdl\drivers\peripheral\profile/cy_profile.h **** *   a finite amount of time (such as the time the BLE TX radio is active) and the
  55:Generated_Source\PSoC6\pdl\drivers\peripheral\profile/cy_profile.h **** *   duration must be expressed as number of clock cycles in the measurement window.
  56:Generated_Source\PSoC6\pdl\drivers\peripheral\profile/cy_profile.h **** *
  57:Generated_Source\PSoC6\pdl\drivers\peripheral\profile/cy_profile.h **** * Many of the available monitor sources are suitable for event type monitoring.
  58:Generated_Source\PSoC6\pdl\drivers\peripheral\profile/cy_profile.h **** * Using a duration type on these signals may not give valuable information. Review 
  59:Generated_Source\PSoC6\pdl\drivers\peripheral\profile/cy_profile.h **** * the device TRM for more information on the monitor sources and detail on how they
  60:Generated_Source\PSoC6\pdl\drivers\peripheral\profile/cy_profile.h **** * should be used.
  61:Generated_Source\PSoC6\pdl\drivers\peripheral\profile/cy_profile.h **** *
  62:Generated_Source\PSoC6\pdl\drivers\peripheral\profile/cy_profile.h **** * \subsection group_profile_measurement_types Measurement Types
  63:Generated_Source\PSoC6\pdl\drivers\peripheral\profile/cy_profile.h **** *
  64:Generated_Source\PSoC6\pdl\drivers\peripheral\profile/cy_profile.h **** * Depending on the item of interest, energy measurement can be performed by using
  65:Generated_Source\PSoC6\pdl\drivers\peripheral\profile/cy_profile.h **** * the following methods.
  66:Generated_Source\PSoC6\pdl\drivers\peripheral\profile/cy_profile.h **** *
  67:Generated_Source\PSoC6\pdl\drivers\peripheral\profile/cy_profile.h **** * - Continuous measurement: A profile counter can be assigned a monitor signal of
  68:Generated_Source\PSoC6\pdl\drivers\peripheral\profile/cy_profile.h **** *   constant 1 (PROFILE_ONE), which sets the counter to increment at every (assigned)
  69:Generated_Source\PSoC6\pdl\drivers\peripheral\profile/cy_profile.h **** *   clock cycle. This can be used to give a reference time for the measurement window
  70:Generated_Source\PSoC6\pdl\drivers\peripheral\profile/cy_profile.h **** *   and also allows the construction of timestamps. For example, a software controlled
  71:Generated_Source\PSoC6\pdl\drivers\peripheral\profile/cy_profile.h **** *   GPIO can be "timestamped" by reading the counter value (on the fly) before it is
  72:Generated_Source\PSoC6\pdl\drivers\peripheral\profile/cy_profile.h **** *   toggled. When the measurement window ends, the energy contribution caused by the
  73:Generated_Source\PSoC6\pdl\drivers\peripheral\profile/cy_profile.h **** *   GPIO toggle can be incorporated into the final calculation.
  74:Generated_Source\PSoC6\pdl\drivers\peripheral\profile/cy_profile.h **** *
  75:Generated_Source\PSoC6\pdl\drivers\peripheral\profile/cy_profile.h **** * - Event measurement: Monitored events happening in a measurement window can be 
  76:Generated_Source\PSoC6\pdl\drivers\peripheral\profile/cy_profile.h **** *   used to increment a profile counter. This gives the activity numbers, which can
  77:Generated_Source\PSoC6\pdl\drivers\peripheral\profile/cy_profile.h **** *   then be multiplied by the instantaneous power numbers associated with the source
  78:Generated_Source\PSoC6\pdl\drivers\peripheral\profile/cy_profile.h **** *   to give the average energy consumption (Energy = Power x time). For example, the 
  79:Generated_Source\PSoC6\pdl\drivers\peripheral\profile/cy_profile.h **** *   energy consumed by an Operating System (OS) task can be estimated by monitoring
  80:Generated_Source\PSoC6\pdl\drivers\peripheral\profile/cy_profile.h **** *   the processor's active cycle count (E.g. CPUSS_MONITOR_CM4) and the flash read
  81:Generated_Source\PSoC6\pdl\drivers\peripheral\profile/cy_profile.h **** *   accesses (CPUSS_MONITOR_FLASH). Note that these activity numbers can also be 
  82:Generated_Source\PSoC6\pdl\drivers\peripheral\profile/cy_profile.h **** *   timestamped using the continuous measurement method to differentiate between the
  83:Generated_Source\PSoC6\pdl\drivers\peripheral\profile/cy_profile.h **** *   different task switches. The activity numbers are then multiplied by the associated
  84:Generated_Source\PSoC6\pdl\drivers\peripheral\profile/cy_profile.h **** *   processor and flash access power numbers to give the average energy consumed by
  85:Generated_Source\PSoC6\pdl\drivers\peripheral\profile/cy_profile.h **** *   that task.
ARM GAS  C:\Users\Rolf\AppData\Local\Temp\ccEpnmfk.s 			page 9


  86:Generated_Source\PSoC6\pdl\drivers\peripheral\profile/cy_profile.h **** *
  87:Generated_Source\PSoC6\pdl\drivers\peripheral\profile/cy_profile.h **** * - Duration measurement: A peripheral event such as the SMIF select signal can be 
  88:Generated_Source\PSoC6\pdl\drivers\peripheral\profile/cy_profile.h **** *   used by a profile counter to measure the time spent on XIP communication through the 
  89:Generated_Source\PSoC6\pdl\drivers\peripheral\profile/cy_profile.h **** *   SPI interface. This activity number can then be multiplied by the power associated
  90:Generated_Source\PSoC6\pdl\drivers\peripheral\profile/cy_profile.h **** *   with that activity to give the average energy consumed by that block during the
  91:Generated_Source\PSoC6\pdl\drivers\peripheral\profile/cy_profile.h **** *   measurement window. This type of monitoring should be performed only for signals
  92:Generated_Source\PSoC6\pdl\drivers\peripheral\profile/cy_profile.h **** *   that are difficult to track in software. For example, a combination of interrupts
  93:Generated_Source\PSoC6\pdl\drivers\peripheral\profile/cy_profile.h **** *   and timestamps can be used to track the activity of many peripherals in a continuous
  94:Generated_Source\PSoC6\pdl\drivers\peripheral\profile/cy_profile.h **** *   monitoring model. However tracking the activity of signals such the BLE radio
  95:Generated_Source\PSoC6\pdl\drivers\peripheral\profile/cy_profile.h **** *   should be done using the duration measurement method.
  96:Generated_Source\PSoC6\pdl\drivers\peripheral\profile/cy_profile.h **** *
  97:Generated_Source\PSoC6\pdl\drivers\peripheral\profile/cy_profile.h **** * - Low power measurement: The profile counters do not support measurement during chip 
  98:Generated_Source\PSoC6\pdl\drivers\peripheral\profile/cy_profile.h **** *   Deep Sleep, Hibernate, and off states. I.e. the profile counters are meant for active
  99:Generated_Source\PSoC6\pdl\drivers\peripheral\profile/cy_profile.h **** *   run-time measurements only. To measure the time spent in low power modes (LPM),
 100:Generated_Source\PSoC6\pdl\drivers\peripheral\profile/cy_profile.h **** *   a real-time clock (RTC) should be used. Take a timestamp before LPM entry and a 
 101:Generated_Source\PSoC6\pdl\drivers\peripheral\profile/cy_profile.h **** *   timestamp upon LPM exit in a continuous measurement model. Then multiply the difference
 102:Generated_Source\PSoC6\pdl\drivers\peripheral\profile/cy_profile.h **** *   by the appropriate LPM power numbers.
 103:Generated_Source\PSoC6\pdl\drivers\peripheral\profile/cy_profile.h **** *
 104:Generated_Source\PSoC6\pdl\drivers\peripheral\profile/cy_profile.h **** * \subsection group_profile_usage Driver Usage
 105:Generated_Source\PSoC6\pdl\drivers\peripheral\profile/cy_profile.h **** *
 106:Generated_Source\PSoC6\pdl\drivers\peripheral\profile/cy_profile.h **** * At the highest level, the energy profiler must perform the following steps to 
 107:Generated_Source\PSoC6\pdl\drivers\peripheral\profile/cy_profile.h **** * obtain a measurement:
 108:Generated_Source\PSoC6\pdl\drivers\peripheral\profile/cy_profile.h **** *
 109:Generated_Source\PSoC6\pdl\drivers\peripheral\profile/cy_profile.h **** *  1. Initialize the profile hardware block.
 110:Generated_Source\PSoC6\pdl\drivers\peripheral\profile/cy_profile.h **** *  2. Initialize the profile interrupt (profile_interrupt_IRQn).
 111:Generated_Source\PSoC6\pdl\drivers\peripheral\profile/cy_profile.h **** *  3. Configure, initialize, and enable the profile counters.
 112:Generated_Source\PSoC6\pdl\drivers\peripheral\profile/cy_profile.h **** *  4. Enable the profile interrupt and start the profiling/measurement window.
 113:Generated_Source\PSoC6\pdl\drivers\peripheral\profile/cy_profile.h **** *  5. Perform run-time reads of the counters (if needed).
 114:Generated_Source\PSoC6\pdl\drivers\peripheral\profile/cy_profile.h **** *  6. Disable the profile interrupt and stop the profiling/measurement window.
 115:Generated_Source\PSoC6\pdl\drivers\peripheral\profile/cy_profile.h **** *  7. Read the counters and gather the results.
 116:Generated_Source\PSoC6\pdl\drivers\peripheral\profile/cy_profile.h **** *  8. Calculate the energy consumption.
 117:Generated_Source\PSoC6\pdl\drivers\peripheral\profile/cy_profile.h **** *
 118:Generated_Source\PSoC6\pdl\drivers\peripheral\profile/cy_profile.h **** * Refer to the SysInt driver on the details of configuring the profile hardware interrupt.
 119:Generated_Source\PSoC6\pdl\drivers\peripheral\profile/cy_profile.h **** *
 120:Generated_Source\PSoC6\pdl\drivers\peripheral\profile/cy_profile.h **** * The profile interrupt triggers when a counter overflow event is detected on any of the
 121:Generated_Source\PSoC6\pdl\drivers\peripheral\profile/cy_profile.h **** * enabled profile counters. A sample interrupt service routine Cy_Profile_ISR() is provided,
 122:Generated_Source\PSoC6\pdl\drivers\peripheral\profile/cy_profile.h **** * which can be used to update the internal counter states stored in RAM. Refer to the
 123:Generated_Source\PSoC6\pdl\drivers\peripheral\profile/cy_profile.h **** * Configuration Considerations for more information.
 124:Generated_Source\PSoC6\pdl\drivers\peripheral\profile/cy_profile.h **** *
 125:Generated_Source\PSoC6\pdl\drivers\peripheral\profile/cy_profile.h **** * \section group_profile_configuration Configuration Considerations
 126:Generated_Source\PSoC6\pdl\drivers\peripheral\profile/cy_profile.h **** * 
 127:Generated_Source\PSoC6\pdl\drivers\peripheral\profile/cy_profile.h **** * Each counter is a 32-bit register that counts either a number of clock cycles, 
 128:Generated_Source\PSoC6\pdl\drivers\peripheral\profile/cy_profile.h **** * or a number of events. Overflowing the 32-bit register is possible. To address
 129:Generated_Source\PSoC6\pdl\drivers\peripheral\profile/cy_profile.h **** * this issue, the driver implements a 32-bit overflow counter. Combined with the 32-bit
 130:Generated_Source\PSoC6\pdl\drivers\peripheral\profile/cy_profile.h **** * register, this gives a 64-bit counter for each monitored source. 
 131:Generated_Source\PSoC6\pdl\drivers\peripheral\profile/cy_profile.h **** *
 132:Generated_Source\PSoC6\pdl\drivers\peripheral\profile/cy_profile.h **** * When an overflow occurs, the profile hardware generates an interrupt. The interrupt is 
 133:Generated_Source\PSoC6\pdl\drivers\peripheral\profile/cy_profile.h **** * configured using the SysInt driver, where the sample interrupt handler Cy_Profile_ISR()
 134:Generated_Source\PSoC6\pdl\drivers\peripheral\profile/cy_profile.h **** * can be used as the ISR. The ISR increments the overflow counter for each profiling counter 
 135:Generated_Source\PSoC6\pdl\drivers\peripheral\profile/cy_profile.h **** * and clears the interrupt.
 136:Generated_Source\PSoC6\pdl\drivers\peripheral\profile/cy_profile.h **** *
 137:Generated_Source\PSoC6\pdl\drivers\peripheral\profile/cy_profile.h **** * \section group_profile_more_information More Information
 138:Generated_Source\PSoC6\pdl\drivers\peripheral\profile/cy_profile.h **** *
 139:Generated_Source\PSoC6\pdl\drivers\peripheral\profile/cy_profile.h **** * See the profiler chapter of the device technical reference manual (TRM).
 140:Generated_Source\PSoC6\pdl\drivers\peripheral\profile/cy_profile.h **** *
 141:Generated_Source\PSoC6\pdl\drivers\peripheral\profile/cy_profile.h **** * \section group_profile_MISRA MISRA-C Compliance
 142:Generated_Source\PSoC6\pdl\drivers\peripheral\profile/cy_profile.h **** * <table class="doxtable">
ARM GAS  C:\Users\Rolf\AppData\Local\Temp\ccEpnmfk.s 			page 10


 143:Generated_Source\PSoC6\pdl\drivers\peripheral\profile/cy_profile.h **** *   <tr>
 144:Generated_Source\PSoC6\pdl\drivers\peripheral\profile/cy_profile.h **** *     <th>MISRA Rule</th>
 145:Generated_Source\PSoC6\pdl\drivers\peripheral\profile/cy_profile.h **** *     <th>Rule Class (Required/Advisory)</th>
 146:Generated_Source\PSoC6\pdl\drivers\peripheral\profile/cy_profile.h **** *     <th>Rule Description</th>
 147:Generated_Source\PSoC6\pdl\drivers\peripheral\profile/cy_profile.h **** *     <th>Description of Deviation(s)</th>
 148:Generated_Source\PSoC6\pdl\drivers\peripheral\profile/cy_profile.h **** *   </tr>
 149:Generated_Source\PSoC6\pdl\drivers\peripheral\profile/cy_profile.h **** *   <tr>
 150:Generated_Source\PSoC6\pdl\drivers\peripheral\profile/cy_profile.h **** *     <td>12.4</td>
 151:Generated_Source\PSoC6\pdl\drivers\peripheral\profile/cy_profile.h **** *     <td>R</td>
 152:Generated_Source\PSoC6\pdl\drivers\peripheral\profile/cy_profile.h **** *     <td>Right hand operand of '&&' or '||' is an expression with possible side effects.</td>
 153:Generated_Source\PSoC6\pdl\drivers\peripheral\profile/cy_profile.h **** *     <td>Function-like macros are used to achieve more efficient code.</td>
 154:Generated_Source\PSoC6\pdl\drivers\peripheral\profile/cy_profile.h **** *   </tr>
 155:Generated_Source\PSoC6\pdl\drivers\peripheral\profile/cy_profile.h **** *   <tr>
 156:Generated_Source\PSoC6\pdl\drivers\peripheral\profile/cy_profile.h **** *     <td>16.7</td>
 157:Generated_Source\PSoC6\pdl\drivers\peripheral\profile/cy_profile.h **** *     <td>A</td>
 158:Generated_Source\PSoC6\pdl\drivers\peripheral\profile/cy_profile.h **** *     <td>A pointer parameter can be of type 'pointer to const'.</td>
 159:Generated_Source\PSoC6\pdl\drivers\peripheral\profile/cy_profile.h **** *     <td>The pointer is cast for comparison purposes and thus can't be a const.</td>
 160:Generated_Source\PSoC6\pdl\drivers\peripheral\profile/cy_profile.h **** *   </tr>
 161:Generated_Source\PSoC6\pdl\drivers\peripheral\profile/cy_profile.h **** * </table>
 162:Generated_Source\PSoC6\pdl\drivers\peripheral\profile/cy_profile.h **** *
 163:Generated_Source\PSoC6\pdl\drivers\peripheral\profile/cy_profile.h **** * \section group_profile_changelog Changelog
 164:Generated_Source\PSoC6\pdl\drivers\peripheral\profile/cy_profile.h **** * <table class="doxtable">
 165:Generated_Source\PSoC6\pdl\drivers\peripheral\profile/cy_profile.h **** *   <tr><th>Version</th><th>Changes</th><th>Reason for Change</th></tr>
 166:Generated_Source\PSoC6\pdl\drivers\peripheral\profile/cy_profile.h **** *   <tr>
 167:Generated_Source\PSoC6\pdl\drivers\peripheral\profile/cy_profile.h **** *     <td rowspan="3">1.10</td>
 168:Generated_Source\PSoC6\pdl\drivers\peripheral\profile/cy_profile.h **** *     <td>Flattened the organization of the driver source code into the single source directory and
 169:Generated_Source\PSoC6\pdl\drivers\peripheral\profile/cy_profile.h **** *     <td>Driver library directory-structure simplification.</td>
 170:Generated_Source\PSoC6\pdl\drivers\peripheral\profile/cy_profile.h **** *   </tr>
 171:Generated_Source\PSoC6\pdl\drivers\peripheral\profile/cy_profile.h **** *   <tr>
 172:Generated_Source\PSoC6\pdl\drivers\peripheral\profile/cy_profile.h **** *     <td>Added register access layer. Use register access macros instead
 173:Generated_Source\PSoC6\pdl\drivers\peripheral\profile/cy_profile.h **** *         of direct register access using dereferenced pointers.</td>
 174:Generated_Source\PSoC6\pdl\drivers\peripheral\profile/cy_profile.h **** *     <td>Makes register access device-independent, so that the PDL does 
 175:Generated_Source\PSoC6\pdl\drivers\peripheral\profile/cy_profile.h **** *         not need to be recompiled for each supported part number.</td>
 176:Generated_Source\PSoC6\pdl\drivers\peripheral\profile/cy_profile.h **** *   </tr>
 177:Generated_Source\PSoC6\pdl\drivers\peripheral\profile/cy_profile.h **** *   <tr>
 178:Generated_Source\PSoC6\pdl\drivers\peripheral\profile/cy_profile.h **** *     <td>Added parameter check asserts.</td>
 179:Generated_Source\PSoC6\pdl\drivers\peripheral\profile/cy_profile.h **** *     <td>Driver defect fix.</td>
 180:Generated_Source\PSoC6\pdl\drivers\peripheral\profile/cy_profile.h **** *   </tr>
 181:Generated_Source\PSoC6\pdl\drivers\peripheral\profile/cy_profile.h **** *   <tr>
 182:Generated_Source\PSoC6\pdl\drivers\peripheral\profile/cy_profile.h **** *     <td>1.0</td>
 183:Generated_Source\PSoC6\pdl\drivers\peripheral\profile/cy_profile.h **** *     <td>Initial version</td>
 184:Generated_Source\PSoC6\pdl\drivers\peripheral\profile/cy_profile.h **** *     <td></td>
 185:Generated_Source\PSoC6\pdl\drivers\peripheral\profile/cy_profile.h **** *   </tr>
 186:Generated_Source\PSoC6\pdl\drivers\peripheral\profile/cy_profile.h **** * </table>
 187:Generated_Source\PSoC6\pdl\drivers\peripheral\profile/cy_profile.h **** *
 188:Generated_Source\PSoC6\pdl\drivers\peripheral\profile/cy_profile.h **** * \defgroup group_profile_macros Macros
 189:Generated_Source\PSoC6\pdl\drivers\peripheral\profile/cy_profile.h **** * \defgroup group_profile_functions Functions
 190:Generated_Source\PSoC6\pdl\drivers\peripheral\profile/cy_profile.h **** * \{
 191:Generated_Source\PSoC6\pdl\drivers\peripheral\profile/cy_profile.h **** *   \defgroup group_profile_functions_interrupt    Interrupt Functions
 192:Generated_Source\PSoC6\pdl\drivers\peripheral\profile/cy_profile.h **** *   \defgroup group_profile_functions_general      General Functions
 193:Generated_Source\PSoC6\pdl\drivers\peripheral\profile/cy_profile.h **** *   \defgroup group_profile_functions_counter      Counter Functions
 194:Generated_Source\PSoC6\pdl\drivers\peripheral\profile/cy_profile.h **** *   \defgroup group_profile_functions_calculation  Calculation Functions
 195:Generated_Source\PSoC6\pdl\drivers\peripheral\profile/cy_profile.h **** * \}
 196:Generated_Source\PSoC6\pdl\drivers\peripheral\profile/cy_profile.h **** * \defgroup group_profile_data_structures Data Structures
 197:Generated_Source\PSoC6\pdl\drivers\peripheral\profile/cy_profile.h **** * \defgroup group_profile_enums Enumerated Types
 198:Generated_Source\PSoC6\pdl\drivers\peripheral\profile/cy_profile.h **** */
 199:Generated_Source\PSoC6\pdl\drivers\peripheral\profile/cy_profile.h **** 
ARM GAS  C:\Users\Rolf\AppData\Local\Temp\ccEpnmfk.s 			page 11


 200:Generated_Source\PSoC6\pdl\drivers\peripheral\profile/cy_profile.h **** #if !defined(CY_PROFILE_H)
 201:Generated_Source\PSoC6\pdl\drivers\peripheral\profile/cy_profile.h **** #define CY_PROFILE_H
 202:Generated_Source\PSoC6\pdl\drivers\peripheral\profile/cy_profile.h **** 
 203:Generated_Source\PSoC6\pdl\drivers\peripheral\profile/cy_profile.h **** #include "cy_device.h"
 204:Generated_Source\PSoC6\pdl\drivers\peripheral\profile/cy_profile.h **** #include "cy_device_headers.h"
 205:Generated_Source\PSoC6\pdl\drivers\peripheral\profile/cy_profile.h **** #include "cy_syslib.h"
 206:Generated_Source\PSoC6\pdl\drivers\peripheral\profile/cy_profile.h **** #include <stddef.h>
 207:Generated_Source\PSoC6\pdl\drivers\peripheral\profile/cy_profile.h **** 
 208:Generated_Source\PSoC6\pdl\drivers\peripheral\profile/cy_profile.h **** #ifdef CY_IP_MXPROFILE
 209:Generated_Source\PSoC6\pdl\drivers\peripheral\profile/cy_profile.h **** 
 210:Generated_Source\PSoC6\pdl\drivers\peripheral\profile/cy_profile.h **** #if defined(__cplusplus)
 211:Generated_Source\PSoC6\pdl\drivers\peripheral\profile/cy_profile.h **** extern "C" {
 212:Generated_Source\PSoC6\pdl\drivers\peripheral\profile/cy_profile.h **** #endif /* __cplusplus */
 213:Generated_Source\PSoC6\pdl\drivers\peripheral\profile/cy_profile.h **** 
 214:Generated_Source\PSoC6\pdl\drivers\peripheral\profile/cy_profile.h **** /** \addtogroup group_profile_macros
 215:Generated_Source\PSoC6\pdl\drivers\peripheral\profile/cy_profile.h **** * \{
 216:Generated_Source\PSoC6\pdl\drivers\peripheral\profile/cy_profile.h **** */
 217:Generated_Source\PSoC6\pdl\drivers\peripheral\profile/cy_profile.h **** 
 218:Generated_Source\PSoC6\pdl\drivers\peripheral\profile/cy_profile.h **** /** Driver major version */
 219:Generated_Source\PSoC6\pdl\drivers\peripheral\profile/cy_profile.h **** #define CY_PROFILE_DRV_VERSION_MAJOR  1
 220:Generated_Source\PSoC6\pdl\drivers\peripheral\profile/cy_profile.h **** 
 221:Generated_Source\PSoC6\pdl\drivers\peripheral\profile/cy_profile.h **** /** Driver minor version */
 222:Generated_Source\PSoC6\pdl\drivers\peripheral\profile/cy_profile.h **** #define CY_PROFILE_DRV_VERSION_MINOR  10
 223:Generated_Source\PSoC6\pdl\drivers\peripheral\profile/cy_profile.h **** 
 224:Generated_Source\PSoC6\pdl\drivers\peripheral\profile/cy_profile.h **** /** Profile driver identifier */
 225:Generated_Source\PSoC6\pdl\drivers\peripheral\profile/cy_profile.h **** #define CY_PROFILE_ID   CY_PDL_DRV_ID(0x1EU)
 226:Generated_Source\PSoC6\pdl\drivers\peripheral\profile/cy_profile.h **** 
 227:Generated_Source\PSoC6\pdl\drivers\peripheral\profile/cy_profile.h **** /** Start profiling command for the CMD register */
 228:Generated_Source\PSoC6\pdl\drivers\peripheral\profile/cy_profile.h **** #define CY_PROFILE_START_TR    1UL  
 229:Generated_Source\PSoC6\pdl\drivers\peripheral\profile/cy_profile.h **** 
 230:Generated_Source\PSoC6\pdl\drivers\peripheral\profile/cy_profile.h **** /** Stop profiling command for the CMD register */
 231:Generated_Source\PSoC6\pdl\drivers\peripheral\profile/cy_profile.h **** #define CY_PROFILE_STOP_TR     2UL  
 232:Generated_Source\PSoC6\pdl\drivers\peripheral\profile/cy_profile.h **** 
 233:Generated_Source\PSoC6\pdl\drivers\peripheral\profile/cy_profile.h **** /** Command to clear all counter registers to 0 */
 234:Generated_Source\PSoC6\pdl\drivers\peripheral\profile/cy_profile.h **** #define CY_PROFILE_CLR_ALL_CNT 0x100UL
 235:Generated_Source\PSoC6\pdl\drivers\peripheral\profile/cy_profile.h **** 
 236:Generated_Source\PSoC6\pdl\drivers\peripheral\profile/cy_profile.h **** /** \} group_profile_macros */
 237:Generated_Source\PSoC6\pdl\drivers\peripheral\profile/cy_profile.h **** 
 238:Generated_Source\PSoC6\pdl\drivers\peripheral\profile/cy_profile.h **** /***************************************
 239:Generated_Source\PSoC6\pdl\drivers\peripheral\profile/cy_profile.h **** *        Constants
 240:Generated_Source\PSoC6\pdl\drivers\peripheral\profile/cy_profile.h **** ***************************************/
 241:Generated_Source\PSoC6\pdl\drivers\peripheral\profile/cy_profile.h **** 
 242:Generated_Source\PSoC6\pdl\drivers\peripheral\profile/cy_profile.h **** /** \cond INTERNAL */
 243:Generated_Source\PSoC6\pdl\drivers\peripheral\profile/cy_profile.h **** 
 244:Generated_Source\PSoC6\pdl\drivers\peripheral\profile/cy_profile.h **** #define CY_PROFILE_PRFL_CNT_NR                  (8u)
 245:Generated_Source\PSoC6\pdl\drivers\peripheral\profile/cy_profile.h **** 
 246:Generated_Source\PSoC6\pdl\drivers\peripheral\profile/cy_profile.h **** /* Parameter check macros */
 247:Generated_Source\PSoC6\pdl\drivers\peripheral\profile/cy_profile.h **** #define CY_PROFILE_IS_MONITOR_VALID(monitor)    ((uint32_t)CY_EP_MONITOR_COUNT > ((uint32_t)(monito
 248:Generated_Source\PSoC6\pdl\drivers\peripheral\profile/cy_profile.h **** #define CY_PROFILE_IS_DURATION_VALID(duration)  (((duration) == CY_PROFILE_EVENT) || \
 249:Generated_Source\PSoC6\pdl\drivers\peripheral\profile/cy_profile.h ****                                                  ((duration) == CY_PROFILE_DURATION))
 250:Generated_Source\PSoC6\pdl\drivers\peripheral\profile/cy_profile.h **** #define CY_PROFILE_IS_REFCLK_VALID(refClk)      (((refClk) == CY_PROFILE_CLK_TIMER) || \
 251:Generated_Source\PSoC6\pdl\drivers\peripheral\profile/cy_profile.h ****                                                  ((refClk) == CY_PROFILE_CLK_IMO) || \
 252:Generated_Source\PSoC6\pdl\drivers\peripheral\profile/cy_profile.h ****                                                  ((refClk) == CY_PROFILE_CLK_ECO) || \
 253:Generated_Source\PSoC6\pdl\drivers\peripheral\profile/cy_profile.h ****                                                  ((refClk) == CY_PROFILE_CLK_LF) || \
 254:Generated_Source\PSoC6\pdl\drivers\peripheral\profile/cy_profile.h ****                                                  ((refClk) == CY_PROFILE_CLK_HF) || \
 255:Generated_Source\PSoC6\pdl\drivers\peripheral\profile/cy_profile.h ****                                                  ((refClk) == CY_PROFILE_CLK_PERI))
 256:Generated_Source\PSoC6\pdl\drivers\peripheral\profile/cy_profile.h **** #define CY_PROFILE_IS_CNT_VALID(numCounters)    ((uint32_t)CY_PROFILE_PRFL_CNT_NR > (numCounters))
ARM GAS  C:\Users\Rolf\AppData\Local\Temp\ccEpnmfk.s 			page 12


 257:Generated_Source\PSoC6\pdl\drivers\peripheral\profile/cy_profile.h **** 
 258:Generated_Source\PSoC6\pdl\drivers\peripheral\profile/cy_profile.h **** /** \endcond */
 259:Generated_Source\PSoC6\pdl\drivers\peripheral\profile/cy_profile.h **** 
 260:Generated_Source\PSoC6\pdl\drivers\peripheral\profile/cy_profile.h **** /***************************************
 261:Generated_Source\PSoC6\pdl\drivers\peripheral\profile/cy_profile.h **** *        Enumerations
 262:Generated_Source\PSoC6\pdl\drivers\peripheral\profile/cy_profile.h **** ***************************************/
 263:Generated_Source\PSoC6\pdl\drivers\peripheral\profile/cy_profile.h **** 
 264:Generated_Source\PSoC6\pdl\drivers\peripheral\profile/cy_profile.h **** /**
 265:Generated_Source\PSoC6\pdl\drivers\peripheral\profile/cy_profile.h **** * \addtogroup group_profile_enums
 266:Generated_Source\PSoC6\pdl\drivers\peripheral\profile/cy_profile.h **** * \{
 267:Generated_Source\PSoC6\pdl\drivers\peripheral\profile/cy_profile.h **** */
 268:Generated_Source\PSoC6\pdl\drivers\peripheral\profile/cy_profile.h **** 
 269:Generated_Source\PSoC6\pdl\drivers\peripheral\profile/cy_profile.h **** /**
 270:Generated_Source\PSoC6\pdl\drivers\peripheral\profile/cy_profile.h **** * Profile counter reference clock source. Used when duration monitoring.
 271:Generated_Source\PSoC6\pdl\drivers\peripheral\profile/cy_profile.h **** */
 272:Generated_Source\PSoC6\pdl\drivers\peripheral\profile/cy_profile.h **** typedef enum 
 273:Generated_Source\PSoC6\pdl\drivers\peripheral\profile/cy_profile.h **** {
 274:Generated_Source\PSoC6\pdl\drivers\peripheral\profile/cy_profile.h ****     CY_PROFILE_CLK_TIMER  = 0, /**< Timer clock (TimerClk) */
 275:Generated_Source\PSoC6\pdl\drivers\peripheral\profile/cy_profile.h ****     CY_PROFILE_CLK_IMO    = 1, /**< Internal main oscillator (IMO) */
 276:Generated_Source\PSoC6\pdl\drivers\peripheral\profile/cy_profile.h ****     CY_PROFILE_CLK_ECO    = 2, /**< External crystal oscillator (ECO) */
 277:Generated_Source\PSoC6\pdl\drivers\peripheral\profile/cy_profile.h ****     CY_PROFILE_CLK_LF     = 3, /**< Low-frequency clock (LFCLK) */
 278:Generated_Source\PSoC6\pdl\drivers\peripheral\profile/cy_profile.h ****     CY_PROFILE_CLK_HF     = 4, /**< High-Frequency clock (HFCLK0) */
 279:Generated_Source\PSoC6\pdl\drivers\peripheral\profile/cy_profile.h ****     CY_PROFILE_CLK_PERI   = 5, /**< Peripheral clock (PeriClk) */
 280:Generated_Source\PSoC6\pdl\drivers\peripheral\profile/cy_profile.h **** } cy_en_profile_ref_clk_t;
 281:Generated_Source\PSoC6\pdl\drivers\peripheral\profile/cy_profile.h **** 
 282:Generated_Source\PSoC6\pdl\drivers\peripheral\profile/cy_profile.h **** /**
 283:Generated_Source\PSoC6\pdl\drivers\peripheral\profile/cy_profile.h **** * Monitor method type.
 284:Generated_Source\PSoC6\pdl\drivers\peripheral\profile/cy_profile.h **** */
 285:Generated_Source\PSoC6\pdl\drivers\peripheral\profile/cy_profile.h **** typedef enum 
 286:Generated_Source\PSoC6\pdl\drivers\peripheral\profile/cy_profile.h **** {
 287:Generated_Source\PSoC6\pdl\drivers\peripheral\profile/cy_profile.h ****     CY_PROFILE_EVENT    = 0,  /**< Count (edge-detected) module events  */
 288:Generated_Source\PSoC6\pdl\drivers\peripheral\profile/cy_profile.h ****     CY_PROFILE_DURATION = 1,  /**< Count (level) duration in clock cycles */
 289:Generated_Source\PSoC6\pdl\drivers\peripheral\profile/cy_profile.h **** } cy_en_profile_duration_t;
 290:Generated_Source\PSoC6\pdl\drivers\peripheral\profile/cy_profile.h **** 
 291:Generated_Source\PSoC6\pdl\drivers\peripheral\profile/cy_profile.h **** /** Profiler status codes */
 292:Generated_Source\PSoC6\pdl\drivers\peripheral\profile/cy_profile.h **** typedef enum 
 293:Generated_Source\PSoC6\pdl\drivers\peripheral\profile/cy_profile.h **** {
 294:Generated_Source\PSoC6\pdl\drivers\peripheral\profile/cy_profile.h ****     CY_PROFILE_SUCCESS = 0x00U,                                      /**< Operation completed succe
 295:Generated_Source\PSoC6\pdl\drivers\peripheral\profile/cy_profile.h ****     CY_PROFILE_BAD_PARAM = CY_PROFILE_ID | CY_PDL_STATUS_ERROR | 1UL /**< Invalid input parameters 
 296:Generated_Source\PSoC6\pdl\drivers\peripheral\profile/cy_profile.h **** 
 297:Generated_Source\PSoC6\pdl\drivers\peripheral\profile/cy_profile.h ****  } cy_en_profile_status_t;
 298:Generated_Source\PSoC6\pdl\drivers\peripheral\profile/cy_profile.h **** 
 299:Generated_Source\PSoC6\pdl\drivers\peripheral\profile/cy_profile.h ****  /** \} group_profile_enums */
 300:Generated_Source\PSoC6\pdl\drivers\peripheral\profile/cy_profile.h **** 
 301:Generated_Source\PSoC6\pdl\drivers\peripheral\profile/cy_profile.h **** /***************************************
 302:Generated_Source\PSoC6\pdl\drivers\peripheral\profile/cy_profile.h **** *       Configuration Structures
 303:Generated_Source\PSoC6\pdl\drivers\peripheral\profile/cy_profile.h **** ***************************************/
 304:Generated_Source\PSoC6\pdl\drivers\peripheral\profile/cy_profile.h **** 
 305:Generated_Source\PSoC6\pdl\drivers\peripheral\profile/cy_profile.h **** /**
 306:Generated_Source\PSoC6\pdl\drivers\peripheral\profile/cy_profile.h **** * \addtogroup group_profile_data_structures
 307:Generated_Source\PSoC6\pdl\drivers\peripheral\profile/cy_profile.h **** * \{
 308:Generated_Source\PSoC6\pdl\drivers\peripheral\profile/cy_profile.h **** */
 309:Generated_Source\PSoC6\pdl\drivers\peripheral\profile/cy_profile.h **** 
 310:Generated_Source\PSoC6\pdl\drivers\peripheral\profile/cy_profile.h **** /**
 311:Generated_Source\PSoC6\pdl\drivers\peripheral\profile/cy_profile.h **** * Profile counter control register structure. For each counter, holds the CTL register fields.
 312:Generated_Source\PSoC6\pdl\drivers\peripheral\profile/cy_profile.h **** */
 313:Generated_Source\PSoC6\pdl\drivers\peripheral\profile/cy_profile.h **** typedef struct
ARM GAS  C:\Users\Rolf\AppData\Local\Temp\ccEpnmfk.s 			page 13


 314:Generated_Source\PSoC6\pdl\drivers\peripheral\profile/cy_profile.h **** {
 315:Generated_Source\PSoC6\pdl\drivers\peripheral\profile/cy_profile.h ****     cy_en_profile_duration_t  cntDuration; /**< 0 = event; 1 = duration */
 316:Generated_Source\PSoC6\pdl\drivers\peripheral\profile/cy_profile.h ****     cy_en_profile_ref_clk_t   refClkSel;   /**< The reference clock used by the counter */
 317:Generated_Source\PSoC6\pdl\drivers\peripheral\profile/cy_profile.h ****     en_ep_mon_sel_t           monSel;      /**< The monitor signal to be observed by the counter */
 318:Generated_Source\PSoC6\pdl\drivers\peripheral\profile/cy_profile.h **** } cy_stc_profile_ctr_ctl_t; 
 319:Generated_Source\PSoC6\pdl\drivers\peripheral\profile/cy_profile.h **** 
 320:Generated_Source\PSoC6\pdl\drivers\peripheral\profile/cy_profile.h **** /**
 321:Generated_Source\PSoC6\pdl\drivers\peripheral\profile/cy_profile.h **** * Software structure for holding a profile counter status and configuration information.
 322:Generated_Source\PSoC6\pdl\drivers\peripheral\profile/cy_profile.h **** */
 323:Generated_Source\PSoC6\pdl\drivers\peripheral\profile/cy_profile.h **** typedef struct
 324:Generated_Source\PSoC6\pdl\drivers\peripheral\profile/cy_profile.h **** {
 325:Generated_Source\PSoC6\pdl\drivers\peripheral\profile/cy_profile.h ****     uint8_t                   ctrNum;      /**< Profile counter number */ 
 326:Generated_Source\PSoC6\pdl\drivers\peripheral\profile/cy_profile.h ****     uint8_t                   used;        /**< 0 = available; 1 = used */
 327:Generated_Source\PSoC6\pdl\drivers\peripheral\profile/cy_profile.h ****     cy_stc_profile_ctr_ctl_t  ctlRegVals;  /**< Initial counter CTL register settings */
 328:Generated_Source\PSoC6\pdl\drivers\peripheral\profile/cy_profile.h ****     PROFILE_CNT_STRUCT_Type * cntAddr;     /**< Base address of the counter instance registers */
 329:Generated_Source\PSoC6\pdl\drivers\peripheral\profile/cy_profile.h ****     uint32_t                  ctlReg;      /**< Current CTL register value */
 330:Generated_Source\PSoC6\pdl\drivers\peripheral\profile/cy_profile.h ****     uint32_t                  cntReg;      /**< Current CNT register value */
 331:Generated_Source\PSoC6\pdl\drivers\peripheral\profile/cy_profile.h ****     uint32_t                  overflow;    /**< Extension of cntReg to form a 64-bit counter value 
 332:Generated_Source\PSoC6\pdl\drivers\peripheral\profile/cy_profile.h ****     uint32_t                  weight;      /**< Weighting factor for the counter */
 333:Generated_Source\PSoC6\pdl\drivers\peripheral\profile/cy_profile.h **** } cy_stc_profile_ctr_t;
 334:Generated_Source\PSoC6\pdl\drivers\peripheral\profile/cy_profile.h **** 
 335:Generated_Source\PSoC6\pdl\drivers\peripheral\profile/cy_profile.h **** /**
 336:Generated_Source\PSoC6\pdl\drivers\peripheral\profile/cy_profile.h **** * Pointer to a structure holding the status information for a profile counter.
 337:Generated_Source\PSoC6\pdl\drivers\peripheral\profile/cy_profile.h **** */
 338:Generated_Source\PSoC6\pdl\drivers\peripheral\profile/cy_profile.h **** typedef cy_stc_profile_ctr_t * cy_stc_profile_ctr_ptr_t;
 339:Generated_Source\PSoC6\pdl\drivers\peripheral\profile/cy_profile.h **** /** \} group_profile_data_structures */
 340:Generated_Source\PSoC6\pdl\drivers\peripheral\profile/cy_profile.h **** 
 341:Generated_Source\PSoC6\pdl\drivers\peripheral\profile/cy_profile.h **** /**
 342:Generated_Source\PSoC6\pdl\drivers\peripheral\profile/cy_profile.h **** * \addtogroup group_profile_functions
 343:Generated_Source\PSoC6\pdl\drivers\peripheral\profile/cy_profile.h **** * \{
 344:Generated_Source\PSoC6\pdl\drivers\peripheral\profile/cy_profile.h **** */
 345:Generated_Source\PSoC6\pdl\drivers\peripheral\profile/cy_profile.h **** 
 346:Generated_Source\PSoC6\pdl\drivers\peripheral\profile/cy_profile.h **** /**
 347:Generated_Source\PSoC6\pdl\drivers\peripheral\profile/cy_profile.h **** * \addtogroup group_profile_functions_interrupt
 348:Generated_Source\PSoC6\pdl\drivers\peripheral\profile/cy_profile.h **** * \{
 349:Generated_Source\PSoC6\pdl\drivers\peripheral\profile/cy_profile.h **** */
 350:Generated_Source\PSoC6\pdl\drivers\peripheral\profile/cy_profile.h **** /* ========================================================================== */
 351:Generated_Source\PSoC6\pdl\drivers\peripheral\profile/cy_profile.h **** /* ====================    INTERRUPT FUNCTION SECTION    ==================== */
 352:Generated_Source\PSoC6\pdl\drivers\peripheral\profile/cy_profile.h **** /* ========================================================================== */
 353:Generated_Source\PSoC6\pdl\drivers\peripheral\profile/cy_profile.h **** void Cy_Profile_ISR(void);
 354:Generated_Source\PSoC6\pdl\drivers\peripheral\profile/cy_profile.h **** /** \} group_profile_functions_interrupt */
 355:Generated_Source\PSoC6\pdl\drivers\peripheral\profile/cy_profile.h **** 
 356:Generated_Source\PSoC6\pdl\drivers\peripheral\profile/cy_profile.h **** /**
 357:Generated_Source\PSoC6\pdl\drivers\peripheral\profile/cy_profile.h **** * \addtogroup group_profile_functions_general
 358:Generated_Source\PSoC6\pdl\drivers\peripheral\profile/cy_profile.h **** * \{
 359:Generated_Source\PSoC6\pdl\drivers\peripheral\profile/cy_profile.h **** */
 360:Generated_Source\PSoC6\pdl\drivers\peripheral\profile/cy_profile.h **** __STATIC_INLINE void Cy_Profile_Init(void);
 361:Generated_Source\PSoC6\pdl\drivers\peripheral\profile/cy_profile.h **** __STATIC_INLINE void Cy_Profile_DeInit(void);
 362:Generated_Source\PSoC6\pdl\drivers\peripheral\profile/cy_profile.h ****                 void Cy_Profile_StartProfiling(void);
 363:Generated_Source\PSoC6\pdl\drivers\peripheral\profile/cy_profile.h **** __STATIC_INLINE void Cy_Profile_StopProfiling(void);
 364:Generated_Source\PSoC6\pdl\drivers\peripheral\profile/cy_profile.h **** __STATIC_INLINE uint32_t Cy_Profile_IsProfiling(void);
 365:Generated_Source\PSoC6\pdl\drivers\peripheral\profile/cy_profile.h **** 
 366:Generated_Source\PSoC6\pdl\drivers\peripheral\profile/cy_profile.h **** 
 367:Generated_Source\PSoC6\pdl\drivers\peripheral\profile/cy_profile.h **** /* ========================================================================== */
 368:Generated_Source\PSoC6\pdl\drivers\peripheral\profile/cy_profile.h **** /* ===============    GENERAL PROFILE FUNCTIONS SECTION     ================= */
 369:Generated_Source\PSoC6\pdl\drivers\peripheral\profile/cy_profile.h **** /* ========================================================================== */
 370:Generated_Source\PSoC6\pdl\drivers\peripheral\profile/cy_profile.h **** /*******************************************************************************
ARM GAS  C:\Users\Rolf\AppData\Local\Temp\ccEpnmfk.s 			page 14


 371:Generated_Source\PSoC6\pdl\drivers\peripheral\profile/cy_profile.h **** * Function Name: Cy_Profile_Init
 372:Generated_Source\PSoC6\pdl\drivers\peripheral\profile/cy_profile.h **** ****************************************************************************//**
 373:Generated_Source\PSoC6\pdl\drivers\peripheral\profile/cy_profile.h **** *
 374:Generated_Source\PSoC6\pdl\drivers\peripheral\profile/cy_profile.h **** * Initializes and enables the profile hardware. 
 375:Generated_Source\PSoC6\pdl\drivers\peripheral\profile/cy_profile.h **** *
 376:Generated_Source\PSoC6\pdl\drivers\peripheral\profile/cy_profile.h **** * This function must be called once when energy profiling is desired. The 
 377:Generated_Source\PSoC6\pdl\drivers\peripheral\profile/cy_profile.h **** * operation does not start a profiling session.
 378:Generated_Source\PSoC6\pdl\drivers\peripheral\profile/cy_profile.h **** *
 379:Generated_Source\PSoC6\pdl\drivers\peripheral\profile/cy_profile.h **** * \note The profile interrupt must also be configured. \ref Cy_Profile_ISR() 
 380:Generated_Source\PSoC6\pdl\drivers\peripheral\profile/cy_profile.h **** * can be used as its handler.
 381:Generated_Source\PSoC6\pdl\drivers\peripheral\profile/cy_profile.h **** *
 382:Generated_Source\PSoC6\pdl\drivers\peripheral\profile/cy_profile.h **** * \funcusage
 383:Generated_Source\PSoC6\pdl\drivers\peripheral\profile/cy_profile.h **** * \snippet profile/profile_v1_0_sut_01.cydsn/main_cm4.c snippet_Cy_Profile_Init
 384:Generated_Source\PSoC6\pdl\drivers\peripheral\profile/cy_profile.h **** *
 385:Generated_Source\PSoC6\pdl\drivers\peripheral\profile/cy_profile.h **** *******************************************************************************/
 386:Generated_Source\PSoC6\pdl\drivers\peripheral\profile/cy_profile.h **** __STATIC_INLINE void Cy_Profile_Init(void)
 387:Generated_Source\PSoC6\pdl\drivers\peripheral\profile/cy_profile.h **** {
 388:Generated_Source\PSoC6\pdl\drivers\peripheral\profile/cy_profile.h ****     PROFILE_CTL = _VAL2FLD(PROFILE_CTL_ENABLED,  1UL/*enabled */) | 
 389:Generated_Source\PSoC6\pdl\drivers\peripheral\profile/cy_profile.h ****                   _VAL2FLD(PROFILE_CTL_WIN_MODE, 0UL/*start/stop mode*/);
 390:Generated_Source\PSoC6\pdl\drivers\peripheral\profile/cy_profile.h ****     PROFILE_INTR_MASK = 0UL; /* clear all counter interrupt mask bits */
 391:Generated_Source\PSoC6\pdl\drivers\peripheral\profile/cy_profile.h **** }
 392:Generated_Source\PSoC6\pdl\drivers\peripheral\profile/cy_profile.h **** 
 393:Generated_Source\PSoC6\pdl\drivers\peripheral\profile/cy_profile.h **** 
 394:Generated_Source\PSoC6\pdl\drivers\peripheral\profile/cy_profile.h **** /*******************************************************************************
 395:Generated_Source\PSoC6\pdl\drivers\peripheral\profile/cy_profile.h **** * Function Name: Cy_Profile_DeInit
 396:Generated_Source\PSoC6\pdl\drivers\peripheral\profile/cy_profile.h **** ****************************************************************************//**
 397:Generated_Source\PSoC6\pdl\drivers\peripheral\profile/cy_profile.h **** *
 398:Generated_Source\PSoC6\pdl\drivers\peripheral\profile/cy_profile.h **** * Clears the interrupt mask and disables the profile hardware. 
 399:Generated_Source\PSoC6\pdl\drivers\peripheral\profile/cy_profile.h **** *
 400:Generated_Source\PSoC6\pdl\drivers\peripheral\profile/cy_profile.h **** * This function should be called when energy profiling is no longer desired.
 401:Generated_Source\PSoC6\pdl\drivers\peripheral\profile/cy_profile.h **** *
 402:Generated_Source\PSoC6\pdl\drivers\peripheral\profile/cy_profile.h **** * \note The profile interrupt is not disabled by this operation and must be
 403:Generated_Source\PSoC6\pdl\drivers\peripheral\profile/cy_profile.h **** * disabled separately.
 404:Generated_Source\PSoC6\pdl\drivers\peripheral\profile/cy_profile.h **** *
 405:Generated_Source\PSoC6\pdl\drivers\peripheral\profile/cy_profile.h **** * \funcusage
 406:Generated_Source\PSoC6\pdl\drivers\peripheral\profile/cy_profile.h **** * \snippet profile/profile_v1_0_sut_01.cydsn/main_cm4.c snippet_Cy_Profile_DeInit
 407:Generated_Source\PSoC6\pdl\drivers\peripheral\profile/cy_profile.h **** *
 408:Generated_Source\PSoC6\pdl\drivers\peripheral\profile/cy_profile.h **** *******************************************************************************/
 409:Generated_Source\PSoC6\pdl\drivers\peripheral\profile/cy_profile.h **** __STATIC_INLINE void Cy_Profile_DeInit(void)
 410:Generated_Source\PSoC6\pdl\drivers\peripheral\profile/cy_profile.h **** {
 411:Generated_Source\PSoC6\pdl\drivers\peripheral\profile/cy_profile.h ****     PROFILE_CTL = _VAL2FLD(PROFILE_CTL_ENABLED, 0UL/*disabled */);
 412:Generated_Source\PSoC6\pdl\drivers\peripheral\profile/cy_profile.h ****     PROFILE_INTR_MASK = 0UL; /* clear all counter interrupt mask bits */
 413:Generated_Source\PSoC6\pdl\drivers\peripheral\profile/cy_profile.h **** }
 414:Generated_Source\PSoC6\pdl\drivers\peripheral\profile/cy_profile.h **** 
 415:Generated_Source\PSoC6\pdl\drivers\peripheral\profile/cy_profile.h **** 
 416:Generated_Source\PSoC6\pdl\drivers\peripheral\profile/cy_profile.h **** /*******************************************************************************
 417:Generated_Source\PSoC6\pdl\drivers\peripheral\profile/cy_profile.h **** * Function Name: Cy_Profile_StopProfiling
 418:Generated_Source\PSoC6\pdl\drivers\peripheral\profile/cy_profile.h **** ****************************************************************************//**
 419:Generated_Source\PSoC6\pdl\drivers\peripheral\profile/cy_profile.h **** *
 420:Generated_Source\PSoC6\pdl\drivers\peripheral\profile/cy_profile.h **** * Stops the profiling/measurement window.
 421:Generated_Source\PSoC6\pdl\drivers\peripheral\profile/cy_profile.h **** *
 422:Generated_Source\PSoC6\pdl\drivers\peripheral\profile/cy_profile.h **** * This operation prevents the enabled profile counters from counting.
 423:Generated_Source\PSoC6\pdl\drivers\peripheral\profile/cy_profile.h **** *
 424:Generated_Source\PSoC6\pdl\drivers\peripheral\profile/cy_profile.h **** * \note The profile interrupt should be disabled before calling this function.
 425:Generated_Source\PSoC6\pdl\drivers\peripheral\profile/cy_profile.h **** *
 426:Generated_Source\PSoC6\pdl\drivers\peripheral\profile/cy_profile.h **** * \funcusage
 427:Generated_Source\PSoC6\pdl\drivers\peripheral\profile/cy_profile.h **** * \snippet profile/profile_v1_0_sut_01.cydsn/main_cm4.c snippet_Cy_Profile_StopProfiling
ARM GAS  C:\Users\Rolf\AppData\Local\Temp\ccEpnmfk.s 			page 15


 428:Generated_Source\PSoC6\pdl\drivers\peripheral\profile/cy_profile.h **** *
 429:Generated_Source\PSoC6\pdl\drivers\peripheral\profile/cy_profile.h **** *******************************************************************************/
 430:Generated_Source\PSoC6\pdl\drivers\peripheral\profile/cy_profile.h **** __STATIC_INLINE void Cy_Profile_StopProfiling(void)
 431:Generated_Source\PSoC6\pdl\drivers\peripheral\profile/cy_profile.h **** {
 432:Generated_Source\PSoC6\pdl\drivers\peripheral\profile/cy_profile.h ****     PROFILE_CMD = CY_PROFILE_STOP_TR;
 433:Generated_Source\PSoC6\pdl\drivers\peripheral\profile/cy_profile.h **** }
 434:Generated_Source\PSoC6\pdl\drivers\peripheral\profile/cy_profile.h **** 
 435:Generated_Source\PSoC6\pdl\drivers\peripheral\profile/cy_profile.h **** 
 436:Generated_Source\PSoC6\pdl\drivers\peripheral\profile/cy_profile.h **** /*******************************************************************************
 437:Generated_Source\PSoC6\pdl\drivers\peripheral\profile/cy_profile.h **** * Function Name: Cy_Profile_IsProfiling
 438:Generated_Source\PSoC6\pdl\drivers\peripheral\profile/cy_profile.h **** ****************************************************************************//**
 439:Generated_Source\PSoC6\pdl\drivers\peripheral\profile/cy_profile.h **** *
 440:Generated_Source\PSoC6\pdl\drivers\peripheral\profile/cy_profile.h **** * Reports the active status of the profiling window.
 441:Generated_Source\PSoC6\pdl\drivers\peripheral\profile/cy_profile.h **** *
 442:Generated_Source\PSoC6\pdl\drivers\peripheral\profile/cy_profile.h **** * \return 0 = profiling is not active; 1 = profiling is active
 443:Generated_Source\PSoC6\pdl\drivers\peripheral\profile/cy_profile.h **** *
 444:Generated_Source\PSoC6\pdl\drivers\peripheral\profile/cy_profile.h **** * \funcusage
 445:Generated_Source\PSoC6\pdl\drivers\peripheral\profile/cy_profile.h **** * \snippet profile/profile_v1_0_sut_01.cydsn/main_cm4.c snippet_Cy_Profile_IsProfiling
 446:Generated_Source\PSoC6\pdl\drivers\peripheral\profile/cy_profile.h **** *
 447:Generated_Source\PSoC6\pdl\drivers\peripheral\profile/cy_profile.h **** *******************************************************************************/
 448:Generated_Source\PSoC6\pdl\drivers\peripheral\profile/cy_profile.h **** __STATIC_INLINE uint32_t Cy_Profile_IsProfiling(void)
 449:Generated_Source\PSoC6\pdl\drivers\peripheral\profile/cy_profile.h **** {
 450:Generated_Source\PSoC6\pdl\drivers\peripheral\profile/cy_profile.h ****     return _FLD2VAL(PROFILE_STATUS_WIN_ACTIVE, PROFILE_STATUS);
 451:Generated_Source\PSoC6\pdl\drivers\peripheral\profile/cy_profile.h **** }
 452:Generated_Source\PSoC6\pdl\drivers\peripheral\profile/cy_profile.h **** /** \} group_profile_functions_general */
 453:Generated_Source\PSoC6\pdl\drivers\peripheral\profile/cy_profile.h **** 
 454:Generated_Source\PSoC6\pdl\drivers\peripheral\profile/cy_profile.h **** /**
 455:Generated_Source\PSoC6\pdl\drivers\peripheral\profile/cy_profile.h **** * \addtogroup group_profile_functions_counter
 456:Generated_Source\PSoC6\pdl\drivers\peripheral\profile/cy_profile.h **** * \{
 457:Generated_Source\PSoC6\pdl\drivers\peripheral\profile/cy_profile.h **** */
 458:Generated_Source\PSoC6\pdl\drivers\peripheral\profile/cy_profile.h **** void Cy_Profile_ClearConfiguration(void);
 459:Generated_Source\PSoC6\pdl\drivers\peripheral\profile/cy_profile.h **** __STATIC_INLINE void Cy_Profile_ClearCounters(void);
 460:Generated_Source\PSoC6\pdl\drivers\peripheral\profile/cy_profile.h **** cy_stc_profile_ctr_ptr_t Cy_Profile_ConfigureCounter(en_ep_mon_sel_t monitor, cy_en_profile_duratio
 461:Generated_Source\PSoC6\pdl\drivers\peripheral\profile/cy_profile.h **** cy_en_profile_status_t Cy_Profile_FreeCounter(cy_stc_profile_ctr_ptr_t ctrAddr);
 462:Generated_Source\PSoC6\pdl\drivers\peripheral\profile/cy_profile.h **** cy_en_profile_status_t Cy_Profile_EnableCounter(cy_stc_profile_ctr_ptr_t ctrAddr);
 463:Generated_Source\PSoC6\pdl\drivers\peripheral\profile/cy_profile.h **** cy_en_profile_status_t Cy_Profile_DisableCounter(cy_stc_profile_ctr_ptr_t ctrAddr);
 464:Generated_Source\PSoC6\pdl\drivers\peripheral\profile/cy_profile.h **** 
 465:Generated_Source\PSoC6\pdl\drivers\peripheral\profile/cy_profile.h **** /* ========================================================================== */
 466:Generated_Source\PSoC6\pdl\drivers\peripheral\profile/cy_profile.h **** /* ===================    COUNTER FUNCTIONS SECTION    ====================== */
 467:Generated_Source\PSoC6\pdl\drivers\peripheral\profile/cy_profile.h **** /* ========================================================================== */
 468:Generated_Source\PSoC6\pdl\drivers\peripheral\profile/cy_profile.h **** /*******************************************************************************
 469:Generated_Source\PSoC6\pdl\drivers\peripheral\profile/cy_profile.h **** * Function Name: Cy_Profile_ClearCounters
 470:Generated_Source\PSoC6\pdl\drivers\peripheral\profile/cy_profile.h **** ****************************************************************************//**
 471:Generated_Source\PSoC6\pdl\drivers\peripheral\profile/cy_profile.h **** *
 472:Generated_Source\PSoC6\pdl\drivers\peripheral\profile/cy_profile.h **** * Clears all hardware counters to 0.
 473:Generated_Source\PSoC6\pdl\drivers\peripheral\profile/cy_profile.h **** *
 474:Generated_Source\PSoC6\pdl\drivers\peripheral\profile/cy_profile.h **** * \funcusage
 475:Generated_Source\PSoC6\pdl\drivers\peripheral\profile/cy_profile.h **** * \snippet profile/profile_v1_0_sut_01.cydsn/main_cm4.c snippet_Cy_Profile_ClearCounters
 476:Generated_Source\PSoC6\pdl\drivers\peripheral\profile/cy_profile.h **** *
 477:Generated_Source\PSoC6\pdl\drivers\peripheral\profile/cy_profile.h **** *******************************************************************************/
 478:Generated_Source\PSoC6\pdl\drivers\peripheral\profile/cy_profile.h **** __STATIC_INLINE void Cy_Profile_ClearCounters(void)
 479:Generated_Source\PSoC6\pdl\drivers\peripheral\profile/cy_profile.h **** {
 480:Generated_Source\PSoC6\pdl\drivers\peripheral\profile/cy_profile.h ****     PROFILE_CMD = CY_PROFILE_CLR_ALL_CNT;
 215              		.loc 2 480 0
 216 000c 4FF48072 		mov	r2, #256
 217 0010 024B     		ldr	r3, .L22+4
 218 0012 1A61     		str	r2, [r3, #16]
ARM GAS  C:\Users\Rolf\AppData\Local\Temp\ccEpnmfk.s 			page 16


 219 0014 08BD     		pop	{r3, pc}
 220              	.L23:
 221 0016 00BF     		.align	2
 222              	.L22:
 223 0018 00000000 		.word	.LANCHOR0
 224 001c 00002D40 		.word	1076690944
 225              	.LBE5:
 226              	.LBE4:
 227              		.cfi_endproc
 228              	.LFE140:
 229              		.size	Cy_Profile_ClearConfiguration, .-Cy_Profile_ClearConfiguration
 230              		.section	.text.Cy_Profile_ConfigureCounter,"ax",%progbits
 231              		.align	2
 232              		.global	Cy_Profile_ConfigureCounter
 233              		.thumb
 234              		.thumb_func
 235              		.type	Cy_Profile_ConfigureCounter, %function
 236              	Cy_Profile_ConfigureCounter:
 237              	.LFB141:
 154:Generated_Source\PSoC6\pdl\drivers\peripheral\profile/cy_profile.c ****     Cy_Profile_ClearCounters();
 155:Generated_Source\PSoC6\pdl\drivers\peripheral\profile/cy_profile.c **** }
 156:Generated_Source\PSoC6\pdl\drivers\peripheral\profile/cy_profile.c **** 
 157:Generated_Source\PSoC6\pdl\drivers\peripheral\profile/cy_profile.c **** 
 158:Generated_Source\PSoC6\pdl\drivers\peripheral\profile/cy_profile.c **** /*******************************************************************************
 159:Generated_Source\PSoC6\pdl\drivers\peripheral\profile/cy_profile.c **** * Function Name: Cy_Profile_ConfigureCounter
 160:Generated_Source\PSoC6\pdl\drivers\peripheral\profile/cy_profile.c **** ****************************************************************************//**
 161:Generated_Source\PSoC6\pdl\drivers\peripheral\profile/cy_profile.c **** *
 162:Generated_Source\PSoC6\pdl\drivers\peripheral\profile/cy_profile.c **** * Configures and assigns a hardware profile counter to the list of used counters.
 163:Generated_Source\PSoC6\pdl\drivers\peripheral\profile/cy_profile.c **** *
 164:Generated_Source\PSoC6\pdl\drivers\peripheral\profile/cy_profile.c **** * This function assigns an available profile counter to a slot in the internal 
 165:Generated_Source\PSoC6\pdl\drivers\peripheral\profile/cy_profile.c **** * software data structure and returns the handle for that slot location. The data
 166:Generated_Source\PSoC6\pdl\drivers\peripheral\profile/cy_profile.c **** * structure is used to keep track of the counter status and to implement a 64-bit
 167:Generated_Source\PSoC6\pdl\drivers\peripheral\profile/cy_profile.c **** * profile counter. If no counter slots are available, the function returns a
 168:Generated_Source\PSoC6\pdl\drivers\peripheral\profile/cy_profile.c **** * NULL pointer.
 169:Generated_Source\PSoC6\pdl\drivers\peripheral\profile/cy_profile.c **** * 
 170:Generated_Source\PSoC6\pdl\drivers\peripheral\profile/cy_profile.c **** * \param monitor The monitor source number
 171:Generated_Source\PSoC6\pdl\drivers\peripheral\profile/cy_profile.c **** *
 172:Generated_Source\PSoC6\pdl\drivers\peripheral\profile/cy_profile.c **** * \param duration Events are monitored (0), or duration is monitored (1)
 173:Generated_Source\PSoC6\pdl\drivers\peripheral\profile/cy_profile.c **** *
 174:Generated_Source\PSoC6\pdl\drivers\peripheral\profile/cy_profile.c **** * \param refClk Counter reference clock
 175:Generated_Source\PSoC6\pdl\drivers\peripheral\profile/cy_profile.c **** *
 176:Generated_Source\PSoC6\pdl\drivers\peripheral\profile/cy_profile.c **** * \param weight Weighting factor for the counter value
 177:Generated_Source\PSoC6\pdl\drivers\peripheral\profile/cy_profile.c **** * 
 178:Generated_Source\PSoC6\pdl\drivers\peripheral\profile/cy_profile.c **** * \return A pointer to the counter data structure. NULL if no counter is
 179:Generated_Source\PSoC6\pdl\drivers\peripheral\profile/cy_profile.c **** * available.
 180:Generated_Source\PSoC6\pdl\drivers\peripheral\profile/cy_profile.c **** *
 181:Generated_Source\PSoC6\pdl\drivers\peripheral\profile/cy_profile.c **** * \funcusage
 182:Generated_Source\PSoC6\pdl\drivers\peripheral\profile/cy_profile.c **** * \snippet profile/profile_v1_0_sut_01.cydsn/main_cm4.c snippet_Cy_Profile_ConfigureCounter
 183:Generated_Source\PSoC6\pdl\drivers\peripheral\profile/cy_profile.c **** *
 184:Generated_Source\PSoC6\pdl\drivers\peripheral\profile/cy_profile.c **** *******************************************************************************/
 185:Generated_Source\PSoC6\pdl\drivers\peripheral\profile/cy_profile.c **** cy_stc_profile_ctr_ptr_t Cy_Profile_ConfigureCounter(en_ep_mon_sel_t monitor, cy_en_profile_duratio
 186:Generated_Source\PSoC6\pdl\drivers\peripheral\profile/cy_profile.c ****                                                      cy_en_profile_ref_clk_t refClk,  uint32_t weig
 187:Generated_Source\PSoC6\pdl\drivers\peripheral\profile/cy_profile.c **** {
 238              		.loc 1 187 0
 239              		.cfi_startproc
 240              		@ args = 0, pretend = 0, frame = 8
 241              		@ frame_needed = 0, uses_anonymous_args = 0
ARM GAS  C:\Users\Rolf\AppData\Local\Temp\ccEpnmfk.s 			page 17


 242              	.LVL19:
 243 0000 F0B5     		push	{r4, r5, r6, r7, lr}
 244              		.cfi_def_cfa_offset 20
 245              		.cfi_offset 4, -20
 246              		.cfi_offset 5, -16
 247              		.cfi_offset 6, -12
 248              		.cfi_offset 7, -8
 249              		.cfi_offset 14, -4
 250 0002 83B0     		sub	sp, sp, #12
 251              		.cfi_def_cfa_offset 32
 252 0004 0446     		mov	r4, r0
 253 0006 0E46     		mov	r6, r1
 254 0008 1546     		mov	r5, r2
 255 000a 1F46     		mov	r7, r3
 188:Generated_Source\PSoC6\pdl\drivers\peripheral\profile/cy_profile.c ****     CY_ASSERT_L1(CY_PROFILE_IS_MONITOR_VALID(monitor));
 256              		.loc 1 188 0
 257 000c 464B     		ldr	r3, .L34
 258              	.LVL20:
 259 000e 1B68     		ldr	r3, [r3]
 260 0010 93F84230 		ldrb	r3, [r3, #66]	@ zero_extendqisi2
 261 0014 8342     		cmp	r3, r0
 262 0016 03D8     		bhi	.L25
 263              		.loc 1 188 0 is_stmt 0 discriminator 1
 264 0018 BC21     		movs	r1, #188
 265              	.LVL21:
 266 001a 4448     		ldr	r0, .L34+4
 267              	.LVL22:
 268 001c FFF7FEFF 		bl	Cy_SysLib_AssertFailed
 269              	.LVL23:
 270              	.L25:
 189:Generated_Source\PSoC6\pdl\drivers\peripheral\profile/cy_profile.c ****     CY_ASSERT_L3(CY_PROFILE_IS_DURATION_VALID(duration));
 271              		.loc 1 189 0 is_stmt 1
 272 0020 012E     		cmp	r6, #1
 273 0022 03D9     		bls	.L26
 274              		.loc 1 189 0 is_stmt 0 discriminator 1
 275 0024 BD21     		movs	r1, #189
 276 0026 4148     		ldr	r0, .L34+4
 277 0028 FFF7FEFF 		bl	Cy_SysLib_AssertFailed
 278              	.LVL24:
 279              	.L26:
 190:Generated_Source\PSoC6\pdl\drivers\peripheral\profile/cy_profile.c ****     CY_ASSERT_L3(CY_PROFILE_IS_REFCLK_VALID(refClk));
 280              		.loc 1 190 0 is_stmt 1
 281 002c 052D     		cmp	r5, #5
 282 002e 03D9     		bls	.L27
 283              		.loc 1 190 0 is_stmt 0 discriminator 1
 284 0030 BE21     		movs	r1, #190
 285 0032 3E48     		ldr	r0, .L34+4
 286 0034 FFF7FEFF 		bl	Cy_SysLib_AssertFailed
 287              	.LVL25:
 288              	.L27:
 191:Generated_Source\PSoC6\pdl\drivers\peripheral\profile/cy_profile.c ****     
 192:Generated_Source\PSoC6\pdl\drivers\peripheral\profile/cy_profile.c ****     cy_stc_profile_ctr_ptr_t retVal = NULL; /* error value if no counter is available */
 193:Generated_Source\PSoC6\pdl\drivers\peripheral\profile/cy_profile.c ****     volatile uint8_t i;
 194:Generated_Source\PSoC6\pdl\drivers\peripheral\profile/cy_profile.c ****     
 195:Generated_Source\PSoC6\pdl\drivers\peripheral\profile/cy_profile.c ****     /* Scan through the counters for an unused one */
 196:Generated_Source\PSoC6\pdl\drivers\peripheral\profile/cy_profile.c ****     for (i = 0u; (cy_ep_ctrs[i].used != 0u) && (i < (CY_N_ELMTS(cy_ep_ctrs))); i++){}
 289              		.loc 1 196 0 is_stmt 1
ARM GAS  C:\Users\Rolf\AppData\Local\Temp\ccEpnmfk.s 			page 18


 290 0038 0023     		movs	r3, #0
 291 003a 8DF80730 		strb	r3, [sp, #7]
 292 003e 05E0     		b	.L28
 293              	.L30:
 294              		.loc 1 196 0 is_stmt 0 discriminator 4
 295 0040 9DF80730 		ldrb	r3, [sp, #7]	@ zero_extendqisi2
 296 0044 0133     		adds	r3, r3, #1
 297 0046 DBB2     		uxtb	r3, r3
 298 0048 8DF80730 		strb	r3, [sp, #7]
 299              	.L28:
 300              		.loc 1 196 0 discriminator 1
 301 004c 9DF80730 		ldrb	r3, [sp, #7]	@ zero_extendqisi2
 302 0050 C3EBC303 		rsb	r3, r3, r3, lsl #3
 303 0054 9A00     		lsls	r2, r3, #2
 304 0056 364B     		ldr	r3, .L34+8
 305 0058 1A44     		add	r2, r2, r3
 306 005a 5378     		ldrb	r3, [r2, #1]	@ zero_extendqisi2
 307 005c 23B1     		cbz	r3, .L29
 308              		.loc 1 196 0 discriminator 3
 309 005e 9DF80730 		ldrb	r3, [sp, #7]	@ zero_extendqisi2
 310 0062 DBB2     		uxtb	r3, r3
 311 0064 072B     		cmp	r3, #7
 312 0066 EBD9     		bls	.L30
 313              	.L29:
 197:Generated_Source\PSoC6\pdl\drivers\peripheral\profile/cy_profile.c ****     if (i < CY_N_ELMTS(cy_ep_ctrs))
 314              		.loc 1 197 0 is_stmt 1
 315 0068 9DF80730 		ldrb	r3, [sp, #7]	@ zero_extendqisi2
 316 006c DBB2     		uxtb	r3, r3
 317 006e 072B     		cmp	r3, #7
 318 0070 57D8     		bhi	.L32
 198:Generated_Source\PSoC6\pdl\drivers\peripheral\profile/cy_profile.c ****     { /* found one, fill in its data structure */
 199:Generated_Source\PSoC6\pdl\drivers\peripheral\profile/cy_profile.c ****         cy_ep_ctrs[i].ctrNum = i;
 319              		.loc 1 199 0
 320 0072 9DF80720 		ldrb	r2, [sp, #7]	@ zero_extendqisi2
 321 0076 9DF80700 		ldrb	r0, [sp, #7]	@ zero_extendqisi2
 322 007a 2D4B     		ldr	r3, .L34+8
 323 007c C2EBC202 		rsb	r2, r2, r2, lsl #3
 324 0080 9100     		lsls	r1, r2, #2
 325 0082 5854     		strb	r0, [r3, r1]
 200:Generated_Source\PSoC6\pdl\drivers\peripheral\profile/cy_profile.c ****         cy_ep_ctrs[i].used = 1u;
 326              		.loc 1 200 0
 327 0084 9DF80720 		ldrb	r2, [sp, #7]	@ zero_extendqisi2
 328 0088 C2EBC202 		rsb	r2, r2, r2, lsl #3
 329 008c 9100     		lsls	r1, r2, #2
 330 008e 1944     		add	r1, r1, r3
 331 0090 0122     		movs	r2, #1
 332 0092 4A70     		strb	r2, [r1, #1]
 201:Generated_Source\PSoC6\pdl\drivers\peripheral\profile/cy_profile.c ****         cy_ep_ctrs[i].cntAddr = (PROFILE_CNT_STRUCT_Type *)&(PROFILE_CNT_STRUCT[i]);
 333              		.loc 1 201 0
 334 0094 9DF80720 		ldrb	r2, [sp, #7]	@ zero_extendqisi2
 335 0098 9DF80700 		ldrb	r0, [sp, #7]	@ zero_extendqisi2
 336 009c C2EBC202 		rsb	r2, r2, r2, lsl #3
 337 00a0 9100     		lsls	r1, r2, #2
 338 00a2 1944     		add	r1, r1, r3
 339 00a4 234A     		ldr	r2, .L34+12
 340 00a6 02EB0012 		add	r2, r2, r0, lsl #4
 341 00aa 8A60     		str	r2, [r1, #8]
ARM GAS  C:\Users\Rolf\AppData\Local\Temp\ccEpnmfk.s 			page 19


 202:Generated_Source\PSoC6\pdl\drivers\peripheral\profile/cy_profile.c ****         cy_ep_ctrs[i].ctlRegVals.cntDuration = duration;
 342              		.loc 1 202 0
 343 00ac 9DF80720 		ldrb	r2, [sp, #7]	@ zero_extendqisi2
 344 00b0 C2EBC202 		rsb	r2, r2, r2, lsl #3
 345 00b4 9100     		lsls	r1, r2, #2
 346 00b6 1944     		add	r1, r1, r3
 347 00b8 8E70     		strb	r6, [r1, #2]
 203:Generated_Source\PSoC6\pdl\drivers\peripheral\profile/cy_profile.c ****         cy_ep_ctrs[i].ctlRegVals.refClkSel = refClk;
 348              		.loc 1 203 0
 349 00ba 9DF80720 		ldrb	r2, [sp, #7]	@ zero_extendqisi2
 350 00be C2EBC202 		rsb	r2, r2, r2, lsl #3
 351 00c2 9100     		lsls	r1, r2, #2
 352 00c4 1944     		add	r1, r1, r3
 353 00c6 CD70     		strb	r5, [r1, #3]
 204:Generated_Source\PSoC6\pdl\drivers\peripheral\profile/cy_profile.c ****         cy_ep_ctrs[i].ctlRegVals.monSel = monitor;
 354              		.loc 1 204 0
 355 00c8 9DF80720 		ldrb	r2, [sp, #7]	@ zero_extendqisi2
 356 00cc C2EBC202 		rsb	r2, r2, r2, lsl #3
 357 00d0 9100     		lsls	r1, r2, #2
 358 00d2 1944     		add	r1, r1, r3
 359 00d4 0C71     		strb	r4, [r1, #4]
 205:Generated_Source\PSoC6\pdl\drivers\peripheral\profile/cy_profile.c ****         cy_ep_ctrs[i].overflow = 0UL;
 360              		.loc 1 205 0
 361 00d6 9DF80720 		ldrb	r2, [sp, #7]	@ zero_extendqisi2
 362 00da C2EBC202 		rsb	r2, r2, r2, lsl #3
 363 00de 9100     		lsls	r1, r2, #2
 364 00e0 1944     		add	r1, r1, r3
 365 00e2 0022     		movs	r2, #0
 366 00e4 4A61     		str	r2, [r1, #20]
 206:Generated_Source\PSoC6\pdl\drivers\peripheral\profile/cy_profile.c ****         cy_ep_ctrs[i].weight = weight;
 367              		.loc 1 206 0
 368 00e6 9DF80720 		ldrb	r2, [sp, #7]	@ zero_extendqisi2
 369 00ea C2EBC202 		rsb	r2, r2, r2, lsl #3
 370 00ee 9100     		lsls	r1, r2, #2
 371 00f0 1944     		add	r1, r1, r3
 372 00f2 8F61     		str	r7, [r1, #24]
 207:Generated_Source\PSoC6\pdl\drivers\peripheral\profile/cy_profile.c ****         /* Pass back the handle to (address of) the counter data structure */
 208:Generated_Source\PSoC6\pdl\drivers\peripheral\profile/cy_profile.c ****         retVal = &cy_ep_ctrs[i];
 373              		.loc 1 208 0
 374 00f4 9DF80740 		ldrb	r4, [sp, #7]	@ zero_extendqisi2
 375 00f8 E5B2     		uxtb	r5, r4
 376 00fa EC00     		lsls	r4, r5, #3
 377 00fc 621B     		subs	r2, r4, r5
 378 00fe 9000     		lsls	r0, r2, #2
 379 0100 1844     		add	r0, r0, r3
 380              	.LVL26:
 209:Generated_Source\PSoC6\pdl\drivers\peripheral\profile/cy_profile.c ****         
 210:Generated_Source\PSoC6\pdl\drivers\peripheral\profile/cy_profile.c ****         /* Load the CTL register bitfields of the assigned counter. */
 211:Generated_Source\PSoC6\pdl\drivers\peripheral\profile/cy_profile.c ****         retVal->cntAddr->CTL =
 381              		.loc 1 211 0
 382 0102 8168     		ldr	r1, [r0, #8]
 212:Generated_Source\PSoC6\pdl\drivers\peripheral\profile/cy_profile.c ****             _VAL2FLD(PROFILE_CNT_STRUCT_CTL_CNT_DURATION, retVal->ctlRegVals.cntDuration) |
 383              		.loc 1 212 0
 384 0104 8278     		ldrb	r2, [r0, #2]	@ zero_extendqisi2
 385 0106 02F00106 		and	r6, r2, #1
 213:Generated_Source\PSoC6\pdl\drivers\peripheral\profile/cy_profile.c ****             _VAL2FLD(PROFILE_CNT_STRUCT_CTL_REF_CLK_SEL,  retVal->ctlRegVals.refClkSel)   |
 386              		.loc 1 213 0
ARM GAS  C:\Users\Rolf\AppData\Local\Temp\ccEpnmfk.s 			page 20


 387 010a C278     		ldrb	r2, [r0, #3]	@ zero_extendqisi2
 388 010c 1201     		lsls	r2, r2, #4
 389 010e 02F07002 		and	r2, r2, #112
 212:Generated_Source\PSoC6\pdl\drivers\peripheral\profile/cy_profile.c ****             _VAL2FLD(PROFILE_CNT_STRUCT_CTL_CNT_DURATION, retVal->ctlRegVals.cntDuration) |
 390              		.loc 1 212 0
 391 0112 3243     		orrs	r2, r2, r6
 214:Generated_Source\PSoC6\pdl\drivers\peripheral\profile/cy_profile.c ****             _VAL2FLD(PROFILE_CNT_STRUCT_CTL_MON_SEL,      retVal->ctlRegVals.monSel);
 392              		.loc 1 214 0
 393 0114 0379     		ldrb	r3, [r0, #4]	@ zero_extendqisi2
 394 0116 1B04     		lsls	r3, r3, #16
 395 0118 03F4FE03 		and	r3, r3, #8323072
 213:Generated_Source\PSoC6\pdl\drivers\peripheral\profile/cy_profile.c ****             _VAL2FLD(PROFILE_CNT_STRUCT_CTL_REF_CLK_SEL,  retVal->ctlRegVals.refClkSel)   |
 396              		.loc 1 213 0
 397 011c 1343     		orrs	r3, r3, r2
 211:Generated_Source\PSoC6\pdl\drivers\peripheral\profile/cy_profile.c ****             _VAL2FLD(PROFILE_CNT_STRUCT_CTL_CNT_DURATION, retVal->ctlRegVals.cntDuration) |
 398              		.loc 1 211 0
 399 011e 0B60     		str	r3, [r1]
 400 0120 00E0     		b	.L31
 401              	.LVL27:
 402              	.L32:
 192:Generated_Source\PSoC6\pdl\drivers\peripheral\profile/cy_profile.c ****     volatile uint8_t i;
 403              		.loc 1 192 0
 404 0122 0020     		movs	r0, #0
 405              	.LVL28:
 406              	.L31:
 215:Generated_Source\PSoC6\pdl\drivers\peripheral\profile/cy_profile.c **** 
 216:Generated_Source\PSoC6\pdl\drivers\peripheral\profile/cy_profile.c ****     }
 217:Generated_Source\PSoC6\pdl\drivers\peripheral\profile/cy_profile.c ****     return (retVal);
 218:Generated_Source\PSoC6\pdl\drivers\peripheral\profile/cy_profile.c **** }
 407              		.loc 1 218 0
 408 0124 03B0     		add	sp, sp, #12
 409              		.cfi_def_cfa_offset 20
 410              		@ sp needed
 411 0126 F0BD     		pop	{r4, r5, r6, r7, pc}
 412              	.LVL29:
 413              	.L35:
 414              		.align	2
 415              	.L34:
 416 0128 00000000 		.word	cy_device
 417 012c 00000000 		.word	.LC0
 418 0130 00000000 		.word	.LANCHOR0
 419 0134 00082D40 		.word	1076692992
 420              		.cfi_endproc
 421              	.LFE141:
 422              		.size	Cy_Profile_ConfigureCounter, .-Cy_Profile_ConfigureCounter
 423              		.section	.text.Cy_Profile_FreeCounter,"ax",%progbits
 424              		.align	2
 425              		.global	Cy_Profile_FreeCounter
 426              		.thumb
 427              		.thumb_func
 428              		.type	Cy_Profile_FreeCounter, %function
 429              	Cy_Profile_FreeCounter:
 430              	.LFB142:
 219:Generated_Source\PSoC6\pdl\drivers\peripheral\profile/cy_profile.c **** 
 220:Generated_Source\PSoC6\pdl\drivers\peripheral\profile/cy_profile.c **** 
 221:Generated_Source\PSoC6\pdl\drivers\peripheral\profile/cy_profile.c **** /*******************************************************************************
 222:Generated_Source\PSoC6\pdl\drivers\peripheral\profile/cy_profile.c **** * Function Name: Cy_Profile_FreeCounter
ARM GAS  C:\Users\Rolf\AppData\Local\Temp\ccEpnmfk.s 			page 21


 223:Generated_Source\PSoC6\pdl\drivers\peripheral\profile/cy_profile.c **** ****************************************************************************//**
 224:Generated_Source\PSoC6\pdl\drivers\peripheral\profile/cy_profile.c **** *
 225:Generated_Source\PSoC6\pdl\drivers\peripheral\profile/cy_profile.c **** * Frees up a counter from a previously-assigned monitor source.
 226:Generated_Source\PSoC6\pdl\drivers\peripheral\profile/cy_profile.c **** *
 227:Generated_Source\PSoC6\pdl\drivers\peripheral\profile/cy_profile.c **** * \ref Cy_Profile_ConfigureCounter() must have been called for this counter
 228:Generated_Source\PSoC6\pdl\drivers\peripheral\profile/cy_profile.c **** * before calling this function.
 229:Generated_Source\PSoC6\pdl\drivers\peripheral\profile/cy_profile.c **** *
 230:Generated_Source\PSoC6\pdl\drivers\peripheral\profile/cy_profile.c **** * \param ctrAddr The handle to the assigned counter (returned by calling
 231:Generated_Source\PSoC6\pdl\drivers\peripheral\profile/cy_profile.c **** * \ref Cy_Profile_ConfigureCounter()).
 232:Generated_Source\PSoC6\pdl\drivers\peripheral\profile/cy_profile.c **** * 
 233:Generated_Source\PSoC6\pdl\drivers\peripheral\profile/cy_profile.c **** * \return 
 234:Generated_Source\PSoC6\pdl\drivers\peripheral\profile/cy_profile.c **** * Status of the operation.
 235:Generated_Source\PSoC6\pdl\drivers\peripheral\profile/cy_profile.c **** *
 236:Generated_Source\PSoC6\pdl\drivers\peripheral\profile/cy_profile.c **** * \note The counter is not disabled by this function.
 237:Generated_Source\PSoC6\pdl\drivers\peripheral\profile/cy_profile.c **** *
 238:Generated_Source\PSoC6\pdl\drivers\peripheral\profile/cy_profile.c **** * \funcusage
 239:Generated_Source\PSoC6\pdl\drivers\peripheral\profile/cy_profile.c **** * \snippet profile/profile_v1_0_sut_01.cydsn/main_cm4.c snippet_Cy_Profile_FreeCounter
 240:Generated_Source\PSoC6\pdl\drivers\peripheral\profile/cy_profile.c **** *
 241:Generated_Source\PSoC6\pdl\drivers\peripheral\profile/cy_profile.c **** *******************************************************************************/
 242:Generated_Source\PSoC6\pdl\drivers\peripheral\profile/cy_profile.c **** cy_en_profile_status_t Cy_Profile_FreeCounter(cy_stc_profile_ctr_ptr_t ctrAddr)
 243:Generated_Source\PSoC6\pdl\drivers\peripheral\profile/cy_profile.c **** {
 431              		.loc 1 243 0
 432              		.cfi_startproc
 433              		@ args = 0, pretend = 0, frame = 0
 434              		@ frame_needed = 0, uses_anonymous_args = 0
 435              	.LVL30:
 436 0000 10B5     		push	{r4, lr}
 437              		.cfi_def_cfa_offset 8
 438              		.cfi_offset 4, -8
 439              		.cfi_offset 14, -4
 440 0002 0446     		mov	r4, r0
 441              	.LVL31:
 244:Generated_Source\PSoC6\pdl\drivers\peripheral\profile/cy_profile.c ****    cy_en_profile_status_t retStatus = CY_PROFILE_BAD_PARAM;
 245:Generated_Source\PSoC6\pdl\drivers\peripheral\profile/cy_profile.c ****    
 246:Generated_Source\PSoC6\pdl\drivers\peripheral\profile/cy_profile.c ****     retStatus = Cy_Profile_IsPtrValid(ctrAddr);
 442              		.loc 1 246 0
 443 0004 FFF7FEFF 		bl	Cy_Profile_IsPtrValid
 444              	.LVL32:
 247:Generated_Source\PSoC6\pdl\drivers\peripheral\profile/cy_profile.c ****     if (retStatus == CY_PROFILE_SUCCESS)
 445              		.loc 1 247 0
 446 0008 0346     		mov	r3, r0
 447 000a 08B9     		cbnz	r0, .L37
 248:Generated_Source\PSoC6\pdl\drivers\peripheral\profile/cy_profile.c ****     {
 249:Generated_Source\PSoC6\pdl\drivers\peripheral\profile/cy_profile.c ****         ctrAddr->used = 0u;
 448              		.loc 1 249 0
 449 000c 0022     		movs	r2, #0
 450 000e 6270     		strb	r2, [r4, #1]
 451              	.L37:
 250:Generated_Source\PSoC6\pdl\drivers\peripheral\profile/cy_profile.c ****     }
 251:Generated_Source\PSoC6\pdl\drivers\peripheral\profile/cy_profile.c ****     return (retStatus);
 252:Generated_Source\PSoC6\pdl\drivers\peripheral\profile/cy_profile.c **** }
 452              		.loc 1 252 0
 453 0010 1846     		mov	r0, r3
 454              	.LVL33:
 455 0012 10BD     		pop	{r4, pc}
 456              		.cfi_endproc
 457              	.LFE142:
ARM GAS  C:\Users\Rolf\AppData\Local\Temp\ccEpnmfk.s 			page 22


 458              		.size	Cy_Profile_FreeCounter, .-Cy_Profile_FreeCounter
 459              		.section	.text.Cy_Profile_EnableCounter,"ax",%progbits
 460              		.align	2
 461              		.global	Cy_Profile_EnableCounter
 462              		.thumb
 463              		.thumb_func
 464              		.type	Cy_Profile_EnableCounter, %function
 465              	Cy_Profile_EnableCounter:
 466              	.LFB143:
 253:Generated_Source\PSoC6\pdl\drivers\peripheral\profile/cy_profile.c **** 
 254:Generated_Source\PSoC6\pdl\drivers\peripheral\profile/cy_profile.c **** 
 255:Generated_Source\PSoC6\pdl\drivers\peripheral\profile/cy_profile.c **** /*******************************************************************************
 256:Generated_Source\PSoC6\pdl\drivers\peripheral\profile/cy_profile.c **** * Function Name: Cy_Profile_EnableCounter
 257:Generated_Source\PSoC6\pdl\drivers\peripheral\profile/cy_profile.c **** ****************************************************************************//**
 258:Generated_Source\PSoC6\pdl\drivers\peripheral\profile/cy_profile.c **** *
 259:Generated_Source\PSoC6\pdl\drivers\peripheral\profile/cy_profile.c **** * Enables an assigned counter. 
 260:Generated_Source\PSoC6\pdl\drivers\peripheral\profile/cy_profile.c **** *
 261:Generated_Source\PSoC6\pdl\drivers\peripheral\profile/cy_profile.c **** * \ref Cy_Profile_ConfigureCounter() must have been called for this counter
 262:Generated_Source\PSoC6\pdl\drivers\peripheral\profile/cy_profile.c **** * before calling this function.
 263:Generated_Source\PSoC6\pdl\drivers\peripheral\profile/cy_profile.c **** *
 264:Generated_Source\PSoC6\pdl\drivers\peripheral\profile/cy_profile.c **** * \param ctrAddr The handle to the assigned counter, (returned by calling
 265:Generated_Source\PSoC6\pdl\drivers\peripheral\profile/cy_profile.c **** * \ref Cy_Profile_ConfigureCounter()).
 266:Generated_Source\PSoC6\pdl\drivers\peripheral\profile/cy_profile.c **** * 
 267:Generated_Source\PSoC6\pdl\drivers\peripheral\profile/cy_profile.c **** * \return 
 268:Generated_Source\PSoC6\pdl\drivers\peripheral\profile/cy_profile.c **** * Status of the operation.
 269:Generated_Source\PSoC6\pdl\drivers\peripheral\profile/cy_profile.c **** *
 270:Generated_Source\PSoC6\pdl\drivers\peripheral\profile/cy_profile.c **** * \funcusage
 271:Generated_Source\PSoC6\pdl\drivers\peripheral\profile/cy_profile.c **** * \snippet profile/profile_v1_0_sut_01.cydsn/main_cm4.c snippet_Cy_Profile_EnableCounter
 272:Generated_Source\PSoC6\pdl\drivers\peripheral\profile/cy_profile.c **** *
 273:Generated_Source\PSoC6\pdl\drivers\peripheral\profile/cy_profile.c **** *******************************************************************************/
 274:Generated_Source\PSoC6\pdl\drivers\peripheral\profile/cy_profile.c **** cy_en_profile_status_t Cy_Profile_EnableCounter(cy_stc_profile_ctr_ptr_t ctrAddr)
 275:Generated_Source\PSoC6\pdl\drivers\peripheral\profile/cy_profile.c **** {
 467              		.loc 1 275 0
 468              		.cfi_startproc
 469              		@ args = 0, pretend = 0, frame = 0
 470              		@ frame_needed = 0, uses_anonymous_args = 0
 471              	.LVL34:
 472 0000 38B5     		push	{r3, r4, r5, lr}
 473              		.cfi_def_cfa_offset 16
 474              		.cfi_offset 3, -16
 475              		.cfi_offset 4, -12
 476              		.cfi_offset 5, -8
 477              		.cfi_offset 14, -4
 478 0002 0446     		mov	r4, r0
 276:Generated_Source\PSoC6\pdl\drivers\peripheral\profile/cy_profile.c ****     cy_en_profile_status_t retStatus = Cy_Profile_IsPtrValid(ctrAddr);
 479              		.loc 1 276 0
 480 0004 FFF7FEFF 		bl	Cy_Profile_IsPtrValid
 481              	.LVL35:
 277:Generated_Source\PSoC6\pdl\drivers\peripheral\profile/cy_profile.c ****     
 278:Generated_Source\PSoC6\pdl\drivers\peripheral\profile/cy_profile.c ****     if (CY_PROFILE_SUCCESS == retStatus)
 482              		.loc 1 278 0
 483 0008 0146     		mov	r1, r0
 484 000a 70B9     		cbnz	r0, .L40
 279:Generated_Source\PSoC6\pdl\drivers\peripheral\profile/cy_profile.c ****     {
 280:Generated_Source\PSoC6\pdl\drivers\peripheral\profile/cy_profile.c ****         /* set the ENABLED bit */
 281:Generated_Source\PSoC6\pdl\drivers\peripheral\profile/cy_profile.c ****         ctrAddr->cntAddr->CTL |= _VAL2FLD(PROFILE_CNT_STRUCT_CTL_ENABLED, 1UL);
 485              		.loc 1 281 0
ARM GAS  C:\Users\Rolf\AppData\Local\Temp\ccEpnmfk.s 			page 23


 486 000c A268     		ldr	r2, [r4, #8]
 487 000e 1368     		ldr	r3, [r2]
 488 0010 43F00043 		orr	r3, r3, #-2147483648
 489 0014 1360     		str	r3, [r2]
 282:Generated_Source\PSoC6\pdl\drivers\peripheral\profile/cy_profile.c ****         /* set the INTR_MASK bit for the counter being used */
 283:Generated_Source\PSoC6\pdl\drivers\peripheral\profile/cy_profile.c ****         PROFILE_INTR_MASK |= (1UL << (ctrAddr->ctrNum));
 490              		.loc 1 283 0
 491 0016 0648     		ldr	r0, .L42
 492              	.LVL36:
 493 0018 D0F8C857 		ldr	r5, [r0, #1992]
 494 001c 2378     		ldrb	r3, [r4]	@ zero_extendqisi2
 495 001e 0122     		movs	r2, #1
 496 0020 02FA03F3 		lsl	r3, r2, r3
 497 0024 2B43     		orrs	r3, r3, r5
 498 0026 C0F8C837 		str	r3, [r0, #1992]
 499              	.L40:
 284:Generated_Source\PSoC6\pdl\drivers\peripheral\profile/cy_profile.c ****     }
 285:Generated_Source\PSoC6\pdl\drivers\peripheral\profile/cy_profile.c ****     
 286:Generated_Source\PSoC6\pdl\drivers\peripheral\profile/cy_profile.c ****     return (retStatus);
 287:Generated_Source\PSoC6\pdl\drivers\peripheral\profile/cy_profile.c **** }
 500              		.loc 1 287 0
 501 002a 0846     		mov	r0, r1
 502 002c 38BD     		pop	{r3, r4, r5, pc}
 503              	.LVL37:
 504              	.L43:
 505 002e 00BF     		.align	2
 506              	.L42:
 507 0030 00002D40 		.word	1076690944
 508              		.cfi_endproc
 509              	.LFE143:
 510              		.size	Cy_Profile_EnableCounter, .-Cy_Profile_EnableCounter
 511              		.section	.text.Cy_Profile_DisableCounter,"ax",%progbits
 512              		.align	2
 513              		.global	Cy_Profile_DisableCounter
 514              		.thumb
 515              		.thumb_func
 516              		.type	Cy_Profile_DisableCounter, %function
 517              	Cy_Profile_DisableCounter:
 518              	.LFB144:
 288:Generated_Source\PSoC6\pdl\drivers\peripheral\profile/cy_profile.c **** 
 289:Generated_Source\PSoC6\pdl\drivers\peripheral\profile/cy_profile.c **** 
 290:Generated_Source\PSoC6\pdl\drivers\peripheral\profile/cy_profile.c **** /*******************************************************************************
 291:Generated_Source\PSoC6\pdl\drivers\peripheral\profile/cy_profile.c **** * Function Name: Cy_Profile_DisableCounter
 292:Generated_Source\PSoC6\pdl\drivers\peripheral\profile/cy_profile.c **** ****************************************************************************//**
 293:Generated_Source\PSoC6\pdl\drivers\peripheral\profile/cy_profile.c **** *
 294:Generated_Source\PSoC6\pdl\drivers\peripheral\profile/cy_profile.c **** * Disables an assigned counter.
 295:Generated_Source\PSoC6\pdl\drivers\peripheral\profile/cy_profile.c **** *
 296:Generated_Source\PSoC6\pdl\drivers\peripheral\profile/cy_profile.c **** * \ref Cy_Profile_ConfigureCounter() must have been called for this counter
 297:Generated_Source\PSoC6\pdl\drivers\peripheral\profile/cy_profile.c **** * before calling this function.
 298:Generated_Source\PSoC6\pdl\drivers\peripheral\profile/cy_profile.c **** *
 299:Generated_Source\PSoC6\pdl\drivers\peripheral\profile/cy_profile.c **** * \param ctrAddr The handle to the assigned counter, (returned by calling
 300:Generated_Source\PSoC6\pdl\drivers\peripheral\profile/cy_profile.c **** * \ref Cy_Profile_ConfigureCounter()).
 301:Generated_Source\PSoC6\pdl\drivers\peripheral\profile/cy_profile.c **** * 
 302:Generated_Source\PSoC6\pdl\drivers\peripheral\profile/cy_profile.c **** * \return 
 303:Generated_Source\PSoC6\pdl\drivers\peripheral\profile/cy_profile.c **** * Status of the operation.
 304:Generated_Source\PSoC6\pdl\drivers\peripheral\profile/cy_profile.c **** *
 305:Generated_Source\PSoC6\pdl\drivers\peripheral\profile/cy_profile.c **** * \funcusage
ARM GAS  C:\Users\Rolf\AppData\Local\Temp\ccEpnmfk.s 			page 24


 306:Generated_Source\PSoC6\pdl\drivers\peripheral\profile/cy_profile.c **** * \snippet profile/profile_v1_0_sut_01.cydsn/main_cm4.c snippet_Cy_Profile_DisableCounter
 307:Generated_Source\PSoC6\pdl\drivers\peripheral\profile/cy_profile.c **** *
 308:Generated_Source\PSoC6\pdl\drivers\peripheral\profile/cy_profile.c **** *******************************************************************************/
 309:Generated_Source\PSoC6\pdl\drivers\peripheral\profile/cy_profile.c **** cy_en_profile_status_t Cy_Profile_DisableCounter(cy_stc_profile_ctr_ptr_t ctrAddr)
 310:Generated_Source\PSoC6\pdl\drivers\peripheral\profile/cy_profile.c **** {
 519              		.loc 1 310 0
 520              		.cfi_startproc
 521              		@ args = 0, pretend = 0, frame = 0
 522              		@ frame_needed = 0, uses_anonymous_args = 0
 523              	.LVL38:
 524 0000 10B5     		push	{r4, lr}
 525              		.cfi_def_cfa_offset 8
 526              		.cfi_offset 4, -8
 527              		.cfi_offset 14, -4
 528 0002 0446     		mov	r4, r0
 311:Generated_Source\PSoC6\pdl\drivers\peripheral\profile/cy_profile.c ****     cy_en_profile_status_t retStatus = Cy_Profile_IsPtrValid(ctrAddr);
 529              		.loc 1 311 0
 530 0004 FFF7FEFF 		bl	Cy_Profile_IsPtrValid
 531              	.LVL39:
 312:Generated_Source\PSoC6\pdl\drivers\peripheral\profile/cy_profile.c ****     
 313:Generated_Source\PSoC6\pdl\drivers\peripheral\profile/cy_profile.c ****     if (CY_PROFILE_SUCCESS == retStatus)
 532              		.loc 1 313 0
 533 0008 0146     		mov	r1, r0
 534 000a 70B9     		cbnz	r0, .L45
 314:Generated_Source\PSoC6\pdl\drivers\peripheral\profile/cy_profile.c ****     {
 315:Generated_Source\PSoC6\pdl\drivers\peripheral\profile/cy_profile.c ****         /* clear the ENABLED bit */
 316:Generated_Source\PSoC6\pdl\drivers\peripheral\profile/cy_profile.c ****         ctrAddr->cntAddr->CTL &= ~(_VAL2FLD(PROFILE_CNT_STRUCT_CTL_ENABLED, 1UL));
 535              		.loc 1 316 0
 536 000c A268     		ldr	r2, [r4, #8]
 537 000e 1368     		ldr	r3, [r2]
 538 0010 23F00043 		bic	r3, r3, #-2147483648
 539 0014 1360     		str	r3, [r2]
 317:Generated_Source\PSoC6\pdl\drivers\peripheral\profile/cy_profile.c ****         /* clear the INTR_MASK bit for the counter being used */
 318:Generated_Source\PSoC6\pdl\drivers\peripheral\profile/cy_profile.c ****         PROFILE_INTR_MASK &= ~(1UL << (ctrAddr->ctrNum));
 540              		.loc 1 318 0
 541 0016 0648     		ldr	r0, .L47
 542              	.LVL40:
 543 0018 D0F8C827 		ldr	r2, [r0, #1992]
 544 001c 2478     		ldrb	r4, [r4]	@ zero_extendqisi2
 545              	.LVL41:
 546 001e 0123     		movs	r3, #1
 547 0020 A340     		lsls	r3, r3, r4
 548 0022 22EA0303 		bic	r3, r2, r3
 549 0026 C0F8C837 		str	r3, [r0, #1992]
 550              	.L45:
 319:Generated_Source\PSoC6\pdl\drivers\peripheral\profile/cy_profile.c ****     }
 320:Generated_Source\PSoC6\pdl\drivers\peripheral\profile/cy_profile.c ****     
 321:Generated_Source\PSoC6\pdl\drivers\peripheral\profile/cy_profile.c ****     return (retStatus);
 322:Generated_Source\PSoC6\pdl\drivers\peripheral\profile/cy_profile.c **** }
 551              		.loc 1 322 0
 552 002a 0846     		mov	r0, r1
 553 002c 10BD     		pop	{r4, pc}
 554              	.L48:
 555 002e 00BF     		.align	2
 556              	.L47:
 557 0030 00002D40 		.word	1076690944
 558              		.cfi_endproc
ARM GAS  C:\Users\Rolf\AppData\Local\Temp\ccEpnmfk.s 			page 25


 559              	.LFE144:
 560              		.size	Cy_Profile_DisableCounter, .-Cy_Profile_DisableCounter
 561              		.section	.text.Cy_Profile_GetRawCount,"ax",%progbits
 562              		.align	2
 563              		.global	Cy_Profile_GetRawCount
 564              		.thumb
 565              		.thumb_func
 566              		.type	Cy_Profile_GetRawCount, %function
 567              	Cy_Profile_GetRawCount:
 568              	.LFB145:
 323:Generated_Source\PSoC6\pdl\drivers\peripheral\profile/cy_profile.c **** 
 324:Generated_Source\PSoC6\pdl\drivers\peripheral\profile/cy_profile.c **** 
 325:Generated_Source\PSoC6\pdl\drivers\peripheral\profile/cy_profile.c **** /* ========================================================================== */
 326:Generated_Source\PSoC6\pdl\drivers\peripheral\profile/cy_profile.c **** /* ==================    CALCULATION FUNCTIONS SECTION    =================== */
 327:Generated_Source\PSoC6\pdl\drivers\peripheral\profile/cy_profile.c **** /* ========================================================================== */
 328:Generated_Source\PSoC6\pdl\drivers\peripheral\profile/cy_profile.c **** /*******************************************************************************
 329:Generated_Source\PSoC6\pdl\drivers\peripheral\profile/cy_profile.c **** * Function Name: Cy_Profile_GetRawCount
 330:Generated_Source\PSoC6\pdl\drivers\peripheral\profile/cy_profile.c **** ****************************************************************************//**
 331:Generated_Source\PSoC6\pdl\drivers\peripheral\profile/cy_profile.c **** *
 332:Generated_Source\PSoC6\pdl\drivers\peripheral\profile/cy_profile.c **** * Reports the raw count value for a specified counter.
 333:Generated_Source\PSoC6\pdl\drivers\peripheral\profile/cy_profile.c **** *
 334:Generated_Source\PSoC6\pdl\drivers\peripheral\profile/cy_profile.c **** * \param ctrAddr The handle to the assigned counter, (returned by calling
 335:Generated_Source\PSoC6\pdl\drivers\peripheral\profile/cy_profile.c **** * \ref Cy_Profile_ConfigureCounter()).
 336:Generated_Source\PSoC6\pdl\drivers\peripheral\profile/cy_profile.c **** *
 337:Generated_Source\PSoC6\pdl\drivers\peripheral\profile/cy_profile.c **** * \param result Output parameter used to write in the result.
 338:Generated_Source\PSoC6\pdl\drivers\peripheral\profile/cy_profile.c **** * 
 339:Generated_Source\PSoC6\pdl\drivers\peripheral\profile/cy_profile.c **** * \return 
 340:Generated_Source\PSoC6\pdl\drivers\peripheral\profile/cy_profile.c **** * Status of the operation.
 341:Generated_Source\PSoC6\pdl\drivers\peripheral\profile/cy_profile.c **** *
 342:Generated_Source\PSoC6\pdl\drivers\peripheral\profile/cy_profile.c **** * \funcusage
 343:Generated_Source\PSoC6\pdl\drivers\peripheral\profile/cy_profile.c **** * \snippet profile/profile_v1_0_sut_01.cydsn/main_cm4.c snippet_Cy_Profile_GetRawCount
 344:Generated_Source\PSoC6\pdl\drivers\peripheral\profile/cy_profile.c **** *
 345:Generated_Source\PSoC6\pdl\drivers\peripheral\profile/cy_profile.c **** *******************************************************************************/
 346:Generated_Source\PSoC6\pdl\drivers\peripheral\profile/cy_profile.c **** cy_en_profile_status_t Cy_Profile_GetRawCount(cy_stc_profile_ctr_ptr_t ctrAddr, uint64_t *result)
 347:Generated_Source\PSoC6\pdl\drivers\peripheral\profile/cy_profile.c **** {
 569              		.loc 1 347 0
 570              		.cfi_startproc
 571              		@ args = 0, pretend = 0, frame = 0
 572              		@ frame_needed = 0, uses_anonymous_args = 0
 573              	.LVL42:
 574 0000 38B5     		push	{r3, r4, r5, lr}
 575              		.cfi_def_cfa_offset 16
 576              		.cfi_offset 3, -16
 577              		.cfi_offset 4, -12
 578              		.cfi_offset 5, -8
 579              		.cfi_offset 14, -4
 580 0002 0446     		mov	r4, r0
 581 0004 0D46     		mov	r5, r1
 348:Generated_Source\PSoC6\pdl\drivers\peripheral\profile/cy_profile.c ****     cy_en_profile_status_t retStatus = Cy_Profile_IsPtrValid(ctrAddr);
 582              		.loc 1 348 0
 583 0006 FFF7FEFF 		bl	Cy_Profile_IsPtrValid
 584              	.LVL43:
 349:Generated_Source\PSoC6\pdl\drivers\peripheral\profile/cy_profile.c ****     
 350:Generated_Source\PSoC6\pdl\drivers\peripheral\profile/cy_profile.c ****     if ((result != NULL) && (CY_PROFILE_SUCCESS == retStatus))
 585              		.loc 1 350 0
 586 000a 55B1     		cbz	r5, .L50
 587              		.loc 1 350 0 is_stmt 0 discriminator 1
ARM GAS  C:\Users\Rolf\AppData\Local\Temp\ccEpnmfk.s 			page 26


 588 000c 48B9     		cbnz	r0, .L50
 351:Generated_Source\PSoC6\pdl\drivers\peripheral\profile/cy_profile.c ****     {
 352:Generated_Source\PSoC6\pdl\drivers\peripheral\profile/cy_profile.c ****         /* read the counter control register, and the counter current value */
 353:Generated_Source\PSoC6\pdl\drivers\peripheral\profile/cy_profile.c ****         ctrAddr->ctlReg = ctrAddr->cntAddr->CTL;
 589              		.loc 1 353 0 is_stmt 1
 590 000e A368     		ldr	r3, [r4, #8]
 591 0010 1A68     		ldr	r2, [r3]
 592 0012 E260     		str	r2, [r4, #12]
 354:Generated_Source\PSoC6\pdl\drivers\peripheral\profile/cy_profile.c ****         ctrAddr->cntReg = ctrAddr->cntAddr->CNT;
 593              		.loc 1 354 0
 594 0014 9968     		ldr	r1, [r3, #8]
 595 0016 2161     		str	r1, [r4, #16]
 355:Generated_Source\PSoC6\pdl\drivers\peripheral\profile/cy_profile.c **** 
 356:Generated_Source\PSoC6\pdl\drivers\peripheral\profile/cy_profile.c ****         /* report the count with overflow */
 357:Generated_Source\PSoC6\pdl\drivers\peripheral\profile/cy_profile.c ****         *result = ((uint64_t)(ctrAddr->overflow) << 32) | (uint64_t)(ctrAddr->cntReg);
 596              		.loc 1 357 0
 597 0018 0022     		movs	r2, #0
 598 001a 6369     		ldr	r3, [r4, #20]
 599 001c 0A43     		orrs	r2, r2, r1
 600 001e C5E90023 		strd	r2, [r5]
 601              	.L50:
 358:Generated_Source\PSoC6\pdl\drivers\peripheral\profile/cy_profile.c ****     }
 359:Generated_Source\PSoC6\pdl\drivers\peripheral\profile/cy_profile.c ****     
 360:Generated_Source\PSoC6\pdl\drivers\peripheral\profile/cy_profile.c ****     return (retStatus);
 361:Generated_Source\PSoC6\pdl\drivers\peripheral\profile/cy_profile.c **** }
 602              		.loc 1 361 0
 603 0022 38BD     		pop	{r3, r4, r5, pc}
 604              		.cfi_endproc
 605              	.LFE145:
 606              		.size	Cy_Profile_GetRawCount, .-Cy_Profile_GetRawCount
 607              		.section	.text.Cy_Profile_GetWeightedCount,"ax",%progbits
 608              		.align	2
 609              		.global	Cy_Profile_GetWeightedCount
 610              		.thumb
 611              		.thumb_func
 612              		.type	Cy_Profile_GetWeightedCount, %function
 613              	Cy_Profile_GetWeightedCount:
 614              	.LFB146:
 362:Generated_Source\PSoC6\pdl\drivers\peripheral\profile/cy_profile.c **** 
 363:Generated_Source\PSoC6\pdl\drivers\peripheral\profile/cy_profile.c **** /*******************************************************************************
 364:Generated_Source\PSoC6\pdl\drivers\peripheral\profile/cy_profile.c **** * Function Name: Cy_Profile_GetWeightedCount
 365:Generated_Source\PSoC6\pdl\drivers\peripheral\profile/cy_profile.c **** ****************************************************************************//**
 366:Generated_Source\PSoC6\pdl\drivers\peripheral\profile/cy_profile.c **** *
 367:Generated_Source\PSoC6\pdl\drivers\peripheral\profile/cy_profile.c **** * Reports the count value for a specified counter, multiplied by the weight
 368:Generated_Source\PSoC6\pdl\drivers\peripheral\profile/cy_profile.c **** * factor for that counter.
 369:Generated_Source\PSoC6\pdl\drivers\peripheral\profile/cy_profile.c **** *
 370:Generated_Source\PSoC6\pdl\drivers\peripheral\profile/cy_profile.c **** * \param ctrAddr The handle to the assigned counter, (returned by calling
 371:Generated_Source\PSoC6\pdl\drivers\peripheral\profile/cy_profile.c **** * \ref Cy_Profile_ConfigureCounter()).
 372:Generated_Source\PSoC6\pdl\drivers\peripheral\profile/cy_profile.c **** *
 373:Generated_Source\PSoC6\pdl\drivers\peripheral\profile/cy_profile.c **** * \param result Output parameter used to write in the result.
 374:Generated_Source\PSoC6\pdl\drivers\peripheral\profile/cy_profile.c **** * 
 375:Generated_Source\PSoC6\pdl\drivers\peripheral\profile/cy_profile.c **** * \return 
 376:Generated_Source\PSoC6\pdl\drivers\peripheral\profile/cy_profile.c **** * Status of the operation.
 377:Generated_Source\PSoC6\pdl\drivers\peripheral\profile/cy_profile.c **** *
 378:Generated_Source\PSoC6\pdl\drivers\peripheral\profile/cy_profile.c **** * \funcusage
 379:Generated_Source\PSoC6\pdl\drivers\peripheral\profile/cy_profile.c **** * \snippet profile/profile_v1_0_sut_01.cydsn/main_cm4.c snippet_Cy_Profile_GetWeightedCount
 380:Generated_Source\PSoC6\pdl\drivers\peripheral\profile/cy_profile.c **** *
ARM GAS  C:\Users\Rolf\AppData\Local\Temp\ccEpnmfk.s 			page 27


 381:Generated_Source\PSoC6\pdl\drivers\peripheral\profile/cy_profile.c **** *******************************************************************************/
 382:Generated_Source\PSoC6\pdl\drivers\peripheral\profile/cy_profile.c **** cy_en_profile_status_t Cy_Profile_GetWeightedCount(cy_stc_profile_ctr_ptr_t ctrAddr, uint64_t *resu
 383:Generated_Source\PSoC6\pdl\drivers\peripheral\profile/cy_profile.c **** {
 615              		.loc 1 383 0
 616              		.cfi_startproc
 617              		@ args = 0, pretend = 0, frame = 8
 618              		@ frame_needed = 0, uses_anonymous_args = 0
 619              	.LVL44:
 620 0000 30B5     		push	{r4, r5, lr}
 621              		.cfi_def_cfa_offset 12
 622              		.cfi_offset 4, -12
 623              		.cfi_offset 5, -8
 624              		.cfi_offset 14, -4
 625 0002 83B0     		sub	sp, sp, #12
 626              		.cfi_def_cfa_offset 24
 627 0004 0546     		mov	r5, r0
 628 0006 0C46     		mov	r4, r1
 384:Generated_Source\PSoC6\pdl\drivers\peripheral\profile/cy_profile.c ****     uint64_t temp;
 385:Generated_Source\PSoC6\pdl\drivers\peripheral\profile/cy_profile.c ****     cy_en_profile_status_t retStatus = Cy_Profile_GetRawCount(ctrAddr, &temp);
 629              		.loc 1 385 0
 630 0008 6946     		mov	r1, sp
 631              	.LVL45:
 632 000a FFF7FEFF 		bl	Cy_Profile_GetRawCount
 633              	.LVL46:
 386:Generated_Source\PSoC6\pdl\drivers\peripheral\profile/cy_profile.c ****     
 387:Generated_Source\PSoC6\pdl\drivers\peripheral\profile/cy_profile.c ****     if ((result != NULL) && (CY_PROFILE_SUCCESS == retStatus))
 634              		.loc 1 387 0
 635 000e 4CB1     		cbz	r4, .L53
 636              		.loc 1 387 0 is_stmt 0 discriminator 1
 637 0010 40B9     		cbnz	r0, .L53
 388:Generated_Source\PSoC6\pdl\drivers\peripheral\profile/cy_profile.c ****     {
 389:Generated_Source\PSoC6\pdl\drivers\peripheral\profile/cy_profile.c ****         /* calculate weighted count */
 390:Generated_Source\PSoC6\pdl\drivers\peripheral\profile/cy_profile.c ****         *result = temp * (uint64_t)(ctrAddr->weight);
 638              		.loc 1 390 0 is_stmt 1
 639 0012 A969     		ldr	r1, [r5, #24]
 640 0014 009A     		ldr	r2, [sp]
 641 0016 A2FB0123 		umull	r2, r3, r2, r1
 642 001a 019D     		ldr	r5, [sp, #4]
 643              	.LVL47:
 644 001c 01FB0533 		mla	r3, r1, r5, r3
 645 0020 C4E90023 		strd	r2, [r4]
 646              	.L53:
 391:Generated_Source\PSoC6\pdl\drivers\peripheral\profile/cy_profile.c ****     }
 392:Generated_Source\PSoC6\pdl\drivers\peripheral\profile/cy_profile.c ****     
 393:Generated_Source\PSoC6\pdl\drivers\peripheral\profile/cy_profile.c ****     return (retStatus);
 394:Generated_Source\PSoC6\pdl\drivers\peripheral\profile/cy_profile.c **** }
 647              		.loc 1 394 0
 648 0024 03B0     		add	sp, sp, #12
 649              		.cfi_def_cfa_offset 12
 650              		@ sp needed
 651 0026 30BD     		pop	{r4, r5, pc}
 652              		.cfi_endproc
 653              	.LFE146:
 654              		.size	Cy_Profile_GetWeightedCount, .-Cy_Profile_GetWeightedCount
 655              		.section	.text.Cy_Profile_GetSumWeightedCounts,"ax",%progbits
 656              		.align	2
 657              		.global	Cy_Profile_GetSumWeightedCounts
ARM GAS  C:\Users\Rolf\AppData\Local\Temp\ccEpnmfk.s 			page 28


 658              		.thumb
 659              		.thumb_func
 660              		.type	Cy_Profile_GetSumWeightedCounts, %function
 661              	Cy_Profile_GetSumWeightedCounts:
 662              	.LFB147:
 395:Generated_Source\PSoC6\pdl\drivers\peripheral\profile/cy_profile.c **** 
 396:Generated_Source\PSoC6\pdl\drivers\peripheral\profile/cy_profile.c **** /*******************************************************************************
 397:Generated_Source\PSoC6\pdl\drivers\peripheral\profile/cy_profile.c **** * Function Name: Cy_Profile_GetSumWeightedCounts
 398:Generated_Source\PSoC6\pdl\drivers\peripheral\profile/cy_profile.c **** ****************************************************************************//**
 399:Generated_Source\PSoC6\pdl\drivers\peripheral\profile/cy_profile.c **** *
 400:Generated_Source\PSoC6\pdl\drivers\peripheral\profile/cy_profile.c **** * Reports the weighted sum result of the first n number of counter count values
 401:Generated_Source\PSoC6\pdl\drivers\peripheral\profile/cy_profile.c **** * starting from the specified profile counter data structure base address.
 402:Generated_Source\PSoC6\pdl\drivers\peripheral\profile/cy_profile.c **** *
 403:Generated_Source\PSoC6\pdl\drivers\peripheral\profile/cy_profile.c **** * Each count value is multiplied by its weighing factor before the summing
 404:Generated_Source\PSoC6\pdl\drivers\peripheral\profile/cy_profile.c **** * operation is performed.
 405:Generated_Source\PSoC6\pdl\drivers\peripheral\profile/cy_profile.c **** *
 406:Generated_Source\PSoC6\pdl\drivers\peripheral\profile/cy_profile.c **** * \param ptrsArray Base address of the profile counter data structure
 407:Generated_Source\PSoC6\pdl\drivers\peripheral\profile/cy_profile.c **** *
 408:Generated_Source\PSoC6\pdl\drivers\peripheral\profile/cy_profile.c **** * \param numCounters Number of measured counters in ptrsArray[]
 409:Generated_Source\PSoC6\pdl\drivers\peripheral\profile/cy_profile.c **** *
 410:Generated_Source\PSoC6\pdl\drivers\peripheral\profile/cy_profile.c **** * \return
 411:Generated_Source\PSoC6\pdl\drivers\peripheral\profile/cy_profile.c **** * The weighted sum of the specified counters
 412:Generated_Source\PSoC6\pdl\drivers\peripheral\profile/cy_profile.c **** *
 413:Generated_Source\PSoC6\pdl\drivers\peripheral\profile/cy_profile.c **** * \funcusage
 414:Generated_Source\PSoC6\pdl\drivers\peripheral\profile/cy_profile.c **** * \snippet profile/profile_v1_0_sut_01.cydsn/main_cm4.c snippet_Cy_Profile_GetSumWeightedCounts
 415:Generated_Source\PSoC6\pdl\drivers\peripheral\profile/cy_profile.c **** *
 416:Generated_Source\PSoC6\pdl\drivers\peripheral\profile/cy_profile.c **** *******************************************************************************/
 417:Generated_Source\PSoC6\pdl\drivers\peripheral\profile/cy_profile.c **** uint64_t Cy_Profile_GetSumWeightedCounts(cy_stc_profile_ctr_ptr_t ptrsArray[],
 418:Generated_Source\PSoC6\pdl\drivers\peripheral\profile/cy_profile.c ****                                     uint32_t numCounters)
 419:Generated_Source\PSoC6\pdl\drivers\peripheral\profile/cy_profile.c **** {
 663              		.loc 1 419 0
 664              		.cfi_startproc
 665              		@ args = 0, pretend = 0, frame = 8
 666              		@ frame_needed = 0, uses_anonymous_args = 0
 667              	.LVL48:
 668 0000 2DE9F041 		push	{r4, r5, r6, r7, r8, lr}
 669              		.cfi_def_cfa_offset 24
 670              		.cfi_offset 4, -24
 671              		.cfi_offset 5, -20
 672              		.cfi_offset 6, -16
 673              		.cfi_offset 7, -12
 674              		.cfi_offset 8, -8
 675              		.cfi_offset 14, -4
 676 0004 82B0     		sub	sp, sp, #8
 677              		.cfi_def_cfa_offset 32
 678 0006 8046     		mov	r8, r0
 679 0008 0D46     		mov	r5, r1
 680              	.LVL49:
 420:Generated_Source\PSoC6\pdl\drivers\peripheral\profile/cy_profile.c ****     uint64_t daSum = (uint64_t)0UL;
 421:Generated_Source\PSoC6\pdl\drivers\peripheral\profile/cy_profile.c ****     
 422:Generated_Source\PSoC6\pdl\drivers\peripheral\profile/cy_profile.c ****     CY_ASSERT_L2(CY_PROFILE_IS_CNT_VALID(numCounters));
 681              		.loc 1 422 0
 682 000a 0729     		cmp	r1, #7
 683 000c 04D9     		bls	.L56
 684              		.loc 1 422 0 is_stmt 0 discriminator 1
 685 000e 4FF4D371 		mov	r1, #422
 686              	.LVL50:
ARM GAS  C:\Users\Rolf\AppData\Local\Temp\ccEpnmfk.s 			page 29


 687 0012 0F48     		ldr	r0, .L63
 688              	.LVL51:
 689 0014 FFF7FEFF 		bl	Cy_SysLib_AssertFailed
 690              	.LVL52:
 691              	.L56:
 423:Generated_Source\PSoC6\pdl\drivers\peripheral\profile/cy_profile.c ****     
 424:Generated_Source\PSoC6\pdl\drivers\peripheral\profile/cy_profile.c ****     if(ptrsArray != NULL)
 692              		.loc 1 424 0 is_stmt 1
 693 0018 B8F1000F 		cmp	r8, #0
 694 001c 0ED1     		bne	.L61
 420:Generated_Source\PSoC6\pdl\drivers\peripheral\profile/cy_profile.c ****     uint64_t daSum = (uint64_t)0UL;
 695              		.loc 1 420 0
 696 001e 0026     		movs	r6, #0
 697 0020 0027     		movs	r7, #0
 698 0022 10E0     		b	.L58
 699              	.LVL53:
 700              	.L60:
 701              	.LBB6:
 425:Generated_Source\PSoC6\pdl\drivers\peripheral\profile/cy_profile.c ****     {
 426:Generated_Source\PSoC6\pdl\drivers\peripheral\profile/cy_profile.c ****         uint64_t num;
 427:Generated_Source\PSoC6\pdl\drivers\peripheral\profile/cy_profile.c ****         uint32_t i;
 428:Generated_Source\PSoC6\pdl\drivers\peripheral\profile/cy_profile.c **** 
 429:Generated_Source\PSoC6\pdl\drivers\peripheral\profile/cy_profile.c ****         for (i = 0UL; i < numCounters; i++)
 430:Generated_Source\PSoC6\pdl\drivers\peripheral\profile/cy_profile.c ****         {
 431:Generated_Source\PSoC6\pdl\drivers\peripheral\profile/cy_profile.c ****             /* ignore error reported by Ep_GetWeightedCount() */
 432:Generated_Source\PSoC6\pdl\drivers\peripheral\profile/cy_profile.c ****             if (CY_PROFILE_SUCCESS == Cy_Profile_GetWeightedCount(ptrsArray[i], &num))
 702              		.loc 1 432 0
 703 0024 6946     		mov	r1, sp
 704 0026 58F82400 		ldr	r0, [r8, r4, lsl #2]
 705 002a FFF7FEFF 		bl	Cy_Profile_GetWeightedCount
 706              	.LVL54:
 707 002e 18B9     		cbnz	r0, .L59
 433:Generated_Source\PSoC6\pdl\drivers\peripheral\profile/cy_profile.c ****             {
 434:Generated_Source\PSoC6\pdl\drivers\peripheral\profile/cy_profile.c ****                 daSum += num;
 708              		.loc 1 434 0
 709 0030 DDE90023 		ldrd	r2, [sp]
 710 0034 B618     		adds	r6, r6, r2
 711              	.LVL55:
 712 0036 5F41     		adcs	r7, r7, r3
 713              	.LVL56:
 714              	.L59:
 429:Generated_Source\PSoC6\pdl\drivers\peripheral\profile/cy_profile.c ****         {
 715              		.loc 1 429 0 discriminator 2
 716 0038 0134     		adds	r4, r4, #1
 717              	.LVL57:
 718 003a 02E0     		b	.L57
 719              	.LVL58:
 720              	.L61:
 721              	.LBE6:
 722 003c 0024     		movs	r4, #0
 723 003e 0026     		movs	r6, #0
 724 0040 0027     		movs	r7, #0
 725              	.LVL59:
 726              	.L57:
 727              	.LBB7:
 429:Generated_Source\PSoC6\pdl\drivers\peripheral\profile/cy_profile.c ****         {
 728              		.loc 1 429 0 is_stmt 0 discriminator 1
ARM GAS  C:\Users\Rolf\AppData\Local\Temp\ccEpnmfk.s 			page 30


 729 0042 AC42     		cmp	r4, r5
 730 0044 EED3     		bcc	.L60
 731              	.LVL60:
 732              	.L58:
 733              	.LBE7:
 435:Generated_Source\PSoC6\pdl\drivers\peripheral\profile/cy_profile.c ****             }
 436:Generated_Source\PSoC6\pdl\drivers\peripheral\profile/cy_profile.c ****         }
 437:Generated_Source\PSoC6\pdl\drivers\peripheral\profile/cy_profile.c ****     }
 438:Generated_Source\PSoC6\pdl\drivers\peripheral\profile/cy_profile.c ****     
 439:Generated_Source\PSoC6\pdl\drivers\peripheral\profile/cy_profile.c ****     return (daSum);
 440:Generated_Source\PSoC6\pdl\drivers\peripheral\profile/cy_profile.c **** }
 734              		.loc 1 440 0 is_stmt 1
 735 0046 3046     		mov	r0, r6
 736 0048 3946     		mov	r1, r7
 737 004a 02B0     		add	sp, sp, #8
 738              		.cfi_def_cfa_offset 24
 739              		@ sp needed
 740 004c BDE8F081 		pop	{r4, r5, r6, r7, r8, pc}
 741              	.LVL61:
 742              	.L64:
 743              		.align	2
 744              	.L63:
 745 0050 00000000 		.word	.LC0
 746              		.cfi_endproc
 747              	.LFE147:
 748              		.size	Cy_Profile_GetSumWeightedCounts, .-Cy_Profile_GetSumWeightedCounts
 749              		.section	.rodata.str1.4,"aMS",%progbits,1
 750              		.align	2
 751              	.LC0:
 752 0000 47656E65 		.ascii	"Generated_Source\\PSoC6\\pdl\\drivers\\peripheral\\"
 752      72617465 
 752      645F536F 
 752      75726365 
 752      5C50536F 
 753 002e 70726F66 		.ascii	"profile\\cy_profile.c\000"
 753      696C655C 
 753      63795F70 
 753      726F6669 
 753      6C652E63 
 754              		.bss
 755              		.align	2
 756              		.set	.LANCHOR0,. + 0
 757              		.type	cy_ep_ctrs, %object
 758              		.size	cy_ep_ctrs, 224
 759              	cy_ep_ctrs:
 760 0000 00000000 		.space	224
 760      00000000 
 760      00000000 
 760      00000000 
 760      00000000 
 761              		.text
 762              	.Letext0:
 763              		.file 3 "c:\\program files (x86)\\cypress\\psoc creator\\4.4\\4.4\\psoc creator\\import\\gnu\\arm\
 764              		.file 4 "c:\\program files (x86)\\cypress\\psoc creator\\4.4\\4.4\\psoc creator\\import\\gnu\\arm\
 765              		.file 5 "Generated_Source\\PSoC6\\pdl\\devices/psoc6/include/ip/cyip_profile.h"
 766              		.file 6 "Generated_Source\\PSoC6\\pdl\\drivers/peripheral/device/cy_device.h"
 767              		.file 7 "Generated_Source\\PSoC6\\pdl\\devices/psoc6/include/psoc6_01_config.h"
ARM GAS  C:\Users\Rolf\AppData\Local\Temp\ccEpnmfk.s 			page 31


 768              		.file 8 "Generated_Source\\PSoC6\\pdl\\drivers/peripheral/syslib/cy_syslib.h"
 769              		.file 9 "Generated_Source\\PSoC6\\pdl\\cmsis/include/core_cm4.h"