ARM GAS  C:\Users\Rolf\AppData\Local\Temp\ccEjvRQz.s 			page 1


   1              		.syntax unified
   2              		.cpu cortex-m4
   3              		.eabi_attribute 27, 1
   4              		.fpu fpv4-sp-d16
   5              		.eabi_attribute 20, 1
   6              		.eabi_attribute 21, 1
   7              		.eabi_attribute 23, 3
   8              		.eabi_attribute 24, 1
   9              		.eabi_attribute 25, 1
  10              		.eabi_attribute 26, 1
  11              		.eabi_attribute 30, 1
  12              		.eabi_attribute 34, 1
  13              		.eabi_attribute 18, 4
  14              		.thumb
  15              		.syntax unified
  16              		.file	"cy_syslib.c"
  17              		.text
  18              	.Ltext0:
  19              		.cfi_sections	.debug_frame
  20              		.section	.text.Cy_SysLib_Delay,"ax",%progbits
  21              		.align	2
  22              		.global	Cy_SysLib_Delay
  23              		.thumb
  24              		.thumb_func
  25              		.type	Cy_SysLib_Delay, %function
  26              	Cy_SysLib_Delay:
  27              	.LFB151:
  28              		.file 1 "Generated_Source\\PSoC6\\pdl\\drivers\\peripheral\\syslib\\cy_syslib.c"
   1:Generated_Source\PSoC6\pdl\drivers\peripheral\syslib/cy_syslib.c **** /***************************************************************************//**
   2:Generated_Source\PSoC6\pdl\drivers\peripheral\syslib/cy_syslib.c **** * \file cy_syslib.c
   3:Generated_Source\PSoC6\pdl\drivers\peripheral\syslib/cy_syslib.c **** * \version 2.10
   4:Generated_Source\PSoC6\pdl\drivers\peripheral\syslib/cy_syslib.c **** *
   5:Generated_Source\PSoC6\pdl\drivers\peripheral\syslib/cy_syslib.c **** *  Description:
   6:Generated_Source\PSoC6\pdl\drivers\peripheral\syslib/cy_syslib.c **** *   Provides system API implementation for the SysLib driver.
   7:Generated_Source\PSoC6\pdl\drivers\peripheral\syslib/cy_syslib.c **** *
   8:Generated_Source\PSoC6\pdl\drivers\peripheral\syslib/cy_syslib.c **** ********************************************************************************
   9:Generated_Source\PSoC6\pdl\drivers\peripheral\syslib/cy_syslib.c **** * Copyright 2016-2018, Cypress Semiconductor Corporation. All rights reserved.
  10:Generated_Source\PSoC6\pdl\drivers\peripheral\syslib/cy_syslib.c **** * You may use this file only in accordance with the license, terms, conditions,
  11:Generated_Source\PSoC6\pdl\drivers\peripheral\syslib/cy_syslib.c **** * disclaimers, and limitations in the end user license agreement accompanying
  12:Generated_Source\PSoC6\pdl\drivers\peripheral\syslib/cy_syslib.c **** * the software package with which this file was provided.
  13:Generated_Source\PSoC6\pdl\drivers\peripheral\syslib/cy_syslib.c **** *******************************************************************************/
  14:Generated_Source\PSoC6\pdl\drivers\peripheral\syslib/cy_syslib.c **** 
  15:Generated_Source\PSoC6\pdl\drivers\peripheral\syslib/cy_syslib.c **** #include "cy_syslib.h"
  16:Generated_Source\PSoC6\pdl\drivers\peripheral\syslib/cy_syslib.c **** #include "cy_ipc_drv.h"
  17:Generated_Source\PSoC6\pdl\drivers\peripheral\syslib/cy_syslib.c **** #if !defined(NDEBUG)
  18:Generated_Source\PSoC6\pdl\drivers\peripheral\syslib/cy_syslib.c ****     #include <string.h>
  19:Generated_Source\PSoC6\pdl\drivers\peripheral\syslib/cy_syslib.c **** #endif /* NDEBUG */
  20:Generated_Source\PSoC6\pdl\drivers\peripheral\syslib/cy_syslib.c **** 
  21:Generated_Source\PSoC6\pdl\drivers\peripheral\syslib/cy_syslib.c **** /* Flash wait states (ULP mode at 0.9v) */
  22:Generated_Source\PSoC6\pdl\drivers\peripheral\syslib/cy_syslib.c **** #define CY_SYSLIB_FLASH_ULP_WS_0_FREQ_MAX    ( 16UL)
  23:Generated_Source\PSoC6\pdl\drivers\peripheral\syslib/cy_syslib.c **** #define CY_SYSLIB_FLASH_ULP_WS_1_FREQ_MAX    ( 33UL)
  24:Generated_Source\PSoC6\pdl\drivers\peripheral\syslib/cy_syslib.c **** #define CY_SYSLIB_FLASH_ULP_WS_2_FREQ_MAX    ( 50UL)
  25:Generated_Source\PSoC6\pdl\drivers\peripheral\syslib/cy_syslib.c **** 
  26:Generated_Source\PSoC6\pdl\drivers\peripheral\syslib/cy_syslib.c **** /* ROM and SRAM wait states for the slow clock domain (LP mode at 1.1v) */
  27:Generated_Source\PSoC6\pdl\drivers\peripheral\syslib/cy_syslib.c **** #define CY_SYSLIB_LP_SLOW_WS_0_FREQ_MAX      (100UL)
  28:Generated_Source\PSoC6\pdl\drivers\peripheral\syslib/cy_syslib.c **** #define CY_SYSLIB_LP_SLOW_WS_1_FREQ_MAX      (120UL)
  29:Generated_Source\PSoC6\pdl\drivers\peripheral\syslib/cy_syslib.c **** 
ARM GAS  C:\Users\Rolf\AppData\Local\Temp\ccEjvRQz.s 			page 2


  30:Generated_Source\PSoC6\pdl\drivers\peripheral\syslib/cy_syslib.c **** /* ROM and SRAM wait states for the slow clock domain (ULP mode at 0.9v) */
  31:Generated_Source\PSoC6\pdl\drivers\peripheral\syslib/cy_syslib.c **** #define CY_SYSLIB_ULP_SLOW_WS_0_FREQ_MAX     ( 25UL)
  32:Generated_Source\PSoC6\pdl\drivers\peripheral\syslib/cy_syslib.c **** #define CY_SYSLIB_ULP_SLOW_WS_1_FREQ_MAX     ( 50UL)
  33:Generated_Source\PSoC6\pdl\drivers\peripheral\syslib/cy_syslib.c **** 
  34:Generated_Source\PSoC6\pdl\drivers\peripheral\syslib/cy_syslib.c **** 
  35:Generated_Source\PSoC6\pdl\drivers\peripheral\syslib/cy_syslib.c **** #if !defined(NDEBUG)
  36:Generated_Source\PSoC6\pdl\drivers\peripheral\syslib/cy_syslib.c ****     CY_NOINIT char_t cy_assertFileName[CY_MAX_FILE_NAME_SIZE];
  37:Generated_Source\PSoC6\pdl\drivers\peripheral\syslib/cy_syslib.c ****     CY_NOINIT uint32_t cy_assertLine;
  38:Generated_Source\PSoC6\pdl\drivers\peripheral\syslib/cy_syslib.c **** #endif /* NDEBUG */
  39:Generated_Source\PSoC6\pdl\drivers\peripheral\syslib/cy_syslib.c **** 
  40:Generated_Source\PSoC6\pdl\drivers\peripheral\syslib/cy_syslib.c **** #if (CY_ARM_FAULT_DEBUG == CY_ARM_FAULT_DEBUG_ENABLED)
  41:Generated_Source\PSoC6\pdl\drivers\peripheral\syslib/cy_syslib.c ****     CY_NOINIT cy_stc_fault_frame_t cy_faultFrame;
  42:Generated_Source\PSoC6\pdl\drivers\peripheral\syslib/cy_syslib.c **** #endif /* (CY_ARM_FAULT_DEBUG == CY_ARM_FAULT_DEBUG_ENABLED) */
  43:Generated_Source\PSoC6\pdl\drivers\peripheral\syslib/cy_syslib.c **** 
  44:Generated_Source\PSoC6\pdl\drivers\peripheral\syslib/cy_syslib.c **** #if defined(__ARMCC_VERSION)
  45:Generated_Source\PSoC6\pdl\drivers\peripheral\syslib/cy_syslib.c ****     static __ASM void Cy_SysLib_AsmInfiniteLoop(void) { b . };
  46:Generated_Source\PSoC6\pdl\drivers\peripheral\syslib/cy_syslib.c **** #endif  /* (__ARMCC_VERSION) */
  47:Generated_Source\PSoC6\pdl\drivers\peripheral\syslib/cy_syslib.c **** 
  48:Generated_Source\PSoC6\pdl\drivers\peripheral\syslib/cy_syslib.c **** 
  49:Generated_Source\PSoC6\pdl\drivers\peripheral\syslib/cy_syslib.c **** /*******************************************************************************
  50:Generated_Source\PSoC6\pdl\drivers\peripheral\syslib/cy_syslib.c **** * Function Name: Cy_SysLib_Delay
  51:Generated_Source\PSoC6\pdl\drivers\peripheral\syslib/cy_syslib.c **** ****************************************************************************//**
  52:Generated_Source\PSoC6\pdl\drivers\peripheral\syslib/cy_syslib.c **** *
  53:Generated_Source\PSoC6\pdl\drivers\peripheral\syslib/cy_syslib.c **** * The function delays by the specified number of milliseconds.
  54:Generated_Source\PSoC6\pdl\drivers\peripheral\syslib/cy_syslib.c **** * By default, the number of cycles to delay is calculated based on the
  55:Generated_Source\PSoC6\pdl\drivers\peripheral\syslib/cy_syslib.c **** * \ref SystemCoreClock.
  56:Generated_Source\PSoC6\pdl\drivers\peripheral\syslib/cy_syslib.c **** *
  57:Generated_Source\PSoC6\pdl\drivers\peripheral\syslib/cy_syslib.c **** * \param milliseconds  The number of milliseconds to delay.
  58:Generated_Source\PSoC6\pdl\drivers\peripheral\syslib/cy_syslib.c **** *
  59:Generated_Source\PSoC6\pdl\drivers\peripheral\syslib/cy_syslib.c **** * \note The function calls \ref Cy_SysLib_DelayCycles() API to generate a delay.
  60:Generated_Source\PSoC6\pdl\drivers\peripheral\syslib/cy_syslib.c **** *       If the function parameter (milliseconds) is bigger than 
  61:Generated_Source\PSoC6\pdl\drivers\peripheral\syslib/cy_syslib.c **** *       CY_DELAY_MS_OVERFLOW constant, then an additional loop runs to prevent
  62:Generated_Source\PSoC6\pdl\drivers\peripheral\syslib/cy_syslib.c **** *       an overflow in parameter passed to \ref Cy_SysLib_DelayCycles() API.
  63:Generated_Source\PSoC6\pdl\drivers\peripheral\syslib/cy_syslib.c **** *
  64:Generated_Source\PSoC6\pdl\drivers\peripheral\syslib/cy_syslib.c **** *******************************************************************************/
  65:Generated_Source\PSoC6\pdl\drivers\peripheral\syslib/cy_syslib.c **** void Cy_SysLib_Delay(uint32_t milliseconds)
  66:Generated_Source\PSoC6\pdl\drivers\peripheral\syslib/cy_syslib.c **** {
  29              		.loc 1 66 0
  30              		.cfi_startproc
  31              		@ args = 0, pretend = 0, frame = 0
  32              		@ frame_needed = 0, uses_anonymous_args = 0
  33              	.LVL0:
  34 0000 10B5     		push	{r4, lr}
  35              		.cfi_def_cfa_offset 8
  36              		.cfi_offset 4, -8
  37              		.cfi_offset 14, -4
  38 0002 0446     		mov	r4, r0
  67:Generated_Source\PSoC6\pdl\drivers\peripheral\syslib/cy_syslib.c ****     while(milliseconds > CY_DELAY_MS_OVERFLOW)
  39              		.loc 1 67 0
  40 0004 05E0     		b	.L2
  41              	.LVL1:
  42              	.L3:
  68:Generated_Source\PSoC6\pdl\drivers\peripheral\syslib/cy_syslib.c ****     {
  69:Generated_Source\PSoC6\pdl\drivers\peripheral\syslib/cy_syslib.c ****         /* This loop prevents an overflow in value passed to Cy_SysLib_DelayCycles() API.
  70:Generated_Source\PSoC6\pdl\drivers\peripheral\syslib/cy_syslib.c ****          * At 100 MHz, (milliseconds * cy_delayFreqKhz) product overflows
  71:Generated_Source\PSoC6\pdl\drivers\peripheral\syslib/cy_syslib.c ****          * in case if milliseconds parameter is more than 42 seconds.
  72:Generated_Source\PSoC6\pdl\drivers\peripheral\syslib/cy_syslib.c ****          */
ARM GAS  C:\Users\Rolf\AppData\Local\Temp\ccEjvRQz.s 			page 3


  73:Generated_Source\PSoC6\pdl\drivers\peripheral\syslib/cy_syslib.c ****         Cy_SysLib_DelayCycles(cy_delay32kMs);
  43              		.loc 1 73 0
  44 0006 084B     		ldr	r3, .L5
  45 0008 1868     		ldr	r0, [r3]
  46 000a FFF7FEFF 		bl	Cy_SysLib_DelayCycles
  47              	.LVL2:
  74:Generated_Source\PSoC6\pdl\drivers\peripheral\syslib/cy_syslib.c ****         milliseconds -= CY_DELAY_MS_OVERFLOW;
  48              		.loc 1 74 0
  49 000e A4F50044 		sub	r4, r4, #32768
  50              	.LVL3:
  51              	.L2:
  67:Generated_Source\PSoC6\pdl\drivers\peripheral\syslib/cy_syslib.c ****     while(milliseconds > CY_DELAY_MS_OVERFLOW)
  52              		.loc 1 67 0
  53 0012 B4F5004F 		cmp	r4, #32768
  54 0016 F6D8     		bhi	.L3
  75:Generated_Source\PSoC6\pdl\drivers\peripheral\syslib/cy_syslib.c ****     }
  76:Generated_Source\PSoC6\pdl\drivers\peripheral\syslib/cy_syslib.c **** 
  77:Generated_Source\PSoC6\pdl\drivers\peripheral\syslib/cy_syslib.c ****     Cy_SysLib_DelayCycles(milliseconds * cy_delayFreqKhz);
  55              		.loc 1 77 0
  56 0018 044B     		ldr	r3, .L5+4
  57 001a 1868     		ldr	r0, [r3]
  58 001c 00FB04F0 		mul	r0, r0, r4
  59 0020 FFF7FEFF 		bl	Cy_SysLib_DelayCycles
  60              	.LVL4:
  61 0024 10BD     		pop	{r4, pc}
  62              	.LVL5:
  63              	.L6:
  64 0026 00BF     		.align	2
  65              	.L5:
  66 0028 00000000 		.word	cy_delay32kMs
  67 002c 00000000 		.word	cy_delayFreqKhz
  68              		.cfi_endproc
  69              	.LFE151:
  70              		.size	Cy_SysLib_Delay, .-Cy_SysLib_Delay
  71              		.section	.text.Cy_SysLib_DelayUs,"ax",%progbits
  72              		.align	2
  73              		.global	Cy_SysLib_DelayUs
  74              		.thumb
  75              		.thumb_func
  76              		.type	Cy_SysLib_DelayUs, %function
  77              	Cy_SysLib_DelayUs:
  78              	.LFB152:
  78:Generated_Source\PSoC6\pdl\drivers\peripheral\syslib/cy_syslib.c **** }
  79:Generated_Source\PSoC6\pdl\drivers\peripheral\syslib/cy_syslib.c **** 
  80:Generated_Source\PSoC6\pdl\drivers\peripheral\syslib/cy_syslib.c **** 
  81:Generated_Source\PSoC6\pdl\drivers\peripheral\syslib/cy_syslib.c **** /*******************************************************************************
  82:Generated_Source\PSoC6\pdl\drivers\peripheral\syslib/cy_syslib.c **** * Function Name: Cy_SysLib_DelayUs
  83:Generated_Source\PSoC6\pdl\drivers\peripheral\syslib/cy_syslib.c **** ****************************************************************************//**
  84:Generated_Source\PSoC6\pdl\drivers\peripheral\syslib/cy_syslib.c **** *
  85:Generated_Source\PSoC6\pdl\drivers\peripheral\syslib/cy_syslib.c **** * The function delays by the specified number of microseconds.
  86:Generated_Source\PSoC6\pdl\drivers\peripheral\syslib/cy_syslib.c **** * By default, the number of cycles to delay is calculated based on the
  87:Generated_Source\PSoC6\pdl\drivers\peripheral\syslib/cy_syslib.c **** * \ref SystemCoreClock.
  88:Generated_Source\PSoC6\pdl\drivers\peripheral\syslib/cy_syslib.c **** *
  89:Generated_Source\PSoC6\pdl\drivers\peripheral\syslib/cy_syslib.c **** * \param microseconds  The number of microseconds to delay.
  90:Generated_Source\PSoC6\pdl\drivers\peripheral\syslib/cy_syslib.c **** *
  91:Generated_Source\PSoC6\pdl\drivers\peripheral\syslib/cy_syslib.c **** * \note If the CPU frequency is a small non-integer number, the actual delay
  92:Generated_Source\PSoC6\pdl\drivers\peripheral\syslib/cy_syslib.c **** *       can be up to twice as long as the nominal value. The actual delay
ARM GAS  C:\Users\Rolf\AppData\Local\Temp\ccEjvRQz.s 			page 4


  93:Generated_Source\PSoC6\pdl\drivers\peripheral\syslib/cy_syslib.c **** *       cannot be shorter than the nominal one.
  94:Generated_Source\PSoC6\pdl\drivers\peripheral\syslib/cy_syslib.c **** *
  95:Generated_Source\PSoC6\pdl\drivers\peripheral\syslib/cy_syslib.c **** *******************************************************************************/
  96:Generated_Source\PSoC6\pdl\drivers\peripheral\syslib/cy_syslib.c **** void Cy_SysLib_DelayUs(uint16_t microseconds)
  97:Generated_Source\PSoC6\pdl\drivers\peripheral\syslib/cy_syslib.c **** {
  79              		.loc 1 97 0
  80              		.cfi_startproc
  81              		@ args = 0, pretend = 0, frame = 0
  82              		@ frame_needed = 0, uses_anonymous_args = 0
  83              	.LVL6:
  84 0000 08B5     		push	{r3, lr}
  85              		.cfi_def_cfa_offset 8
  86              		.cfi_offset 3, -8
  87              		.cfi_offset 14, -4
  98:Generated_Source\PSoC6\pdl\drivers\peripheral\syslib/cy_syslib.c ****     Cy_SysLib_DelayCycles((uint32_t) microseconds * cy_delayFreqMhz);
  88              		.loc 1 98 0
  89 0002 034B     		ldr	r3, .L9
  90 0004 1B78     		ldrb	r3, [r3]	@ zero_extendqisi2
  91 0006 00FB03F0 		mul	r0, r0, r3
  92              	.LVL7:
  93 000a FFF7FEFF 		bl	Cy_SysLib_DelayCycles
  94              	.LVL8:
  95 000e 08BD     		pop	{r3, pc}
  96              	.L10:
  97              		.align	2
  98              	.L9:
  99 0010 00000000 		.word	cy_delayFreqMhz
 100              		.cfi_endproc
 101              	.LFE152:
 102              		.size	Cy_SysLib_DelayUs, .-Cy_SysLib_DelayUs
 103              		.section	.text.Cy_SysLib_Halt,"ax",%progbits
 104              		.align	2
 105              		.global	Cy_SysLib_Halt
 106              		.thumb
 107              		.thumb_func
 108              		.type	Cy_SysLib_Halt, %function
 109              	Cy_SysLib_Halt:
 110              	.LFB153:
  99:Generated_Source\PSoC6\pdl\drivers\peripheral\syslib/cy_syslib.c **** }
 100:Generated_Source\PSoC6\pdl\drivers\peripheral\syslib/cy_syslib.c **** 
 101:Generated_Source\PSoC6\pdl\drivers\peripheral\syslib/cy_syslib.c **** 
 102:Generated_Source\PSoC6\pdl\drivers\peripheral\syslib/cy_syslib.c **** /*******************************************************************************
 103:Generated_Source\PSoC6\pdl\drivers\peripheral\syslib/cy_syslib.c **** * Function Name: Cy_SysLib_Halt
 104:Generated_Source\PSoC6\pdl\drivers\peripheral\syslib/cy_syslib.c **** ****************************************************************************//**
 105:Generated_Source\PSoC6\pdl\drivers\peripheral\syslib/cy_syslib.c **** *
 106:Generated_Source\PSoC6\pdl\drivers\peripheral\syslib/cy_syslib.c **** * This function halts the CPU but only the CPU which calls the function.
 107:Generated_Source\PSoC6\pdl\drivers\peripheral\syslib/cy_syslib.c **** * It doesn't affect other CPUs.
 108:Generated_Source\PSoC6\pdl\drivers\peripheral\syslib/cy_syslib.c **** *
 109:Generated_Source\PSoC6\pdl\drivers\peripheral\syslib/cy_syslib.c **** * \param reason  The value to be used during debugging.
 110:Generated_Source\PSoC6\pdl\drivers\peripheral\syslib/cy_syslib.c **** *
 111:Generated_Source\PSoC6\pdl\drivers\peripheral\syslib/cy_syslib.c **** * \note The function executes the BKPT instruction for halting CPU and is
 112:Generated_Source\PSoC6\pdl\drivers\peripheral\syslib/cy_syslib.c **** *       intended to be used for the debug purpose. A regular use case requires
 113:Generated_Source\PSoC6\pdl\drivers\peripheral\syslib/cy_syslib.c **** *       Debugger attachment before the function call.
 114:Generated_Source\PSoC6\pdl\drivers\peripheral\syslib/cy_syslib.c **** *       The BKPT instruction causes the CPU to enter the Debug state. Debug
 115:Generated_Source\PSoC6\pdl\drivers\peripheral\syslib/cy_syslib.c **** *       tools can use this to investigate the system state, when the
 116:Generated_Source\PSoC6\pdl\drivers\peripheral\syslib/cy_syslib.c **** *       instruction at a particular address is reached.
 117:Generated_Source\PSoC6\pdl\drivers\peripheral\syslib/cy_syslib.c **** *
ARM GAS  C:\Users\Rolf\AppData\Local\Temp\ccEjvRQz.s 			page 5


 118:Generated_Source\PSoC6\pdl\drivers\peripheral\syslib/cy_syslib.c **** * \note Execution of a BKPT instruction without a debugger attached produces
 119:Generated_Source\PSoC6\pdl\drivers\peripheral\syslib/cy_syslib.c **** *       a fault. The fault results in the HardFault exception being taken
 120:Generated_Source\PSoC6\pdl\drivers\peripheral\syslib/cy_syslib.c **** *       or causes a Lockup state if it occurs in the NMI or HardFault handler.
 121:Generated_Source\PSoC6\pdl\drivers\peripheral\syslib/cy_syslib.c **** *       The default HardFault handler make a software reset if the build option
 122:Generated_Source\PSoC6\pdl\drivers\peripheral\syslib/cy_syslib.c **** *       is the release mode (NDEBUG). If the build option is the debug mode,
 123:Generated_Source\PSoC6\pdl\drivers\peripheral\syslib/cy_syslib.c **** *       the system will stay in the infinite loop of the
 124:Generated_Source\PSoC6\pdl\drivers\peripheral\syslib/cy_syslib.c **** *       \ref Cy_SysLib_ProcessingFault() function.
 125:Generated_Source\PSoC6\pdl\drivers\peripheral\syslib/cy_syslib.c **** *
 126:Generated_Source\PSoC6\pdl\drivers\peripheral\syslib/cy_syslib.c **** *******************************************************************************/
 127:Generated_Source\PSoC6\pdl\drivers\peripheral\syslib/cy_syslib.c **** __NO_RETURN void Cy_SysLib_Halt(uint32_t reason)
 128:Generated_Source\PSoC6\pdl\drivers\peripheral\syslib/cy_syslib.c **** {
 111              		.loc 1 128 0
 112              		.cfi_startproc
 113              		@ Volatile: function does not return.
 114              		@ args = 0, pretend = 0, frame = 0
 115              		@ frame_needed = 0, uses_anonymous_args = 0
 116              		@ link register save eliminated.
 117              	.LVL9:
 129:Generated_Source\PSoC6\pdl\drivers\peripheral\syslib/cy_syslib.c ****     if(0U != reason)
 130:Generated_Source\PSoC6\pdl\drivers\peripheral\syslib/cy_syslib.c ****     {
 131:Generated_Source\PSoC6\pdl\drivers\peripheral\syslib/cy_syslib.c ****         /* To remove an unreferenced local variable warning */
 132:Generated_Source\PSoC6\pdl\drivers\peripheral\syslib/cy_syslib.c ****     }
 133:Generated_Source\PSoC6\pdl\drivers\peripheral\syslib/cy_syslib.c **** 
 134:Generated_Source\PSoC6\pdl\drivers\peripheral\syslib/cy_syslib.c ****     #if defined (__ARMCC_VERSION)
 135:Generated_Source\PSoC6\pdl\drivers\peripheral\syslib/cy_syslib.c ****         __breakpoint(0x0);
 136:Generated_Source\PSoC6\pdl\drivers\peripheral\syslib/cy_syslib.c ****     #elif defined(__GNUC__)
 137:Generated_Source\PSoC6\pdl\drivers\peripheral\syslib/cy_syslib.c ****         __asm("    bkpt    1");
 118              		.loc 1 137 0
 119              		.syntax unified
 120              	@ 137 "Generated_Source\PSoC6\pdl\drivers\peripheral\syslib\cy_syslib.c" 1
 121 0000 01BE     		    bkpt    1
 122              	@ 0 "" 2
 123              		.thumb
 124              		.syntax unified
 125              	.L12:
 126 0002 FEE7     		b	.L12
 127              		.cfi_endproc
 128              	.LFE153:
 129              		.size	Cy_SysLib_Halt, .-Cy_SysLib_Halt
 130              		.section	.text.Cy_SysLib_AssertFailed,"ax",%progbits
 131              		.align	2
 132              		.weak	Cy_SysLib_AssertFailed
 133              		.thumb
 134              		.thumb_func
 135              		.type	Cy_SysLib_AssertFailed, %function
 136              	Cy_SysLib_AssertFailed:
 137              	.LFB154:
 138:Generated_Source\PSoC6\pdl\drivers\peripheral\syslib/cy_syslib.c ****     #elif defined (__ICCARM__)
 139:Generated_Source\PSoC6\pdl\drivers\peripheral\syslib/cy_syslib.c ****         __asm("    bkpt    1");
 140:Generated_Source\PSoC6\pdl\drivers\peripheral\syslib/cy_syslib.c ****     #else
 141:Generated_Source\PSoC6\pdl\drivers\peripheral\syslib/cy_syslib.c ****         #error "An unsupported toolchain"
 142:Generated_Source\PSoC6\pdl\drivers\peripheral\syslib/cy_syslib.c ****     #endif  /* (__ARMCC_VERSION) */
 143:Generated_Source\PSoC6\pdl\drivers\peripheral\syslib/cy_syslib.c **** 
 144:Generated_Source\PSoC6\pdl\drivers\peripheral\syslib/cy_syslib.c ****     while(1) {}
 145:Generated_Source\PSoC6\pdl\drivers\peripheral\syslib/cy_syslib.c **** }
 146:Generated_Source\PSoC6\pdl\drivers\peripheral\syslib/cy_syslib.c **** 
 147:Generated_Source\PSoC6\pdl\drivers\peripheral\syslib/cy_syslib.c **** 
ARM GAS  C:\Users\Rolf\AppData\Local\Temp\ccEjvRQz.s 			page 6


 148:Generated_Source\PSoC6\pdl\drivers\peripheral\syslib/cy_syslib.c **** #if !defined(NDEBUG) || defined(CY_DOXYGEN)
 149:Generated_Source\PSoC6\pdl\drivers\peripheral\syslib/cy_syslib.c **** /*******************************************************************************
 150:Generated_Source\PSoC6\pdl\drivers\peripheral\syslib/cy_syslib.c **** * Macro Name: Cy_SysLib_AssertFailed
 151:Generated_Source\PSoC6\pdl\drivers\peripheral\syslib/cy_syslib.c **** ****************************************************************************//**
 152:Generated_Source\PSoC6\pdl\drivers\peripheral\syslib/cy_syslib.c **** *
 153:Generated_Source\PSoC6\pdl\drivers\peripheral\syslib/cy_syslib.c **** * This function stores the ASSERT location of the file name (including path
 154:Generated_Source\PSoC6\pdl\drivers\peripheral\syslib/cy_syslib.c **** * to file) and line number in a non-zero init area for debugging. Also it calls
 155:Generated_Source\PSoC6\pdl\drivers\peripheral\syslib/cy_syslib.c **** * the \ref Cy_SysLib_Halt() function to halt the processor.
 156:Generated_Source\PSoC6\pdl\drivers\peripheral\syslib/cy_syslib.c **** *
 157:Generated_Source\PSoC6\pdl\drivers\peripheral\syslib/cy_syslib.c **** * \param file  The file name of the ASSERT location.
 158:Generated_Source\PSoC6\pdl\drivers\peripheral\syslib/cy_syslib.c **** * \param line  The line number of the ASSERT location.
 159:Generated_Source\PSoC6\pdl\drivers\peripheral\syslib/cy_syslib.c **** *
 160:Generated_Source\PSoC6\pdl\drivers\peripheral\syslib/cy_syslib.c **** * \note A stored file name and line number could be accessed by
 161:Generated_Source\PSoC6\pdl\drivers\peripheral\syslib/cy_syslib.c **** *       cy_assertFileName and cy_assertLine global variables.
 162:Generated_Source\PSoC6\pdl\drivers\peripheral\syslib/cy_syslib.c **** * \note This function has the WEAK option, so the user can redefine
 163:Generated_Source\PSoC6\pdl\drivers\peripheral\syslib/cy_syslib.c **** *       the function for a custom processing.
 164:Generated_Source\PSoC6\pdl\drivers\peripheral\syslib/cy_syslib.c **** *
 165:Generated_Source\PSoC6\pdl\drivers\peripheral\syslib/cy_syslib.c **** *******************************************************************************/
 166:Generated_Source\PSoC6\pdl\drivers\peripheral\syslib/cy_syslib.c **** __WEAK void Cy_SysLib_AssertFailed(const char_t * file, uint32_t line)
 167:Generated_Source\PSoC6\pdl\drivers\peripheral\syslib/cy_syslib.c **** {
 138              		.loc 1 167 0
 139              		.cfi_startproc
 140              		@ args = 0, pretend = 0, frame = 0
 141              		@ frame_needed = 0, uses_anonymous_args = 0
 142              	.LVL10:
 143 0000 38B5     		push	{r3, r4, r5, lr}
 144              		.cfi_def_cfa_offset 16
 145              		.cfi_offset 3, -16
 146              		.cfi_offset 4, -12
 147              		.cfi_offset 5, -8
 148              		.cfi_offset 14, -4
 149 0002 0D46     		mov	r5, r1
 168:Generated_Source\PSoC6\pdl\drivers\peripheral\syslib/cy_syslib.c ****     (void) strncpy(cy_assertFileName, file, CY_MAX_FILE_NAME_SIZE);
 150              		.loc 1 168 0
 151 0004 044C     		ldr	r4, .L15
 152 0006 1822     		movs	r2, #24
 153 0008 0146     		mov	r1, r0
 154              	.LVL11:
 155 000a 2046     		mov	r0, r4
 156              	.LVL12:
 157 000c FFF7FEFF 		bl	strncpy
 158              	.LVL13:
 169:Generated_Source\PSoC6\pdl\drivers\peripheral\syslib/cy_syslib.c ****     cy_assertLine = line;
 159              		.loc 1 169 0
 160 0010 A561     		str	r5, [r4, #24]
 170:Generated_Source\PSoC6\pdl\drivers\peripheral\syslib/cy_syslib.c ****     Cy_SysLib_Halt(0UL);
 161              		.loc 1 170 0
 162 0012 0020     		movs	r0, #0
 163 0014 FFF7FEFF 		bl	Cy_SysLib_Halt
 164              	.LVL14:
 165              	.L16:
 166              		.align	2
 167              	.L15:
 168 0018 00000000 		.word	.LANCHOR0
 169              		.cfi_endproc
 170              	.LFE154:
 171              		.size	Cy_SysLib_AssertFailed, .-Cy_SysLib_AssertFailed
ARM GAS  C:\Users\Rolf\AppData\Local\Temp\ccEjvRQz.s 			page 7


 172              		.section	.text.Cy_SysLib_ClearFlashCacheAndBuffer,"ax",%progbits
 173              		.align	2
 174              		.global	Cy_SysLib_ClearFlashCacheAndBuffer
 175              		.thumb
 176              		.thumb_func
 177              		.type	Cy_SysLib_ClearFlashCacheAndBuffer, %function
 178              	Cy_SysLib_ClearFlashCacheAndBuffer:
 179              	.LFB155:
 171:Generated_Source\PSoC6\pdl\drivers\peripheral\syslib/cy_syslib.c **** }
 172:Generated_Source\PSoC6\pdl\drivers\peripheral\syslib/cy_syslib.c **** #endif  /* !defined(NDEBUG) || defined(CY_DOXYGEN) */
 173:Generated_Source\PSoC6\pdl\drivers\peripheral\syslib/cy_syslib.c **** 
 174:Generated_Source\PSoC6\pdl\drivers\peripheral\syslib/cy_syslib.c **** 
 175:Generated_Source\PSoC6\pdl\drivers\peripheral\syslib/cy_syslib.c **** /*******************************************************************************
 176:Generated_Source\PSoC6\pdl\drivers\peripheral\syslib/cy_syslib.c **** * Function Name: Cy_SysLib_ClearFlashCacheAndBuffer
 177:Generated_Source\PSoC6\pdl\drivers\peripheral\syslib/cy_syslib.c **** ****************************************************************************//**
 178:Generated_Source\PSoC6\pdl\drivers\peripheral\syslib/cy_syslib.c **** *
 179:Generated_Source\PSoC6\pdl\drivers\peripheral\syslib/cy_syslib.c **** * This function invalidates the flash cache and buffer. It ensures the valid
 180:Generated_Source\PSoC6\pdl\drivers\peripheral\syslib/cy_syslib.c **** * data is read from flash instead of using outdated data from the cache.
 181:Generated_Source\PSoC6\pdl\drivers\peripheral\syslib/cy_syslib.c **** * The caches' LRU structure is also reset to their default state.
 182:Generated_Source\PSoC6\pdl\drivers\peripheral\syslib/cy_syslib.c **** *
 183:Generated_Source\PSoC6\pdl\drivers\peripheral\syslib/cy_syslib.c **** * \note The operation takes a maximum of three clock cycles on the slowest of
 184:Generated_Source\PSoC6\pdl\drivers\peripheral\syslib/cy_syslib.c **** *       the clk_slow and clk_fast clocks.
 185:Generated_Source\PSoC6\pdl\drivers\peripheral\syslib/cy_syslib.c **** *
 186:Generated_Source\PSoC6\pdl\drivers\peripheral\syslib/cy_syslib.c **** *******************************************************************************/
 187:Generated_Source\PSoC6\pdl\drivers\peripheral\syslib/cy_syslib.c **** void Cy_SysLib_ClearFlashCacheAndBuffer(void)
 188:Generated_Source\PSoC6\pdl\drivers\peripheral\syslib/cy_syslib.c **** {
 180              		.loc 1 188 0
 181              		.cfi_startproc
 182              		@ args = 0, pretend = 0, frame = 0
 183              		@ frame_needed = 0, uses_anonymous_args = 0
 184              		@ link register save eliminated.
 189:Generated_Source\PSoC6\pdl\drivers\peripheral\syslib/cy_syslib.c ****     FLASHC_FLASH_CMD = FLASHC_FLASH_CMD_INV_Msk;
 185              		.loc 1 189 0
 186 0000 024B     		ldr	r3, .L18
 187 0002 1B68     		ldr	r3, [r3]
 188 0004 5B68     		ldr	r3, [r3, #4]
 189 0006 0122     		movs	r2, #1
 190 0008 9A60     		str	r2, [r3, #8]
 191 000a 7047     		bx	lr
 192              	.L19:
 193              		.align	2
 194              	.L18:
 195 000c 00000000 		.word	cy_device
 196              		.cfi_endproc
 197              	.LFE155:
 198              		.size	Cy_SysLib_ClearFlashCacheAndBuffer, .-Cy_SysLib_ClearFlashCacheAndBuffer
 199              		.section	.text.Cy_SysLib_ResetBackupDomain,"ax",%progbits
 200              		.align	2
 201              		.global	Cy_SysLib_ResetBackupDomain
 202              		.thumb
 203              		.thumb_func
 204              		.type	Cy_SysLib_ResetBackupDomain, %function
 205              	Cy_SysLib_ResetBackupDomain:
 206              	.LFB156:
 190:Generated_Source\PSoC6\pdl\drivers\peripheral\syslib/cy_syslib.c **** }
 191:Generated_Source\PSoC6\pdl\drivers\peripheral\syslib/cy_syslib.c **** 
 192:Generated_Source\PSoC6\pdl\drivers\peripheral\syslib/cy_syslib.c **** 
ARM GAS  C:\Users\Rolf\AppData\Local\Temp\ccEjvRQz.s 			page 8


 193:Generated_Source\PSoC6\pdl\drivers\peripheral\syslib/cy_syslib.c **** /*******************************************************************************
 194:Generated_Source\PSoC6\pdl\drivers\peripheral\syslib/cy_syslib.c **** * Function Name: Cy_SysLib_ResetBackupDomain
 195:Generated_Source\PSoC6\pdl\drivers\peripheral\syslib/cy_syslib.c **** ****************************************************************************//**
 196:Generated_Source\PSoC6\pdl\drivers\peripheral\syslib/cy_syslib.c **** *
 197:Generated_Source\PSoC6\pdl\drivers\peripheral\syslib/cy_syslib.c **** * This function resets the backup domain power to avoid the ILO glitch. The
 198:Generated_Source\PSoC6\pdl\drivers\peripheral\syslib/cy_syslib.c **** * glitch can occur when the device is reset due to POR/BOD/XRES while
 199:Generated_Source\PSoC6\pdl\drivers\peripheral\syslib/cy_syslib.c **** * the backup voltage is supplied into the system.
 200:Generated_Source\PSoC6\pdl\drivers\peripheral\syslib/cy_syslib.c **** *
 201:Generated_Source\PSoC6\pdl\drivers\peripheral\syslib/cy_syslib.c **** * \note Writing 1 to BACKUP->RESET resets the backup logic. Hardware clears it
 202:Generated_Source\PSoC6\pdl\drivers\peripheral\syslib/cy_syslib.c **** *       when the reset is complete. After setting the register, this function
 203:Generated_Source\PSoC6\pdl\drivers\peripheral\syslib/cy_syslib.c **** *       reads the register immediately for returning the result of the backup
 204:Generated_Source\PSoC6\pdl\drivers\peripheral\syslib/cy_syslib.c **** *       domain reset state. The reading register is important because the Read
 205:Generated_Source\PSoC6\pdl\drivers\peripheral\syslib/cy_syslib.c **** *       itself takes multiple AHB clock cycles, and the reset is actually
 206:Generated_Source\PSoC6\pdl\drivers\peripheral\syslib/cy_syslib.c **** *       finishing during that time.
 207:Generated_Source\PSoC6\pdl\drivers\peripheral\syslib/cy_syslib.c **** *
 208:Generated_Source\PSoC6\pdl\drivers\peripheral\syslib/cy_syslib.c **** * \return CY_SYSLIB_SUCCESS, if BACKUP->RESET read-back is 0.
 209:Generated_Source\PSoC6\pdl\drivers\peripheral\syslib/cy_syslib.c **** *         Otherwise returns CY_SYSLIB_INVALID_STATE.
 210:Generated_Source\PSoC6\pdl\drivers\peripheral\syslib/cy_syslib.c **** *
 211:Generated_Source\PSoC6\pdl\drivers\peripheral\syslib/cy_syslib.c **** *******************************************************************************/
 212:Generated_Source\PSoC6\pdl\drivers\peripheral\syslib/cy_syslib.c **** cy_en_syslib_status_t Cy_SysLib_ResetBackupDomain(void)
 213:Generated_Source\PSoC6\pdl\drivers\peripheral\syslib/cy_syslib.c **** {
 207              		.loc 1 213 0
 208              		.cfi_startproc
 209              		@ args = 0, pretend = 0, frame = 0
 210              		@ frame_needed = 0, uses_anonymous_args = 0
 211              		@ link register save eliminated.
 214:Generated_Source\PSoC6\pdl\drivers\peripheral\syslib/cy_syslib.c ****     BACKUP_RESET = BACKUP_RESET_RESET_Msk;
 212              		.loc 1 214 0
 213 0000 054B     		ldr	r3, .L23
 214 0002 4FF00042 		mov	r2, #-2147483648
 215 0006 9A64     		str	r2, [r3, #72]
 215:Generated_Source\PSoC6\pdl\drivers\peripheral\syslib/cy_syslib.c **** 
 216:Generated_Source\PSoC6\pdl\drivers\peripheral\syslib/cy_syslib.c ****     return ( ((BACKUP_RESET & BACKUP_RESET_RESET_Msk) == 0UL) ? CY_SYSLIB_SUCCESS : CY_SYSLIB_INVAL
 216              		.loc 1 216 0
 217 0008 9B6C     		ldr	r3, [r3, #72]
 218 000a 002B     		cmp	r3, #0
 219 000c 01DB     		blt	.L22
 220 000e 0020     		movs	r0, #0
 221 0010 7047     		bx	lr
 222              	.L22:
 223 0012 0248     		ldr	r0, .L23+4
 217:Generated_Source\PSoC6\pdl\drivers\peripheral\syslib/cy_syslib.c **** }
 224              		.loc 1 217 0
 225 0014 7047     		bx	lr
 226              	.L24:
 227 0016 00BF     		.align	2
 228              	.L23:
 229 0018 00002740 		.word	1076297728
 230 001c 03004600 		.word	4587523
 231              		.cfi_endproc
 232              	.LFE156:
 233              		.size	Cy_SysLib_ResetBackupDomain, .-Cy_SysLib_ResetBackupDomain
 234              		.section	.text.Cy_SysLib_GetResetReason,"ax",%progbits
 235              		.align	2
 236              		.global	Cy_SysLib_GetResetReason
 237              		.thumb
 238              		.thumb_func
ARM GAS  C:\Users\Rolf\AppData\Local\Temp\ccEjvRQz.s 			page 9


 239              		.type	Cy_SysLib_GetResetReason, %function
 240              	Cy_SysLib_GetResetReason:
 241              	.LFB157:
 218:Generated_Source\PSoC6\pdl\drivers\peripheral\syslib/cy_syslib.c **** 
 219:Generated_Source\PSoC6\pdl\drivers\peripheral\syslib/cy_syslib.c **** 
 220:Generated_Source\PSoC6\pdl\drivers\peripheral\syslib/cy_syslib.c **** /*******************************************************************************
 221:Generated_Source\PSoC6\pdl\drivers\peripheral\syslib/cy_syslib.c **** * Function Name: Cy_SysLib_GetResetReason
 222:Generated_Source\PSoC6\pdl\drivers\peripheral\syslib/cy_syslib.c **** ****************************************************************************//**
 223:Generated_Source\PSoC6\pdl\drivers\peripheral\syslib/cy_syslib.c **** *
 224:Generated_Source\PSoC6\pdl\drivers\peripheral\syslib/cy_syslib.c **** * The function returns the cause for the latest reset(s) that occurred in
 225:Generated_Source\PSoC6\pdl\drivers\peripheral\syslib/cy_syslib.c **** * the system. The reset causes include an HFCLK error, system faults, and
 226:Generated_Source\PSoC6\pdl\drivers\peripheral\syslib/cy_syslib.c **** * device reset on a wakeup from Hibernate mode.
 227:Generated_Source\PSoC6\pdl\drivers\peripheral\syslib/cy_syslib.c **** * The return results are consolidated reset causes from reading RES_CAUSE,
 228:Generated_Source\PSoC6\pdl\drivers\peripheral\syslib/cy_syslib.c **** * RES_CAUSE2 and PWR_HIBERNATE token registers.
 229:Generated_Source\PSoC6\pdl\drivers\peripheral\syslib/cy_syslib.c **** *
 230:Generated_Source\PSoC6\pdl\drivers\peripheral\syslib/cy_syslib.c **** * \return The cause of a system reset.
 231:Generated_Source\PSoC6\pdl\drivers\peripheral\syslib/cy_syslib.c **** *
 232:Generated_Source\PSoC6\pdl\drivers\peripheral\syslib/cy_syslib.c **** * | Name                          | Value
 233:Generated_Source\PSoC6\pdl\drivers\peripheral\syslib/cy_syslib.c **** * |-------------------------------|---------------------
 234:Generated_Source\PSoC6\pdl\drivers\peripheral\syslib/cy_syslib.c **** * | CY_SYSLIB_RESET_HWWDT         | 0x00001 (bit0)
 235:Generated_Source\PSoC6\pdl\drivers\peripheral\syslib/cy_syslib.c **** * | CY_SYSLIB_RESET_ACT_FAULT     | 0x00002 (bit1)
 236:Generated_Source\PSoC6\pdl\drivers\peripheral\syslib/cy_syslib.c **** * | CY_SYSLIB_RESET_DPSLP_FAULT   | 0x00004 (bit2)
 237:Generated_Source\PSoC6\pdl\drivers\peripheral\syslib/cy_syslib.c **** * | CY_SYSLIB_RESET_CSV_WCO_LOSS  | 0x00008 (bit3)
 238:Generated_Source\PSoC6\pdl\drivers\peripheral\syslib/cy_syslib.c **** * | CY_SYSLIB_RESET_SOFT          | 0x00010 (bit4)
 239:Generated_Source\PSoC6\pdl\drivers\peripheral\syslib/cy_syslib.c **** * | CY_SYSLIB_RESET_SWWDT0        | 0x00020 (bit5)
 240:Generated_Source\PSoC6\pdl\drivers\peripheral\syslib/cy_syslib.c **** * | CY_SYSLIB_RESET_SWWDT1        | 0x00040 (bit6)
 241:Generated_Source\PSoC6\pdl\drivers\peripheral\syslib/cy_syslib.c **** * | CY_SYSLIB_RESET_SWWDT2        | 0x00080 (bit7)
 242:Generated_Source\PSoC6\pdl\drivers\peripheral\syslib/cy_syslib.c **** * | CY_SYSLIB_RESET_SWWDT3        | 0x00100 (bit8)
 243:Generated_Source\PSoC6\pdl\drivers\peripheral\syslib/cy_syslib.c **** * | CY_SYSLIB_RESET_HFCLK_LOSS    | 0x10000 (bit16)
 244:Generated_Source\PSoC6\pdl\drivers\peripheral\syslib/cy_syslib.c **** * | CY_SYSLIB_RESET_HFCLK_ERR     | 0x20000 (bit17)
 245:Generated_Source\PSoC6\pdl\drivers\peripheral\syslib/cy_syslib.c **** * | CY_SYSLIB_RESET_HIB_WAKEUP    | 0x40000 (bit18)
 246:Generated_Source\PSoC6\pdl\drivers\peripheral\syslib/cy_syslib.c **** *
 247:Generated_Source\PSoC6\pdl\drivers\peripheral\syslib/cy_syslib.c **** * \note CY_SYSLIB_RESET_CSV_WCO_LOSS, CY_SYSLIB_RESET_HFCLK_LOSS and
 248:Generated_Source\PSoC6\pdl\drivers\peripheral\syslib/cy_syslib.c **** *       CY_SYSLIB_RESET_HFCLK_ERR causes of a system reset available only if
 249:Generated_Source\PSoC6\pdl\drivers\peripheral\syslib/cy_syslib.c **** *       WCO CSV present in the device.
 250:Generated_Source\PSoC6\pdl\drivers\peripheral\syslib/cy_syslib.c **** *
 251:Generated_Source\PSoC6\pdl\drivers\peripheral\syslib/cy_syslib.c **** *******************************************************************************/
 252:Generated_Source\PSoC6\pdl\drivers\peripheral\syslib/cy_syslib.c **** uint32_t Cy_SysLib_GetResetReason(void)
 253:Generated_Source\PSoC6\pdl\drivers\peripheral\syslib/cy_syslib.c **** {
 242              		.loc 1 253 0
 243              		.cfi_startproc
 244              		@ args = 0, pretend = 0, frame = 0
 245              		@ frame_needed = 0, uses_anonymous_args = 0
 246              		@ link register save eliminated.
 254:Generated_Source\PSoC6\pdl\drivers\peripheral\syslib/cy_syslib.c ****     uint32_t retVal = SRSS_RES_CAUSE;
 247              		.loc 1 254 0
 248 0000 044B     		ldr	r3, .L27
 249 0002 D3F80008 		ldr	r0, [r3, #2048]
 250              	.LVL15:
 255:Generated_Source\PSoC6\pdl\drivers\peripheral\syslib/cy_syslib.c **** 
 256:Generated_Source\PSoC6\pdl\drivers\peripheral\syslib/cy_syslib.c ****     if(0U != _FLD2VAL(SRSS_PWR_HIBERNATE_TOKEN, SRSS_PWR_HIBERNATE))
 251              		.loc 1 256 0
 252 0006 5B68     		ldr	r3, [r3, #4]
 253 0008 13F0FF0F 		tst	r3, #255
 254 000c 01D0     		beq	.L26
 257:Generated_Source\PSoC6\pdl\drivers\peripheral\syslib/cy_syslib.c ****     {
 258:Generated_Source\PSoC6\pdl\drivers\peripheral\syslib/cy_syslib.c ****         retVal |= CY_SYSLIB_RESET_HIB_WAKEUP;
ARM GAS  C:\Users\Rolf\AppData\Local\Temp\ccEjvRQz.s 			page 10


 255              		.loc 1 258 0
 256 000e 40F48020 		orr	r0, r0, #262144
 257              	.LVL16:
 258              	.L26:
 259:Generated_Source\PSoC6\pdl\drivers\peripheral\syslib/cy_syslib.c ****     }
 260:Generated_Source\PSoC6\pdl\drivers\peripheral\syslib/cy_syslib.c **** 
 261:Generated_Source\PSoC6\pdl\drivers\peripheral\syslib/cy_syslib.c ****     return (retVal);
 262:Generated_Source\PSoC6\pdl\drivers\peripheral\syslib/cy_syslib.c **** }
 259              		.loc 1 262 0
 260 0012 7047     		bx	lr
 261              	.L28:
 262              		.align	2
 263              	.L27:
 264 0014 00002640 		.word	1076232192
 265              		.cfi_endproc
 266              	.LFE157:
 267              		.size	Cy_SysLib_GetResetReason, .-Cy_SysLib_GetResetReason
 268              		.section	.text.Cy_SysLib_ClearResetReason,"ax",%progbits
 269              		.align	2
 270              		.global	Cy_SysLib_ClearResetReason
 271              		.thumb
 272              		.thumb_func
 273              		.type	Cy_SysLib_ClearResetReason, %function
 274              	Cy_SysLib_ClearResetReason:
 275              	.LFB158:
 263:Generated_Source\PSoC6\pdl\drivers\peripheral\syslib/cy_syslib.c **** 
 264:Generated_Source\PSoC6\pdl\drivers\peripheral\syslib/cy_syslib.c **** 
 265:Generated_Source\PSoC6\pdl\drivers\peripheral\syslib/cy_syslib.c **** /*******************************************************************************
 266:Generated_Source\PSoC6\pdl\drivers\peripheral\syslib/cy_syslib.c **** * Function Name: Cy_SysLib_ClearResetReason
 267:Generated_Source\PSoC6\pdl\drivers\peripheral\syslib/cy_syslib.c **** ****************************************************************************//**
 268:Generated_Source\PSoC6\pdl\drivers\peripheral\syslib/cy_syslib.c **** *
 269:Generated_Source\PSoC6\pdl\drivers\peripheral\syslib/cy_syslib.c **** * This function clears the values of RES_CAUSE and RES_CAUSE2. Also it clears
 270:Generated_Source\PSoC6\pdl\drivers\peripheral\syslib/cy_syslib.c **** * PWR_HIBERNATE token, which indicates reset event on waking up from HIBERNATE.
 271:Generated_Source\PSoC6\pdl\drivers\peripheral\syslib/cy_syslib.c **** *
 272:Generated_Source\PSoC6\pdl\drivers\peripheral\syslib/cy_syslib.c **** *******************************************************************************/
 273:Generated_Source\PSoC6\pdl\drivers\peripheral\syslib/cy_syslib.c **** void Cy_SysLib_ClearResetReason(void)
 274:Generated_Source\PSoC6\pdl\drivers\peripheral\syslib/cy_syslib.c **** {
 276              		.loc 1 274 0
 277              		.cfi_startproc
 278              		@ args = 0, pretend = 0, frame = 0
 279              		@ frame_needed = 0, uses_anonymous_args = 0
 280              		@ link register save eliminated.
 275:Generated_Source\PSoC6\pdl\drivers\peripheral\syslib/cy_syslib.c ****     /* RES_CAUSE and RES_CAUSE2 register's bits are RW1C (every bit is cleared upon writing 1),
 276:Generated_Source\PSoC6\pdl\drivers\peripheral\syslib/cy_syslib.c ****      * so write all ones to clear all the reset reasons.
 277:Generated_Source\PSoC6\pdl\drivers\peripheral\syslib/cy_syslib.c ****      */
 278:Generated_Source\PSoC6\pdl\drivers\peripheral\syslib/cy_syslib.c ****     SRSS_RES_CAUSE  = 0xFFFFFFFFU;
 281              		.loc 1 278 0
 282 0000 084B     		ldr	r3, .L31
 283 0002 4FF0FF32 		mov	r2, #-1
 284 0006 C3F80028 		str	r2, [r3, #2048]
 279:Generated_Source\PSoC6\pdl\drivers\peripheral\syslib/cy_syslib.c ****     SRSS_RES_CAUSE2 = 0xFFFFFFFFU;
 285              		.loc 1 279 0
 286 000a C3F80428 		str	r2, [r3, #2052]
 280:Generated_Source\PSoC6\pdl\drivers\peripheral\syslib/cy_syslib.c ****     
 281:Generated_Source\PSoC6\pdl\drivers\peripheral\syslib/cy_syslib.c ****     if(0U != _FLD2VAL(SRSS_PWR_HIBERNATE_TOKEN, SRSS_PWR_HIBERNATE))
 287              		.loc 1 281 0
 288 000e 5B68     		ldr	r3, [r3, #4]
ARM GAS  C:\Users\Rolf\AppData\Local\Temp\ccEjvRQz.s 			page 11


 289 0010 13F0FF0F 		tst	r3, #255
 290 0014 04D0     		beq	.L29
 282:Generated_Source\PSoC6\pdl\drivers\peripheral\syslib/cy_syslib.c ****     {
 283:Generated_Source\PSoC6\pdl\drivers\peripheral\syslib/cy_syslib.c ****         /* Clears PWR_HIBERNATE token */
 284:Generated_Source\PSoC6\pdl\drivers\peripheral\syslib/cy_syslib.c ****         SRSS_PWR_HIBERNATE &= ~SRSS_PWR_HIBERNATE_TOKEN_Msk;
 291              		.loc 1 284 0
 292 0016 034A     		ldr	r2, .L31
 293 0018 5368     		ldr	r3, [r2, #4]
 294 001a 23F0FF03 		bic	r3, r3, #255
 295 001e 5360     		str	r3, [r2, #4]
 296              	.L29:
 297 0020 7047     		bx	lr
 298              	.L32:
 299 0022 00BF     		.align	2
 300              	.L31:
 301 0024 00002640 		.word	1076232192
 302              		.cfi_endproc
 303              	.LFE158:
 304              		.size	Cy_SysLib_ClearResetReason, .-Cy_SysLib_ClearResetReason
 305              		.section	.text.Cy_SysLib_GetUniqueId,"ax",%progbits
 306              		.align	2
 307              		.global	Cy_SysLib_GetUniqueId
 308              		.thumb
 309              		.thumb_func
 310              		.type	Cy_SysLib_GetUniqueId, %function
 311              	Cy_SysLib_GetUniqueId:
 312              	.LFB159:
 285:Generated_Source\PSoC6\pdl\drivers\peripheral\syslib/cy_syslib.c ****     }
 286:Generated_Source\PSoC6\pdl\drivers\peripheral\syslib/cy_syslib.c **** }
 287:Generated_Source\PSoC6\pdl\drivers\peripheral\syslib/cy_syslib.c **** 
 288:Generated_Source\PSoC6\pdl\drivers\peripheral\syslib/cy_syslib.c **** 
 289:Generated_Source\PSoC6\pdl\drivers\peripheral\syslib/cy_syslib.c **** #if (CY_CPU_CORTEX_M0P) || defined(CY_DOXYGEN)
 290:Generated_Source\PSoC6\pdl\drivers\peripheral\syslib/cy_syslib.c **** /*******************************************************************************
 291:Generated_Source\PSoC6\pdl\drivers\peripheral\syslib/cy_syslib.c **** * Function Name: Cy_SysLib_SoftResetCM4
 292:Generated_Source\PSoC6\pdl\drivers\peripheral\syslib/cy_syslib.c **** ****************************************************************************//**
 293:Generated_Source\PSoC6\pdl\drivers\peripheral\syslib/cy_syslib.c **** *
 294:Generated_Source\PSoC6\pdl\drivers\peripheral\syslib/cy_syslib.c **** * This function performs a CM4 Core software reset using the CM4_PWR_CTL
 295:Generated_Source\PSoC6\pdl\drivers\peripheral\syslib/cy_syslib.c **** * register. The register is accessed by CM0 Core by using a command transferred
 296:Generated_Source\PSoC6\pdl\drivers\peripheral\syslib/cy_syslib.c **** * to SROM API through the IPC channel. When the command is sent, the API waits
 297:Generated_Source\PSoC6\pdl\drivers\peripheral\syslib/cy_syslib.c **** * for the IPC channel release.
 298:Generated_Source\PSoC6\pdl\drivers\peripheral\syslib/cy_syslib.c **** *
 299:Generated_Source\PSoC6\pdl\drivers\peripheral\syslib/cy_syslib.c **** * \note This function should be called only when the CM4 core is in Deep
 300:Generated_Source\PSoC6\pdl\drivers\peripheral\syslib/cy_syslib.c **** *       Sleep mode.
 301:Generated_Source\PSoC6\pdl\drivers\peripheral\syslib/cy_syslib.c **** * \note This function will not reset CM0+ Core.
 302:Generated_Source\PSoC6\pdl\drivers\peripheral\syslib/cy_syslib.c **** * \note This function waits for an IPC channel release state.
 303:Generated_Source\PSoC6\pdl\drivers\peripheral\syslib/cy_syslib.c **** *
 304:Generated_Source\PSoC6\pdl\drivers\peripheral\syslib/cy_syslib.c **** *******************************************************************************/
 305:Generated_Source\PSoC6\pdl\drivers\peripheral\syslib/cy_syslib.c **** void Cy_SysLib_SoftResetCM4(void)
 306:Generated_Source\PSoC6\pdl\drivers\peripheral\syslib/cy_syslib.c **** {
 307:Generated_Source\PSoC6\pdl\drivers\peripheral\syslib/cy_syslib.c ****     static uint32_t msg = CY_IPC_DATA_FOR_CM4_SOFT_RESET;
 308:Generated_Source\PSoC6\pdl\drivers\peripheral\syslib/cy_syslib.c **** 
 309:Generated_Source\PSoC6\pdl\drivers\peripheral\syslib/cy_syslib.c ****     /* Tries to acquire the IPC structure and pass the arguments to SROM API.
 310:Generated_Source\PSoC6\pdl\drivers\peripheral\syslib/cy_syslib.c ****     *  SROM API parameters:
 311:Generated_Source\PSoC6\pdl\drivers\peripheral\syslib/cy_syslib.c ****     *   ipcPtr: IPC Structure 0 reserved for M0+ Secure Access.
 312:Generated_Source\PSoC6\pdl\drivers\peripheral\syslib/cy_syslib.c ****     *   notifyEvent_Intr: 1U - IPC Interrupt Structure 1 is used for Releasing IPC 0 (M0+ NMI Handl
 313:Generated_Source\PSoC6\pdl\drivers\peripheral\syslib/cy_syslib.c ****     *   msgPtr: &msg - The address of SRAM with the API's parameters.
 314:Generated_Source\PSoC6\pdl\drivers\peripheral\syslib/cy_syslib.c ****     */
ARM GAS  C:\Users\Rolf\AppData\Local\Temp\ccEjvRQz.s 			page 12


 315:Generated_Source\PSoC6\pdl\drivers\peripheral\syslib/cy_syslib.c ****     if(CY_IPC_DRV_SUCCESS != Cy_IPC_Drv_SendMsgPtr(Cy_IPC_Drv_GetIpcBaseAddress(CY_IPC_CHAN_SYSCALL
 316:Generated_Source\PSoC6\pdl\drivers\peripheral\syslib/cy_syslib.c ****     {
 317:Generated_Source\PSoC6\pdl\drivers\peripheral\syslib/cy_syslib.c ****         CY_ASSERT(0U != 0U);
 318:Generated_Source\PSoC6\pdl\drivers\peripheral\syslib/cy_syslib.c ****     }
 319:Generated_Source\PSoC6\pdl\drivers\peripheral\syslib/cy_syslib.c **** 
 320:Generated_Source\PSoC6\pdl\drivers\peripheral\syslib/cy_syslib.c ****     while(Cy_IPC_Drv_IsLockAcquired(Cy_IPC_Drv_GetIpcBaseAddress(CY_IPC_CHAN_SYSCALL_CM0)))
 321:Generated_Source\PSoC6\pdl\drivers\peripheral\syslib/cy_syslib.c ****     {
 322:Generated_Source\PSoC6\pdl\drivers\peripheral\syslib/cy_syslib.c ****         /* Waits until SROM API runs the command (sent over the IPC channel) and releases the IPC0 
 323:Generated_Source\PSoC6\pdl\drivers\peripheral\syslib/cy_syslib.c ****     }
 324:Generated_Source\PSoC6\pdl\drivers\peripheral\syslib/cy_syslib.c **** }
 325:Generated_Source\PSoC6\pdl\drivers\peripheral\syslib/cy_syslib.c **** #endif /* CY_CPU_CORTEX_M0P || defined(CY_DOXYGEN) */
 326:Generated_Source\PSoC6\pdl\drivers\peripheral\syslib/cy_syslib.c **** 
 327:Generated_Source\PSoC6\pdl\drivers\peripheral\syslib/cy_syslib.c **** 
 328:Generated_Source\PSoC6\pdl\drivers\peripheral\syslib/cy_syslib.c **** /*******************************************************************************
 329:Generated_Source\PSoC6\pdl\drivers\peripheral\syslib/cy_syslib.c **** * Function Name: Cy_SysLib_GetUniqueId
 330:Generated_Source\PSoC6\pdl\drivers\peripheral\syslib/cy_syslib.c **** ****************************************************************************//**
 331:Generated_Source\PSoC6\pdl\drivers\peripheral\syslib/cy_syslib.c **** *
 332:Generated_Source\PSoC6\pdl\drivers\peripheral\syslib/cy_syslib.c **** * This function returns the silicon unique ID.
 333:Generated_Source\PSoC6\pdl\drivers\peripheral\syslib/cy_syslib.c **** * The ID includes Die lot[3]#, Die Wafer#, Die X, Die Y, Die Sort#, Die Minor
 334:Generated_Source\PSoC6\pdl\drivers\peripheral\syslib/cy_syslib.c **** * and Die Year.
 335:Generated_Source\PSoC6\pdl\drivers\peripheral\syslib/cy_syslib.c **** *
 336:Generated_Source\PSoC6\pdl\drivers\peripheral\syslib/cy_syslib.c **** * \return  A combined 64-bit unique ID.
 337:Generated_Source\PSoC6\pdl\drivers\peripheral\syslib/cy_syslib.c **** *          [63:57] - DIE_YEAR
 338:Generated_Source\PSoC6\pdl\drivers\peripheral\syslib/cy_syslib.c **** *          [56:56] - DIE_MINOR
 339:Generated_Source\PSoC6\pdl\drivers\peripheral\syslib/cy_syslib.c **** *          [55:48] - DIE_SORT
 340:Generated_Source\PSoC6\pdl\drivers\peripheral\syslib/cy_syslib.c **** *          [47:40] - DIE_Y
 341:Generated_Source\PSoC6\pdl\drivers\peripheral\syslib/cy_syslib.c **** *          [39:32] - DIE_X
 342:Generated_Source\PSoC6\pdl\drivers\peripheral\syslib/cy_syslib.c **** *          [31:24] - DIE_WAFER
 343:Generated_Source\PSoC6\pdl\drivers\peripheral\syslib/cy_syslib.c **** *          [23:16] - DIE_LOT[2]
 344:Generated_Source\PSoC6\pdl\drivers\peripheral\syslib/cy_syslib.c **** *          [15: 8] - DIE_LOT[1]
 345:Generated_Source\PSoC6\pdl\drivers\peripheral\syslib/cy_syslib.c **** *          [ 7: 0] - DIE_LOT[0]
 346:Generated_Source\PSoC6\pdl\drivers\peripheral\syslib/cy_syslib.c **** *
 347:Generated_Source\PSoC6\pdl\drivers\peripheral\syslib/cy_syslib.c **** *******************************************************************************/
 348:Generated_Source\PSoC6\pdl\drivers\peripheral\syslib/cy_syslib.c **** uint64_t Cy_SysLib_GetUniqueId(void)
 349:Generated_Source\PSoC6\pdl\drivers\peripheral\syslib/cy_syslib.c **** {
 313              		.loc 1 349 0
 314              		.cfi_startproc
 315              		@ args = 0, pretend = 0, frame = 0
 316              		@ frame_needed = 0, uses_anonymous_args = 0
 317              		@ link register save eliminated.
 318 0000 10B4     		push	{r4}
 319              		.cfi_def_cfa_offset 4
 320              		.cfi_offset 4, -4
 350:Generated_Source\PSoC6\pdl\drivers\peripheral\syslib/cy_syslib.c ****     uint32_t uniqueIdHi;
 351:Generated_Source\PSoC6\pdl\drivers\peripheral\syslib/cy_syslib.c ****     uint32_t uniqueIdLo;
 352:Generated_Source\PSoC6\pdl\drivers\peripheral\syslib/cy_syslib.c **** 
 353:Generated_Source\PSoC6\pdl\drivers\peripheral\syslib/cy_syslib.c ****     uniqueIdHi = ((uint32_t) SFLASH_DIE_YEAR        << (CY_UNIQUE_ID_DIE_YEAR_Pos  - CY_UNIQUE_ID_D
 321              		.loc 1 353 0
 322 0002 4FF0B051 		mov	r1, #369098752
 323 0006 91F80A26 		ldrb	r2, [r1, #1546]	@ zero_extendqisi2
 354:Generated_Source\PSoC6\pdl\drivers\peripheral\syslib/cy_syslib.c ****                  (((uint32_t)SFLASH_DIE_MINOR & 1U) << (CY_UNIQUE_ID_DIE_MINOR_Pos - CY_UNIQUE_ID_D
 324              		.loc 1 354 0
 325 000a 91F80736 		ldrb	r3, [r1, #1543]	@ zero_extendqisi2
 326 000e 03F00103 		and	r3, r3, #1
 327 0012 1B06     		lsls	r3, r3, #24
 353:Generated_Source\PSoC6\pdl\drivers\peripheral\syslib/cy_syslib.c ****                  (((uint32_t)SFLASH_DIE_MINOR & 1U) << (CY_UNIQUE_ID_DIE_MINOR_Pos - CY_UNIQUE_ID_D
 328              		.loc 1 353 0
ARM GAS  C:\Users\Rolf\AppData\Local\Temp\ccEjvRQz.s 			page 13


 329 0014 43EA4263 		orr	r3, r3, r2, lsl #25
 355:Generated_Source\PSoC6\pdl\drivers\peripheral\syslib/cy_syslib.c ****                  ((uint32_t) SFLASH_DIE_SORT        << (CY_UNIQUE_ID_DIE_SORT_Pos  - CY_UNIQUE_ID_D
 330              		.loc 1 355 0
 331 0018 91F80626 		ldrb	r2, [r1, #1542]	@ zero_extendqisi2
 354:Generated_Source\PSoC6\pdl\drivers\peripheral\syslib/cy_syslib.c ****                  (((uint32_t)SFLASH_DIE_MINOR & 1U) << (CY_UNIQUE_ID_DIE_MINOR_Pos - CY_UNIQUE_ID_D
 332              		.loc 1 354 0
 333 001c 43EA0243 		orr	r3, r3, r2, lsl #16
 356:Generated_Source\PSoC6\pdl\drivers\peripheral\syslib/cy_syslib.c ****                  ((uint32_t) SFLASH_DIE_Y           << (CY_UNIQUE_ID_DIE_Y_Pos     - CY_UNIQUE_ID_D
 334              		.loc 1 356 0
 335 0020 91F80526 		ldrb	r2, [r1, #1541]	@ zero_extendqisi2
 355:Generated_Source\PSoC6\pdl\drivers\peripheral\syslib/cy_syslib.c ****                  ((uint32_t) SFLASH_DIE_SORT        << (CY_UNIQUE_ID_DIE_SORT_Pos  - CY_UNIQUE_ID_D
 336              		.loc 1 355 0
 337 0024 43EA0223 		orr	r3, r3, r2, lsl #8
 357:Generated_Source\PSoC6\pdl\drivers\peripheral\syslib/cy_syslib.c ****                  ((uint32_t) SFLASH_DIE_X);
 338              		.loc 1 357 0
 339 0028 91F80446 		ldrb	r4, [r1, #1540]	@ zero_extendqisi2
 340              	.LVL17:
 358:Generated_Source\PSoC6\pdl\drivers\peripheral\syslib/cy_syslib.c **** 
 359:Generated_Source\PSoC6\pdl\drivers\peripheral\syslib/cy_syslib.c ****     uniqueIdLo = ((uint32_t) SFLASH_DIE_WAFER       << CY_UNIQUE_ID_DIE_WAFER_Pos) |
 341              		.loc 1 359 0
 342 002c 91F80306 		ldrb	r0, [r1, #1539]	@ zero_extendqisi2
 360:Generated_Source\PSoC6\pdl\drivers\peripheral\syslib/cy_syslib.c ****                  ((uint32_t) SFLASH_DIE_LOT(2U)     << CY_UNIQUE_ID_DIE_LOT_2_Pos) |
 343              		.loc 1 360 0
 344 0030 91F80226 		ldrb	r2, [r1, #1538]	@ zero_extendqisi2
 345 0034 1204     		lsls	r2, r2, #16
 359:Generated_Source\PSoC6\pdl\drivers\peripheral\syslib/cy_syslib.c ****                  ((uint32_t) SFLASH_DIE_LOT(2U)     << CY_UNIQUE_ID_DIE_LOT_2_Pos) |
 346              		.loc 1 359 0
 347 0036 42EA0062 		orr	r2, r2, r0, lsl #24
 361:Generated_Source\PSoC6\pdl\drivers\peripheral\syslib/cy_syslib.c ****                  ((uint32_t) SFLASH_DIE_LOT(1U)     << CY_UNIQUE_ID_DIE_LOT_1_Pos) |
 348              		.loc 1 361 0
 349 003a 91F80106 		ldrb	r0, [r1, #1537]	@ zero_extendqisi2
 360:Generated_Source\PSoC6\pdl\drivers\peripheral\syslib/cy_syslib.c ****                  ((uint32_t) SFLASH_DIE_LOT(2U)     << CY_UNIQUE_ID_DIE_LOT_2_Pos) |
 350              		.loc 1 360 0
 351 003e 42EA0022 		orr	r2, r2, r0, lsl #8
 362:Generated_Source\PSoC6\pdl\drivers\peripheral\syslib/cy_syslib.c ****                  ((uint32_t) SFLASH_DIE_LOT(0U));
 352              		.loc 1 362 0
 353 0042 91F80006 		ldrb	r0, [r1, #1536]	@ zero_extendqisi2
 359:Generated_Source\PSoC6\pdl\drivers\peripheral\syslib/cy_syslib.c ****                  ((uint32_t) SFLASH_DIE_LOT(2U)     << CY_UNIQUE_ID_DIE_LOT_2_Pos) |
 354              		.loc 1 359 0
 355 0046 0243     		orrs	r2, r2, r0
 356              	.LVL18:
 363:Generated_Source\PSoC6\pdl\drivers\peripheral\syslib/cy_syslib.c **** 
 364:Generated_Source\PSoC6\pdl\drivers\peripheral\syslib/cy_syslib.c ****     return (((uint64_t) uniqueIdHi << CY_UNIQUE_ID_DIE_X_Pos) | uniqueIdLo);
 357              		.loc 1 364 0
 358 0048 0020     		movs	r0, #0
 359 004a 44EA0301 		orr	r1, r4, r3
 360              	.LVL19:
 365:Generated_Source\PSoC6\pdl\drivers\peripheral\syslib/cy_syslib.c **** }
 361              		.loc 1 365 0
 362 004e 1043     		orrs	r0, r0, r2
 363 0050 5DF8044B 		ldr	r4, [sp], #4
 364              		.cfi_restore 4
 365              		.cfi_def_cfa_offset 0
 366 0054 7047     		bx	lr
 367              		.cfi_endproc
 368              	.LFE159:
 369              		.size	Cy_SysLib_GetUniqueId, .-Cy_SysLib_GetUniqueId
ARM GAS  C:\Users\Rolf\AppData\Local\Temp\ccEjvRQz.s 			page 14


 370 0056 00BF     		.section	.text.Cy_SysLib_ProcessingFault,"ax",%progbits
 371              		.align	2
 372              		.weak	Cy_SysLib_ProcessingFault
 373              		.thumb
 374              		.thumb_func
 375              		.type	Cy_SysLib_ProcessingFault, %function
 376              	Cy_SysLib_ProcessingFault:
 377              	.LFB161:
 366:Generated_Source\PSoC6\pdl\drivers\peripheral\syslib/cy_syslib.c **** 
 367:Generated_Source\PSoC6\pdl\drivers\peripheral\syslib/cy_syslib.c **** 
 368:Generated_Source\PSoC6\pdl\drivers\peripheral\syslib/cy_syslib.c **** #if (CY_ARM_FAULT_DEBUG == CY_ARM_FAULT_DEBUG_ENABLED) || defined(CY_DOXYGEN)
 369:Generated_Source\PSoC6\pdl\drivers\peripheral\syslib/cy_syslib.c **** /*******************************************************************************
 370:Generated_Source\PSoC6\pdl\drivers\peripheral\syslib/cy_syslib.c **** * Function Name: Cy_SysLib_FaultHandler
 371:Generated_Source\PSoC6\pdl\drivers\peripheral\syslib/cy_syslib.c **** ****************************************************************************//**
 372:Generated_Source\PSoC6\pdl\drivers\peripheral\syslib/cy_syslib.c **** *
 373:Generated_Source\PSoC6\pdl\drivers\peripheral\syslib/cy_syslib.c **** * This function stores the ARM Cortex registers into a non-zero init area for
 374:Generated_Source\PSoC6\pdl\drivers\peripheral\syslib/cy_syslib.c **** * debugging. This function calls Cy_SysLib_ProcessingFault() after storing all
 375:Generated_Source\PSoC6\pdl\drivers\peripheral\syslib/cy_syslib.c **** * information.
 376:Generated_Source\PSoC6\pdl\drivers\peripheral\syslib/cy_syslib.c **** *
 377:Generated_Source\PSoC6\pdl\drivers\peripheral\syslib/cy_syslib.c **** * \param faultStackAddr The address of the stack pointer, indicates the lowest
 378:Generated_Source\PSoC6\pdl\drivers\peripheral\syslib/cy_syslib.c **** *                       address in the fault stack frame to be stored.
 379:Generated_Source\PSoC6\pdl\drivers\peripheral\syslib/cy_syslib.c **** * \note This function stores the fault stack frame only for the first occurred
 380:Generated_Source\PSoC6\pdl\drivers\peripheral\syslib/cy_syslib.c **** *       fault.
 381:Generated_Source\PSoC6\pdl\drivers\peripheral\syslib/cy_syslib.c **** * \note The PDL doesn't provide an API to analyze the stored register
 382:Generated_Source\PSoC6\pdl\drivers\peripheral\syslib/cy_syslib.c **** *       values. The user has to add additional functions for the analysis,
 383:Generated_Source\PSoC6\pdl\drivers\peripheral\syslib/cy_syslib.c **** *       if necessary.
 384:Generated_Source\PSoC6\pdl\drivers\peripheral\syslib/cy_syslib.c **** * \note The CY_ARM_FAULT_DEBUG macro defines if the Fault Handler is enabled.
 385:Generated_Source\PSoC6\pdl\drivers\peripheral\syslib/cy_syslib.c **** *       By default it is set to CY_ARM_FAULT_DEBUG_ENABLED and enables the
 386:Generated_Source\PSoC6\pdl\drivers\peripheral\syslib/cy_syslib.c **** *       Fault Handler.
 387:Generated_Source\PSoC6\pdl\drivers\peripheral\syslib/cy_syslib.c **** *       If there is a necessity to save memory or have some specific custom
 388:Generated_Source\PSoC6\pdl\drivers\peripheral\syslib/cy_syslib.c **** *       handler, etc. then CY_ARM_FAULT_DEBUG should be redefined as
 389:Generated_Source\PSoC6\pdl\drivers\peripheral\syslib/cy_syslib.c **** *       CY_ARM_FAULT_DEBUG_DISABLED. To do this, the following definition should
 390:Generated_Source\PSoC6\pdl\drivers\peripheral\syslib/cy_syslib.c **** *       be added to the compiler Command Line (through the project Build
 391:Generated_Source\PSoC6\pdl\drivers\peripheral\syslib/cy_syslib.c **** *       Settings): "-D CY_ARM_FAULT_DEBUG=0".
 392:Generated_Source\PSoC6\pdl\drivers\peripheral\syslib/cy_syslib.c **** *
 393:Generated_Source\PSoC6\pdl\drivers\peripheral\syslib/cy_syslib.c **** *******************************************************************************/
 394:Generated_Source\PSoC6\pdl\drivers\peripheral\syslib/cy_syslib.c **** void Cy_SysLib_FaultHandler(uint32_t const *faultStackAddr)
 395:Generated_Source\PSoC6\pdl\drivers\peripheral\syslib/cy_syslib.c **** {
 396:Generated_Source\PSoC6\pdl\drivers\peripheral\syslib/cy_syslib.c ****     /* Stores general registers */
 397:Generated_Source\PSoC6\pdl\drivers\peripheral\syslib/cy_syslib.c ****     cy_faultFrame.r0  = faultStackAddr[CY_R0_Pos];
 398:Generated_Source\PSoC6\pdl\drivers\peripheral\syslib/cy_syslib.c ****     cy_faultFrame.r1  = faultStackAddr[CY_R1_Pos];
 399:Generated_Source\PSoC6\pdl\drivers\peripheral\syslib/cy_syslib.c ****     cy_faultFrame.r2  = faultStackAddr[CY_R2_Pos];
 400:Generated_Source\PSoC6\pdl\drivers\peripheral\syslib/cy_syslib.c ****     cy_faultFrame.r3  = faultStackAddr[CY_R3_Pos];
 401:Generated_Source\PSoC6\pdl\drivers\peripheral\syslib/cy_syslib.c ****     cy_faultFrame.r12 = faultStackAddr[CY_R12_Pos];
 402:Generated_Source\PSoC6\pdl\drivers\peripheral\syslib/cy_syslib.c ****     cy_faultFrame.lr  = faultStackAddr[CY_LR_Pos];
 403:Generated_Source\PSoC6\pdl\drivers\peripheral\syslib/cy_syslib.c ****     cy_faultFrame.pc  = faultStackAddr[CY_PC_Pos];
 404:Generated_Source\PSoC6\pdl\drivers\peripheral\syslib/cy_syslib.c ****     cy_faultFrame.psr = faultStackAddr[CY_PSR_Pos];
 405:Generated_Source\PSoC6\pdl\drivers\peripheral\syslib/cy_syslib.c **** 
 406:Generated_Source\PSoC6\pdl\drivers\peripheral\syslib/cy_syslib.c ****     #if (CY_CPU_CORTEX_M4)
 407:Generated_Source\PSoC6\pdl\drivers\peripheral\syslib/cy_syslib.c ****         /* Stores the Configurable Fault Status Register state with the fault cause */
 408:Generated_Source\PSoC6\pdl\drivers\peripheral\syslib/cy_syslib.c ****         cy_faultFrame.cfsr.cfsrReg = SCB->CFSR;
 409:Generated_Source\PSoC6\pdl\drivers\peripheral\syslib/cy_syslib.c ****         /* Stores the Hard Fault Status Register */
 410:Generated_Source\PSoC6\pdl\drivers\peripheral\syslib/cy_syslib.c ****         cy_faultFrame.hfsr.hfsrReg = SCB->HFSR;
 411:Generated_Source\PSoC6\pdl\drivers\peripheral\syslib/cy_syslib.c ****         /* Stores the System Handler Control and State Register */
 412:Generated_Source\PSoC6\pdl\drivers\peripheral\syslib/cy_syslib.c ****         cy_faultFrame.shcsr.shcsrReg = SCB->SHCSR;
 413:Generated_Source\PSoC6\pdl\drivers\peripheral\syslib/cy_syslib.c ****         /* Store MemMange fault address */
 414:Generated_Source\PSoC6\pdl\drivers\peripheral\syslib/cy_syslib.c ****         cy_faultFrame.mmfar = SCB->MMFAR;
ARM GAS  C:\Users\Rolf\AppData\Local\Temp\ccEjvRQz.s 			page 15


 415:Generated_Source\PSoC6\pdl\drivers\peripheral\syslib/cy_syslib.c ****         /* Store Bus fault address */
 416:Generated_Source\PSoC6\pdl\drivers\peripheral\syslib/cy_syslib.c ****         cy_faultFrame.bfar = SCB->BFAR;
 417:Generated_Source\PSoC6\pdl\drivers\peripheral\syslib/cy_syslib.c **** 
 418:Generated_Source\PSoC6\pdl\drivers\peripheral\syslib/cy_syslib.c ****         #if ((defined (__FPU_PRESENT) && (__FPU_PRESENT == 1U)) && \
 419:Generated_Source\PSoC6\pdl\drivers\peripheral\syslib/cy_syslib.c ****              (defined (__FPU_USED   ) && (__FPU_USED    == 1U)))
 420:Generated_Source\PSoC6\pdl\drivers\peripheral\syslib/cy_syslib.c ****             /* Checks cumulative exception bits for floating-point exceptions */
 421:Generated_Source\PSoC6\pdl\drivers\peripheral\syslib/cy_syslib.c ****             if(0U != (__get_FPSCR() & (CY_FPSCR_IXC_Msk | CY_FPSCR_IDC_Msk)))
 422:Generated_Source\PSoC6\pdl\drivers\peripheral\syslib/cy_syslib.c ****             {
 423:Generated_Source\PSoC6\pdl\drivers\peripheral\syslib/cy_syslib.c ****                 cy_faultFrame.s0    = faultStackAddr[CY_S0_Pos];
 424:Generated_Source\PSoC6\pdl\drivers\peripheral\syslib/cy_syslib.c ****                 cy_faultFrame.s1    = faultStackAddr[CY_S1_Pos];
 425:Generated_Source\PSoC6\pdl\drivers\peripheral\syslib/cy_syslib.c ****                 cy_faultFrame.s2    = faultStackAddr[CY_S2_Pos];
 426:Generated_Source\PSoC6\pdl\drivers\peripheral\syslib/cy_syslib.c ****                 cy_faultFrame.s3    = faultStackAddr[CY_S3_Pos];
 427:Generated_Source\PSoC6\pdl\drivers\peripheral\syslib/cy_syslib.c ****                 cy_faultFrame.s4    = faultStackAddr[CY_S4_Pos];
 428:Generated_Source\PSoC6\pdl\drivers\peripheral\syslib/cy_syslib.c ****                 cy_faultFrame.s5    = faultStackAddr[CY_S5_Pos];
 429:Generated_Source\PSoC6\pdl\drivers\peripheral\syslib/cy_syslib.c ****                 cy_faultFrame.s6    = faultStackAddr[CY_S6_Pos];
 430:Generated_Source\PSoC6\pdl\drivers\peripheral\syslib/cy_syslib.c ****                 cy_faultFrame.s7    = faultStackAddr[CY_S7_Pos];
 431:Generated_Source\PSoC6\pdl\drivers\peripheral\syslib/cy_syslib.c ****                 cy_faultFrame.s8    = faultStackAddr[CY_S8_Pos];
 432:Generated_Source\PSoC6\pdl\drivers\peripheral\syslib/cy_syslib.c ****                 cy_faultFrame.s9    = faultStackAddr[CY_S9_Pos];
 433:Generated_Source\PSoC6\pdl\drivers\peripheral\syslib/cy_syslib.c ****                 cy_faultFrame.s10   = faultStackAddr[CY_S10_Pos];
 434:Generated_Source\PSoC6\pdl\drivers\peripheral\syslib/cy_syslib.c ****                 cy_faultFrame.s11   = faultStackAddr[CY_S11_Pos];
 435:Generated_Source\PSoC6\pdl\drivers\peripheral\syslib/cy_syslib.c ****                 cy_faultFrame.s12   = faultStackAddr[CY_S12_Pos];
 436:Generated_Source\PSoC6\pdl\drivers\peripheral\syslib/cy_syslib.c ****                 cy_faultFrame.s13   = faultStackAddr[CY_S13_Pos];
 437:Generated_Source\PSoC6\pdl\drivers\peripheral\syslib/cy_syslib.c ****                 cy_faultFrame.s14   = faultStackAddr[CY_S14_Pos];
 438:Generated_Source\PSoC6\pdl\drivers\peripheral\syslib/cy_syslib.c ****                 cy_faultFrame.s15   = faultStackAddr[CY_S15_Pos];
 439:Generated_Source\PSoC6\pdl\drivers\peripheral\syslib/cy_syslib.c ****                 cy_faultFrame.fpscr = faultStackAddr[CY_FPSCR_Pos];
 440:Generated_Source\PSoC6\pdl\drivers\peripheral\syslib/cy_syslib.c ****             }
 441:Generated_Source\PSoC6\pdl\drivers\peripheral\syslib/cy_syslib.c ****         #endif /* __FPU_PRESENT */
 442:Generated_Source\PSoC6\pdl\drivers\peripheral\syslib/cy_syslib.c ****     #endif /* CY_CPU_CORTEX_M4 */
 443:Generated_Source\PSoC6\pdl\drivers\peripheral\syslib/cy_syslib.c **** 
 444:Generated_Source\PSoC6\pdl\drivers\peripheral\syslib/cy_syslib.c ****     Cy_SysLib_ProcessingFault();
 445:Generated_Source\PSoC6\pdl\drivers\peripheral\syslib/cy_syslib.c **** }
 446:Generated_Source\PSoC6\pdl\drivers\peripheral\syslib/cy_syslib.c **** 
 447:Generated_Source\PSoC6\pdl\drivers\peripheral\syslib/cy_syslib.c **** 
 448:Generated_Source\PSoC6\pdl\drivers\peripheral\syslib/cy_syslib.c **** /*******************************************************************************
 449:Generated_Source\PSoC6\pdl\drivers\peripheral\syslib/cy_syslib.c **** * Function Name: Cy_SysLib_ProcessingFault
 450:Generated_Source\PSoC6\pdl\drivers\peripheral\syslib/cy_syslib.c **** ****************************************************************************//**
 451:Generated_Source\PSoC6\pdl\drivers\peripheral\syslib/cy_syslib.c **** *
 452:Generated_Source\PSoC6\pdl\drivers\peripheral\syslib/cy_syslib.c **** * This function determines how to process the current fault state. By default
 453:Generated_Source\PSoC6\pdl\drivers\peripheral\syslib/cy_syslib.c **** * in case of exception the system will stay in the infinite loop of this
 454:Generated_Source\PSoC6\pdl\drivers\peripheral\syslib/cy_syslib.c **** * function.
 455:Generated_Source\PSoC6\pdl\drivers\peripheral\syslib/cy_syslib.c **** *
 456:Generated_Source\PSoC6\pdl\drivers\peripheral\syslib/cy_syslib.c **** * \note This function has the WEAK option, so the user can redefine the function
 457:Generated_Source\PSoC6\pdl\drivers\peripheral\syslib/cy_syslib.c **** *       behavior for a custom processing.
 458:Generated_Source\PSoC6\pdl\drivers\peripheral\syslib/cy_syslib.c **** *       For example, the function redefinition could be constructed from fault
 459:Generated_Source\PSoC6\pdl\drivers\peripheral\syslib/cy_syslib.c **** *       stack processing and NVIC_SystemReset() function call.
 460:Generated_Source\PSoC6\pdl\drivers\peripheral\syslib/cy_syslib.c **** *
 461:Generated_Source\PSoC6\pdl\drivers\peripheral\syslib/cy_syslib.c **** *******************************************************************************/
 462:Generated_Source\PSoC6\pdl\drivers\peripheral\syslib/cy_syslib.c **** __WEAK void Cy_SysLib_ProcessingFault(void)
 463:Generated_Source\PSoC6\pdl\drivers\peripheral\syslib/cy_syslib.c **** {
 378              		.loc 1 463 0
 379              		.cfi_startproc
 380              		@ args = 0, pretend = 0, frame = 0
 381              		@ frame_needed = 0, uses_anonymous_args = 0
 382              		@ link register save eliminated.
 383              	.L36:
 384 0000 FEE7     		b	.L36
 385              		.cfi_endproc
ARM GAS  C:\Users\Rolf\AppData\Local\Temp\ccEjvRQz.s 			page 16


 386              	.LFE161:
 387              		.size	Cy_SysLib_ProcessingFault, .-Cy_SysLib_ProcessingFault
 388 0002 00BF     		.section	.text.Cy_SysLib_FaultHandler,"ax",%progbits
 389              		.align	2
 390              		.global	Cy_SysLib_FaultHandler
 391              		.thumb
 392              		.thumb_func
 393              		.type	Cy_SysLib_FaultHandler, %function
 394              	Cy_SysLib_FaultHandler:
 395              	.LFB160:
 395:Generated_Source\PSoC6\pdl\drivers\peripheral\syslib/cy_syslib.c ****     /* Stores general registers */
 396              		.loc 1 395 0
 397              		.cfi_startproc
 398              		@ args = 0, pretend = 0, frame = 0
 399              		@ frame_needed = 0, uses_anonymous_args = 0
 400              	.LVL20:
 395:Generated_Source\PSoC6\pdl\drivers\peripheral\syslib/cy_syslib.c ****     /* Stores general registers */
 401              		.loc 1 395 0
 402 0000 08B5     		push	{r3, lr}
 403              		.cfi_def_cfa_offset 8
 404              		.cfi_offset 3, -8
 405              		.cfi_offset 14, -4
 397:Generated_Source\PSoC6\pdl\drivers\peripheral\syslib/cy_syslib.c ****     cy_faultFrame.r1  = faultStackAddr[CY_R1_Pos];
 406              		.loc 1 397 0
 407 0002 0268     		ldr	r2, [r0]
 408 0004 254B     		ldr	r3, .L40
 409 0006 DA61     		str	r2, [r3, #28]
 398:Generated_Source\PSoC6\pdl\drivers\peripheral\syslib/cy_syslib.c ****     cy_faultFrame.r2  = faultStackAddr[CY_R2_Pos];
 410              		.loc 1 398 0
 411 0008 4268     		ldr	r2, [r0, #4]
 412 000a 1A62     		str	r2, [r3, #32]
 399:Generated_Source\PSoC6\pdl\drivers\peripheral\syslib/cy_syslib.c ****     cy_faultFrame.r3  = faultStackAddr[CY_R3_Pos];
 413              		.loc 1 399 0
 414 000c 8268     		ldr	r2, [r0, #8]
 415 000e 5A62     		str	r2, [r3, #36]
 400:Generated_Source\PSoC6\pdl\drivers\peripheral\syslib/cy_syslib.c ****     cy_faultFrame.r12 = faultStackAddr[CY_R12_Pos];
 416              		.loc 1 400 0
 417 0010 C268     		ldr	r2, [r0, #12]
 418 0012 9A62     		str	r2, [r3, #40]
 401:Generated_Source\PSoC6\pdl\drivers\peripheral\syslib/cy_syslib.c ****     cy_faultFrame.lr  = faultStackAddr[CY_LR_Pos];
 419              		.loc 1 401 0
 420 0014 0269     		ldr	r2, [r0, #16]
 421 0016 DA62     		str	r2, [r3, #44]
 402:Generated_Source\PSoC6\pdl\drivers\peripheral\syslib/cy_syslib.c ****     cy_faultFrame.pc  = faultStackAddr[CY_PC_Pos];
 422              		.loc 1 402 0
 423 0018 4269     		ldr	r2, [r0, #20]
 424 001a 1A63     		str	r2, [r3, #48]
 403:Generated_Source\PSoC6\pdl\drivers\peripheral\syslib/cy_syslib.c ****     cy_faultFrame.psr = faultStackAddr[CY_PSR_Pos];
 425              		.loc 1 403 0
 426 001c 8269     		ldr	r2, [r0, #24]
 427 001e 5A63     		str	r2, [r3, #52]
 404:Generated_Source\PSoC6\pdl\drivers\peripheral\syslib/cy_syslib.c **** 
 428              		.loc 1 404 0
 429 0020 C269     		ldr	r2, [r0, #28]
 430 0022 9A63     		str	r2, [r3, #56]
 408:Generated_Source\PSoC6\pdl\drivers\peripheral\syslib/cy_syslib.c ****         /* Stores the Hard Fault Status Register */
 431              		.loc 1 408 0
ARM GAS  C:\Users\Rolf\AppData\Local\Temp\ccEjvRQz.s 			page 17


 432 0024 1E4A     		ldr	r2, .L40+4
 433 0026 916A     		ldr	r1, [r2, #40]
 434 0028 D963     		str	r1, [r3, #60]
 410:Generated_Source\PSoC6\pdl\drivers\peripheral\syslib/cy_syslib.c ****         /* Stores the System Handler Control and State Register */
 435              		.loc 1 410 0
 436 002a D16A     		ldr	r1, [r2, #44]
 437 002c 1964     		str	r1, [r3, #64]
 412:Generated_Source\PSoC6\pdl\drivers\peripheral\syslib/cy_syslib.c ****         /* Store MemMange fault address */
 438              		.loc 1 412 0
 439 002e 516A     		ldr	r1, [r2, #36]
 440 0030 5964     		str	r1, [r3, #68]
 414:Generated_Source\PSoC6\pdl\drivers\peripheral\syslib/cy_syslib.c ****         /* Store Bus fault address */
 441              		.loc 1 414 0
 442 0032 516B     		ldr	r1, [r2, #52]
 443 0034 9964     		str	r1, [r3, #72]
 416:Generated_Source\PSoC6\pdl\drivers\peripheral\syslib/cy_syslib.c **** 
 444              		.loc 1 416 0
 445 0036 926B     		ldr	r2, [r2, #56]
 446 0038 DA64     		str	r2, [r3, #76]
 447              	.LBB4:
 448              	.LBB5:
 449              		.file 2 "Generated_Source\\PSoC6\\pdl\\cmsis/include/cmsis_gcc.h"
   1:Generated_Source\PSoC6\pdl\cmsis/include/cmsis_gcc.h **** /**************************************************************************//**
   2:Generated_Source\PSoC6\pdl\cmsis/include/cmsis_gcc.h ****  * @file     cmsis_gcc.h
   3:Generated_Source\PSoC6\pdl\cmsis/include/cmsis_gcc.h ****  * @brief    CMSIS compiler GCC header file
   4:Generated_Source\PSoC6\pdl\cmsis/include/cmsis_gcc.h ****  * @version  V5.0.3
   5:Generated_Source\PSoC6\pdl\cmsis/include/cmsis_gcc.h ****  * @date     16. January 2018
   6:Generated_Source\PSoC6\pdl\cmsis/include/cmsis_gcc.h ****  ******************************************************************************/
   7:Generated_Source\PSoC6\pdl\cmsis/include/cmsis_gcc.h **** /*
   8:Generated_Source\PSoC6\pdl\cmsis/include/cmsis_gcc.h ****  * Copyright (c) 2009-2017 ARM Limited. All rights reserved.
   9:Generated_Source\PSoC6\pdl\cmsis/include/cmsis_gcc.h ****  *
  10:Generated_Source\PSoC6\pdl\cmsis/include/cmsis_gcc.h ****  * SPDX-License-Identifier: Apache-2.0
  11:Generated_Source\PSoC6\pdl\cmsis/include/cmsis_gcc.h ****  *
  12:Generated_Source\PSoC6\pdl\cmsis/include/cmsis_gcc.h ****  * Licensed under the Apache License, Version 2.0 (the License); you may
  13:Generated_Source\PSoC6\pdl\cmsis/include/cmsis_gcc.h ****  * not use this file except in compliance with the License.
  14:Generated_Source\PSoC6\pdl\cmsis/include/cmsis_gcc.h ****  * You may obtain a copy of the License at
  15:Generated_Source\PSoC6\pdl\cmsis/include/cmsis_gcc.h ****  *
  16:Generated_Source\PSoC6\pdl\cmsis/include/cmsis_gcc.h ****  * www.apache.org/licenses/LICENSE-2.0
  17:Generated_Source\PSoC6\pdl\cmsis/include/cmsis_gcc.h ****  *
  18:Generated_Source\PSoC6\pdl\cmsis/include/cmsis_gcc.h ****  * Unless required by applicable law or agreed to in writing, software
  19:Generated_Source\PSoC6\pdl\cmsis/include/cmsis_gcc.h ****  * distributed under the License is distributed on an AS IS BASIS, WITHOUT
  20:Generated_Source\PSoC6\pdl\cmsis/include/cmsis_gcc.h ****  * WARRANTIES OR CONDITIONS OF ANY KIND, either express or implied.
  21:Generated_Source\PSoC6\pdl\cmsis/include/cmsis_gcc.h ****  * See the License for the specific language governing permissions and
  22:Generated_Source\PSoC6\pdl\cmsis/include/cmsis_gcc.h ****  * limitations under the License.
  23:Generated_Source\PSoC6\pdl\cmsis/include/cmsis_gcc.h ****  */
  24:Generated_Source\PSoC6\pdl\cmsis/include/cmsis_gcc.h **** 
  25:Generated_Source\PSoC6\pdl\cmsis/include/cmsis_gcc.h **** #ifndef __CMSIS_GCC_H
  26:Generated_Source\PSoC6\pdl\cmsis/include/cmsis_gcc.h **** #define __CMSIS_GCC_H
  27:Generated_Source\PSoC6\pdl\cmsis/include/cmsis_gcc.h **** 
  28:Generated_Source\PSoC6\pdl\cmsis/include/cmsis_gcc.h **** /* ignore some GCC warnings */
  29:Generated_Source\PSoC6\pdl\cmsis/include/cmsis_gcc.h **** #pragma GCC diagnostic push
  30:Generated_Source\PSoC6\pdl\cmsis/include/cmsis_gcc.h **** #pragma GCC diagnostic ignored "-Wsign-conversion"
  31:Generated_Source\PSoC6\pdl\cmsis/include/cmsis_gcc.h **** #pragma GCC diagnostic ignored "-Wconversion"
  32:Generated_Source\PSoC6\pdl\cmsis/include/cmsis_gcc.h **** #pragma GCC diagnostic ignored "-Wunused-parameter"
  33:Generated_Source\PSoC6\pdl\cmsis/include/cmsis_gcc.h **** 
  34:Generated_Source\PSoC6\pdl\cmsis/include/cmsis_gcc.h **** /* Fallback for __has_builtin */
  35:Generated_Source\PSoC6\pdl\cmsis/include/cmsis_gcc.h **** #ifndef __has_builtin
ARM GAS  C:\Users\Rolf\AppData\Local\Temp\ccEjvRQz.s 			page 18


  36:Generated_Source\PSoC6\pdl\cmsis/include/cmsis_gcc.h ****   #define __has_builtin(x) (0)
  37:Generated_Source\PSoC6\pdl\cmsis/include/cmsis_gcc.h **** #endif
  38:Generated_Source\PSoC6\pdl\cmsis/include/cmsis_gcc.h **** 
  39:Generated_Source\PSoC6\pdl\cmsis/include/cmsis_gcc.h **** /* CMSIS compiler specific defines */
  40:Generated_Source\PSoC6\pdl\cmsis/include/cmsis_gcc.h **** #ifndef   __ASM
  41:Generated_Source\PSoC6\pdl\cmsis/include/cmsis_gcc.h ****   #define __ASM                                  __asm
  42:Generated_Source\PSoC6\pdl\cmsis/include/cmsis_gcc.h **** #endif
  43:Generated_Source\PSoC6\pdl\cmsis/include/cmsis_gcc.h **** #ifndef   __INLINE
  44:Generated_Source\PSoC6\pdl\cmsis/include/cmsis_gcc.h ****   #define __INLINE                               inline
  45:Generated_Source\PSoC6\pdl\cmsis/include/cmsis_gcc.h **** #endif
  46:Generated_Source\PSoC6\pdl\cmsis/include/cmsis_gcc.h **** #ifndef   __STATIC_INLINE
  47:Generated_Source\PSoC6\pdl\cmsis/include/cmsis_gcc.h ****   #define __STATIC_INLINE                        static inline
  48:Generated_Source\PSoC6\pdl\cmsis/include/cmsis_gcc.h **** #endif
  49:Generated_Source\PSoC6\pdl\cmsis/include/cmsis_gcc.h **** #ifndef   __STATIC_FORCEINLINE                 
  50:Generated_Source\PSoC6\pdl\cmsis/include/cmsis_gcc.h ****   #define __STATIC_FORCEINLINE                   __attribute__((always_inline)) static inline
  51:Generated_Source\PSoC6\pdl\cmsis/include/cmsis_gcc.h **** #endif                                           
  52:Generated_Source\PSoC6\pdl\cmsis/include/cmsis_gcc.h **** #ifndef   __NO_RETURN
  53:Generated_Source\PSoC6\pdl\cmsis/include/cmsis_gcc.h ****   #define __NO_RETURN                            __attribute__((__noreturn__))
  54:Generated_Source\PSoC6\pdl\cmsis/include/cmsis_gcc.h **** #endif
  55:Generated_Source\PSoC6\pdl\cmsis/include/cmsis_gcc.h **** #ifndef   __USED
  56:Generated_Source\PSoC6\pdl\cmsis/include/cmsis_gcc.h ****   #define __USED                                 __attribute__((used))
  57:Generated_Source\PSoC6\pdl\cmsis/include/cmsis_gcc.h **** #endif
  58:Generated_Source\PSoC6\pdl\cmsis/include/cmsis_gcc.h **** #ifndef   __WEAK
  59:Generated_Source\PSoC6\pdl\cmsis/include/cmsis_gcc.h ****   #define __WEAK                                 __attribute__((weak))
  60:Generated_Source\PSoC6\pdl\cmsis/include/cmsis_gcc.h **** #endif
  61:Generated_Source\PSoC6\pdl\cmsis/include/cmsis_gcc.h **** #ifndef   __PACKED
  62:Generated_Source\PSoC6\pdl\cmsis/include/cmsis_gcc.h ****   #define __PACKED                               __attribute__((packed, aligned(1)))
  63:Generated_Source\PSoC6\pdl\cmsis/include/cmsis_gcc.h **** #endif
  64:Generated_Source\PSoC6\pdl\cmsis/include/cmsis_gcc.h **** #ifndef   __PACKED_STRUCT
  65:Generated_Source\PSoC6\pdl\cmsis/include/cmsis_gcc.h ****   #define __PACKED_STRUCT                        struct __attribute__((packed, aligned(1)))
  66:Generated_Source\PSoC6\pdl\cmsis/include/cmsis_gcc.h **** #endif
  67:Generated_Source\PSoC6\pdl\cmsis/include/cmsis_gcc.h **** #ifndef   __PACKED_UNION
  68:Generated_Source\PSoC6\pdl\cmsis/include/cmsis_gcc.h ****   #define __PACKED_UNION                         union __attribute__((packed, aligned(1)))
  69:Generated_Source\PSoC6\pdl\cmsis/include/cmsis_gcc.h **** #endif
  70:Generated_Source\PSoC6\pdl\cmsis/include/cmsis_gcc.h **** #ifndef   __UNALIGNED_UINT32        /* deprecated */
  71:Generated_Source\PSoC6\pdl\cmsis/include/cmsis_gcc.h ****   #pragma GCC diagnostic push
  72:Generated_Source\PSoC6\pdl\cmsis/include/cmsis_gcc.h ****   #pragma GCC diagnostic ignored "-Wpacked"
  73:Generated_Source\PSoC6\pdl\cmsis/include/cmsis_gcc.h ****   #pragma GCC diagnostic ignored "-Wattributes"
  74:Generated_Source\PSoC6\pdl\cmsis/include/cmsis_gcc.h ****   struct __attribute__((packed)) T_UINT32 { uint32_t v; };
  75:Generated_Source\PSoC6\pdl\cmsis/include/cmsis_gcc.h ****   #pragma GCC diagnostic pop
  76:Generated_Source\PSoC6\pdl\cmsis/include/cmsis_gcc.h ****   #define __UNALIGNED_UINT32(x)                  (((struct T_UINT32 *)(x))->v)
  77:Generated_Source\PSoC6\pdl\cmsis/include/cmsis_gcc.h **** #endif
  78:Generated_Source\PSoC6\pdl\cmsis/include/cmsis_gcc.h **** #ifndef   __UNALIGNED_UINT16_WRITE
  79:Generated_Source\PSoC6\pdl\cmsis/include/cmsis_gcc.h ****   #pragma GCC diagnostic push
  80:Generated_Source\PSoC6\pdl\cmsis/include/cmsis_gcc.h ****   #pragma GCC diagnostic ignored "-Wpacked"
  81:Generated_Source\PSoC6\pdl\cmsis/include/cmsis_gcc.h ****   #pragma GCC diagnostic ignored "-Wattributes"
  82:Generated_Source\PSoC6\pdl\cmsis/include/cmsis_gcc.h ****   __PACKED_STRUCT T_UINT16_WRITE { uint16_t v; };
  83:Generated_Source\PSoC6\pdl\cmsis/include/cmsis_gcc.h ****   #pragma GCC diagnostic pop
  84:Generated_Source\PSoC6\pdl\cmsis/include/cmsis_gcc.h ****   #define __UNALIGNED_UINT16_WRITE(addr, val)    (void)((((struct T_UINT16_WRITE *)(void *)(addr))-
  85:Generated_Source\PSoC6\pdl\cmsis/include/cmsis_gcc.h **** #endif
  86:Generated_Source\PSoC6\pdl\cmsis/include/cmsis_gcc.h **** #ifndef   __UNALIGNED_UINT16_READ
  87:Generated_Source\PSoC6\pdl\cmsis/include/cmsis_gcc.h ****   #pragma GCC diagnostic push
  88:Generated_Source\PSoC6\pdl\cmsis/include/cmsis_gcc.h ****   #pragma GCC diagnostic ignored "-Wpacked"
  89:Generated_Source\PSoC6\pdl\cmsis/include/cmsis_gcc.h ****   #pragma GCC diagnostic ignored "-Wattributes"
  90:Generated_Source\PSoC6\pdl\cmsis/include/cmsis_gcc.h ****   __PACKED_STRUCT T_UINT16_READ { uint16_t v; };
  91:Generated_Source\PSoC6\pdl\cmsis/include/cmsis_gcc.h ****   #pragma GCC diagnostic pop
  92:Generated_Source\PSoC6\pdl\cmsis/include/cmsis_gcc.h ****   #define __UNALIGNED_UINT16_READ(addr)          (((const struct T_UINT16_READ *)(const void *)(add
ARM GAS  C:\Users\Rolf\AppData\Local\Temp\ccEjvRQz.s 			page 19


  93:Generated_Source\PSoC6\pdl\cmsis/include/cmsis_gcc.h **** #endif
  94:Generated_Source\PSoC6\pdl\cmsis/include/cmsis_gcc.h **** #ifndef   __UNALIGNED_UINT32_WRITE
  95:Generated_Source\PSoC6\pdl\cmsis/include/cmsis_gcc.h ****   #pragma GCC diagnostic push
  96:Generated_Source\PSoC6\pdl\cmsis/include/cmsis_gcc.h ****   #pragma GCC diagnostic ignored "-Wpacked"
  97:Generated_Source\PSoC6\pdl\cmsis/include/cmsis_gcc.h ****   #pragma GCC diagnostic ignored "-Wattributes"
  98:Generated_Source\PSoC6\pdl\cmsis/include/cmsis_gcc.h ****   __PACKED_STRUCT T_UINT32_WRITE { uint32_t v; };
  99:Generated_Source\PSoC6\pdl\cmsis/include/cmsis_gcc.h ****   #pragma GCC diagnostic pop
 100:Generated_Source\PSoC6\pdl\cmsis/include/cmsis_gcc.h ****   #define __UNALIGNED_UINT32_WRITE(addr, val)    (void)((((struct T_UINT32_WRITE *)(void *)(addr))-
 101:Generated_Source\PSoC6\pdl\cmsis/include/cmsis_gcc.h **** #endif
 102:Generated_Source\PSoC6\pdl\cmsis/include/cmsis_gcc.h **** #ifndef   __UNALIGNED_UINT32_READ
 103:Generated_Source\PSoC6\pdl\cmsis/include/cmsis_gcc.h ****   #pragma GCC diagnostic push
 104:Generated_Source\PSoC6\pdl\cmsis/include/cmsis_gcc.h ****   #pragma GCC diagnostic ignored "-Wpacked"
 105:Generated_Source\PSoC6\pdl\cmsis/include/cmsis_gcc.h ****   #pragma GCC diagnostic ignored "-Wattributes"
 106:Generated_Source\PSoC6\pdl\cmsis/include/cmsis_gcc.h ****   __PACKED_STRUCT T_UINT32_READ { uint32_t v; };
 107:Generated_Source\PSoC6\pdl\cmsis/include/cmsis_gcc.h ****   #pragma GCC diagnostic pop
 108:Generated_Source\PSoC6\pdl\cmsis/include/cmsis_gcc.h ****   #define __UNALIGNED_UINT32_READ(addr)          (((const struct T_UINT32_READ *)(const void *)(add
 109:Generated_Source\PSoC6\pdl\cmsis/include/cmsis_gcc.h **** #endif
 110:Generated_Source\PSoC6\pdl\cmsis/include/cmsis_gcc.h **** #ifndef   __ALIGNED
 111:Generated_Source\PSoC6\pdl\cmsis/include/cmsis_gcc.h ****   #define __ALIGNED(x)                           __attribute__((aligned(x)))
 112:Generated_Source\PSoC6\pdl\cmsis/include/cmsis_gcc.h **** #endif
 113:Generated_Source\PSoC6\pdl\cmsis/include/cmsis_gcc.h **** #ifndef   __RESTRICT
 114:Generated_Source\PSoC6\pdl\cmsis/include/cmsis_gcc.h ****   #define __RESTRICT                             __restrict
 115:Generated_Source\PSoC6\pdl\cmsis/include/cmsis_gcc.h **** #endif
 116:Generated_Source\PSoC6\pdl\cmsis/include/cmsis_gcc.h **** 
 117:Generated_Source\PSoC6\pdl\cmsis/include/cmsis_gcc.h **** 
 118:Generated_Source\PSoC6\pdl\cmsis/include/cmsis_gcc.h **** /* ###########################  Core Function Access  ########################### */
 119:Generated_Source\PSoC6\pdl\cmsis/include/cmsis_gcc.h **** /** \ingroup  CMSIS_Core_FunctionInterface
 120:Generated_Source\PSoC6\pdl\cmsis/include/cmsis_gcc.h ****     \defgroup CMSIS_Core_RegAccFunctions CMSIS Core Register Access Functions
 121:Generated_Source\PSoC6\pdl\cmsis/include/cmsis_gcc.h ****   @{
 122:Generated_Source\PSoC6\pdl\cmsis/include/cmsis_gcc.h ****  */
 123:Generated_Source\PSoC6\pdl\cmsis/include/cmsis_gcc.h **** 
 124:Generated_Source\PSoC6\pdl\cmsis/include/cmsis_gcc.h **** /**
 125:Generated_Source\PSoC6\pdl\cmsis/include/cmsis_gcc.h ****   \brief   Enable IRQ Interrupts
 126:Generated_Source\PSoC6\pdl\cmsis/include/cmsis_gcc.h ****   \details Enables IRQ interrupts by clearing the I-bit in the CPSR.
 127:Generated_Source\PSoC6\pdl\cmsis/include/cmsis_gcc.h ****            Can only be executed in Privileged modes.
 128:Generated_Source\PSoC6\pdl\cmsis/include/cmsis_gcc.h ****  */
 129:Generated_Source\PSoC6\pdl\cmsis/include/cmsis_gcc.h **** __STATIC_FORCEINLINE void __enable_irq(void)
 130:Generated_Source\PSoC6\pdl\cmsis/include/cmsis_gcc.h **** {
 131:Generated_Source\PSoC6\pdl\cmsis/include/cmsis_gcc.h ****   __ASM volatile ("cpsie i" : : : "memory");
 132:Generated_Source\PSoC6\pdl\cmsis/include/cmsis_gcc.h **** }
 133:Generated_Source\PSoC6\pdl\cmsis/include/cmsis_gcc.h **** 
 134:Generated_Source\PSoC6\pdl\cmsis/include/cmsis_gcc.h **** 
 135:Generated_Source\PSoC6\pdl\cmsis/include/cmsis_gcc.h **** /**
 136:Generated_Source\PSoC6\pdl\cmsis/include/cmsis_gcc.h ****   \brief   Disable IRQ Interrupts
 137:Generated_Source\PSoC6\pdl\cmsis/include/cmsis_gcc.h ****   \details Disables IRQ interrupts by setting the I-bit in the CPSR.
 138:Generated_Source\PSoC6\pdl\cmsis/include/cmsis_gcc.h ****            Can only be executed in Privileged modes.
 139:Generated_Source\PSoC6\pdl\cmsis/include/cmsis_gcc.h ****  */
 140:Generated_Source\PSoC6\pdl\cmsis/include/cmsis_gcc.h **** __STATIC_FORCEINLINE void __disable_irq(void)
 141:Generated_Source\PSoC6\pdl\cmsis/include/cmsis_gcc.h **** {
 142:Generated_Source\PSoC6\pdl\cmsis/include/cmsis_gcc.h ****   __ASM volatile ("cpsid i" : : : "memory");
 143:Generated_Source\PSoC6\pdl\cmsis/include/cmsis_gcc.h **** }
 144:Generated_Source\PSoC6\pdl\cmsis/include/cmsis_gcc.h **** 
 145:Generated_Source\PSoC6\pdl\cmsis/include/cmsis_gcc.h **** 
 146:Generated_Source\PSoC6\pdl\cmsis/include/cmsis_gcc.h **** /**
 147:Generated_Source\PSoC6\pdl\cmsis/include/cmsis_gcc.h ****   \brief   Get Control Register
 148:Generated_Source\PSoC6\pdl\cmsis/include/cmsis_gcc.h ****   \details Returns the content of the Control Register.
 149:Generated_Source\PSoC6\pdl\cmsis/include/cmsis_gcc.h ****   \return               Control Register value
ARM GAS  C:\Users\Rolf\AppData\Local\Temp\ccEjvRQz.s 			page 20


 150:Generated_Source\PSoC6\pdl\cmsis/include/cmsis_gcc.h ****  */
 151:Generated_Source\PSoC6\pdl\cmsis/include/cmsis_gcc.h **** __STATIC_FORCEINLINE uint32_t __get_CONTROL(void)
 152:Generated_Source\PSoC6\pdl\cmsis/include/cmsis_gcc.h **** {
 153:Generated_Source\PSoC6\pdl\cmsis/include/cmsis_gcc.h ****   uint32_t result;
 154:Generated_Source\PSoC6\pdl\cmsis/include/cmsis_gcc.h **** 
 155:Generated_Source\PSoC6\pdl\cmsis/include/cmsis_gcc.h ****   __ASM volatile ("MRS %0, control" : "=r" (result) );
 156:Generated_Source\PSoC6\pdl\cmsis/include/cmsis_gcc.h ****   return(result);
 157:Generated_Source\PSoC6\pdl\cmsis/include/cmsis_gcc.h **** }
 158:Generated_Source\PSoC6\pdl\cmsis/include/cmsis_gcc.h **** 
 159:Generated_Source\PSoC6\pdl\cmsis/include/cmsis_gcc.h **** 
 160:Generated_Source\PSoC6\pdl\cmsis/include/cmsis_gcc.h **** #if (defined (__ARM_FEATURE_CMSE ) && (__ARM_FEATURE_CMSE == 3))
 161:Generated_Source\PSoC6\pdl\cmsis/include/cmsis_gcc.h **** /**
 162:Generated_Source\PSoC6\pdl\cmsis/include/cmsis_gcc.h ****   \brief   Get Control Register (non-secure)
 163:Generated_Source\PSoC6\pdl\cmsis/include/cmsis_gcc.h ****   \details Returns the content of the non-secure Control Register when in secure mode.
 164:Generated_Source\PSoC6\pdl\cmsis/include/cmsis_gcc.h ****   \return               non-secure Control Register value
 165:Generated_Source\PSoC6\pdl\cmsis/include/cmsis_gcc.h ****  */
 166:Generated_Source\PSoC6\pdl\cmsis/include/cmsis_gcc.h **** __STATIC_FORCEINLINE uint32_t __TZ_get_CONTROL_NS(void)
 167:Generated_Source\PSoC6\pdl\cmsis/include/cmsis_gcc.h **** {
 168:Generated_Source\PSoC6\pdl\cmsis/include/cmsis_gcc.h ****   uint32_t result;
 169:Generated_Source\PSoC6\pdl\cmsis/include/cmsis_gcc.h **** 
 170:Generated_Source\PSoC6\pdl\cmsis/include/cmsis_gcc.h ****   __ASM volatile ("MRS %0, control_ns" : "=r" (result) );
 171:Generated_Source\PSoC6\pdl\cmsis/include/cmsis_gcc.h ****   return(result);
 172:Generated_Source\PSoC6\pdl\cmsis/include/cmsis_gcc.h **** }
 173:Generated_Source\PSoC6\pdl\cmsis/include/cmsis_gcc.h **** #endif
 174:Generated_Source\PSoC6\pdl\cmsis/include/cmsis_gcc.h **** 
 175:Generated_Source\PSoC6\pdl\cmsis/include/cmsis_gcc.h **** 
 176:Generated_Source\PSoC6\pdl\cmsis/include/cmsis_gcc.h **** /**
 177:Generated_Source\PSoC6\pdl\cmsis/include/cmsis_gcc.h ****   \brief   Set Control Register
 178:Generated_Source\PSoC6\pdl\cmsis/include/cmsis_gcc.h ****   \details Writes the given value to the Control Register.
 179:Generated_Source\PSoC6\pdl\cmsis/include/cmsis_gcc.h ****   \param [in]    control  Control Register value to set
 180:Generated_Source\PSoC6\pdl\cmsis/include/cmsis_gcc.h ****  */
 181:Generated_Source\PSoC6\pdl\cmsis/include/cmsis_gcc.h **** __STATIC_FORCEINLINE void __set_CONTROL(uint32_t control)
 182:Generated_Source\PSoC6\pdl\cmsis/include/cmsis_gcc.h **** {
 183:Generated_Source\PSoC6\pdl\cmsis/include/cmsis_gcc.h ****   __ASM volatile ("MSR control, %0" : : "r" (control) : "memory");
 184:Generated_Source\PSoC6\pdl\cmsis/include/cmsis_gcc.h **** }
 185:Generated_Source\PSoC6\pdl\cmsis/include/cmsis_gcc.h **** 
 186:Generated_Source\PSoC6\pdl\cmsis/include/cmsis_gcc.h **** 
 187:Generated_Source\PSoC6\pdl\cmsis/include/cmsis_gcc.h **** #if (defined (__ARM_FEATURE_CMSE ) && (__ARM_FEATURE_CMSE == 3))
 188:Generated_Source\PSoC6\pdl\cmsis/include/cmsis_gcc.h **** /**
 189:Generated_Source\PSoC6\pdl\cmsis/include/cmsis_gcc.h ****   \brief   Set Control Register (non-secure)
 190:Generated_Source\PSoC6\pdl\cmsis/include/cmsis_gcc.h ****   \details Writes the given value to the non-secure Control Register when in secure state.
 191:Generated_Source\PSoC6\pdl\cmsis/include/cmsis_gcc.h ****   \param [in]    control  Control Register value to set
 192:Generated_Source\PSoC6\pdl\cmsis/include/cmsis_gcc.h ****  */
 193:Generated_Source\PSoC6\pdl\cmsis/include/cmsis_gcc.h **** __STATIC_FORCEINLINE void __TZ_set_CONTROL_NS(uint32_t control)
 194:Generated_Source\PSoC6\pdl\cmsis/include/cmsis_gcc.h **** {
 195:Generated_Source\PSoC6\pdl\cmsis/include/cmsis_gcc.h ****   __ASM volatile ("MSR control_ns, %0" : : "r" (control) : "memory");
 196:Generated_Source\PSoC6\pdl\cmsis/include/cmsis_gcc.h **** }
 197:Generated_Source\PSoC6\pdl\cmsis/include/cmsis_gcc.h **** #endif
 198:Generated_Source\PSoC6\pdl\cmsis/include/cmsis_gcc.h **** 
 199:Generated_Source\PSoC6\pdl\cmsis/include/cmsis_gcc.h **** 
 200:Generated_Source\PSoC6\pdl\cmsis/include/cmsis_gcc.h **** /**
 201:Generated_Source\PSoC6\pdl\cmsis/include/cmsis_gcc.h ****   \brief   Get IPSR Register
 202:Generated_Source\PSoC6\pdl\cmsis/include/cmsis_gcc.h ****   \details Returns the content of the IPSR Register.
 203:Generated_Source\PSoC6\pdl\cmsis/include/cmsis_gcc.h ****   \return               IPSR Register value
 204:Generated_Source\PSoC6\pdl\cmsis/include/cmsis_gcc.h ****  */
 205:Generated_Source\PSoC6\pdl\cmsis/include/cmsis_gcc.h **** __STATIC_FORCEINLINE uint32_t __get_IPSR(void)
 206:Generated_Source\PSoC6\pdl\cmsis/include/cmsis_gcc.h **** {
ARM GAS  C:\Users\Rolf\AppData\Local\Temp\ccEjvRQz.s 			page 21


 207:Generated_Source\PSoC6\pdl\cmsis/include/cmsis_gcc.h ****   uint32_t result;
 208:Generated_Source\PSoC6\pdl\cmsis/include/cmsis_gcc.h **** 
 209:Generated_Source\PSoC6\pdl\cmsis/include/cmsis_gcc.h ****   __ASM volatile ("MRS %0, ipsr" : "=r" (result) );
 210:Generated_Source\PSoC6\pdl\cmsis/include/cmsis_gcc.h ****   return(result);
 211:Generated_Source\PSoC6\pdl\cmsis/include/cmsis_gcc.h **** }
 212:Generated_Source\PSoC6\pdl\cmsis/include/cmsis_gcc.h **** 
 213:Generated_Source\PSoC6\pdl\cmsis/include/cmsis_gcc.h **** 
 214:Generated_Source\PSoC6\pdl\cmsis/include/cmsis_gcc.h **** /**
 215:Generated_Source\PSoC6\pdl\cmsis/include/cmsis_gcc.h ****   \brief   Get APSR Register
 216:Generated_Source\PSoC6\pdl\cmsis/include/cmsis_gcc.h ****   \details Returns the content of the APSR Register.
 217:Generated_Source\PSoC6\pdl\cmsis/include/cmsis_gcc.h ****   \return               APSR Register value
 218:Generated_Source\PSoC6\pdl\cmsis/include/cmsis_gcc.h ****  */
 219:Generated_Source\PSoC6\pdl\cmsis/include/cmsis_gcc.h **** __STATIC_FORCEINLINE uint32_t __get_APSR(void)
 220:Generated_Source\PSoC6\pdl\cmsis/include/cmsis_gcc.h **** {
 221:Generated_Source\PSoC6\pdl\cmsis/include/cmsis_gcc.h ****   uint32_t result;
 222:Generated_Source\PSoC6\pdl\cmsis/include/cmsis_gcc.h **** 
 223:Generated_Source\PSoC6\pdl\cmsis/include/cmsis_gcc.h ****   __ASM volatile ("MRS %0, apsr" : "=r" (result) );
 224:Generated_Source\PSoC6\pdl\cmsis/include/cmsis_gcc.h ****   return(result);
 225:Generated_Source\PSoC6\pdl\cmsis/include/cmsis_gcc.h **** }
 226:Generated_Source\PSoC6\pdl\cmsis/include/cmsis_gcc.h **** 
 227:Generated_Source\PSoC6\pdl\cmsis/include/cmsis_gcc.h **** 
 228:Generated_Source\PSoC6\pdl\cmsis/include/cmsis_gcc.h **** /**
 229:Generated_Source\PSoC6\pdl\cmsis/include/cmsis_gcc.h ****   \brief   Get xPSR Register
 230:Generated_Source\PSoC6\pdl\cmsis/include/cmsis_gcc.h ****   \details Returns the content of the xPSR Register.
 231:Generated_Source\PSoC6\pdl\cmsis/include/cmsis_gcc.h ****   \return               xPSR Register value
 232:Generated_Source\PSoC6\pdl\cmsis/include/cmsis_gcc.h ****  */
 233:Generated_Source\PSoC6\pdl\cmsis/include/cmsis_gcc.h **** __STATIC_FORCEINLINE uint32_t __get_xPSR(void)
 234:Generated_Source\PSoC6\pdl\cmsis/include/cmsis_gcc.h **** {
 235:Generated_Source\PSoC6\pdl\cmsis/include/cmsis_gcc.h ****   uint32_t result;
 236:Generated_Source\PSoC6\pdl\cmsis/include/cmsis_gcc.h **** 
 237:Generated_Source\PSoC6\pdl\cmsis/include/cmsis_gcc.h ****   __ASM volatile ("MRS %0, xpsr" : "=r" (result) );
 238:Generated_Source\PSoC6\pdl\cmsis/include/cmsis_gcc.h ****   return(result);
 239:Generated_Source\PSoC6\pdl\cmsis/include/cmsis_gcc.h **** }
 240:Generated_Source\PSoC6\pdl\cmsis/include/cmsis_gcc.h **** 
 241:Generated_Source\PSoC6\pdl\cmsis/include/cmsis_gcc.h **** 
 242:Generated_Source\PSoC6\pdl\cmsis/include/cmsis_gcc.h **** /**
 243:Generated_Source\PSoC6\pdl\cmsis/include/cmsis_gcc.h ****   \brief   Get Process Stack Pointer
 244:Generated_Source\PSoC6\pdl\cmsis/include/cmsis_gcc.h ****   \details Returns the current value of the Process Stack Pointer (PSP).
 245:Generated_Source\PSoC6\pdl\cmsis/include/cmsis_gcc.h ****   \return               PSP Register value
 246:Generated_Source\PSoC6\pdl\cmsis/include/cmsis_gcc.h ****  */
 247:Generated_Source\PSoC6\pdl\cmsis/include/cmsis_gcc.h **** __STATIC_FORCEINLINE uint32_t __get_PSP(void)
 248:Generated_Source\PSoC6\pdl\cmsis/include/cmsis_gcc.h **** {
 249:Generated_Source\PSoC6\pdl\cmsis/include/cmsis_gcc.h ****   register uint32_t result;
 250:Generated_Source\PSoC6\pdl\cmsis/include/cmsis_gcc.h **** 
 251:Generated_Source\PSoC6\pdl\cmsis/include/cmsis_gcc.h ****   __ASM volatile ("MRS %0, psp"  : "=r" (result) );
 252:Generated_Source\PSoC6\pdl\cmsis/include/cmsis_gcc.h ****   return(result);
 253:Generated_Source\PSoC6\pdl\cmsis/include/cmsis_gcc.h **** }
 254:Generated_Source\PSoC6\pdl\cmsis/include/cmsis_gcc.h **** 
 255:Generated_Source\PSoC6\pdl\cmsis/include/cmsis_gcc.h **** 
 256:Generated_Source\PSoC6\pdl\cmsis/include/cmsis_gcc.h **** #if (defined (__ARM_FEATURE_CMSE ) && (__ARM_FEATURE_CMSE == 3))
 257:Generated_Source\PSoC6\pdl\cmsis/include/cmsis_gcc.h **** /**
 258:Generated_Source\PSoC6\pdl\cmsis/include/cmsis_gcc.h ****   \brief   Get Process Stack Pointer (non-secure)
 259:Generated_Source\PSoC6\pdl\cmsis/include/cmsis_gcc.h ****   \details Returns the current value of the non-secure Process Stack Pointer (PSP) when in secure s
 260:Generated_Source\PSoC6\pdl\cmsis/include/cmsis_gcc.h ****   \return               PSP Register value
 261:Generated_Source\PSoC6\pdl\cmsis/include/cmsis_gcc.h ****  */
 262:Generated_Source\PSoC6\pdl\cmsis/include/cmsis_gcc.h **** __STATIC_FORCEINLINE uint32_t __TZ_get_PSP_NS(void)
 263:Generated_Source\PSoC6\pdl\cmsis/include/cmsis_gcc.h **** {
ARM GAS  C:\Users\Rolf\AppData\Local\Temp\ccEjvRQz.s 			page 22


 264:Generated_Source\PSoC6\pdl\cmsis/include/cmsis_gcc.h ****   register uint32_t result;
 265:Generated_Source\PSoC6\pdl\cmsis/include/cmsis_gcc.h **** 
 266:Generated_Source\PSoC6\pdl\cmsis/include/cmsis_gcc.h ****   __ASM volatile ("MRS %0, psp_ns"  : "=r" (result) );
 267:Generated_Source\PSoC6\pdl\cmsis/include/cmsis_gcc.h ****   return(result);
 268:Generated_Source\PSoC6\pdl\cmsis/include/cmsis_gcc.h **** }
 269:Generated_Source\PSoC6\pdl\cmsis/include/cmsis_gcc.h **** #endif
 270:Generated_Source\PSoC6\pdl\cmsis/include/cmsis_gcc.h **** 
 271:Generated_Source\PSoC6\pdl\cmsis/include/cmsis_gcc.h **** 
 272:Generated_Source\PSoC6\pdl\cmsis/include/cmsis_gcc.h **** /**
 273:Generated_Source\PSoC6\pdl\cmsis/include/cmsis_gcc.h ****   \brief   Set Process Stack Pointer
 274:Generated_Source\PSoC6\pdl\cmsis/include/cmsis_gcc.h ****   \details Assigns the given value to the Process Stack Pointer (PSP).
 275:Generated_Source\PSoC6\pdl\cmsis/include/cmsis_gcc.h ****   \param [in]    topOfProcStack  Process Stack Pointer value to set
 276:Generated_Source\PSoC6\pdl\cmsis/include/cmsis_gcc.h ****  */
 277:Generated_Source\PSoC6\pdl\cmsis/include/cmsis_gcc.h **** __STATIC_FORCEINLINE void __set_PSP(uint32_t topOfProcStack)
 278:Generated_Source\PSoC6\pdl\cmsis/include/cmsis_gcc.h **** {
 279:Generated_Source\PSoC6\pdl\cmsis/include/cmsis_gcc.h ****   __ASM volatile ("MSR psp, %0" : : "r" (topOfProcStack) : );
 280:Generated_Source\PSoC6\pdl\cmsis/include/cmsis_gcc.h **** }
 281:Generated_Source\PSoC6\pdl\cmsis/include/cmsis_gcc.h **** 
 282:Generated_Source\PSoC6\pdl\cmsis/include/cmsis_gcc.h **** 
 283:Generated_Source\PSoC6\pdl\cmsis/include/cmsis_gcc.h **** #if (defined (__ARM_FEATURE_CMSE ) && (__ARM_FEATURE_CMSE == 3))
 284:Generated_Source\PSoC6\pdl\cmsis/include/cmsis_gcc.h **** /**
 285:Generated_Source\PSoC6\pdl\cmsis/include/cmsis_gcc.h ****   \brief   Set Process Stack Pointer (non-secure)
 286:Generated_Source\PSoC6\pdl\cmsis/include/cmsis_gcc.h ****   \details Assigns the given value to the non-secure Process Stack Pointer (PSP) when in secure sta
 287:Generated_Source\PSoC6\pdl\cmsis/include/cmsis_gcc.h ****   \param [in]    topOfProcStack  Process Stack Pointer value to set
 288:Generated_Source\PSoC6\pdl\cmsis/include/cmsis_gcc.h ****  */
 289:Generated_Source\PSoC6\pdl\cmsis/include/cmsis_gcc.h **** __STATIC_FORCEINLINE void __TZ_set_PSP_NS(uint32_t topOfProcStack)
 290:Generated_Source\PSoC6\pdl\cmsis/include/cmsis_gcc.h **** {
 291:Generated_Source\PSoC6\pdl\cmsis/include/cmsis_gcc.h ****   __ASM volatile ("MSR psp_ns, %0" : : "r" (topOfProcStack) : );
 292:Generated_Source\PSoC6\pdl\cmsis/include/cmsis_gcc.h **** }
 293:Generated_Source\PSoC6\pdl\cmsis/include/cmsis_gcc.h **** #endif
 294:Generated_Source\PSoC6\pdl\cmsis/include/cmsis_gcc.h **** 
 295:Generated_Source\PSoC6\pdl\cmsis/include/cmsis_gcc.h **** 
 296:Generated_Source\PSoC6\pdl\cmsis/include/cmsis_gcc.h **** /**
 297:Generated_Source\PSoC6\pdl\cmsis/include/cmsis_gcc.h ****   \brief   Get Main Stack Pointer
 298:Generated_Source\PSoC6\pdl\cmsis/include/cmsis_gcc.h ****   \details Returns the current value of the Main Stack Pointer (MSP).
 299:Generated_Source\PSoC6\pdl\cmsis/include/cmsis_gcc.h ****   \return               MSP Register value
 300:Generated_Source\PSoC6\pdl\cmsis/include/cmsis_gcc.h ****  */
 301:Generated_Source\PSoC6\pdl\cmsis/include/cmsis_gcc.h **** __STATIC_FORCEINLINE uint32_t __get_MSP(void)
 302:Generated_Source\PSoC6\pdl\cmsis/include/cmsis_gcc.h **** {
 303:Generated_Source\PSoC6\pdl\cmsis/include/cmsis_gcc.h ****   register uint32_t result;
 304:Generated_Source\PSoC6\pdl\cmsis/include/cmsis_gcc.h **** 
 305:Generated_Source\PSoC6\pdl\cmsis/include/cmsis_gcc.h ****   __ASM volatile ("MRS %0, msp" : "=r" (result) );
 306:Generated_Source\PSoC6\pdl\cmsis/include/cmsis_gcc.h ****   return(result);
 307:Generated_Source\PSoC6\pdl\cmsis/include/cmsis_gcc.h **** }
 308:Generated_Source\PSoC6\pdl\cmsis/include/cmsis_gcc.h **** 
 309:Generated_Source\PSoC6\pdl\cmsis/include/cmsis_gcc.h **** 
 310:Generated_Source\PSoC6\pdl\cmsis/include/cmsis_gcc.h **** #if (defined (__ARM_FEATURE_CMSE ) && (__ARM_FEATURE_CMSE == 3))
 311:Generated_Source\PSoC6\pdl\cmsis/include/cmsis_gcc.h **** /**
 312:Generated_Source\PSoC6\pdl\cmsis/include/cmsis_gcc.h ****   \brief   Get Main Stack Pointer (non-secure)
 313:Generated_Source\PSoC6\pdl\cmsis/include/cmsis_gcc.h ****   \details Returns the current value of the non-secure Main Stack Pointer (MSP) when in secure stat
 314:Generated_Source\PSoC6\pdl\cmsis/include/cmsis_gcc.h ****   \return               MSP Register value
 315:Generated_Source\PSoC6\pdl\cmsis/include/cmsis_gcc.h ****  */
 316:Generated_Source\PSoC6\pdl\cmsis/include/cmsis_gcc.h **** __STATIC_FORCEINLINE uint32_t __TZ_get_MSP_NS(void)
 317:Generated_Source\PSoC6\pdl\cmsis/include/cmsis_gcc.h **** {
 318:Generated_Source\PSoC6\pdl\cmsis/include/cmsis_gcc.h ****   register uint32_t result;
 319:Generated_Source\PSoC6\pdl\cmsis/include/cmsis_gcc.h **** 
 320:Generated_Source\PSoC6\pdl\cmsis/include/cmsis_gcc.h ****   __ASM volatile ("MRS %0, msp_ns" : "=r" (result) );
ARM GAS  C:\Users\Rolf\AppData\Local\Temp\ccEjvRQz.s 			page 23


 321:Generated_Source\PSoC6\pdl\cmsis/include/cmsis_gcc.h ****   return(result);
 322:Generated_Source\PSoC6\pdl\cmsis/include/cmsis_gcc.h **** }
 323:Generated_Source\PSoC6\pdl\cmsis/include/cmsis_gcc.h **** #endif
 324:Generated_Source\PSoC6\pdl\cmsis/include/cmsis_gcc.h **** 
 325:Generated_Source\PSoC6\pdl\cmsis/include/cmsis_gcc.h **** 
 326:Generated_Source\PSoC6\pdl\cmsis/include/cmsis_gcc.h **** /**
 327:Generated_Source\PSoC6\pdl\cmsis/include/cmsis_gcc.h ****   \brief   Set Main Stack Pointer
 328:Generated_Source\PSoC6\pdl\cmsis/include/cmsis_gcc.h ****   \details Assigns the given value to the Main Stack Pointer (MSP).
 329:Generated_Source\PSoC6\pdl\cmsis/include/cmsis_gcc.h ****   \param [in]    topOfMainStack  Main Stack Pointer value to set
 330:Generated_Source\PSoC6\pdl\cmsis/include/cmsis_gcc.h ****  */
 331:Generated_Source\PSoC6\pdl\cmsis/include/cmsis_gcc.h **** __STATIC_FORCEINLINE void __set_MSP(uint32_t topOfMainStack)
 332:Generated_Source\PSoC6\pdl\cmsis/include/cmsis_gcc.h **** {
 333:Generated_Source\PSoC6\pdl\cmsis/include/cmsis_gcc.h ****   __ASM volatile ("MSR msp, %0" : : "r" (topOfMainStack) : );
 334:Generated_Source\PSoC6\pdl\cmsis/include/cmsis_gcc.h **** }
 335:Generated_Source\PSoC6\pdl\cmsis/include/cmsis_gcc.h **** 
 336:Generated_Source\PSoC6\pdl\cmsis/include/cmsis_gcc.h **** 
 337:Generated_Source\PSoC6\pdl\cmsis/include/cmsis_gcc.h **** #if (defined (__ARM_FEATURE_CMSE ) && (__ARM_FEATURE_CMSE == 3))
 338:Generated_Source\PSoC6\pdl\cmsis/include/cmsis_gcc.h **** /**
 339:Generated_Source\PSoC6\pdl\cmsis/include/cmsis_gcc.h ****   \brief   Set Main Stack Pointer (non-secure)
 340:Generated_Source\PSoC6\pdl\cmsis/include/cmsis_gcc.h ****   \details Assigns the given value to the non-secure Main Stack Pointer (MSP) when in secure state.
 341:Generated_Source\PSoC6\pdl\cmsis/include/cmsis_gcc.h ****   \param [in]    topOfMainStack  Main Stack Pointer value to set
 342:Generated_Source\PSoC6\pdl\cmsis/include/cmsis_gcc.h ****  */
 343:Generated_Source\PSoC6\pdl\cmsis/include/cmsis_gcc.h **** __STATIC_FORCEINLINE void __TZ_set_MSP_NS(uint32_t topOfMainStack)
 344:Generated_Source\PSoC6\pdl\cmsis/include/cmsis_gcc.h **** {
 345:Generated_Source\PSoC6\pdl\cmsis/include/cmsis_gcc.h ****   __ASM volatile ("MSR msp_ns, %0" : : "r" (topOfMainStack) : );
 346:Generated_Source\PSoC6\pdl\cmsis/include/cmsis_gcc.h **** }
 347:Generated_Source\PSoC6\pdl\cmsis/include/cmsis_gcc.h **** #endif
 348:Generated_Source\PSoC6\pdl\cmsis/include/cmsis_gcc.h **** 
 349:Generated_Source\PSoC6\pdl\cmsis/include/cmsis_gcc.h **** 
 350:Generated_Source\PSoC6\pdl\cmsis/include/cmsis_gcc.h **** #if (defined (__ARM_FEATURE_CMSE ) && (__ARM_FEATURE_CMSE == 3))
 351:Generated_Source\PSoC6\pdl\cmsis/include/cmsis_gcc.h **** /**
 352:Generated_Source\PSoC6\pdl\cmsis/include/cmsis_gcc.h ****   \brief   Get Stack Pointer (non-secure)
 353:Generated_Source\PSoC6\pdl\cmsis/include/cmsis_gcc.h ****   \details Returns the current value of the non-secure Stack Pointer (SP) when in secure state.
 354:Generated_Source\PSoC6\pdl\cmsis/include/cmsis_gcc.h ****   \return               SP Register value
 355:Generated_Source\PSoC6\pdl\cmsis/include/cmsis_gcc.h ****  */
 356:Generated_Source\PSoC6\pdl\cmsis/include/cmsis_gcc.h **** __STATIC_FORCEINLINE uint32_t __TZ_get_SP_NS(void)
 357:Generated_Source\PSoC6\pdl\cmsis/include/cmsis_gcc.h **** {
 358:Generated_Source\PSoC6\pdl\cmsis/include/cmsis_gcc.h ****   register uint32_t result;
 359:Generated_Source\PSoC6\pdl\cmsis/include/cmsis_gcc.h **** 
 360:Generated_Source\PSoC6\pdl\cmsis/include/cmsis_gcc.h ****   __ASM volatile ("MRS %0, sp_ns" : "=r" (result) );
 361:Generated_Source\PSoC6\pdl\cmsis/include/cmsis_gcc.h ****   return(result);
 362:Generated_Source\PSoC6\pdl\cmsis/include/cmsis_gcc.h **** }
 363:Generated_Source\PSoC6\pdl\cmsis/include/cmsis_gcc.h **** 
 364:Generated_Source\PSoC6\pdl\cmsis/include/cmsis_gcc.h **** 
 365:Generated_Source\PSoC6\pdl\cmsis/include/cmsis_gcc.h **** /**
 366:Generated_Source\PSoC6\pdl\cmsis/include/cmsis_gcc.h ****   \brief   Set Stack Pointer (non-secure)
 367:Generated_Source\PSoC6\pdl\cmsis/include/cmsis_gcc.h ****   \details Assigns the given value to the non-secure Stack Pointer (SP) when in secure state.
 368:Generated_Source\PSoC6\pdl\cmsis/include/cmsis_gcc.h ****   \param [in]    topOfStack  Stack Pointer value to set
 369:Generated_Source\PSoC6\pdl\cmsis/include/cmsis_gcc.h ****  */
 370:Generated_Source\PSoC6\pdl\cmsis/include/cmsis_gcc.h **** __STATIC_FORCEINLINE void __TZ_set_SP_NS(uint32_t topOfStack)
 371:Generated_Source\PSoC6\pdl\cmsis/include/cmsis_gcc.h **** {
 372:Generated_Source\PSoC6\pdl\cmsis/include/cmsis_gcc.h ****   __ASM volatile ("MSR sp_ns, %0" : : "r" (topOfStack) : );
 373:Generated_Source\PSoC6\pdl\cmsis/include/cmsis_gcc.h **** }
 374:Generated_Source\PSoC6\pdl\cmsis/include/cmsis_gcc.h **** #endif
 375:Generated_Source\PSoC6\pdl\cmsis/include/cmsis_gcc.h **** 
 376:Generated_Source\PSoC6\pdl\cmsis/include/cmsis_gcc.h **** 
 377:Generated_Source\PSoC6\pdl\cmsis/include/cmsis_gcc.h **** /**
ARM GAS  C:\Users\Rolf\AppData\Local\Temp\ccEjvRQz.s 			page 24


 378:Generated_Source\PSoC6\pdl\cmsis/include/cmsis_gcc.h ****   \brief   Get Priority Mask
 379:Generated_Source\PSoC6\pdl\cmsis/include/cmsis_gcc.h ****   \details Returns the current state of the priority mask bit from the Priority Mask Register.
 380:Generated_Source\PSoC6\pdl\cmsis/include/cmsis_gcc.h ****   \return               Priority Mask value
 381:Generated_Source\PSoC6\pdl\cmsis/include/cmsis_gcc.h ****  */
 382:Generated_Source\PSoC6\pdl\cmsis/include/cmsis_gcc.h **** __STATIC_FORCEINLINE uint32_t __get_PRIMASK(void)
 383:Generated_Source\PSoC6\pdl\cmsis/include/cmsis_gcc.h **** {
 384:Generated_Source\PSoC6\pdl\cmsis/include/cmsis_gcc.h ****   uint32_t result;
 385:Generated_Source\PSoC6\pdl\cmsis/include/cmsis_gcc.h **** 
 386:Generated_Source\PSoC6\pdl\cmsis/include/cmsis_gcc.h ****   __ASM volatile ("MRS %0, primask" : "=r" (result) :: "memory");
 387:Generated_Source\PSoC6\pdl\cmsis/include/cmsis_gcc.h ****   return(result);
 388:Generated_Source\PSoC6\pdl\cmsis/include/cmsis_gcc.h **** }
 389:Generated_Source\PSoC6\pdl\cmsis/include/cmsis_gcc.h **** 
 390:Generated_Source\PSoC6\pdl\cmsis/include/cmsis_gcc.h **** 
 391:Generated_Source\PSoC6\pdl\cmsis/include/cmsis_gcc.h **** #if (defined (__ARM_FEATURE_CMSE ) && (__ARM_FEATURE_CMSE == 3))
 392:Generated_Source\PSoC6\pdl\cmsis/include/cmsis_gcc.h **** /**
 393:Generated_Source\PSoC6\pdl\cmsis/include/cmsis_gcc.h ****   \brief   Get Priority Mask (non-secure)
 394:Generated_Source\PSoC6\pdl\cmsis/include/cmsis_gcc.h ****   \details Returns the current state of the non-secure priority mask bit from the Priority Mask Reg
 395:Generated_Source\PSoC6\pdl\cmsis/include/cmsis_gcc.h ****   \return               Priority Mask value
 396:Generated_Source\PSoC6\pdl\cmsis/include/cmsis_gcc.h ****  */
 397:Generated_Source\PSoC6\pdl\cmsis/include/cmsis_gcc.h **** __STATIC_FORCEINLINE uint32_t __TZ_get_PRIMASK_NS(void)
 398:Generated_Source\PSoC6\pdl\cmsis/include/cmsis_gcc.h **** {
 399:Generated_Source\PSoC6\pdl\cmsis/include/cmsis_gcc.h ****   uint32_t result;
 400:Generated_Source\PSoC6\pdl\cmsis/include/cmsis_gcc.h **** 
 401:Generated_Source\PSoC6\pdl\cmsis/include/cmsis_gcc.h ****   __ASM volatile ("MRS %0, primask_ns" : "=r" (result) :: "memory");
 402:Generated_Source\PSoC6\pdl\cmsis/include/cmsis_gcc.h ****   return(result);
 403:Generated_Source\PSoC6\pdl\cmsis/include/cmsis_gcc.h **** }
 404:Generated_Source\PSoC6\pdl\cmsis/include/cmsis_gcc.h **** #endif
 405:Generated_Source\PSoC6\pdl\cmsis/include/cmsis_gcc.h **** 
 406:Generated_Source\PSoC6\pdl\cmsis/include/cmsis_gcc.h **** 
 407:Generated_Source\PSoC6\pdl\cmsis/include/cmsis_gcc.h **** /**
 408:Generated_Source\PSoC6\pdl\cmsis/include/cmsis_gcc.h ****   \brief   Set Priority Mask
 409:Generated_Source\PSoC6\pdl\cmsis/include/cmsis_gcc.h ****   \details Assigns the given value to the Priority Mask Register.
 410:Generated_Source\PSoC6\pdl\cmsis/include/cmsis_gcc.h ****   \param [in]    priMask  Priority Mask
 411:Generated_Source\PSoC6\pdl\cmsis/include/cmsis_gcc.h ****  */
 412:Generated_Source\PSoC6\pdl\cmsis/include/cmsis_gcc.h **** __STATIC_FORCEINLINE void __set_PRIMASK(uint32_t priMask)
 413:Generated_Source\PSoC6\pdl\cmsis/include/cmsis_gcc.h **** {
 414:Generated_Source\PSoC6\pdl\cmsis/include/cmsis_gcc.h ****   __ASM volatile ("MSR primask, %0" : : "r" (priMask) : "memory");
 415:Generated_Source\PSoC6\pdl\cmsis/include/cmsis_gcc.h **** }
 416:Generated_Source\PSoC6\pdl\cmsis/include/cmsis_gcc.h **** 
 417:Generated_Source\PSoC6\pdl\cmsis/include/cmsis_gcc.h **** 
 418:Generated_Source\PSoC6\pdl\cmsis/include/cmsis_gcc.h **** #if (defined (__ARM_FEATURE_CMSE ) && (__ARM_FEATURE_CMSE == 3))
 419:Generated_Source\PSoC6\pdl\cmsis/include/cmsis_gcc.h **** /**
 420:Generated_Source\PSoC6\pdl\cmsis/include/cmsis_gcc.h ****   \brief   Set Priority Mask (non-secure)
 421:Generated_Source\PSoC6\pdl\cmsis/include/cmsis_gcc.h ****   \details Assigns the given value to the non-secure Priority Mask Register when in secure state.
 422:Generated_Source\PSoC6\pdl\cmsis/include/cmsis_gcc.h ****   \param [in]    priMask  Priority Mask
 423:Generated_Source\PSoC6\pdl\cmsis/include/cmsis_gcc.h ****  */
 424:Generated_Source\PSoC6\pdl\cmsis/include/cmsis_gcc.h **** __STATIC_FORCEINLINE void __TZ_set_PRIMASK_NS(uint32_t priMask)
 425:Generated_Source\PSoC6\pdl\cmsis/include/cmsis_gcc.h **** {
 426:Generated_Source\PSoC6\pdl\cmsis/include/cmsis_gcc.h ****   __ASM volatile ("MSR primask_ns, %0" : : "r" (priMask) : "memory");
 427:Generated_Source\PSoC6\pdl\cmsis/include/cmsis_gcc.h **** }
 428:Generated_Source\PSoC6\pdl\cmsis/include/cmsis_gcc.h **** #endif
 429:Generated_Source\PSoC6\pdl\cmsis/include/cmsis_gcc.h **** 
 430:Generated_Source\PSoC6\pdl\cmsis/include/cmsis_gcc.h **** 
 431:Generated_Source\PSoC6\pdl\cmsis/include/cmsis_gcc.h **** #if ((defined (__ARM_ARCH_7M__      ) && (__ARM_ARCH_7M__      == 1)) || \
 432:Generated_Source\PSoC6\pdl\cmsis/include/cmsis_gcc.h ****      (defined (__ARM_ARCH_7EM__     ) && (__ARM_ARCH_7EM__     == 1)) || \
 433:Generated_Source\PSoC6\pdl\cmsis/include/cmsis_gcc.h ****      (defined (__ARM_ARCH_8M_MAIN__ ) && (__ARM_ARCH_8M_MAIN__ == 1))    )
 434:Generated_Source\PSoC6\pdl\cmsis/include/cmsis_gcc.h **** /**
ARM GAS  C:\Users\Rolf\AppData\Local\Temp\ccEjvRQz.s 			page 25


 435:Generated_Source\PSoC6\pdl\cmsis/include/cmsis_gcc.h ****   \brief   Enable FIQ
 436:Generated_Source\PSoC6\pdl\cmsis/include/cmsis_gcc.h ****   \details Enables FIQ interrupts by clearing the F-bit in the CPSR.
 437:Generated_Source\PSoC6\pdl\cmsis/include/cmsis_gcc.h ****            Can only be executed in Privileged modes.
 438:Generated_Source\PSoC6\pdl\cmsis/include/cmsis_gcc.h ****  */
 439:Generated_Source\PSoC6\pdl\cmsis/include/cmsis_gcc.h **** __STATIC_FORCEINLINE void __enable_fault_irq(void)
 440:Generated_Source\PSoC6\pdl\cmsis/include/cmsis_gcc.h **** {
 441:Generated_Source\PSoC6\pdl\cmsis/include/cmsis_gcc.h ****   __ASM volatile ("cpsie f" : : : "memory");
 442:Generated_Source\PSoC6\pdl\cmsis/include/cmsis_gcc.h **** }
 443:Generated_Source\PSoC6\pdl\cmsis/include/cmsis_gcc.h **** 
 444:Generated_Source\PSoC6\pdl\cmsis/include/cmsis_gcc.h **** 
 445:Generated_Source\PSoC6\pdl\cmsis/include/cmsis_gcc.h **** /**
 446:Generated_Source\PSoC6\pdl\cmsis/include/cmsis_gcc.h ****   \brief   Disable FIQ
 447:Generated_Source\PSoC6\pdl\cmsis/include/cmsis_gcc.h ****   \details Disables FIQ interrupts by setting the F-bit in the CPSR.
 448:Generated_Source\PSoC6\pdl\cmsis/include/cmsis_gcc.h ****            Can only be executed in Privileged modes.
 449:Generated_Source\PSoC6\pdl\cmsis/include/cmsis_gcc.h ****  */
 450:Generated_Source\PSoC6\pdl\cmsis/include/cmsis_gcc.h **** __STATIC_FORCEINLINE void __disable_fault_irq(void)
 451:Generated_Source\PSoC6\pdl\cmsis/include/cmsis_gcc.h **** {
 452:Generated_Source\PSoC6\pdl\cmsis/include/cmsis_gcc.h ****   __ASM volatile ("cpsid f" : : : "memory");
 453:Generated_Source\PSoC6\pdl\cmsis/include/cmsis_gcc.h **** }
 454:Generated_Source\PSoC6\pdl\cmsis/include/cmsis_gcc.h **** 
 455:Generated_Source\PSoC6\pdl\cmsis/include/cmsis_gcc.h **** 
 456:Generated_Source\PSoC6\pdl\cmsis/include/cmsis_gcc.h **** /**
 457:Generated_Source\PSoC6\pdl\cmsis/include/cmsis_gcc.h ****   \brief   Get Base Priority
 458:Generated_Source\PSoC6\pdl\cmsis/include/cmsis_gcc.h ****   \details Returns the current value of the Base Priority register.
 459:Generated_Source\PSoC6\pdl\cmsis/include/cmsis_gcc.h ****   \return               Base Priority register value
 460:Generated_Source\PSoC6\pdl\cmsis/include/cmsis_gcc.h ****  */
 461:Generated_Source\PSoC6\pdl\cmsis/include/cmsis_gcc.h **** __STATIC_FORCEINLINE uint32_t __get_BASEPRI(void)
 462:Generated_Source\PSoC6\pdl\cmsis/include/cmsis_gcc.h **** {
 463:Generated_Source\PSoC6\pdl\cmsis/include/cmsis_gcc.h ****   uint32_t result;
 464:Generated_Source\PSoC6\pdl\cmsis/include/cmsis_gcc.h **** 
 465:Generated_Source\PSoC6\pdl\cmsis/include/cmsis_gcc.h ****   __ASM volatile ("MRS %0, basepri" : "=r" (result) );
 466:Generated_Source\PSoC6\pdl\cmsis/include/cmsis_gcc.h ****   return(result);
 467:Generated_Source\PSoC6\pdl\cmsis/include/cmsis_gcc.h **** }
 468:Generated_Source\PSoC6\pdl\cmsis/include/cmsis_gcc.h **** 
 469:Generated_Source\PSoC6\pdl\cmsis/include/cmsis_gcc.h **** 
 470:Generated_Source\PSoC6\pdl\cmsis/include/cmsis_gcc.h **** #if (defined (__ARM_FEATURE_CMSE ) && (__ARM_FEATURE_CMSE == 3))
 471:Generated_Source\PSoC6\pdl\cmsis/include/cmsis_gcc.h **** /**
 472:Generated_Source\PSoC6\pdl\cmsis/include/cmsis_gcc.h ****   \brief   Get Base Priority (non-secure)
 473:Generated_Source\PSoC6\pdl\cmsis/include/cmsis_gcc.h ****   \details Returns the current value of the non-secure Base Priority register when in secure state.
 474:Generated_Source\PSoC6\pdl\cmsis/include/cmsis_gcc.h ****   \return               Base Priority register value
 475:Generated_Source\PSoC6\pdl\cmsis/include/cmsis_gcc.h ****  */
 476:Generated_Source\PSoC6\pdl\cmsis/include/cmsis_gcc.h **** __STATIC_FORCEINLINE uint32_t __TZ_get_BASEPRI_NS(void)
 477:Generated_Source\PSoC6\pdl\cmsis/include/cmsis_gcc.h **** {
 478:Generated_Source\PSoC6\pdl\cmsis/include/cmsis_gcc.h ****   uint32_t result;
 479:Generated_Source\PSoC6\pdl\cmsis/include/cmsis_gcc.h **** 
 480:Generated_Source\PSoC6\pdl\cmsis/include/cmsis_gcc.h ****   __ASM volatile ("MRS %0, basepri_ns" : "=r" (result) );
 481:Generated_Source\PSoC6\pdl\cmsis/include/cmsis_gcc.h ****   return(result);
 482:Generated_Source\PSoC6\pdl\cmsis/include/cmsis_gcc.h **** }
 483:Generated_Source\PSoC6\pdl\cmsis/include/cmsis_gcc.h **** #endif
 484:Generated_Source\PSoC6\pdl\cmsis/include/cmsis_gcc.h **** 
 485:Generated_Source\PSoC6\pdl\cmsis/include/cmsis_gcc.h **** 
 486:Generated_Source\PSoC6\pdl\cmsis/include/cmsis_gcc.h **** /**
 487:Generated_Source\PSoC6\pdl\cmsis/include/cmsis_gcc.h ****   \brief   Set Base Priority
 488:Generated_Source\PSoC6\pdl\cmsis/include/cmsis_gcc.h ****   \details Assigns the given value to the Base Priority register.
 489:Generated_Source\PSoC6\pdl\cmsis/include/cmsis_gcc.h ****   \param [in]    basePri  Base Priority value to set
 490:Generated_Source\PSoC6\pdl\cmsis/include/cmsis_gcc.h ****  */
 491:Generated_Source\PSoC6\pdl\cmsis/include/cmsis_gcc.h **** __STATIC_FORCEINLINE void __set_BASEPRI(uint32_t basePri)
ARM GAS  C:\Users\Rolf\AppData\Local\Temp\ccEjvRQz.s 			page 26


 492:Generated_Source\PSoC6\pdl\cmsis/include/cmsis_gcc.h **** {
 493:Generated_Source\PSoC6\pdl\cmsis/include/cmsis_gcc.h ****   __ASM volatile ("MSR basepri, %0" : : "r" (basePri) : "memory");
 494:Generated_Source\PSoC6\pdl\cmsis/include/cmsis_gcc.h **** }
 495:Generated_Source\PSoC6\pdl\cmsis/include/cmsis_gcc.h **** 
 496:Generated_Source\PSoC6\pdl\cmsis/include/cmsis_gcc.h **** 
 497:Generated_Source\PSoC6\pdl\cmsis/include/cmsis_gcc.h **** #if (defined (__ARM_FEATURE_CMSE ) && (__ARM_FEATURE_CMSE == 3))
 498:Generated_Source\PSoC6\pdl\cmsis/include/cmsis_gcc.h **** /**
 499:Generated_Source\PSoC6\pdl\cmsis/include/cmsis_gcc.h ****   \brief   Set Base Priority (non-secure)
 500:Generated_Source\PSoC6\pdl\cmsis/include/cmsis_gcc.h ****   \details Assigns the given value to the non-secure Base Priority register when in secure state.
 501:Generated_Source\PSoC6\pdl\cmsis/include/cmsis_gcc.h ****   \param [in]    basePri  Base Priority value to set
 502:Generated_Source\PSoC6\pdl\cmsis/include/cmsis_gcc.h ****  */
 503:Generated_Source\PSoC6\pdl\cmsis/include/cmsis_gcc.h **** __STATIC_FORCEINLINE void __TZ_set_BASEPRI_NS(uint32_t basePri)
 504:Generated_Source\PSoC6\pdl\cmsis/include/cmsis_gcc.h **** {
 505:Generated_Source\PSoC6\pdl\cmsis/include/cmsis_gcc.h ****   __ASM volatile ("MSR basepri_ns, %0" : : "r" (basePri) : "memory");
 506:Generated_Source\PSoC6\pdl\cmsis/include/cmsis_gcc.h **** }
 507:Generated_Source\PSoC6\pdl\cmsis/include/cmsis_gcc.h **** #endif
 508:Generated_Source\PSoC6\pdl\cmsis/include/cmsis_gcc.h **** 
 509:Generated_Source\PSoC6\pdl\cmsis/include/cmsis_gcc.h **** 
 510:Generated_Source\PSoC6\pdl\cmsis/include/cmsis_gcc.h **** /**
 511:Generated_Source\PSoC6\pdl\cmsis/include/cmsis_gcc.h ****   \brief   Set Base Priority with condition
 512:Generated_Source\PSoC6\pdl\cmsis/include/cmsis_gcc.h ****   \details Assigns the given value to the Base Priority register only if BASEPRI masking is disable
 513:Generated_Source\PSoC6\pdl\cmsis/include/cmsis_gcc.h ****            or the new value increases the BASEPRI priority level.
 514:Generated_Source\PSoC6\pdl\cmsis/include/cmsis_gcc.h ****   \param [in]    basePri  Base Priority value to set
 515:Generated_Source\PSoC6\pdl\cmsis/include/cmsis_gcc.h ****  */
 516:Generated_Source\PSoC6\pdl\cmsis/include/cmsis_gcc.h **** __STATIC_FORCEINLINE void __set_BASEPRI_MAX(uint32_t basePri)
 517:Generated_Source\PSoC6\pdl\cmsis/include/cmsis_gcc.h **** {
 518:Generated_Source\PSoC6\pdl\cmsis/include/cmsis_gcc.h ****   __ASM volatile ("MSR basepri_max, %0" : : "r" (basePri) : "memory");
 519:Generated_Source\PSoC6\pdl\cmsis/include/cmsis_gcc.h **** }
 520:Generated_Source\PSoC6\pdl\cmsis/include/cmsis_gcc.h **** 
 521:Generated_Source\PSoC6\pdl\cmsis/include/cmsis_gcc.h **** 
 522:Generated_Source\PSoC6\pdl\cmsis/include/cmsis_gcc.h **** /**
 523:Generated_Source\PSoC6\pdl\cmsis/include/cmsis_gcc.h ****   \brief   Get Fault Mask
 524:Generated_Source\PSoC6\pdl\cmsis/include/cmsis_gcc.h ****   \details Returns the current value of the Fault Mask register.
 525:Generated_Source\PSoC6\pdl\cmsis/include/cmsis_gcc.h ****   \return               Fault Mask register value
 526:Generated_Source\PSoC6\pdl\cmsis/include/cmsis_gcc.h ****  */
 527:Generated_Source\PSoC6\pdl\cmsis/include/cmsis_gcc.h **** __STATIC_FORCEINLINE uint32_t __get_FAULTMASK(void)
 528:Generated_Source\PSoC6\pdl\cmsis/include/cmsis_gcc.h **** {
 529:Generated_Source\PSoC6\pdl\cmsis/include/cmsis_gcc.h ****   uint32_t result;
 530:Generated_Source\PSoC6\pdl\cmsis/include/cmsis_gcc.h **** 
 531:Generated_Source\PSoC6\pdl\cmsis/include/cmsis_gcc.h ****   __ASM volatile ("MRS %0, faultmask" : "=r" (result) );
 532:Generated_Source\PSoC6\pdl\cmsis/include/cmsis_gcc.h ****   return(result);
 533:Generated_Source\PSoC6\pdl\cmsis/include/cmsis_gcc.h **** }
 534:Generated_Source\PSoC6\pdl\cmsis/include/cmsis_gcc.h **** 
 535:Generated_Source\PSoC6\pdl\cmsis/include/cmsis_gcc.h **** 
 536:Generated_Source\PSoC6\pdl\cmsis/include/cmsis_gcc.h **** #if (defined (__ARM_FEATURE_CMSE ) && (__ARM_FEATURE_CMSE == 3))
 537:Generated_Source\PSoC6\pdl\cmsis/include/cmsis_gcc.h **** /**
 538:Generated_Source\PSoC6\pdl\cmsis/include/cmsis_gcc.h ****   \brief   Get Fault Mask (non-secure)
 539:Generated_Source\PSoC6\pdl\cmsis/include/cmsis_gcc.h ****   \details Returns the current value of the non-secure Fault Mask register when in secure state.
 540:Generated_Source\PSoC6\pdl\cmsis/include/cmsis_gcc.h ****   \return               Fault Mask register value
 541:Generated_Source\PSoC6\pdl\cmsis/include/cmsis_gcc.h ****  */
 542:Generated_Source\PSoC6\pdl\cmsis/include/cmsis_gcc.h **** __STATIC_FORCEINLINE uint32_t __TZ_get_FAULTMASK_NS(void)
 543:Generated_Source\PSoC6\pdl\cmsis/include/cmsis_gcc.h **** {
 544:Generated_Source\PSoC6\pdl\cmsis/include/cmsis_gcc.h ****   uint32_t result;
 545:Generated_Source\PSoC6\pdl\cmsis/include/cmsis_gcc.h **** 
 546:Generated_Source\PSoC6\pdl\cmsis/include/cmsis_gcc.h ****   __ASM volatile ("MRS %0, faultmask_ns" : "=r" (result) );
 547:Generated_Source\PSoC6\pdl\cmsis/include/cmsis_gcc.h ****   return(result);
 548:Generated_Source\PSoC6\pdl\cmsis/include/cmsis_gcc.h **** }
ARM GAS  C:\Users\Rolf\AppData\Local\Temp\ccEjvRQz.s 			page 27


 549:Generated_Source\PSoC6\pdl\cmsis/include/cmsis_gcc.h **** #endif
 550:Generated_Source\PSoC6\pdl\cmsis/include/cmsis_gcc.h **** 
 551:Generated_Source\PSoC6\pdl\cmsis/include/cmsis_gcc.h **** 
 552:Generated_Source\PSoC6\pdl\cmsis/include/cmsis_gcc.h **** /**
 553:Generated_Source\PSoC6\pdl\cmsis/include/cmsis_gcc.h ****   \brief   Set Fault Mask
 554:Generated_Source\PSoC6\pdl\cmsis/include/cmsis_gcc.h ****   \details Assigns the given value to the Fault Mask register.
 555:Generated_Source\PSoC6\pdl\cmsis/include/cmsis_gcc.h ****   \param [in]    faultMask  Fault Mask value to set
 556:Generated_Source\PSoC6\pdl\cmsis/include/cmsis_gcc.h ****  */
 557:Generated_Source\PSoC6\pdl\cmsis/include/cmsis_gcc.h **** __STATIC_FORCEINLINE void __set_FAULTMASK(uint32_t faultMask)
 558:Generated_Source\PSoC6\pdl\cmsis/include/cmsis_gcc.h **** {
 559:Generated_Source\PSoC6\pdl\cmsis/include/cmsis_gcc.h ****   __ASM volatile ("MSR faultmask, %0" : : "r" (faultMask) : "memory");
 560:Generated_Source\PSoC6\pdl\cmsis/include/cmsis_gcc.h **** }
 561:Generated_Source\PSoC6\pdl\cmsis/include/cmsis_gcc.h **** 
 562:Generated_Source\PSoC6\pdl\cmsis/include/cmsis_gcc.h **** 
 563:Generated_Source\PSoC6\pdl\cmsis/include/cmsis_gcc.h **** #if (defined (__ARM_FEATURE_CMSE ) && (__ARM_FEATURE_CMSE == 3))
 564:Generated_Source\PSoC6\pdl\cmsis/include/cmsis_gcc.h **** /**
 565:Generated_Source\PSoC6\pdl\cmsis/include/cmsis_gcc.h ****   \brief   Set Fault Mask (non-secure)
 566:Generated_Source\PSoC6\pdl\cmsis/include/cmsis_gcc.h ****   \details Assigns the given value to the non-secure Fault Mask register when in secure state.
 567:Generated_Source\PSoC6\pdl\cmsis/include/cmsis_gcc.h ****   \param [in]    faultMask  Fault Mask value to set
 568:Generated_Source\PSoC6\pdl\cmsis/include/cmsis_gcc.h ****  */
 569:Generated_Source\PSoC6\pdl\cmsis/include/cmsis_gcc.h **** __STATIC_FORCEINLINE void __TZ_set_FAULTMASK_NS(uint32_t faultMask)
 570:Generated_Source\PSoC6\pdl\cmsis/include/cmsis_gcc.h **** {
 571:Generated_Source\PSoC6\pdl\cmsis/include/cmsis_gcc.h ****   __ASM volatile ("MSR faultmask_ns, %0" : : "r" (faultMask) : "memory");
 572:Generated_Source\PSoC6\pdl\cmsis/include/cmsis_gcc.h **** }
 573:Generated_Source\PSoC6\pdl\cmsis/include/cmsis_gcc.h **** #endif
 574:Generated_Source\PSoC6\pdl\cmsis/include/cmsis_gcc.h **** 
 575:Generated_Source\PSoC6\pdl\cmsis/include/cmsis_gcc.h **** #endif /* ((defined (__ARM_ARCH_7M__      ) && (__ARM_ARCH_7M__      == 1)) || \
 576:Generated_Source\PSoC6\pdl\cmsis/include/cmsis_gcc.h ****            (defined (__ARM_ARCH_7EM__     ) && (__ARM_ARCH_7EM__     == 1)) || \
 577:Generated_Source\PSoC6\pdl\cmsis/include/cmsis_gcc.h ****            (defined (__ARM_ARCH_8M_MAIN__ ) && (__ARM_ARCH_8M_MAIN__ == 1))    ) */
 578:Generated_Source\PSoC6\pdl\cmsis/include/cmsis_gcc.h **** 
 579:Generated_Source\PSoC6\pdl\cmsis/include/cmsis_gcc.h **** 
 580:Generated_Source\PSoC6\pdl\cmsis/include/cmsis_gcc.h **** #if ((defined (__ARM_ARCH_8M_MAIN__ ) && (__ARM_ARCH_8M_MAIN__ == 1)) || \
 581:Generated_Source\PSoC6\pdl\cmsis/include/cmsis_gcc.h ****      (defined (__ARM_ARCH_8M_BASE__ ) && (__ARM_ARCH_8M_BASE__ == 1))    )
 582:Generated_Source\PSoC6\pdl\cmsis/include/cmsis_gcc.h **** 
 583:Generated_Source\PSoC6\pdl\cmsis/include/cmsis_gcc.h **** /**
 584:Generated_Source\PSoC6\pdl\cmsis/include/cmsis_gcc.h ****   \brief   Get Process Stack Pointer Limit
 585:Generated_Source\PSoC6\pdl\cmsis/include/cmsis_gcc.h ****   Devices without ARMv8-M Main Extensions (i.e. Cortex-M23) lack the non-secure
 586:Generated_Source\PSoC6\pdl\cmsis/include/cmsis_gcc.h ****   Stack Pointer Limit register hence zero is returned always in non-secure
 587:Generated_Source\PSoC6\pdl\cmsis/include/cmsis_gcc.h ****   mode.
 588:Generated_Source\PSoC6\pdl\cmsis/include/cmsis_gcc.h ****   
 589:Generated_Source\PSoC6\pdl\cmsis/include/cmsis_gcc.h ****   \details Returns the current value of the Process Stack Pointer Limit (PSPLIM).
 590:Generated_Source\PSoC6\pdl\cmsis/include/cmsis_gcc.h ****   \return               PSPLIM Register value
 591:Generated_Source\PSoC6\pdl\cmsis/include/cmsis_gcc.h ****  */
 592:Generated_Source\PSoC6\pdl\cmsis/include/cmsis_gcc.h **** __STATIC_FORCEINLINE uint32_t __get_PSPLIM(void)
 593:Generated_Source\PSoC6\pdl\cmsis/include/cmsis_gcc.h **** {
 594:Generated_Source\PSoC6\pdl\cmsis/include/cmsis_gcc.h **** #if (!(defined (__ARM_ARCH_8M_MAIN__ ) && (__ARM_ARCH_8M_MAIN__ == 1)) && \
 595:Generated_Source\PSoC6\pdl\cmsis/include/cmsis_gcc.h ****     (!defined (__ARM_FEATURE_CMSE) || (__ARM_FEATURE_CMSE < 3)))
 596:Generated_Source\PSoC6\pdl\cmsis/include/cmsis_gcc.h ****     // without main extensions, the non-secure PSPLIM is RAZ/WI
 597:Generated_Source\PSoC6\pdl\cmsis/include/cmsis_gcc.h ****   return 0U;
 598:Generated_Source\PSoC6\pdl\cmsis/include/cmsis_gcc.h **** #else
 599:Generated_Source\PSoC6\pdl\cmsis/include/cmsis_gcc.h ****   register uint32_t result;
 600:Generated_Source\PSoC6\pdl\cmsis/include/cmsis_gcc.h ****   __ASM volatile ("MRS %0, psplim"  : "=r" (result) );
 601:Generated_Source\PSoC6\pdl\cmsis/include/cmsis_gcc.h ****   return result;
 602:Generated_Source\PSoC6\pdl\cmsis/include/cmsis_gcc.h **** #endif
 603:Generated_Source\PSoC6\pdl\cmsis/include/cmsis_gcc.h **** }
 604:Generated_Source\PSoC6\pdl\cmsis/include/cmsis_gcc.h **** 
 605:Generated_Source\PSoC6\pdl\cmsis/include/cmsis_gcc.h **** #if (defined (__ARM_FEATURE_CMSE) && (__ARM_FEATURE_CMSE == 3))
ARM GAS  C:\Users\Rolf\AppData\Local\Temp\ccEjvRQz.s 			page 28


 606:Generated_Source\PSoC6\pdl\cmsis/include/cmsis_gcc.h **** /**
 607:Generated_Source\PSoC6\pdl\cmsis/include/cmsis_gcc.h ****   \brief   Get Process Stack Pointer Limit (non-secure)
 608:Generated_Source\PSoC6\pdl\cmsis/include/cmsis_gcc.h ****   Devices without ARMv8-M Main Extensions (i.e. Cortex-M23) lack the non-secure
 609:Generated_Source\PSoC6\pdl\cmsis/include/cmsis_gcc.h ****   Stack Pointer Limit register hence zero is returned always.
 610:Generated_Source\PSoC6\pdl\cmsis/include/cmsis_gcc.h **** 
 611:Generated_Source\PSoC6\pdl\cmsis/include/cmsis_gcc.h ****   \details Returns the current value of the non-secure Process Stack Pointer Limit (PSPLIM) when in
 612:Generated_Source\PSoC6\pdl\cmsis/include/cmsis_gcc.h ****   \return               PSPLIM Register value
 613:Generated_Source\PSoC6\pdl\cmsis/include/cmsis_gcc.h ****  */
 614:Generated_Source\PSoC6\pdl\cmsis/include/cmsis_gcc.h **** __STATIC_FORCEINLINE uint32_t __TZ_get_PSPLIM_NS(void)
 615:Generated_Source\PSoC6\pdl\cmsis/include/cmsis_gcc.h **** {
 616:Generated_Source\PSoC6\pdl\cmsis/include/cmsis_gcc.h **** #if (!(defined (__ARM_ARCH_8M_MAIN__ ) && (__ARM_ARCH_8M_MAIN__ == 1)))
 617:Generated_Source\PSoC6\pdl\cmsis/include/cmsis_gcc.h ****   // without main extensions, the non-secure PSPLIM is RAZ/WI
 618:Generated_Source\PSoC6\pdl\cmsis/include/cmsis_gcc.h ****   return 0U;
 619:Generated_Source\PSoC6\pdl\cmsis/include/cmsis_gcc.h **** #else
 620:Generated_Source\PSoC6\pdl\cmsis/include/cmsis_gcc.h ****   register uint32_t result;
 621:Generated_Source\PSoC6\pdl\cmsis/include/cmsis_gcc.h ****   __ASM volatile ("MRS %0, psplim_ns"  : "=r" (result) );
 622:Generated_Source\PSoC6\pdl\cmsis/include/cmsis_gcc.h ****   return result;
 623:Generated_Source\PSoC6\pdl\cmsis/include/cmsis_gcc.h **** #endif
 624:Generated_Source\PSoC6\pdl\cmsis/include/cmsis_gcc.h **** }
 625:Generated_Source\PSoC6\pdl\cmsis/include/cmsis_gcc.h **** #endif
 626:Generated_Source\PSoC6\pdl\cmsis/include/cmsis_gcc.h **** 
 627:Generated_Source\PSoC6\pdl\cmsis/include/cmsis_gcc.h **** 
 628:Generated_Source\PSoC6\pdl\cmsis/include/cmsis_gcc.h **** /**
 629:Generated_Source\PSoC6\pdl\cmsis/include/cmsis_gcc.h ****   \brief   Set Process Stack Pointer Limit
 630:Generated_Source\PSoC6\pdl\cmsis/include/cmsis_gcc.h ****   Devices without ARMv8-M Main Extensions (i.e. Cortex-M23) lack the non-secure
 631:Generated_Source\PSoC6\pdl\cmsis/include/cmsis_gcc.h ****   Stack Pointer Limit register hence the write is silently ignored in non-secure
 632:Generated_Source\PSoC6\pdl\cmsis/include/cmsis_gcc.h ****   mode.
 633:Generated_Source\PSoC6\pdl\cmsis/include/cmsis_gcc.h ****   
 634:Generated_Source\PSoC6\pdl\cmsis/include/cmsis_gcc.h ****   \details Assigns the given value to the Process Stack Pointer Limit (PSPLIM).
 635:Generated_Source\PSoC6\pdl\cmsis/include/cmsis_gcc.h ****   \param [in]    ProcStackPtrLimit  Process Stack Pointer Limit value to set
 636:Generated_Source\PSoC6\pdl\cmsis/include/cmsis_gcc.h ****  */
 637:Generated_Source\PSoC6\pdl\cmsis/include/cmsis_gcc.h **** __STATIC_FORCEINLINE void __set_PSPLIM(uint32_t ProcStackPtrLimit)
 638:Generated_Source\PSoC6\pdl\cmsis/include/cmsis_gcc.h **** {
 639:Generated_Source\PSoC6\pdl\cmsis/include/cmsis_gcc.h **** #if (!(defined (__ARM_ARCH_8M_MAIN__ ) && (__ARM_ARCH_8M_MAIN__ == 1)) && \
 640:Generated_Source\PSoC6\pdl\cmsis/include/cmsis_gcc.h ****     (!defined (__ARM_FEATURE_CMSE) || (__ARM_FEATURE_CMSE < 3)))
 641:Generated_Source\PSoC6\pdl\cmsis/include/cmsis_gcc.h ****   // without main extensions, the non-secure PSPLIM is RAZ/WI
 642:Generated_Source\PSoC6\pdl\cmsis/include/cmsis_gcc.h ****   (void)ProcStackPtrLimit;
 643:Generated_Source\PSoC6\pdl\cmsis/include/cmsis_gcc.h **** #else
 644:Generated_Source\PSoC6\pdl\cmsis/include/cmsis_gcc.h ****   __ASM volatile ("MSR psplim, %0" : : "r" (ProcStackPtrLimit));
 645:Generated_Source\PSoC6\pdl\cmsis/include/cmsis_gcc.h **** #endif
 646:Generated_Source\PSoC6\pdl\cmsis/include/cmsis_gcc.h **** }
 647:Generated_Source\PSoC6\pdl\cmsis/include/cmsis_gcc.h **** 
 648:Generated_Source\PSoC6\pdl\cmsis/include/cmsis_gcc.h **** 
 649:Generated_Source\PSoC6\pdl\cmsis/include/cmsis_gcc.h **** #if (defined (__ARM_FEATURE_CMSE  ) && (__ARM_FEATURE_CMSE   == 3))
 650:Generated_Source\PSoC6\pdl\cmsis/include/cmsis_gcc.h **** /**
 651:Generated_Source\PSoC6\pdl\cmsis/include/cmsis_gcc.h ****   \brief   Set Process Stack Pointer (non-secure)
 652:Generated_Source\PSoC6\pdl\cmsis/include/cmsis_gcc.h ****   Devices without ARMv8-M Main Extensions (i.e. Cortex-M23) lack the non-secure
 653:Generated_Source\PSoC6\pdl\cmsis/include/cmsis_gcc.h ****   Stack Pointer Limit register hence the write is silently ignored.
 654:Generated_Source\PSoC6\pdl\cmsis/include/cmsis_gcc.h **** 
 655:Generated_Source\PSoC6\pdl\cmsis/include/cmsis_gcc.h ****   \details Assigns the given value to the non-secure Process Stack Pointer Limit (PSPLIM) when in s
 656:Generated_Source\PSoC6\pdl\cmsis/include/cmsis_gcc.h ****   \param [in]    ProcStackPtrLimit  Process Stack Pointer Limit value to set
 657:Generated_Source\PSoC6\pdl\cmsis/include/cmsis_gcc.h ****  */
 658:Generated_Source\PSoC6\pdl\cmsis/include/cmsis_gcc.h **** __STATIC_FORCEINLINE void __TZ_set_PSPLIM_NS(uint32_t ProcStackPtrLimit)
 659:Generated_Source\PSoC6\pdl\cmsis/include/cmsis_gcc.h **** {
 660:Generated_Source\PSoC6\pdl\cmsis/include/cmsis_gcc.h **** #if (!(defined (__ARM_ARCH_8M_MAIN__ ) && (__ARM_ARCH_8M_MAIN__ == 1)))
 661:Generated_Source\PSoC6\pdl\cmsis/include/cmsis_gcc.h ****   // without main extensions, the non-secure PSPLIM is RAZ/WI
 662:Generated_Source\PSoC6\pdl\cmsis/include/cmsis_gcc.h ****   (void)ProcStackPtrLimit;
ARM GAS  C:\Users\Rolf\AppData\Local\Temp\ccEjvRQz.s 			page 29


 663:Generated_Source\PSoC6\pdl\cmsis/include/cmsis_gcc.h **** #else
 664:Generated_Source\PSoC6\pdl\cmsis/include/cmsis_gcc.h ****   __ASM volatile ("MSR psplim_ns, %0\n" : : "r" (ProcStackPtrLimit));
 665:Generated_Source\PSoC6\pdl\cmsis/include/cmsis_gcc.h **** #endif
 666:Generated_Source\PSoC6\pdl\cmsis/include/cmsis_gcc.h **** }
 667:Generated_Source\PSoC6\pdl\cmsis/include/cmsis_gcc.h **** #endif
 668:Generated_Source\PSoC6\pdl\cmsis/include/cmsis_gcc.h **** 
 669:Generated_Source\PSoC6\pdl\cmsis/include/cmsis_gcc.h **** 
 670:Generated_Source\PSoC6\pdl\cmsis/include/cmsis_gcc.h **** /**
 671:Generated_Source\PSoC6\pdl\cmsis/include/cmsis_gcc.h ****   \brief   Get Main Stack Pointer Limit
 672:Generated_Source\PSoC6\pdl\cmsis/include/cmsis_gcc.h ****   Devices without ARMv8-M Main Extensions (i.e. Cortex-M23) lack the non-secure
 673:Generated_Source\PSoC6\pdl\cmsis/include/cmsis_gcc.h ****   Stack Pointer Limit register hence zero is returned always in non-secure
 674:Generated_Source\PSoC6\pdl\cmsis/include/cmsis_gcc.h ****   mode.
 675:Generated_Source\PSoC6\pdl\cmsis/include/cmsis_gcc.h **** 
 676:Generated_Source\PSoC6\pdl\cmsis/include/cmsis_gcc.h ****   \details Returns the current value of the Main Stack Pointer Limit (MSPLIM).
 677:Generated_Source\PSoC6\pdl\cmsis/include/cmsis_gcc.h ****   \return               MSPLIM Register value
 678:Generated_Source\PSoC6\pdl\cmsis/include/cmsis_gcc.h ****  */
 679:Generated_Source\PSoC6\pdl\cmsis/include/cmsis_gcc.h **** __STATIC_FORCEINLINE uint32_t __get_MSPLIM(void)
 680:Generated_Source\PSoC6\pdl\cmsis/include/cmsis_gcc.h **** {
 681:Generated_Source\PSoC6\pdl\cmsis/include/cmsis_gcc.h **** #if (!(defined (__ARM_ARCH_8M_MAIN__ ) && (__ARM_ARCH_8M_MAIN__ == 1)) && \
 682:Generated_Source\PSoC6\pdl\cmsis/include/cmsis_gcc.h ****     (!defined (__ARM_FEATURE_CMSE) || (__ARM_FEATURE_CMSE < 3)))
 683:Generated_Source\PSoC6\pdl\cmsis/include/cmsis_gcc.h ****   // without main extensions, the non-secure MSPLIM is RAZ/WI
 684:Generated_Source\PSoC6\pdl\cmsis/include/cmsis_gcc.h ****   return 0U;
 685:Generated_Source\PSoC6\pdl\cmsis/include/cmsis_gcc.h **** #else
 686:Generated_Source\PSoC6\pdl\cmsis/include/cmsis_gcc.h ****   register uint32_t result;
 687:Generated_Source\PSoC6\pdl\cmsis/include/cmsis_gcc.h ****   __ASM volatile ("MRS %0, msplim" : "=r" (result) );
 688:Generated_Source\PSoC6\pdl\cmsis/include/cmsis_gcc.h ****   return result;
 689:Generated_Source\PSoC6\pdl\cmsis/include/cmsis_gcc.h **** #endif
 690:Generated_Source\PSoC6\pdl\cmsis/include/cmsis_gcc.h **** }
 691:Generated_Source\PSoC6\pdl\cmsis/include/cmsis_gcc.h **** 
 692:Generated_Source\PSoC6\pdl\cmsis/include/cmsis_gcc.h **** 
 693:Generated_Source\PSoC6\pdl\cmsis/include/cmsis_gcc.h **** #if (defined (__ARM_FEATURE_CMSE  ) && (__ARM_FEATURE_CMSE   == 3))
 694:Generated_Source\PSoC6\pdl\cmsis/include/cmsis_gcc.h **** /**
 695:Generated_Source\PSoC6\pdl\cmsis/include/cmsis_gcc.h ****   \brief   Get Main Stack Pointer Limit (non-secure)
 696:Generated_Source\PSoC6\pdl\cmsis/include/cmsis_gcc.h ****   Devices without ARMv8-M Main Extensions (i.e. Cortex-M23) lack the non-secure
 697:Generated_Source\PSoC6\pdl\cmsis/include/cmsis_gcc.h ****   Stack Pointer Limit register hence zero is returned always.
 698:Generated_Source\PSoC6\pdl\cmsis/include/cmsis_gcc.h **** 
 699:Generated_Source\PSoC6\pdl\cmsis/include/cmsis_gcc.h ****   \details Returns the current value of the non-secure Main Stack Pointer Limit(MSPLIM) when in sec
 700:Generated_Source\PSoC6\pdl\cmsis/include/cmsis_gcc.h ****   \return               MSPLIM Register value
 701:Generated_Source\PSoC6\pdl\cmsis/include/cmsis_gcc.h ****  */
 702:Generated_Source\PSoC6\pdl\cmsis/include/cmsis_gcc.h **** __STATIC_FORCEINLINE uint32_t __TZ_get_MSPLIM_NS(void)
 703:Generated_Source\PSoC6\pdl\cmsis/include/cmsis_gcc.h **** {
 704:Generated_Source\PSoC6\pdl\cmsis/include/cmsis_gcc.h **** #if (!(defined (__ARM_ARCH_8M_MAIN__ ) && (__ARM_ARCH_8M_MAIN__ == 1)))
 705:Generated_Source\PSoC6\pdl\cmsis/include/cmsis_gcc.h ****   // without main extensions, the non-secure MSPLIM is RAZ/WI
 706:Generated_Source\PSoC6\pdl\cmsis/include/cmsis_gcc.h ****   return 0U;
 707:Generated_Source\PSoC6\pdl\cmsis/include/cmsis_gcc.h **** #else
 708:Generated_Source\PSoC6\pdl\cmsis/include/cmsis_gcc.h ****   register uint32_t result;
 709:Generated_Source\PSoC6\pdl\cmsis/include/cmsis_gcc.h ****   __ASM volatile ("MRS %0, msplim_ns" : "=r" (result) );
 710:Generated_Source\PSoC6\pdl\cmsis/include/cmsis_gcc.h ****   return result;
 711:Generated_Source\PSoC6\pdl\cmsis/include/cmsis_gcc.h **** #endif
 712:Generated_Source\PSoC6\pdl\cmsis/include/cmsis_gcc.h **** }
 713:Generated_Source\PSoC6\pdl\cmsis/include/cmsis_gcc.h **** #endif
 714:Generated_Source\PSoC6\pdl\cmsis/include/cmsis_gcc.h **** 
 715:Generated_Source\PSoC6\pdl\cmsis/include/cmsis_gcc.h **** 
 716:Generated_Source\PSoC6\pdl\cmsis/include/cmsis_gcc.h **** /**
 717:Generated_Source\PSoC6\pdl\cmsis/include/cmsis_gcc.h ****   \brief   Set Main Stack Pointer Limit
 718:Generated_Source\PSoC6\pdl\cmsis/include/cmsis_gcc.h ****   Devices without ARMv8-M Main Extensions (i.e. Cortex-M23) lack the non-secure
 719:Generated_Source\PSoC6\pdl\cmsis/include/cmsis_gcc.h ****   Stack Pointer Limit register hence the write is silently ignored in non-secure
ARM GAS  C:\Users\Rolf\AppData\Local\Temp\ccEjvRQz.s 			page 30


 720:Generated_Source\PSoC6\pdl\cmsis/include/cmsis_gcc.h ****   mode.
 721:Generated_Source\PSoC6\pdl\cmsis/include/cmsis_gcc.h **** 
 722:Generated_Source\PSoC6\pdl\cmsis/include/cmsis_gcc.h ****   \details Assigns the given value to the Main Stack Pointer Limit (MSPLIM).
 723:Generated_Source\PSoC6\pdl\cmsis/include/cmsis_gcc.h ****   \param [in]    MainStackPtrLimit  Main Stack Pointer Limit value to set
 724:Generated_Source\PSoC6\pdl\cmsis/include/cmsis_gcc.h ****  */
 725:Generated_Source\PSoC6\pdl\cmsis/include/cmsis_gcc.h **** __STATIC_FORCEINLINE void __set_MSPLIM(uint32_t MainStackPtrLimit)
 726:Generated_Source\PSoC6\pdl\cmsis/include/cmsis_gcc.h **** {
 727:Generated_Source\PSoC6\pdl\cmsis/include/cmsis_gcc.h **** #if (!(defined (__ARM_ARCH_8M_MAIN__ ) && (__ARM_ARCH_8M_MAIN__ == 1)) && \
 728:Generated_Source\PSoC6\pdl\cmsis/include/cmsis_gcc.h ****     (!defined (__ARM_FEATURE_CMSE) || (__ARM_FEATURE_CMSE < 3)))
 729:Generated_Source\PSoC6\pdl\cmsis/include/cmsis_gcc.h ****   // without main extensions, the non-secure MSPLIM is RAZ/WI
 730:Generated_Source\PSoC6\pdl\cmsis/include/cmsis_gcc.h ****   (void)MainStackPtrLimit;
 731:Generated_Source\PSoC6\pdl\cmsis/include/cmsis_gcc.h **** #else
 732:Generated_Source\PSoC6\pdl\cmsis/include/cmsis_gcc.h ****   __ASM volatile ("MSR msplim, %0" : : "r" (MainStackPtrLimit));
 733:Generated_Source\PSoC6\pdl\cmsis/include/cmsis_gcc.h **** #endif
 734:Generated_Source\PSoC6\pdl\cmsis/include/cmsis_gcc.h **** }
 735:Generated_Source\PSoC6\pdl\cmsis/include/cmsis_gcc.h **** 
 736:Generated_Source\PSoC6\pdl\cmsis/include/cmsis_gcc.h **** 
 737:Generated_Source\PSoC6\pdl\cmsis/include/cmsis_gcc.h **** #if (defined (__ARM_FEATURE_CMSE  ) && (__ARM_FEATURE_CMSE   == 3))
 738:Generated_Source\PSoC6\pdl\cmsis/include/cmsis_gcc.h **** /**
 739:Generated_Source\PSoC6\pdl\cmsis/include/cmsis_gcc.h ****   \brief   Set Main Stack Pointer Limit (non-secure)
 740:Generated_Source\PSoC6\pdl\cmsis/include/cmsis_gcc.h ****   Devices without ARMv8-M Main Extensions (i.e. Cortex-M23) lack the non-secure
 741:Generated_Source\PSoC6\pdl\cmsis/include/cmsis_gcc.h ****   Stack Pointer Limit register hence the write is silently ignored.
 742:Generated_Source\PSoC6\pdl\cmsis/include/cmsis_gcc.h **** 
 743:Generated_Source\PSoC6\pdl\cmsis/include/cmsis_gcc.h ****   \details Assigns the given value to the non-secure Main Stack Pointer Limit (MSPLIM) when in secu
 744:Generated_Source\PSoC6\pdl\cmsis/include/cmsis_gcc.h ****   \param [in]    MainStackPtrLimit  Main Stack Pointer value to set
 745:Generated_Source\PSoC6\pdl\cmsis/include/cmsis_gcc.h ****  */
 746:Generated_Source\PSoC6\pdl\cmsis/include/cmsis_gcc.h **** __STATIC_FORCEINLINE void __TZ_set_MSPLIM_NS(uint32_t MainStackPtrLimit)
 747:Generated_Source\PSoC6\pdl\cmsis/include/cmsis_gcc.h **** {
 748:Generated_Source\PSoC6\pdl\cmsis/include/cmsis_gcc.h **** #if (!(defined (__ARM_ARCH_8M_MAIN__ ) && (__ARM_ARCH_8M_MAIN__ == 1)))
 749:Generated_Source\PSoC6\pdl\cmsis/include/cmsis_gcc.h ****   // without main extensions, the non-secure MSPLIM is RAZ/WI
 750:Generated_Source\PSoC6\pdl\cmsis/include/cmsis_gcc.h ****   (void)MainStackPtrLimit;
 751:Generated_Source\PSoC6\pdl\cmsis/include/cmsis_gcc.h **** #else
 752:Generated_Source\PSoC6\pdl\cmsis/include/cmsis_gcc.h ****   __ASM volatile ("MSR msplim_ns, %0" : : "r" (MainStackPtrLimit));
 753:Generated_Source\PSoC6\pdl\cmsis/include/cmsis_gcc.h **** #endif
 754:Generated_Source\PSoC6\pdl\cmsis/include/cmsis_gcc.h **** }
 755:Generated_Source\PSoC6\pdl\cmsis/include/cmsis_gcc.h **** #endif
 756:Generated_Source\PSoC6\pdl\cmsis/include/cmsis_gcc.h **** 
 757:Generated_Source\PSoC6\pdl\cmsis/include/cmsis_gcc.h **** #endif /* ((defined (__ARM_ARCH_8M_MAIN__ ) && (__ARM_ARCH_8M_MAIN__ == 1)) || \
 758:Generated_Source\PSoC6\pdl\cmsis/include/cmsis_gcc.h ****            (defined (__ARM_ARCH_8M_BASE__ ) && (__ARM_ARCH_8M_BASE__ == 1))    ) */
 759:Generated_Source\PSoC6\pdl\cmsis/include/cmsis_gcc.h **** 
 760:Generated_Source\PSoC6\pdl\cmsis/include/cmsis_gcc.h **** 
 761:Generated_Source\PSoC6\pdl\cmsis/include/cmsis_gcc.h **** #if ((defined (__ARM_ARCH_7EM__     ) && (__ARM_ARCH_7EM__     == 1)) || \
 762:Generated_Source\PSoC6\pdl\cmsis/include/cmsis_gcc.h ****      (defined (__ARM_ARCH_8M_MAIN__ ) && (__ARM_ARCH_8M_MAIN__ == 1))    )
 763:Generated_Source\PSoC6\pdl\cmsis/include/cmsis_gcc.h **** 
 764:Generated_Source\PSoC6\pdl\cmsis/include/cmsis_gcc.h **** /**
 765:Generated_Source\PSoC6\pdl\cmsis/include/cmsis_gcc.h ****   \brief   Get FPSCR
 766:Generated_Source\PSoC6\pdl\cmsis/include/cmsis_gcc.h ****   \details Returns the current value of the Floating Point Status/Control register.
 767:Generated_Source\PSoC6\pdl\cmsis/include/cmsis_gcc.h ****   \return               Floating Point Status/Control register value
 768:Generated_Source\PSoC6\pdl\cmsis/include/cmsis_gcc.h ****  */
 769:Generated_Source\PSoC6\pdl\cmsis/include/cmsis_gcc.h **** __STATIC_FORCEINLINE uint32_t __get_FPSCR(void)
 770:Generated_Source\PSoC6\pdl\cmsis/include/cmsis_gcc.h **** {
 771:Generated_Source\PSoC6\pdl\cmsis/include/cmsis_gcc.h **** #if ((defined (__FPU_PRESENT) && (__FPU_PRESENT == 1U)) && \
 772:Generated_Source\PSoC6\pdl\cmsis/include/cmsis_gcc.h ****      (defined (__FPU_USED   ) && (__FPU_USED    == 1U))     )
 773:Generated_Source\PSoC6\pdl\cmsis/include/cmsis_gcc.h **** #if __has_builtin(__builtin_arm_get_fpscr) || (__GNUC__ > 7) || (__GNUC__ == 7 && __GNUC_MINOR__ >=
 774:Generated_Source\PSoC6\pdl\cmsis/include/cmsis_gcc.h ****   /* see https://gcc.gnu.org/ml/gcc-patches/2017-04/msg00443.html */
 775:Generated_Source\PSoC6\pdl\cmsis/include/cmsis_gcc.h ****   return __builtin_arm_get_fpscr();
 776:Generated_Source\PSoC6\pdl\cmsis/include/cmsis_gcc.h **** #else
ARM GAS  C:\Users\Rolf\AppData\Local\Temp\ccEjvRQz.s 			page 31


 777:Generated_Source\PSoC6\pdl\cmsis/include/cmsis_gcc.h ****   uint32_t result;
 778:Generated_Source\PSoC6\pdl\cmsis/include/cmsis_gcc.h **** 
 779:Generated_Source\PSoC6\pdl\cmsis/include/cmsis_gcc.h ****   __ASM volatile ("VMRS %0, fpscr" : "=r" (result) );
 450              		.loc 2 779 0
 451              		.syntax unified
 452              	@ 779 "Generated_Source\PSoC6\pdl\cmsis/include/cmsis_gcc.h" 1
 453 003a F1EE103A 		VMRS r3, fpscr
 454              	@ 0 "" 2
 455              		.thumb
 456              		.syntax unified
 457              	.LBE5:
 458              	.LBE4:
 421:Generated_Source\PSoC6\pdl\drivers\peripheral\syslib/cy_syslib.c ****             {
 459              		.loc 1 421 0
 460 003e 13F0900F 		tst	r3, #144
 461 0042 27D0     		beq	.L38
 423:Generated_Source\PSoC6\pdl\drivers\peripheral\syslib/cy_syslib.c ****                 cy_faultFrame.s1    = faultStackAddr[CY_S1_Pos];
 462              		.loc 1 423 0
 463 0044 026A     		ldr	r2, [r0, #32]
 464 0046 154B     		ldr	r3, .L40
 465 0048 1A65     		str	r2, [r3, #80]
 424:Generated_Source\PSoC6\pdl\drivers\peripheral\syslib/cy_syslib.c ****                 cy_faultFrame.s2    = faultStackAddr[CY_S2_Pos];
 466              		.loc 1 424 0
 467 004a 426A     		ldr	r2, [r0, #36]
 468 004c 5A65     		str	r2, [r3, #84]
 425:Generated_Source\PSoC6\pdl\drivers\peripheral\syslib/cy_syslib.c ****                 cy_faultFrame.s3    = faultStackAddr[CY_S3_Pos];
 469              		.loc 1 425 0
 470 004e 826A     		ldr	r2, [r0, #40]
 471 0050 9A65     		str	r2, [r3, #88]
 426:Generated_Source\PSoC6\pdl\drivers\peripheral\syslib/cy_syslib.c ****                 cy_faultFrame.s4    = faultStackAddr[CY_S4_Pos];
 472              		.loc 1 426 0
 473 0052 C26A     		ldr	r2, [r0, #44]
 474 0054 DA65     		str	r2, [r3, #92]
 427:Generated_Source\PSoC6\pdl\drivers\peripheral\syslib/cy_syslib.c ****                 cy_faultFrame.s5    = faultStackAddr[CY_S5_Pos];
 475              		.loc 1 427 0
 476 0056 026B     		ldr	r2, [r0, #48]
 477 0058 1A66     		str	r2, [r3, #96]
 428:Generated_Source\PSoC6\pdl\drivers\peripheral\syslib/cy_syslib.c ****                 cy_faultFrame.s6    = faultStackAddr[CY_S6_Pos];
 478              		.loc 1 428 0
 479 005a 426B     		ldr	r2, [r0, #52]
 480 005c 5A66     		str	r2, [r3, #100]
 429:Generated_Source\PSoC6\pdl\drivers\peripheral\syslib/cy_syslib.c ****                 cy_faultFrame.s7    = faultStackAddr[CY_S7_Pos];
 481              		.loc 1 429 0
 482 005e 826B     		ldr	r2, [r0, #56]
 483 0060 9A66     		str	r2, [r3, #104]
 430:Generated_Source\PSoC6\pdl\drivers\peripheral\syslib/cy_syslib.c ****                 cy_faultFrame.s8    = faultStackAddr[CY_S8_Pos];
 484              		.loc 1 430 0
 485 0062 C26B     		ldr	r2, [r0, #60]
 486 0064 DA66     		str	r2, [r3, #108]
 431:Generated_Source\PSoC6\pdl\drivers\peripheral\syslib/cy_syslib.c ****                 cy_faultFrame.s9    = faultStackAddr[CY_S9_Pos];
 487              		.loc 1 431 0
 488 0066 026C     		ldr	r2, [r0, #64]
 489 0068 1A67     		str	r2, [r3, #112]
 432:Generated_Source\PSoC6\pdl\drivers\peripheral\syslib/cy_syslib.c ****                 cy_faultFrame.s10   = faultStackAddr[CY_S10_Pos];
 490              		.loc 1 432 0
 491 006a 426C     		ldr	r2, [r0, #68]
 492 006c 5A67     		str	r2, [r3, #116]
ARM GAS  C:\Users\Rolf\AppData\Local\Temp\ccEjvRQz.s 			page 32


 433:Generated_Source\PSoC6\pdl\drivers\peripheral\syslib/cy_syslib.c ****                 cy_faultFrame.s11   = faultStackAddr[CY_S11_Pos];
 493              		.loc 1 433 0
 494 006e 826C     		ldr	r2, [r0, #72]
 495 0070 9A67     		str	r2, [r3, #120]
 434:Generated_Source\PSoC6\pdl\drivers\peripheral\syslib/cy_syslib.c ****                 cy_faultFrame.s12   = faultStackAddr[CY_S12_Pos];
 496              		.loc 1 434 0
 497 0072 C26C     		ldr	r2, [r0, #76]
 498 0074 DA67     		str	r2, [r3, #124]
 435:Generated_Source\PSoC6\pdl\drivers\peripheral\syslib/cy_syslib.c ****                 cy_faultFrame.s13   = faultStackAddr[CY_S13_Pos];
 499              		.loc 1 435 0
 500 0076 026D     		ldr	r2, [r0, #80]
 501 0078 C3F88020 		str	r2, [r3, #128]
 436:Generated_Source\PSoC6\pdl\drivers\peripheral\syslib/cy_syslib.c ****                 cy_faultFrame.s14   = faultStackAddr[CY_S14_Pos];
 502              		.loc 1 436 0
 503 007c 426D     		ldr	r2, [r0, #84]
 504 007e C3F88420 		str	r2, [r3, #132]
 437:Generated_Source\PSoC6\pdl\drivers\peripheral\syslib/cy_syslib.c ****                 cy_faultFrame.s15   = faultStackAddr[CY_S15_Pos];
 505              		.loc 1 437 0
 506 0082 826D     		ldr	r2, [r0, #88]
 507 0084 C3F88820 		str	r2, [r3, #136]
 438:Generated_Source\PSoC6\pdl\drivers\peripheral\syslib/cy_syslib.c ****                 cy_faultFrame.fpscr = faultStackAddr[CY_FPSCR_Pos];
 508              		.loc 1 438 0
 509 0088 C26D     		ldr	r2, [r0, #92]
 510 008a C3F88C20 		str	r2, [r3, #140]
 439:Generated_Source\PSoC6\pdl\drivers\peripheral\syslib/cy_syslib.c ****             }
 511              		.loc 1 439 0
 512 008e 026E     		ldr	r2, [r0, #96]
 513 0090 C3F89020 		str	r2, [r3, #144]
 514              	.L38:
 444:Generated_Source\PSoC6\pdl\drivers\peripheral\syslib/cy_syslib.c **** }
 515              		.loc 1 444 0
 516 0094 FFF7FEFF 		bl	Cy_SysLib_ProcessingFault
 517              	.LVL21:
 518 0098 08BD     		pop	{r3, pc}
 519              	.L41:
 520 009a 00BF     		.align	2
 521              	.L40:
 522 009c 00000000 		.word	.LANCHOR0
 523 00a0 00ED00E0 		.word	-536810240
 524              		.cfi_endproc
 525              	.LFE160:
 526              		.size	Cy_SysLib_FaultHandler, .-Cy_SysLib_FaultHandler
 527              		.section	.text.Cy_SysLib_SetWaitStates,"ax",%progbits
 528              		.align	2
 529              		.global	Cy_SysLib_SetWaitStates
 530              		.thumb
 531              		.thumb_func
 532              		.type	Cy_SysLib_SetWaitStates, %function
 533              	Cy_SysLib_SetWaitStates:
 534              	.LFB162:
 464:Generated_Source\PSoC6\pdl\drivers\peripheral\syslib/cy_syslib.c ****     #if defined(__ARMCC_VERSION)
 465:Generated_Source\PSoC6\pdl\drivers\peripheral\syslib/cy_syslib.c ****         /* Assembly implementation of an infinite loop
 466:Generated_Source\PSoC6\pdl\drivers\peripheral\syslib/cy_syslib.c ****          * is used for the armcc compiler to preserve the call stack.
 467:Generated_Source\PSoC6\pdl\drivers\peripheral\syslib/cy_syslib.c ****          * Otherwise, the compiler destroys the call stack,
 468:Generated_Source\PSoC6\pdl\drivers\peripheral\syslib/cy_syslib.c ****          * because treats this API as a no return function.
 469:Generated_Source\PSoC6\pdl\drivers\peripheral\syslib/cy_syslib.c ****          */
 470:Generated_Source\PSoC6\pdl\drivers\peripheral\syslib/cy_syslib.c ****         Cy_SysLib_AsmInfiniteLoop();
ARM GAS  C:\Users\Rolf\AppData\Local\Temp\ccEjvRQz.s 			page 33


 471:Generated_Source\PSoC6\pdl\drivers\peripheral\syslib/cy_syslib.c ****     #else
 472:Generated_Source\PSoC6\pdl\drivers\peripheral\syslib/cy_syslib.c ****         while(1) {}
 473:Generated_Source\PSoC6\pdl\drivers\peripheral\syslib/cy_syslib.c ****     #endif  /* (__ARMCC_VERSION) */
 474:Generated_Source\PSoC6\pdl\drivers\peripheral\syslib/cy_syslib.c **** }
 475:Generated_Source\PSoC6\pdl\drivers\peripheral\syslib/cy_syslib.c **** #endif /* (CY_ARM_FAULT_DEBUG == CY_ARM_FAULT_DEBUG_ENABLED) || defined(CY_DOXYGEN) */
 476:Generated_Source\PSoC6\pdl\drivers\peripheral\syslib/cy_syslib.c **** 
 477:Generated_Source\PSoC6\pdl\drivers\peripheral\syslib/cy_syslib.c **** 
 478:Generated_Source\PSoC6\pdl\drivers\peripheral\syslib/cy_syslib.c **** /*******************************************************************************
 479:Generated_Source\PSoC6\pdl\drivers\peripheral\syslib/cy_syslib.c **** * Function Name: Cy_SysLib_SetWaitStates
 480:Generated_Source\PSoC6\pdl\drivers\peripheral\syslib/cy_syslib.c **** ****************************************************************************//**
 481:Generated_Source\PSoC6\pdl\drivers\peripheral\syslib/cy_syslib.c **** *
 482:Generated_Source\PSoC6\pdl\drivers\peripheral\syslib/cy_syslib.c **** * Sets the number of clock cycles the cache will wait for, before it samples
 483:Generated_Source\PSoC6\pdl\drivers\peripheral\syslib/cy_syslib.c **** * data coming back from ROM, SRAM, and Flash.
 484:Generated_Source\PSoC6\pdl\drivers\peripheral\syslib/cy_syslib.c **** *
 485:Generated_Source\PSoC6\pdl\drivers\peripheral\syslib/cy_syslib.c **** * Call this function before increasing the HFClk0 High Frequency clock.
 486:Generated_Source\PSoC6\pdl\drivers\peripheral\syslib/cy_syslib.c **** * Call this function optionally after lowering the HFClk0 High Frequency clock
 487:Generated_Source\PSoC6\pdl\drivers\peripheral\syslib/cy_syslib.c **** * in order to improve the CPU performance.
 488:Generated_Source\PSoC6\pdl\drivers\peripheral\syslib/cy_syslib.c **** *
 489:Generated_Source\PSoC6\pdl\drivers\peripheral\syslib/cy_syslib.c **** * Also, call this function before switching the core supply regulator voltage
 490:Generated_Source\PSoC6\pdl\drivers\peripheral\syslib/cy_syslib.c **** * (LDO or SIMO Buck) from 1.1V to 0.9V.
 491:Generated_Source\PSoC6\pdl\drivers\peripheral\syslib/cy_syslib.c **** * Call this function optionally after switching the core supply regulator
 492:Generated_Source\PSoC6\pdl\drivers\peripheral\syslib/cy_syslib.c **** * voltage from 0.9V to 1.1V in order to improve the CPU performance.
 493:Generated_Source\PSoC6\pdl\drivers\peripheral\syslib/cy_syslib.c **** *
 494:Generated_Source\PSoC6\pdl\drivers\peripheral\syslib/cy_syslib.c **** * \param ulpMode  The device power mode.
 495:Generated_Source\PSoC6\pdl\drivers\peripheral\syslib/cy_syslib.c **** *        true  if the device should be switched to the ULP mode (nominal
 496:Generated_Source\PSoC6\pdl\drivers\peripheral\syslib/cy_syslib.c **** *              voltage of the core supply regulator should be switched to 0.9V);
 497:Generated_Source\PSoC6\pdl\drivers\peripheral\syslib/cy_syslib.c **** *        false if the device should be switched to the LP mode (nominal
 498:Generated_Source\PSoC6\pdl\drivers\peripheral\syslib/cy_syslib.c **** *              voltage of the core supply regulator should be switched to 1.1V).
 499:Generated_Source\PSoC6\pdl\drivers\peripheral\syslib/cy_syslib.c **** *
 500:Generated_Source\PSoC6\pdl\drivers\peripheral\syslib/cy_syslib.c **** * \note Refer to the device TRM for the low power modes description.
 501:Generated_Source\PSoC6\pdl\drivers\peripheral\syslib/cy_syslib.c **** *
 502:Generated_Source\PSoC6\pdl\drivers\peripheral\syslib/cy_syslib.c **** * \param clkHfMHz  The HFClk0 clock frequency in MHz. Specifying a frequency
 503:Generated_Source\PSoC6\pdl\drivers\peripheral\syslib/cy_syslib.c **** *                  above the supported maximum will set the wait states as for
 504:Generated_Source\PSoC6\pdl\drivers\peripheral\syslib/cy_syslib.c **** *                  the maximum frequency.
 505:Generated_Source\PSoC6\pdl\drivers\peripheral\syslib/cy_syslib.c **** *
 506:Generated_Source\PSoC6\pdl\drivers\peripheral\syslib/cy_syslib.c **** *******************************************************************************/
 507:Generated_Source\PSoC6\pdl\drivers\peripheral\syslib/cy_syslib.c **** void Cy_SysLib_SetWaitStates(bool ulpMode, uint32_t clkHfMHz)
 508:Generated_Source\PSoC6\pdl\drivers\peripheral\syslib/cy_syslib.c **** {
 535              		.loc 1 508 0
 536              		.cfi_startproc
 537              		@ args = 0, pretend = 0, frame = 0
 538              		@ frame_needed = 0, uses_anonymous_args = 0
 539              		@ link register save eliminated.
 540              	.LVL22:
 541 0000 F0B4     		push	{r4, r5, r6, r7}
 542              		.cfi_def_cfa_offset 16
 543              		.cfi_offset 4, -16
 544              		.cfi_offset 5, -12
 545              		.cfi_offset 6, -8
 546              		.cfi_offset 7, -4
 509:Generated_Source\PSoC6\pdl\drivers\peripheral\syslib/cy_syslib.c ****     uint32_t waitStates;
 510:Generated_Source\PSoC6\pdl\drivers\peripheral\syslib/cy_syslib.c ****     uint32_t freqMax;
 511:Generated_Source\PSoC6\pdl\drivers\peripheral\syslib/cy_syslib.c **** 
 512:Generated_Source\PSoC6\pdl\drivers\peripheral\syslib/cy_syslib.c ****     freqMax = ulpMode ? CY_SYSLIB_ULP_SLOW_WS_0_FREQ_MAX : CY_SYSLIB_LP_SLOW_WS_0_FREQ_MAX;
 547              		.loc 1 512 0
 548 0002 0546     		mov	r5, r0
 549 0004 08B1     		cbz	r0, .L46
ARM GAS  C:\Users\Rolf\AppData\Local\Temp\ccEjvRQz.s 			page 34


 550 0006 1923     		movs	r3, #25
 551 0008 00E0     		b	.L43
 552              	.L46:
 553 000a 6423     		movs	r3, #100
 554              	.L43:
 555              	.LVL23:
 513:Generated_Source\PSoC6\pdl\drivers\peripheral\syslib/cy_syslib.c ****     waitStates = (clkHfMHz <= freqMax) ? 0UL : 1UL;
 514:Generated_Source\PSoC6\pdl\drivers\peripheral\syslib/cy_syslib.c **** 
 515:Generated_Source\PSoC6\pdl\drivers\peripheral\syslib/cy_syslib.c ****     /* ROM */
 516:Generated_Source\PSoC6\pdl\drivers\peripheral\syslib/cy_syslib.c ****     CPUSS_ROM_CTL = _CLR_SET_FLD32U(CPUSS_ROM_CTL, CPUSS_ROM_CTL_SLOW_WS, waitStates);
 556              		.loc 1 516 0 discriminator 4
 557 000c 2E48     		ldr	r0, .L55
 558              	.LVL24:
 559 000e 0268     		ldr	r2, [r0]
 560 0010 1668     		ldr	r6, [r2]
 561 0012 B2F8A870 		ldrh	r7, [r2, #168]
 562 0016 BA59     		ldr	r2, [r7, r6]
 563 0018 22F00302 		bic	r2, r2, #3
 564 001c 8B42     		cmp	r3, r1
 565 001e 2CBF     		ite	cs
 566 0020 0024     		movcs	r4, #0
 567 0022 0124     		movcc	r4, #1
 568 0024 2243     		orrs	r2, r2, r4
 569 0026 BA51     		str	r2, [r7, r6]
 517:Generated_Source\PSoC6\pdl\drivers\peripheral\syslib/cy_syslib.c ****     CPUSS_ROM_CTL = _CLR_SET_FLD32U(CPUSS_ROM_CTL, CPUSS_ROM_CTL_FAST_WS, 0UL);
 570              		.loc 1 517 0 discriminator 4
 571 0028 0368     		ldr	r3, [r0]
 572              	.LVL25:
 573 002a 1A68     		ldr	r2, [r3]
 574 002c B3F8A860 		ldrh	r6, [r3, #168]
 575 0030 B358     		ldr	r3, [r6, r2]
 576 0032 23F44073 		bic	r3, r3, #768
 577 0036 B350     		str	r3, [r6, r2]
 518:Generated_Source\PSoC6\pdl\drivers\peripheral\syslib/cy_syslib.c **** 
 519:Generated_Source\PSoC6\pdl\drivers\peripheral\syslib/cy_syslib.c ****     /* SRAM */
 520:Generated_Source\PSoC6\pdl\drivers\peripheral\syslib/cy_syslib.c ****     CPUSS_RAM0_CTL0 = _CLR_SET_FLD32U(CPUSS_RAM0_CTL0, CPUSS_RAM0_CTL0_SLOW_WS, waitStates);
 578              		.loc 1 520 0 discriminator 4
 579 0038 0368     		ldr	r3, [r0]
 580 003a 1A68     		ldr	r2, [r3]
 581 003c B3F8AA60 		ldrh	r6, [r3, #170]
 582 0040 B358     		ldr	r3, [r6, r2]
 583 0042 23F00303 		bic	r3, r3, #3
 584 0046 2343     		orrs	r3, r3, r4
 585 0048 B350     		str	r3, [r6, r2]
 521:Generated_Source\PSoC6\pdl\drivers\peripheral\syslib/cy_syslib.c ****     CPUSS_RAM0_CTL0 = _CLR_SET_FLD32U(CPUSS_RAM0_CTL0, CPUSS_RAM0_CTL0_FAST_WS, 0UL);
 586              		.loc 1 521 0 discriminator 4
 587 004a 0368     		ldr	r3, [r0]
 588 004c 1A68     		ldr	r2, [r3]
 589 004e B3F8AA00 		ldrh	r0, [r3, #170]
 590 0052 8358     		ldr	r3, [r0, r2]
 591 0054 23F44073 		bic	r3, r3, #768
 592 0058 8350     		str	r3, [r0, r2]
 522:Generated_Source\PSoC6\pdl\drivers\peripheral\syslib/cy_syslib.c ****     #if defined (RAMC1_PRESENT) && (RAMC1_PRESENT == 1UL)
 523:Generated_Source\PSoC6\pdl\drivers\peripheral\syslib/cy_syslib.c ****         CPUSS_RAM1_CTL0 = _CLR_SET_FLD32U(CPUSS_RAM1_CTL0, CPUSS_RAM1_CTL0_SLOW_WS, waitStates);
 524:Generated_Source\PSoC6\pdl\drivers\peripheral\syslib/cy_syslib.c ****         CPUSS_RAM1_CTL0 = _CLR_SET_FLD32U(CPUSS_RAM1_CTL0, CPUSS_RAM1_CTL0_FAST_WS, 0UL);
 525:Generated_Source\PSoC6\pdl\drivers\peripheral\syslib/cy_syslib.c ****     #endif /* defined (RAMC1_PRESENT) && (RAMC1_PRESENT == 1UL) */
 526:Generated_Source\PSoC6\pdl\drivers\peripheral\syslib/cy_syslib.c ****     #if defined (RAMC2_PRESENT) && (RAMC2_PRESENT == 1UL)
ARM GAS  C:\Users\Rolf\AppData\Local\Temp\ccEjvRQz.s 			page 35


 527:Generated_Source\PSoC6\pdl\drivers\peripheral\syslib/cy_syslib.c ****         CPUSS_RAM2_CTL0 = _CLR_SET_FLD32U(CPUSS_RAM2_CTL0, CPUSS_RAM2_CTL0_SLOW_WS, waitStates);
 528:Generated_Source\PSoC6\pdl\drivers\peripheral\syslib/cy_syslib.c ****         CPUSS_RAM2_CTL0 = _CLR_SET_FLD32U(CPUSS_RAM2_CTL0, CPUSS_RAM2_CTL0_FAST_WS, 0UL);
 529:Generated_Source\PSoC6\pdl\drivers\peripheral\syslib/cy_syslib.c ****     #endif /* defined (RAMC2_PRESENT) && (RAMC2_PRESENT == 1UL) */
 530:Generated_Source\PSoC6\pdl\drivers\peripheral\syslib/cy_syslib.c **** 
 531:Generated_Source\PSoC6\pdl\drivers\peripheral\syslib/cy_syslib.c ****     /* Flash */
 532:Generated_Source\PSoC6\pdl\drivers\peripheral\syslib/cy_syslib.c ****     if (ulpMode)
 593              		.loc 1 532 0 discriminator 4
 594 005a 2DB1     		cbz	r5, .L44
 533:Generated_Source\PSoC6\pdl\drivers\peripheral\syslib/cy_syslib.c ****     {
 534:Generated_Source\PSoC6\pdl\drivers\peripheral\syslib/cy_syslib.c ****         waitStates =  (clkHfMHz <= CY_SYSLIB_FLASH_ULP_WS_0_FREQ_MAX) ? 0UL :
 595              		.loc 1 534 0
 596 005c 1029     		cmp	r1, #16
 597 005e 1BD9     		bls	.L47
 535:Generated_Source\PSoC6\pdl\drivers\peripheral\syslib/cy_syslib.c ****                      ((clkHfMHz <= CY_SYSLIB_FLASH_ULP_WS_1_FREQ_MAX) ? 1UL : 2UL);
 598              		.loc 1 535 0
 599 0060 2129     		cmp	r1, #33
 600 0062 1BD8     		bhi	.L48
 601 0064 0121     		movs	r1, #1
 602              	.LVL26:
 603 0066 24E0     		b	.L45
 604              	.LVL27:
 605              	.L44:
 536:Generated_Source\PSoC6\pdl\drivers\peripheral\syslib/cy_syslib.c ****     }
 537:Generated_Source\PSoC6\pdl\drivers\peripheral\syslib/cy_syslib.c ****     else
 538:Generated_Source\PSoC6\pdl\drivers\peripheral\syslib/cy_syslib.c ****     {
 539:Generated_Source\PSoC6\pdl\drivers\peripheral\syslib/cy_syslib.c ****         waitStates =  (clkHfMHz <= cy_device->flashCtlMainWs0Freq) ? 0UL :
 606              		.loc 1 539 0
 607 0068 174B     		ldr	r3, .L55
 608 006a 1B68     		ldr	r3, [r3]
 609 006c 93F85520 		ldrb	r2, [r3, #85]	@ zero_extendqisi2
 610 0070 9142     		cmp	r1, r2
 611 0072 15D9     		bls	.L49
 540:Generated_Source\PSoC6\pdl\drivers\peripheral\syslib/cy_syslib.c ****                      ((clkHfMHz <= cy_device->flashCtlMainWs1Freq) ? 1UL :
 612              		.loc 1 540 0
 613 0074 93F85620 		ldrb	r2, [r3, #86]	@ zero_extendqisi2
 614 0078 9142     		cmp	r1, r2
 615 007a 13D9     		bls	.L50
 541:Generated_Source\PSoC6\pdl\drivers\peripheral\syslib/cy_syslib.c ****                      ((clkHfMHz <= cy_device->flashCtlMainWs2Freq) ? 2UL :
 616              		.loc 1 541 0
 617 007c 93F85720 		ldrb	r2, [r3, #87]	@ zero_extendqisi2
 618 0080 9142     		cmp	r1, r2
 619 0082 11D9     		bls	.L51
 542:Generated_Source\PSoC6\pdl\drivers\peripheral\syslib/cy_syslib.c ****                      ((clkHfMHz <= cy_device->flashCtlMainWs3Freq) ? 3UL : 
 620              		.loc 1 542 0
 621 0084 93F85820 		ldrb	r2, [r3, #88]	@ zero_extendqisi2
 622 0088 9142     		cmp	r1, r2
 623 008a 0FD9     		bls	.L52
 543:Generated_Source\PSoC6\pdl\drivers\peripheral\syslib/cy_syslib.c ****                      ((clkHfMHz <= cy_device->flashCtlMainWs4Freq) ? 4UL : 5UL))));
 624              		.loc 1 543 0
 625 008c 93F85930 		ldrb	r3, [r3, #89]	@ zero_extendqisi2
 626 0090 9942     		cmp	r1, r3
 627 0092 0DD8     		bhi	.L53
 628 0094 0421     		movs	r1, #4
 629              	.LVL28:
 630 0096 0CE0     		b	.L45
 631              	.LVL29:
 632              	.L47:
ARM GAS  C:\Users\Rolf\AppData\Local\Temp\ccEjvRQz.s 			page 36


 534:Generated_Source\PSoC6\pdl\drivers\peripheral\syslib/cy_syslib.c ****                      ((clkHfMHz <= CY_SYSLIB_FLASH_ULP_WS_1_FREQ_MAX) ? 1UL : 2UL);
 633              		.loc 1 534 0
 634 0098 0021     		movs	r1, #0
 635              	.LVL30:
 636 009a 0AE0     		b	.L45
 637              	.LVL31:
 638              	.L48:
 535:Generated_Source\PSoC6\pdl\drivers\peripheral\syslib/cy_syslib.c ****     }
 639              		.loc 1 535 0
 640 009c 0221     		movs	r1, #2
 641              	.LVL32:
 642 009e 08E0     		b	.L45
 643              	.LVL33:
 644              	.L49:
 539:Generated_Source\PSoC6\pdl\drivers\peripheral\syslib/cy_syslib.c ****                      ((clkHfMHz <= cy_device->flashCtlMainWs1Freq) ? 1UL :
 645              		.loc 1 539 0
 646 00a0 0021     		movs	r1, #0
 647              	.LVL34:
 648 00a2 06E0     		b	.L45
 649              	.LVL35:
 650              	.L50:
 540:Generated_Source\PSoC6\pdl\drivers\peripheral\syslib/cy_syslib.c ****                      ((clkHfMHz <= cy_device->flashCtlMainWs2Freq) ? 2UL :
 651              		.loc 1 540 0
 652 00a4 0121     		movs	r1, #1
 653              	.LVL36:
 654 00a6 04E0     		b	.L45
 655              	.LVL37:
 656              	.L51:
 541:Generated_Source\PSoC6\pdl\drivers\peripheral\syslib/cy_syslib.c ****                      ((clkHfMHz <= cy_device->flashCtlMainWs3Freq) ? 3UL : 
 657              		.loc 1 541 0
 658 00a8 0221     		movs	r1, #2
 659              	.LVL38:
 660 00aa 02E0     		b	.L45
 661              	.LVL39:
 662              	.L52:
 542:Generated_Source\PSoC6\pdl\drivers\peripheral\syslib/cy_syslib.c ****                      ((clkHfMHz <= cy_device->flashCtlMainWs4Freq) ? 4UL : 5UL))));
 663              		.loc 1 542 0
 664 00ac 0321     		movs	r1, #3
 665              	.LVL40:
 666 00ae 00E0     		b	.L45
 667              	.LVL41:
 668              	.L53:
 669              		.loc 1 543 0
 670 00b0 0521     		movs	r1, #5
 671              	.LVL42:
 672              	.L45:
 544:Generated_Source\PSoC6\pdl\drivers\peripheral\syslib/cy_syslib.c ****     }
 545:Generated_Source\PSoC6\pdl\drivers\peripheral\syslib/cy_syslib.c **** 
 546:Generated_Source\PSoC6\pdl\drivers\peripheral\syslib/cy_syslib.c ****     FLASHC_FLASH_CTL = _CLR_SET_FLD32U(FLASHC_FLASH_CTL, FLASHC_FLASH_CTL_MAIN_WS, waitStates);
 673              		.loc 1 546 0
 674 00b2 054A     		ldr	r2, .L55
 675 00b4 1268     		ldr	r2, [r2]
 676 00b6 5268     		ldr	r2, [r2, #4]
 677 00b8 1368     		ldr	r3, [r2]
 678 00ba 23F00F03 		bic	r3, r3, #15
 679 00be 0B43     		orrs	r3, r3, r1
 680 00c0 1360     		str	r3, [r2]
ARM GAS  C:\Users\Rolf\AppData\Local\Temp\ccEjvRQz.s 			page 37


 547:Generated_Source\PSoC6\pdl\drivers\peripheral\syslib/cy_syslib.c **** }
 681              		.loc 1 547 0
 682 00c2 F0BC     		pop	{r4, r5, r6, r7}
 683              		.cfi_restore 7
 684              		.cfi_restore 6
 685              		.cfi_restore 5
 686              		.cfi_restore 4
 687              		.cfi_def_cfa_offset 0
 688 00c4 7047     		bx	lr
 689              	.L56:
 690 00c6 00BF     		.align	2
 691              	.L55:
 692 00c8 00000000 		.word	cy_device
 693              		.cfi_endproc
 694              	.LFE162:
 695              		.size	Cy_SysLib_SetWaitStates, .-Cy_SysLib_SetWaitStates
 696              		.global	cy_faultFrame
 697              		.global	cy_assertLine
 698              		.global	cy_assertFileName
 699              		.section	.noinit,"aw",%progbits
 700              		.align	2
 701              		.set	.LANCHOR0,. + 0
 702              		.type	cy_assertFileName, %object
 703              		.size	cy_assertFileName, 24
 704              	cy_assertFileName:
 705 0000 00000000 		.space	24
 705      00000000 
 705      00000000 
 705      00000000 
 705      00000000 
 706              		.type	cy_assertLine, %object
 707              		.size	cy_assertLine, 4
 708              	cy_assertLine:
 709 0018 00000000 		.space	4
 710              		.type	cy_faultFrame, %object
 711              		.size	cy_faultFrame, 120
 712              	cy_faultFrame:
 713 001c 00000000 		.space	120
 713      00000000 
 713      00000000 
 713      00000000 
 713      00000000 
 714              		.text
 715              	.Letext0:
 716              		.file 3 "c:\\program files (x86)\\cypress\\psoc creator\\4.4\\4.4\\psoc creator\\import\\gnu\\arm\
 717              		.file 4 "c:\\program files (x86)\\cypress\\psoc creator\\4.4\\4.4\\psoc creator\\import\\gnu\\arm\
 718              		.file 5 "Generated_Source\\PSoC6\\pdl\\devices/psoc6/include/ip/cyip_flashc.h"
 719              		.file 6 "Generated_Source\\PSoC6\\pdl\\devices/psoc6/include/ip/cyip_sflash.h"
 720              		.file 7 "Generated_Source\\PSoC6\\pdl\\devices/psoc6/include/ip/cyip_srss.h"
 721              		.file 8 "Generated_Source\\PSoC6\\pdl\\devices/psoc6/include/ip/cyip_backup.h"
 722              		.file 9 "Generated_Source\\PSoC6\\pdl\\drivers/peripheral/device/cy_device.h"
 723              		.file 10 "Generated_Source\\PSoC6\\pdl\\cmsis/include/core_cm4.h"
 724              		.file 11 "Generated_Source\\PSoC6\\pdl\\devices/psoc6/include/psoc6_01_config.h"
 725              		.file 12 "Generated_Source\\PSoC6\\pdl\\drivers\\peripheral\\syslib\\cy_syslib.h"
 726              		.file 13 "./system_psoc6.h"
 727              		.file 14 "c:\\program files (x86)\\cypress\\psoc creator\\4.4\\4.4\\psoc creator\\import\\gnu\\arm
 728              		.section	.debug_info,"",%progbits
ARM GAS  C:\Users\Rolf\AppData\Local\Temp\ccEjvRQz.s 			page 38


 729              	.Ldebug_info0:
 730 0000 F6240000 		.4byte	0x24f6
 731 0004 0400     		.2byte	0x4
 732 0006 00000000 		.4byte	.Ldebug_abbrev0
 733 000a 04       		.byte	0x4
 734 000b 01       		.uleb128 0x1
 735 000c 0D0C0000 		.4byte	.LASF497
 736 0010 0C       		.byte	0xc
 737 0011 DB010000 		.4byte	.LASF498
 738 0015 DD100000 		.4byte	.LASF499
 739 0019 00000000 		.4byte	.Ldebug_ranges0+0
 740 001d 00000000 		.4byte	0
 741 0021 00000000 		.4byte	.Ldebug_line0
 742 0025 02       		.uleb128 0x2
 743 0026 01       		.byte	0x1
 744 0027 06       		.byte	0x6
 745 0028 88040000 		.4byte	.LASF0
 746 002c 03       		.uleb128 0x3
 747 002d 18030000 		.4byte	.LASF2
 748 0031 03       		.byte	0x3
 749 0032 1D       		.byte	0x1d
 750 0033 37000000 		.4byte	0x37
 751 0037 02       		.uleb128 0x2
 752 0038 01       		.byte	0x1
 753 0039 08       		.byte	0x8
 754 003a 15000000 		.4byte	.LASF1
 755 003e 03       		.uleb128 0x3
 756 003f F8150000 		.4byte	.LASF3
 757 0043 03       		.byte	0x3
 758 0044 29       		.byte	0x29
 759 0045 49000000 		.4byte	0x49
 760 0049 02       		.uleb128 0x2
 761 004a 02       		.byte	0x2
 762 004b 05       		.byte	0x5
 763 004c 9E170000 		.4byte	.LASF4
 764 0050 03       		.uleb128 0x3
 765 0051 E3070000 		.4byte	.LASF5
 766 0055 03       		.byte	0x3
 767 0056 2B       		.byte	0x2b
 768 0057 5B000000 		.4byte	0x5b
 769 005b 02       		.uleb128 0x2
 770 005c 02       		.byte	0x2
 771 005d 07       		.byte	0x7
 772 005e 351B0000 		.4byte	.LASF6
 773 0062 03       		.uleb128 0x3
 774 0063 CF160000 		.4byte	.LASF7
 775 0067 03       		.byte	0x3
 776 0068 3F       		.byte	0x3f
 777 0069 6D000000 		.4byte	0x6d
 778 006d 02       		.uleb128 0x2
 779 006e 04       		.byte	0x4
 780 006f 05       		.byte	0x5
 781 0070 6D030000 		.4byte	.LASF8
 782 0074 03       		.uleb128 0x3
 783 0075 7C0B0000 		.4byte	.LASF9
 784 0079 03       		.byte	0x3
 785 007a 41       		.byte	0x41
ARM GAS  C:\Users\Rolf\AppData\Local\Temp\ccEjvRQz.s 			page 39


 786 007b 7F000000 		.4byte	0x7f
 787 007f 02       		.uleb128 0x2
 788 0080 04       		.byte	0x4
 789 0081 07       		.byte	0x7
 790 0082 550B0000 		.4byte	.LASF10
 791 0086 02       		.uleb128 0x2
 792 0087 08       		.byte	0x8
 793 0088 05       		.byte	0x5
 794 0089 380E0000 		.4byte	.LASF11
 795 008d 03       		.uleb128 0x3
 796 008e 05140000 		.4byte	.LASF12
 797 0092 03       		.byte	0x3
 798 0093 5B       		.byte	0x5b
 799 0094 98000000 		.4byte	0x98
 800 0098 02       		.uleb128 0x2
 801 0099 08       		.byte	0x8
 802 009a 07       		.byte	0x7
 803 009b 1A080000 		.4byte	.LASF13
 804 009f 04       		.uleb128 0x4
 805 00a0 04       		.byte	0x4
 806 00a1 05       		.byte	0x5
 807 00a2 696E7400 		.ascii	"int\000"
 808 00a6 02       		.uleb128 0x2
 809 00a7 04       		.byte	0x4
 810 00a8 07       		.byte	0x7
 811 00a9 5C100000 		.4byte	.LASF14
 812 00ad 03       		.uleb128 0x3
 813 00ae 94040000 		.4byte	.LASF15
 814 00b2 04       		.byte	0x4
 815 00b3 18       		.byte	0x18
 816 00b4 2C000000 		.4byte	0x2c
 817 00b8 03       		.uleb128 0x3
 818 00b9 10180000 		.4byte	.LASF16
 819 00bd 04       		.byte	0x4
 820 00be 20       		.byte	0x20
 821 00bf 3E000000 		.4byte	0x3e
 822 00c3 03       		.uleb128 0x3
 823 00c4 1B140000 		.4byte	.LASF17
 824 00c8 04       		.byte	0x4
 825 00c9 24       		.byte	0x24
 826 00ca 50000000 		.4byte	0x50
 827 00ce 03       		.uleb128 0x3
 828 00cf 74150000 		.4byte	.LASF18
 829 00d3 04       		.byte	0x4
 830 00d4 2C       		.byte	0x2c
 831 00d5 62000000 		.4byte	0x62
 832 00d9 03       		.uleb128 0x3
 833 00da 361A0000 		.4byte	.LASF19
 834 00de 04       		.byte	0x4
 835 00df 30       		.byte	0x30
 836 00e0 74000000 		.4byte	0x74
 837 00e4 03       		.uleb128 0x3
 838 00e5 A8170000 		.4byte	.LASF20
 839 00e9 04       		.byte	0x4
 840 00ea 3C       		.byte	0x3c
 841 00eb 8D000000 		.4byte	0x8d
 842 00ef 02       		.uleb128 0x2
ARM GAS  C:\Users\Rolf\AppData\Local\Temp\ccEjvRQz.s 			page 40


 843 00f0 08       		.byte	0x8
 844 00f1 04       		.byte	0x4
 845 00f2 FE120000 		.4byte	.LASF21
 846 00f6 05       		.uleb128 0x5
 847 00f7 D9000000 		.4byte	0xd9
 848 00fb 06       		.uleb128 0x6
 849 00fc F6000000 		.4byte	0xf6
 850 0100 02       		.uleb128 0x2
 851 0101 04       		.byte	0x4
 852 0102 07       		.byte	0x7
 853 0103 42000000 		.4byte	.LASF22
 854 0107 07       		.uleb128 0x7
 855 0108 FB000000 		.4byte	0xfb
 856 010c 17010000 		.4byte	0x117
 857 0110 08       		.uleb128 0x8
 858 0111 00010000 		.4byte	0x100
 859 0115 0F       		.byte	0xf
 860 0116 00       		.byte	0
 861 0117 07       		.uleb128 0x7
 862 0118 F6000000 		.4byte	0xf6
 863 011c 27010000 		.4byte	0x127
 864 0120 08       		.uleb128 0x8
 865 0121 00010000 		.4byte	0x100
 866 0125 0F       		.byte	0xf
 867 0126 00       		.byte	0
 868 0127 07       		.uleb128 0x7
 869 0128 FB000000 		.4byte	0xfb
 870 012c 37010000 		.4byte	0x137
 871 0130 08       		.uleb128 0x8
 872 0131 00010000 		.4byte	0x100
 873 0135 06       		.byte	0x6
 874 0136 00       		.byte	0
 875 0137 07       		.uleb128 0x7
 876 0138 FB000000 		.4byte	0xfb
 877 013c 47010000 		.4byte	0x147
 878 0140 08       		.uleb128 0x8
 879 0141 00010000 		.4byte	0x100
 880 0145 03       		.byte	0x3
 881 0146 00       		.byte	0
 882 0147 07       		.uleb128 0x7
 883 0148 FB000000 		.4byte	0xfb
 884 014c 57010000 		.4byte	0x157
 885 0150 08       		.uleb128 0x8
 886 0151 00010000 		.4byte	0x100
 887 0155 04       		.byte	0x4
 888 0156 00       		.byte	0
 889 0157 07       		.uleb128 0x7
 890 0158 FB000000 		.4byte	0xfb
 891 015c 67010000 		.4byte	0x167
 892 0160 08       		.uleb128 0x8
 893 0161 00010000 		.4byte	0x100
 894 0165 1A       		.byte	0x1a
 895 0166 00       		.byte	0
 896 0167 07       		.uleb128 0x7
 897 0168 FB000000 		.4byte	0xfb
 898 016c 77010000 		.4byte	0x177
 899 0170 08       		.uleb128 0x8
ARM GAS  C:\Users\Rolf\AppData\Local\Temp\ccEjvRQz.s 			page 41


 900 0171 00010000 		.4byte	0x100
 901 0175 3C       		.byte	0x3c
 902 0176 00       		.byte	0
 903 0177 07       		.uleb128 0x7
 904 0178 FB000000 		.4byte	0xfb
 905 017c 87010000 		.4byte	0x187
 906 0180 08       		.uleb128 0x8
 907 0181 00010000 		.4byte	0x100
 908 0185 0C       		.byte	0xc
 909 0186 00       		.byte	0
 910 0187 07       		.uleb128 0x7
 911 0188 FB000000 		.4byte	0xfb
 912 018c 97010000 		.4byte	0x197
 913 0190 08       		.uleb128 0x8
 914 0191 00010000 		.4byte	0x100
 915 0195 1C       		.byte	0x1c
 916 0196 00       		.byte	0
 917 0197 09       		.uleb128 0x9
 918 0198 0010     		.2byte	0x1000
 919 019a 05       		.byte	0x5
 920 019b 22       		.byte	0x22
 921 019c 55030000 		.4byte	0x355
 922 01a0 0A       		.uleb128 0xa
 923 01a1 49060000 		.4byte	.LASF23
 924 01a5 05       		.byte	0x5
 925 01a6 23       		.byte	0x23
 926 01a7 F6000000 		.4byte	0xf6
 927 01ab 00       		.byte	0
 928 01ac 0A       		.uleb128 0xa
 929 01ad 41160000 		.4byte	.LASF24
 930 01b1 05       		.byte	0x5
 931 01b2 24       		.byte	0x24
 932 01b3 FB000000 		.4byte	0xfb
 933 01b7 04       		.byte	0x4
 934 01b8 0A       		.uleb128 0xa
 935 01b9 96170000 		.4byte	.LASF25
 936 01bd 05       		.byte	0x5
 937 01be 25       		.byte	0x25
 938 01bf F6000000 		.4byte	0xf6
 939 01c3 08       		.byte	0x8
 940 01c4 0A       		.uleb128 0xa
 941 01c5 780D0000 		.4byte	.LASF26
 942 01c9 05       		.byte	0x5
 943 01ca 26       		.byte	0x26
 944 01cb FB000000 		.4byte	0xfb
 945 01cf 0C       		.byte	0xc
 946 01d0 0A       		.uleb128 0xa
 947 01d1 34050000 		.4byte	.LASF27
 948 01d5 05       		.byte	0x5
 949 01d6 27       		.byte	0x27
 950 01d7 FB000000 		.4byte	0xfb
 951 01db 10       		.byte	0x10
 952 01dc 0A       		.uleb128 0xa
 953 01dd D31A0000 		.4byte	.LASF28
 954 01e1 05       		.byte	0x5
 955 01e2 28       		.byte	0x28
 956 01e3 F6000000 		.4byte	0xf6
ARM GAS  C:\Users\Rolf\AppData\Local\Temp\ccEjvRQz.s 			page 42


 957 01e7 14       		.byte	0x14
 958 01e8 0A       		.uleb128 0xa
 959 01e9 BF010000 		.4byte	.LASF29
 960 01ed 05       		.byte	0x5
 961 01ee 29       		.byte	0x29
 962 01ef F6000000 		.4byte	0xf6
 963 01f3 18       		.byte	0x18
 964 01f4 0A       		.uleb128 0xa
 965 01f5 D2010000 		.4byte	.LASF30
 966 01f9 05       		.byte	0x5
 967 01fa 2A       		.byte	0x2a
 968 01fb F6000000 		.4byte	0xf6
 969 01ff 1C       		.byte	0x1c
 970 0200 0A       		.uleb128 0xa
 971 0201 55120000 		.4byte	.LASF31
 972 0205 05       		.byte	0x5
 973 0206 2B       		.byte	0x2b
 974 0207 FB000000 		.4byte	0xfb
 975 020b 20       		.byte	0x20
 976 020c 0A       		.uleb128 0xa
 977 020d DE030000 		.4byte	.LASF32
 978 0211 05       		.byte	0x5
 979 0212 2C       		.byte	0x2c
 980 0213 F6000000 		.4byte	0xf6
 981 0217 24       		.byte	0x24
 982 0218 0A       		.uleb128 0xa
 983 0219 040C0000 		.4byte	.LASF33
 984 021d 05       		.byte	0x5
 985 021e 2D       		.byte	0x2d
 986 021f F6000000 		.4byte	0xf6
 987 0223 28       		.byte	0x28
 988 0224 0A       		.uleb128 0xa
 989 0225 0A130000 		.4byte	.LASF34
 990 0229 05       		.byte	0x5
 991 022a 2E       		.byte	0x2e
 992 022b FB000000 		.4byte	0xfb
 993 022f 2C       		.byte	0x2c
 994 0230 0A       		.uleb128 0xa
 995 0231 EE130000 		.4byte	.LASF35
 996 0235 05       		.byte	0x5
 997 0236 2F       		.byte	0x2f
 998 0237 F6000000 		.4byte	0xf6
 999 023b 30       		.byte	0x30
 1000 023c 0A       		.uleb128 0xa
 1001 023d AF010000 		.4byte	.LASF36
 1002 0241 05       		.byte	0x5
 1003 0242 30       		.byte	0x30
 1004 0243 F6000000 		.4byte	0xf6
 1005 0247 34       		.byte	0x34
 1006 0248 0A       		.uleb128 0xa
 1007 0249 4F030000 		.4byte	.LASF37
 1008 024d 05       		.byte	0x5
 1009 024e 31       		.byte	0x31
 1010 024f F6000000 		.4byte	0xf6
 1011 0253 38       		.byte	0x38
 1012 0254 0A       		.uleb128 0xa
 1013 0255 020D0000 		.4byte	.LASF38
ARM GAS  C:\Users\Rolf\AppData\Local\Temp\ccEjvRQz.s 			page 43


 1014 0259 05       		.byte	0x5
 1015 025a 32       		.byte	0x32
 1016 025b F6000000 		.4byte	0xf6
 1017 025f 3C       		.byte	0x3c
 1018 0260 0A       		.uleb128 0xa
 1019 0261 19130000 		.4byte	.LASF39
 1020 0265 05       		.byte	0x5
 1021 0266 33       		.byte	0x33
 1022 0267 F6000000 		.4byte	0xf6
 1023 026b 40       		.byte	0x40
 1024 026c 0A       		.uleb128 0xa
 1025 026d 59020000 		.4byte	.LASF40
 1026 0271 05       		.byte	0x5
 1027 0272 34       		.byte	0x34
 1028 0273 F6000000 		.4byte	0xf6
 1029 0277 44       		.byte	0x44
 1030 0278 0A       		.uleb128 0xa
 1031 0279 76010000 		.4byte	.LASF41
 1032 027d 05       		.byte	0x5
 1033 027e 35       		.byte	0x35
 1034 027f FB000000 		.4byte	0xfb
 1035 0283 48       		.byte	0x48
 1036 0284 0A       		.uleb128 0xa
 1037 0285 8F190000 		.4byte	.LASF42
 1038 0289 05       		.byte	0x5
 1039 028a 36       		.byte	0x36
 1040 028b F6000000 		.4byte	0xf6
 1041 028f 4C       		.byte	0x4c
 1042 0290 0A       		.uleb128 0xa
 1043 0291 460E0000 		.4byte	.LASF43
 1044 0295 05       		.byte	0x5
 1045 0296 38       		.byte	0x38
 1046 0297 F6000000 		.4byte	0xf6
 1047 029b 50       		.byte	0x50
 1048 029c 0A       		.uleb128 0xa
 1049 029d 8A050000 		.4byte	.LASF44
 1050 02a1 05       		.byte	0x5
 1051 02a2 39       		.byte	0x39
 1052 02a3 F6000000 		.4byte	0xf6
 1053 02a7 54       		.byte	0x54
 1054 02a8 0A       		.uleb128 0xa
 1055 02a9 93050000 		.4byte	.LASF45
 1056 02ad 05       		.byte	0x5
 1057 02ae 3A       		.byte	0x3a
 1058 02af F6000000 		.4byte	0xf6
 1059 02b3 58       		.byte	0x58
 1060 02b4 0A       		.uleb128 0xa
 1061 02b5 9C050000 		.4byte	.LASF46
 1062 02b9 05       		.byte	0x5
 1063 02ba 3B       		.byte	0x3b
 1064 02bb F6000000 		.4byte	0xf6
 1065 02bf 5C       		.byte	0x5c
 1066 02c0 0A       		.uleb128 0xa
 1067 02c1 77080000 		.4byte	.LASF47
 1068 02c5 05       		.byte	0x5
 1069 02c6 3C       		.byte	0x3c
 1070 02c7 F6000000 		.4byte	0xf6
ARM GAS  C:\Users\Rolf\AppData\Local\Temp\ccEjvRQz.s 			page 44


 1071 02cb 60       		.byte	0x60
 1072 02cc 0A       		.uleb128 0xa
 1073 02cd D7090000 		.4byte	.LASF48
 1074 02d1 05       		.byte	0x5
 1075 02d2 3D       		.byte	0x3d
 1076 02d3 5A030000 		.4byte	0x35a
 1077 02d7 64       		.byte	0x64
 1078 02d8 0A       		.uleb128 0xa
 1079 02d9 58030000 		.4byte	.LASF49
 1080 02dd 05       		.byte	0x5
 1081 02de 3E       		.byte	0x3e
 1082 02df F6000000 		.4byte	0xf6
 1083 02e3 80       		.byte	0x80
 1084 02e4 0A       		.uleb128 0xa
 1085 02e5 82010000 		.4byte	.LASF50
 1086 02e9 05       		.byte	0x5
 1087 02ea 3F       		.byte	0x3f
 1088 02eb F6000000 		.4byte	0xf6
 1089 02ef 84       		.byte	0x84
 1090 02f0 0A       		.uleb128 0xa
 1091 02f1 84070000 		.4byte	.LASF51
 1092 02f5 05       		.byte	0x5
 1093 02f6 40       		.byte	0x40
 1094 02f7 F6000000 		.4byte	0xf6
 1095 02fb 88       		.byte	0x88
 1096 02fc 0A       		.uleb128 0xa
 1097 02fd 66090000 		.4byte	.LASF52
 1098 0301 05       		.byte	0x5
 1099 0302 41       		.byte	0x41
 1100 0303 F6000000 		.4byte	0xf6
 1101 0307 8C       		.byte	0x8c
 1102 0308 0A       		.uleb128 0xa
 1103 0309 3F1A0000 		.4byte	.LASF53
 1104 030d 05       		.byte	0x5
 1105 030e 42       		.byte	0x42
 1106 030f F6000000 		.4byte	0xf6
 1107 0313 90       		.byte	0x90
 1108 0314 0A       		.uleb128 0xa
 1109 0315 C8050000 		.4byte	.LASF54
 1110 0319 05       		.byte	0x5
 1111 031a 43       		.byte	0x43
 1112 031b 64030000 		.4byte	0x364
 1113 031f 94       		.byte	0x94
 1114 0320 0B       		.uleb128 0xb
 1115 0321 3A010000 		.4byte	.LASF55
 1116 0325 05       		.byte	0x5
 1117 0326 44       		.byte	0x44
 1118 0327 7E030000 		.4byte	0x37e
 1119 032b 0001     		.2byte	0x100
 1120 032d 0B       		.uleb128 0xb
 1121 032e 14070000 		.4byte	.LASF56
 1122 0332 05       		.byte	0x5
 1123 0333 45       		.byte	0x45
 1124 0334 99030000 		.4byte	0x399
 1125 0338 8001     		.2byte	0x180
 1126 033a 0B       		.uleb128 0xb
 1127 033b 5F180000 		.4byte	.LASF57
ARM GAS  C:\Users\Rolf\AppData\Local\Temp\ccEjvRQz.s 			page 45


 1128 033f 05       		.byte	0x5
 1129 0340 46       		.byte	0x46
 1130 0341 AE030000 		.4byte	0x3ae
 1131 0345 0008     		.2byte	0x800
 1132 0347 0B       		.uleb128 0xb
 1133 0348 43030000 		.4byte	.LASF58
 1134 034c 05       		.byte	0x5
 1135 034d 47       		.byte	0x47
 1136 034e C8030000 		.4byte	0x3c8
 1137 0352 000C     		.2byte	0xc00
 1138 0354 00       		.byte	0
 1139 0355 05       		.uleb128 0x5
 1140 0356 27010000 		.4byte	0x127
 1141 035a 06       		.uleb128 0x6
 1142 035b 55030000 		.4byte	0x355
 1143 035f 05       		.uleb128 0x5
 1144 0360 57010000 		.4byte	0x157
 1145 0364 06       		.uleb128 0x6
 1146 0365 5F030000 		.4byte	0x35f
 1147 0369 07       		.uleb128 0x7
 1148 036a FB000000 		.4byte	0xfb
 1149 036e 79030000 		.4byte	0x379
 1150 0372 08       		.uleb128 0x8
 1151 0373 00010000 		.4byte	0x100
 1152 0377 1F       		.byte	0x1f
 1153 0378 00       		.byte	0
 1154 0379 05       		.uleb128 0x5
 1155 037a 69030000 		.4byte	0x369
 1156 037e 06       		.uleb128 0x6
 1157 037f 79030000 		.4byte	0x379
 1158 0383 07       		.uleb128 0x7
 1159 0384 FB000000 		.4byte	0xfb
 1160 0388 94030000 		.4byte	0x394
 1161 038c 0C       		.uleb128 0xc
 1162 038d 00010000 		.4byte	0x100
 1163 0391 9F01     		.2byte	0x19f
 1164 0393 00       		.byte	0
 1165 0394 05       		.uleb128 0x5
 1166 0395 83030000 		.4byte	0x383
 1167 0399 06       		.uleb128 0x6
 1168 039a 94030000 		.4byte	0x394
 1169 039e 07       		.uleb128 0x7
 1170 039f F6000000 		.4byte	0xf6
 1171 03a3 AE030000 		.4byte	0x3ae
 1172 03a7 08       		.uleb128 0x8
 1173 03a8 00010000 		.4byte	0x100
 1174 03ac FF       		.byte	0xff
 1175 03ad 00       		.byte	0
 1176 03ae 05       		.uleb128 0x5
 1177 03af 9E030000 		.4byte	0x39e
 1178 03b3 07       		.uleb128 0x7
 1179 03b4 FB000000 		.4byte	0xfb
 1180 03b8 C3030000 		.4byte	0x3c3
 1181 03bc 08       		.uleb128 0x8
 1182 03bd 00010000 		.4byte	0x100
 1183 03c1 FF       		.byte	0xff
 1184 03c2 00       		.byte	0
ARM GAS  C:\Users\Rolf\AppData\Local\Temp\ccEjvRQz.s 			page 46


 1185 03c3 05       		.uleb128 0x5
 1186 03c4 B3030000 		.4byte	0x3b3
 1187 03c8 06       		.uleb128 0x6
 1188 03c9 C3030000 		.4byte	0x3c3
 1189 03cd 03       		.uleb128 0x3
 1190 03ce 460A0000 		.4byte	.LASF59
 1191 03d2 05       		.byte	0x5
 1192 03d3 48       		.byte	0x48
 1193 03d4 97010000 		.4byte	0x197
 1194 03d8 0D       		.uleb128 0xd
 1195 03d9 00000100 		.4byte	0x10000
 1196 03dd 05       		.byte	0x5
 1197 03de 4D       		.byte	0x4d
 1198 03df B8060000 		.4byte	0x6b8
 1199 03e3 0A       		.uleb128 0xa
 1200 03e4 A7110000 		.4byte	.LASF60
 1201 03e8 05       		.byte	0x5
 1202 03e9 4E       		.byte	0x4e
 1203 03ea F6000000 		.4byte	0xf6
 1204 03ee 00       		.byte	0
 1205 03ef 0A       		.uleb128 0xa
 1206 03f0 B1000000 		.4byte	.LASF61
 1207 03f4 05       		.byte	0x5
 1208 03f5 4F       		.byte	0x4f
 1209 03f6 F6000000 		.4byte	0xf6
 1210 03fa 04       		.byte	0x4
 1211 03fb 0A       		.uleb128 0xa
 1212 03fc FA090000 		.4byte	.LASF62
 1213 0400 05       		.byte	0x5
 1214 0401 50       		.byte	0x50
 1215 0402 F6000000 		.4byte	0xf6
 1216 0406 08       		.byte	0x8
 1217 0407 0A       		.uleb128 0xa
 1218 0408 D7090000 		.4byte	.LASF48
 1219 040c 05       		.byte	0x5
 1220 040d 51       		.byte	0x51
 1221 040e BD060000 		.4byte	0x6bd
 1222 0412 0C       		.byte	0xc
 1223 0413 0B       		.uleb128 0xb
 1224 0414 FD1B0000 		.4byte	.LASF63
 1225 0418 05       		.byte	0x5
 1226 0419 52       		.byte	0x52
 1227 041a F6000000 		.4byte	0xf6
 1228 041e 0001     		.2byte	0x100
 1229 0420 0B       		.uleb128 0xb
 1230 0421 33150000 		.4byte	.LASF64
 1231 0425 05       		.byte	0x5
 1232 0426 53       		.byte	0x53
 1233 0427 F6000000 		.4byte	0xf6
 1234 042b 0401     		.2byte	0x104
 1235 042d 0B       		.uleb128 0xb
 1236 042e 7A050000 		.4byte	.LASF65
 1237 0432 05       		.byte	0x5
 1238 0433 54       		.byte	0x54
 1239 0434 F6000000 		.4byte	0xf6
 1240 0438 0801     		.2byte	0x108
 1241 043a 0B       		.uleb128 0xb
ARM GAS  C:\Users\Rolf\AppData\Local\Temp\ccEjvRQz.s 			page 47


 1242 043b 68000000 		.4byte	.LASF66
 1243 043f 05       		.byte	0x5
 1244 0440 55       		.byte	0x55
 1245 0441 D2060000 		.4byte	0x6d2
 1246 0445 0C01     		.2byte	0x10c
 1247 0447 0B       		.uleb128 0xb
 1248 0448 FF030000 		.4byte	.LASF67
 1249 044c 05       		.byte	0x5
 1250 044d 56       		.byte	0x56
 1251 044e EC060000 		.4byte	0x6ec
 1252 0452 2C01     		.2byte	0x12c
 1253 0454 0B       		.uleb128 0xb
 1254 0455 BE130000 		.4byte	.LASF68
 1255 0459 05       		.byte	0x5
 1256 045a 57       		.byte	0x57
 1257 045b F6060000 		.4byte	0x6f6
 1258 045f 4C01     		.2byte	0x14c
 1259 0461 0B       		.uleb128 0xb
 1260 0462 E1110000 		.4byte	.LASF69
 1261 0466 05       		.byte	0x5
 1262 0467 58       		.byte	0x58
 1263 0468 FB000000 		.4byte	0xfb
 1264 046c 6C01     		.2byte	0x16c
 1265 046e 0B       		.uleb128 0xb
 1266 046f 78160000 		.4byte	.LASF70
 1267 0473 05       		.byte	0x5
 1268 0474 59       		.byte	0x59
 1269 0475 F6000000 		.4byte	0xf6
 1270 0479 7001     		.2byte	0x170
 1271 047b 0B       		.uleb128 0xb
 1272 047c C8050000 		.4byte	.LASF54
 1273 0480 05       		.byte	0x5
 1274 0481 5A       		.byte	0x5a
 1275 0482 10070000 		.4byte	0x710
 1276 0486 7401     		.2byte	0x174
 1277 0488 0B       		.uleb128 0xb
 1278 0489 770A0000 		.4byte	.LASF71
 1279 048d 05       		.byte	0x5
 1280 048e 5B       		.byte	0x5b
 1281 048f F6000000 		.4byte	0xf6
 1282 0493 0004     		.2byte	0x400
 1283 0495 0B       		.uleb128 0xb
 1284 0496 830A0000 		.4byte	.LASF72
 1285 049a 05       		.byte	0x5
 1286 049b 5C       		.byte	0x5c
 1287 049c F6000000 		.4byte	0xf6
 1288 04a0 0404     		.2byte	0x404
 1289 04a2 0B       		.uleb128 0xb
 1290 04a3 21190000 		.4byte	.LASF73
 1291 04a7 05       		.byte	0x5
 1292 04a8 5D       		.byte	0x5d
 1293 04a9 F6000000 		.4byte	0xf6
 1294 04ad 0804     		.2byte	0x408
 1295 04af 0B       		.uleb128 0xb
 1296 04b0 62030000 		.4byte	.LASF74
 1297 04b4 05       		.byte	0x5
 1298 04b5 5E       		.byte	0x5e
ARM GAS  C:\Users\Rolf\AppData\Local\Temp\ccEjvRQz.s 			page 48


 1299 04b6 F6000000 		.4byte	0xf6
 1300 04ba 0C04     		.2byte	0x40c
 1301 04bc 0B       		.uleb128 0xb
 1302 04bd 14070000 		.4byte	.LASF56
 1303 04c1 05       		.byte	0x5
 1304 04c2 5F       		.byte	0x5f
 1305 04c3 2A070000 		.4byte	0x72a
 1306 04c7 1004     		.2byte	0x410
 1307 04c9 0B       		.uleb128 0xb
 1308 04ca 0F170000 		.4byte	.LASF75
 1309 04ce 05       		.byte	0x5
 1310 04cf 60       		.byte	0x60
 1311 04d0 FB000000 		.4byte	0xfb
 1312 04d4 4004     		.2byte	0x440
 1313 04d6 0B       		.uleb128 0xb
 1314 04d7 1E170000 		.4byte	.LASF76
 1315 04db 05       		.byte	0x5
 1316 04dc 61       		.byte	0x61
 1317 04dd FB000000 		.4byte	0xfb
 1318 04e1 4404     		.2byte	0x444
 1319 04e3 0B       		.uleb128 0xb
 1320 04e4 2D170000 		.4byte	.LASF77
 1321 04e8 05       		.byte	0x5
 1322 04e9 62       		.byte	0x62
 1323 04ea FB000000 		.4byte	0xfb
 1324 04ee 4804     		.2byte	0x448
 1325 04f0 0B       		.uleb128 0xb
 1326 04f1 1E070000 		.4byte	.LASF78
 1327 04f5 05       		.byte	0x5
 1328 04f6 63       		.byte	0x63
 1329 04f7 34070000 		.4byte	0x734
 1330 04fb 4C04     		.2byte	0x44c
 1331 04fd 0B       		.uleb128 0xb
 1332 04fe 7C150000 		.4byte	.LASF79
 1333 0502 05       		.byte	0x5
 1334 0503 64       		.byte	0x64
 1335 0504 F6000000 		.4byte	0xf6
 1336 0508 8004     		.2byte	0x480
 1337 050a 0B       		.uleb128 0xb
 1338 050b 88150000 		.4byte	.LASF80
 1339 050f 05       		.byte	0x5
 1340 0510 65       		.byte	0x65
 1341 0511 F6000000 		.4byte	0xf6
 1342 0515 8404     		.2byte	0x484
 1343 0517 0B       		.uleb128 0xb
 1344 0518 42130000 		.4byte	.LASF81
 1345 051c 05       		.byte	0x5
 1346 051d 66       		.byte	0x66
 1347 051e F6000000 		.4byte	0xf6
 1348 0522 8804     		.2byte	0x488
 1349 0524 0B       		.uleb128 0xb
 1350 0525 FA130000 		.4byte	.LASF82
 1351 0529 05       		.byte	0x5
 1352 052a 67       		.byte	0x67
 1353 052b F6000000 		.4byte	0xf6
 1354 052f 8C04     		.2byte	0x48c
 1355 0531 0B       		.uleb128 0xb
ARM GAS  C:\Users\Rolf\AppData\Local\Temp\ccEjvRQz.s 			page 49


 1356 0532 08060000 		.4byte	.LASF83
 1357 0536 05       		.byte	0x5
 1358 0537 68       		.byte	0x68
 1359 0538 3E070000 		.4byte	0x73e
 1360 053c 9004     		.2byte	0x490
 1361 053e 0B       		.uleb128 0xb
 1362 053f 970E0000 		.4byte	.LASF84
 1363 0543 05       		.byte	0x5
 1364 0544 69       		.byte	0x69
 1365 0545 FB000000 		.4byte	0xfb
 1366 0549 C004     		.2byte	0x4c0
 1367 054b 0B       		.uleb128 0xb
 1368 054c A60E0000 		.4byte	.LASF85
 1369 0550 05       		.byte	0x5
 1370 0551 6A       		.byte	0x6a
 1371 0552 FB000000 		.4byte	0xfb
 1372 0556 C404     		.2byte	0x4c4
 1373 0558 0B       		.uleb128 0xb
 1374 0559 B50E0000 		.4byte	.LASF86
 1375 055d 05       		.byte	0x5
 1376 055e 6B       		.byte	0x6b
 1377 055f FB000000 		.4byte	0xfb
 1378 0563 C804     		.2byte	0x4c8
 1379 0565 0B       		.uleb128 0xb
 1380 0566 12060000 		.4byte	.LASF87
 1381 056a 05       		.byte	0x5
 1382 056b 6C       		.byte	0x6c
 1383 056c 48070000 		.4byte	0x748
 1384 0570 CC04     		.2byte	0x4cc
 1385 0572 0B       		.uleb128 0xb
 1386 0573 8E160000 		.4byte	.LASF88
 1387 0577 05       		.byte	0x5
 1388 0578 6D       		.byte	0x6d
 1389 0579 F6000000 		.4byte	0xf6
 1390 057d 0005     		.2byte	0x500
 1391 057f 0B       		.uleb128 0xb
 1392 0580 1C060000 		.4byte	.LASF89
 1393 0584 05       		.byte	0x5
 1394 0585 6E       		.byte	0x6e
 1395 0586 FB000000 		.4byte	0xfb
 1396 058a 0405     		.2byte	0x504
 1397 058c 0B       		.uleb128 0xb
 1398 058d A80F0000 		.4byte	.LASF90
 1399 0591 05       		.byte	0x5
 1400 0592 6F       		.byte	0x6f
 1401 0593 F6000000 		.4byte	0xf6
 1402 0597 0805     		.2byte	0x508
 1403 0599 0B       		.uleb128 0xb
 1404 059a 26060000 		.4byte	.LASF91
 1405 059e 05       		.byte	0x5
 1406 059f 70       		.byte	0x70
 1407 05a0 52070000 		.4byte	0x752
 1408 05a4 0C05     		.2byte	0x50c
 1409 05a6 0B       		.uleb128 0xb
 1410 05a7 200F0000 		.4byte	.LASF92
 1411 05ab 05       		.byte	0x5
 1412 05ac 71       		.byte	0x71
ARM GAS  C:\Users\Rolf\AppData\Local\Temp\ccEjvRQz.s 			page 50


 1413 05ad F6000000 		.4byte	0xf6
 1414 05b1 8005     		.2byte	0x580
 1415 05b3 0B       		.uleb128 0xb
 1416 05b4 30060000 		.4byte	.LASF93
 1417 05b8 05       		.byte	0x5
 1418 05b9 72       		.byte	0x72
 1419 05ba FB000000 		.4byte	0xfb
 1420 05be 8405     		.2byte	0x584
 1421 05c0 0B       		.uleb128 0xb
 1422 05c1 D6070000 		.4byte	.LASF94
 1423 05c5 05       		.byte	0x5
 1424 05c6 73       		.byte	0x73
 1425 05c7 F6000000 		.4byte	0xf6
 1426 05cb 8805     		.2byte	0x588
 1427 05cd 0B       		.uleb128 0xb
 1428 05ce 3A060000 		.4byte	.LASF95
 1429 05d2 05       		.byte	0x5
 1430 05d3 74       		.byte	0x74
 1431 05d4 5C070000 		.4byte	0x75c
 1432 05d8 8C05     		.2byte	0x58c
 1433 05da 0B       		.uleb128 0xb
 1434 05db 16090000 		.4byte	.LASF96
 1435 05df 05       		.byte	0x5
 1436 05e0 75       		.byte	0x75
 1437 05e1 F6000000 		.4byte	0xf6
 1438 05e5 0006     		.2byte	0x600
 1439 05e7 0B       		.uleb128 0xb
 1440 05e8 6B140000 		.4byte	.LASF97
 1441 05ec 05       		.byte	0x5
 1442 05ed 76       		.byte	0x76
 1443 05ee FB000000 		.4byte	0xfb
 1444 05f2 0406     		.2byte	0x604
 1445 05f4 0B       		.uleb128 0xb
 1446 05f5 3F1C0000 		.4byte	.LASF98
 1447 05f9 05       		.byte	0x5
 1448 05fa 77       		.byte	0x77
 1449 05fb F6000000 		.4byte	0xf6
 1450 05ff 0806     		.2byte	0x608
 1451 0601 0B       		.uleb128 0xb
 1452 0602 76140000 		.4byte	.LASF99
 1453 0606 05       		.byte	0x5
 1454 0607 78       		.byte	0x78
 1455 0608 66070000 		.4byte	0x766
 1456 060c 0C06     		.2byte	0x60c
 1457 060e 0B       		.uleb128 0xb
 1458 060f C9070000 		.4byte	.LASF100
 1459 0613 05       		.byte	0x5
 1460 0614 79       		.byte	0x79
 1461 0615 F6000000 		.4byte	0xf6
 1462 0619 8006     		.2byte	0x680
 1463 061b 0B       		.uleb128 0xb
 1464 061c 81140000 		.4byte	.LASF101
 1465 0620 05       		.byte	0x5
 1466 0621 7A       		.byte	0x7a
 1467 0622 FB000000 		.4byte	0xfb
 1468 0626 8406     		.2byte	0x684
 1469 0628 0B       		.uleb128 0xb
ARM GAS  C:\Users\Rolf\AppData\Local\Temp\ccEjvRQz.s 			page 51


 1470 0629 17010000 		.4byte	.LASF102
 1471 062d 05       		.byte	0x5
 1472 062e 7B       		.byte	0x7b
 1473 062f F6000000 		.4byte	0xf6
 1474 0633 8806     		.2byte	0x688
 1475 0635 0B       		.uleb128 0xb
 1476 0636 8C140000 		.4byte	.LASF103
 1477 063a 05       		.byte	0x5
 1478 063b 7C       		.byte	0x7c
 1479 063c 70070000 		.4byte	0x770
 1480 0640 8C06     		.2byte	0x68c
 1481 0642 0B       		.uleb128 0xb
 1482 0643 FE070000 		.4byte	.LASF104
 1483 0647 05       		.byte	0x5
 1484 0648 7D       		.byte	0x7d
 1485 0649 F6000000 		.4byte	0xf6
 1486 064d 0007     		.2byte	0x700
 1487 064f 0B       		.uleb128 0xb
 1488 0650 97140000 		.4byte	.LASF105
 1489 0654 05       		.byte	0x5
 1490 0655 7E       		.byte	0x7e
 1491 0656 FB000000 		.4byte	0xfb
 1492 065a 0407     		.2byte	0x704
 1493 065c 0B       		.uleb128 0xb
 1494 065d 4C010000 		.4byte	.LASF106
 1495 0661 05       		.byte	0x5
 1496 0662 7F       		.byte	0x7f
 1497 0663 F6000000 		.4byte	0xf6
 1498 0667 0807     		.2byte	0x708
 1499 0669 0B       		.uleb128 0xb
 1500 066a A2140000 		.4byte	.LASF107
 1501 066e 05       		.byte	0x5
 1502 066f 80       		.byte	0x80
 1503 0670 7A070000 		.4byte	0x77a
 1504 0674 0C07     		.2byte	0x70c
 1505 0676 0B       		.uleb128 0xb
 1506 0677 B5020000 		.4byte	.LASF108
 1507 067b 05       		.byte	0x5
 1508 067c 81       		.byte	0x81
 1509 067d F6000000 		.4byte	0xf6
 1510 0681 8007     		.2byte	0x780
 1511 0683 0B       		.uleb128 0xb
 1512 0684 AD140000 		.4byte	.LASF109
 1513 0688 05       		.byte	0x5
 1514 0689 82       		.byte	0x82
 1515 068a FB000000 		.4byte	0xfb
 1516 068e 8407     		.2byte	0x784
 1517 0690 0B       		.uleb128 0xb
 1518 0691 AA190000 		.4byte	.LASF110
 1519 0695 05       		.byte	0x5
 1520 0696 83       		.byte	0x83
 1521 0697 F6000000 		.4byte	0xf6
 1522 069b 8807     		.2byte	0x788
 1523 069d 0B       		.uleb128 0xb
 1524 069e B8140000 		.4byte	.LASF111
 1525 06a2 05       		.byte	0x5
 1526 06a3 84       		.byte	0x84
ARM GAS  C:\Users\Rolf\AppData\Local\Temp\ccEjvRQz.s 			page 52


 1527 06a4 95070000 		.4byte	0x795
 1528 06a8 8C07     		.2byte	0x78c
 1529 06aa 0B       		.uleb128 0xb
 1530 06ab 49060000 		.4byte	.LASF23
 1531 06af 05       		.byte	0x5
 1532 06b0 85       		.byte	0x85
 1533 06b1 CD030000 		.4byte	0x3cd
 1534 06b5 00F0     		.2byte	0xf000
 1535 06b7 00       		.byte	0
 1536 06b8 05       		.uleb128 0x5
 1537 06b9 67010000 		.4byte	0x167
 1538 06bd 06       		.uleb128 0x6
 1539 06be B8060000 		.4byte	0x6b8
 1540 06c2 07       		.uleb128 0x7
 1541 06c3 F6000000 		.4byte	0xf6
 1542 06c7 D2060000 		.4byte	0x6d2
 1543 06cb 08       		.uleb128 0x8
 1544 06cc 00010000 		.4byte	0x100
 1545 06d0 07       		.byte	0x7
 1546 06d1 00       		.byte	0
 1547 06d2 05       		.uleb128 0x5
 1548 06d3 C2060000 		.4byte	0x6c2
 1549 06d7 07       		.uleb128 0x7
 1550 06d8 FB000000 		.4byte	0xfb
 1551 06dc E7060000 		.4byte	0x6e7
 1552 06e0 08       		.uleb128 0x8
 1553 06e1 00010000 		.4byte	0x100
 1554 06e5 07       		.byte	0x7
 1555 06e6 00       		.byte	0
 1556 06e7 05       		.uleb128 0x5
 1557 06e8 D7060000 		.4byte	0x6d7
 1558 06ec 06       		.uleb128 0x6
 1559 06ed E7060000 		.4byte	0x6e7
 1560 06f1 05       		.uleb128 0x5
 1561 06f2 D7060000 		.4byte	0x6d7
 1562 06f6 06       		.uleb128 0x6
 1563 06f7 F1060000 		.4byte	0x6f1
 1564 06fb 07       		.uleb128 0x7
 1565 06fc FB000000 		.4byte	0xfb
 1566 0700 0B070000 		.4byte	0x70b
 1567 0704 08       		.uleb128 0x8
 1568 0705 00010000 		.4byte	0x100
 1569 0709 A2       		.byte	0xa2
 1570 070a 00       		.byte	0
 1571 070b 05       		.uleb128 0x5
 1572 070c FB060000 		.4byte	0x6fb
 1573 0710 06       		.uleb128 0x6
 1574 0711 0B070000 		.4byte	0x70b
 1575 0715 07       		.uleb128 0x7
 1576 0716 FB000000 		.4byte	0xfb
 1577 071a 25070000 		.4byte	0x725
 1578 071e 08       		.uleb128 0x8
 1579 071f 00010000 		.4byte	0x100
 1580 0723 0B       		.byte	0xb
 1581 0724 00       		.byte	0
 1582 0725 05       		.uleb128 0x5
 1583 0726 15070000 		.4byte	0x715
ARM GAS  C:\Users\Rolf\AppData\Local\Temp\ccEjvRQz.s 			page 53


 1584 072a 06       		.uleb128 0x6
 1585 072b 25070000 		.4byte	0x725
 1586 072f 05       		.uleb128 0x5
 1587 0730 77010000 		.4byte	0x177
 1588 0734 06       		.uleb128 0x6
 1589 0735 2F070000 		.4byte	0x72f
 1590 0739 05       		.uleb128 0x5
 1591 073a 15070000 		.4byte	0x715
 1592 073e 06       		.uleb128 0x6
 1593 073f 39070000 		.4byte	0x739
 1594 0743 05       		.uleb128 0x5
 1595 0744 77010000 		.4byte	0x177
 1596 0748 06       		.uleb128 0x6
 1597 0749 43070000 		.4byte	0x743
 1598 074d 05       		.uleb128 0x5
 1599 074e 87010000 		.4byte	0x187
 1600 0752 06       		.uleb128 0x6
 1601 0753 4D070000 		.4byte	0x74d
 1602 0757 05       		.uleb128 0x5
 1603 0758 87010000 		.4byte	0x187
 1604 075c 06       		.uleb128 0x6
 1605 075d 57070000 		.4byte	0x757
 1606 0761 05       		.uleb128 0x5
 1607 0762 87010000 		.4byte	0x187
 1608 0766 06       		.uleb128 0x6
 1609 0767 61070000 		.4byte	0x761
 1610 076b 05       		.uleb128 0x5
 1611 076c 87010000 		.4byte	0x187
 1612 0770 06       		.uleb128 0x6
 1613 0771 6B070000 		.4byte	0x76b
 1614 0775 05       		.uleb128 0x5
 1615 0776 87010000 		.4byte	0x187
 1616 077a 06       		.uleb128 0x6
 1617 077b 75070000 		.4byte	0x775
 1618 077f 07       		.uleb128 0x7
 1619 0780 FB000000 		.4byte	0xfb
 1620 0784 90070000 		.4byte	0x790
 1621 0788 0C       		.uleb128 0xc
 1622 0789 00010000 		.4byte	0x100
 1623 078d 1C3A     		.2byte	0x3a1c
 1624 078f 00       		.byte	0
 1625 0790 05       		.uleb128 0x5
 1626 0791 7F070000 		.4byte	0x77f
 1627 0795 06       		.uleb128 0x6
 1628 0796 90070000 		.4byte	0x790
 1629 079a 03       		.uleb128 0x3
 1630 079b E0180000 		.4byte	.LASF112
 1631 079f 05       		.byte	0x5
 1632 07a0 86       		.byte	0x86
 1633 07a1 D8030000 		.4byte	0x3d8
 1634 07a5 07       		.uleb128 0x7
 1635 07a6 FB000000 		.4byte	0xfb
 1636 07aa B5070000 		.4byte	0x7b5
 1637 07ae 08       		.uleb128 0x8
 1638 07af 00010000 		.4byte	0x100
 1639 07b3 01       		.byte	0x1
 1640 07b4 00       		.byte	0
ARM GAS  C:\Users\Rolf\AppData\Local\Temp\ccEjvRQz.s 			page 54


 1641 07b5 07       		.uleb128 0x7
 1642 07b6 FB000000 		.4byte	0xfb
 1643 07ba C5070000 		.4byte	0x7c5
 1644 07be 08       		.uleb128 0x8
 1645 07bf 00010000 		.4byte	0x100
 1646 07c3 4F       		.byte	0x4f
 1647 07c4 00       		.byte	0
 1648 07c5 07       		.uleb128 0x7
 1649 07c6 F6000000 		.4byte	0xf6
 1650 07ca D5070000 		.4byte	0x7d5
 1651 07ce 08       		.uleb128 0x8
 1652 07cf 00010000 		.4byte	0x100
 1653 07d3 3F       		.byte	0x3f
 1654 07d4 00       		.byte	0
 1655 07d5 09       		.uleb128 0x9
 1656 07d6 0080     		.2byte	0x8000
 1657 07d8 06       		.byte	0x6
 1658 07d9 21       		.byte	0x21
 1659 07da BB0D0000 		.4byte	0xdbb
 1660 07de 0A       		.uleb128 0xa
 1661 07df D7090000 		.4byte	.LASF48
 1662 07e3 06       		.byte	0x6
 1663 07e4 22       		.byte	0x22
 1664 07e5 C00D0000 		.4byte	0xdc0
 1665 07e9 00       		.byte	0
 1666 07ea 0A       		.uleb128 0xa
 1667 07eb 75070000 		.4byte	.LASF113
 1668 07ef 06       		.byte	0x6
 1669 07f0 23       		.byte	0x23
 1670 07f1 BB0D0000 		.4byte	0xdbb
 1671 07f5 01       		.byte	0x1
 1672 07f6 0A       		.uleb128 0xa
 1673 07f7 D3030000 		.4byte	.LASF114
 1674 07fb 06       		.byte	0x6
 1675 07fc 24       		.byte	0x24
 1676 07fd C50D0000 		.4byte	0xdc5
 1677 0801 02       		.byte	0x2
 1678 0802 0A       		.uleb128 0xa
 1679 0803 C8050000 		.4byte	.LASF54
 1680 0807 06       		.byte	0x6
 1681 0808 25       		.byte	0x25
 1682 0809 CF0D0000 		.4byte	0xdcf
 1683 080d 04       		.byte	0x4
 1684 080e 0A       		.uleb128 0xa
 1685 080f 3C0A0000 		.4byte	.LASF115
 1686 0813 06       		.byte	0x6
 1687 0814 26       		.byte	0x26
 1688 0815 C50D0000 		.4byte	0xdc5
 1689 0819 0C       		.byte	0xc
 1690 081a 0A       		.uleb128 0xa
 1691 081b 14070000 		.4byte	.LASF56
 1692 081f 06       		.byte	0x6
 1693 0820 27       		.byte	0x27
 1694 0821 EE0D0000 		.4byte	0xdee
 1695 0825 0E       		.byte	0xe
 1696 0826 0A       		.uleb128 0xa
 1697 0827 3C170000 		.4byte	.LASF116
ARM GAS  C:\Users\Rolf\AppData\Local\Temp\ccEjvRQz.s 			page 55


 1698 082b 06       		.byte	0x6
 1699 082c 28       		.byte	0x28
 1700 082d F6000000 		.4byte	0xf6
 1701 0831 14       		.byte	0x14
 1702 0832 0A       		.uleb128 0xa
 1703 0833 1E070000 		.4byte	.LASF78
 1704 0837 06       		.byte	0x6
 1705 0838 29       		.byte	0x29
 1706 0839 090E0000 		.4byte	0xe09
 1707 083d 18       		.byte	0x18
 1708 083e 0B       		.uleb128 0xb
 1709 083f 41020000 		.4byte	.LASF117
 1710 0843 06       		.byte	0x6
 1711 0844 2A       		.byte	0x2a
 1712 0845 1E0E0000 		.4byte	0xe1e
 1713 0849 0006     		.2byte	0x600
 1714 084b 0B       		.uleb128 0xb
 1715 084c FA0B0000 		.4byte	.LASF118
 1716 0850 06       		.byte	0x6
 1717 0851 2B       		.byte	0x2b
 1718 0852 BB0D0000 		.4byte	0xdbb
 1719 0856 0306     		.2byte	0x603
 1720 0858 0B       		.uleb128 0xb
 1721 0859 4C1C0000 		.4byte	.LASF119
 1722 085d 06       		.byte	0x6
 1723 085e 2C       		.byte	0x2c
 1724 085f BB0D0000 		.4byte	0xdbb
 1725 0863 0406     		.2byte	0x604
 1726 0865 0B       		.uleb128 0xb
 1727 0866 521C0000 		.4byte	.LASF120
 1728 086a 06       		.byte	0x6
 1729 086b 2D       		.byte	0x2d
 1730 086c BB0D0000 		.4byte	0xdbb
 1731 0870 0506     		.2byte	0x605
 1732 0872 0B       		.uleb128 0xb
 1733 0873 7A1A0000 		.4byte	.LASF121
 1734 0877 06       		.byte	0x6
 1735 0878 2E       		.byte	0x2e
 1736 0879 BB0D0000 		.4byte	0xdbb
 1737 087d 0606     		.2byte	0x606
 1738 087f 0B       		.uleb128 0xb
 1739 0880 160F0000 		.4byte	.LASF122
 1740 0884 06       		.byte	0x6
 1741 0885 2F       		.byte	0x2f
 1742 0886 BB0D0000 		.4byte	0xdbb
 1743 088a 0706     		.2byte	0x607
 1744 088c 0B       		.uleb128 0xb
 1745 088d 59000000 		.4byte	.LASF123
 1746 0891 06       		.byte	0x6
 1747 0892 30       		.byte	0x30
 1748 0893 BB0D0000 		.4byte	0xdbb
 1749 0897 0806     		.2byte	0x608
 1750 0899 0B       		.uleb128 0xb
 1751 089a AA030000 		.4byte	.LASF124
 1752 089e 06       		.byte	0x6
 1753 089f 31       		.byte	0x31
 1754 08a0 BB0D0000 		.4byte	0xdbb
ARM GAS  C:\Users\Rolf\AppData\Local\Temp\ccEjvRQz.s 			page 56


 1755 08a4 0906     		.2byte	0x609
 1756 08a6 0B       		.uleb128 0xb
 1757 08a7 040A0000 		.4byte	.LASF125
 1758 08ab 06       		.byte	0x6
 1759 08ac 32       		.byte	0x32
 1760 08ad BB0D0000 		.4byte	0xdbb
 1761 08b1 0A06     		.2byte	0x60a
 1762 08b3 0B       		.uleb128 0xb
 1763 08b4 08060000 		.4byte	.LASF83
 1764 08b8 06       		.byte	0x6
 1765 08b9 33       		.byte	0x33
 1766 08ba 380E0000 		.4byte	0xe38
 1767 08be 0B06     		.2byte	0x60b
 1768 08c0 0B       		.uleb128 0xb
 1769 08c1 C9170000 		.4byte	.LASF126
 1770 08c5 06       		.byte	0x6
 1771 08c6 34       		.byte	0x34
 1772 08c7 C50D0000 		.4byte	0xdc5
 1773 08cb 4806     		.2byte	0x648
 1774 08cd 0B       		.uleb128 0xb
 1775 08ce 76090000 		.4byte	.LASF127
 1776 08d2 06       		.byte	0x6
 1777 08d3 35       		.byte	0x35
 1778 08d4 C50D0000 		.4byte	0xdc5
 1779 08d8 4A06     		.2byte	0x64a
 1780 08da 0B       		.uleb128 0xb
 1781 08db 12060000 		.4byte	.LASF87
 1782 08df 06       		.byte	0x6
 1783 08e0 36       		.byte	0x36
 1784 08e1 420E0000 		.4byte	0xe42
 1785 08e5 4C06     		.2byte	0x64c
 1786 08e7 0B       		.uleb128 0xb
 1787 08e8 02160000 		.4byte	.LASF128
 1788 08ec 06       		.byte	0x6
 1789 08ed 37       		.byte	0x37
 1790 08ee F6000000 		.4byte	0xf6
 1791 08f2 6C06     		.2byte	0x66c
 1792 08f4 0B       		.uleb128 0xb
 1793 08f5 1C060000 		.4byte	.LASF89
 1794 08f9 06       		.byte	0x6
 1795 08fa 38       		.byte	0x38
 1796 08fb 5C0E0000 		.4byte	0xe5c
 1797 08ff 7006     		.2byte	0x670
 1798 0901 0B       		.uleb128 0xb
 1799 0902 3C0B0000 		.4byte	.LASF129
 1800 0906 06       		.byte	0x6
 1801 0907 39       		.byte	0x39
 1802 0908 BB0D0000 		.4byte	0xdbb
 1803 090c 4007     		.2byte	0x740
 1804 090e 0B       		.uleb128 0xb
 1805 090f D1120000 		.4byte	.LASF130
 1806 0913 06       		.byte	0x6
 1807 0914 3A       		.byte	0x3a
 1808 0915 BB0D0000 		.4byte	0xdbb
 1809 0919 4107     		.2byte	0x741
 1810 091b 0B       		.uleb128 0xb
 1811 091c 26060000 		.4byte	.LASF91
ARM GAS  C:\Users\Rolf\AppData\Local\Temp\ccEjvRQz.s 			page 57


 1812 0920 06       		.byte	0x6
 1813 0921 3B       		.byte	0x3b
 1814 0922 760E0000 		.4byte	0xe76
 1815 0926 4207     		.2byte	0x742
 1816 0928 0B       		.uleb128 0xb
 1817 0929 E7080000 		.4byte	.LASF131
 1818 092d 06       		.byte	0x6
 1819 092e 3C       		.byte	0x3c
 1820 092f 8B0E0000 		.4byte	0xe8b
 1821 0933 0008     		.2byte	0x800
 1822 0935 0B       		.uleb128 0xb
 1823 0936 FB0D0000 		.4byte	.LASF132
 1824 093a 06       		.byte	0x6
 1825 093b 3D       		.byte	0x3d
 1826 093c 900E0000 		.4byte	0xe90
 1827 0940 000A     		.2byte	0xa00
 1828 0942 0B       		.uleb128 0xb
 1829 0943 0A0E0000 		.4byte	.LASF133
 1830 0947 06       		.byte	0x6
 1831 0948 3E       		.byte	0x3e
 1832 0949 950E0000 		.4byte	0xe95
 1833 094d 000C     		.2byte	0xc00
 1834 094f 0B       		.uleb128 0xb
 1835 0950 190E0000 		.4byte	.LASF134
 1836 0954 06       		.byte	0x6
 1837 0955 3F       		.byte	0x3f
 1838 0956 9A0E0000 		.4byte	0xe9a
 1839 095a 000E     		.2byte	0xe00
 1840 095c 0B       		.uleb128 0xb
 1841 095d 30060000 		.4byte	.LASF93
 1842 0961 06       		.byte	0x6
 1843 0962 40       		.byte	0x40
 1844 0963 B50E0000 		.4byte	0xeb5
 1845 0967 0010     		.2byte	0x1000
 1846 0969 0B       		.uleb128 0xb
 1847 096a 22030000 		.4byte	.LASF135
 1848 096e 06       		.byte	0x6
 1849 096f 41       		.byte	0x41
 1850 0970 CA0E0000 		.4byte	0xeca
 1851 0974 B814     		.2byte	0x14b8
 1852 0976 0B       		.uleb128 0xb
 1853 0977 581C0000 		.4byte	.LASF136
 1854 097b 06       		.byte	0x6
 1855 097c 42       		.byte	0x42
 1856 097d CF0E0000 		.4byte	0xecf
 1857 0981 C814     		.2byte	0x14c8
 1858 0983 0B       		.uleb128 0xb
 1859 0984 2B180000 		.4byte	.LASF137
 1860 0988 06       		.byte	0x6
 1861 0989 43       		.byte	0x43
 1862 098a D40E0000 		.4byte	0xed4
 1863 098e D814     		.2byte	0x14d8
 1864 0990 0B       		.uleb128 0xb
 1865 0991 5C110000 		.4byte	.LASF138
 1866 0995 06       		.byte	0x6
 1867 0996 44       		.byte	0x44
 1868 0997 D90E0000 		.4byte	0xed9
ARM GAS  C:\Users\Rolf\AppData\Local\Temp\ccEjvRQz.s 			page 58


 1869 099b 1815     		.2byte	0x1518
 1870 099d 0B       		.uleb128 0xb
 1871 099e FA0F0000 		.4byte	.LASF139
 1872 09a2 06       		.byte	0x6
 1873 09a3 45       		.byte	0x45
 1874 09a4 DE0E0000 		.4byte	0xede
 1875 09a8 5815     		.2byte	0x1558
 1876 09aa 0B       		.uleb128 0xb
 1877 09ab E9020000 		.4byte	.LASF140
 1878 09af 06       		.byte	0x6
 1879 09b0 46       		.byte	0x46
 1880 09b1 E30E0000 		.4byte	0xee3
 1881 09b5 9815     		.2byte	0x1598
 1882 09b7 0B       		.uleb128 0xb
 1883 09b8 BB100000 		.4byte	.LASF141
 1884 09bc 06       		.byte	0x6
 1885 09bd 47       		.byte	0x47
 1886 09be E80E0000 		.4byte	0xee8
 1887 09c2 D815     		.2byte	0x15d8
 1888 09c4 0B       		.uleb128 0xb
 1889 09c5 3A060000 		.4byte	.LASF95
 1890 09c9 06       		.byte	0x6
 1891 09ca 48       		.byte	0x48
 1892 09cb 020F0000 		.4byte	0xf02
 1893 09cf 1816     		.2byte	0x1618
 1894 09d1 0B       		.uleb128 0xb
 1895 09d2 BE0F0000 		.4byte	.LASF142
 1896 09d6 06       		.byte	0x6
 1897 09d7 49       		.byte	0x49
 1898 09d8 C50D0000 		.4byte	0xdc5
 1899 09dc 0018     		.2byte	0x1800
 1900 09de 0B       		.uleb128 0xb
 1901 09df 6B140000 		.4byte	.LASF97
 1902 09e3 06       		.byte	0x6
 1903 09e4 4A       		.byte	0x4a
 1904 09e5 E40D0000 		.4byte	0xde4
 1905 09e9 0218     		.2byte	0x1802
 1906 09eb 0B       		.uleb128 0xb
 1907 09ec 72000000 		.4byte	.LASF143
 1908 09f0 06       		.byte	0x6
 1909 09f1 4B       		.byte	0x4b
 1910 09f2 F6000000 		.4byte	0xf6
 1911 09f6 0418     		.2byte	0x1804
 1912 09f8 0B       		.uleb128 0xb
 1913 09f9 87000000 		.4byte	.LASF144
 1914 09fd 06       		.byte	0x6
 1915 09fe 4C       		.byte	0x4c
 1916 09ff F6000000 		.4byte	0xf6
 1917 0a03 0818     		.2byte	0x1808
 1918 0a05 0B       		.uleb128 0xb
 1919 0a06 9C000000 		.4byte	.LASF145
 1920 0a0a 06       		.byte	0x6
 1921 0a0b 4D       		.byte	0x4d
 1922 0a0c F6000000 		.4byte	0xf6
 1923 0a10 0C18     		.2byte	0x180c
 1924 0a12 0B       		.uleb128 0xb
 1925 0a13 C11A0000 		.4byte	.LASF146
ARM GAS  C:\Users\Rolf\AppData\Local\Temp\ccEjvRQz.s 			page 59


 1926 0a17 06       		.byte	0x6
 1927 0a18 4E       		.byte	0x4e
 1928 0a19 F6000000 		.4byte	0xf6
 1929 0a1d 1018     		.2byte	0x1810
 1930 0a1f 0B       		.uleb128 0xb
 1931 0a20 76140000 		.4byte	.LASF99
 1932 0a24 06       		.byte	0x6
 1933 0a25 4F       		.byte	0x4f
 1934 0a26 E40D0000 		.4byte	0xde4
 1935 0a2a 1418     		.2byte	0x1814
 1936 0a2c 0B       		.uleb128 0xb
 1937 0a2d 161A0000 		.4byte	.LASF147
 1938 0a31 06       		.byte	0x6
 1939 0a32 50       		.byte	0x50
 1940 0a33 C50D0000 		.4byte	0xdc5
 1941 0a37 1618     		.2byte	0x1816
 1942 0a39 0B       		.uleb128 0xb
 1943 0a3a 1C020000 		.4byte	.LASF148
 1944 0a3e 06       		.byte	0x6
 1945 0a3f 51       		.byte	0x51
 1946 0a40 F6000000 		.4byte	0xf6
 1947 0a44 1818     		.2byte	0x1818
 1948 0a46 0B       		.uleb128 0xb
 1949 0a47 B1110000 		.4byte	.LASF149
 1950 0a4b 06       		.byte	0x6
 1951 0a4c 52       		.byte	0x52
 1952 0a4d F6000000 		.4byte	0xf6
 1953 0a51 1C18     		.2byte	0x181c
 1954 0a53 0B       		.uleb128 0xb
 1955 0a54 49050000 		.4byte	.LASF150
 1956 0a58 06       		.byte	0x6
 1957 0a59 53       		.byte	0x53
 1958 0a5a F6000000 		.4byte	0xf6
 1959 0a5e 2018     		.2byte	0x1820
 1960 0a60 0B       		.uleb128 0xb
 1961 0a61 D9140000 		.4byte	.LASF151
 1962 0a65 06       		.byte	0x6
 1963 0a66 54       		.byte	0x54
 1964 0a67 F6000000 		.4byte	0xf6
 1965 0a6b 2418     		.2byte	0x1824
 1966 0a6d 0B       		.uleb128 0xb
 1967 0a6e 81140000 		.4byte	.LASF101
 1968 0a72 06       		.byte	0x6
 1969 0a73 55       		.byte	0x55
 1970 0a74 0C0F0000 		.4byte	0xf0c
 1971 0a78 2818     		.2byte	0x1828
 1972 0a7a 0B       		.uleb128 0xb
 1973 0a7b 810D0000 		.4byte	.LASF152
 1974 0a7f 06       		.byte	0x6
 1975 0a80 56       		.byte	0x56
 1976 0a81 F6000000 		.4byte	0xf6
 1977 0a85 4418     		.2byte	0x1844
 1978 0a87 0B       		.uleb128 0xb
 1979 0a88 24140000 		.4byte	.LASF153
 1980 0a8c 06       		.byte	0x6
 1981 0a8d 57       		.byte	0x57
 1982 0a8e F6000000 		.4byte	0xf6
ARM GAS  C:\Users\Rolf\AppData\Local\Temp\ccEjvRQz.s 			page 60


 1983 0a92 4818     		.2byte	0x1848
 1984 0a94 0B       		.uleb128 0xb
 1985 0a95 8E1A0000 		.4byte	.LASF154
 1986 0a99 06       		.byte	0x6
 1987 0a9a 58       		.byte	0x58
 1988 0a9b F6000000 		.4byte	0xf6
 1989 0a9f 4C18     		.2byte	0x184c
 1990 0aa1 0B       		.uleb128 0xb
 1991 0aa2 26160000 		.4byte	.LASF155
 1992 0aa6 06       		.byte	0x6
 1993 0aa7 59       		.byte	0x59
 1994 0aa8 F6000000 		.4byte	0xf6
 1995 0aac 5018     		.2byte	0x1850
 1996 0aae 0B       		.uleb128 0xb
 1997 0aaf 8C140000 		.4byte	.LASF103
 1998 0ab3 06       		.byte	0x6
 1999 0ab4 5A       		.byte	0x5a
 2000 0ab5 270F0000 		.4byte	0xf27
 2001 0ab9 5418     		.2byte	0x1854
 2002 0abb 0B       		.uleb128 0xb
 2003 0abc 60040000 		.4byte	.LASF156
 2004 0ac0 06       		.byte	0x6
 2005 0ac1 5B       		.byte	0x5b
 2006 0ac2 F6000000 		.4byte	0xf6
 2007 0ac6 0020     		.2byte	0x2000
 2008 0ac8 0B       		.uleb128 0xb
 2009 0ac9 EB110000 		.4byte	.LASF157
 2010 0acd 06       		.byte	0x6
 2011 0ace 5C       		.byte	0x5c
 2012 0acf F6000000 		.4byte	0xf6
 2013 0ad3 0420     		.2byte	0x2004
 2014 0ad5 0B       		.uleb128 0xb
 2015 0ad6 22130000 		.4byte	.LASF158
 2016 0ada 06       		.byte	0x6
 2017 0adb 5D       		.byte	0x5d
 2018 0adc F6000000 		.4byte	0xf6
 2019 0ae0 0820     		.2byte	0x2008
 2020 0ae2 0B       		.uleb128 0xb
 2021 0ae3 950F0000 		.4byte	.LASF159
 2022 0ae7 06       		.byte	0x6
 2023 0ae8 5E       		.byte	0x5e
 2024 0ae9 F6000000 		.4byte	0xf6
 2025 0aed 0C20     		.2byte	0x200c
 2026 0aef 0B       		.uleb128 0xb
 2027 0af0 12120000 		.4byte	.LASF160
 2028 0af4 06       		.byte	0x6
 2029 0af5 5F       		.byte	0x5f
 2030 0af6 F6000000 		.4byte	0xf6
 2031 0afa 1020     		.2byte	0x2010
 2032 0afc 0B       		.uleb128 0xb
 2033 0afd 62120000 		.4byte	.LASF161
 2034 0b01 06       		.byte	0x6
 2035 0b02 60       		.byte	0x60
 2036 0b03 F6000000 		.4byte	0xf6
 2037 0b07 1420     		.2byte	0x2014
 2038 0b09 0B       		.uleb128 0xb
 2039 0b0a 97140000 		.4byte	.LASF105
ARM GAS  C:\Users\Rolf\AppData\Local\Temp\ccEjvRQz.s 			page 61


 2040 0b0e 06       		.byte	0x6
 2041 0b0f 61       		.byte	0x61
 2042 0b10 410F0000 		.4byte	0xf41
 2043 0b14 1820     		.2byte	0x2018
 2044 0b16 0B       		.uleb128 0xb
 2045 0b17 4C100000 		.4byte	.LASF162
 2046 0b1b 06       		.byte	0x6
 2047 0b1c 62       		.byte	0x62
 2048 0b1d 570F0000 		.4byte	0xf57
 2049 0b21 D820     		.2byte	0x20d8
 2050 0b23 0B       		.uleb128 0xb
 2051 0b24 440D0000 		.4byte	.LASF163
 2052 0b28 06       		.byte	0x6
 2053 0b29 63       		.byte	0x63
 2054 0b2a 6D0F0000 		.4byte	0xf6d
 2055 0b2e 005A     		.2byte	0x5a00
 2056 0b30 0B       		.uleb128 0xb
 2057 0b31 E10F0000 		.4byte	.LASF164
 2058 0b35 06       		.byte	0x6
 2059 0b36 64       		.byte	0x64
 2060 0b37 830F0000 		.4byte	0xf83
 2061 0b3b 0066     		.2byte	0x6600
 2062 0b3d 0B       		.uleb128 0xb
 2063 0b3e A2140000 		.4byte	.LASF107
 2064 0b42 06       		.byte	0x6
 2065 0b43 65       		.byte	0x65
 2066 0b44 9E0F0000 		.4byte	0xf9e
 2067 0b48 006C     		.2byte	0x6c00
 2068 0b4a 0B       		.uleb128 0xb
 2069 0b4b C7150000 		.4byte	.LASF165
 2070 0b4f 06       		.byte	0x6
 2071 0b50 66       		.byte	0x66
 2072 0b51 F6000000 		.4byte	0xf6
 2073 0b55 0078     		.2byte	0x7800
 2074 0b57 0B       		.uleb128 0xb
 2075 0b58 B7170000 		.4byte	.LASF166
 2076 0b5c 06       		.byte	0x6
 2077 0b5d 68       		.byte	0x68
 2078 0b5e F6000000 		.4byte	0xf6
 2079 0b62 0478     		.2byte	0x7804
 2080 0b64 0B       		.uleb128 0xb
 2081 0b65 671A0000 		.4byte	.LASF167
 2082 0b69 06       		.byte	0x6
 2083 0b6a 69       		.byte	0x69
 2084 0b6b F6000000 		.4byte	0xf6
 2085 0b6f 0878     		.2byte	0x7808
 2086 0b71 0B       		.uleb128 0xb
 2087 0b72 15150000 		.4byte	.LASF168
 2088 0b76 06       		.byte	0x6
 2089 0b77 6B       		.byte	0x6b
 2090 0b78 F6000000 		.4byte	0xf6
 2091 0b7c 0C78     		.2byte	0x780c
 2092 0b7e 0B       		.uleb128 0xb
 2093 0b7f 03010000 		.4byte	.LASF169
 2094 0b83 06       		.byte	0x6
 2095 0b84 6C       		.byte	0x6c
 2096 0b85 F6000000 		.4byte	0xf6
ARM GAS  C:\Users\Rolf\AppData\Local\Temp\ccEjvRQz.s 			page 62


 2097 0b89 1078     		.2byte	0x7810
 2098 0b8b 0B       		.uleb128 0xb
 2099 0b8c 90100000 		.4byte	.LASF170
 2100 0b90 06       		.byte	0x6
 2101 0b91 6D       		.byte	0x6d
 2102 0b92 F6000000 		.4byte	0xf6
 2103 0b96 1478     		.2byte	0x7814
 2104 0b98 0B       		.uleb128 0xb
 2105 0b99 35070000 		.4byte	.LASF171
 2106 0b9d 06       		.byte	0x6
 2107 0b9e 6E       		.byte	0x6e
 2108 0b9f F6000000 		.4byte	0xf6
 2109 0ba3 1878     		.2byte	0x7818
 2110 0ba5 0B       		.uleb128 0xb
 2111 0ba6 E51B0000 		.4byte	.LASF172
 2112 0baa 06       		.byte	0x6
 2113 0bab 6F       		.byte	0x6f
 2114 0bac F6000000 		.4byte	0xf6
 2115 0bb0 1C78     		.2byte	0x781c
 2116 0bb2 0B       		.uleb128 0xb
 2117 0bb3 AD140000 		.4byte	.LASF109
 2118 0bb7 06       		.byte	0x6
 2119 0bb8 70       		.byte	0x70
 2120 0bb9 B80F0000 		.4byte	0xfb8
 2121 0bbd 2078     		.2byte	0x7820
 2122 0bbf 0B       		.uleb128 0xb
 2123 0bc0 2F040000 		.4byte	.LASF173
 2124 0bc4 06       		.byte	0x6
 2125 0bc5 71       		.byte	0x71
 2126 0bc6 F6000000 		.4byte	0xf6
 2127 0bca FC79     		.2byte	0x79fc
 2128 0bcc 0B       		.uleb128 0xb
 2129 0bcd 1B100000 		.4byte	.LASF174
 2130 0bd1 06       		.byte	0x6
 2131 0bd2 72       		.byte	0x72
 2132 0bd3 F6000000 		.4byte	0xf6
 2133 0bd7 007A     		.2byte	0x7a00
 2134 0bd9 0B       		.uleb128 0xb
 2135 0bda CD180000 		.4byte	.LASF175
 2136 0bde 06       		.byte	0x6
 2137 0bdf 74       		.byte	0x74
 2138 0be0 F6000000 		.4byte	0xf6
 2139 0be4 047A     		.2byte	0x7a04
 2140 0be6 0B       		.uleb128 0xb
 2141 0be7 3A080000 		.4byte	.LASF176
 2142 0beb 06       		.byte	0x6
 2143 0bec 75       		.byte	0x75
 2144 0bed F6000000 		.4byte	0xf6
 2145 0bf1 087A     		.2byte	0x7a08
 2146 0bf3 0B       		.uleb128 0xb
 2147 0bf4 CF040000 		.4byte	.LASF177
 2148 0bf8 06       		.byte	0x6
 2149 0bf9 77       		.byte	0x77
 2150 0bfa F6000000 		.4byte	0xf6
 2151 0bfe 0C7A     		.2byte	0x7a0c
 2152 0c00 0B       		.uleb128 0xb
 2153 0c01 4B040000 		.4byte	.LASF178
ARM GAS  C:\Users\Rolf\AppData\Local\Temp\ccEjvRQz.s 			page 63


 2154 0c05 06       		.byte	0x6
 2155 0c06 78       		.byte	0x78
 2156 0c07 F6000000 		.4byte	0xf6
 2157 0c0b 107A     		.2byte	0x7a10
 2158 0c0d 0B       		.uleb128 0xb
 2159 0c0e DE0A0000 		.4byte	.LASF179
 2160 0c12 06       		.byte	0x6
 2161 0c13 79       		.byte	0x79
 2162 0c14 F6000000 		.4byte	0xf6
 2163 0c18 147A     		.2byte	0x7a14
 2164 0c1a 0B       		.uleb128 0xb
 2165 0c1b 7E060000 		.4byte	.LASF180
 2166 0c1f 06       		.byte	0x6
 2167 0c20 7B       		.byte	0x7b
 2168 0c21 F6000000 		.4byte	0xf6
 2169 0c25 187A     		.2byte	0x7a18
 2170 0c27 0B       		.uleb128 0xb
 2171 0c28 D00E0000 		.4byte	.LASF181
 2172 0c2c 06       		.byte	0x6
 2173 0c2d 7C       		.byte	0x7c
 2174 0c2e F6000000 		.4byte	0xf6
 2175 0c32 1C7A     		.2byte	0x7a1c
 2176 0c34 0B       		.uleb128 0xb
 2177 0c35 B8140000 		.4byte	.LASF111
 2178 0c39 06       		.byte	0x6
 2179 0c3a 7D       		.byte	0x7d
 2180 0c3b C20F0000 		.4byte	0xfc2
 2181 0c3f 207A     		.2byte	0x7a20
 2182 0c41 0B       		.uleb128 0xb
 2183 0c42 710F0000 		.4byte	.LASF182
 2184 0c46 06       		.byte	0x6
 2185 0c47 7E       		.byte	0x7e
 2186 0c48 F6000000 		.4byte	0xf6
 2187 0c4c FC7B     		.2byte	0x7bfc
 2188 0c4e 0B       		.uleb128 0xb
 2189 0c4f 99030000 		.4byte	.LASF183
 2190 0c53 06       		.byte	0x6
 2191 0c54 80       		.byte	0x80
 2192 0c55 F6000000 		.4byte	0xf6
 2193 0c59 007C     		.2byte	0x7c00
 2194 0c5b 0B       		.uleb128 0xb
 2195 0c5c 95110000 		.4byte	.LASF184
 2196 0c60 06       		.byte	0x6
 2197 0c61 82       		.byte	0x82
 2198 0c62 F6000000 		.4byte	0xf6
 2199 0c66 047C     		.2byte	0x7c04
 2200 0c68 0B       		.uleb128 0xb
 2201 0c69 62010000 		.4byte	.LASF185
 2202 0c6d 06       		.byte	0x6
 2203 0c6e 83       		.byte	0x83
 2204 0c6f F6000000 		.4byte	0xf6
 2205 0c73 087C     		.2byte	0x7c08
 2206 0c75 0B       		.uleb128 0xb
 2207 0c76 481B0000 		.4byte	.LASF186
 2208 0c7a 06       		.byte	0x6
 2209 0c7b 84       		.byte	0x84
 2210 0c7c F6000000 		.4byte	0xf6
ARM GAS  C:\Users\Rolf\AppData\Local\Temp\ccEjvRQz.s 			page 64


 2211 0c80 0C7C     		.2byte	0x7c0c
 2212 0c82 0B       		.uleb128 0xb
 2213 0c83 C8110000 		.4byte	.LASF187
 2214 0c87 06       		.byte	0x6
 2215 0c88 86       		.byte	0x86
 2216 0c89 F6000000 		.4byte	0xf6
 2217 0c8d 107C     		.2byte	0x7c10
 2218 0c8f 0B       		.uleb128 0xb
 2219 0c90 D2050000 		.4byte	.LASF188
 2220 0c94 06       		.byte	0x6
 2221 0c95 87       		.byte	0x87
 2222 0c96 F6000000 		.4byte	0xf6
 2223 0c9a 147C     		.2byte	0x7c14
 2224 0c9c 0B       		.uleb128 0xb
 2225 0c9d 4C090000 		.4byte	.LASF189
 2226 0ca1 06       		.byte	0x6
 2227 0ca2 89       		.byte	0x89
 2228 0ca3 F6000000 		.4byte	0xf6
 2229 0ca7 187C     		.2byte	0x7c18
 2230 0ca9 0B       		.uleb128 0xb
 2231 0caa 50060000 		.4byte	.LASF190
 2232 0cae 06       		.byte	0x6
 2233 0caf 8A       		.byte	0x8a
 2234 0cb0 F6000000 		.4byte	0xf6
 2235 0cb4 1C7C     		.2byte	0x7c1c
 2236 0cb6 0B       		.uleb128 0xb
 2237 0cb7 9C040000 		.4byte	.LASF191
 2238 0cbb 06       		.byte	0x6
 2239 0cbc 8C       		.byte	0x8c
 2240 0cbd F6000000 		.4byte	0xf6
 2241 0cc1 207C     		.2byte	0x7c20
 2242 0cc3 0B       		.uleb128 0xb
 2243 0cc4 CE0D0000 		.4byte	.LASF192
 2244 0cc8 06       		.byte	0x6
 2245 0cc9 8F       		.byte	0x8f
 2246 0cca F6000000 		.4byte	0xf6
 2247 0cce 247C     		.2byte	0x7c24
 2248 0cd0 0B       		.uleb128 0xb
 2249 0cd1 C3140000 		.4byte	.LASF193
 2250 0cd5 06       		.byte	0x6
 2251 0cd6 91       		.byte	0x91
 2252 0cd7 DC0F0000 		.4byte	0xfdc
 2253 0cdb 287C     		.2byte	0x7c28
 2254 0cdd 0B       		.uleb128 0xb
 2255 0cde D8150000 		.4byte	.LASF194
 2256 0ce2 06       		.byte	0x6
 2257 0ce3 92       		.byte	0x92
 2258 0ce4 F6000000 		.4byte	0xf6
 2259 0ce8 F47D     		.2byte	0x7df4
 2260 0cea 0B       		.uleb128 0xb
 2261 0ceb 831A0000 		.4byte	.LASF195
 2262 0cef 06       		.byte	0x6
 2263 0cf0 93       		.byte	0x93
 2264 0cf1 F6000000 		.4byte	0xf6
 2265 0cf5 F87D     		.2byte	0x7df8
 2266 0cf7 0B       		.uleb128 0xb
 2267 0cf8 4B000000 		.4byte	.LASF196
ARM GAS  C:\Users\Rolf\AppData\Local\Temp\ccEjvRQz.s 			page 65


 2268 0cfc 06       		.byte	0x6
 2269 0cfd 94       		.byte	0x94
 2270 0cfe F6000000 		.4byte	0xf6
 2271 0d02 FC7D     		.2byte	0x7dfc
 2272 0d04 0B       		.uleb128 0xb
 2273 0d05 6C060000 		.4byte	.LASF197
 2274 0d09 06       		.byte	0x6
 2275 0d0a 95       		.byte	0x95
 2276 0d0b F6000000 		.4byte	0xf6
 2277 0d0f 007E     		.2byte	0x7e00
 2278 0d11 0B       		.uleb128 0xb
 2279 0d12 78120000 		.4byte	.LASF198
 2280 0d16 06       		.byte	0x6
 2281 0d17 97       		.byte	0x97
 2282 0d18 F6000000 		.4byte	0xf6
 2283 0d1c 047E     		.2byte	0x7e04
 2284 0d1e 0B       		.uleb128 0xb
 2285 0d1f 011A0000 		.4byte	.LASF199
 2286 0d23 06       		.byte	0x6
 2287 0d24 98       		.byte	0x98
 2288 0d25 F6000000 		.4byte	0xf6
 2289 0d29 087E     		.2byte	0x7e08
 2290 0d2b 0B       		.uleb128 0xb
 2291 0d2c D3130000 		.4byte	.LASF200
 2292 0d30 06       		.byte	0x6
 2293 0d31 99       		.byte	0x99
 2294 0d32 F6000000 		.4byte	0xf6
 2295 0d36 0C7E     		.2byte	0x7e0c
 2296 0d38 0B       		.uleb128 0xb
 2297 0d39 40140000 		.4byte	.LASF201
 2298 0d3d 06       		.byte	0x6
 2299 0d3e 9B       		.byte	0x9b
 2300 0d3f F6000000 		.4byte	0xf6
 2301 0d43 107E     		.2byte	0x7e10
 2302 0d45 0B       		.uleb128 0xb
 2303 0d46 B1180000 		.4byte	.LASF202
 2304 0d4a 06       		.byte	0x6
 2305 0d4b 9C       		.byte	0x9c
 2306 0d4c F6000000 		.4byte	0xf6
 2307 0d50 147E     		.2byte	0x7e14
 2308 0d52 0B       		.uleb128 0xb
 2309 0d53 89020000 		.4byte	.LASF203
 2310 0d57 06       		.byte	0x6
 2311 0d58 9E       		.byte	0x9e
 2312 0d59 F6000000 		.4byte	0xf6
 2313 0d5d 187E     		.2byte	0x7e18
 2314 0d5f 0B       		.uleb128 0xb
 2315 0d60 701B0000 		.4byte	.LASF204
 2316 0d64 06       		.byte	0x6
 2317 0d65 9F       		.byte	0x9f
 2318 0d66 F6000000 		.4byte	0xf6
 2319 0d6a 1C7E     		.2byte	0x7e1c
 2320 0d6c 0B       		.uleb128 0xb
 2321 0d6d CD0F0000 		.4byte	.LASF205
 2322 0d71 06       		.byte	0x6
 2323 0d72 A1       		.byte	0xa1
 2324 0d73 F6000000 		.4byte	0xf6
ARM GAS  C:\Users\Rolf\AppData\Local\Temp\ccEjvRQz.s 			page 66


 2325 0d77 207E     		.2byte	0x7e20
 2326 0d79 0B       		.uleb128 0xb
 2327 0d7a 63020000 		.4byte	.LASF206
 2328 0d7e 06       		.byte	0x6
 2329 0d7f A4       		.byte	0xa4
 2330 0d80 F6000000 		.4byte	0xf6
 2331 0d84 247E     		.2byte	0x7e24
 2332 0d86 0B       		.uleb128 0xb
 2333 0d87 CE140000 		.4byte	.LASF207
 2334 0d8b 06       		.byte	0x6
 2335 0d8c A7       		.byte	0xa7
 2336 0d8d E60F0000 		.4byte	0xfe6
 2337 0d91 287E     		.2byte	0x7e28
 2338 0d93 0B       		.uleb128 0xb
 2339 0d94 17160000 		.4byte	.LASF208
 2340 0d98 06       		.byte	0x6
 2341 0d99 A8       		.byte	0xa8
 2342 0d9a F6000000 		.4byte	0xf6
 2343 0d9e F47F     		.2byte	0x7ff4
 2344 0da0 0B       		.uleb128 0xb
 2345 0da1 6B080000 		.4byte	.LASF209
 2346 0da5 06       		.byte	0x6
 2347 0da6 A9       		.byte	0xa9
 2348 0da7 F6000000 		.4byte	0xf6
 2349 0dab F87F     		.2byte	0x7ff8
 2350 0dad 0B       		.uleb128 0xb
 2351 0dae A0090000 		.4byte	.LASF210
 2352 0db2 06       		.byte	0x6
 2353 0db3 AA       		.byte	0xaa
 2354 0db4 F6000000 		.4byte	0xf6
 2355 0db8 FC7F     		.2byte	0x7ffc
 2356 0dba 00       		.byte	0
 2357 0dbb 05       		.uleb128 0x5
 2358 0dbc AD000000 		.4byte	0xad
 2359 0dc0 06       		.uleb128 0x6
 2360 0dc1 BB0D0000 		.4byte	0xdbb
 2361 0dc5 05       		.uleb128 0x5
 2362 0dc6 C3000000 		.4byte	0xc3
 2363 0dca 05       		.uleb128 0x5
 2364 0dcb A5070000 		.4byte	0x7a5
 2365 0dcf 06       		.uleb128 0x6
 2366 0dd0 CA0D0000 		.4byte	0xdca
 2367 0dd4 07       		.uleb128 0x7
 2368 0dd5 E40D0000 		.4byte	0xde4
 2369 0dd9 E40D0000 		.4byte	0xde4
 2370 0ddd 08       		.uleb128 0x8
 2371 0dde 00010000 		.4byte	0x100
 2372 0de2 02       		.byte	0x2
 2373 0de3 00       		.byte	0
 2374 0de4 06       		.uleb128 0x6
 2375 0de5 C50D0000 		.4byte	0xdc5
 2376 0de9 05       		.uleb128 0x5
 2377 0dea D40D0000 		.4byte	0xdd4
 2378 0dee 06       		.uleb128 0x6
 2379 0def E90D0000 		.4byte	0xde9
 2380 0df3 07       		.uleb128 0x7
 2381 0df4 FB000000 		.4byte	0xfb
ARM GAS  C:\Users\Rolf\AppData\Local\Temp\ccEjvRQz.s 			page 67


 2382 0df8 040E0000 		.4byte	0xe04
 2383 0dfc 0C       		.uleb128 0xc
 2384 0dfd 00010000 		.4byte	0x100
 2385 0e01 7901     		.2byte	0x179
 2386 0e03 00       		.byte	0
 2387 0e04 05       		.uleb128 0x5
 2388 0e05 F30D0000 		.4byte	0xdf3
 2389 0e09 06       		.uleb128 0x6
 2390 0e0a 040E0000 		.4byte	0xe04
 2391 0e0e 07       		.uleb128 0x7
 2392 0e0f BB0D0000 		.4byte	0xdbb
 2393 0e13 1E0E0000 		.4byte	0xe1e
 2394 0e17 08       		.uleb128 0x8
 2395 0e18 00010000 		.4byte	0x100
 2396 0e1c 02       		.byte	0x2
 2397 0e1d 00       		.byte	0
 2398 0e1e 05       		.uleb128 0x5
 2399 0e1f 0E0E0000 		.4byte	0xe0e
 2400 0e23 07       		.uleb128 0x7
 2401 0e24 C00D0000 		.4byte	0xdc0
 2402 0e28 330E0000 		.4byte	0xe33
 2403 0e2c 08       		.uleb128 0x8
 2404 0e2d 00010000 		.4byte	0x100
 2405 0e31 3C       		.byte	0x3c
 2406 0e32 00       		.byte	0
 2407 0e33 05       		.uleb128 0x5
 2408 0e34 230E0000 		.4byte	0xe23
 2409 0e38 06       		.uleb128 0x6
 2410 0e39 330E0000 		.4byte	0xe33
 2411 0e3d 05       		.uleb128 0x5
 2412 0e3e D7060000 		.4byte	0x6d7
 2413 0e42 06       		.uleb128 0x6
 2414 0e43 3D0E0000 		.4byte	0xe3d
 2415 0e47 07       		.uleb128 0x7
 2416 0e48 FB000000 		.4byte	0xfb
 2417 0e4c 570E0000 		.4byte	0xe57
 2418 0e50 08       		.uleb128 0x8
 2419 0e51 00010000 		.4byte	0x100
 2420 0e55 33       		.byte	0x33
 2421 0e56 00       		.byte	0
 2422 0e57 05       		.uleb128 0x5
 2423 0e58 470E0000 		.4byte	0xe47
 2424 0e5c 06       		.uleb128 0x6
 2425 0e5d 570E0000 		.4byte	0xe57
 2426 0e61 07       		.uleb128 0x7
 2427 0e62 E40D0000 		.4byte	0xde4
 2428 0e66 710E0000 		.4byte	0xe71
 2429 0e6a 08       		.uleb128 0x8
 2430 0e6b 00010000 		.4byte	0x100
 2431 0e6f 5E       		.byte	0x5e
 2432 0e70 00       		.byte	0
 2433 0e71 05       		.uleb128 0x5
 2434 0e72 610E0000 		.4byte	0xe61
 2435 0e76 06       		.uleb128 0x6
 2436 0e77 710E0000 		.4byte	0xe71
 2437 0e7b 07       		.uleb128 0x7
 2438 0e7c F6000000 		.4byte	0xf6
ARM GAS  C:\Users\Rolf\AppData\Local\Temp\ccEjvRQz.s 			page 68


 2439 0e80 8B0E0000 		.4byte	0xe8b
 2440 0e84 08       		.uleb128 0x8
 2441 0e85 00010000 		.4byte	0x100
 2442 0e89 7F       		.byte	0x7f
 2443 0e8a 00       		.byte	0
 2444 0e8b 05       		.uleb128 0x5
 2445 0e8c 7B0E0000 		.4byte	0xe7b
 2446 0e90 05       		.uleb128 0x5
 2447 0e91 7B0E0000 		.4byte	0xe7b
 2448 0e95 05       		.uleb128 0x5
 2449 0e96 7B0E0000 		.4byte	0xe7b
 2450 0e9a 05       		.uleb128 0x5
 2451 0e9b 7B0E0000 		.4byte	0xe7b
 2452 0e9f 07       		.uleb128 0x7
 2453 0ea0 FB000000 		.4byte	0xfb
 2454 0ea4 B00E0000 		.4byte	0xeb0
 2455 0ea8 0C       		.uleb128 0xc
 2456 0ea9 00010000 		.4byte	0x100
 2457 0ead 2D01     		.2byte	0x12d
 2458 0eaf 00       		.byte	0
 2459 0eb0 05       		.uleb128 0x5
 2460 0eb1 9F0E0000 		.4byte	0xe9f
 2461 0eb5 06       		.uleb128 0x6
 2462 0eb6 B00E0000 		.4byte	0xeb0
 2463 0eba 07       		.uleb128 0x7
 2464 0ebb BB0D0000 		.4byte	0xdbb
 2465 0ebf CA0E0000 		.4byte	0xeca
 2466 0ec3 08       		.uleb128 0x8
 2467 0ec4 00010000 		.4byte	0x100
 2468 0ec8 0F       		.byte	0xf
 2469 0ec9 00       		.byte	0
 2470 0eca 05       		.uleb128 0x5
 2471 0ecb BA0E0000 		.4byte	0xeba
 2472 0ecf 05       		.uleb128 0x5
 2473 0ed0 BA0E0000 		.4byte	0xeba
 2474 0ed4 05       		.uleb128 0x5
 2475 0ed5 17010000 		.4byte	0x117
 2476 0ed9 05       		.uleb128 0x5
 2477 0eda 17010000 		.4byte	0x117
 2478 0ede 05       		.uleb128 0x5
 2479 0edf 17010000 		.4byte	0x117
 2480 0ee3 05       		.uleb128 0x5
 2481 0ee4 17010000 		.4byte	0x117
 2482 0ee8 05       		.uleb128 0x5
 2483 0ee9 17010000 		.4byte	0x117
 2484 0eed 07       		.uleb128 0x7
 2485 0eee FB000000 		.4byte	0xfb
 2486 0ef2 FD0E0000 		.4byte	0xefd
 2487 0ef6 08       		.uleb128 0x8
 2488 0ef7 00010000 		.4byte	0x100
 2489 0efb 79       		.byte	0x79
 2490 0efc 00       		.byte	0
 2491 0efd 05       		.uleb128 0x5
 2492 0efe ED0E0000 		.4byte	0xeed
 2493 0f02 06       		.uleb128 0x6
 2494 0f03 FD0E0000 		.4byte	0xefd
 2495 0f07 05       		.uleb128 0x5
ARM GAS  C:\Users\Rolf\AppData\Local\Temp\ccEjvRQz.s 			page 69


 2496 0f08 27010000 		.4byte	0x127
 2497 0f0c 06       		.uleb128 0x6
 2498 0f0d 070F0000 		.4byte	0xf07
 2499 0f11 07       		.uleb128 0x7
 2500 0f12 FB000000 		.4byte	0xfb
 2501 0f16 220F0000 		.4byte	0xf22
 2502 0f1a 0C       		.uleb128 0xc
 2503 0f1b 00010000 		.4byte	0x100
 2504 0f1f EA01     		.2byte	0x1ea
 2505 0f21 00       		.byte	0
 2506 0f22 05       		.uleb128 0x5
 2507 0f23 110F0000 		.4byte	0xf11
 2508 0f27 06       		.uleb128 0x6
 2509 0f28 220F0000 		.4byte	0xf22
 2510 0f2c 07       		.uleb128 0x7
 2511 0f2d FB000000 		.4byte	0xfb
 2512 0f31 3C0F0000 		.4byte	0xf3c
 2513 0f35 08       		.uleb128 0x8
 2514 0f36 00010000 		.4byte	0x100
 2515 0f3a 2F       		.byte	0x2f
 2516 0f3b 00       		.byte	0
 2517 0f3c 05       		.uleb128 0x5
 2518 0f3d 2C0F0000 		.4byte	0xf2c
 2519 0f41 06       		.uleb128 0x6
 2520 0f42 3C0F0000 		.4byte	0xf3c
 2521 0f46 07       		.uleb128 0x7
 2522 0f47 BB0D0000 		.4byte	0xdbb
 2523 0f4b 570F0000 		.4byte	0xf57
 2524 0f4f 0C       		.uleb128 0xc
 2525 0f50 00010000 		.4byte	0x100
 2526 0f54 2739     		.2byte	0x3927
 2527 0f56 00       		.byte	0
 2528 0f57 05       		.uleb128 0x5
 2529 0f58 460F0000 		.4byte	0xf46
 2530 0f5c 07       		.uleb128 0x7
 2531 0f5d BB0D0000 		.4byte	0xdbb
 2532 0f61 6D0F0000 		.4byte	0xf6d
 2533 0f65 0C       		.uleb128 0xc
 2534 0f66 00010000 		.4byte	0x100
 2535 0f6a FF0B     		.2byte	0xbff
 2536 0f6c 00       		.byte	0
 2537 0f6d 05       		.uleb128 0x5
 2538 0f6e 5C0F0000 		.4byte	0xf5c
 2539 0f72 07       		.uleb128 0x7
 2540 0f73 F6000000 		.4byte	0xf6
 2541 0f77 830F0000 		.4byte	0xf83
 2542 0f7b 0C       		.uleb128 0xc
 2543 0f7c 00010000 		.4byte	0x100
 2544 0f80 7F01     		.2byte	0x17f
 2545 0f82 00       		.byte	0
 2546 0f83 05       		.uleb128 0x5
 2547 0f84 720F0000 		.4byte	0xf72
 2548 0f88 07       		.uleb128 0x7
 2549 0f89 FB000000 		.4byte	0xfb
 2550 0f8d 990F0000 		.4byte	0xf99
 2551 0f91 0C       		.uleb128 0xc
 2552 0f92 00010000 		.4byte	0x100
ARM GAS  C:\Users\Rolf\AppData\Local\Temp\ccEjvRQz.s 			page 70


 2553 0f96 FF02     		.2byte	0x2ff
 2554 0f98 00       		.byte	0
 2555 0f99 05       		.uleb128 0x5
 2556 0f9a 880F0000 		.4byte	0xf88
 2557 0f9e 06       		.uleb128 0x6
 2558 0f9f 990F0000 		.4byte	0xf99
 2559 0fa3 07       		.uleb128 0x7
 2560 0fa4 FB000000 		.4byte	0xfb
 2561 0fa8 B30F0000 		.4byte	0xfb3
 2562 0fac 08       		.uleb128 0x8
 2563 0fad 00010000 		.4byte	0x100
 2564 0fb1 76       		.byte	0x76
 2565 0fb2 00       		.byte	0
 2566 0fb3 05       		.uleb128 0x5
 2567 0fb4 A30F0000 		.4byte	0xfa3
 2568 0fb8 06       		.uleb128 0x6
 2569 0fb9 B30F0000 		.4byte	0xfb3
 2570 0fbd 05       		.uleb128 0x5
 2571 0fbe A30F0000 		.4byte	0xfa3
 2572 0fc2 06       		.uleb128 0x6
 2573 0fc3 BD0F0000 		.4byte	0xfbd
 2574 0fc7 07       		.uleb128 0x7
 2575 0fc8 FB000000 		.4byte	0xfb
 2576 0fcc D70F0000 		.4byte	0xfd7
 2577 0fd0 08       		.uleb128 0x8
 2578 0fd1 00010000 		.4byte	0x100
 2579 0fd5 72       		.byte	0x72
 2580 0fd6 00       		.byte	0
 2581 0fd7 05       		.uleb128 0x5
 2582 0fd8 C70F0000 		.4byte	0xfc7
 2583 0fdc 06       		.uleb128 0x6
 2584 0fdd D70F0000 		.4byte	0xfd7
 2585 0fe1 05       		.uleb128 0x5
 2586 0fe2 C70F0000 		.4byte	0xfc7
 2587 0fe6 06       		.uleb128 0x6
 2588 0fe7 E10F0000 		.4byte	0xfe1
 2589 0feb 03       		.uleb128 0x3
 2590 0fec 210B0000 		.4byte	.LASF211
 2591 0ff0 06       		.byte	0x6
 2592 0ff1 AC       		.byte	0xac
 2593 0ff2 D5070000 		.4byte	0x7d5
 2594 0ff6 0E       		.uleb128 0xe
 2595 0ff7 40       		.byte	0x40
 2596 0ff8 07       		.byte	0x7
 2597 0ff9 22       		.byte	0x22
 2598 0ffa 8F100000 		.4byte	0x108f
 2599 0ffe 0A       		.uleb128 0xa
 2600 0fff D7090000 		.4byte	.LASF48
 2601 1003 07       		.byte	0x7
 2602 1004 23       		.byte	0x23
 2603 1005 FB000000 		.4byte	0xfb
 2604 1009 00       		.byte	0
 2605 100a 0A       		.uleb128 0xa
 2606 100b 4C190000 		.4byte	.LASF212
 2607 100f 07       		.byte	0x7
 2608 1010 24       		.byte	0x24
 2609 1011 F6000000 		.4byte	0xf6
ARM GAS  C:\Users\Rolf\AppData\Local\Temp\ccEjvRQz.s 			page 71


 2610 1015 04       		.byte	0x4
 2611 1016 0A       		.uleb128 0xa
 2612 1017 69100000 		.4byte	.LASF213
 2613 101b 07       		.byte	0x7
 2614 101c 25       		.byte	0x25
 2615 101d F6000000 		.4byte	0xf6
 2616 1021 08       		.byte	0x8
 2617 1022 0A       		.uleb128 0xa
 2618 1023 59070000 		.4byte	.LASF214
 2619 1027 07       		.byte	0x7
 2620 1028 26       		.byte	0x26
 2621 1029 F6000000 		.4byte	0xf6
 2622 102d 0C       		.byte	0xc
 2623 102e 0A       		.uleb128 0xa
 2624 102f 28070000 		.4byte	.LASF215
 2625 1033 07       		.byte	0x7
 2626 1034 27       		.byte	0x27
 2627 1035 F6000000 		.4byte	0xf6
 2628 1039 10       		.byte	0x10
 2629 103a 0A       		.uleb128 0xa
 2630 103b 4B170000 		.4byte	.LASF216
 2631 103f 07       		.byte	0x7
 2632 1040 28       		.byte	0x28
 2633 1041 F6000000 		.4byte	0xf6
 2634 1045 14       		.byte	0x14
 2635 1046 0A       		.uleb128 0xa
 2636 1047 AF090000 		.4byte	.LASF217
 2637 104b 07       		.byte	0x7
 2638 104c 29       		.byte	0x29
 2639 104d F6000000 		.4byte	0xf6
 2640 1051 18       		.byte	0x18
 2641 1052 0A       		.uleb128 0xa
 2642 1053 AA070000 		.4byte	.LASF218
 2643 1057 07       		.byte	0x7
 2644 1058 2A       		.byte	0x2a
 2645 1059 F6000000 		.4byte	0xf6
 2646 105d 1C       		.byte	0x1c
 2647 105e 0A       		.uleb128 0xa
 2648 105f 49020000 		.4byte	.LASF219
 2649 1063 07       		.byte	0x7
 2650 1064 2B       		.byte	0x2b
 2651 1065 F6000000 		.4byte	0xf6
 2652 1069 20       		.byte	0x20
 2653 106a 0A       		.uleb128 0xa
 2654 106b B6080000 		.4byte	.LASF220
 2655 106f 07       		.byte	0x7
 2656 1070 2C       		.byte	0x2c
 2657 1071 FB000000 		.4byte	0xfb
 2658 1075 24       		.byte	0x24
 2659 1076 0A       		.uleb128 0xa
 2660 1077 5A0E0000 		.4byte	.LASF221
 2661 107b 07       		.byte	0x7
 2662 107c 2D       		.byte	0x2d
 2663 107d F6000000 		.4byte	0xf6
 2664 1081 28       		.byte	0x28
 2665 1082 0A       		.uleb128 0xa
 2666 1083 C8050000 		.4byte	.LASF54
ARM GAS  C:\Users\Rolf\AppData\Local\Temp\ccEjvRQz.s 			page 72


 2667 1087 07       		.byte	0x7
 2668 1088 2E       		.byte	0x2e
 2669 1089 94100000 		.4byte	0x1094
 2670 108d 2C       		.byte	0x2c
 2671 108e 00       		.byte	0
 2672 108f 05       		.uleb128 0x5
 2673 1090 47010000 		.4byte	0x147
 2674 1094 06       		.uleb128 0x6
 2675 1095 8F100000 		.4byte	0x108f
 2676 1099 03       		.uleb128 0x3
 2677 109a DD170000 		.4byte	.LASF222
 2678 109e 07       		.byte	0x7
 2679 109f 2F       		.byte	0x2f
 2680 10a0 F60F0000 		.4byte	0xff6
 2681 10a4 09       		.uleb128 0x9
 2682 10a5 30FF     		.2byte	0xff30
 2683 10a7 07       		.byte	0x7
 2684 10a8 34       		.byte	0x34
 2685 10a9 18140000 		.4byte	0x1418
 2686 10ad 0A       		.uleb128 0xa
 2687 10ae E0060000 		.4byte	.LASF223
 2688 10b2 07       		.byte	0x7
 2689 10b3 35       		.byte	0x35
 2690 10b4 F6000000 		.4byte	0xf6
 2691 10b8 00       		.byte	0
 2692 10b9 0A       		.uleb128 0xa
 2693 10ba D00A0000 		.4byte	.LASF224
 2694 10be 07       		.byte	0x7
 2695 10bf 36       		.byte	0x36
 2696 10c0 F6000000 		.4byte	0xf6
 2697 10c4 04       		.byte	0x4
 2698 10c5 0A       		.uleb128 0xa
 2699 10c6 7D020000 		.4byte	.LASF225
 2700 10ca 07       		.byte	0x7
 2701 10cb 37       		.byte	0x37
 2702 10cc F6000000 		.4byte	0xf6
 2703 10d0 08       		.byte	0x8
 2704 10d1 0A       		.uleb128 0xa
 2705 10d2 D7090000 		.4byte	.LASF48
 2706 10d6 07       		.byte	0x7
 2707 10d7 38       		.byte	0x38
 2708 10d8 1D140000 		.4byte	0x141d
 2709 10dc 0C       		.byte	0xc
 2710 10dd 0A       		.uleb128 0xa
 2711 10de 23000000 		.4byte	.LASF226
 2712 10e2 07       		.byte	0x7
 2713 10e3 39       		.byte	0x39
 2714 10e4 F6000000 		.4byte	0xf6
 2715 10e8 14       		.byte	0x14
 2716 10e9 0A       		.uleb128 0xa
 2717 10ea 07150000 		.4byte	.LASF227
 2718 10ee 07       		.byte	0x7
 2719 10ef 3A       		.byte	0x3a
 2720 10f0 F6000000 		.4byte	0xf6
 2721 10f4 18       		.byte	0x18
 2722 10f5 0A       		.uleb128 0xa
 2723 10f6 8D1B0000 		.4byte	.LASF228
ARM GAS  C:\Users\Rolf\AppData\Local\Temp\ccEjvRQz.s 			page 73


 2724 10fa 07       		.byte	0x7
 2725 10fb 3B       		.byte	0x3b
 2726 10fc FB000000 		.4byte	0xfb
 2727 1100 1C       		.byte	0x1c
 2728 1101 0A       		.uleb128 0xa
 2729 1102 C8050000 		.4byte	.LASF54
 2730 1106 07       		.byte	0x7
 2731 1107 3C       		.byte	0x3c
 2732 1108 37140000 		.4byte	0x1437
 2733 110c 20       		.byte	0x20
 2734 110d 0A       		.uleb128 0xa
 2735 110e 370D0000 		.4byte	.LASF229
 2736 1112 07       		.byte	0x7
 2737 1113 3D       		.byte	0x3d
 2738 1114 3C140000 		.4byte	0x143c
 2739 1118 80       		.byte	0x80
 2740 1119 0A       		.uleb128 0xa
 2741 111a 14070000 		.4byte	.LASF56
 2742 111e 07       		.byte	0x7
 2743 111f 3E       		.byte	0x3e
 2744 1120 46140000 		.4byte	0x1446
 2745 1124 C0       		.byte	0xc0
 2746 1125 0B       		.uleb128 0xb
 2747 1126 631C0000 		.4byte	.LASF230
 2748 112a 07       		.byte	0x7
 2749 112b 3F       		.byte	0x3f
 2750 112c F6000000 		.4byte	0xf6
 2751 1130 8001     		.2byte	0x180
 2752 1132 0B       		.uleb128 0xb
 2753 1133 07170000 		.4byte	.LASF231
 2754 1137 07       		.byte	0x7
 2755 1138 40       		.byte	0x40
 2756 1139 F6000000 		.4byte	0xf6
 2757 113d 8401     		.2byte	0x184
 2758 113f 0B       		.uleb128 0xb
 2759 1140 351C0000 		.4byte	.LASF232
 2760 1144 07       		.byte	0x7
 2761 1145 41       		.byte	0x41
 2762 1146 F6000000 		.4byte	0xf6
 2763 114a 8801     		.2byte	0x188
 2764 114c 0B       		.uleb128 0xb
 2765 114d 1E070000 		.4byte	.LASF78
 2766 1151 07       		.byte	0x7
 2767 1152 42       		.byte	0x42
 2768 1153 50140000 		.4byte	0x1450
 2769 1157 8C01     		.2byte	0x18c
 2770 1159 0B       		.uleb128 0xb
 2771 115a 77170000 		.4byte	.LASF233
 2772 115e 07       		.byte	0x7
 2773 115f 43       		.byte	0x43
 2774 1160 55140000 		.4byte	0x1455
 2775 1164 0002     		.2byte	0x200
 2776 1166 0B       		.uleb128 0xb
 2777 1167 4E130000 		.4byte	.LASF234
 2778 116b 07       		.byte	0x7
 2779 116c 44       		.byte	0x44
 2780 116d 65140000 		.4byte	0x1465
ARM GAS  C:\Users\Rolf\AppData\Local\Temp\ccEjvRQz.s 			page 74


 2781 1171 0003     		.2byte	0x300
 2782 1173 0B       		.uleb128 0xb
 2783 1174 3C090000 		.4byte	.LASF235
 2784 1178 07       		.byte	0x7
 2785 1179 45       		.byte	0x45
 2786 117a 6A140000 		.4byte	0x146a
 2787 117e 4003     		.2byte	0x340
 2788 1180 0B       		.uleb128 0xb
 2789 1181 80080000 		.4byte	.LASF236
 2790 1185 07       		.byte	0x7
 2791 1186 46       		.byte	0x46
 2792 1187 6F140000 		.4byte	0x146f
 2793 118b 8003     		.2byte	0x380
 2794 118d 0B       		.uleb128 0xb
 2795 118e 08060000 		.4byte	.LASF83
 2796 1192 07       		.byte	0x7
 2797 1193 47       		.byte	0x47
 2798 1194 79140000 		.4byte	0x1479
 2799 1198 C003     		.2byte	0x3c0
 2800 119a 0B       		.uleb128 0xb
 2801 119b 4A0B0000 		.4byte	.LASF237
 2802 119f 07       		.byte	0x7
 2803 11a0 48       		.byte	0x48
 2804 11a1 F6000000 		.4byte	0xf6
 2805 11a5 0005     		.2byte	0x500
 2806 11a7 0B       		.uleb128 0xb
 2807 11a8 CF100000 		.4byte	.LASF238
 2808 11ac 07       		.byte	0x7
 2809 11ad 49       		.byte	0x49
 2810 11ae F6000000 		.4byte	0xf6
 2811 11b2 0405     		.2byte	0x504
 2812 11b4 0B       		.uleb128 0xb
 2813 11b5 12060000 		.4byte	.LASF87
 2814 11b9 07       		.byte	0x7
 2815 11ba 4A       		.byte	0x4a
 2816 11bb FB000000 		.4byte	0xfb
 2817 11bf 0805     		.2byte	0x508
 2818 11c1 0B       		.uleb128 0xb
 2819 11c2 4C1A0000 		.4byte	.LASF239
 2820 11c6 07       		.byte	0x7
 2821 11c7 4B       		.byte	0x4b
 2822 11c8 F6000000 		.4byte	0xf6
 2823 11cc 0C05     		.2byte	0x50c
 2824 11ce 0B       		.uleb128 0xb
 2825 11cf 55170000 		.4byte	.LASF240
 2826 11d3 07       		.byte	0x7
 2827 11d4 4C       		.byte	0x4c
 2828 11d5 F6000000 		.4byte	0xf6
 2829 11d9 1005     		.2byte	0x510
 2830 11db 0B       		.uleb128 0xb
 2831 11dc B11A0000 		.4byte	.LASF241
 2832 11e0 07       		.byte	0x7
 2833 11e1 4D       		.byte	0x4d
 2834 11e2 F6000000 		.4byte	0xf6
 2835 11e6 1405     		.2byte	0x514
 2836 11e8 0B       		.uleb128 0xb
 2837 11e9 B1120000 		.4byte	.LASF242
ARM GAS  C:\Users\Rolf\AppData\Local\Temp\ccEjvRQz.s 			page 75


 2838 11ed 07       		.byte	0x7
 2839 11ee 4E       		.byte	0x4e
 2840 11ef F6000000 		.4byte	0xf6
 2841 11f3 1805     		.2byte	0x518
 2842 11f5 0B       		.uleb128 0xb
 2843 11f6 86090000 		.4byte	.LASF243
 2844 11fa 07       		.byte	0x7
 2845 11fb 4F       		.byte	0x4f
 2846 11fc F6000000 		.4byte	0xf6
 2847 1200 1C05     		.2byte	0x51c
 2848 1202 0B       		.uleb128 0xb
 2849 1203 93090000 		.4byte	.LASF244
 2850 1207 07       		.byte	0x7
 2851 1208 50       		.byte	0x50
 2852 1209 FB000000 		.4byte	0xfb
 2853 120d 2005     		.2byte	0x520
 2854 120f 0B       		.uleb128 0xb
 2855 1210 1C060000 		.4byte	.LASF89
 2856 1214 07       		.byte	0x7
 2857 1215 51       		.byte	0x51
 2858 1216 83140000 		.4byte	0x1483
 2859 121a 2405     		.2byte	0x524
 2860 121c 0B       		.uleb128 0xb
 2861 121d EF120000 		.4byte	.LASF245
 2862 1221 07       		.byte	0x7
 2863 1222 52       		.byte	0x52
 2864 1223 F6000000 		.4byte	0xf6
 2865 1227 2C05     		.2byte	0x52c
 2866 1229 0B       		.uleb128 0xb
 2867 122a 701C0000 		.4byte	.LASF246
 2868 122e 07       		.byte	0x7
 2869 122f 53       		.byte	0x53
 2870 1230 FB000000 		.4byte	0xfb
 2871 1234 3005     		.2byte	0x530
 2872 1236 0B       		.uleb128 0xb
 2873 1237 26060000 		.4byte	.LASF91
 2874 123b 07       		.byte	0x7
 2875 123c 54       		.byte	0x54
 2876 123d 8D140000 		.4byte	0x148d
 2877 1241 3405     		.2byte	0x534
 2878 1243 0B       		.uleb128 0xb
 2879 1244 141C0000 		.4byte	.LASF247
 2880 1248 07       		.byte	0x7
 2881 1249 55       		.byte	0x55
 2882 124a F6000000 		.4byte	0xf6
 2883 124e 3C05     		.2byte	0x53c
 2884 1250 0B       		.uleb128 0xb
 2885 1251 30060000 		.4byte	.LASF93
 2886 1255 07       		.byte	0x7
 2887 1256 56       		.byte	0x56
 2888 1257 97140000 		.4byte	0x1497
 2889 125b 4005     		.2byte	0x540
 2890 125d 0B       		.uleb128 0xb
 2891 125e 5F050000 		.4byte	.LASF248
 2892 1262 07       		.byte	0x7
 2893 1263 57       		.byte	0x57
 2894 1264 F6000000 		.4byte	0xf6
ARM GAS  C:\Users\Rolf\AppData\Local\Temp\ccEjvRQz.s 			page 76


 2895 1268 8005     		.2byte	0x580
 2896 126a 0B       		.uleb128 0xb
 2897 126b C90C0000 		.4byte	.LASF249
 2898 126f 07       		.byte	0x7
 2899 1270 58       		.byte	0x58
 2900 1271 F6000000 		.4byte	0xf6
 2901 1275 8405     		.2byte	0x584
 2902 1277 0B       		.uleb128 0xb
 2903 1278 DF120000 		.4byte	.LASF250
 2904 127c 07       		.byte	0x7
 2905 127d 59       		.byte	0x59
 2906 127e F6000000 		.4byte	0xf6
 2907 1282 8805     		.2byte	0x588
 2908 1284 0B       		.uleb128 0xb
 2909 1285 ED0C0000 		.4byte	.LASF251
 2910 1289 07       		.byte	0x7
 2911 128a 5A       		.byte	0x5a
 2912 128b F6000000 		.4byte	0xf6
 2913 128f 8C05     		.2byte	0x58c
 2914 1291 0B       		.uleb128 0xb
 2915 1292 77100000 		.4byte	.LASF252
 2916 1296 07       		.byte	0x7
 2917 1297 5B       		.byte	0x5b
 2918 1298 F6000000 		.4byte	0xf6
 2919 129c 9005     		.2byte	0x590
 2920 129e 0B       		.uleb128 0xb
 2921 129f 3A060000 		.4byte	.LASF95
 2922 12a3 07       		.byte	0x7
 2923 12a4 5C       		.byte	0x5c
 2924 12a5 A1140000 		.4byte	0x14a1
 2925 12a9 9405     		.2byte	0x594
 2926 12ab 0B       		.uleb128 0xb
 2927 12ac 2D0F0000 		.4byte	.LASF253
 2928 12b0 07       		.byte	0x7
 2929 12b1 5D       		.byte	0x5d
 2930 12b2 B6140000 		.4byte	0x14b6
 2931 12b6 0006     		.2byte	0x600
 2932 12b8 0B       		.uleb128 0xb
 2933 12b9 6B140000 		.4byte	.LASF97
 2934 12bd 07       		.byte	0x7
 2935 12be 5E       		.byte	0x5e
 2936 12bf FB000000 		.4byte	0xfb
 2937 12c3 3C06     		.2byte	0x63c
 2938 12c5 0B       		.uleb128 0xb
 2939 12c6 64160000 		.4byte	.LASF254
 2940 12ca 07       		.byte	0x7
 2941 12cb 5F       		.byte	0x5f
 2942 12cc BB140000 		.4byte	0x14bb
 2943 12d0 4006     		.2byte	0x640
 2944 12d2 0B       		.uleb128 0xb
 2945 12d3 76140000 		.4byte	.LASF99
 2946 12d7 07       		.byte	0x7
 2947 12d8 60       		.byte	0x60
 2948 12d9 D5140000 		.4byte	0x14d5
 2949 12dd 7C06     		.2byte	0x67c
 2950 12df 0B       		.uleb128 0xb
 2951 12e0 42010000 		.4byte	.LASF255
ARM GAS  C:\Users\Rolf\AppData\Local\Temp\ccEjvRQz.s 			page 77


 2952 12e4 07       		.byte	0x7
 2953 12e5 61       		.byte	0x61
 2954 12e6 F6000000 		.4byte	0xf6
 2955 12ea 0007     		.2byte	0x700
 2956 12ec 0B       		.uleb128 0xb
 2957 12ed 3D040000 		.4byte	.LASF256
 2958 12f1 07       		.byte	0x7
 2959 12f2 62       		.byte	0x62
 2960 12f3 F6000000 		.4byte	0xf6
 2961 12f7 0407     		.2byte	0x704
 2962 12f9 0B       		.uleb128 0xb
 2963 12fa 86110000 		.4byte	.LASF257
 2964 12fe 07       		.byte	0x7
 2965 12ff 63       		.byte	0x63
 2966 1300 F6000000 		.4byte	0xf6
 2967 1304 0807     		.2byte	0x708
 2968 1306 0B       		.uleb128 0xb
 2969 1307 44120000 		.4byte	.LASF258
 2970 130b 07       		.byte	0x7
 2971 130c 64       		.byte	0x64
 2972 130d FB000000 		.4byte	0xfb
 2973 1311 0C07     		.2byte	0x70c
 2974 1313 0B       		.uleb128 0xb
 2975 1314 A01C0000 		.4byte	.LASF259
 2976 1318 07       		.byte	0x7
 2977 1319 65       		.byte	0x65
 2978 131a F6000000 		.4byte	0xf6
 2979 131e 1007     		.2byte	0x710
 2980 1320 0B       		.uleb128 0xb
 2981 1321 81140000 		.4byte	.LASF101
 2982 1325 07       		.byte	0x7
 2983 1326 66       		.byte	0x66
 2984 1327 EF140000 		.4byte	0x14ef
 2985 132b 1407     		.2byte	0x714
 2986 132d 0B       		.uleb128 0xb
 2987 132e 7C110000 		.4byte	.LASF260
 2988 1332 07       		.byte	0x7
 2989 1333 67       		.byte	0x67
 2990 1334 F6000000 		.4byte	0xf6
 2991 1338 0008     		.2byte	0x800
 2992 133a 0B       		.uleb128 0xb
 2993 133b F30A0000 		.4byte	.LASF261
 2994 133f 07       		.byte	0x7
 2995 1340 68       		.byte	0x68
 2996 1341 F6000000 		.4byte	0xf6
 2997 1345 0408     		.2byte	0x804
 2998 1347 0B       		.uleb128 0xb
 2999 1348 8C140000 		.4byte	.LASF103
 3000 134c 07       		.byte	0x7
 3001 134d 69       		.byte	0x69
 3002 134e 0A150000 		.4byte	0x150a
 3003 1352 0808     		.2byte	0x808
 3004 1354 0B       		.uleb128 0xb
 3005 1355 63150000 		.4byte	.LASF262
 3006 1359 07       		.byte	0x7
 3007 135a 6A       		.byte	0x6a
 3008 135b F6000000 		.4byte	0xf6
ARM GAS  C:\Users\Rolf\AppData\Local\Temp\ccEjvRQz.s 			page 78


 3009 135f 007F     		.2byte	0x7f00
 3010 1361 0B       		.uleb128 0xb
 3011 1362 D90C0000 		.4byte	.LASF263
 3012 1366 07       		.byte	0x7
 3013 1367 6B       		.byte	0x6b
 3014 1368 F6000000 		.4byte	0xf6
 3015 136c 047F     		.2byte	0x7f04
 3016 136e 0B       		.uleb128 0xb
 3017 136f 76030000 		.4byte	.LASF264
 3018 1373 07       		.byte	0x7
 3019 1374 6C       		.byte	0x6c
 3020 1375 F6000000 		.4byte	0xf6
 3021 1379 087F     		.2byte	0x7f08
 3022 137b 0B       		.uleb128 0xb
 3023 137c D9160000 		.4byte	.LASF265
 3024 1380 07       		.byte	0x7
 3025 1381 6D       		.byte	0x6d
 3026 1382 F6000000 		.4byte	0xf6
 3027 1386 0C7F     		.2byte	0x7f0c
 3028 1388 0B       		.uleb128 0xb
 3029 1389 97140000 		.4byte	.LASF105
 3030 138d 07       		.byte	0x7
 3031 138e 6E       		.byte	0x6e
 3032 138f 14150000 		.4byte	0x1514
 3033 1393 107F     		.2byte	0x7f10
 3034 1395 0B       		.uleb128 0xb
 3035 1396 C11A0000 		.4byte	.LASF146
 3036 139a 07       		.byte	0x7
 3037 139b 6F       		.byte	0x6f
 3038 139c F6000000 		.4byte	0xf6
 3039 13a0 307F     		.2byte	0x7f30
 3040 13a2 0B       		.uleb128 0xb
 3041 13a3 A2140000 		.4byte	.LASF107
 3042 13a7 07       		.byte	0x7
 3043 13a8 70       		.byte	0x70
 3044 13a9 2F150000 		.4byte	0x152f
 3045 13ad 347F     		.2byte	0x7f34
 3046 13af 0B       		.uleb128 0xb
 3047 13b0 FF170000 		.4byte	.LASF266
 3048 13b4 07       		.byte	0x7
 3049 13b5 71       		.byte	0x71
 3050 13b6 F6000000 		.4byte	0xf6
 3051 13ba 10FF     		.2byte	0xff10
 3052 13bc 0B       		.uleb128 0xb
 3053 13bd AD140000 		.4byte	.LASF109
 3054 13c1 07       		.byte	0x7
 3055 13c2 72       		.byte	0x72
 3056 13c3 FB000000 		.4byte	0xfb
 3057 13c7 14FF     		.2byte	0xff14
 3058 13c9 0B       		.uleb128 0xb
 3059 13ca 241C0000 		.4byte	.LASF267
 3060 13ce 07       		.byte	0x7
 3061 13cf 73       		.byte	0x73
 3062 13d0 F6000000 		.4byte	0xf6
 3063 13d4 18FF     		.2byte	0xff18
 3064 13d6 0B       		.uleb128 0xb
 3065 13d7 730E0000 		.4byte	.LASF268
ARM GAS  C:\Users\Rolf\AppData\Local\Temp\ccEjvRQz.s 			page 79


 3066 13db 07       		.byte	0x7
 3067 13dc 74       		.byte	0x74
 3068 13dd F6000000 		.4byte	0xf6
 3069 13e1 1CFF     		.2byte	0xff1c
 3070 13e3 0B       		.uleb128 0xb
 3071 13e4 C9060000 		.4byte	.LASF269
 3072 13e8 07       		.byte	0x7
 3073 13e9 75       		.byte	0x75
 3074 13ea F6000000 		.4byte	0xf6
 3075 13ee 20FF     		.2byte	0xff20
 3076 13f0 0B       		.uleb128 0xb
 3077 13f1 53080000 		.4byte	.LASF270
 3078 13f5 07       		.byte	0x7
 3079 13f6 76       		.byte	0x76
 3080 13f7 F6000000 		.4byte	0xf6
 3081 13fb 24FF     		.2byte	0xff24
 3082 13fd 0B       		.uleb128 0xb
 3083 13fe DD000000 		.4byte	.LASF271
 3084 1402 07       		.byte	0x7
 3085 1403 77       		.byte	0x77
 3086 1404 F6000000 		.4byte	0xf6
 3087 1408 28FF     		.2byte	0xff28
 3088 140a 0B       		.uleb128 0xb
 3089 140b F0000000 		.4byte	.LASF272
 3090 140f 07       		.byte	0x7
 3091 1410 78       		.byte	0x78
 3092 1411 F6000000 		.4byte	0xf6
 3093 1415 2CFF     		.2byte	0xff2c
 3094 1417 00       		.byte	0
 3095 1418 05       		.uleb128 0x5
 3096 1419 A5070000 		.4byte	0x7a5
 3097 141d 06       		.uleb128 0x6
 3098 141e 18140000 		.4byte	0x1418
 3099 1422 07       		.uleb128 0x7
 3100 1423 FB000000 		.4byte	0xfb
 3101 1427 32140000 		.4byte	0x1432
 3102 142b 08       		.uleb128 0x8
 3103 142c 00010000 		.4byte	0x100
 3104 1430 17       		.byte	0x17
 3105 1431 00       		.byte	0
 3106 1432 05       		.uleb128 0x5
 3107 1433 22140000 		.4byte	0x1422
 3108 1437 06       		.uleb128 0x6
 3109 1438 32140000 		.4byte	0x1432
 3110 143c 05       		.uleb128 0x5
 3111 143d 17010000 		.4byte	0x117
 3112 1441 05       		.uleb128 0x5
 3113 1442 2C0F0000 		.4byte	0xf2c
 3114 1446 06       		.uleb128 0x6
 3115 1447 41140000 		.4byte	0x1441
 3116 144b 05       		.uleb128 0x5
 3117 144c 87010000 		.4byte	0x187
 3118 1450 06       		.uleb128 0x6
 3119 1451 4B140000 		.4byte	0x144b
 3120 1455 07       		.uleb128 0x7
 3121 1456 99100000 		.4byte	0x1099
 3122 145a 65140000 		.4byte	0x1465
ARM GAS  C:\Users\Rolf\AppData\Local\Temp\ccEjvRQz.s 			page 80


 3123 145e 08       		.uleb128 0x8
 3124 145f 00010000 		.4byte	0x100
 3125 1463 03       		.byte	0x3
 3126 1464 00       		.byte	0
 3127 1465 05       		.uleb128 0x5
 3128 1466 17010000 		.4byte	0x117
 3129 146a 05       		.uleb128 0x5
 3130 146b 17010000 		.4byte	0x117
 3131 146f 05       		.uleb128 0x5
 3132 1470 17010000 		.4byte	0x117
 3133 1474 05       		.uleb128 0x5
 3134 1475 B5070000 		.4byte	0x7b5
 3135 1479 06       		.uleb128 0x6
 3136 147a 74140000 		.4byte	0x1474
 3137 147e 05       		.uleb128 0x5
 3138 147f A5070000 		.4byte	0x7a5
 3139 1483 06       		.uleb128 0x6
 3140 1484 7E140000 		.4byte	0x147e
 3141 1488 05       		.uleb128 0x5
 3142 1489 A5070000 		.4byte	0x7a5
 3143 148d 06       		.uleb128 0x6
 3144 148e 88140000 		.4byte	0x1488
 3145 1492 05       		.uleb128 0x5
 3146 1493 07010000 		.4byte	0x107
 3147 1497 06       		.uleb128 0x6
 3148 1498 92140000 		.4byte	0x1492
 3149 149c 05       		.uleb128 0x5
 3150 149d 57010000 		.4byte	0x157
 3151 14a1 06       		.uleb128 0x6
 3152 14a2 9C140000 		.4byte	0x149c
 3153 14a6 07       		.uleb128 0x7
 3154 14a7 F6000000 		.4byte	0xf6
 3155 14ab B6140000 		.4byte	0x14b6
 3156 14af 08       		.uleb128 0x8
 3157 14b0 00010000 		.4byte	0x100
 3158 14b4 0E       		.byte	0xe
 3159 14b5 00       		.byte	0
 3160 14b6 05       		.uleb128 0x5
 3161 14b7 A6140000 		.4byte	0x14a6
 3162 14bb 05       		.uleb128 0x5
 3163 14bc A6140000 		.4byte	0x14a6
 3164 14c0 07       		.uleb128 0x7
 3165 14c1 FB000000 		.4byte	0xfb
 3166 14c5 D0140000 		.4byte	0x14d0
 3167 14c9 08       		.uleb128 0x8
 3168 14ca 00010000 		.4byte	0x100
 3169 14ce 20       		.byte	0x20
 3170 14cf 00       		.byte	0
 3171 14d0 05       		.uleb128 0x5
 3172 14d1 C0140000 		.4byte	0x14c0
 3173 14d5 06       		.uleb128 0x6
 3174 14d6 D0140000 		.4byte	0x14d0
 3175 14da 07       		.uleb128 0x7
 3176 14db FB000000 		.4byte	0xfb
 3177 14df EA140000 		.4byte	0x14ea
 3178 14e3 08       		.uleb128 0x8
 3179 14e4 00010000 		.4byte	0x100
ARM GAS  C:\Users\Rolf\AppData\Local\Temp\ccEjvRQz.s 			page 81


 3180 14e8 3A       		.byte	0x3a
 3181 14e9 00       		.byte	0
 3182 14ea 05       		.uleb128 0x5
 3183 14eb DA140000 		.4byte	0x14da
 3184 14ef 06       		.uleb128 0x6
 3185 14f0 EA140000 		.4byte	0x14ea
 3186 14f4 07       		.uleb128 0x7
 3187 14f5 FB000000 		.4byte	0xfb
 3188 14f9 05150000 		.4byte	0x1505
 3189 14fd 0C       		.uleb128 0xc
 3190 14fe 00010000 		.4byte	0x100
 3191 1502 BD1D     		.2byte	0x1dbd
 3192 1504 00       		.byte	0
 3193 1505 05       		.uleb128 0x5
 3194 1506 F4140000 		.4byte	0x14f4
 3195 150a 06       		.uleb128 0x6
 3196 150b 05150000 		.4byte	0x1505
 3197 150f 05       		.uleb128 0x5
 3198 1510 D7060000 		.4byte	0x6d7
 3199 1514 06       		.uleb128 0x6
 3200 1515 0F150000 		.4byte	0x150f
 3201 1519 07       		.uleb128 0x7
 3202 151a FB000000 		.4byte	0xfb
 3203 151e 2A150000 		.4byte	0x152a
 3204 1522 0C       		.uleb128 0xc
 3205 1523 00010000 		.4byte	0x100
 3206 1527 F61F     		.2byte	0x1ff6
 3207 1529 00       		.byte	0
 3208 152a 05       		.uleb128 0x5
 3209 152b 19150000 		.4byte	0x1519
 3210 152f 06       		.uleb128 0x6
 3211 1530 2A150000 		.4byte	0x152a
 3212 1534 03       		.uleb128 0x3
 3213 1535 3F190000 		.4byte	.LASF273
 3214 1539 07       		.byte	0x7
 3215 153a 79       		.byte	0x79
 3216 153b A4100000 		.4byte	0x10a4
 3217 153f 09       		.uleb128 0x9
 3218 1540 04FF     		.2byte	0xff04
 3219 1542 08       		.byte	0x8
 3220 1543 21       		.byte	0x21
 3221 1544 60160000 		.4byte	0x1660
 3222 1548 0F       		.uleb128 0xf
 3223 1549 43544C00 		.ascii	"CTL\000"
 3224 154d 08       		.byte	0x8
 3225 154e 22       		.byte	0x22
 3226 154f F6000000 		.4byte	0xf6
 3227 1553 00       		.byte	0
 3228 1554 0A       		.uleb128 0xa
 3229 1555 D7090000 		.4byte	.LASF48
 3230 1559 08       		.byte	0x8
 3231 155a 23       		.byte	0x23
 3232 155b FB000000 		.4byte	0xfb
 3233 155f 04       		.byte	0x4
 3234 1560 0A       		.uleb128 0xa
 3235 1561 6E070000 		.4byte	.LASF274
 3236 1565 08       		.byte	0x8
ARM GAS  C:\Users\Rolf\AppData\Local\Temp\ccEjvRQz.s 			page 82


 3237 1566 24       		.byte	0x24
 3238 1567 F6000000 		.4byte	0xf6
 3239 156b 08       		.byte	0x8
 3240 156c 0A       		.uleb128 0xa
 3241 156d FE0A0000 		.4byte	.LASF275
 3242 1571 08       		.byte	0x8
 3243 1572 25       		.byte	0x25
 3244 1573 F6000000 		.4byte	0xf6
 3245 1577 0C       		.byte	0xc
 3246 1578 0A       		.uleb128 0xa
 3247 1579 41160000 		.4byte	.LASF24
 3248 157d 08       		.byte	0x8
 3249 157e 26       		.byte	0x26
 3250 157f FB000000 		.4byte	0xfb
 3251 1583 10       		.byte	0x10
 3252 1584 0A       		.uleb128 0xa
 3253 1585 45110000 		.4byte	.LASF276
 3254 1589 08       		.byte	0x8
 3255 158a 27       		.byte	0x27
 3256 158b F6000000 		.4byte	0xf6
 3257 158f 14       		.byte	0x14
 3258 1590 0A       		.uleb128 0xa
 3259 1591 FD020000 		.4byte	.LASF277
 3260 1595 08       		.byte	0x8
 3261 1596 28       		.byte	0x28
 3262 1597 F6000000 		.4byte	0xf6
 3263 159b 18       		.byte	0x18
 3264 159c 0A       		.uleb128 0xa
 3265 159d E50B0000 		.4byte	.LASF278
 3266 15a1 08       		.byte	0x8
 3267 15a2 29       		.byte	0x29
 3268 15a3 F6000000 		.4byte	0xf6
 3269 15a7 1C       		.byte	0x1c
 3270 15a8 0A       		.uleb128 0xa
 3271 15a9 90080000 		.4byte	.LASF279
 3272 15ad 08       		.byte	0x8
 3273 15ae 2A       		.byte	0x2a
 3274 15af F6000000 		.4byte	0xf6
 3275 15b3 20       		.byte	0x20
 3276 15b4 0A       		.uleb128 0xa
 3277 15b5 AA0A0000 		.4byte	.LASF280
 3278 15b9 08       		.byte	0x8
 3279 15ba 2B       		.byte	0x2b
 3280 15bb F6000000 		.4byte	0xf6
 3281 15bf 24       		.byte	0x24
 3282 15c0 0A       		.uleb128 0xa
 3283 15c1 001B0000 		.4byte	.LASF281
 3284 15c5 08       		.byte	0x8
 3285 15c6 2C       		.byte	0x2c
 3286 15c7 F6000000 		.4byte	0xf6
 3287 15cb 28       		.byte	0x28
 3288 15cc 0A       		.uleb128 0xa
 3289 15cd 020D0000 		.4byte	.LASF38
 3290 15d1 08       		.byte	0x8
 3291 15d2 2D       		.byte	0x2d
 3292 15d3 F6000000 		.4byte	0xf6
 3293 15d7 2C       		.byte	0x2c
ARM GAS  C:\Users\Rolf\AppData\Local\Temp\ccEjvRQz.s 			page 83


 3294 15d8 0A       		.uleb128 0xa
 3295 15d9 19130000 		.4byte	.LASF39
 3296 15dd 08       		.byte	0x8
 3297 15de 2E       		.byte	0x2e
 3298 15df F6000000 		.4byte	0xf6
 3299 15e3 30       		.byte	0x30
 3300 15e4 0A       		.uleb128 0xa
 3301 15e5 59020000 		.4byte	.LASF40
 3302 15e9 08       		.byte	0x8
 3303 15ea 2F       		.byte	0x2f
 3304 15eb F6000000 		.4byte	0xf6
 3305 15ef 34       		.byte	0x34
 3306 15f0 0A       		.uleb128 0xa
 3307 15f1 76010000 		.4byte	.LASF41
 3308 15f5 08       		.byte	0x8
 3309 15f6 30       		.byte	0x30
 3310 15f7 FB000000 		.4byte	0xfb
 3311 15fb 38       		.byte	0x38
 3312 15fc 0A       		.uleb128 0xa
 3313 15fd B20D0000 		.4byte	.LASF282
 3314 1601 08       		.byte	0x8
 3315 1602 31       		.byte	0x31
 3316 1603 FB000000 		.4byte	0xfb
 3317 1607 3C       		.byte	0x3c
 3318 1608 0A       		.uleb128 0xa
 3319 1609 BF0B0000 		.4byte	.LASF283
 3320 160d 08       		.byte	0x8
 3321 160e 32       		.byte	0x32
 3322 160f FB000000 		.4byte	0xfb
 3323 1613 40       		.byte	0x40
 3324 1614 0A       		.uleb128 0xa
 3325 1615 AA050000 		.4byte	.LASF284
 3326 1619 08       		.byte	0x8
 3327 161a 33       		.byte	0x33
 3328 161b F6000000 		.4byte	0xf6
 3329 161f 44       		.byte	0x44
 3330 1620 0A       		.uleb128 0xa
 3331 1621 060B0000 		.4byte	.LASF285
 3332 1625 08       		.byte	0x8
 3333 1626 34       		.byte	0x34
 3334 1627 F6000000 		.4byte	0xf6
 3335 162b 48       		.byte	0x48
 3336 162c 0A       		.uleb128 0xa
 3337 162d C8050000 		.4byte	.LASF54
 3338 1631 08       		.byte	0x8
 3339 1632 35       		.byte	0x35
 3340 1633 76160000 		.4byte	0x1676
 3341 1637 4C       		.byte	0x4c
 3342 1638 0B       		.uleb128 0xb
 3343 1639 A5050000 		.4byte	.LASF286
 3344 163d 08       		.byte	0x8
 3345 163e 36       		.byte	0x36
 3346 163f 7B160000 		.4byte	0x167b
 3347 1643 0010     		.2byte	0x1000
 3348 1645 0B       		.uleb128 0xb
 3349 1646 14070000 		.4byte	.LASF56
 3350 164a 08       		.byte	0x8
ARM GAS  C:\Users\Rolf\AppData\Local\Temp\ccEjvRQz.s 			page 84


 3351 164b 37       		.byte	0x37
 3352 164c 96160000 		.4byte	0x1696
 3353 1650 0011     		.2byte	0x1100
 3354 1652 0B       		.uleb128 0xb
 3355 1653 FD0C0000 		.4byte	.LASF287
 3356 1657 08       		.byte	0x8
 3357 1658 38       		.byte	0x38
 3358 1659 F6000000 		.4byte	0xf6
 3359 165d 00FF     		.2byte	0xff00
 3360 165f 00       		.byte	0
 3361 1660 07       		.uleb128 0x7
 3362 1661 FB000000 		.4byte	0xfb
 3363 1665 71160000 		.4byte	0x1671
 3364 1669 0C       		.uleb128 0xc
 3365 166a 00010000 		.4byte	0x100
 3366 166e EC03     		.2byte	0x3ec
 3367 1670 00       		.byte	0
 3368 1671 05       		.uleb128 0x5
 3369 1672 60160000 		.4byte	0x1660
 3370 1676 06       		.uleb128 0x6
 3371 1677 71160000 		.4byte	0x1671
 3372 167b 05       		.uleb128 0x5
 3373 167c C5070000 		.4byte	0x7c5
 3374 1680 07       		.uleb128 0x7
 3375 1681 FB000000 		.4byte	0xfb
 3376 1685 91160000 		.4byte	0x1691
 3377 1689 0C       		.uleb128 0xc
 3378 168a 00010000 		.4byte	0x100
 3379 168e 7F3B     		.2byte	0x3b7f
 3380 1690 00       		.byte	0
 3381 1691 05       		.uleb128 0x5
 3382 1692 80160000 		.4byte	0x1680
 3383 1696 06       		.uleb128 0x6
 3384 1697 91160000 		.4byte	0x1691
 3385 169b 03       		.uleb128 0x3
 3386 169c 070D0000 		.4byte	.LASF288
 3387 16a0 08       		.byte	0x8
 3388 16a1 39       		.byte	0x39
 3389 16a2 3F150000 		.4byte	0x153f
 3390 16a6 0E       		.uleb128 0xe
 3391 16a7 B8       		.byte	0xb8
 3392 16a8 09       		.byte	0x9
 3393 16a9 34       		.byte	0x34
 3394 16aa B71A0000 		.4byte	0x1ab7
 3395 16ae 0A       		.uleb128 0xa
 3396 16af B90D0000 		.4byte	.LASF289
 3397 16b3 09       		.byte	0x9
 3398 16b4 37       		.byte	0x37
 3399 16b5 D9000000 		.4byte	0xd9
 3400 16b9 00       		.byte	0
 3401 16ba 0A       		.uleb128 0xa
 3402 16bb B3050000 		.4byte	.LASF290
 3403 16bf 09       		.byte	0x9
 3404 16c0 38       		.byte	0x38
 3405 16c1 D9000000 		.4byte	0xd9
 3406 16c5 04       		.byte	0x4
 3407 16c6 0A       		.uleb128 0xa
ARM GAS  C:\Users\Rolf\AppData\Local\Temp\ccEjvRQz.s 			page 85


 3408 16c7 C70A0000 		.4byte	.LASF291
 3409 16cb 09       		.byte	0x9
 3410 16cc 39       		.byte	0x39
 3411 16cd D9000000 		.4byte	0xd9
 3412 16d1 08       		.byte	0x8
 3413 16d2 0A       		.uleb128 0xa
 3414 16d3 C8080000 		.4byte	.LASF292
 3415 16d7 09       		.byte	0x9
 3416 16d8 3A       		.byte	0x3a
 3417 16d9 D9000000 		.4byte	0xd9
 3418 16dd 0C       		.byte	0xc
 3419 16de 0A       		.uleb128 0xa
 3420 16df E70D0000 		.4byte	.LASF293
 3421 16e3 09       		.byte	0x9
 3422 16e4 3B       		.byte	0x3b
 3423 16e5 D9000000 		.4byte	0xd9
 3424 16e9 10       		.byte	0x10
 3425 16ea 0A       		.uleb128 0xa
 3426 16eb D3000000 		.4byte	.LASF294
 3427 16ef 09       		.byte	0x9
 3428 16f0 3C       		.byte	0x3c
 3429 16f1 D9000000 		.4byte	0xd9
 3430 16f5 14       		.byte	0x14
 3431 16f6 0A       		.uleb128 0xa
 3432 16f7 9E160000 		.4byte	.LASF295
 3433 16fb 09       		.byte	0x9
 3434 16fc 3D       		.byte	0x3d
 3435 16fd D9000000 		.4byte	0xd9
 3436 1701 18       		.byte	0x18
 3437 1702 0A       		.uleb128 0xa
 3438 1703 E8060000 		.4byte	.LASF296
 3439 1707 09       		.byte	0x9
 3440 1708 3E       		.byte	0x3e
 3441 1709 D9000000 		.4byte	0xd9
 3442 170d 1C       		.byte	0x1c
 3443 170e 0A       		.uleb128 0xa
 3444 170f 621B0000 		.4byte	.LASF297
 3445 1713 09       		.byte	0x9
 3446 1714 3F       		.byte	0x3f
 3447 1715 D9000000 		.4byte	0xd9
 3448 1719 20       		.byte	0x20
 3449 171a 0A       		.uleb128 0xa
 3450 171b 0A000000 		.4byte	.LASF298
 3451 171f 09       		.byte	0x9
 3452 1720 40       		.byte	0x40
 3453 1721 D9000000 		.4byte	0xd9
 3454 1725 24       		.byte	0x24
 3455 1726 0A       		.uleb128 0xa
 3456 1727 C50B0000 		.4byte	.LASF299
 3457 172b 09       		.byte	0x9
 3458 172c 43       		.byte	0x43
 3459 172d AD000000 		.4byte	0xad
 3460 1731 28       		.byte	0x28
 3461 1732 0A       		.uleb128 0xa
 3462 1733 061C0000 		.4byte	.LASF300
 3463 1737 09       		.byte	0x9
 3464 1738 44       		.byte	0x44
ARM GAS  C:\Users\Rolf\AppData\Local\Temp\ccEjvRQz.s 			page 86


 3465 1739 AD000000 		.4byte	0xad
 3466 173d 29       		.byte	0x29
 3467 173e 0A       		.uleb128 0xa
 3468 173f 84160000 		.4byte	.LASF301
 3469 1743 09       		.byte	0x9
 3470 1744 45       		.byte	0x45
 3471 1745 AD000000 		.4byte	0xad
 3472 1749 2A       		.byte	0x2a
 3473 174a 0A       		.uleb128 0xa
 3474 174b AD100000 		.4byte	.LASF302
 3475 174f 09       		.byte	0x9
 3476 1750 46       		.byte	0x46
 3477 1751 AD000000 		.4byte	0xad
 3478 1755 2B       		.byte	0x2b
 3479 1756 0A       		.uleb128 0xa
 3480 1757 66190000 		.4byte	.LASF303
 3481 175b 09       		.byte	0x9
 3482 175c 47       		.byte	0x47
 3483 175d AD000000 		.4byte	0xad
 3484 1761 2C       		.byte	0x2c
 3485 1762 0A       		.uleb128 0xa
 3486 1763 931C0000 		.4byte	.LASF304
 3487 1767 09       		.byte	0x9
 3488 1768 48       		.byte	0x48
 3489 1769 AD000000 		.4byte	0xad
 3490 176d 2D       		.byte	0x2d
 3491 176e 0A       		.uleb128 0xa
 3492 176f F00D0000 		.4byte	.LASF305
 3493 1773 09       		.byte	0x9
 3494 1774 49       		.byte	0x49
 3495 1775 AD000000 		.4byte	0xad
 3496 1779 2E       		.byte	0x2e
 3497 177a 0A       		.uleb128 0xa
 3498 177b 8A170000 		.4byte	.LASF306
 3499 177f 09       		.byte	0x9
 3500 1780 4A       		.byte	0x4a
 3501 1781 AD000000 		.4byte	0xad
 3502 1785 2F       		.byte	0x2f
 3503 1786 0A       		.uleb128 0xa
 3504 1787 87030000 		.4byte	.LASF307
 3505 178b 09       		.byte	0x9
 3506 178c 4B       		.byte	0x4b
 3507 178d AD000000 		.4byte	0xad
 3508 1791 30       		.byte	0x30
 3509 1792 0A       		.uleb128 0xa
 3510 1793 41100000 		.4byte	.LASF308
 3511 1797 09       		.byte	0x9
 3512 1798 4E       		.byte	0x4e
 3513 1799 AD000000 		.4byte	0xad
 3514 179d 31       		.byte	0x31
 3515 179e 0A       		.uleb128 0xa
 3516 179f 8B120000 		.4byte	.LASF309
 3517 17a3 09       		.byte	0x9
 3518 17a4 4F       		.byte	0x4f
 3519 17a5 AD000000 		.4byte	0xad
 3520 17a9 32       		.byte	0x32
 3521 17aa 0A       		.uleb128 0xa
ARM GAS  C:\Users\Rolf\AppData\Local\Temp\ccEjvRQz.s 			page 87


 3522 17ab 94150000 		.4byte	.LASF310
 3523 17af 09       		.byte	0x9
 3524 17b0 50       		.byte	0x50
 3525 17b1 AD000000 		.4byte	0xad
 3526 17b5 33       		.byte	0x33
 3527 17b6 0A       		.uleb128 0xa
 3528 17b7 5A140000 		.4byte	.LASF311
 3529 17bb 09       		.byte	0x9
 3530 17bc 51       		.byte	0x51
 3531 17bd AD000000 		.4byte	0xad
 3532 17c1 34       		.byte	0x34
 3533 17c2 0A       		.uleb128 0xa
 3534 17c3 09090000 		.4byte	.LASF312
 3535 17c7 09       		.byte	0x9
 3536 17c8 52       		.byte	0x52
 3537 17c9 B8000000 		.4byte	0xb8
 3538 17cd 36       		.byte	0x36
 3539 17ce 0A       		.uleb128 0xa
 3540 17cf EF0B0000 		.4byte	.LASF313
 3541 17d3 09       		.byte	0x9
 3542 17d4 53       		.byte	0x53
 3543 17d5 B8000000 		.4byte	0xb8
 3544 17d9 38       		.byte	0x38
 3545 17da 0A       		.uleb128 0xa
 3546 17db 8F0A0000 		.4byte	.LASF314
 3547 17df 09       		.byte	0x9
 3548 17e0 54       		.byte	0x54
 3549 17e1 B8000000 		.4byte	0xb8
 3550 17e5 3A       		.byte	0x3a
 3551 17e6 0A       		.uleb128 0xa
 3552 17e7 5C0A0000 		.4byte	.LASF315
 3553 17eb 09       		.byte	0x9
 3554 17ec 55       		.byte	0x55
 3555 17ed AD000000 		.4byte	0xad
 3556 17f1 3C       		.byte	0x3c
 3557 17f2 0A       		.uleb128 0xa
 3558 17f3 37130000 		.4byte	.LASF316
 3559 17f7 09       		.byte	0x9
 3560 17f8 56       		.byte	0x56
 3561 17f9 AD000000 		.4byte	0xad
 3562 17fd 3D       		.byte	0x3d
 3563 17fe 0A       		.uleb128 0xa
 3564 17ff 33020000 		.4byte	.LASF317
 3565 1803 09       		.byte	0x9
 3566 1804 57       		.byte	0x57
 3567 1805 AD000000 		.4byte	0xad
 3568 1809 3E       		.byte	0x3e
 3569 180a 0A       		.uleb128 0xa
 3570 180b 7C040000 		.4byte	.LASF318
 3571 180f 09       		.byte	0x9
 3572 1810 58       		.byte	0x58
 3573 1811 AD000000 		.4byte	0xad
 3574 1815 3F       		.byte	0x3f
 3575 1816 0A       		.uleb128 0xa
 3576 1817 230D0000 		.4byte	.LASF319
 3577 181b 09       		.byte	0x9
 3578 181c 59       		.byte	0x59
ARM GAS  C:\Users\Rolf\AppData\Local\Temp\ccEjvRQz.s 			page 88


 3579 181d AD000000 		.4byte	0xad
 3580 1821 40       		.byte	0x40
 3581 1822 0A       		.uleb128 0xa
 3582 1823 280E0000 		.4byte	.LASF320
 3583 1827 09       		.byte	0x9
 3584 1828 5A       		.byte	0x5a
 3585 1829 AD000000 		.4byte	0xad
 3586 182d 41       		.byte	0x41
 3587 182e 0A       		.uleb128 0xa
 3588 182f A50B0000 		.4byte	.LASF321
 3589 1833 09       		.byte	0x9
 3590 1834 5B       		.byte	0x5b
 3591 1835 AD000000 		.4byte	0xad
 3592 1839 42       		.byte	0x42
 3593 183a 0A       		.uleb128 0xa
 3594 183b DE190000 		.4byte	.LASF322
 3595 183f 09       		.byte	0x9
 3596 1840 5C       		.byte	0x5c
 3597 1841 AD000000 		.4byte	0xad
 3598 1845 43       		.byte	0x43
 3599 1846 0A       		.uleb128 0xa
 3600 1847 BE160000 		.4byte	.LASF323
 3601 184b 09       		.byte	0x9
 3602 184c 5D       		.byte	0x5d
 3603 184d AD000000 		.4byte	0xad
 3604 1851 44       		.byte	0x44
 3605 1852 0A       		.uleb128 0xa
 3606 1853 AC160000 		.4byte	.LASF324
 3607 1857 09       		.byte	0x9
 3608 1858 5E       		.byte	0x5e
 3609 1859 D9000000 		.4byte	0xd9
 3610 185d 48       		.byte	0x48
 3611 185e 0A       		.uleb128 0xa
 3612 185f D70B0000 		.4byte	.LASF325
 3613 1863 09       		.byte	0x9
 3614 1864 5F       		.byte	0x5f
 3615 1865 D9000000 		.4byte	0xd9
 3616 1869 4C       		.byte	0x4c
 3617 186a 0A       		.uleb128 0xa
 3618 186b 4C0F0000 		.4byte	.LASF326
 3619 186f 09       		.byte	0x9
 3620 1870 60       		.byte	0x60
 3621 1871 AD000000 		.4byte	0xad
 3622 1875 50       		.byte	0x50
 3623 1876 0A       		.uleb128 0xa
 3624 1877 2D190000 		.4byte	.LASF327
 3625 187b 09       		.byte	0x9
 3626 187c 61       		.byte	0x61
 3627 187d AD000000 		.4byte	0xad
 3628 1881 51       		.byte	0x51
 3629 1882 0A       		.uleb128 0xa
 3630 1883 3C0F0000 		.4byte	.LASF328
 3631 1887 09       		.byte	0x9
 3632 1888 62       		.byte	0x62
 3633 1889 AD000000 		.4byte	0xad
 3634 188d 52       		.byte	0x52
 3635 188e 0A       		.uleb128 0xa
ARM GAS  C:\Users\Rolf\AppData\Local\Temp\ccEjvRQz.s 			page 89


 3636 188f 30000000 		.4byte	.LASF329
 3637 1893 09       		.byte	0x9
 3638 1894 63       		.byte	0x63
 3639 1895 AD000000 		.4byte	0xad
 3640 1899 53       		.byte	0x53
 3641 189a 0A       		.uleb128 0xa
 3642 189b C1120000 		.4byte	.LASF330
 3643 189f 09       		.byte	0x9
 3644 18a0 64       		.byte	0x64
 3645 18a1 AD000000 		.4byte	0xad
 3646 18a5 54       		.byte	0x54
 3647 18a6 0A       		.uleb128 0xa
 3648 18a7 7F1C0000 		.4byte	.LASF331
 3649 18ab 09       		.byte	0x9
 3650 18ac 65       		.byte	0x65
 3651 18ad AD000000 		.4byte	0xad
 3652 18b1 55       		.byte	0x55
 3653 18b2 0A       		.uleb128 0xa
 3654 18b3 4B180000 		.4byte	.LASF332
 3655 18b7 09       		.byte	0x9
 3656 18b8 66       		.byte	0x66
 3657 18b9 AD000000 		.4byte	0xad
 3658 18bd 56       		.byte	0x56
 3659 18be 0A       		.uleb128 0xa
 3660 18bf AA130000 		.4byte	.LASF333
 3661 18c3 09       		.byte	0x9
 3662 18c4 67       		.byte	0x67
 3663 18c5 AD000000 		.4byte	0xad
 3664 18c9 57       		.byte	0x57
 3665 18ca 0A       		.uleb128 0xa
 3666 18cb 5D0F0000 		.4byte	.LASF334
 3667 18cf 09       		.byte	0x9
 3668 18d0 68       		.byte	0x68
 3669 18d1 AD000000 		.4byte	0xad
 3670 18d5 58       		.byte	0x58
 3671 18d6 0A       		.uleb128 0xa
 3672 18d7 190A0000 		.4byte	.LASF335
 3673 18db 09       		.byte	0x9
 3674 18dc 69       		.byte	0x69
 3675 18dd AD000000 		.4byte	0xad
 3676 18e1 59       		.byte	0x59
 3677 18e2 0A       		.uleb128 0xa
 3678 18e3 AE1C0000 		.4byte	.LASF336
 3679 18e7 09       		.byte	0x9
 3680 18e8 6E       		.byte	0x6e
 3681 18e9 C3000000 		.4byte	0xc3
 3682 18ed 5A       		.byte	0x5a
 3683 18ee 0A       		.uleb128 0xa
 3684 18ef C00C0000 		.4byte	.LASF337
 3685 18f3 09       		.byte	0x9
 3686 18f4 6F       		.byte	0x6f
 3687 18f5 C3000000 		.4byte	0xc3
 3688 18f9 5C       		.byte	0x5c
 3689 18fa 0A       		.uleb128 0xa
 3690 18fb E71A0000 		.4byte	.LASF338
 3691 18ff 09       		.byte	0x9
 3692 1900 70       		.byte	0x70
ARM GAS  C:\Users\Rolf\AppData\Local\Temp\ccEjvRQz.s 			page 90


 3693 1901 AD000000 		.4byte	0xad
 3694 1905 5E       		.byte	0x5e
 3695 1906 0A       		.uleb128 0xa
 3696 1907 1F1B0000 		.4byte	.LASF339
 3697 190b 09       		.byte	0x9
 3698 190c 71       		.byte	0x71
 3699 190d AD000000 		.4byte	0xad
 3700 1911 5F       		.byte	0x5f
 3701 1912 0A       		.uleb128 0xa
 3702 1913 A4020000 		.4byte	.LASF340
 3703 1917 09       		.byte	0x9
 3704 1918 72       		.byte	0x72
 3705 1919 AD000000 		.4byte	0xad
 3706 191d 60       		.byte	0x60
 3707 191e 0A       		.uleb128 0xa
 3708 191f A0120000 		.4byte	.LASF341
 3709 1923 09       		.byte	0x9
 3710 1924 73       		.byte	0x73
 3711 1925 D9000000 		.4byte	0xd9
 3712 1929 64       		.byte	0x64
 3713 192a 0A       		.uleb128 0xa
 3714 192b C11B0000 		.4byte	.LASF342
 3715 192f 09       		.byte	0x9
 3716 1930 76       		.byte	0x76
 3717 1931 C3000000 		.4byte	0xc3
 3718 1935 68       		.byte	0x68
 3719 1936 0A       		.uleb128 0xa
 3720 1937 9A080000 		.4byte	.LASF343
 3721 193b 09       		.byte	0x9
 3722 193c 77       		.byte	0x77
 3723 193d C3000000 		.4byte	0xc3
 3724 1941 6A       		.byte	0x6a
 3725 1942 0A       		.uleb128 0xa
 3726 1943 FA080000 		.4byte	.LASF344
 3727 1947 09       		.byte	0x9
 3728 1948 78       		.byte	0x78
 3729 1949 C3000000 		.4byte	0xc3
 3730 194d 6C       		.byte	0x6c
 3731 194e 0A       		.uleb128 0xa
 3732 194f C6030000 		.4byte	.LASF345
 3733 1953 09       		.byte	0x9
 3734 1954 79       		.byte	0x79
 3735 1955 C3000000 		.4byte	0xc3
 3736 1959 6E       		.byte	0x6e
 3737 195a 0A       		.uleb128 0xa
 3738 195b 48160000 		.4byte	.LASF346
 3739 195f 09       		.byte	0x9
 3740 1960 7B       		.byte	0x7b
 3741 1961 AD000000 		.4byte	0xad
 3742 1965 70       		.byte	0x70
 3743 1966 0A       		.uleb128 0xa
 3744 1967 9D0D0000 		.4byte	.LASF347
 3745 196b 09       		.byte	0x9
 3746 196c 7C       		.byte	0x7c
 3747 196d AD000000 		.4byte	0xad
 3748 1971 71       		.byte	0x71
 3749 1972 0A       		.uleb128 0xa
ARM GAS  C:\Users\Rolf\AppData\Local\Temp\ccEjvRQz.s 			page 91


 3750 1973 1E050000 		.4byte	.LASF348
 3751 1977 09       		.byte	0x9
 3752 1978 7D       		.byte	0x7d
 3753 1979 AD000000 		.4byte	0xad
 3754 197d 72       		.byte	0x72
 3755 197e 0A       		.uleb128 0xa
 3756 197f 9C1B0000 		.4byte	.LASF349
 3757 1983 09       		.byte	0x9
 3758 1984 7E       		.byte	0x7e
 3759 1985 AD000000 		.4byte	0xad
 3760 1989 73       		.byte	0x73
 3761 198a 0A       		.uleb128 0xa
 3762 198b B4030000 		.4byte	.LASF350
 3763 198f 09       		.byte	0x9
 3764 1990 80       		.byte	0x80
 3765 1991 C3000000 		.4byte	0xc3
 3766 1995 74       		.byte	0x74
 3767 1996 0A       		.uleb128 0xa
 3768 1997 4F0D0000 		.4byte	.LASF351
 3769 199b 09       		.byte	0x9
 3770 199c 81       		.byte	0x81
 3771 199d C3000000 		.4byte	0xc3
 3772 19a1 76       		.byte	0x76
 3773 19a2 0A       		.uleb128 0xa
 3774 19a3 800F0000 		.4byte	.LASF352
 3775 19a7 09       		.byte	0x9
 3776 19a8 82       		.byte	0x82
 3777 19a9 C3000000 		.4byte	0xc3
 3778 19ad 78       		.byte	0x78
 3779 19ae 0A       		.uleb128 0xa
 3780 19af 0C0B0000 		.4byte	.LASF353
 3781 19b3 09       		.byte	0x9
 3782 19b4 83       		.byte	0x83
 3783 19b5 C3000000 		.4byte	0xc3
 3784 19b9 7A       		.byte	0x7a
 3785 19ba 0A       		.uleb128 0xa
 3786 19bb 30110000 		.4byte	.LASF354
 3787 19bf 09       		.byte	0x9
 3788 19c0 86       		.byte	0x86
 3789 19c1 AD000000 		.4byte	0xad
 3790 19c5 7C       		.byte	0x7c
 3791 19c6 0A       		.uleb128 0xa
 3792 19c7 9E010000 		.4byte	.LASF355
 3793 19cb 09       		.byte	0x9
 3794 19cc 87       		.byte	0x87
 3795 19cd AD000000 		.4byte	0xad
 3796 19d1 7D       		.byte	0x7d
 3797 19d2 0A       		.uleb128 0xa
 3798 19d3 B40A0000 		.4byte	.LASF356
 3799 19d7 09       		.byte	0x9
 3800 19d8 88       		.byte	0x88
 3801 19d9 AD000000 		.4byte	0xad
 3802 19dd 7E       		.byte	0x7e
 3803 19de 0A       		.uleb128 0xa
 3804 19df 020F0000 		.4byte	.LASF357
 3805 19e3 09       		.byte	0x9
 3806 19e4 89       		.byte	0x89
ARM GAS  C:\Users\Rolf\AppData\Local\Temp\ccEjvRQz.s 			page 92


 3807 19e5 AD000000 		.4byte	0xad
 3808 19e9 7F       		.byte	0x7f
 3809 19ea 0A       		.uleb128 0xa
 3810 19eb 72190000 		.4byte	.LASF358
 3811 19ef 09       		.byte	0x9
 3812 19f0 8A       		.byte	0x8a
 3813 19f1 AD000000 		.4byte	0xad
 3814 19f5 80       		.byte	0x80
 3815 19f6 0A       		.uleb128 0xa
 3816 19f7 D0080000 		.4byte	.LASF359
 3817 19fb 09       		.byte	0x9
 3818 19fc 8D       		.byte	0x8d
 3819 19fd D9000000 		.4byte	0xd9
 3820 1a01 84       		.byte	0x84
 3821 1a02 0A       		.uleb128 0xa
 3822 1a03 4C150000 		.4byte	.LASF360
 3823 1a07 09       		.byte	0x9
 3824 1a08 8E       		.byte	0x8e
 3825 1a09 D9000000 		.4byte	0xd9
 3826 1a0d 88       		.byte	0x88
 3827 1a0e 0A       		.uleb128 0xa
 3828 1a0f 0A1B0000 		.4byte	.LASF361
 3829 1a13 09       		.byte	0x9
 3830 1a14 8F       		.byte	0x8f
 3831 1a15 D9000000 		.4byte	0xd9
 3832 1a19 8C       		.byte	0x8c
 3833 1a1a 0A       		.uleb128 0xa
 3834 1a1b 2F120000 		.4byte	.LASF362
 3835 1a1f 09       		.byte	0x9
 3836 1a20 90       		.byte	0x90
 3837 1a21 D9000000 		.4byte	0xd9
 3838 1a25 90       		.byte	0x90
 3839 1a26 0A       		.uleb128 0xa
 3840 1a27 E5090000 		.4byte	.LASF363
 3841 1a2b 09       		.byte	0x9
 3842 1a2c 91       		.byte	0x91
 3843 1a2d D9000000 		.4byte	0xd9
 3844 1a31 94       		.byte	0x94
 3845 1a32 0A       		.uleb128 0xa
 3846 1a33 9E060000 		.4byte	.LASF364
 3847 1a37 09       		.byte	0x9
 3848 1a38 92       		.byte	0x92
 3849 1a39 D9000000 		.4byte	0xd9
 3850 1a3d 98       		.byte	0x98
 3851 1a3e 0A       		.uleb128 0xa
 3852 1a3f F1060000 		.4byte	.LASF365
 3853 1a43 09       		.byte	0x9
 3854 1a44 93       		.byte	0x93
 3855 1a45 D9000000 		.4byte	0xd9
 3856 1a49 9C       		.byte	0x9c
 3857 1a4a 0A       		.uleb128 0xa
 3858 1a4b 620D0000 		.4byte	.LASF366
 3859 1a4f 09       		.byte	0x9
 3860 1a50 94       		.byte	0x94
 3861 1a51 D9000000 		.4byte	0xd9
 3862 1a55 A0       		.byte	0xa0
 3863 1a56 0A       		.uleb128 0xa
ARM GAS  C:\Users\Rolf\AppData\Local\Temp\ccEjvRQz.s 			page 93


 3864 1a57 8D130000 		.4byte	.LASF367
 3865 1a5b 09       		.byte	0x9
 3866 1a5c 95       		.byte	0x95
 3867 1a5d C3000000 		.4byte	0xc3
 3868 1a61 A4       		.byte	0xa4
 3869 1a62 0A       		.uleb128 0xa
 3870 1a63 73130000 		.4byte	.LASF368
 3871 1a67 09       		.byte	0x9
 3872 1a68 96       		.byte	0x96
 3873 1a69 C3000000 		.4byte	0xc3
 3874 1a6d A6       		.byte	0xa6
 3875 1a6e 0A       		.uleb128 0xa
 3876 1a6f 6E050000 		.4byte	.LASF369
 3877 1a73 09       		.byte	0x9
 3878 1a74 97       		.byte	0x97
 3879 1a75 C3000000 		.4byte	0xc3
 3880 1a79 A8       		.byte	0xa8
 3881 1a7a 0A       		.uleb128 0xa
 3882 1a7b A0150000 		.4byte	.LASF370
 3883 1a7f 09       		.byte	0x9
 3884 1a80 98       		.byte	0x98
 3885 1a81 C3000000 		.4byte	0xc3
 3886 1a85 AA       		.byte	0xaa
 3887 1a86 0A       		.uleb128 0xa
 3888 1a87 4E110000 		.4byte	.LASF371
 3889 1a8b 09       		.byte	0x9
 3890 1a8c 99       		.byte	0x99
 3891 1a8d C3000000 		.4byte	0xc3
 3892 1a91 AC       		.byte	0xac
 3893 1a92 0A       		.uleb128 0xa
 3894 1a93 B10B0000 		.4byte	.LASF372
 3895 1a97 09       		.byte	0x9
 3896 1a98 9A       		.byte	0x9a
 3897 1a99 C3000000 		.4byte	0xc3
 3898 1a9d AE       		.byte	0xae
 3899 1a9e 0A       		.uleb128 0xa
 3900 1a9f B31B0000 		.4byte	.LASF373
 3901 1aa3 09       		.byte	0x9
 3902 1aa4 9D       		.byte	0x9d
 3903 1aa5 C3000000 		.4byte	0xc3
 3904 1aa9 B0       		.byte	0xb0
 3905 1aaa 0A       		.uleb128 0xa
 3906 1aab 28090000 		.4byte	.LASF374
 3907 1aaf 09       		.byte	0x9
 3908 1ab0 9E       		.byte	0x9e
 3909 1ab1 D9000000 		.4byte	0xd9
 3910 1ab5 B4       		.byte	0xb4
 3911 1ab6 00       		.byte	0
 3912 1ab7 03       		.uleb128 0x3
 3913 1ab8 870E0000 		.4byte	.LASF375
 3914 1abc 09       		.byte	0x9
 3915 1abd 9F       		.byte	0x9f
 3916 1abe A6160000 		.4byte	0x16a6
 3917 1ac2 10       		.uleb128 0x10
 3918 1ac3 8C       		.byte	0x8c
 3919 1ac4 0A       		.byte	0xa
 3920 1ac5 B801     		.2byte	0x1b8
ARM GAS  C:\Users\Rolf\AppData\Local\Temp\ccEjvRQz.s 			page 94


 3921 1ac7 DD1B0000 		.4byte	0x1bdd
 3922 1acb 11       		.uleb128 0x11
 3923 1acc 93030000 		.4byte	.LASF376
 3924 1ad0 0A       		.byte	0xa
 3925 1ad1 BA01     		.2byte	0x1ba
 3926 1ad3 FB000000 		.4byte	0xfb
 3927 1ad7 00       		.byte	0
 3928 1ad8 11       		.uleb128 0x11
 3929 1ad9 77040000 		.4byte	.LASF377
 3930 1add 0A       		.byte	0xa
 3931 1ade BB01     		.2byte	0x1bb
 3932 1ae0 F6000000 		.4byte	0xf6
 3933 1ae4 04       		.byte	0x4
 3934 1ae5 11       		.uleb128 0x11
 3935 1ae6 5D010000 		.4byte	.LASF378
 3936 1aea 0A       		.byte	0xa
 3937 1aeb BC01     		.2byte	0x1bc
 3938 1aed F6000000 		.4byte	0xf6
 3939 1af1 08       		.byte	0x8
 3940 1af2 11       		.uleb128 0x11
 3941 1af3 3D030000 		.4byte	.LASF379
 3942 1af7 0A       		.byte	0xa
 3943 1af8 BD01     		.2byte	0x1bd
 3944 1afa F6000000 		.4byte	0xf6
 3945 1afe 0C       		.byte	0xc
 3946 1aff 12       		.uleb128 0x12
 3947 1b00 53435200 		.ascii	"SCR\000"
 3948 1b04 0A       		.byte	0xa
 3949 1b05 BE01     		.2byte	0x1be
 3950 1b07 F6000000 		.4byte	0xf6
 3951 1b0b 10       		.byte	0x10
 3952 1b0c 12       		.uleb128 0x12
 3953 1b0d 43435200 		.ascii	"CCR\000"
 3954 1b11 0A       		.byte	0xa
 3955 1b12 BF01     		.2byte	0x1bf
 3956 1b14 F6000000 		.4byte	0xf6
 3957 1b18 14       		.byte	0x14
 3958 1b19 12       		.uleb128 0x12
 3959 1b1a 53485000 		.ascii	"SHP\000"
 3960 1b1e 0A       		.byte	0xa
 3961 1b1f C001     		.2byte	0x1c0
 3962 1b21 ED1B0000 		.4byte	0x1bed
 3963 1b25 18       		.byte	0x18
 3964 1b26 11       		.uleb128 0x11
 3965 1b27 70090000 		.4byte	.LASF380
 3966 1b2b 0A       		.byte	0xa
 3967 1b2c C101     		.2byte	0x1c1
 3968 1b2e F6000000 		.4byte	0xf6
 3969 1b32 24       		.byte	0x24
 3970 1b33 11       		.uleb128 0x11
 3971 1b34 A7160000 		.4byte	.LASF381
 3972 1b38 0A       		.byte	0xa
 3973 1b39 C201     		.2byte	0x1c2
 3974 1b3b F6000000 		.4byte	0xf6
 3975 1b3f 28       		.byte	0x28
 3976 1b40 11       		.uleb128 0x11
 3977 1b41 4E080000 		.4byte	.LASF382
ARM GAS  C:\Users\Rolf\AppData\Local\Temp\ccEjvRQz.s 			page 95


 3978 1b45 0A       		.byte	0xa
 3979 1b46 C301     		.2byte	0x1c3
 3980 1b48 F6000000 		.4byte	0xf6
 3981 1b4c 2C       		.byte	0x2c
 3982 1b4d 11       		.uleb128 0x11
 3983 1b4e A5070000 		.4byte	.LASF383
 3984 1b52 0A       		.byte	0xa
 3985 1b53 C401     		.2byte	0x1c4
 3986 1b55 F6000000 		.4byte	0xf6
 3987 1b59 30       		.byte	0x30
 3988 1b5a 11       		.uleb128 0x11
 3989 1b5b 84170000 		.4byte	.LASF384
 3990 1b5f 0A       		.byte	0xa
 3991 1b60 C501     		.2byte	0x1c5
 3992 1b62 F6000000 		.4byte	0xf6
 3993 1b66 34       		.byte	0x34
 3994 1b67 11       		.uleb128 0x11
 3995 1b68 88130000 		.4byte	.LASF385
 3996 1b6c 0A       		.byte	0xa
 3997 1b6d C601     		.2byte	0x1c6
 3998 1b6f F6000000 		.4byte	0xf6
 3999 1b73 38       		.byte	0x38
 4000 1b74 11       		.uleb128 0x11
 4001 1b75 73160000 		.4byte	.LASF386
 4002 1b79 0A       		.byte	0xa
 4003 1b7a C701     		.2byte	0x1c7
 4004 1b7c F6000000 		.4byte	0xf6
 4005 1b80 3C       		.byte	0x3c
 4006 1b81 12       		.uleb128 0x12
 4007 1b82 50465200 		.ascii	"PFR\000"
 4008 1b86 0A       		.byte	0xa
 4009 1b87 C801     		.2byte	0x1c8
 4010 1b89 F71B0000 		.4byte	0x1bf7
 4011 1b8d 40       		.byte	0x40
 4012 1b8e 12       		.uleb128 0x12
 4013 1b8f 44465200 		.ascii	"DFR\000"
 4014 1b93 0A       		.byte	0xa
 4015 1b94 C901     		.2byte	0x1c9
 4016 1b96 FB000000 		.4byte	0xfb
 4017 1b9a 48       		.byte	0x48
 4018 1b9b 12       		.uleb128 0x12
 4019 1b9c 41445200 		.ascii	"ADR\000"
 4020 1ba0 0A       		.byte	0xa
 4021 1ba1 CA01     		.2byte	0x1ca
 4022 1ba3 FB000000 		.4byte	0xfb
 4023 1ba7 4C       		.byte	0x4c
 4024 1ba8 11       		.uleb128 0x11
 4025 1ba9 72170000 		.4byte	.LASF387
 4026 1bad 0A       		.byte	0xa
 4027 1bae CB01     		.2byte	0x1cb
 4028 1bb0 011C0000 		.4byte	0x1c01
 4029 1bb4 50       		.byte	0x50
 4030 1bb5 11       		.uleb128 0x11
 4031 1bb6 18180000 		.4byte	.LASF388
 4032 1bba 0A       		.byte	0xa
 4033 1bbb CC01     		.2byte	0x1cc
 4034 1bbd 0B1C0000 		.4byte	0x1c0b
ARM GAS  C:\Users\Rolf\AppData\Local\Temp\ccEjvRQz.s 			page 96


 4035 1bc1 60       		.byte	0x60
 4036 1bc2 11       		.uleb128 0x11
 4037 1bc3 BE050000 		.4byte	.LASF389
 4038 1bc7 0A       		.byte	0xa
 4039 1bc8 CD01     		.2byte	0x1cd
 4040 1bca 101C0000 		.4byte	0x1c10
 4041 1bce 74       		.byte	0x74
 4042 1bcf 11       		.uleb128 0x11
 4043 1bd0 6A1B0000 		.4byte	.LASF390
 4044 1bd4 0A       		.byte	0xa
 4045 1bd5 CE01     		.2byte	0x1ce
 4046 1bd7 F6000000 		.4byte	0xf6
 4047 1bdb 88       		.byte	0x88
 4048 1bdc 00       		.byte	0
 4049 1bdd 07       		.uleb128 0x7
 4050 1bde BB0D0000 		.4byte	0xdbb
 4051 1be2 ED1B0000 		.4byte	0x1bed
 4052 1be6 08       		.uleb128 0x8
 4053 1be7 00010000 		.4byte	0x100
 4054 1beb 0B       		.byte	0xb
 4055 1bec 00       		.byte	0
 4056 1bed 05       		.uleb128 0x5
 4057 1bee DD1B0000 		.4byte	0x1bdd
 4058 1bf2 05       		.uleb128 0x5
 4059 1bf3 A5070000 		.4byte	0x7a5
 4060 1bf7 06       		.uleb128 0x6
 4061 1bf8 F21B0000 		.4byte	0x1bf2
 4062 1bfc 05       		.uleb128 0x5
 4063 1bfd 37010000 		.4byte	0x137
 4064 1c01 06       		.uleb128 0x6
 4065 1c02 FC1B0000 		.4byte	0x1bfc
 4066 1c06 05       		.uleb128 0x5
 4067 1c07 47010000 		.4byte	0x147
 4068 1c0b 06       		.uleb128 0x6
 4069 1c0c 061C0000 		.4byte	0x1c06
 4070 1c10 07       		.uleb128 0x7
 4071 1c11 D9000000 		.4byte	0xd9
 4072 1c15 201C0000 		.4byte	0x1c20
 4073 1c19 08       		.uleb128 0x8
 4074 1c1a 00010000 		.4byte	0x100
 4075 1c1e 04       		.byte	0x4
 4076 1c1f 00       		.byte	0
 4077 1c20 13       		.uleb128 0x13
 4078 1c21 65070000 		.4byte	.LASF391
 4079 1c25 0A       		.byte	0xa
 4080 1c26 CF01     		.2byte	0x1cf
 4081 1c28 C21A0000 		.4byte	0x1ac2
 4082 1c2c 13       		.uleb128 0x13
 4083 1c2d 9E190000 		.4byte	.LASF392
 4084 1c31 0B       		.byte	0xb
 4085 1c32 1106     		.2byte	0x611
 4086 1c34 EB0F0000 		.4byte	0xfeb
 4087 1c38 13       		.uleb128 0x13
 4088 1c39 C5040000 		.4byte	.LASF393
 4089 1c3d 0B       		.byte	0xb
 4090 1c3e 2806     		.2byte	0x628
 4091 1c40 34150000 		.4byte	0x1534
ARM GAS  C:\Users\Rolf\AppData\Local\Temp\ccEjvRQz.s 			page 97


 4092 1c44 13       		.uleb128 0x13
 4093 1c45 6B0A0000 		.4byte	.LASF394
 4094 1c49 0B       		.byte	0xb
 4095 1c4a 2906     		.2byte	0x629
 4096 1c4c 9B160000 		.4byte	0x169b
 4097 1c50 14       		.uleb128 0x14
 4098 1c51 04       		.byte	0x4
 4099 1c52 A6000000 		.4byte	0xa6
 4100 1c56 0C       		.byte	0xc
 4101 1c57 1601     		.2byte	0x116
 4102 1c59 881C0000 		.4byte	0x1c88
 4103 1c5d 15       		.uleb128 0x15
 4104 1c5e E90E0000 		.4byte	.LASF395
 4105 1c62 00       		.byte	0
 4106 1c63 16       		.uleb128 0x16
 4107 1c64 0A050000 		.4byte	.LASF396
 4108 1c68 01004600 		.4byte	0x460001
 4109 1c6c 16       		.uleb128 0x16
 4110 1c6d E6150000 		.4byte	.LASF397
 4111 1c71 02004600 		.4byte	0x460002
 4112 1c75 16       		.uleb128 0x16
 4113 1c76 E7030000 		.4byte	.LASF398
 4114 1c7a 03004600 		.4byte	0x460003
 4115 1c7e 16       		.uleb128 0x16
 4116 1c7f 06030000 		.4byte	.LASF399
 4117 1c83 FF004600 		.4byte	0x4600ff
 4118 1c87 00       		.byte	0
 4119 1c88 13       		.uleb128 0x13
 4120 1c89 9B180000 		.4byte	.LASF400
 4121 1c8d 0C       		.byte	0xc
 4122 1c8e 1C01     		.2byte	0x11c
 4123 1c90 501C0000 		.4byte	0x1c50
 4124 1c94 10       		.uleb128 0x10
 4125 1c95 04       		.byte	0x4
 4126 1c96 0C       		.byte	0xc
 4127 1c97 2701     		.2byte	0x127
 4128 1c99 1E1E0000 		.4byte	0x1e1e
 4129 1c9d 17       		.uleb128 0x17
 4130 1c9e B6010000 		.4byte	.LASF401
 4131 1ca2 0C       		.byte	0xc
 4132 1ca3 2A01     		.2byte	0x12a
 4133 1ca5 D9000000 		.4byte	0xd9
 4134 1ca9 04       		.byte	0x4
 4135 1caa 01       		.byte	0x1
 4136 1cab 1F       		.byte	0x1f
 4137 1cac 00       		.byte	0
 4138 1cad 17       		.uleb128 0x17
 4139 1cae A4100000 		.4byte	.LASF402
 4140 1cb2 0C       		.byte	0xc
 4141 1cb3 2B01     		.2byte	0x12b
 4142 1cb5 D9000000 		.4byte	0xd9
 4143 1cb9 04       		.byte	0x4
 4144 1cba 01       		.byte	0x1
 4145 1cbb 1E       		.byte	0x1e
 4146 1cbc 00       		.byte	0
 4147 1cbd 17       		.uleb128 0x17
 4148 1cbe EF180000 		.4byte	.LASF403
ARM GAS  C:\Users\Rolf\AppData\Local\Temp\ccEjvRQz.s 			page 98


 4149 1cc2 0C       		.byte	0xc
 4150 1cc3 2C01     		.2byte	0x12c
 4151 1cc5 D9000000 		.4byte	0xd9
 4152 1cc9 04       		.byte	0x4
 4153 1cca 01       		.byte	0x1
 4154 1ccb 1D       		.byte	0x1d
 4155 1ccc 00       		.byte	0
 4156 1ccd 17       		.uleb128 0x17
 4157 1cce C8010000 		.4byte	.LASF404
 4158 1cd2 0C       		.byte	0xc
 4159 1cd3 2D01     		.2byte	0x12d
 4160 1cd5 D9000000 		.4byte	0xd9
 4161 1cd9 04       		.byte	0x4
 4162 1cda 01       		.byte	0x1
 4163 1cdb 1C       		.byte	0x1c
 4164 1cdc 00       		.byte	0
 4165 1cdd 17       		.uleb128 0x17
 4166 1cde 5C160000 		.4byte	.LASF405
 4167 1ce2 0C       		.byte	0xc
 4168 1ce3 2E01     		.2byte	0x12e
 4169 1ce5 D9000000 		.4byte	0xd9
 4170 1ce9 04       		.byte	0x4
 4171 1cea 01       		.byte	0x1
 4172 1ceb 1B       		.byte	0x1b
 4173 1cec 00       		.byte	0
 4174 1ced 17       		.uleb128 0x17
 4175 1cee C5090000 		.4byte	.LASF406
 4176 1cf2 0C       		.byte	0xc
 4177 1cf3 2F01     		.2byte	0x12f
 4178 1cf5 D9000000 		.4byte	0xd9
 4179 1cf9 04       		.byte	0x4
 4180 1cfa 01       		.byte	0x1
 4181 1cfb 1A       		.byte	0x1a
 4182 1cfc 00       		.byte	0
 4183 1cfd 17       		.uleb128 0x17
 4184 1cfe F9180000 		.4byte	.LASF407
 4185 1d02 0C       		.byte	0xc
 4186 1d03 3001     		.2byte	0x130
 4187 1d05 D9000000 		.4byte	0xd9
 4188 1d09 04       		.byte	0x4
 4189 1d0a 01       		.byte	0x1
 4190 1d0b 19       		.byte	0x19
 4191 1d0c 00       		.byte	0
 4192 1d0d 17       		.uleb128 0x17
 4193 1d0e 86100000 		.4byte	.LASF408
 4194 1d12 0C       		.byte	0xc
 4195 1d13 3101     		.2byte	0x131
 4196 1d15 D9000000 		.4byte	0xd9
 4197 1d19 04       		.byte	0x4
 4198 1d1a 01       		.byte	0x1
 4199 1d1b 18       		.byte	0x18
 4200 1d1c 00       		.byte	0
 4201 1d1d 17       		.uleb128 0x17
 4202 1d1e CB000000 		.4byte	.LASF409
 4203 1d22 0C       		.byte	0xc
 4204 1d23 3301     		.2byte	0x133
 4205 1d25 D9000000 		.4byte	0xd9
ARM GAS  C:\Users\Rolf\AppData\Local\Temp\ccEjvRQz.s 			page 99


 4206 1d29 04       		.byte	0x4
 4207 1d2a 01       		.byte	0x1
 4208 1d2b 17       		.byte	0x17
 4209 1d2c 00       		.byte	0
 4210 1d2d 17       		.uleb128 0x17
 4211 1d2e 69130000 		.4byte	.LASF410
 4212 1d32 0C       		.byte	0xc
 4213 1d33 3401     		.2byte	0x134
 4214 1d35 D9000000 		.4byte	0xd9
 4215 1d39 04       		.byte	0x4
 4216 1d3a 01       		.byte	0x1
 4217 1d3b 16       		.byte	0x16
 4218 1d3c 00       		.byte	0
 4219 1d3d 17       		.uleb128 0x17
 4220 1d3e 5B1A0000 		.4byte	.LASF411
 4221 1d42 0C       		.byte	0xc
 4222 1d43 3501     		.2byte	0x135
 4223 1d45 D9000000 		.4byte	0xd9
 4224 1d49 04       		.byte	0x4
 4225 1d4a 01       		.byte	0x1
 4226 1d4b 15       		.byte	0x15
 4227 1d4c 00       		.byte	0
 4228 1d4d 17       		.uleb128 0x17
 4229 1d4e 31080000 		.4byte	.LASF412
 4230 1d52 0C       		.byte	0xc
 4231 1d53 3601     		.2byte	0x136
 4232 1d55 D9000000 		.4byte	0xd9
 4233 1d59 04       		.byte	0x4
 4234 1d5a 01       		.byte	0x1
 4235 1d5b 14       		.byte	0x14
 4236 1d5c 00       		.byte	0
 4237 1d5d 17       		.uleb128 0x17
 4238 1d5e 2F1A0000 		.4byte	.LASF413
 4239 1d62 0C       		.byte	0xc
 4240 1d63 3701     		.2byte	0x137
 4241 1d65 D9000000 		.4byte	0xd9
 4242 1d69 04       		.byte	0x4
 4243 1d6a 01       		.byte	0x1
 4244 1d6b 13       		.byte	0x13
 4245 1d6c 00       		.byte	0
 4246 1d6d 17       		.uleb128 0x17
 4247 1d6e 99120000 		.4byte	.LASF414
 4248 1d72 0C       		.byte	0xc
 4249 1d73 3801     		.2byte	0x138
 4250 1d75 D9000000 		.4byte	0xd9
 4251 1d79 04       		.byte	0x4
 4252 1d7a 01       		.byte	0x1
 4253 1d7b 12       		.byte	0x12
 4254 1d7c 00       		.byte	0
 4255 1d7d 17       		.uleb128 0x17
 4256 1d7e 03190000 		.4byte	.LASF415
 4257 1d82 0C       		.byte	0xc
 4258 1d83 3901     		.2byte	0x139
 4259 1d85 D9000000 		.4byte	0xd9
 4260 1d89 04       		.byte	0x4
 4261 1d8a 01       		.byte	0x1
 4262 1d8b 11       		.byte	0x11
ARM GAS  C:\Users\Rolf\AppData\Local\Temp\ccEjvRQz.s 			page 100


 4263 1d8c 00       		.byte	0
 4264 1d8d 17       		.uleb128 0x17
 4265 1d8e CD090000 		.4byte	.LASF416
 4266 1d92 0C       		.byte	0xc
 4267 1d93 3A01     		.2byte	0x13a
 4268 1d95 D9000000 		.4byte	0xd9
 4269 1d99 04       		.byte	0x4
 4270 1d9a 01       		.byte	0x1
 4271 1d9b 10       		.byte	0x10
 4272 1d9c 00       		.byte	0
 4273 1d9d 17       		.uleb128 0x17
 4274 1d9e F6190000 		.4byte	.LASF417
 4275 1da2 0C       		.byte	0xc
 4276 1da3 3C01     		.2byte	0x13c
 4277 1da5 D9000000 		.4byte	0xd9
 4278 1da9 04       		.byte	0x4
 4279 1daa 01       		.byte	0x1
 4280 1dab 0F       		.byte	0xf
 4281 1dac 00       		.byte	0
 4282 1dad 17       		.uleb128 0x17
 4283 1dae 86190000 		.4byte	.LASF418
 4284 1db2 0C       		.byte	0xc
 4285 1db3 3D01     		.2byte	0x13d
 4286 1db5 D9000000 		.4byte	0xd9
 4287 1db9 04       		.byte	0x4
 4288 1dba 01       		.byte	0x1
 4289 1dbb 0E       		.byte	0xe
 4290 1dbc 00       		.byte	0
 4291 1dbd 17       		.uleb128 0x17
 4292 1dbe 65080000 		.4byte	.LASF419
 4293 1dc2 0C       		.byte	0xc
 4294 1dc3 3E01     		.2byte	0x13e
 4295 1dc5 D9000000 		.4byte	0xd9
 4296 1dc9 04       		.byte	0x4
 4297 1dca 01       		.byte	0x1
 4298 1dcb 0D       		.byte	0xd
 4299 1dcc 00       		.byte	0
 4300 1dcd 17       		.uleb128 0x17
 4301 1dce 44060000 		.4byte	.LASF420
 4302 1dd2 0C       		.byte	0xc
 4303 1dd3 3F01     		.2byte	0x13f
 4304 1dd5 D9000000 		.4byte	0xd9
 4305 1dd9 04       		.byte	0x4
 4306 1dda 01       		.byte	0x1
 4307 1ddb 0C       		.byte	0xc
 4308 1ddc 00       		.byte	0
 4309 1ddd 17       		.uleb128 0x17
 4310 1dde 0D190000 		.4byte	.LASF421
 4311 1de2 0C       		.byte	0xc
 4312 1de3 4001     		.2byte	0x140
 4313 1de5 D9000000 		.4byte	0xd9
 4314 1de9 04       		.byte	0x4
 4315 1dea 04       		.byte	0x4
 4316 1deb 08       		.byte	0x8
 4317 1dec 00       		.byte	0
 4318 1ded 17       		.uleb128 0x17
 4319 1dee AC080000 		.4byte	.LASF422
ARM GAS  C:\Users\Rolf\AppData\Local\Temp\ccEjvRQz.s 			page 101


 4320 1df2 0C       		.byte	0xc
 4321 1df3 4101     		.2byte	0x141
 4322 1df5 D9000000 		.4byte	0xd9
 4323 1df9 04       		.byte	0x4
 4324 1dfa 01       		.byte	0x1
 4325 1dfb 07       		.byte	0x7
 4326 1dfc 00       		.byte	0
 4327 1dfd 17       		.uleb128 0x17
 4328 1dfe DD1A0000 		.4byte	.LASF423
 4329 1e02 0C       		.byte	0xc
 4330 1e03 4201     		.2byte	0x142
 4331 1e05 D9000000 		.4byte	0xd9
 4332 1e09 04       		.byte	0x4
 4333 1e0a 01       		.byte	0x1
 4334 1e0b 06       		.byte	0x6
 4335 1e0c 00       		.byte	0
 4336 1e0d 17       		.uleb128 0x17
 4337 1e0e 17190000 		.4byte	.LASF424
 4338 1e12 0C       		.byte	0xc
 4339 1e13 4301     		.2byte	0x143
 4340 1e15 D9000000 		.4byte	0xd9
 4341 1e19 04       		.byte	0x4
 4342 1e1a 06       		.byte	0x6
 4343 1e1b 00       		.byte	0
 4344 1e1c 00       		.byte	0
 4345 1e1d 00       		.byte	0
 4346 1e1e 13       		.uleb128 0x13
 4347 1e1f 2D100000 		.4byte	.LASF425
 4348 1e23 0C       		.byte	0xc
 4349 1e24 4401     		.2byte	0x144
 4350 1e26 941C0000 		.4byte	0x1c94
 4351 1e2a 10       		.uleb128 0x10
 4352 1e2b 04       		.byte	0x4
 4353 1e2c 0C       		.byte	0xc
 4354 1e2d 4701     		.2byte	0x147
 4355 1e2f 841E0000 		.4byte	0x1e84
 4356 1e33 17       		.uleb128 0x17
 4357 1e34 EF180000 		.4byte	.LASF403
 4358 1e38 0C       		.byte	0xc
 4359 1e39 4901     		.2byte	0x149
 4360 1e3b D9000000 		.4byte	0xd9
 4361 1e3f 04       		.byte	0x4
 4362 1e40 01       		.byte	0x1
 4363 1e41 1F       		.byte	0x1f
 4364 1e42 00       		.byte	0
 4365 1e43 17       		.uleb128 0x17
 4366 1e44 A91A0000 		.4byte	.LASF426
 4367 1e48 0C       		.byte	0xc
 4368 1e49 4A01     		.2byte	0x14a
 4369 1e4b D9000000 		.4byte	0xd9
 4370 1e4f 04       		.byte	0x4
 4371 1e50 01       		.byte	0x1
 4372 1e51 1E       		.byte	0x1e
 4373 1e52 00       		.byte	0
 4374 1e53 17       		.uleb128 0x17
 4375 1e54 F9180000 		.4byte	.LASF407
 4376 1e58 0C       		.byte	0xc
ARM GAS  C:\Users\Rolf\AppData\Local\Temp\ccEjvRQz.s 			page 102


 4377 1e59 4B01     		.2byte	0x14b
 4378 1e5b D9000000 		.4byte	0xd9
 4379 1e5f 04       		.byte	0x4
 4380 1e60 1C       		.byte	0x1c
 4381 1e61 02       		.byte	0x2
 4382 1e62 00       		.byte	0
 4383 1e63 17       		.uleb128 0x17
 4384 1e64 300D0000 		.4byte	.LASF427
 4385 1e68 0C       		.byte	0xc
 4386 1e69 4C01     		.2byte	0x14c
 4387 1e6b D9000000 		.4byte	0xd9
 4388 1e6f 04       		.byte	0x4
 4389 1e70 01       		.byte	0x1
 4390 1e71 01       		.byte	0x1
 4391 1e72 00       		.byte	0
 4392 1e73 17       		.uleb128 0x17
 4393 1e74 C0060000 		.4byte	.LASF428
 4394 1e78 0C       		.byte	0xc
 4395 1e79 4D01     		.2byte	0x14d
 4396 1e7b D9000000 		.4byte	0xd9
 4397 1e7f 04       		.byte	0x4
 4398 1e80 01       		.byte	0x1
 4399 1e81 00       		.byte	0
 4400 1e82 00       		.byte	0
 4401 1e83 00       		.byte	0
 4402 1e84 13       		.uleb128 0x13
 4403 1e85 D11B0000 		.4byte	.LASF429
 4404 1e89 0C       		.byte	0xc
 4405 1e8a 4E01     		.2byte	0x14e
 4406 1e8c 2A1E0000 		.4byte	0x1e2a
 4407 1e90 10       		.uleb128 0x10
 4408 1e91 04       		.byte	0x4
 4409 1e92 0C       		.byte	0xc
 4410 1e93 5101     		.2byte	0x151
 4411 1e95 BA1F0000 		.4byte	0x1fba
 4412 1e99 17       		.uleb128 0x17
 4413 1e9a C3190000 		.4byte	.LASF430
 4414 1e9e 0C       		.byte	0xc
 4415 1e9f 5301     		.2byte	0x153
 4416 1ea1 D9000000 		.4byte	0xd9
 4417 1ea5 04       		.byte	0x4
 4418 1ea6 01       		.byte	0x1
 4419 1ea7 1F       		.byte	0x1f
 4420 1ea8 00       		.byte	0
 4421 1ea9 17       		.uleb128 0x17
 4422 1eaa B4060000 		.4byte	.LASF431
 4423 1eae 0C       		.byte	0xc
 4424 1eaf 5401     		.2byte	0x154
 4425 1eb1 D9000000 		.4byte	0xd9
 4426 1eb5 04       		.byte	0x4
 4427 1eb6 01       		.byte	0x1
 4428 1eb7 1E       		.byte	0x1e
 4429 1eb8 00       		.byte	0
 4430 1eb9 17       		.uleb128 0x17
 4431 1eba EF180000 		.4byte	.LASF403
 4432 1ebe 0C       		.byte	0xc
 4433 1ebf 5501     		.2byte	0x155
ARM GAS  C:\Users\Rolf\AppData\Local\Temp\ccEjvRQz.s 			page 103


 4434 1ec1 D9000000 		.4byte	0xd9
 4435 1ec5 04       		.byte	0x4
 4436 1ec6 01       		.byte	0x1
 4437 1ec7 1D       		.byte	0x1d
 4438 1ec8 00       		.byte	0
 4439 1ec9 17       		.uleb128 0x17
 4440 1eca C40E0000 		.4byte	.LASF432
 4441 1ece 0C       		.byte	0xc
 4442 1ecf 5601     		.2byte	0x156
 4443 1ed1 D9000000 		.4byte	0xd9
 4444 1ed5 04       		.byte	0x4
 4445 1ed6 01       		.byte	0x1
 4446 1ed7 1C       		.byte	0x1c
 4447 1ed8 00       		.byte	0
 4448 1ed9 17       		.uleb128 0x17
 4449 1eda F9180000 		.4byte	.LASF407
 4450 1ede 0C       		.byte	0xc
 4451 1edf 5701     		.2byte	0x157
 4452 1ee1 D9000000 		.4byte	0xd9
 4453 1ee5 04       		.byte	0x4
 4454 1ee6 03       		.byte	0x3
 4455 1ee7 19       		.byte	0x19
 4456 1ee8 00       		.byte	0
 4457 1ee9 17       		.uleb128 0x17
 4458 1eea 00000000 		.4byte	.LASF433
 4459 1eee 0C       		.byte	0xc
 4460 1eef 5801     		.2byte	0x158
 4461 1ef1 D9000000 		.4byte	0xd9
 4462 1ef5 04       		.byte	0x4
 4463 1ef6 01       		.byte	0x1
 4464 1ef7 18       		.byte	0x18
 4465 1ef8 00       		.byte	0
 4466 1ef9 17       		.uleb128 0x17
 4467 1efa 4F0E0000 		.4byte	.LASF434
 4468 1efe 0C       		.byte	0xc
 4469 1eff 5901     		.2byte	0x159
 4470 1f01 D9000000 		.4byte	0xd9
 4471 1f05 04       		.byte	0x4
 4472 1f06 01       		.byte	0x1
 4473 1f07 17       		.byte	0x17
 4474 1f08 00       		.byte	0
 4475 1f09 17       		.uleb128 0x17
 4476 1f0a 03190000 		.4byte	.LASF415
 4477 1f0e 0C       		.byte	0xc
 4478 1f0f 5A01     		.2byte	0x15a
 4479 1f11 D9000000 		.4byte	0xd9
 4480 1f15 04       		.byte	0x4
 4481 1f16 01       		.byte	0x1
 4482 1f17 16       		.byte	0x16
 4483 1f18 00       		.byte	0
 4484 1f19 17       		.uleb128 0x17
 4485 1f1a F61A0000 		.4byte	.LASF435
 4486 1f1e 0C       		.byte	0xc
 4487 1f1f 5B01     		.2byte	0x15b
 4488 1f21 D9000000 		.4byte	0xd9
 4489 1f25 04       		.byte	0x4
 4490 1f26 01       		.byte	0x1
ARM GAS  C:\Users\Rolf\AppData\Local\Temp\ccEjvRQz.s 			page 104


 4491 1f27 15       		.byte	0x15
 4492 1f28 00       		.byte	0
 4493 1f29 17       		.uleb128 0x17
 4494 1f2a 10140000 		.4byte	.LASF436
 4495 1f2e 0C       		.byte	0xc
 4496 1f2f 5C01     		.2byte	0x15c
 4497 1f31 D9000000 		.4byte	0xd9
 4498 1f35 04       		.byte	0x4
 4499 1f36 01       		.byte	0x1
 4500 1f37 14       		.byte	0x14
 4501 1f38 00       		.byte	0
 4502 1f39 17       		.uleb128 0x17
 4503 1f3a 870B0000 		.4byte	.LASF437
 4504 1f3e 0C       		.byte	0xc
 4505 1f3f 5D01     		.2byte	0x15d
 4506 1f41 D9000000 		.4byte	0xd9
 4507 1f45 04       		.byte	0x4
 4508 1f46 01       		.byte	0x1
 4509 1f47 13       		.byte	0x13
 4510 1f48 00       		.byte	0
 4511 1f49 17       		.uleb128 0x17
 4512 1f4a 2D0A0000 		.4byte	.LASF438
 4513 1f4e 0C       		.byte	0xc
 4514 1f4f 5E01     		.2byte	0x15e
 4515 1f51 D9000000 		.4byte	0xd9
 4516 1f55 04       		.byte	0x4
 4517 1f56 01       		.byte	0x1
 4518 1f57 12       		.byte	0x12
 4519 1f58 00       		.byte	0
 4520 1f59 17       		.uleb128 0x17
 4521 1f5a 960B0000 		.4byte	.LASF439
 4522 1f5e 0C       		.byte	0xc
 4523 1f5f 5F01     		.2byte	0x15f
 4524 1f61 D9000000 		.4byte	0xd9
 4525 1f65 04       		.byte	0x4
 4526 1f66 01       		.byte	0x1
 4527 1f67 11       		.byte	0x11
 4528 1f68 00       		.byte	0
 4529 1f69 17       		.uleb128 0x17
 4530 1f6a F2170000 		.4byte	.LASF440
 4531 1f6e 0C       		.byte	0xc
 4532 1f6f 6001     		.2byte	0x160
 4533 1f71 D9000000 		.4byte	0xd9
 4534 1f75 04       		.byte	0x4
 4535 1f76 01       		.byte	0x1
 4536 1f77 10       		.byte	0x10
 4537 1f78 00       		.byte	0
 4538 1f79 17       		.uleb128 0x17
 4539 1f7a BF000000 		.4byte	.LASF441
 4540 1f7e 0C       		.byte	0xc
 4541 1f7f 6101     		.2byte	0x161
 4542 1f81 D9000000 		.4byte	0xd9
 4543 1f85 04       		.byte	0x4
 4544 1f86 01       		.byte	0x1
 4545 1f87 0F       		.byte	0xf
 4546 1f88 00       		.byte	0
 4547 1f89 17       		.uleb128 0x17
ARM GAS  C:\Users\Rolf\AppData\Local\Temp\ccEjvRQz.s 			page 105


 4548 1f8a 300B0000 		.4byte	.LASF442
 4549 1f8e 0C       		.byte	0xc
 4550 1f8f 6201     		.2byte	0x162
 4551 1f91 D9000000 		.4byte	0xd9
 4552 1f95 04       		.byte	0x4
 4553 1f96 01       		.byte	0x1
 4554 1f97 0E       		.byte	0xe
 4555 1f98 00       		.byte	0
 4556 1f99 17       		.uleb128 0x17
 4557 1f9a 5D130000 		.4byte	.LASF443
 4558 1f9e 0C       		.byte	0xc
 4559 1f9f 6301     		.2byte	0x163
 4560 1fa1 D9000000 		.4byte	0xd9
 4561 1fa5 04       		.byte	0x4
 4562 1fa6 01       		.byte	0x1
 4563 1fa7 0D       		.byte	0xd
 4564 1fa8 00       		.byte	0
 4565 1fa9 17       		.uleb128 0x17
 4566 1faa 0D190000 		.4byte	.LASF421
 4567 1fae 0C       		.byte	0xc
 4568 1faf 6401     		.2byte	0x164
 4569 1fb1 D9000000 		.4byte	0xd9
 4570 1fb5 04       		.byte	0x4
 4571 1fb6 0D       		.byte	0xd
 4572 1fb7 00       		.byte	0
 4573 1fb8 00       		.byte	0
 4574 1fb9 00       		.byte	0
 4575 1fba 13       		.uleb128 0x13
 4576 1fbb FD110000 		.4byte	.LASF444
 4577 1fbf 0C       		.byte	0xc
 4578 1fc0 6501     		.2byte	0x165
 4579 1fc2 901E0000 		.4byte	0x1e90
 4580 1fc6 18       		.uleb128 0x18
 4581 1fc7 04       		.byte	0x4
 4582 1fc8 0C       		.byte	0xc
 4583 1fc9 7401     		.2byte	0x174
 4584 1fcb E81F0000 		.4byte	0x1fe8
 4585 1fcf 19       		.uleb128 0x19
 4586 1fd0 1B0D0000 		.4byte	.LASF445
 4587 1fd4 0C       		.byte	0xc
 4588 1fd5 7601     		.2byte	0x176
 4589 1fd7 D9000000 		.4byte	0xd9
 4590 1fdb 19       		.uleb128 0x19
 4591 1fdc EF140000 		.4byte	.LASF446
 4592 1fe0 0C       		.byte	0xc
 4593 1fe1 7701     		.2byte	0x177
 4594 1fe3 1E1E0000 		.4byte	0x1e1e
 4595 1fe7 00       		.byte	0
 4596 1fe8 18       		.uleb128 0x18
 4597 1fe9 04       		.byte	0x4
 4598 1fea 0C       		.byte	0xc
 4599 1feb 7901     		.2byte	0x179
 4600 1fed 0A200000 		.4byte	0x200a
 4601 1ff1 19       		.uleb128 0x19
 4602 1ff2 BB190000 		.4byte	.LASF447
 4603 1ff6 0C       		.byte	0xc
 4604 1ff7 7B01     		.2byte	0x17b
ARM GAS  C:\Users\Rolf\AppData\Local\Temp\ccEjvRQz.s 			page 106


 4605 1ff9 D9000000 		.4byte	0xd9
 4606 1ffd 19       		.uleb128 0x19
 4607 1ffe 261A0000 		.4byte	.LASF448
 4608 2002 0C       		.byte	0xc
 4609 2003 7C01     		.2byte	0x17c
 4610 2005 841E0000 		.4byte	0x1e84
 4611 2009 00       		.byte	0
 4612 200a 18       		.uleb128 0x18
 4613 200b 04       		.byte	0x4
 4614 200c 0C       		.byte	0xc
 4615 200d 7E01     		.2byte	0x17e
 4616 200f 2C200000 		.4byte	0x202c
 4617 2013 19       		.uleb128 0x19
 4618 2014 34030000 		.4byte	.LASF449
 4619 2018 0C       		.byte	0xc
 4620 2019 8001     		.2byte	0x180
 4621 201b D9000000 		.4byte	0xd9
 4622 201f 19       		.uleb128 0x19
 4623 2020 0D040000 		.4byte	.LASF450
 4624 2024 0C       		.byte	0xc
 4625 2025 8101     		.2byte	0x181
 4626 2027 BA1F0000 		.4byte	0x1fba
 4627 202b 00       		.byte	0
 4628 202c 10       		.uleb128 0x10
 4629 202d 78       		.byte	0x78
 4630 202e 0C       		.byte	0xc
 4631 202f 6901     		.2byte	0x169
 4632 2031 AC210000 		.4byte	0x21ac
 4633 2035 12       		.uleb128 0x12
 4634 2036 723000   		.ascii	"r0\000"
 4635 2039 0C       		.byte	0xc
 4636 203a 6B01     		.2byte	0x16b
 4637 203c D9000000 		.4byte	0xd9
 4638 2040 00       		.byte	0
 4639 2041 12       		.uleb128 0x12
 4640 2042 723100   		.ascii	"r1\000"
 4641 2045 0C       		.byte	0xc
 4642 2046 6C01     		.2byte	0x16c
 4643 2048 D9000000 		.4byte	0xd9
 4644 204c 04       		.byte	0x4
 4645 204d 12       		.uleb128 0x12
 4646 204e 723200   		.ascii	"r2\000"
 4647 2051 0C       		.byte	0xc
 4648 2052 6D01     		.2byte	0x16d
 4649 2054 D9000000 		.4byte	0xd9
 4650 2058 08       		.byte	0x8
 4651 2059 12       		.uleb128 0x12
 4652 205a 723300   		.ascii	"r3\000"
 4653 205d 0C       		.byte	0xc
 4654 205e 6E01     		.2byte	0x16e
 4655 2060 D9000000 		.4byte	0xd9
 4656 2064 0C       		.byte	0xc
 4657 2065 12       		.uleb128 0x12
 4658 2066 72313200 		.ascii	"r12\000"
 4659 206a 0C       		.byte	0xc
 4660 206b 6F01     		.2byte	0x16f
 4661 206d D9000000 		.4byte	0xd9
ARM GAS  C:\Users\Rolf\AppData\Local\Temp\ccEjvRQz.s 			page 107


 4662 2071 10       		.byte	0x10
 4663 2072 12       		.uleb128 0x12
 4664 2073 6C7200   		.ascii	"lr\000"
 4665 2076 0C       		.byte	0xc
 4666 2077 7001     		.2byte	0x170
 4667 2079 D9000000 		.4byte	0xd9
 4668 207d 14       		.byte	0x14
 4669 207e 12       		.uleb128 0x12
 4670 207f 706300   		.ascii	"pc\000"
 4671 2082 0C       		.byte	0xc
 4672 2083 7101     		.2byte	0x171
 4673 2085 D9000000 		.4byte	0xd9
 4674 2089 18       		.byte	0x18
 4675 208a 12       		.uleb128 0x12
 4676 208b 70737200 		.ascii	"psr\000"
 4677 208f 0C       		.byte	0xc
 4678 2090 7201     		.2byte	0x172
 4679 2092 D9000000 		.4byte	0xd9
 4680 2096 1C       		.byte	0x1c
 4681 2097 11       		.uleb128 0x11
 4682 2098 160D0000 		.4byte	.LASF451
 4683 209c 0C       		.byte	0xc
 4684 209d 7801     		.2byte	0x178
 4685 209f C61F0000 		.4byte	0x1fc6
 4686 20a3 20       		.byte	0x20
 4687 20a4 11       		.uleb128 0x11
 4688 20a5 6B1C0000 		.4byte	.LASF452
 4689 20a9 0C       		.byte	0xc
 4690 20aa 7D01     		.2byte	0x17d
 4691 20ac E81F0000 		.4byte	0x1fe8
 4692 20b0 24       		.byte	0x24
 4693 20b1 11       		.uleb128 0x11
 4694 20b2 A40A0000 		.4byte	.LASF453
 4695 20b6 0C       		.byte	0xc
 4696 20b7 8201     		.2byte	0x182
 4697 20b9 0A200000 		.4byte	0x200a
 4698 20bd 28       		.byte	0x28
 4699 20be 11       		.uleb128 0x11
 4700 20bf B80F0000 		.4byte	.LASF454
 4701 20c3 0C       		.byte	0xc
 4702 20c4 8301     		.2byte	0x183
 4703 20c6 D9000000 		.4byte	0xd9
 4704 20ca 2C       		.byte	0x2c
 4705 20cb 11       		.uleb128 0x11
 4706 20cc E0090000 		.4byte	.LASF455
 4707 20d0 0C       		.byte	0xc
 4708 20d1 8401     		.2byte	0x184
 4709 20d3 D9000000 		.4byte	0xd9
 4710 20d7 30       		.byte	0x30
 4711 20d8 12       		.uleb128 0x12
 4712 20d9 733000   		.ascii	"s0\000"
 4713 20dc 0C       		.byte	0xc
 4714 20dd 8701     		.2byte	0x187
 4715 20df D9000000 		.4byte	0xd9
 4716 20e3 34       		.byte	0x34
 4717 20e4 12       		.uleb128 0x12
 4718 20e5 733100   		.ascii	"s1\000"
ARM GAS  C:\Users\Rolf\AppData\Local\Temp\ccEjvRQz.s 			page 108


 4719 20e8 0C       		.byte	0xc
 4720 20e9 8801     		.2byte	0x188
 4721 20eb D9000000 		.4byte	0xd9
 4722 20ef 38       		.byte	0x38
 4723 20f0 12       		.uleb128 0x12
 4724 20f1 733200   		.ascii	"s2\000"
 4725 20f4 0C       		.byte	0xc
 4726 20f5 8901     		.2byte	0x189
 4727 20f7 D9000000 		.4byte	0xd9
 4728 20fb 3C       		.byte	0x3c
 4729 20fc 12       		.uleb128 0x12
 4730 20fd 733300   		.ascii	"s3\000"
 4731 2100 0C       		.byte	0xc
 4732 2101 8A01     		.2byte	0x18a
 4733 2103 D9000000 		.4byte	0xd9
 4734 2107 40       		.byte	0x40
 4735 2108 12       		.uleb128 0x12
 4736 2109 733400   		.ascii	"s4\000"
 4737 210c 0C       		.byte	0xc
 4738 210d 8B01     		.2byte	0x18b
 4739 210f D9000000 		.4byte	0xd9
 4740 2113 44       		.byte	0x44
 4741 2114 12       		.uleb128 0x12
 4742 2115 733500   		.ascii	"s5\000"
 4743 2118 0C       		.byte	0xc
 4744 2119 8C01     		.2byte	0x18c
 4745 211b D9000000 		.4byte	0xd9
 4746 211f 48       		.byte	0x48
 4747 2120 12       		.uleb128 0x12
 4748 2121 733600   		.ascii	"s6\000"
 4749 2124 0C       		.byte	0xc
 4750 2125 8D01     		.2byte	0x18d
 4751 2127 D9000000 		.4byte	0xd9
 4752 212b 4C       		.byte	0x4c
 4753 212c 12       		.uleb128 0x12
 4754 212d 733700   		.ascii	"s7\000"
 4755 2130 0C       		.byte	0xc
 4756 2131 8E01     		.2byte	0x18e
 4757 2133 D9000000 		.4byte	0xd9
 4758 2137 50       		.byte	0x50
 4759 2138 12       		.uleb128 0x12
 4760 2139 733800   		.ascii	"s8\000"
 4761 213c 0C       		.byte	0xc
 4762 213d 8F01     		.2byte	0x18f
 4763 213f D9000000 		.4byte	0xd9
 4764 2143 54       		.byte	0x54
 4765 2144 12       		.uleb128 0x12
 4766 2145 733900   		.ascii	"s9\000"
 4767 2148 0C       		.byte	0xc
 4768 2149 9001     		.2byte	0x190
 4769 214b D9000000 		.4byte	0xd9
 4770 214f 58       		.byte	0x58
 4771 2150 12       		.uleb128 0x12
 4772 2151 73313000 		.ascii	"s10\000"
 4773 2155 0C       		.byte	0xc
 4774 2156 9101     		.2byte	0x191
 4775 2158 D9000000 		.4byte	0xd9
ARM GAS  C:\Users\Rolf\AppData\Local\Temp\ccEjvRQz.s 			page 109


 4776 215c 5C       		.byte	0x5c
 4777 215d 12       		.uleb128 0x12
 4778 215e 73313100 		.ascii	"s11\000"
 4779 2162 0C       		.byte	0xc
 4780 2163 9201     		.2byte	0x192
 4781 2165 D9000000 		.4byte	0xd9
 4782 2169 60       		.byte	0x60
 4783 216a 12       		.uleb128 0x12
 4784 216b 73313200 		.ascii	"s12\000"
 4785 216f 0C       		.byte	0xc
 4786 2170 9301     		.2byte	0x193
 4787 2172 D9000000 		.4byte	0xd9
 4788 2176 64       		.byte	0x64
 4789 2177 12       		.uleb128 0x12
 4790 2178 73313300 		.ascii	"s13\000"
 4791 217c 0C       		.byte	0xc
 4792 217d 9401     		.2byte	0x194
 4793 217f D9000000 		.4byte	0xd9
 4794 2183 68       		.byte	0x68
 4795 2184 12       		.uleb128 0x12
 4796 2185 73313400 		.ascii	"s14\000"
 4797 2189 0C       		.byte	0xc
 4798 218a 9501     		.2byte	0x195
 4799 218c D9000000 		.4byte	0xd9
 4800 2190 6C       		.byte	0x6c
 4801 2191 12       		.uleb128 0x12
 4802 2192 73313500 		.ascii	"s15\000"
 4803 2196 0C       		.byte	0xc
 4804 2197 9601     		.2byte	0x196
 4805 2199 D9000000 		.4byte	0xd9
 4806 219d 70       		.byte	0x70
 4807 219e 11       		.uleb128 0x11
 4808 219f B1170000 		.4byte	.LASF456
 4809 21a3 0C       		.byte	0xc
 4810 21a4 9701     		.2byte	0x197
 4811 21a6 D9000000 		.4byte	0xd9
 4812 21aa 74       		.byte	0x74
 4813 21ab 00       		.byte	0
 4814 21ac 13       		.uleb128 0x13
 4815 21ad 670B0000 		.4byte	.LASF457
 4816 21b1 0C       		.byte	0xc
 4817 21b2 9A01     		.2byte	0x19a
 4818 21b4 2C200000 		.4byte	0x202c
 4819 21b8 13       		.uleb128 0x13
 4820 21b9 CC130000 		.4byte	.LASF458
 4821 21bd 0C       		.byte	0xc
 4822 21be F601     		.2byte	0x1f6
 4823 21c0 C4210000 		.4byte	0x21c4
 4824 21c4 02       		.uleb128 0x2
 4825 21c5 01       		.byte	0x1
 4826 21c6 08       		.byte	0x8
 4827 21c7 54070000 		.4byte	.LASF459
 4828 21cb 02       		.uleb128 0x2
 4829 21cc 04       		.byte	0x4
 4830 21cd 04       		.byte	0x4
 4831 21ce F40F0000 		.4byte	.LASF460
 4832 21d2 02       		.uleb128 0x2
ARM GAS  C:\Users\Rolf\AppData\Local\Temp\ccEjvRQz.s 			page 110


 4833 21d3 08       		.byte	0x8
 4834 21d4 04       		.byte	0x4
 4835 21d5 FB0E0000 		.4byte	.LASF461
 4836 21d9 1A       		.uleb128 0x1a
 4837 21da 0D0A0000 		.4byte	.LASF500
 4838 21de 02       		.byte	0x2
 4839 21df 0103     		.2byte	0x301
 4840 21e1 D9000000 		.4byte	0xd9
 4841 21e5 03       		.byte	0x3
 4842 21e6 F7210000 		.4byte	0x21f7
 4843 21ea 1B       		.uleb128 0x1b
 4844 21eb 2D030000 		.4byte	.LASF501
 4845 21ef 02       		.byte	0x2
 4846 21f0 0903     		.2byte	0x309
 4847 21f2 D9000000 		.4byte	0xd9
 4848 21f6 00       		.byte	0
 4849 21f7 1C       		.uleb128 0x1c
 4850 21f8 B91C0000 		.4byte	.LASF462
 4851 21fc 01       		.byte	0x1
 4852 21fd 41       		.byte	0x41
 4853 21fe 00000000 		.4byte	.LFB151
 4854 2202 30000000 		.4byte	.LFE151-.LFB151
 4855 2206 01       		.uleb128 0x1
 4856 2207 9C       		.byte	0x9c
 4857 2208 2E220000 		.4byte	0x222e
 4858 220c 1D       		.uleb128 0x1d
 4859 220d E9190000 		.4byte	.LASF464
 4860 2211 01       		.byte	0x1
 4861 2212 41       		.byte	0x41
 4862 2213 D9000000 		.4byte	0xd9
 4863 2217 00000000 		.4byte	.LLST0
 4864 221b 1E       		.uleb128 0x1e
 4865 221c 0E000000 		.4byte	.LVL2
 4866 2220 E2240000 		.4byte	0x24e2
 4867 2224 1E       		.uleb128 0x1e
 4868 2225 24000000 		.4byte	.LVL4
 4869 2229 E2240000 		.4byte	0x24e2
 4870 222d 00       		.byte	0
 4871 222e 1C       		.uleb128 0x1c
 4872 222f F5160000 		.4byte	.LASF463
 4873 2233 01       		.byte	0x1
 4874 2234 60       		.byte	0x60
 4875 2235 00000000 		.4byte	.LFB152
 4876 2239 14000000 		.4byte	.LFE152-.LFB152
 4877 223d 01       		.uleb128 0x1
 4878 223e 9C       		.byte	0x9c
 4879 223f 5C220000 		.4byte	0x225c
 4880 2243 1D       		.uleb128 0x1d
 4881 2244 07070000 		.4byte	.LASF465
 4882 2248 01       		.byte	0x1
 4883 2249 60       		.byte	0x60
 4884 224a C3000000 		.4byte	0xc3
 4885 224e 1E000000 		.4byte	.LLST1
 4886 2252 1E       		.uleb128 0x1e
 4887 2253 0E000000 		.4byte	.LVL8
 4888 2257 E2240000 		.4byte	0x24e2
 4889 225b 00       		.byte	0
ARM GAS  C:\Users\Rolf\AppData\Local\Temp\ccEjvRQz.s 			page 111


 4890 225c 1F       		.uleb128 0x1f
 4891 225d CF190000 		.4byte	.LASF470
 4892 2261 01       		.byte	0x1
 4893 2262 7F       		.byte	0x7f
 4894 2263 00000000 		.4byte	.LFB153
 4895 2267 04000000 		.4byte	.LFE153-.LFB153
 4896 226b 01       		.uleb128 0x1
 4897 226c 9C       		.byte	0x9c
 4898 226d 7F220000 		.4byte	0x227f
 4899 2271 20       		.uleb128 0x20
 4900 2272 3C150000 		.4byte	.LASF466
 4901 2276 01       		.byte	0x1
 4902 2277 7F       		.byte	0x7f
 4903 2278 D9000000 		.4byte	0xd9
 4904 227c 01       		.uleb128 0x1
 4905 227d 50       		.byte	0x50
 4906 227e 00       		.byte	0
 4907 227f 1C       		.uleb128 0x1c
 4908 2280 8E070000 		.4byte	.LASF467
 4909 2284 01       		.byte	0x1
 4910 2285 A6       		.byte	0xa6
 4911 2286 00000000 		.4byte	.LFB154
 4912 228a 1C000000 		.4byte	.LFE154-.LFB154
 4913 228e 01       		.uleb128 0x1
 4914 228f 9C       		.byte	0x9c
 4915 2290 E2220000 		.4byte	0x22e2
 4916 2294 1D       		.uleb128 0x1d
 4917 2295 23090000 		.4byte	.LASF468
 4918 2299 01       		.byte	0x1
 4919 229a A6       		.byte	0xa6
 4920 229b E2220000 		.4byte	0x22e2
 4921 229f 3F000000 		.4byte	.LLST2
 4922 22a3 1D       		.uleb128 0x1d
 4923 22a4 D20B0000 		.4byte	.LASF469
 4924 22a8 01       		.byte	0x1
 4925 22a9 A6       		.byte	0xa6
 4926 22aa D9000000 		.4byte	0xd9
 4927 22ae 6B000000 		.4byte	.LLST3
 4928 22b2 21       		.uleb128 0x21
 4929 22b3 10000000 		.4byte	.LVL13
 4930 22b7 EE240000 		.4byte	0x24ee
 4931 22bb D2220000 		.4byte	0x22d2
 4932 22bf 22       		.uleb128 0x22
 4933 22c0 01       		.uleb128 0x1
 4934 22c1 50       		.byte	0x50
 4935 22c2 02       		.uleb128 0x2
 4936 22c3 74       		.byte	0x74
 4937 22c4 00       		.sleb128 0
 4938 22c5 22       		.uleb128 0x22
 4939 22c6 01       		.uleb128 0x1
 4940 22c7 51       		.byte	0x51
 4941 22c8 03       		.uleb128 0x3
 4942 22c9 F3       		.byte	0xf3
 4943 22ca 01       		.uleb128 0x1
 4944 22cb 50       		.byte	0x50
 4945 22cc 22       		.uleb128 0x22
 4946 22cd 01       		.uleb128 0x1
ARM GAS  C:\Users\Rolf\AppData\Local\Temp\ccEjvRQz.s 			page 112


 4947 22ce 52       		.byte	0x52
 4948 22cf 01       		.uleb128 0x1
 4949 22d0 48       		.byte	0x48
 4950 22d1 00       		.byte	0
 4951 22d2 23       		.uleb128 0x23
 4952 22d3 18000000 		.4byte	.LVL14
 4953 22d7 5C220000 		.4byte	0x225c
 4954 22db 22       		.uleb128 0x22
 4955 22dc 01       		.uleb128 0x1
 4956 22dd 50       		.byte	0x50
 4957 22de 01       		.uleb128 0x1
 4958 22df 30       		.byte	0x30
 4959 22e0 00       		.byte	0
 4960 22e1 00       		.byte	0
 4961 22e2 24       		.uleb128 0x24
 4962 22e3 04       		.byte	0x4
 4963 22e4 E8220000 		.4byte	0x22e8
 4964 22e8 06       		.uleb128 0x6
 4965 22e9 B8210000 		.4byte	0x21b8
 4966 22ed 25       		.uleb128 0x25
 4967 22ee C6020000 		.4byte	.LASF472
 4968 22f2 01       		.byte	0x1
 4969 22f3 BB       		.byte	0xbb
 4970 22f4 00000000 		.4byte	.LFB155
 4971 22f8 10000000 		.4byte	.LFE155-.LFB155
 4972 22fc 01       		.uleb128 0x1
 4973 22fd 9C       		.byte	0x9c
 4974 22fe 26       		.uleb128 0x26
 4975 22ff EE040000 		.4byte	.LASF502
 4976 2303 01       		.byte	0x1
 4977 2304 D4       		.byte	0xd4
 4978 2305 881C0000 		.4byte	0x1c88
 4979 2309 00000000 		.4byte	.LFB156
 4980 230d 20000000 		.4byte	.LFE156-.LFB156
 4981 2311 01       		.uleb128 0x1
 4982 2312 9C       		.byte	0x9c
 4983 2313 27       		.uleb128 0x27
 4984 2314 AE150000 		.4byte	.LASF471
 4985 2318 01       		.byte	0x1
 4986 2319 FC       		.byte	0xfc
 4987 231a D9000000 		.4byte	0xd9
 4988 231e 00000000 		.4byte	.LFB157
 4989 2322 18000000 		.4byte	.LFE157-.LFB157
 4990 2326 01       		.uleb128 0x1
 4991 2327 9C       		.byte	0x9c
 4992 2328 3A230000 		.4byte	0x233a
 4993 232c 28       		.uleb128 0x28
 4994 232d 61000000 		.4byte	.LASF475
 4995 2331 01       		.byte	0x1
 4996 2332 FE       		.byte	0xfe
 4997 2333 D9000000 		.4byte	0xd9
 4998 2337 01       		.uleb128 0x1
 4999 2338 50       		.byte	0x50
 5000 2339 00       		.byte	0
 5001 233a 29       		.uleb128 0x29
 5002 233b ED050000 		.4byte	.LASF473
 5003 233f 01       		.byte	0x1
ARM GAS  C:\Users\Rolf\AppData\Local\Temp\ccEjvRQz.s 			page 113


 5004 2340 1101     		.2byte	0x111
 5005 2342 00000000 		.4byte	.LFB158
 5006 2346 28000000 		.4byte	.LFE158-.LFB158
 5007 234a 01       		.uleb128 0x1
 5008 234b 9C       		.byte	0x9c
 5009 234c 2A       		.uleb128 0x2a
 5010 234d AF040000 		.4byte	.LASF474
 5011 2351 01       		.byte	0x1
 5012 2352 5C01     		.2byte	0x15c
 5013 2354 E4000000 		.4byte	0xe4
 5014 2358 00000000 		.4byte	.LFB159
 5015 235c 56000000 		.4byte	.LFE159-.LFB159
 5016 2360 01       		.uleb128 0x1
 5017 2361 9C       		.byte	0x9c
 5018 2362 85230000 		.4byte	0x2385
 5019 2366 2B       		.uleb128 0x2b
 5020 2367 BA090000 		.4byte	.LASF476
 5021 236b 01       		.byte	0x1
 5022 236c 5E01     		.2byte	0x15e
 5023 236e D9000000 		.4byte	0xd9
 5024 2372 89000000 		.4byte	.LLST4
 5025 2376 2C       		.uleb128 0x2c
 5026 2377 C30D0000 		.4byte	.LASF477
 5027 237b 01       		.byte	0x1
 5028 237c 5F01     		.2byte	0x15f
 5029 237e D9000000 		.4byte	0xd9
 5030 2382 01       		.uleb128 0x1
 5031 2383 52       		.byte	0x52
 5032 2384 00       		.byte	0
 5033 2385 29       		.uleb128 0x29
 5034 2386 81180000 		.4byte	.LASF478
 5035 238a 01       		.byte	0x1
 5036 238b CE01     		.2byte	0x1ce
 5037 238d 00000000 		.4byte	.LFB161
 5038 2391 02000000 		.4byte	.LFE161-.LFB161
 5039 2395 01       		.uleb128 0x1
 5040 2396 9C       		.byte	0x9c
 5041 2397 2D       		.uleb128 0x2d
 5042 2398 6A180000 		.4byte	.LASF479
 5043 239c 01       		.byte	0x1
 5044 239d 8A01     		.2byte	0x18a
 5045 239f 00000000 		.4byte	.LFB160
 5046 23a3 A4000000 		.4byte	.LFE160-.LFB160
 5047 23a7 01       		.uleb128 0x1
 5048 23a8 9C       		.byte	0x9c
 5049 23a9 EB230000 		.4byte	0x23eb
 5050 23ad 2E       		.uleb128 0x2e
 5051 23ae F8140000 		.4byte	.LASF480
 5052 23b2 01       		.byte	0x1
 5053 23b3 8A01     		.2byte	0x18a
 5054 23b5 EB230000 		.4byte	0x23eb
 5055 23b9 AC000000 		.4byte	.LLST5
 5056 23bd 2F       		.uleb128 0x2f
 5057 23be D9210000 		.4byte	0x21d9
 5058 23c2 3A000000 		.4byte	.LBB4
 5059 23c6 04000000 		.4byte	.LBE4-.LBB4
 5060 23ca 01       		.byte	0x1
ARM GAS  C:\Users\Rolf\AppData\Local\Temp\ccEjvRQz.s 			page 114


 5061 23cb A501     		.2byte	0x1a5
 5062 23cd E1230000 		.4byte	0x23e1
 5063 23d1 30       		.uleb128 0x30
 5064 23d2 3A000000 		.4byte	.LBB5
 5065 23d6 04000000 		.4byte	.LBE5-.LBB5
 5066 23da 31       		.uleb128 0x31
 5067 23db EA210000 		.4byte	0x21ea
 5068 23df 00       		.byte	0
 5069 23e0 00       		.byte	0
 5070 23e1 1E       		.uleb128 0x1e
 5071 23e2 98000000 		.4byte	.LVL21
 5072 23e6 85230000 		.4byte	0x2385
 5073 23ea 00       		.byte	0
 5074 23eb 24       		.uleb128 0x24
 5075 23ec 04       		.byte	0x4
 5076 23ed F1230000 		.4byte	0x23f1
 5077 23f1 06       		.uleb128 0x6
 5078 23f2 D9000000 		.4byte	0xd9
 5079 23f6 2D       		.uleb128 0x2d
 5080 23f7 17040000 		.4byte	.LASF481
 5081 23fb 01       		.byte	0x1
 5082 23fc FB01     		.2byte	0x1fb
 5083 23fe 00000000 		.4byte	.LFB162
 5084 2402 CC000000 		.4byte	.LFE162-.LFB162
 5085 2406 01       		.uleb128 0x1
 5086 2407 9C       		.byte	0x9c
 5087 2408 4D240000 		.4byte	0x244d
 5088 240c 2E       		.uleb128 0x2e
 5089 240d 27120000 		.4byte	.LASF482
 5090 2411 01       		.byte	0x1
 5091 2412 FB01     		.2byte	0x1fb
 5092 2414 4D240000 		.4byte	0x244d
 5093 2418 CD000000 		.4byte	.LLST6
 5094 241c 2E       		.uleb128 0x2e
 5095 241d 43150000 		.4byte	.LASF483
 5096 2421 01       		.byte	0x1
 5097 2422 FB01     		.2byte	0x1fb
 5098 2424 D9000000 		.4byte	0xd9
 5099 2428 EE000000 		.4byte	.LLST7
 5100 242c 2B       		.uleb128 0x2b
 5101 242d 0F080000 		.4byte	.LASF484
 5102 2431 01       		.byte	0x1
 5103 2432 FD01     		.2byte	0x1fd
 5104 2434 D9000000 		.4byte	0xd9
 5105 2438 D7010000 		.4byte	.LLST8
 5106 243c 2B       		.uleb128 0x2b
 5107 243d A2130000 		.4byte	.LASF485
 5108 2441 01       		.byte	0x1
 5109 2442 FE01     		.2byte	0x1fe
 5110 2444 D9000000 		.4byte	0xd9
 5111 2448 02020000 		.4byte	.LLST9
 5112 244c 00       		.byte	0
 5113 244d 02       		.uleb128 0x2
 5114 244e 01       		.byte	0x1
 5115 244f 02       		.byte	0x2
 5116 2450 DA060000 		.4byte	.LASF486
 5117 2454 32       		.uleb128 0x32
ARM GAS  C:\Users\Rolf\AppData\Local\Temp\ccEjvRQz.s 			page 115


 5118 2455 EB160000 		.4byte	.LASF487
 5119 2459 09       		.byte	0x9
 5120 245a A7       		.byte	0xa7
 5121 245b 5F240000 		.4byte	0x245f
 5122 245f 24       		.uleb128 0x24
 5123 2460 04       		.byte	0x4
 5124 2461 65240000 		.4byte	0x2465
 5125 2465 06       		.uleb128 0x6
 5126 2466 B71A0000 		.4byte	0x1ab7
 5127 246a 33       		.uleb128 0x33
 5128 246b 59190000 		.4byte	.LASF488
 5129 246f 0A       		.byte	0xa
 5130 2470 F907     		.2byte	0x7f9
 5131 2472 76240000 		.4byte	0x2476
 5132 2476 05       		.uleb128 0x5
 5133 2477 CE000000 		.4byte	0xce
 5134 247b 33       		.uleb128 0x33
 5135 247c B9070000 		.4byte	.LASF489
 5136 2480 0D       		.byte	0xd
 5137 2481 3602     		.2byte	0x236
 5138 2483 D9000000 		.4byte	0xd9
 5139 2487 33       		.uleb128 0x33
 5140 2488 EE070000 		.4byte	.LASF490
 5141 248c 0D       		.byte	0xd
 5142 248d 3702     		.2byte	0x237
 5143 248f AD000000 		.4byte	0xad
 5144 2493 33       		.uleb128 0x33
 5145 2494 650E0000 		.4byte	.LASF491
 5146 2498 0D       		.byte	0xd
 5147 2499 3802     		.2byte	0x238
 5148 249b D9000000 		.4byte	0xd9
 5149 249f 07       		.uleb128 0x7
 5150 24a0 B8210000 		.4byte	0x21b8
 5151 24a4 AF240000 		.4byte	0x24af
 5152 24a8 08       		.uleb128 0x8
 5153 24a9 00010000 		.4byte	0x100
 5154 24ad 17       		.byte	0x17
 5155 24ae 00       		.byte	0
 5156 24af 34       		.uleb128 0x34
 5157 24b0 8C010000 		.4byte	.LASF492
 5158 24b4 01       		.byte	0x1
 5159 24b5 24       		.byte	0x24
 5160 24b6 9F240000 		.4byte	0x249f
 5161 24ba 05       		.uleb128 0x5
 5162 24bb 03       		.byte	0x3
 5163 24bc 00000000 		.4byte	cy_assertFileName
 5164 24c0 34       		.uleb128 0x34
 5165 24c1 1D180000 		.4byte	.LASF493
 5166 24c5 01       		.byte	0x1
 5167 24c6 25       		.byte	0x25
 5168 24c7 D9000000 		.4byte	0xd9
 5169 24cb 05       		.uleb128 0x5
 5170 24cc 03       		.byte	0x3
 5171 24cd 00000000 		.4byte	cy_assertLine
 5172 24d1 34       		.uleb128 0x34
 5173 24d2 64170000 		.4byte	.LASF494
 5174 24d6 01       		.byte	0x1
ARM GAS  C:\Users\Rolf\AppData\Local\Temp\ccEjvRQz.s 			page 116


 5175 24d7 29       		.byte	0x29
 5176 24d8 AC210000 		.4byte	0x21ac
 5177 24dc 05       		.uleb128 0x5
 5178 24dd 03       		.byte	0x3
 5179 24de 00000000 		.4byte	cy_faultFrame
 5180 24e2 35       		.uleb128 0x35
 5181 24e3 24010000 		.4byte	.LASF495
 5182 24e7 24010000 		.4byte	.LASF495
 5183 24eb 0C       		.byte	0xc
 5184 24ec 8F03     		.2byte	0x38f
 5185 24ee 36       		.uleb128 0x36
 5186 24ef 0F160000 		.4byte	.LASF496
 5187 24f3 0F160000 		.4byte	.LASF496
 5188 24f7 0E       		.byte	0xe
 5189 24f8 24       		.byte	0x24
 5190 24f9 00       		.byte	0
 5191              		.section	.debug_abbrev,"",%progbits
 5192              	.Ldebug_abbrev0:
 5193 0000 01       		.uleb128 0x1
 5194 0001 11       		.uleb128 0x11
 5195 0002 01       		.byte	0x1
 5196 0003 25       		.uleb128 0x25
 5197 0004 0E       		.uleb128 0xe
 5198 0005 13       		.uleb128 0x13
 5199 0006 0B       		.uleb128 0xb
 5200 0007 03       		.uleb128 0x3
 5201 0008 0E       		.uleb128 0xe
 5202 0009 1B       		.uleb128 0x1b
 5203 000a 0E       		.uleb128 0xe
 5204 000b 55       		.uleb128 0x55
 5205 000c 17       		.uleb128 0x17
 5206 000d 11       		.uleb128 0x11
 5207 000e 01       		.uleb128 0x1
 5208 000f 10       		.uleb128 0x10
 5209 0010 17       		.uleb128 0x17
 5210 0011 00       		.byte	0
 5211 0012 00       		.byte	0
 5212 0013 02       		.uleb128 0x2
 5213 0014 24       		.uleb128 0x24
 5214 0015 00       		.byte	0
 5215 0016 0B       		.uleb128 0xb
 5216 0017 0B       		.uleb128 0xb
 5217 0018 3E       		.uleb128 0x3e
 5218 0019 0B       		.uleb128 0xb
 5219 001a 03       		.uleb128 0x3
 5220 001b 0E       		.uleb128 0xe
 5221 001c 00       		.byte	0
 5222 001d 00       		.byte	0
 5223 001e 03       		.uleb128 0x3
 5224 001f 16       		.uleb128 0x16
 5225 0020 00       		.byte	0
 5226 0021 03       		.uleb128 0x3
 5227 0022 0E       		.uleb128 0xe
 5228 0023 3A       		.uleb128 0x3a
 5229 0024 0B       		.uleb128 0xb
 5230 0025 3B       		.uleb128 0x3b
 5231 0026 0B       		.uleb128 0xb
ARM GAS  C:\Users\Rolf\AppData\Local\Temp\ccEjvRQz.s 			page 117


 5232 0027 49       		.uleb128 0x49
 5233 0028 13       		.uleb128 0x13
 5234 0029 00       		.byte	0
 5235 002a 00       		.byte	0
 5236 002b 04       		.uleb128 0x4
 5237 002c 24       		.uleb128 0x24
 5238 002d 00       		.byte	0
 5239 002e 0B       		.uleb128 0xb
 5240 002f 0B       		.uleb128 0xb
 5241 0030 3E       		.uleb128 0x3e
 5242 0031 0B       		.uleb128 0xb
 5243 0032 03       		.uleb128 0x3
 5244 0033 08       		.uleb128 0x8
 5245 0034 00       		.byte	0
 5246 0035 00       		.byte	0
 5247 0036 05       		.uleb128 0x5
 5248 0037 35       		.uleb128 0x35
 5249 0038 00       		.byte	0
 5250 0039 49       		.uleb128 0x49
 5251 003a 13       		.uleb128 0x13
 5252 003b 00       		.byte	0
 5253 003c 00       		.byte	0
 5254 003d 06       		.uleb128 0x6
 5255 003e 26       		.uleb128 0x26
 5256 003f 00       		.byte	0
 5257 0040 49       		.uleb128 0x49
 5258 0041 13       		.uleb128 0x13
 5259 0042 00       		.byte	0
 5260 0043 00       		.byte	0
 5261 0044 07       		.uleb128 0x7
 5262 0045 01       		.uleb128 0x1
 5263 0046 01       		.byte	0x1
 5264 0047 49       		.uleb128 0x49
 5265 0048 13       		.uleb128 0x13
 5266 0049 01       		.uleb128 0x1
 5267 004a 13       		.uleb128 0x13
 5268 004b 00       		.byte	0
 5269 004c 00       		.byte	0
 5270 004d 08       		.uleb128 0x8
 5271 004e 21       		.uleb128 0x21
 5272 004f 00       		.byte	0
 5273 0050 49       		.uleb128 0x49
 5274 0051 13       		.uleb128 0x13
 5275 0052 2F       		.uleb128 0x2f
 5276 0053 0B       		.uleb128 0xb
 5277 0054 00       		.byte	0
 5278 0055 00       		.byte	0
 5279 0056 09       		.uleb128 0x9
 5280 0057 13       		.uleb128 0x13
 5281 0058 01       		.byte	0x1
 5282 0059 0B       		.uleb128 0xb
 5283 005a 05       		.uleb128 0x5
 5284 005b 3A       		.uleb128 0x3a
 5285 005c 0B       		.uleb128 0xb
 5286 005d 3B       		.uleb128 0x3b
 5287 005e 0B       		.uleb128 0xb
 5288 005f 01       		.uleb128 0x1
ARM GAS  C:\Users\Rolf\AppData\Local\Temp\ccEjvRQz.s 			page 118


 5289 0060 13       		.uleb128 0x13
 5290 0061 00       		.byte	0
 5291 0062 00       		.byte	0
 5292 0063 0A       		.uleb128 0xa
 5293 0064 0D       		.uleb128 0xd
 5294 0065 00       		.byte	0
 5295 0066 03       		.uleb128 0x3
 5296 0067 0E       		.uleb128 0xe
 5297 0068 3A       		.uleb128 0x3a
 5298 0069 0B       		.uleb128 0xb
 5299 006a 3B       		.uleb128 0x3b
 5300 006b 0B       		.uleb128 0xb
 5301 006c 49       		.uleb128 0x49
 5302 006d 13       		.uleb128 0x13
 5303 006e 38       		.uleb128 0x38
 5304 006f 0B       		.uleb128 0xb
 5305 0070 00       		.byte	0
 5306 0071 00       		.byte	0
 5307 0072 0B       		.uleb128 0xb
 5308 0073 0D       		.uleb128 0xd
 5309 0074 00       		.byte	0
 5310 0075 03       		.uleb128 0x3
 5311 0076 0E       		.uleb128 0xe
 5312 0077 3A       		.uleb128 0x3a
 5313 0078 0B       		.uleb128 0xb
 5314 0079 3B       		.uleb128 0x3b
 5315 007a 0B       		.uleb128 0xb
 5316 007b 49       		.uleb128 0x49
 5317 007c 13       		.uleb128 0x13
 5318 007d 38       		.uleb128 0x38
 5319 007e 05       		.uleb128 0x5
 5320 007f 00       		.byte	0
 5321 0080 00       		.byte	0
 5322 0081 0C       		.uleb128 0xc
 5323 0082 21       		.uleb128 0x21
 5324 0083 00       		.byte	0
 5325 0084 49       		.uleb128 0x49
 5326 0085 13       		.uleb128 0x13
 5327 0086 2F       		.uleb128 0x2f
 5328 0087 05       		.uleb128 0x5
 5329 0088 00       		.byte	0
 5330 0089 00       		.byte	0
 5331 008a 0D       		.uleb128 0xd
 5332 008b 13       		.uleb128 0x13
 5333 008c 01       		.byte	0x1
 5334 008d 0B       		.uleb128 0xb
 5335 008e 06       		.uleb128 0x6
 5336 008f 3A       		.uleb128 0x3a
 5337 0090 0B       		.uleb128 0xb
 5338 0091 3B       		.uleb128 0x3b
 5339 0092 0B       		.uleb128 0xb
 5340 0093 01       		.uleb128 0x1
 5341 0094 13       		.uleb128 0x13
 5342 0095 00       		.byte	0
 5343 0096 00       		.byte	0
 5344 0097 0E       		.uleb128 0xe
 5345 0098 13       		.uleb128 0x13
ARM GAS  C:\Users\Rolf\AppData\Local\Temp\ccEjvRQz.s 			page 119


 5346 0099 01       		.byte	0x1
 5347 009a 0B       		.uleb128 0xb
 5348 009b 0B       		.uleb128 0xb
 5349 009c 3A       		.uleb128 0x3a
 5350 009d 0B       		.uleb128 0xb
 5351 009e 3B       		.uleb128 0x3b
 5352 009f 0B       		.uleb128 0xb
 5353 00a0 01       		.uleb128 0x1
 5354 00a1 13       		.uleb128 0x13
 5355 00a2 00       		.byte	0
 5356 00a3 00       		.byte	0
 5357 00a4 0F       		.uleb128 0xf
 5358 00a5 0D       		.uleb128 0xd
 5359 00a6 00       		.byte	0
 5360 00a7 03       		.uleb128 0x3
 5361 00a8 08       		.uleb128 0x8
 5362 00a9 3A       		.uleb128 0x3a
 5363 00aa 0B       		.uleb128 0xb
 5364 00ab 3B       		.uleb128 0x3b
 5365 00ac 0B       		.uleb128 0xb
 5366 00ad 49       		.uleb128 0x49
 5367 00ae 13       		.uleb128 0x13
 5368 00af 38       		.uleb128 0x38
 5369 00b0 0B       		.uleb128 0xb
 5370 00b1 00       		.byte	0
 5371 00b2 00       		.byte	0
 5372 00b3 10       		.uleb128 0x10
 5373 00b4 13       		.uleb128 0x13
 5374 00b5 01       		.byte	0x1
 5375 00b6 0B       		.uleb128 0xb
 5376 00b7 0B       		.uleb128 0xb
 5377 00b8 3A       		.uleb128 0x3a
 5378 00b9 0B       		.uleb128 0xb
 5379 00ba 3B       		.uleb128 0x3b
 5380 00bb 05       		.uleb128 0x5
 5381 00bc 01       		.uleb128 0x1
 5382 00bd 13       		.uleb128 0x13
 5383 00be 00       		.byte	0
 5384 00bf 00       		.byte	0
 5385 00c0 11       		.uleb128 0x11
 5386 00c1 0D       		.uleb128 0xd
 5387 00c2 00       		.byte	0
 5388 00c3 03       		.uleb128 0x3
 5389 00c4 0E       		.uleb128 0xe
 5390 00c5 3A       		.uleb128 0x3a
 5391 00c6 0B       		.uleb128 0xb
 5392 00c7 3B       		.uleb128 0x3b
 5393 00c8 05       		.uleb128 0x5
 5394 00c9 49       		.uleb128 0x49
 5395 00ca 13       		.uleb128 0x13
 5396 00cb 38       		.uleb128 0x38
 5397 00cc 0B       		.uleb128 0xb
 5398 00cd 00       		.byte	0
 5399 00ce 00       		.byte	0
 5400 00cf 12       		.uleb128 0x12
 5401 00d0 0D       		.uleb128 0xd
 5402 00d1 00       		.byte	0
ARM GAS  C:\Users\Rolf\AppData\Local\Temp\ccEjvRQz.s 			page 120


 5403 00d2 03       		.uleb128 0x3
 5404 00d3 08       		.uleb128 0x8
 5405 00d4 3A       		.uleb128 0x3a
 5406 00d5 0B       		.uleb128 0xb
 5407 00d6 3B       		.uleb128 0x3b
 5408 00d7 05       		.uleb128 0x5
 5409 00d8 49       		.uleb128 0x49
 5410 00d9 13       		.uleb128 0x13
 5411 00da 38       		.uleb128 0x38
 5412 00db 0B       		.uleb128 0xb
 5413 00dc 00       		.byte	0
 5414 00dd 00       		.byte	0
 5415 00de 13       		.uleb128 0x13
 5416 00df 16       		.uleb128 0x16
 5417 00e0 00       		.byte	0
 5418 00e1 03       		.uleb128 0x3
 5419 00e2 0E       		.uleb128 0xe
 5420 00e3 3A       		.uleb128 0x3a
 5421 00e4 0B       		.uleb128 0xb
 5422 00e5 3B       		.uleb128 0x3b
 5423 00e6 05       		.uleb128 0x5
 5424 00e7 49       		.uleb128 0x49
 5425 00e8 13       		.uleb128 0x13
 5426 00e9 00       		.byte	0
 5427 00ea 00       		.byte	0
 5428 00eb 14       		.uleb128 0x14
 5429 00ec 04       		.uleb128 0x4
 5430 00ed 01       		.byte	0x1
 5431 00ee 0B       		.uleb128 0xb
 5432 00ef 0B       		.uleb128 0xb
 5433 00f0 49       		.uleb128 0x49
 5434 00f1 13       		.uleb128 0x13
 5435 00f2 3A       		.uleb128 0x3a
 5436 00f3 0B       		.uleb128 0xb
 5437 00f4 3B       		.uleb128 0x3b
 5438 00f5 05       		.uleb128 0x5
 5439 00f6 01       		.uleb128 0x1
 5440 00f7 13       		.uleb128 0x13
 5441 00f8 00       		.byte	0
 5442 00f9 00       		.byte	0
 5443 00fa 15       		.uleb128 0x15
 5444 00fb 28       		.uleb128 0x28
 5445 00fc 00       		.byte	0
 5446 00fd 03       		.uleb128 0x3
 5447 00fe 0E       		.uleb128 0xe
 5448 00ff 1C       		.uleb128 0x1c
 5449 0100 0B       		.uleb128 0xb
 5450 0101 00       		.byte	0
 5451 0102 00       		.byte	0
 5452 0103 16       		.uleb128 0x16
 5453 0104 28       		.uleb128 0x28
 5454 0105 00       		.byte	0
 5455 0106 03       		.uleb128 0x3
 5456 0107 0E       		.uleb128 0xe
 5457 0108 1C       		.uleb128 0x1c
 5458 0109 06       		.uleb128 0x6
 5459 010a 00       		.byte	0
ARM GAS  C:\Users\Rolf\AppData\Local\Temp\ccEjvRQz.s 			page 121


 5460 010b 00       		.byte	0
 5461 010c 17       		.uleb128 0x17
 5462 010d 0D       		.uleb128 0xd
 5463 010e 00       		.byte	0
 5464 010f 03       		.uleb128 0x3
 5465 0110 0E       		.uleb128 0xe
 5466 0111 3A       		.uleb128 0x3a
 5467 0112 0B       		.uleb128 0xb
 5468 0113 3B       		.uleb128 0x3b
 5469 0114 05       		.uleb128 0x5
 5470 0115 49       		.uleb128 0x49
 5471 0116 13       		.uleb128 0x13
 5472 0117 0B       		.uleb128 0xb
 5473 0118 0B       		.uleb128 0xb
 5474 0119 0D       		.uleb128 0xd
 5475 011a 0B       		.uleb128 0xb
 5476 011b 0C       		.uleb128 0xc
 5477 011c 0B       		.uleb128 0xb
 5478 011d 38       		.uleb128 0x38
 5479 011e 0B       		.uleb128 0xb
 5480 011f 00       		.byte	0
 5481 0120 00       		.byte	0
 5482 0121 18       		.uleb128 0x18
 5483 0122 17       		.uleb128 0x17
 5484 0123 01       		.byte	0x1
 5485 0124 0B       		.uleb128 0xb
 5486 0125 0B       		.uleb128 0xb
 5487 0126 3A       		.uleb128 0x3a
 5488 0127 0B       		.uleb128 0xb
 5489 0128 3B       		.uleb128 0x3b
 5490 0129 05       		.uleb128 0x5
 5491 012a 01       		.uleb128 0x1
 5492 012b 13       		.uleb128 0x13
 5493 012c 00       		.byte	0
 5494 012d 00       		.byte	0
 5495 012e 19       		.uleb128 0x19
 5496 012f 0D       		.uleb128 0xd
 5497 0130 00       		.byte	0
 5498 0131 03       		.uleb128 0x3
 5499 0132 0E       		.uleb128 0xe
 5500 0133 3A       		.uleb128 0x3a
 5501 0134 0B       		.uleb128 0xb
 5502 0135 3B       		.uleb128 0x3b
 5503 0136 05       		.uleb128 0x5
 5504 0137 49       		.uleb128 0x49
 5505 0138 13       		.uleb128 0x13
 5506 0139 00       		.byte	0
 5507 013a 00       		.byte	0
 5508 013b 1A       		.uleb128 0x1a
 5509 013c 2E       		.uleb128 0x2e
 5510 013d 01       		.byte	0x1
 5511 013e 03       		.uleb128 0x3
 5512 013f 0E       		.uleb128 0xe
 5513 0140 3A       		.uleb128 0x3a
 5514 0141 0B       		.uleb128 0xb
 5515 0142 3B       		.uleb128 0x3b
 5516 0143 05       		.uleb128 0x5
ARM GAS  C:\Users\Rolf\AppData\Local\Temp\ccEjvRQz.s 			page 122


 5517 0144 27       		.uleb128 0x27
 5518 0145 19       		.uleb128 0x19
 5519 0146 49       		.uleb128 0x49
 5520 0147 13       		.uleb128 0x13
 5521 0148 20       		.uleb128 0x20
 5522 0149 0B       		.uleb128 0xb
 5523 014a 01       		.uleb128 0x1
 5524 014b 13       		.uleb128 0x13
 5525 014c 00       		.byte	0
 5526 014d 00       		.byte	0
 5527 014e 1B       		.uleb128 0x1b
 5528 014f 34       		.uleb128 0x34
 5529 0150 00       		.byte	0
 5530 0151 03       		.uleb128 0x3
 5531 0152 0E       		.uleb128 0xe
 5532 0153 3A       		.uleb128 0x3a
 5533 0154 0B       		.uleb128 0xb
 5534 0155 3B       		.uleb128 0x3b
 5535 0156 05       		.uleb128 0x5
 5536 0157 49       		.uleb128 0x49
 5537 0158 13       		.uleb128 0x13
 5538 0159 00       		.byte	0
 5539 015a 00       		.byte	0
 5540 015b 1C       		.uleb128 0x1c
 5541 015c 2E       		.uleb128 0x2e
 5542 015d 01       		.byte	0x1
 5543 015e 3F       		.uleb128 0x3f
 5544 015f 19       		.uleb128 0x19
 5545 0160 03       		.uleb128 0x3
 5546 0161 0E       		.uleb128 0xe
 5547 0162 3A       		.uleb128 0x3a
 5548 0163 0B       		.uleb128 0xb
 5549 0164 3B       		.uleb128 0x3b
 5550 0165 0B       		.uleb128 0xb
 5551 0166 27       		.uleb128 0x27
 5552 0167 19       		.uleb128 0x19
 5553 0168 11       		.uleb128 0x11
 5554 0169 01       		.uleb128 0x1
 5555 016a 12       		.uleb128 0x12
 5556 016b 06       		.uleb128 0x6
 5557 016c 40       		.uleb128 0x40
 5558 016d 18       		.uleb128 0x18
 5559 016e 9742     		.uleb128 0x2117
 5560 0170 19       		.uleb128 0x19
 5561 0171 01       		.uleb128 0x1
 5562 0172 13       		.uleb128 0x13
 5563 0173 00       		.byte	0
 5564 0174 00       		.byte	0
 5565 0175 1D       		.uleb128 0x1d
 5566 0176 05       		.uleb128 0x5
 5567 0177 00       		.byte	0
 5568 0178 03       		.uleb128 0x3
 5569 0179 0E       		.uleb128 0xe
 5570 017a 3A       		.uleb128 0x3a
 5571 017b 0B       		.uleb128 0xb
 5572 017c 3B       		.uleb128 0x3b
 5573 017d 0B       		.uleb128 0xb
ARM GAS  C:\Users\Rolf\AppData\Local\Temp\ccEjvRQz.s 			page 123


 5574 017e 49       		.uleb128 0x49
 5575 017f 13       		.uleb128 0x13
 5576 0180 02       		.uleb128 0x2
 5577 0181 17       		.uleb128 0x17
 5578 0182 00       		.byte	0
 5579 0183 00       		.byte	0
 5580 0184 1E       		.uleb128 0x1e
 5581 0185 898201   		.uleb128 0x4109
 5582 0188 00       		.byte	0
 5583 0189 11       		.uleb128 0x11
 5584 018a 01       		.uleb128 0x1
 5585 018b 31       		.uleb128 0x31
 5586 018c 13       		.uleb128 0x13
 5587 018d 00       		.byte	0
 5588 018e 00       		.byte	0
 5589 018f 1F       		.uleb128 0x1f
 5590 0190 2E       		.uleb128 0x2e
 5591 0191 01       		.byte	0x1
 5592 0192 3F       		.uleb128 0x3f
 5593 0193 19       		.uleb128 0x19
 5594 0194 03       		.uleb128 0x3
 5595 0195 0E       		.uleb128 0xe
 5596 0196 3A       		.uleb128 0x3a
 5597 0197 0B       		.uleb128 0xb
 5598 0198 3B       		.uleb128 0x3b
 5599 0199 0B       		.uleb128 0xb
 5600 019a 27       		.uleb128 0x27
 5601 019b 19       		.uleb128 0x19
 5602 019c 8701     		.uleb128 0x87
 5603 019e 19       		.uleb128 0x19
 5604 019f 11       		.uleb128 0x11
 5605 01a0 01       		.uleb128 0x1
 5606 01a1 12       		.uleb128 0x12
 5607 01a2 06       		.uleb128 0x6
 5608 01a3 40       		.uleb128 0x40
 5609 01a4 18       		.uleb128 0x18
 5610 01a5 9742     		.uleb128 0x2117
 5611 01a7 19       		.uleb128 0x19
 5612 01a8 01       		.uleb128 0x1
 5613 01a9 13       		.uleb128 0x13
 5614 01aa 00       		.byte	0
 5615 01ab 00       		.byte	0
 5616 01ac 20       		.uleb128 0x20
 5617 01ad 05       		.uleb128 0x5
 5618 01ae 00       		.byte	0
 5619 01af 03       		.uleb128 0x3
 5620 01b0 0E       		.uleb128 0xe
 5621 01b1 3A       		.uleb128 0x3a
 5622 01b2 0B       		.uleb128 0xb
 5623 01b3 3B       		.uleb128 0x3b
 5624 01b4 0B       		.uleb128 0xb
 5625 01b5 49       		.uleb128 0x49
 5626 01b6 13       		.uleb128 0x13
 5627 01b7 02       		.uleb128 0x2
 5628 01b8 18       		.uleb128 0x18
 5629 01b9 00       		.byte	0
 5630 01ba 00       		.byte	0
ARM GAS  C:\Users\Rolf\AppData\Local\Temp\ccEjvRQz.s 			page 124


 5631 01bb 21       		.uleb128 0x21
 5632 01bc 898201   		.uleb128 0x4109
 5633 01bf 01       		.byte	0x1
 5634 01c0 11       		.uleb128 0x11
 5635 01c1 01       		.uleb128 0x1
 5636 01c2 31       		.uleb128 0x31
 5637 01c3 13       		.uleb128 0x13
 5638 01c4 01       		.uleb128 0x1
 5639 01c5 13       		.uleb128 0x13
 5640 01c6 00       		.byte	0
 5641 01c7 00       		.byte	0
 5642 01c8 22       		.uleb128 0x22
 5643 01c9 8A8201   		.uleb128 0x410a
 5644 01cc 00       		.byte	0
 5645 01cd 02       		.uleb128 0x2
 5646 01ce 18       		.uleb128 0x18
 5647 01cf 9142     		.uleb128 0x2111
 5648 01d1 18       		.uleb128 0x18
 5649 01d2 00       		.byte	0
 5650 01d3 00       		.byte	0
 5651 01d4 23       		.uleb128 0x23
 5652 01d5 898201   		.uleb128 0x4109
 5653 01d8 01       		.byte	0x1
 5654 01d9 11       		.uleb128 0x11
 5655 01da 01       		.uleb128 0x1
 5656 01db 31       		.uleb128 0x31
 5657 01dc 13       		.uleb128 0x13
 5658 01dd 00       		.byte	0
 5659 01de 00       		.byte	0
 5660 01df 24       		.uleb128 0x24
 5661 01e0 0F       		.uleb128 0xf
 5662 01e1 00       		.byte	0
 5663 01e2 0B       		.uleb128 0xb
 5664 01e3 0B       		.uleb128 0xb
 5665 01e4 49       		.uleb128 0x49
 5666 01e5 13       		.uleb128 0x13
 5667 01e6 00       		.byte	0
 5668 01e7 00       		.byte	0
 5669 01e8 25       		.uleb128 0x25
 5670 01e9 2E       		.uleb128 0x2e
 5671 01ea 00       		.byte	0
 5672 01eb 3F       		.uleb128 0x3f
 5673 01ec 19       		.uleb128 0x19
 5674 01ed 03       		.uleb128 0x3
 5675 01ee 0E       		.uleb128 0xe
 5676 01ef 3A       		.uleb128 0x3a
 5677 01f0 0B       		.uleb128 0xb
 5678 01f1 3B       		.uleb128 0x3b
 5679 01f2 0B       		.uleb128 0xb
 5680 01f3 27       		.uleb128 0x27
 5681 01f4 19       		.uleb128 0x19
 5682 01f5 11       		.uleb128 0x11
 5683 01f6 01       		.uleb128 0x1
 5684 01f7 12       		.uleb128 0x12
 5685 01f8 06       		.uleb128 0x6
 5686 01f9 40       		.uleb128 0x40
 5687 01fa 18       		.uleb128 0x18
ARM GAS  C:\Users\Rolf\AppData\Local\Temp\ccEjvRQz.s 			page 125


 5688 01fb 9742     		.uleb128 0x2117
 5689 01fd 19       		.uleb128 0x19
 5690 01fe 00       		.byte	0
 5691 01ff 00       		.byte	0
 5692 0200 26       		.uleb128 0x26
 5693 0201 2E       		.uleb128 0x2e
 5694 0202 00       		.byte	0
 5695 0203 3F       		.uleb128 0x3f
 5696 0204 19       		.uleb128 0x19
 5697 0205 03       		.uleb128 0x3
 5698 0206 0E       		.uleb128 0xe
 5699 0207 3A       		.uleb128 0x3a
 5700 0208 0B       		.uleb128 0xb
 5701 0209 3B       		.uleb128 0x3b
 5702 020a 0B       		.uleb128 0xb
 5703 020b 27       		.uleb128 0x27
 5704 020c 19       		.uleb128 0x19
 5705 020d 49       		.uleb128 0x49
 5706 020e 13       		.uleb128 0x13
 5707 020f 11       		.uleb128 0x11
 5708 0210 01       		.uleb128 0x1
 5709 0211 12       		.uleb128 0x12
 5710 0212 06       		.uleb128 0x6
 5711 0213 40       		.uleb128 0x40
 5712 0214 18       		.uleb128 0x18
 5713 0215 9742     		.uleb128 0x2117
 5714 0217 19       		.uleb128 0x19
 5715 0218 00       		.byte	0
 5716 0219 00       		.byte	0
 5717 021a 27       		.uleb128 0x27
 5718 021b 2E       		.uleb128 0x2e
 5719 021c 01       		.byte	0x1
 5720 021d 3F       		.uleb128 0x3f
 5721 021e 19       		.uleb128 0x19
 5722 021f 03       		.uleb128 0x3
 5723 0220 0E       		.uleb128 0xe
 5724 0221 3A       		.uleb128 0x3a
 5725 0222 0B       		.uleb128 0xb
 5726 0223 3B       		.uleb128 0x3b
 5727 0224 0B       		.uleb128 0xb
 5728 0225 27       		.uleb128 0x27
 5729 0226 19       		.uleb128 0x19
 5730 0227 49       		.uleb128 0x49
 5731 0228 13       		.uleb128 0x13
 5732 0229 11       		.uleb128 0x11
 5733 022a 01       		.uleb128 0x1
 5734 022b 12       		.uleb128 0x12
 5735 022c 06       		.uleb128 0x6
 5736 022d 40       		.uleb128 0x40
 5737 022e 18       		.uleb128 0x18
 5738 022f 9742     		.uleb128 0x2117
 5739 0231 19       		.uleb128 0x19
 5740 0232 01       		.uleb128 0x1
 5741 0233 13       		.uleb128 0x13
 5742 0234 00       		.byte	0
 5743 0235 00       		.byte	0
 5744 0236 28       		.uleb128 0x28
ARM GAS  C:\Users\Rolf\AppData\Local\Temp\ccEjvRQz.s 			page 126


 5745 0237 34       		.uleb128 0x34
 5746 0238 00       		.byte	0
 5747 0239 03       		.uleb128 0x3
 5748 023a 0E       		.uleb128 0xe
 5749 023b 3A       		.uleb128 0x3a
 5750 023c 0B       		.uleb128 0xb
 5751 023d 3B       		.uleb128 0x3b
 5752 023e 0B       		.uleb128 0xb
 5753 023f 49       		.uleb128 0x49
 5754 0240 13       		.uleb128 0x13
 5755 0241 02       		.uleb128 0x2
 5756 0242 18       		.uleb128 0x18
 5757 0243 00       		.byte	0
 5758 0244 00       		.byte	0
 5759 0245 29       		.uleb128 0x29
 5760 0246 2E       		.uleb128 0x2e
 5761 0247 00       		.byte	0
 5762 0248 3F       		.uleb128 0x3f
 5763 0249 19       		.uleb128 0x19
 5764 024a 03       		.uleb128 0x3
 5765 024b 0E       		.uleb128 0xe
 5766 024c 3A       		.uleb128 0x3a
 5767 024d 0B       		.uleb128 0xb
 5768 024e 3B       		.uleb128 0x3b
 5769 024f 05       		.uleb128 0x5
 5770 0250 27       		.uleb128 0x27
 5771 0251 19       		.uleb128 0x19
 5772 0252 11       		.uleb128 0x11
 5773 0253 01       		.uleb128 0x1
 5774 0254 12       		.uleb128 0x12
 5775 0255 06       		.uleb128 0x6
 5776 0256 40       		.uleb128 0x40
 5777 0257 18       		.uleb128 0x18
 5778 0258 9742     		.uleb128 0x2117
 5779 025a 19       		.uleb128 0x19
 5780 025b 00       		.byte	0
 5781 025c 00       		.byte	0
 5782 025d 2A       		.uleb128 0x2a
 5783 025e 2E       		.uleb128 0x2e
 5784 025f 01       		.byte	0x1
 5785 0260 3F       		.uleb128 0x3f
 5786 0261 19       		.uleb128 0x19
 5787 0262 03       		.uleb128 0x3
 5788 0263 0E       		.uleb128 0xe
 5789 0264 3A       		.uleb128 0x3a
 5790 0265 0B       		.uleb128 0xb
 5791 0266 3B       		.uleb128 0x3b
 5792 0267 05       		.uleb128 0x5
 5793 0268 27       		.uleb128 0x27
 5794 0269 19       		.uleb128 0x19
 5795 026a 49       		.uleb128 0x49
 5796 026b 13       		.uleb128 0x13
 5797 026c 11       		.uleb128 0x11
 5798 026d 01       		.uleb128 0x1
 5799 026e 12       		.uleb128 0x12
 5800 026f 06       		.uleb128 0x6
 5801 0270 40       		.uleb128 0x40
ARM GAS  C:\Users\Rolf\AppData\Local\Temp\ccEjvRQz.s 			page 127


 5802 0271 18       		.uleb128 0x18
 5803 0272 9742     		.uleb128 0x2117
 5804 0274 19       		.uleb128 0x19
 5805 0275 01       		.uleb128 0x1
 5806 0276 13       		.uleb128 0x13
 5807 0277 00       		.byte	0
 5808 0278 00       		.byte	0
 5809 0279 2B       		.uleb128 0x2b
 5810 027a 34       		.uleb128 0x34
 5811 027b 00       		.byte	0
 5812 027c 03       		.uleb128 0x3
 5813 027d 0E       		.uleb128 0xe
 5814 027e 3A       		.uleb128 0x3a
 5815 027f 0B       		.uleb128 0xb
 5816 0280 3B       		.uleb128 0x3b
 5817 0281 05       		.uleb128 0x5
 5818 0282 49       		.uleb128 0x49
 5819 0283 13       		.uleb128 0x13
 5820 0284 02       		.uleb128 0x2
 5821 0285 17       		.uleb128 0x17
 5822 0286 00       		.byte	0
 5823 0287 00       		.byte	0
 5824 0288 2C       		.uleb128 0x2c
 5825 0289 34       		.uleb128 0x34
 5826 028a 00       		.byte	0
 5827 028b 03       		.uleb128 0x3
 5828 028c 0E       		.uleb128 0xe
 5829 028d 3A       		.uleb128 0x3a
 5830 028e 0B       		.uleb128 0xb
 5831 028f 3B       		.uleb128 0x3b
 5832 0290 05       		.uleb128 0x5
 5833 0291 49       		.uleb128 0x49
 5834 0292 13       		.uleb128 0x13
 5835 0293 02       		.uleb128 0x2
 5836 0294 18       		.uleb128 0x18
 5837 0295 00       		.byte	0
 5838 0296 00       		.byte	0
 5839 0297 2D       		.uleb128 0x2d
 5840 0298 2E       		.uleb128 0x2e
 5841 0299 01       		.byte	0x1
 5842 029a 3F       		.uleb128 0x3f
 5843 029b 19       		.uleb128 0x19
 5844 029c 03       		.uleb128 0x3
 5845 029d 0E       		.uleb128 0xe
 5846 029e 3A       		.uleb128 0x3a
 5847 029f 0B       		.uleb128 0xb
 5848 02a0 3B       		.uleb128 0x3b
 5849 02a1 05       		.uleb128 0x5
 5850 02a2 27       		.uleb128 0x27
 5851 02a3 19       		.uleb128 0x19
 5852 02a4 11       		.uleb128 0x11
 5853 02a5 01       		.uleb128 0x1
 5854 02a6 12       		.uleb128 0x12
 5855 02a7 06       		.uleb128 0x6
 5856 02a8 40       		.uleb128 0x40
 5857 02a9 18       		.uleb128 0x18
 5858 02aa 9742     		.uleb128 0x2117
ARM GAS  C:\Users\Rolf\AppData\Local\Temp\ccEjvRQz.s 			page 128


 5859 02ac 19       		.uleb128 0x19
 5860 02ad 01       		.uleb128 0x1
 5861 02ae 13       		.uleb128 0x13
 5862 02af 00       		.byte	0
 5863 02b0 00       		.byte	0
 5864 02b1 2E       		.uleb128 0x2e
 5865 02b2 05       		.uleb128 0x5
 5866 02b3 00       		.byte	0
 5867 02b4 03       		.uleb128 0x3
 5868 02b5 0E       		.uleb128 0xe
 5869 02b6 3A       		.uleb128 0x3a
 5870 02b7 0B       		.uleb128 0xb
 5871 02b8 3B       		.uleb128 0x3b
 5872 02b9 05       		.uleb128 0x5
 5873 02ba 49       		.uleb128 0x49
 5874 02bb 13       		.uleb128 0x13
 5875 02bc 02       		.uleb128 0x2
 5876 02bd 17       		.uleb128 0x17
 5877 02be 00       		.byte	0
 5878 02bf 00       		.byte	0
 5879 02c0 2F       		.uleb128 0x2f
 5880 02c1 1D       		.uleb128 0x1d
 5881 02c2 01       		.byte	0x1
 5882 02c3 31       		.uleb128 0x31
 5883 02c4 13       		.uleb128 0x13
 5884 02c5 11       		.uleb128 0x11
 5885 02c6 01       		.uleb128 0x1
 5886 02c7 12       		.uleb128 0x12
 5887 02c8 06       		.uleb128 0x6
 5888 02c9 58       		.uleb128 0x58
 5889 02ca 0B       		.uleb128 0xb
 5890 02cb 59       		.uleb128 0x59
 5891 02cc 05       		.uleb128 0x5
 5892 02cd 01       		.uleb128 0x1
 5893 02ce 13       		.uleb128 0x13
 5894 02cf 00       		.byte	0
 5895 02d0 00       		.byte	0
 5896 02d1 30       		.uleb128 0x30
 5897 02d2 0B       		.uleb128 0xb
 5898 02d3 01       		.byte	0x1
 5899 02d4 11       		.uleb128 0x11
 5900 02d5 01       		.uleb128 0x1
 5901 02d6 12       		.uleb128 0x12
 5902 02d7 06       		.uleb128 0x6
 5903 02d8 00       		.byte	0
 5904 02d9 00       		.byte	0
 5905 02da 31       		.uleb128 0x31
 5906 02db 34       		.uleb128 0x34
 5907 02dc 00       		.byte	0
 5908 02dd 31       		.uleb128 0x31
 5909 02de 13       		.uleb128 0x13
 5910 02df 00       		.byte	0
 5911 02e0 00       		.byte	0
 5912 02e1 32       		.uleb128 0x32
 5913 02e2 34       		.uleb128 0x34
 5914 02e3 00       		.byte	0
 5915 02e4 03       		.uleb128 0x3
ARM GAS  C:\Users\Rolf\AppData\Local\Temp\ccEjvRQz.s 			page 129


 5916 02e5 0E       		.uleb128 0xe
 5917 02e6 3A       		.uleb128 0x3a
 5918 02e7 0B       		.uleb128 0xb
 5919 02e8 3B       		.uleb128 0x3b
 5920 02e9 0B       		.uleb128 0xb
 5921 02ea 49       		.uleb128 0x49
 5922 02eb 13       		.uleb128 0x13
 5923 02ec 3F       		.uleb128 0x3f
 5924 02ed 19       		.uleb128 0x19
 5925 02ee 3C       		.uleb128 0x3c
 5926 02ef 19       		.uleb128 0x19
 5927 02f0 00       		.byte	0
 5928 02f1 00       		.byte	0
 5929 02f2 33       		.uleb128 0x33
 5930 02f3 34       		.uleb128 0x34
 5931 02f4 00       		.byte	0
 5932 02f5 03       		.uleb128 0x3
 5933 02f6 0E       		.uleb128 0xe
 5934 02f7 3A       		.uleb128 0x3a
 5935 02f8 0B       		.uleb128 0xb
 5936 02f9 3B       		.uleb128 0x3b
 5937 02fa 05       		.uleb128 0x5
 5938 02fb 49       		.uleb128 0x49
 5939 02fc 13       		.uleb128 0x13
 5940 02fd 3F       		.uleb128 0x3f
 5941 02fe 19       		.uleb128 0x19
 5942 02ff 3C       		.uleb128 0x3c
 5943 0300 19       		.uleb128 0x19
 5944 0301 00       		.byte	0
 5945 0302 00       		.byte	0
 5946 0303 34       		.uleb128 0x34
 5947 0304 34       		.uleb128 0x34
 5948 0305 00       		.byte	0
 5949 0306 03       		.uleb128 0x3
 5950 0307 0E       		.uleb128 0xe
 5951 0308 3A       		.uleb128 0x3a
 5952 0309 0B       		.uleb128 0xb
 5953 030a 3B       		.uleb128 0x3b
 5954 030b 0B       		.uleb128 0xb
 5955 030c 49       		.uleb128 0x49
 5956 030d 13       		.uleb128 0x13
 5957 030e 3F       		.uleb128 0x3f
 5958 030f 19       		.uleb128 0x19
 5959 0310 02       		.uleb128 0x2
 5960 0311 18       		.uleb128 0x18
 5961 0312 00       		.byte	0
 5962 0313 00       		.byte	0
 5963 0314 35       		.uleb128 0x35
 5964 0315 2E       		.uleb128 0x2e
 5965 0316 00       		.byte	0
 5966 0317 3F       		.uleb128 0x3f
 5967 0318 19       		.uleb128 0x19
 5968 0319 3C       		.uleb128 0x3c
 5969 031a 19       		.uleb128 0x19
 5970 031b 6E       		.uleb128 0x6e
 5971 031c 0E       		.uleb128 0xe
 5972 031d 03       		.uleb128 0x3
ARM GAS  C:\Users\Rolf\AppData\Local\Temp\ccEjvRQz.s 			page 130


 5973 031e 0E       		.uleb128 0xe
 5974 031f 3A       		.uleb128 0x3a
 5975 0320 0B       		.uleb128 0xb
 5976 0321 3B       		.uleb128 0x3b
 5977 0322 05       		.uleb128 0x5
 5978 0323 00       		.byte	0
 5979 0324 00       		.byte	0
 5980 0325 36       		.uleb128 0x36
 5981 0326 2E       		.uleb128 0x2e
 5982 0327 00       		.byte	0
 5983 0328 3F       		.uleb128 0x3f
 5984 0329 19       		.uleb128 0x19
 5985 032a 3C       		.uleb128 0x3c
 5986 032b 19       		.uleb128 0x19
 5987 032c 6E       		.uleb128 0x6e
 5988 032d 0E       		.uleb128 0xe
 5989 032e 03       		.uleb128 0x3
 5990 032f 0E       		.uleb128 0xe
 5991 0330 3A       		.uleb128 0x3a
 5992 0331 0B       		.uleb128 0xb
 5993 0332 3B       		.uleb128 0x3b
 5994 0333 0B       		.uleb128 0xb
 5995 0334 00       		.byte	0
 5996 0335 00       		.byte	0
 5997 0336 00       		.byte	0
 5998              		.section	.debug_loc,"",%progbits
 5999              	.Ldebug_loc0:
 6000              	.LLST0:
 6001 0000 00000000 		.4byte	.LVL0
 6002 0004 06000000 		.4byte	.LVL1
 6003 0008 0100     		.2byte	0x1
 6004 000a 50       		.byte	0x50
 6005 000b 06000000 		.4byte	.LVL1
 6006 000f 26000000 		.4byte	.LVL5
 6007 0013 0100     		.2byte	0x1
 6008 0015 54       		.byte	0x54
 6009 0016 00000000 		.4byte	0
 6010 001a 00000000 		.4byte	0
 6011              	.LLST1:
 6012 001e 00000000 		.4byte	.LVL6
 6013 0022 0A000000 		.4byte	.LVL7
 6014 0026 0100     		.2byte	0x1
 6015 0028 50       		.byte	0x50
 6016 0029 0A000000 		.4byte	.LVL7
 6017 002d 14000000 		.4byte	.LFE152
 6018 0031 0400     		.2byte	0x4
 6019 0033 F3       		.byte	0xf3
 6020 0034 01       		.uleb128 0x1
 6021 0035 50       		.byte	0x50
 6022 0036 9F       		.byte	0x9f
 6023 0037 00000000 		.4byte	0
 6024 003b 00000000 		.4byte	0
 6025              	.LLST2:
 6026 003f 00000000 		.4byte	.LVL10
 6027 0043 0C000000 		.4byte	.LVL12
 6028 0047 0100     		.2byte	0x1
 6029 0049 50       		.byte	0x50
ARM GAS  C:\Users\Rolf\AppData\Local\Temp\ccEjvRQz.s 			page 131


 6030 004a 0C000000 		.4byte	.LVL12
 6031 004e 0F000000 		.4byte	.LVL13-1
 6032 0052 0100     		.2byte	0x1
 6033 0054 51       		.byte	0x51
 6034 0055 0F000000 		.4byte	.LVL13-1
 6035 0059 1C000000 		.4byte	.LFE154
 6036 005d 0400     		.2byte	0x4
 6037 005f F3       		.byte	0xf3
 6038 0060 01       		.uleb128 0x1
 6039 0061 50       		.byte	0x50
 6040 0062 9F       		.byte	0x9f
 6041 0063 00000000 		.4byte	0
 6042 0067 00000000 		.4byte	0
 6043              	.LLST3:
 6044 006b 00000000 		.4byte	.LVL10
 6045 006f 0A000000 		.4byte	.LVL11
 6046 0073 0100     		.2byte	0x1
 6047 0075 51       		.byte	0x51
 6048 0076 0A000000 		.4byte	.LVL11
 6049 007a 1C000000 		.4byte	.LFE154
 6050 007e 0100     		.2byte	0x1
 6051 0080 55       		.byte	0x55
 6052 0081 00000000 		.4byte	0
 6053 0085 00000000 		.4byte	0
 6054              	.LLST4:
 6055 0089 2C000000 		.4byte	.LVL17
 6056 008d 4E000000 		.4byte	.LVL19
 6057 0091 0600     		.2byte	0x6
 6058 0093 74       		.byte	0x74
 6059 0094 00       		.sleb128 0
 6060 0095 73       		.byte	0x73
 6061 0096 00       		.sleb128 0
 6062 0097 21       		.byte	0x21
 6063 0098 9F       		.byte	0x9f
 6064 0099 4E000000 		.4byte	.LVL19
 6065 009d 56000000 		.4byte	.LFE159
 6066 00a1 0100     		.2byte	0x1
 6067 00a3 51       		.byte	0x51
 6068 00a4 00000000 		.4byte	0
 6069 00a8 00000000 		.4byte	0
 6070              	.LLST5:
 6071 00ac 00000000 		.4byte	.LVL20
 6072 00b0 97000000 		.4byte	.LVL21-1
 6073 00b4 0100     		.2byte	0x1
 6074 00b6 50       		.byte	0x50
 6075 00b7 97000000 		.4byte	.LVL21-1
 6076 00bb A4000000 		.4byte	.LFE160
 6077 00bf 0400     		.2byte	0x4
 6078 00c1 F3       		.byte	0xf3
 6079 00c2 01       		.uleb128 0x1
 6080 00c3 50       		.byte	0x50
 6081 00c4 9F       		.byte	0x9f
 6082 00c5 00000000 		.4byte	0
 6083 00c9 00000000 		.4byte	0
 6084              	.LLST6:
 6085 00cd 00000000 		.4byte	.LVL22
 6086 00d1 0E000000 		.4byte	.LVL24
ARM GAS  C:\Users\Rolf\AppData\Local\Temp\ccEjvRQz.s 			page 132


 6087 00d5 0100     		.2byte	0x1
 6088 00d7 50       		.byte	0x50
 6089 00d8 0E000000 		.4byte	.LVL24
 6090 00dc CC000000 		.4byte	.LFE162
 6091 00e0 0400     		.2byte	0x4
 6092 00e2 F3       		.byte	0xf3
 6093 00e3 01       		.uleb128 0x1
 6094 00e4 50       		.byte	0x50
 6095 00e5 9F       		.byte	0x9f
 6096 00e6 00000000 		.4byte	0
 6097 00ea 00000000 		.4byte	0
 6098              	.LLST7:
 6099 00ee 00000000 		.4byte	.LVL22
 6100 00f2 66000000 		.4byte	.LVL26
 6101 00f6 0100     		.2byte	0x1
 6102 00f8 51       		.byte	0x51
 6103 00f9 66000000 		.4byte	.LVL26
 6104 00fd 68000000 		.4byte	.LVL27
 6105 0101 0400     		.2byte	0x4
 6106 0103 F3       		.byte	0xf3
 6107 0104 01       		.uleb128 0x1
 6108 0105 51       		.byte	0x51
 6109 0106 9F       		.byte	0x9f
 6110 0107 68000000 		.4byte	.LVL27
 6111 010b 96000000 		.4byte	.LVL28
 6112 010f 0100     		.2byte	0x1
 6113 0111 51       		.byte	0x51
 6114 0112 96000000 		.4byte	.LVL28
 6115 0116 98000000 		.4byte	.LVL29
 6116 011a 0400     		.2byte	0x4
 6117 011c F3       		.byte	0xf3
 6118 011d 01       		.uleb128 0x1
 6119 011e 51       		.byte	0x51
 6120 011f 9F       		.byte	0x9f
 6121 0120 98000000 		.4byte	.LVL29
 6122 0124 9A000000 		.4byte	.LVL30
 6123 0128 0100     		.2byte	0x1
 6124 012a 51       		.byte	0x51
 6125 012b 9A000000 		.4byte	.LVL30
 6126 012f 9C000000 		.4byte	.LVL31
 6127 0133 0400     		.2byte	0x4
 6128 0135 F3       		.byte	0xf3
 6129 0136 01       		.uleb128 0x1
 6130 0137 51       		.byte	0x51
 6131 0138 9F       		.byte	0x9f
 6132 0139 9C000000 		.4byte	.LVL31
 6133 013d 9E000000 		.4byte	.LVL32
 6134 0141 0100     		.2byte	0x1
 6135 0143 51       		.byte	0x51
 6136 0144 9E000000 		.4byte	.LVL32
 6137 0148 A0000000 		.4byte	.LVL33
 6138 014c 0400     		.2byte	0x4
 6139 014e F3       		.byte	0xf3
 6140 014f 01       		.uleb128 0x1
 6141 0150 51       		.byte	0x51
 6142 0151 9F       		.byte	0x9f
 6143 0152 A0000000 		.4byte	.LVL33
ARM GAS  C:\Users\Rolf\AppData\Local\Temp\ccEjvRQz.s 			page 133


 6144 0156 A2000000 		.4byte	.LVL34
 6145 015a 0100     		.2byte	0x1
 6146 015c 51       		.byte	0x51
 6147 015d A2000000 		.4byte	.LVL34
 6148 0161 A4000000 		.4byte	.LVL35
 6149 0165 0400     		.2byte	0x4
 6150 0167 F3       		.byte	0xf3
 6151 0168 01       		.uleb128 0x1
 6152 0169 51       		.byte	0x51
 6153 016a 9F       		.byte	0x9f
 6154 016b A4000000 		.4byte	.LVL35
 6155 016f A6000000 		.4byte	.LVL36
 6156 0173 0100     		.2byte	0x1
 6157 0175 51       		.byte	0x51
 6158 0176 A6000000 		.4byte	.LVL36
 6159 017a A8000000 		.4byte	.LVL37
 6160 017e 0400     		.2byte	0x4
 6161 0180 F3       		.byte	0xf3
 6162 0181 01       		.uleb128 0x1
 6163 0182 51       		.byte	0x51
 6164 0183 9F       		.byte	0x9f
 6165 0184 A8000000 		.4byte	.LVL37
 6166 0188 AA000000 		.4byte	.LVL38
 6167 018c 0100     		.2byte	0x1
 6168 018e 51       		.byte	0x51
 6169 018f AA000000 		.4byte	.LVL38
 6170 0193 AC000000 		.4byte	.LVL39
 6171 0197 0400     		.2byte	0x4
 6172 0199 F3       		.byte	0xf3
 6173 019a 01       		.uleb128 0x1
 6174 019b 51       		.byte	0x51
 6175 019c 9F       		.byte	0x9f
 6176 019d AC000000 		.4byte	.LVL39
 6177 01a1 AE000000 		.4byte	.LVL40
 6178 01a5 0100     		.2byte	0x1
 6179 01a7 51       		.byte	0x51
 6180 01a8 AE000000 		.4byte	.LVL40
 6181 01ac B0000000 		.4byte	.LVL41
 6182 01b0 0400     		.2byte	0x4
 6183 01b2 F3       		.byte	0xf3
 6184 01b3 01       		.uleb128 0x1
 6185 01b4 51       		.byte	0x51
 6186 01b5 9F       		.byte	0x9f
 6187 01b6 B0000000 		.4byte	.LVL41
 6188 01ba B2000000 		.4byte	.LVL42
 6189 01be 0100     		.2byte	0x1
 6190 01c0 51       		.byte	0x51
 6191 01c1 B2000000 		.4byte	.LVL42
 6192 01c5 CC000000 		.4byte	.LFE162
 6193 01c9 0400     		.2byte	0x4
 6194 01cb F3       		.byte	0xf3
 6195 01cc 01       		.uleb128 0x1
 6196 01cd 51       		.byte	0x51
 6197 01ce 9F       		.byte	0x9f
 6198 01cf 00000000 		.4byte	0
 6199 01d3 00000000 		.4byte	0
 6200              	.LLST8:
ARM GAS  C:\Users\Rolf\AppData\Local\Temp\ccEjvRQz.s 			page 134


 6201 01d7 0C000000 		.4byte	.LVL23
 6202 01db 2A000000 		.4byte	.LVL25
 6203 01df 0E00     		.2byte	0xe
 6204 01e1 73       		.byte	0x73
 6205 01e2 00       		.sleb128 0
 6206 01e3 40       		.byte	0x40
 6207 01e4 4B       		.byte	0x4b
 6208 01e5 24       		.byte	0x24
 6209 01e6 22       		.byte	0x22
 6210 01e7 71       		.byte	0x71
 6211 01e8 00       		.sleb128 0
 6212 01e9 40       		.byte	0x40
 6213 01ea 4B       		.byte	0x4b
 6214 01eb 24       		.byte	0x24
 6215 01ec 22       		.byte	0x22
 6216 01ed 2D       		.byte	0x2d
 6217 01ee 9F       		.byte	0x9f
 6218 01ef B2000000 		.4byte	.LVL42
 6219 01f3 CC000000 		.4byte	.LFE162
 6220 01f7 0100     		.2byte	0x1
 6221 01f9 51       		.byte	0x51
 6222 01fa 00000000 		.4byte	0
 6223 01fe 00000000 		.4byte	0
 6224              	.LLST9:
 6225 0202 0C000000 		.4byte	.LVL23
 6226 0206 2A000000 		.4byte	.LVL25
 6227 020a 0100     		.2byte	0x1
 6228 020c 53       		.byte	0x53
 6229 020d 00000000 		.4byte	0
 6230 0211 00000000 		.4byte	0
 6231              		.section	.debug_aranges,"",%progbits
 6232 0000 74000000 		.4byte	0x74
 6233 0004 0200     		.2byte	0x2
 6234 0006 00000000 		.4byte	.Ldebug_info0
 6235 000a 04       		.byte	0x4
 6236 000b 00       		.byte	0
 6237 000c 0000     		.2byte	0
 6238 000e 0000     		.2byte	0
 6239 0010 00000000 		.4byte	.LFB151
 6240 0014 30000000 		.4byte	.LFE151-.LFB151
 6241 0018 00000000 		.4byte	.LFB152
 6242 001c 14000000 		.4byte	.LFE152-.LFB152
 6243 0020 00000000 		.4byte	.LFB153
 6244 0024 04000000 		.4byte	.LFE153-.LFB153
 6245 0028 00000000 		.4byte	.LFB154
 6246 002c 1C000000 		.4byte	.LFE154-.LFB154
 6247 0030 00000000 		.4byte	.LFB155
 6248 0034 10000000 		.4byte	.LFE155-.LFB155
 6249 0038 00000000 		.4byte	.LFB156
 6250 003c 20000000 		.4byte	.LFE156-.LFB156
 6251 0040 00000000 		.4byte	.LFB157
 6252 0044 18000000 		.4byte	.LFE157-.LFB157
 6253 0048 00000000 		.4byte	.LFB158
 6254 004c 28000000 		.4byte	.LFE158-.LFB158
 6255 0050 00000000 		.4byte	.LFB159
 6256 0054 56000000 		.4byte	.LFE159-.LFB159
 6257 0058 00000000 		.4byte	.LFB161
ARM GAS  C:\Users\Rolf\AppData\Local\Temp\ccEjvRQz.s 			page 135


 6258 005c 02000000 		.4byte	.LFE161-.LFB161
 6259 0060 00000000 		.4byte	.LFB160
 6260 0064 A4000000 		.4byte	.LFE160-.LFB160
 6261 0068 00000000 		.4byte	.LFB162
 6262 006c CC000000 		.4byte	.LFE162-.LFB162
 6263 0070 00000000 		.4byte	0
 6264 0074 00000000 		.4byte	0
 6265              		.section	.debug_ranges,"",%progbits
 6266              	.Ldebug_ranges0:
 6267 0000 00000000 		.4byte	.LFB151
 6268 0004 30000000 		.4byte	.LFE151
 6269 0008 00000000 		.4byte	.LFB152
 6270 000c 14000000 		.4byte	.LFE152
 6271 0010 00000000 		.4byte	.LFB153
 6272 0014 04000000 		.4byte	.LFE153
 6273 0018 00000000 		.4byte	.LFB154
 6274 001c 1C000000 		.4byte	.LFE154
 6275 0020 00000000 		.4byte	.LFB155
 6276 0024 10000000 		.4byte	.LFE155
 6277 0028 00000000 		.4byte	.LFB156
 6278 002c 20000000 		.4byte	.LFE156
 6279 0030 00000000 		.4byte	.LFB157
 6280 0034 18000000 		.4byte	.LFE157
 6281 0038 00000000 		.4byte	.LFB158
 6282 003c 28000000 		.4byte	.LFE158
 6283 0040 00000000 		.4byte	.LFB159
 6284 0044 56000000 		.4byte	.LFE159
 6285 0048 00000000 		.4byte	.LFB161
 6286 004c 02000000 		.4byte	.LFE161
 6287 0050 00000000 		.4byte	.LFB160
 6288 0054 A4000000 		.4byte	.LFE160
 6289 0058 00000000 		.4byte	.LFB162
 6290 005c CC000000 		.4byte	.LFE162
 6291 0060 00000000 		.4byte	0
 6292 0064 00000000 		.4byte	0
 6293              		.section	.debug_line,"",%progbits
 6294              	.Ldebug_line0:
 6295 0000 8A040000 		.section	.debug_str,"MS",%progbits,1
 6295      02003D03 
 6295      00000201 
 6295      FB0E0D00 
 6295      01010101 
 6296              	.LASF433:
 6297 0000 73764361 		.ascii	"svCallAct\000"
 6297      6C6C4163 
 6297      7400
 6298              	.LASF298:
 6299 000a 63727970 		.ascii	"cryptoBase\000"
 6299      746F4261 
 6299      736500
 6300              	.LASF1:
 6301 0015 756E7369 		.ascii	"unsigned char\000"
 6301      676E6564 
 6301      20636861 
 6301      7200
 6302              	.LASF226:
 6303 0023 5057525F 		.ascii	"PWR_BUCK_CTL\000"
ARM GAS  C:\Users\Rolf\AppData\Local\Temp\ccEjvRQz.s 			page 136


 6303      4255434B 
 6303      5F43544C 
 6303      00
 6304              	.LASF329:
 6305 0030 666C6173 		.ascii	"flashProgramDelay\000"
 6305      6850726F 
 6305      6772616D 
 6305      44656C61 
 6305      7900
 6306              	.LASF22:
 6307 0042 73697A65 		.ascii	"sizetype\000"
 6307      74797065 
 6307      00
 6308              	.LASF196:
 6309 004b 544F4332 		.ascii	"TOC2_CRC_ADDR\000"
 6309      5F435243 
 6309      5F414444 
 6309      5200
 6310              	.LASF123:
 6311 0059 4449455F 		.ascii	"DIE_DAY\000"
 6311      44415900 
 6312              	.LASF475:
 6313 0061 72657456 		.ascii	"retVal\000"
 6313      616C00
 6314              	.LASF66:
 6315 0068 42495354 		.ascii	"BIST_DATA\000"
 6315      5F444154 
 6315      4100
 6316              	.LASF143:
 6317 0072 43534456 		.ascii	"CSDV2_CSD0_ADC_VREF0\000"
 6317      325F4353 
 6317      44305F41 
 6317      44435F56 
 6317      52454630 
 6318              	.LASF144:
 6319 0087 43534456 		.ascii	"CSDV2_CSD0_ADC_VREF1\000"
 6319      325F4353 
 6319      44305F41 
 6319      44435F56 
 6319      52454631 
 6320              	.LASF145:
 6321 009c 43534456 		.ascii	"CSDV2_CSD0_ADC_VREF2\000"
 6321      325F4353 
 6321      44305F41 
 6321      44435F56 
 6321      52454632 
 6322              	.LASF61:
 6323 00b1 464C4153 		.ascii	"FLASH_PWR_CTL\000"
 6323      485F5057 
 6323      525F4354 
 6323      4C00
 6324              	.LASF441:
 6325 00bf 6D656D46 		.ascii	"memFaultEna\000"
 6325      61756C74 
 6325      456E6100 
 6326              	.LASF409:
 6327 00cb 69427573 		.ascii	"iBusErr\000"
ARM GAS  C:\Users\Rolf\AppData\Local\Temp\ccEjvRQz.s 			page 137


 6327      45727200 
 6328              	.LASF294:
 6329 00d3 6873696F 		.ascii	"hsiomBase\000"
 6329      6D426173 
 6329      6500
 6330              	.LASF271:
 6331 00dd 434C4B5F 		.ascii	"CLK_TRIM_PILO_CTL2\000"
 6331      5452494D 
 6331      5F50494C 
 6331      4F5F4354 
 6331      4C3200
 6332              	.LASF272:
 6333 00f0 434C4B5F 		.ascii	"CLK_TRIM_PILO_CTL3\000"
 6333      5452494D 
 6333      5F50494C 
 6333      4F5F4354 
 6333      4C3300
 6334              	.LASF169:
 6335 0103 544F4331 		.ascii	"TOC1_UNIQUE_ID_ADDR\000"
 6335      5F554E49 
 6335      5155455F 
 6335      49445F41 
 6335      44445200 
 6336              	.LASF102:
 6337 0117 4441505F 		.ascii	"DAP_BUFF_CMD\000"
 6337      42554646 
 6337      5F434D44 
 6337      00
 6338              	.LASF495:
 6339 0124 43795F53 		.ascii	"Cy_SysLib_DelayCycles\000"
 6339      79734C69 
 6339      625F4465 
 6339      6C617943 
 6339      79636C65 
 6340              	.LASF55:
 6341 013a 544D5F43 		.ascii	"TM_CMPR\000"
 6341      4D505200 
 6342              	.LASF255:
 6343 0142 53525353 		.ascii	"SRSS_INTR\000"
 6343      5F494E54 
 6343      5200
 6344              	.LASF106:
 6345 014c 4558545F 		.ascii	"EXT_MS0_BUFF_CMD\000"
 6345      4D53305F 
 6345      42554646 
 6345      5F434D44 
 6345      00
 6346              	.LASF378:
 6347 015d 56544F52 		.ascii	"VTOR\000"
 6347      00
 6348              	.LASF185:
 6349 0162 544F4332 		.ascii	"TOC2_KEY_BLOCK_ADDR\000"
 6349      5F4B4559 
 6349      5F424C4F 
 6349      434B5F41 
 6349      44445200 
 6350              	.LASF41:
ARM GAS  C:\Users\Rolf\AppData\Local\Temp\ccEjvRQz.s 			page 138


 6351 0176 494E5452 		.ascii	"INTR_MASKED\000"
 6351      5F4D4153 
 6351      4B454400 
 6352              	.LASF50:
 6353 0182 5245445F 		.ascii	"RED_CTL23\000"
 6353      43544C32 
 6353      3300
 6354              	.LASF492:
 6355 018c 63795F61 		.ascii	"cy_assertFileName\000"
 6355      73736572 
 6355      7446696C 
 6355      654E616D 
 6355      6500
 6356              	.LASF355:
 6357 019e 6770696F 		.ascii	"gpioPrtCfgOffset\000"
 6357      50727443 
 6357      66674F66 
 6357      66736574 
 6357      00
 6358              	.LASF36:
 6359 01af 48565F43 		.ascii	"HV_CTL\000"
 6359      544C00
 6360              	.LASF401:
 6361 01b6 69616363 		.ascii	"iaccViol\000"
 6361      56696F6C 
 6361      00
 6362              	.LASF29:
 6363 01bf 414E415F 		.ascii	"ANA_CTL0\000"
 6363      43544C30 
 6363      00
 6364              	.LASF404:
 6365 01c8 6D556E73 		.ascii	"mUnstkErr\000"
 6365      746B4572 
 6365      7200
 6366              	.LASF30:
 6367 01d2 414E415F 		.ascii	"ANA_CTL1\000"
 6367      43544C31 
 6367      00
 6368              	.LASF498:
 6369 01db 47656E65 		.ascii	"Generated_Source\\PSoC6\\pdl\\drivers\\peripheral\\"
 6369      72617465 
 6369      645F536F 
 6369      75726365 
 6369      5C50536F 
 6370 0209 7379736C 		.ascii	"syslib\\cy_syslib.c\000"
 6370      69625C63 
 6370      795F7379 
 6370      736C6962 
 6370      2E6300
 6371              	.LASF148:
 6372 021c 43505553 		.ascii	"CPUSS_TRIM_ROM_CTL_ULP\000"
 6372      535F5452 
 6372      494D5F52 
 6372      4F4D5F43 
 6372      544C5F55 
 6373              	.LASF317:
 6374 0233 73727373 		.ascii	"srssNumHfroot\000"
ARM GAS  C:\Users\Rolf\AppData\Local\Temp\ccEjvRQz.s 			page 139


 6374      4E756D48 
 6374      66726F6F 
 6374      7400
 6375              	.LASF117:
 6376 0241 4449455F 		.ascii	"DIE_LOT\000"
 6376      4C4F5400 
 6377              	.LASF219:
 6378 0249 4D435744 		.ascii	"MCWDT_INTR_MASK\000"
 6378      545F494E 
 6378      54525F4D 
 6378      41534B00 
 6379              	.LASF40:
 6380 0259 494E5452 		.ascii	"INTR_MASK\000"
 6380      5F4D4153 
 6380      4B00
 6381              	.LASF206:
 6382 0263 52544F43 		.ascii	"RTOC2_SIGNATURE_VERIF_KEY\000"
 6382      325F5349 
 6382      474E4154 
 6382      5552455F 
 6382      56455249 
 6383              	.LASF225:
 6384 027d 5057525F 		.ascii	"PWR_LVD_CTL\000"
 6384      4C56445F 
 6384      43544C00 
 6385              	.LASF203:
 6386 0289 52544F43 		.ascii	"RTOC2_SECOND_USER_APP_ADDR\000"
 6386      325F5345 
 6386      434F4E44 
 6386      5F555345 
 6386      525F4150 
 6387              	.LASF340:
 6388 02a4 64775374 		.ascii	"dwStatusChIdxPos\000"
 6388      61747573 
 6388      43684964 
 6388      78506F73 
 6388      00
 6389              	.LASF108:
 6390 02b5 4558545F 		.ascii	"EXT_MS1_BUFF_CTL\000"
 6390      4D53315F 
 6390      42554646 
 6390      5F43544C 
 6390      00
 6391              	.LASF472:
 6392 02c6 43795F53 		.ascii	"Cy_SysLib_ClearFlashCacheAndBuffer\000"
 6392      79734C69 
 6392      625F436C 
 6392      65617246 
 6392      6C617368 
 6393              	.LASF140:
 6394 02e9 5354414E 		.ascii	"STANDARD_MPU_STRUCT\000"
 6394      44415244 
 6394      5F4D5055 
 6394      5F535452 
 6394      55435400 
 6395              	.LASF277:
 6396 02fd 5254435F 		.ascii	"RTC_DATE\000"
ARM GAS  C:\Users\Rolf\AppData\Local\Temp\ccEjvRQz.s 			page 140


 6396      44415445 
 6396      00
 6397              	.LASF399:
 6398 0306 43595F53 		.ascii	"CY_SYSLIB_UNKNOWN\000"
 6398      59534C49 
 6398      425F554E 
 6398      4B4E4F57 
 6398      4E00
 6399              	.LASF2:
 6400 0318 5F5F7569 		.ascii	"__uint8_t\000"
 6400      6E74385F 
 6400      7400
 6401              	.LASF135:
 6402 0322 44455649 		.ascii	"DEVICE_UID\000"
 6402      43455F55 
 6402      494400
 6403              	.LASF501:
 6404 032d 72657375 		.ascii	"result\000"
 6404      6C7400
 6405              	.LASF449:
 6406 0334 73686373 		.ascii	"shcsrReg\000"
 6406      72526567 
 6406      00
 6407              	.LASF379:
 6408 033d 41495243 		.ascii	"AIRCR\000"
 6408      5200
 6409              	.LASF58:
 6410 0343 464D5F4D 		.ascii	"FM_MEM_DATA\000"
 6410      454D5F44 
 6410      41544100 
 6411              	.LASF37:
 6412 034f 41434C4B 		.ascii	"ACLK_CTL\000"
 6412      5F43544C 
 6412      00
 6413              	.LASF49:
 6414 0358 5245445F 		.ascii	"RED_CTL01\000"
 6414      43544C30 
 6414      3100
 6415              	.LASF74:
 6416 0362 434D305F 		.ascii	"CM0_CA_CMD\000"
 6416      43415F43 
 6416      4D4400
 6417              	.LASF8:
 6418 036d 6C6F6E67 		.ascii	"long int\000"
 6418      20696E74 
 6418      00
 6419              	.LASF264:
 6420 0376 434C4B5F 		.ascii	"CLK_TRIM_CCO_CTL\000"
 6420      5452494D 
 6420      5F43434F 
 6420      5F43544C 
 6420      00
 6421              	.LASF307:
 6422 0387 70726F74 		.ascii	"protVersion\000"
 6422      56657273 
 6422      696F6E00 
 6423              	.LASF376:
ARM GAS  C:\Users\Rolf\AppData\Local\Temp\ccEjvRQz.s 			page 141


 6424 0393 43505549 		.ascii	"CPUID\000"
 6424      4400
 6425              	.LASF183:
 6426 0399 544F4332 		.ascii	"TOC2_OBJECT_SIZE\000"
 6426      5F4F424A 
 6426      4543545F 
 6426      53495A45 
 6426      00
 6427              	.LASF124:
 6428 03aa 4449455F 		.ascii	"DIE_MONTH\000"
 6428      4D4F4E54 
 6428      4800
 6429              	.LASF350:
 6430 03b4 70657269 		.ascii	"periDiv8CtlOffset\000"
 6430      44697638 
 6430      43746C4F 
 6430      66667365 
 6430      7400
 6431              	.LASF345:
 6432 03c6 70657269 		.ascii	"periTrGrSize\000"
 6432      54724772 
 6432      53697A65 
 6432      00
 6433              	.LASF114:
 6434 03d3 53494C49 		.ascii	"SILICON_ID\000"
 6434      434F4E5F 
 6434      494400
 6435              	.LASF32:
 6436 03de 54455354 		.ascii	"TEST_CTL\000"
 6436      5F43544C 
 6436      00
 6437              	.LASF398:
 6438 03e7 43595F53 		.ascii	"CY_SYSLIB_INVALID_STATE\000"
 6438      59534C49 
 6438      425F494E 
 6438      56414C49 
 6438      445F5354 
 6439              	.LASF67:
 6440 03ff 42495354 		.ascii	"BIST_DATA_ACT\000"
 6440      5F444154 
 6440      415F4143 
 6440      5400
 6441              	.LASF450:
 6442 040d 73686373 		.ascii	"shcsrBits\000"
 6442      72426974 
 6442      7300
 6443              	.LASF481:
 6444 0417 43795F53 		.ascii	"Cy_SysLib_SetWaitStates\000"
 6444      79734C69 
 6444      625F5365 
 6444      74576169 
 6444      74537461 
 6445              	.LASF173:
 6446 042f 544F4331 		.ascii	"TOC1_CRC_ADDR\000"
 6446      5F435243 
 6446      5F414444 
 6446      5200
ARM GAS  C:\Users\Rolf\AppData\Local\Temp\ccEjvRQz.s 			page 142


 6447              	.LASF256:
 6448 043d 53525353 		.ascii	"SRSS_INTR_SET\000"
 6448      5F494E54 
 6448      525F5345 
 6448      5400
 6449              	.LASF178:
 6450 044b 52544F43 		.ascii	"RTOC1_UNIQUE_ID_ADDR\000"
 6450      315F554E 
 6450      49515545 
 6450      5F49445F 
 6450      41444452 
 6451              	.LASF156:
 6452 0460 464C4153 		.ascii	"FLASH_BOOT_OBJECT_SIZE\000"
 6452      485F424F 
 6452      4F545F4F 
 6452      424A4543 
 6452      545F5349 
 6453              	.LASF377:
 6454 0477 49435352 		.ascii	"ICSR\000"
 6454      00
 6455              	.LASF318:
 6456 047c 70657269 		.ascii	"periClockNr\000"
 6456      436C6F63 
 6456      6B4E7200 
 6457              	.LASF0:
 6458 0488 7369676E 		.ascii	"signed char\000"
 6458      65642063 
 6458      68617200 
 6459              	.LASF15:
 6460 0494 75696E74 		.ascii	"uint8_t\000"
 6460      385F7400 
 6461              	.LASF191:
 6462 049c 544F4332 		.ascii	"TOC2_SHASH_OBJECTS\000"
 6462      5F534841 
 6462      53485F4F 
 6462      424A4543 
 6462      545300
 6463              	.LASF474:
 6464 04af 43795F53 		.ascii	"Cy_SysLib_GetUniqueId\000"
 6464      79734C69 
 6464      625F4765 
 6464      74556E69 
 6464      71756549 
 6465              	.LASF393:
 6466 04c5 53525353 		.ascii	"SRSS_Type\000"
 6466      5F547970 
 6466      6500
 6467              	.LASF177:
 6468 04cf 52544F43 		.ascii	"RTOC1_GENERAL_TRIM_ADDR_UNUSED\000"
 6468      315F4745 
 6468      4E455241 
 6468      4C5F5452 
 6468      494D5F41 
 6469              	.LASF502:
 6470 04ee 43795F53 		.ascii	"Cy_SysLib_ResetBackupDomain\000"
 6470      79734C69 
 6470      625F5265 
ARM GAS  C:\Users\Rolf\AppData\Local\Temp\ccEjvRQz.s 			page 143


 6470      73657442 
 6470      61636B75 
 6471              	.LASF396:
 6472 050a 43595F53 		.ascii	"CY_SYSLIB_BAD_PARAM\000"
 6472      59534C49 
 6472      425F4241 
 6472      445F5041 
 6472      52414D00 
 6473              	.LASF348:
 6474 051e 70657269 		.ascii	"periDivCmdPaDivSelPos\000"
 6474      44697643 
 6474      6D645061 
 6474      44697653 
 6474      656C506F 
 6475              	.LASF27:
 6476 0534 47454F4D 		.ascii	"GEOMETRY_SUPERVISORY\000"
 6476      45545259 
 6476      5F535550 
 6476      45525649 
 6476      534F5259 
 6477              	.LASF150:
 6478 0549 43505553 		.ascii	"CPUSS_TRIM_ROM_CTL_LP\000"
 6478      535F5452 
 6478      494D5F52 
 6478      4F4D5F43 
 6478      544C5F4C 
 6479              	.LASF248:
 6480 055f 434C4B5F 		.ascii	"CLK_FLL_CONFIG\000"
 6480      464C4C5F 
 6480      434F4E46 
 6480      494700
 6481              	.LASF369:
 6482 056e 63707573 		.ascii	"cpussRomCtl\000"
 6482      73526F6D 
 6482      43746C00 
 6483              	.LASF65:
 6484 057a 42495354 		.ascii	"BIST_ADDR_START\000"
 6484      5F414444 
 6484      525F5354 
 6484      41525400 
 6485              	.LASF44:
 6486 058a 43414C5F 		.ascii	"CAL_CTL1\000"
 6486      43544C31 
 6486      00
 6487              	.LASF45:
 6488 0593 43414C5F 		.ascii	"CAL_CTL2\000"
 6488      43544C32 
 6488      00
 6489              	.LASF46:
 6490 059c 43414C5F 		.ascii	"CAL_CTL3\000"
 6490      43544C33 
 6490      00
 6491              	.LASF286:
 6492 05a5 42524547 		.ascii	"BREG\000"
 6492      00
 6493              	.LASF284:
 6494 05aa 504D4943 		.ascii	"PMIC_CTL\000"
ARM GAS  C:\Users\Rolf\AppData\Local\Temp\ccEjvRQz.s 			page 144


 6494      5F43544C 
 6494      00
 6495              	.LASF290:
 6496 05b3 666C6173 		.ascii	"flashcBase\000"
 6496      68634261 
 6496      736500
 6497              	.LASF389:
 6498 05be 52455345 		.ascii	"RESERVED0\000"
 6498      52564544 
 6498      3000
 6499              	.LASF54:
 6500 05c8 52455345 		.ascii	"RESERVED1\000"
 6500      52564544 
 6500      3100
 6501              	.LASF188:
 6502 05d2 544F4332 		.ascii	"TOC2_FIRST_USER_APP_FORMAT\000"
 6502      5F464952 
 6502      53545F55 
 6502      5345525F 
 6502      4150505F 
 6503              	.LASF473:
 6504 05ed 43795F53 		.ascii	"Cy_SysLib_ClearResetReason\000"
 6504      79734C69 
 6504      625F436C 
 6504      65617252 
 6504      65736574 
 6505              	.LASF83:
 6506 0608 52455345 		.ascii	"RESERVED4\000"
 6506      52564544 
 6506      3400
 6507              	.LASF87:
 6508 0612 52455345 		.ascii	"RESERVED5\000"
 6508      52564544 
 6508      3500
 6509              	.LASF89:
 6510 061c 52455345 		.ascii	"RESERVED6\000"
 6510      52564544 
 6510      3600
 6511              	.LASF91:
 6512 0626 52455345 		.ascii	"RESERVED7\000"
 6512      52564544 
 6512      3700
 6513              	.LASF93:
 6514 0630 52455345 		.ascii	"RESERVED8\000"
 6514      52564544 
 6514      3800
 6515              	.LASF95:
 6516 063a 52455345 		.ascii	"RESERVED9\000"
 6516      52564544 
 6516      3900
 6517              	.LASF420:
 6518 0644 6E6F4350 		.ascii	"noCP\000"
 6518      00
 6519              	.LASF23:
 6520 0649 464D5F43 		.ascii	"FM_CTL\000"
 6520      544C00
 6521              	.LASF190:
ARM GAS  C:\Users\Rolf\AppData\Local\Temp\ccEjvRQz.s 			page 145


 6522 0650 544F4332 		.ascii	"TOC2_SECOND_USER_APP_FORMAT\000"
 6522      5F534543 
 6522      4F4E445F 
 6522      55534552 
 6522      5F415050 
 6523              	.LASF197:
 6524 066c 52544F43 		.ascii	"RTOC2_OBJECT_SIZE\000"
 6524      325F4F42 
 6524      4A454354 
 6524      5F53495A 
 6524      4500
 6525              	.LASF180:
 6526 067e 52544F43 		.ascii	"RTOC1_SYSCALL_TABLE_ADDR_UNUSED\000"
 6526      315F5359 
 6526      5343414C 
 6526      4C5F5441 
 6526      424C455F 
 6527              	.LASF364:
 6528 069e 63707573 		.ascii	"cpussTrimRamCtlOffset\000"
 6528      73547269 
 6528      6D52616D 
 6528      43746C4F 
 6528      66667365 
 6529              	.LASF431:
 6530 06b4 62757346 		.ascii	"busFaultAct\000"
 6530      61756C74 
 6530      41637400 
 6531              	.LASF428:
 6532 06c0 64656275 		.ascii	"debugEvt\000"
 6532      67457674 
 6532      00
 6533              	.LASF269:
 6534 06c9 434C4B5F 		.ascii	"CLK_TRIM_ECO_CTL\000"
 6534      5452494D 
 6534      5F45434F 
 6534      5F43544C 
 6534      00
 6535              	.LASF486:
 6536 06da 5F426F6F 		.ascii	"_Bool\000"
 6536      6C00
 6537              	.LASF223:
 6538 06e0 5057525F 		.ascii	"PWR_CTL\000"
 6538      43544C00 
 6539              	.LASF296:
 6540 06e8 70617373 		.ascii	"passBase\000"
 6540      42617365 
 6540      00
 6541              	.LASF365:
 6542 06f1 63707573 		.ascii	"cpussTrimRomCtlOffset\000"
 6542      73547269 
 6542      6D526F6D 
 6542      43746C4F 
 6542      66667365 
 6543              	.LASF465:
 6544 0707 6D696372 		.ascii	"microseconds\000"
 6544      6F736563 
 6544      6F6E6473 
ARM GAS  C:\Users\Rolf\AppData\Local\Temp\ccEjvRQz.s 			page 146


 6544      00
 6545              	.LASF56:
 6546 0714 52455345 		.ascii	"RESERVED2\000"
 6546      52564544 
 6546      3200
 6547              	.LASF78:
 6548 071e 52455345 		.ascii	"RESERVED3\000"
 6548      52564544 
 6548      3300
 6549              	.LASF215:
 6550 0728 4D435744 		.ascii	"MCWDT_CONFIG\000"
 6550      545F434F 
 6550      4E464947 
 6550      00
 6551              	.LASF171:
 6552 0735 544F4331 		.ascii	"TOC1_SYSCALL_TABLE_ADDR_UNUSED\000"
 6552      5F535953 
 6552      43414C4C 
 6552      5F544142 
 6552      4C455F41 
 6553              	.LASF459:
 6554 0754 63686172 		.ascii	"char\000"
 6554      00
 6555              	.LASF214:
 6556 0759 4D435744 		.ascii	"MCWDT_MATCH\000"
 6556      545F4D41 
 6556      54434800 
 6557              	.LASF391:
 6558 0765 5343425F 		.ascii	"SCB_Type\000"
 6558      54797065 
 6558      00
 6559              	.LASF274:
 6560 076e 5254435F 		.ascii	"RTC_RW\000"
 6560      525700
 6561              	.LASF113:
 6562 0775 53495F52 		.ascii	"SI_REVISION_ID\000"
 6562      45564953 
 6562      494F4E5F 
 6562      494400
 6563              	.LASF51:
 6564 0784 5245445F 		.ascii	"RED_CTL45\000"
 6564      43544C34 
 6564      3500
 6565              	.LASF467:
 6566 078e 43795F53 		.ascii	"Cy_SysLib_AssertFailed\000"
 6566      79734C69 
 6566      625F4173 
 6566      73657274 
 6566      4661696C 
 6567              	.LASF383:
 6568 07a5 44465352 		.ascii	"DFSR\000"
 6568      00
 6569              	.LASF218:
 6570 07aa 4D435744 		.ascii	"MCWDT_INTR_SET\000"
 6570      545F494E 
 6570      54525F53 
 6570      455400
ARM GAS  C:\Users\Rolf\AppData\Local\Temp\ccEjvRQz.s 			page 147


 6571              	.LASF489:
 6572 07b9 63795F64 		.ascii	"cy_delayFreqKhz\000"
 6572      656C6179 
 6572      46726571 
 6572      4B687A00 
 6573              	.LASF100:
 6574 07c9 4441505F 		.ascii	"DAP_BUFF_CTL\000"
 6574      42554646 
 6574      5F43544C 
 6574      00
 6575              	.LASF94:
 6576 07d6 4457305F 		.ascii	"DW0_BUFF_CMD\000"
 6576      42554646 
 6576      5F434D44 
 6576      00
 6577              	.LASF5:
 6578 07e3 5F5F7569 		.ascii	"__uint16_t\000"
 6578      6E743136 
 6578      5F7400
 6579              	.LASF490:
 6580 07ee 63795F64 		.ascii	"cy_delayFreqMhz\000"
 6580      656C6179 
 6580      46726571 
 6580      4D687A00 
 6581              	.LASF104:
 6582 07fe 4558545F 		.ascii	"EXT_MS0_BUFF_CTL\000"
 6582      4D53305F 
 6582      42554646 
 6582      5F43544C 
 6582      00
 6583              	.LASF484:
 6584 080f 77616974 		.ascii	"waitStates\000"
 6584      53746174 
 6584      657300
 6585              	.LASF13:
 6586 081a 6C6F6E67 		.ascii	"long long unsigned int\000"
 6586      206C6F6E 
 6586      6720756E 
 6586      7369676E 
 6586      65642069 
 6587              	.LASF412:
 6588 0831 756E7374 		.ascii	"unstkErr\000"
 6588      6B457272 
 6588      00
 6589              	.LASF176:
 6590 083a 52544F43 		.ascii	"RTOC1_FHASH_OBJECTS\000"
 6590      315F4648 
 6590      4153485F 
 6590      4F424A45 
 6590      43545300 
 6591              	.LASF382:
 6592 084e 48465352 		.ascii	"HFSR\000"
 6592      00
 6593              	.LASF270:
 6594 0853 434C4B5F 		.ascii	"CLK_TRIM_PILO_CTL\000"
 6594      5452494D 
 6594      5F50494C 
ARM GAS  C:\Users\Rolf\AppData\Local\Temp\ccEjvRQz.s 			page 148


 6594      4F5F4354 
 6594      4C00
 6595              	.LASF419:
 6596 0865 696E7650 		.ascii	"invPC\000"
 6596      4300
 6597              	.LASF209:
 6598 086b 52544F43 		.ascii	"RTOC2_FLAGS\000"
 6598      325F464C 
 6598      41475300 
 6599              	.LASF47:
 6600 0877 424F4F4B 		.ascii	"BOOKMARK\000"
 6600      4D41524B 
 6600      00
 6601              	.LASF236:
 6602 0880 434C4B5F 		.ascii	"CLK_ROOT_SELECT\000"
 6602      524F4F54 
 6602      5F53454C 
 6602      45435400 
 6603              	.LASF279:
 6604 0890 414C4D31 		.ascii	"ALM1_DATE\000"
 6604      5F444154 
 6604      4500
 6605              	.LASF343:
 6606 089a 70657269 		.ascii	"periTrCmdGrSelMsk\000"
 6606      5472436D 
 6606      64477253 
 6606      656C4D73 
 6606      6B00
 6607              	.LASF422:
 6608 08ac 756E616C 		.ascii	"unaligned\000"
 6608      69676E65 
 6608      6400
 6609              	.LASF220:
 6610 08b6 4D435744 		.ascii	"MCWDT_INTR_MASKED\000"
 6610      545F494E 
 6610      54525F4D 
 6610      41534B45 
 6610      4400
 6611              	.LASF292:
 6612 08c8 75646242 		.ascii	"udbBase\000"
 6612      61736500 
 6613              	.LASF359:
 6614 08d0 63707573 		.ascii	"cpussCm0ClockCtlOffset\000"
 6614      73436D30 
 6614      436C6F63 
 6614      6B43746C 
 6614      4F666673 
 6615              	.LASF131:
 6616 08e7 424C455F 		.ascii	"BLE_DEVICE_ADDRESS\000"
 6616      44455649 
 6616      43455F41 
 6616      44445245 
 6616      535300
 6617              	.LASF344:
 6618 08fa 70657269 		.ascii	"periTrGrOffset\000"
 6618      54724772 
 6618      4F666673 
ARM GAS  C:\Users\Rolf\AppData\Local\Temp\ccEjvRQz.s 			page 149


 6618      657400
 6619              	.LASF312:
 6620 0909 63707573 		.ascii	"cpussIpc0Irq\000"
 6620      73497063 
 6620      30497271 
 6620      00
 6621              	.LASF96:
 6622 0916 4457315F 		.ascii	"DW1_BUFF_CTL\000"
 6622      42554646 
 6622      5F43544C 
 6622      00
 6623              	.LASF468:
 6624 0923 66696C65 		.ascii	"file\000"
 6624      00
 6625              	.LASF374:
 6626 0928 6970634C 		.ascii	"ipcLockStatusOffset\000"
 6626      6F636B53 
 6626      74617475 
 6626      734F6666 
 6626      73657400 
 6627              	.LASF235:
 6628 093c 434C4B5F 		.ascii	"CLK_PATH_SELECT\000"
 6628      50415448 
 6628      5F53454C 
 6628      45435400 
 6629              	.LASF189:
 6630 094c 544F4332 		.ascii	"TOC2_SECOND_USER_APP_ADDR\000"
 6630      5F534543 
 6630      4F4E445F 
 6630      55534552 
 6630      5F415050 
 6631              	.LASF52:
 6632 0966 5245445F 		.ascii	"RED_CTL67\000"
 6632      43544C36 
 6632      3700
 6633              	.LASF380:
 6634 0970 53484353 		.ascii	"SHCSR\000"
 6634      5200
 6635              	.LASF127:
 6636 0976 5341525F 		.ascii	"SAR_TEMP_OFFSET\000"
 6636      54454D50 
 6636      5F4F4646 
 6636      53455400 
 6637              	.LASF243:
 6638 0986 434C4B5F 		.ascii	"CLK_CAL_CNT1\000"
 6638      43414C5F 
 6638      434E5431 
 6638      00
 6639              	.LASF244:
 6640 0993 434C4B5F 		.ascii	"CLK_CAL_CNT2\000"
 6640      43414C5F 
 6640      434E5432 
 6640      00
 6641              	.LASF210:
 6642 09a0 52544F43 		.ascii	"RTOC2_CRC_ADDR\000"
 6642      325F4352 
 6642      435F4144 
ARM GAS  C:\Users\Rolf\AppData\Local\Temp\ccEjvRQz.s 			page 150


 6642      445200
 6643              	.LASF217:
 6644 09af 4D435744 		.ascii	"MCWDT_INTR\000"
 6644      545F494E 
 6644      545200
 6645              	.LASF476:
 6646 09ba 756E6971 		.ascii	"uniqueIdHi\000"
 6646      75654964 
 6646      486900
 6647              	.LASF406:
 6648 09c5 6D6C7370 		.ascii	"mlspErr\000"
 6648      45727200 
 6649              	.LASF416:
 6650 09cd 62666172 		.ascii	"bfarValid\000"
 6650      56616C69 
 6650      6400
 6651              	.LASF48:
 6652 09d7 52455345 		.ascii	"RESERVED\000"
 6652      52564544 
 6652      00
 6653              	.LASF455:
 6654 09e0 62666172 		.ascii	"bfar\000"
 6654      00
 6655              	.LASF363:
 6656 09e5 63707573 		.ascii	"cpussCm4PwrCtlOffset\000"
 6656      73436D34 
 6656      50777243 
 6656      746C4F66 
 6656      66736574 
 6657              	.LASF62:
 6658 09fa 464C4153 		.ascii	"FLASH_CMD\000"
 6658      485F434D 
 6658      4400
 6659              	.LASF125:
 6660 0a04 4449455F 		.ascii	"DIE_YEAR\000"
 6660      59454152 
 6660      00
 6661              	.LASF500:
 6662 0a0d 5F5F6765 		.ascii	"__get_FPSCR\000"
 6662      745F4650 
 6662      53435200 
 6663              	.LASF335:
 6664 0a19 666C6173 		.ascii	"flashCtlMainWs4Freq\000"
 6664      6843746C 
 6664      4D61696E 
 6664      57733446 
 6664      72657100 
 6665              	.LASF438:
 6666 0a2d 6D656D46 		.ascii	"memFaultPended\000"
 6666      61756C74 
 6666      50656E64 
 6666      656400
 6667              	.LASF115:
 6668 0a3c 46414D49 		.ascii	"FAMILY_ID\000"
 6668      4C595F49 
 6668      4400
 6669              	.LASF59:
ARM GAS  C:\Users\Rolf\AppData\Local\Temp\ccEjvRQz.s 			page 151


 6670 0a46 464C4153 		.ascii	"FLASHC_FM_CTL_V1_Type\000"
 6670      48435F46 
 6670      4D5F4354 
 6670      4C5F5631 
 6670      5F547970 
 6671              	.LASF315:
 6672 0a5c 73727373 		.ascii	"srssNumClkpath\000"
 6672      4E756D43 
 6672      6C6B7061 
 6672      746800
 6673              	.LASF394:
 6674 0a6b 4241434B 		.ascii	"BACKUP_Type\000"
 6674      55505F54 
 6674      79706500 
 6675              	.LASF71:
 6676 0a77 434D305F 		.ascii	"CM0_CA_CTL0\000"
 6676      43415F43 
 6676      544C3000 
 6677              	.LASF72:
 6678 0a83 434D305F 		.ascii	"CM0_CA_CTL1\000"
 6678      43415F43 
 6678      544C3100 
 6679              	.LASF314:
 6680 0a8f 63707573 		.ascii	"cpussNotConnectedIrq\000"
 6680      734E6F74 
 6680      436F6E6E 
 6680      65637465 
 6680      64497271 
 6681              	.LASF453:
 6682 0aa4 73686373 		.ascii	"shcsr\000"
 6682      7200
 6683              	.LASF280:
 6684 0aaa 414C4D32 		.ascii	"ALM2_TIME\000"
 6684      5F54494D 
 6684      4500
 6685              	.LASF356:
 6686 0ab4 6770696F 		.ascii	"gpioPrtCfgInOffset\000"
 6686      50727443 
 6686      6667496E 
 6686      4F666673 
 6686      657400
 6687              	.LASF291:
 6688 0ac7 70657269 		.ascii	"periBase\000"
 6688      42617365 
 6688      00
 6689              	.LASF224:
 6690 0ad0 5057525F 		.ascii	"PWR_HIBERNATE\000"
 6690      48494245 
 6690      524E4154 
 6690      4500
 6691              	.LASF179:
 6692 0ade 52544F43 		.ascii	"RTOC1_FB_OBJECT_ADDR\000"
 6692      315F4642 
 6692      5F4F424A 
 6692      4543545F 
 6692      41444452 
 6693              	.LASF261:
ARM GAS  C:\Users\Rolf\AppData\Local\Temp\ccEjvRQz.s 			page 152


 6694 0af3 5245535F 		.ascii	"RES_CAUSE2\000"
 6694      43415553 
 6694      453200
 6695              	.LASF275:
 6696 0afe 43414C5F 		.ascii	"CAL_CTL\000"
 6696      43544C00 
 6697              	.LASF285:
 6698 0b06 52455345 		.ascii	"RESET\000"
 6698      5400
 6699              	.LASF353:
 6700 0b0c 70657269 		.ascii	"periDiv24_5CtlOffset\000"
 6700      44697632 
 6700      345F3543 
 6700      746C4F66 
 6700      66736574 
 6701              	.LASF211:
 6702 0b21 53464C41 		.ascii	"SFLASH_V1_Type\000"
 6702      53485F56 
 6702      315F5479 
 6702      706500
 6703              	.LASF442:
 6704 0b30 62757346 		.ascii	"busFaultEna\000"
 6704      61756C74 
 6704      456E6100 
 6705              	.LASF129:
 6706 0b3c 4C444F5F 		.ascii	"LDO_0P9V_TRIM\000"
 6706      30503956 
 6706      5F545249 
 6706      4D00
 6707              	.LASF237:
 6708 0b4a 434C4B5F 		.ascii	"CLK_SELECT\000"
 6708      53454C45 
 6708      435400
 6709              	.LASF10:
 6710 0b55 6C6F6E67 		.ascii	"long unsigned int\000"
 6710      20756E73 
 6710      69676E65 
 6710      6420696E 
 6710      7400
 6711              	.LASF457:
 6712 0b67 63795F73 		.ascii	"cy_stc_fault_frame_t\000"
 6712      74635F66 
 6712      61756C74 
 6712      5F667261 
 6712      6D655F74 
 6713              	.LASF9:
 6714 0b7c 5F5F7569 		.ascii	"__uint32_t\000"
 6714      6E743332 
 6714      5F7400
 6715              	.LASF437:
 6716 0b87 75736746 		.ascii	"usgFaultPended\000"
 6716      61756C74 
 6716      50656E64 
 6716      656400
 6717              	.LASF439:
 6718 0b96 62757346 		.ascii	"busFaultPended\000"
 6718      61756C74 
ARM GAS  C:\Users\Rolf\AppData\Local\Temp\ccEjvRQz.s 			page 153


 6718      50656E64 
 6718      656400
 6719              	.LASF321:
 6720 0ba5 65704D6F 		.ascii	"epMonitorNr\000"
 6720      6E69746F 
 6720      724E7200 
 6721              	.LASF372:
 6722 0bb1 63707573 		.ascii	"cpussRam2Ctl0\000"
 6722      7352616D 
 6722      3243746C 
 6722      3000
 6723              	.LASF283:
 6724 0bbf 5449434B 		.ascii	"TICKS\000"
 6724      5300
 6725              	.LASF299:
 6726 0bc5 63707573 		.ascii	"cpussVersion\000"
 6726      73566572 
 6726      73696F6E 
 6726      00
 6727              	.LASF469:
 6728 0bd2 6C696E65 		.ascii	"line\000"
 6728      00
 6729              	.LASF325:
 6730 0bd7 63727970 		.ascii	"cryptoMemSize\000"
 6730      746F4D65 
 6730      6D53697A 
 6730      6500
 6731              	.LASF278:
 6732 0be5 414C4D31 		.ascii	"ALM1_TIME\000"
 6732      5F54494D 
 6732      4500
 6733              	.LASF313:
 6734 0bef 63707573 		.ascii	"cpussFmIrq\000"
 6734      73466D49 
 6734      727100
 6735              	.LASF118:
 6736 0bfa 4449455F 		.ascii	"DIE_WAFER\000"
 6736      57414645 
 6736      5200
 6737              	.LASF33:
 6738 0c04 57414954 		.ascii	"WAIT_CTL\000"
 6738      5F43544C 
 6738      00
 6739              	.LASF497:
 6740 0c0d 474E5520 		.ascii	"GNU C11 5.4.1 20160609 (release) [ARM/embedded-5-br"
 6740      43313120 
 6740      352E342E 
 6740      31203230 
 6740      31363036 
 6741 0c40 616E6368 		.ascii	"anch revision 237715] -mcpu=cortex-m4 -mfloat-abi=s"
 6741      20726576 
 6741      6973696F 
 6741      6E203233 
 6741      37373135 
 6742 0c73 6F667466 		.ascii	"oftfp -mfpu=fpv4-sp-d16 -mthumb -g -Og -ffunction-s"
 6742      70202D6D 
 6742      6670753D 
ARM GAS  C:\Users\Rolf\AppData\Local\Temp\ccEjvRQz.s 			page 154


 6742      66707634 
 6742      2D73702D 
 6743 0ca6 65637469 		.ascii	"ections -ffat-lto-objects\000"
 6743      6F6E7320 
 6743      2D666661 
 6743      742D6C74 
 6743      6F2D6F62 
 6744              	.LASF337:
 6745 0cc0 64774368 		.ascii	"dwChSize\000"
 6745      53697A65 
 6745      00
 6746              	.LASF249:
 6747 0cc9 434C4B5F 		.ascii	"CLK_FLL_CONFIG2\000"
 6747      464C4C5F 
 6747      434F4E46 
 6747      49473200 
 6748              	.LASF263:
 6749 0cd9 5057525F 		.ascii	"PWR_TRIM_BODOVP_CTL\000"
 6749      5452494D 
 6749      5F424F44 
 6749      4F56505F 
 6749      43544C00 
 6750              	.LASF251:
 6751 0ced 434C4B5F 		.ascii	"CLK_FLL_CONFIG4\000"
 6751      464C4C5F 
 6751      434F4E46 
 6751      49473400 
 6752              	.LASF287:
 6753 0cfd 5452494D 		.ascii	"TRIM\000"
 6753      00
 6754              	.LASF38:
 6755 0d02 494E5452 		.ascii	"INTR\000"
 6755      00
 6756              	.LASF288:
 6757 0d07 4241434B 		.ascii	"BACKUP_V1_Type\000"
 6757      55505F56 
 6757      315F5479 
 6757      706500
 6758              	.LASF451:
 6759 0d16 63667372 		.ascii	"cfsr\000"
 6759      00
 6760              	.LASF445:
 6761 0d1b 63667372 		.ascii	"cfsrReg\000"
 6761      52656700 
 6762              	.LASF319:
 6763 0d23 736D6966 		.ascii	"smifDeviceNr\000"
 6763      44657669 
 6763      63654E72 
 6763      00
 6764              	.LASF427:
 6765 0d30 666F7263 		.ascii	"forced\000"
 6765      656400
 6766              	.LASF229:
 6767 0d37 5057525F 		.ascii	"PWR_HIB_DATA\000"
 6767      4849425F 
 6767      44415441 
 6767      00
ARM GAS  C:\Users\Rolf\AppData\Local\Temp\ccEjvRQz.s 			page 155


 6768              	.LASF163:
 6769 0d44 5055424C 		.ascii	"PUBLIC_KEY\000"
 6769      49435F4B 
 6769      455900
 6770              	.LASF351:
 6771 0d4f 70657269 		.ascii	"periDiv16CtlOffset\000"
 6771      44697631 
 6771      3643746C 
 6771      4F666673 
 6771      657400
 6772              	.LASF366:
 6773 0d62 63707573 		.ascii	"cpussSysTickCtlOffset\000"
 6773      73537973 
 6773      5469636B 
 6773      43746C4F 
 6773      66667365 
 6774              	.LASF26:
 6775 0d78 47454F4D 		.ascii	"GEOMETRY\000"
 6775      45545259 
 6775      00
 6776              	.LASF152:
 6777 0d81 43505553 		.ascii	"CPUSS_TRIM_ROM_CTL_HALF_ULP\000"
 6777      535F5452 
 6777      494D5F52 
 6777      4F4D5F43 
 6777      544C5F48 
 6778              	.LASF347:
 6779 0d9d 70657269 		.ascii	"periDivCmdTypeSelPos\000"
 6779      44697643 
 6779      6D645479 
 6779      70655365 
 6779      6C506F73 
 6780              	.LASF282:
 6781 0db2 4F534343 		.ascii	"OSCCNT\000"
 6781      4E5400
 6782              	.LASF289:
 6783 0db9 63707573 		.ascii	"cpussBase\000"
 6783      73426173 
 6783      6500
 6784              	.LASF477:
 6785 0dc3 756E6971 		.ascii	"uniqueIdLo\000"
 6785      75654964 
 6785      4C6F00
 6786              	.LASF192:
 6787 0dce 544F4332 		.ascii	"TOC2_SIGNATURE_VERIF_KEY\000"
 6787      5F534947 
 6787      4E415455 
 6787      52455F56 
 6787      45524946 
 6788              	.LASF293:
 6789 0de7 70726F74 		.ascii	"protBase\000"
 6789      42617365 
 6789      00
 6790              	.LASF305:
 6791 0df0 69706356 		.ascii	"ipcVersion\000"
 6791      65727369 
 6791      6F6E00
ARM GAS  C:\Users\Rolf\AppData\Local\Temp\ccEjvRQz.s 			page 156


 6792              	.LASF132:
 6793 0dfb 55534552 		.ascii	"USER_FREE_ROW1\000"
 6793      5F465245 
 6793      455F524F 
 6793      573100
 6794              	.LASF133:
 6795 0e0a 55534552 		.ascii	"USER_FREE_ROW2\000"
 6795      5F465245 
 6795      455F524F 
 6795      573200
 6796              	.LASF134:
 6797 0e19 55534552 		.ascii	"USER_FREE_ROW3\000"
 6797      5F465245 
 6797      455F524F 
 6797      573300
 6798              	.LASF320:
 6799 0e28 70617373 		.ascii	"passSarChannels\000"
 6799      53617243 
 6799      68616E6E 
 6799      656C7300 
 6800              	.LASF11:
 6801 0e38 6C6F6E67 		.ascii	"long long int\000"
 6801      206C6F6E 
 6801      6720696E 
 6801      7400
 6802              	.LASF43:
 6803 0e46 43414C5F 		.ascii	"CAL_CTL0\000"
 6803      43544C30 
 6803      00
 6804              	.LASF434:
 6805 0e4f 6D6F6E69 		.ascii	"monitorAct\000"
 6805      746F7241 
 6805      637400
 6806              	.LASF221:
 6807 0e5a 4D435744 		.ascii	"MCWDT_LOCK\000"
 6807      545F4C4F 
 6807      434B00
 6808              	.LASF491:
 6809 0e65 63795F64 		.ascii	"cy_delay32kMs\000"
 6809      656C6179 
 6809      33326B4D 
 6809      7300
 6810              	.LASF268:
 6811 0e73 5057525F 		.ascii	"PWR_TRIM_PWRSYS_CTL\000"
 6811      5452494D 
 6811      5F505752 
 6811      5359535F 
 6811      43544C00 
 6812              	.LASF375:
 6813 0e87 63795F73 		.ascii	"cy_stc_device_t\000"
 6813      74635F64 
 6813      65766963 
 6813      655F7400 
 6814              	.LASF84:
 6815 0e97 434D345F 		.ascii	"CM4_CA_STATUS0\000"
 6815      43415F53 
 6815      54415455 
ARM GAS  C:\Users\Rolf\AppData\Local\Temp\ccEjvRQz.s 			page 157


 6815      533000
 6816              	.LASF85:
 6817 0ea6 434D345F 		.ascii	"CM4_CA_STATUS1\000"
 6817      43415F53 
 6817      54415455 
 6817      533100
 6818              	.LASF86:
 6819 0eb5 434D345F 		.ascii	"CM4_CA_STATUS2\000"
 6819      43415F53 
 6819      54415455 
 6819      533200
 6820              	.LASF432:
 6821 0ec4 75736746 		.ascii	"usgFaultAct\000"
 6821      61756C74 
 6821      41637400 
 6822              	.LASF181:
 6823 0ed0 52544F43 		.ascii	"RTOC1_OBJECT_ADDR_UNUSED\000"
 6823      315F4F42 
 6823      4A454354 
 6823      5F414444 
 6823      525F554E 
 6824              	.LASF395:
 6825 0ee9 43595F53 		.ascii	"CY_SYSLIB_SUCCESS\000"
 6825      59534C49 
 6825      425F5355 
 6825      43434553 
 6825      5300
 6826              	.LASF461:
 6827 0efb 646F7562 		.ascii	"double\000"
 6827      6C6500
 6828              	.LASF357:
 6829 0f02 6770696F 		.ascii	"gpioPrtCfgOutOffset\000"
 6829      50727443 
 6829      66674F75 
 6829      744F6666 
 6829      73657400 
 6830              	.LASF122:
 6831 0f16 4449455F 		.ascii	"DIE_MINOR\000"
 6831      4D494E4F 
 6831      5200
 6832              	.LASF92:
 6833 0f20 4457305F 		.ascii	"DW0_BUFF_CTL\000"
 6833      42554646 
 6833      5F43544C 
 6833      00
 6834              	.LASF253:
 6835 0f2d 434C4B5F 		.ascii	"CLK_PLL_CONFIG\000"
 6835      504C4C5F 
 6835      434F4E46 
 6835      494700
 6836              	.LASF328:
 6837 0f3c 666C6173 		.ascii	"flashWriteDelay\000"
 6837      68577269 
 6837      74654465 
 6837      6C617900 
 6838              	.LASF326:
 6839 0f4c 666C6173 		.ascii	"flashRwwRequired\000"
ARM GAS  C:\Users\Rolf\AppData\Local\Temp\ccEjvRQz.s 			page 158


 6839      68527777 
 6839      52657175 
 6839      69726564 
 6839      00
 6840              	.LASF334:
 6841 0f5d 666C6173 		.ascii	"flashCtlMainWs3Freq\000"
 6841      6843746C 
 6841      4D61696E 
 6841      57733346 
 6841      72657100 
 6842              	.LASF182:
 6843 0f71 52544F43 		.ascii	"RTOC1_CRC_ADDR\000"
 6843      315F4352 
 6843      435F4144 
 6843      445200
 6844              	.LASF352:
 6845 0f80 70657269 		.ascii	"periDiv16_5CtlOffset\000"
 6845      44697631 
 6845      365F3543 
 6845      746C4F66 
 6845      66736574 
 6846              	.LASF159:
 6847 0f95 464C4153 		.ascii	"FLASH_BOOT_N_CORES\000"
 6847      485F424F 
 6847      4F545F4E 
 6847      5F434F52 
 6847      455300
 6848              	.LASF90:
 6849 0fa8 43525950 		.ascii	"CRYPTO_BUFF_CMD\000"
 6849      544F5F42 
 6849      5546465F 
 6849      434D4400 
 6850              	.LASF454:
 6851 0fb8 6D6D6661 		.ascii	"mmfar\000"
 6851      7200
 6852              	.LASF142:
 6853 0fbe 50494C4F 		.ascii	"PILO_FREQ_STEP\000"
 6853      5F465245 
 6853      515F5354 
 6853      455000
 6854              	.LASF205:
 6855 0fcd 52544F43 		.ascii	"RTOC2_SHASH_OBJECTS\000"
 6855      325F5348 
 6855      4153485F 
 6855      4F424A45 
 6855      43545300 
 6856              	.LASF164:
 6857 0fe1 424F4F54 		.ascii	"BOOT_PROT_SETTINGS\000"
 6857      5F50524F 
 6857      545F5345 
 6857      5454494E 
 6857      475300
 6858              	.LASF460:
 6859 0ff4 666C6F61 		.ascii	"float\000"
 6859      7400
 6860              	.LASF139:
 6861 0ffa 5354414E 		.ascii	"STANDARD_SMPU_STRUCT_MASTER_ATTR\000"
ARM GAS  C:\Users\Rolf\AppData\Local\Temp\ccEjvRQz.s 			page 159


 6861      44415244 
 6861      5F534D50 
 6861      555F5354 
 6861      52554354 
 6862              	.LASF174:
 6863 101b 52544F43 		.ascii	"RTOC1_OBJECT_SIZE\000"
 6863      315F4F42 
 6863      4A454354 
 6863      5F53495A 
 6863      4500
 6864              	.LASF425:
 6865 102d 63795F73 		.ascii	"cy_stc_fault_cfsr_t\000"
 6865      74635F66 
 6865      61756C74 
 6865      5F636673 
 6865      725F7400 
 6866              	.LASF308:
 6867 1041 63707573 		.ascii	"cpussIpcNr\000"
 6867      73497063 
 6867      4E7200
 6868              	.LASF162:
 6869 104c 464C4153 		.ascii	"FLASH_BOOT_CODE\000"
 6869      485F424F 
 6869      4F545F43 
 6869      4F444500 
 6870              	.LASF14:
 6871 105c 756E7369 		.ascii	"unsigned int\000"
 6871      676E6564 
 6871      20696E74 
 6871      00
 6872              	.LASF213:
 6873 1069 4D435744 		.ascii	"MCWDT_CNTHIGH\000"
 6873      545F434E 
 6873      54484947 
 6873      4800
 6874              	.LASF252:
 6875 1077 434C4B5F 		.ascii	"CLK_FLL_STATUS\000"
 6875      464C4C5F 
 6875      53544154 
 6875      555300
 6876              	.LASF408:
 6877 1086 6D6D6172 		.ascii	"mmarValid\000"
 6877      56616C69 
 6877      6400
 6878              	.LASF170:
 6879 1090 544F4331 		.ascii	"TOC1_FB_OBJECT_ADDR\000"
 6879      5F46425F 
 6879      4F424A45 
 6879      43545F41 
 6879      44445200 
 6880              	.LASF402:
 6881 10a4 64616363 		.ascii	"daccViol\000"
 6881      56696F6C 
 6881      00
 6882              	.LASF302:
 6883 10ad 666C6173 		.ascii	"flashcVersion\000"
 6883      68635665 
ARM GAS  C:\Users\Rolf\AppData\Local\Temp\ccEjvRQz.s 			page 160


 6883      7273696F 
 6883      6E00
 6884              	.LASF141:
 6885 10bb 5354414E 		.ascii	"STANDARD_PPU_STRUCT\000"
 6885      44415244 
 6885      5F505055 
 6885      5F535452 
 6885      55435400 
 6886              	.LASF238:
 6887 10cf 434C4B5F 		.ascii	"CLK_TIMER_CTL\000"
 6887      54494D45 
 6887      525F4354 
 6887      4C00
 6888              	.LASF499:
 6889 10dd 5C5C4D61 		.ascii	"\\\\Mac\\Data\\VScode\\GIT\\Onethinx_Project_Exampl"
 6889      635C4461 
 6889      74615C56 
 6889      53636F64 
 6889      655C4749 
 6890 110a 65735C45 		.ascii	"es\\Example_ADC\\Onethinx_Creator.cydsn\000"
 6890      78616D70 
 6890      6C655F41 
 6890      44435C4F 
 6890      6E657468 
 6891              	.LASF354:
 6892 1130 6770696F 		.ascii	"gpioPrtIntrCfgOffset\000"
 6892      50727449 
 6892      6E747243 
 6892      66674F66 
 6892      66736574 
 6893              	.LASF276:
 6894 1145 5254435F 		.ascii	"RTC_TIME\000"
 6894      54494D45 
 6894      00
 6895              	.LASF371:
 6896 114e 63707573 		.ascii	"cpussRam1Ctl0\000"
 6896      7352616D 
 6896      3143746C 
 6896      3000
 6897              	.LASF138:
 6898 115c 5354414E 		.ascii	"STANDARD_SMPU_STRUCT_SLAVE_ATTR\000"
 6898      44415244 
 6898      5F534D50 
 6898      555F5354 
 6898      52554354 
 6899              	.LASF260:
 6900 117c 5245535F 		.ascii	"RES_CAUSE\000"
 6900      43415553 
 6900      4500
 6901              	.LASF257:
 6902 1186 53525353 		.ascii	"SRSS_INTR_MASK\000"
 6902      5F494E54 
 6902      525F4D41 
 6902      534B00
 6903              	.LASF184:
 6904 1195 544F4332 		.ascii	"TOC2_MAGIC_NUMBER\000"
 6904      5F4D4147 
ARM GAS  C:\Users\Rolf\AppData\Local\Temp\ccEjvRQz.s 			page 161


 6904      49435F4E 
 6904      554D4245 
 6904      5200
 6905              	.LASF60:
 6906 11a7 464C4153 		.ascii	"FLASH_CTL\000"
 6906      485F4354 
 6906      4C00
 6907              	.LASF149:
 6908 11b1 43505553 		.ascii	"CPUSS_TRIM_RAM_CTL_ULP\000"
 6908      535F5452 
 6908      494D5F52 
 6908      414D5F43 
 6908      544C5F55 
 6909              	.LASF187:
 6910 11c8 544F4332 		.ascii	"TOC2_FIRST_USER_APP_ADDR\000"
 6910      5F464952 
 6910      53545F55 
 6910      5345525F 
 6910      4150505F 
 6911              	.LASF69:
 6912 11e1 42495354 		.ascii	"BIST_ADDR\000"
 6912      5F414444 
 6912      5200
 6913              	.LASF157:
 6914 11eb 464C4153 		.ascii	"FLASH_BOOT_APP_ID\000"
 6914      485F424F 
 6914      4F545F41 
 6914      50505F49 
 6914      4400
 6915              	.LASF444:
 6916 11fd 63795F73 		.ascii	"cy_stc_fault_shcsr_t\000"
 6916      74635F66 
 6916      61756C74 
 6916      5F736863 
 6916      73725F74 
 6917              	.LASF160:
 6918 1212 464C4153 		.ascii	"FLASH_BOOT_VT_OFFSET\000"
 6918      485F424F 
 6918      4F545F56 
 6918      545F4F46 
 6918      46534554 
 6919              	.LASF482:
 6920 1227 756C704D 		.ascii	"ulpMode\000"
 6920      6F646500 
 6921              	.LASF362:
 6922 122f 63707573 		.ascii	"cpussCm0StatusOffset\000"
 6922      73436D30 
 6922      53746174 
 6922      75734F66 
 6922      66736574 
 6923              	.LASF258:
 6924 1244 53525353 		.ascii	"SRSS_INTR_MASKED\000"
 6924      5F494E54 
 6924      525F4D41 
 6924      534B4544 
 6924      00
 6925              	.LASF31:
ARM GAS  C:\Users\Rolf\AppData\Local\Temp\ccEjvRQz.s 			page 162


 6926 1255 47454F4D 		.ascii	"GEOMETRY_GEN\000"
 6926      45545259 
 6926      5F47454E 
 6926      00
 6927              	.LASF161:
 6928 1262 464C4153 		.ascii	"FLASH_BOOT_CORE_CPUID\000"
 6928      485F424F 
 6928      4F545F43 
 6928      4F52455F 
 6928      43505549 
 6929              	.LASF198:
 6930 1278 52544F43 		.ascii	"RTOC2_MAGIC_NUMBER\000"
 6930      325F4D41 
 6930      4749435F 
 6930      4E554D42 
 6930      455200
 6931              	.LASF309:
 6932 128b 63707573 		.ascii	"cpussIpcIrqNr\000"
 6932      73497063 
 6932      4972714E 
 6932      7200
 6933              	.LASF414:
 6934 1299 6C737045 		.ascii	"lspErr\000"
 6934      727200
 6935              	.LASF341:
 6936 12a0 64775374 		.ascii	"dwStatusChIdxMsk\000"
 6936      61747573 
 6936      43684964 
 6936      784D736B 
 6936      00
 6937              	.LASF242:
 6938 12b1 434C4B5F 		.ascii	"CLK_OUTPUT_SLOW\000"
 6938      4F555450 
 6938      55545F53 
 6938      4C4F5700 
 6939              	.LASF330:
 6940 12c1 666C6173 		.ascii	"flashEraseDelay\000"
 6940      68457261 
 6940      73654465 
 6940      6C617900 
 6941              	.LASF130:
 6942 12d1 4C444F5F 		.ascii	"LDO_1P1V_TRIM\000"
 6942      31503156 
 6942      5F545249 
 6942      4D00
 6943              	.LASF250:
 6944 12df 434C4B5F 		.ascii	"CLK_FLL_CONFIG3\000"
 6944      464C4C5F 
 6944      434F4E46 
 6944      49473300 
 6945              	.LASF245:
 6946 12ef 434C4B5F 		.ascii	"CLK_ECO_CONFIG\000"
 6946      45434F5F 
 6946      434F4E46 
 6946      494700
 6947              	.LASF21:
 6948 12fe 6C6F6E67 		.ascii	"long double\000"
ARM GAS  C:\Users\Rolf\AppData\Local\Temp\ccEjvRQz.s 			page 163


 6948      20646F75 
 6948      626C6500 
 6949              	.LASF34:
 6950 130a 4D4F4E49 		.ascii	"MONITOR_STATUS\000"
 6950      544F525F 
 6950      53544154 
 6950      555300
 6951              	.LASF39:
 6952 1319 494E5452 		.ascii	"INTR_SET\000"
 6952      5F534554 
 6952      00
 6953              	.LASF158:
 6954 1322 464C4153 		.ascii	"FLASH_BOOT_ATTRIBUTE\000"
 6954      485F424F 
 6954      4F545F41 
 6954      54545249 
 6954      42555445 
 6955              	.LASF316:
 6956 1337 73727373 		.ascii	"srssNumPll\000"
 6956      4E756D50 
 6956      6C6C00
 6957              	.LASF81:
 6958 1342 434D345F 		.ascii	"CM4_CA_CTL2\000"
 6958      43415F43 
 6958      544C3200 
 6959              	.LASF234:
 6960 134e 434C4B5F 		.ascii	"CLK_DSI_SELECT\000"
 6960      4453495F 
 6960      53454C45 
 6960      435400
 6961              	.LASF443:
 6962 135d 75736746 		.ascii	"usgFaultEna\000"
 6962      61756C74 
 6962      456E6100 
 6963              	.LASF410:
 6964 1369 70726563 		.ascii	"precisErr\000"
 6964      69734572 
 6964      7200
 6965              	.LASF368:
 6966 1373 63707573 		.ascii	"cpussCm4NmiCtlOffset\000"
 6966      73436D34 
 6966      4E6D6943 
 6966      746C4F66 
 6966      66736574 
 6967              	.LASF385:
 6968 1388 42464152 		.ascii	"BFAR\000"
 6968      00
 6969              	.LASF367:
 6970 138d 63707573 		.ascii	"cpussCm0NmiCtlOffset\000"
 6970      73436D30 
 6970      4E6D6943 
 6970      746C4F66 
 6970      66736574 
 6971              	.LASF485:
 6972 13a2 66726571 		.ascii	"freqMax\000"
 6972      4D617800 
 6973              	.LASF333:
ARM GAS  C:\Users\Rolf\AppData\Local\Temp\ccEjvRQz.s 			page 164


 6974 13aa 666C6173 		.ascii	"flashCtlMainWs2Freq\000"
 6974      6843746C 
 6974      4D61696E 
 6974      57733246 
 6974      72657100 
 6975              	.LASF68:
 6976 13be 42495354 		.ascii	"BIST_DATA_EXP\000"
 6976      5F444154 
 6976      415F4558 
 6976      5000
 6977              	.LASF458:
 6978 13cc 63686172 		.ascii	"char_t\000"
 6978      5F7400
 6979              	.LASF200:
 6980 13d3 52544F43 		.ascii	"RTOC2_SMIF_CFG_STRUCT_ADDR\000"
 6980      325F534D 
 6980      49465F43 
 6980      46475F53 
 6980      54525543 
 6981              	.LASF35:
 6982 13ee 53435241 		.ascii	"SCRATCH_CTL\000"
 6982      5443485F 
 6982      43544C00 
 6983              	.LASF82:
 6984 13fa 434D345F 		.ascii	"CM4_CA_CMD\000"
 6984      43415F43 
 6984      4D4400
 6985              	.LASF12:
 6986 1405 5F5F7569 		.ascii	"__uint64_t\000"
 6986      6E743634 
 6986      5F7400
 6987              	.LASF436:
 6988 1410 73797354 		.ascii	"sysTickAct\000"
 6988      69636B41 
 6988      637400
 6989              	.LASF17:
 6990 141b 75696E74 		.ascii	"uint16_t\000"
 6990      31365F74 
 6990      00
 6991              	.LASF153:
 6992 1424 43505553 		.ascii	"CPUSS_TRIM_RAM_CTL_HALF_ULP\000"
 6992      535F5452 
 6992      494D5F52 
 6992      414D5F43 
 6992      544C5F48 
 6993              	.LASF201:
 6994 1440 52544F43 		.ascii	"RTOC2_FIRST_USER_APP_ADDR\000"
 6994      325F4649 
 6994      5253545F 
 6994      55534552 
 6994      5F415050 
 6995              	.LASF311:
 6996 145a 63707573 		.ascii	"cpussFlashPaSize\000"
 6996      73466C61 
 6996      73685061 
 6996      53697A65 
 6996      00
ARM GAS  C:\Users\Rolf\AppData\Local\Temp\ccEjvRQz.s 			page 165


 6997              	.LASF97:
 6998 146b 52455345 		.ascii	"RESERVED10\000"
 6998      52564544 
 6998      313000
 6999              	.LASF99:
 7000 1476 52455345 		.ascii	"RESERVED11\000"
 7000      52564544 
 7000      313100
 7001              	.LASF101:
 7002 1481 52455345 		.ascii	"RESERVED12\000"
 7002      52564544 
 7002      313200
 7003              	.LASF103:
 7004 148c 52455345 		.ascii	"RESERVED13\000"
 7004      52564544 
 7004      313300
 7005              	.LASF105:
 7006 1497 52455345 		.ascii	"RESERVED14\000"
 7006      52564544 
 7006      313400
 7007              	.LASF107:
 7008 14a2 52455345 		.ascii	"RESERVED15\000"
 7008      52564544 
 7008      313500
 7009              	.LASF109:
 7010 14ad 52455345 		.ascii	"RESERVED16\000"
 7010      52564544 
 7010      313600
 7011              	.LASF111:
 7012 14b8 52455345 		.ascii	"RESERVED17\000"
 7012      52564544 
 7012      313700
 7013              	.LASF193:
 7014 14c3 52455345 		.ascii	"RESERVED18\000"
 7014      52564544 
 7014      313800
 7015              	.LASF207:
 7016 14ce 52455345 		.ascii	"RESERVED19\000"
 7016      52564544 
 7016      313900
 7017              	.LASF151:
 7018 14d9 43505553 		.ascii	"CPUSS_TRIM_RAM_CTL_LP\000"
 7018      535F5452 
 7018      494D5F52 
 7018      414D5F43 
 7018      544C5F4C 
 7019              	.LASF446:
 7020 14ef 63667372 		.ascii	"cfsrBits\000"
 7020      42697473 
 7020      00
 7021              	.LASF480:
 7022 14f8 6661756C 		.ascii	"faultStackAddr\000"
 7022      74537461 
 7022      636B4164 
 7022      647200
 7023              	.LASF227:
 7024 1507 5057525F 		.ascii	"PWR_BUCK_CTL2\000"
ARM GAS  C:\Users\Rolf\AppData\Local\Temp\ccEjvRQz.s 			page 166


 7024      4255434B 
 7024      5F43544C 
 7024      3200
 7025              	.LASF168:
 7026 1515 544F4331 		.ascii	"TOC1_GENERAL_TRIM_ADDR_UNUSED\000"
 7026      5F47454E 
 7026      4552414C 
 7026      5F545249 
 7026      4D5F4144 
 7027              	.LASF64:
 7028 1533 42495354 		.ascii	"BIST_CMD\000"
 7028      5F434D44 
 7028      00
 7029              	.LASF466:
 7030 153c 72656173 		.ascii	"reason\000"
 7030      6F6E00
 7031              	.LASF483:
 7032 1543 636C6B48 		.ascii	"clkHfMHz\000"
 7032      664D487A 
 7032      00
 7033              	.LASF360:
 7034 154c 63707573 		.ascii	"cpussCm4ClockCtlOffset\000"
 7034      73436D34 
 7034      436C6F63 
 7034      6B43746C 
 7034      4F666673 
 7035              	.LASF262:
 7036 1563 5057525F 		.ascii	"PWR_TRIM_REF_CTL\000"
 7036      5452494D 
 7036      5F524546 
 7036      5F43544C 
 7036      00
 7037              	.LASF18:
 7038 1574 696E7433 		.ascii	"int32_t\000"
 7038      325F7400 
 7039              	.LASF79:
 7040 157c 434D345F 		.ascii	"CM4_CA_CTL0\000"
 7040      43415F43 
 7040      544C3000 
 7041              	.LASF80:
 7042 1588 434D345F 		.ascii	"CM4_CA_CTL1\000"
 7042      43415F43 
 7042      544C3100 
 7043              	.LASF310:
 7044 1594 63707573 		.ascii	"cpussDwChNr\000"
 7044      73447743 
 7044      684E7200 
 7045              	.LASF370:
 7046 15a0 63707573 		.ascii	"cpussRam0Ctl0\000"
 7046      7352616D 
 7046      3043746C 
 7046      3000
 7047              	.LASF471:
 7048 15ae 43795F53 		.ascii	"Cy_SysLib_GetResetReason\000"
 7048      79734C69 
 7048      625F4765 
 7048      74526573 
ARM GAS  C:\Users\Rolf\AppData\Local\Temp\ccEjvRQz.s 			page 167


 7048      65745265 
 7049              	.LASF165:
 7050 15c7 544F4331 		.ascii	"TOC1_OBJECT_SIZE\000"
 7050      5F4F424A 
 7050      4543545F 
 7050      53495A45 
 7050      00
 7051              	.LASF194:
 7052 15d8 544F4332 		.ascii	"TOC2_REVISION\000"
 7052      5F524556 
 7052      4953494F 
 7052      4E00
 7053              	.LASF397:
 7054 15e6 43595F53 		.ascii	"CY_SYSLIB_TIMEOUT\000"
 7054      59534C49 
 7054      425F5449 
 7054      4D454F55 
 7054      5400
 7055              	.LASF3:
 7056 15f8 5F5F696E 		.ascii	"__int16_t\000"
 7056      7431365F 
 7056      7400
 7057              	.LASF128:
 7058 1602 4353505F 		.ascii	"CSP_PANEL_ID\000"
 7058      50414E45 
 7058      4C5F4944 
 7058      00
 7059              	.LASF496:
 7060 160f 7374726E 		.ascii	"strncpy\000"
 7060      63707900 
 7061              	.LASF208:
 7062 1617 52544F43 		.ascii	"RTOC2_REVISION\000"
 7062      325F5245 
 7062      56495349 
 7062      4F4E00
 7063              	.LASF155:
 7064 1626 43505553 		.ascii	"CPUSS_TRIM_RAM_CTL_HALF_LP\000"
 7064      535F5452 
 7064      494D5F52 
 7064      414D5F43 
 7064      544C5F48 
 7065              	.LASF24:
 7066 1641 53544154 		.ascii	"STATUS\000"
 7066      555300
 7067              	.LASF346:
 7068 1648 70657269 		.ascii	"periDivCmdDivSelMsk\000"
 7068      44697643 
 7068      6D644469 
 7068      7653656C 
 7068      4D736B00 
 7069              	.LASF405:
 7070 165c 6D53746B 		.ascii	"mStkErr\000"
 7070      45727200 
 7071              	.LASF254:
 7072 1664 434C4B5F 		.ascii	"CLK_PLL_STATUS\000"
 7072      504C4C5F 
 7072      53544154 
ARM GAS  C:\Users\Rolf\AppData\Local\Temp\ccEjvRQz.s 			page 168


 7072      555300
 7073              	.LASF386:
 7074 1673 41465352 		.ascii	"AFSR\000"
 7074      00
 7075              	.LASF70:
 7076 1678 42495354 		.ascii	"BIST_STATUS\000"
 7076      5F535441 
 7076      54555300 
 7077              	.LASF301:
 7078 1684 64775665 		.ascii	"dwVersion\000"
 7078      7273696F 
 7078      6E00
 7079              	.LASF88:
 7080 168e 43525950 		.ascii	"CRYPTO_BUFF_CTL\000"
 7080      544F5F42 
 7080      5546465F 
 7080      43544C00 
 7081              	.LASF295:
 7082 169e 6770696F 		.ascii	"gpioBase\000"
 7082      42617365 
 7082      00
 7083              	.LASF381:
 7084 16a7 43465352 		.ascii	"CFSR\000"
 7084      00
 7085              	.LASF324:
 7086 16ac 70726F74 		.ascii	"protBusMasterMask\000"
 7086      4275734D 
 7086      61737465 
 7086      724D6173 
 7086      6B00
 7087              	.LASF323:
 7088 16be 73797350 		.ascii	"sysPmSimoPresent\000"
 7088      6D53696D 
 7088      6F507265 
 7088      73656E74 
 7088      00
 7089              	.LASF7:
 7090 16cf 5F5F696E 		.ascii	"__int32_t\000"
 7090      7433325F 
 7090      7400
 7091              	.LASF265:
 7092 16d9 434C4B5F 		.ascii	"CLK_TRIM_CCO_CTL2\000"
 7092      5452494D 
 7092      5F43434F 
 7092      5F43544C 
 7092      3200
 7093              	.LASF487:
 7094 16eb 63795F64 		.ascii	"cy_device\000"
 7094      65766963 
 7094      6500
 7095              	.LASF463:
 7096 16f5 43795F53 		.ascii	"Cy_SysLib_DelayUs\000"
 7096      79734C69 
 7096      625F4465 
 7096      6C617955 
 7096      7300
 7097              	.LASF231:
ARM GAS  C:\Users\Rolf\AppData\Local\Temp\ccEjvRQz.s 			page 169


 7098 1707 5744545F 		.ascii	"WDT_CNT\000"
 7098      434E5400 
 7099              	.LASF75:
 7100 170f 434D305F 		.ascii	"CM0_CA_STATUS0\000"
 7100      43415F53 
 7100      54415455 
 7100      533000
 7101              	.LASF76:
 7102 171e 434D305F 		.ascii	"CM0_CA_STATUS1\000"
 7102      43415F53 
 7102      54415455 
 7102      533100
 7103              	.LASF77:
 7104 172d 434D305F 		.ascii	"CM0_CA_STATUS2\000"
 7104      43415F53 
 7104      54415455 
 7104      533200
 7105              	.LASF116:
 7106 173c 43505553 		.ascii	"CPUSS_WOUNDING\000"
 7106      535F574F 
 7106      554E4449 
 7106      4E4700
 7107              	.LASF216:
 7108 174b 4D435744 		.ascii	"MCWDT_CTL\000"
 7108      545F4354 
 7108      4C00
 7109              	.LASF240:
 7110 1755 434C4B5F 		.ascii	"CLK_IMO_CONFIG\000"
 7110      494D4F5F 
 7110      434F4E46 
 7110      494700
 7111              	.LASF494:
 7112 1764 63795F66 		.ascii	"cy_faultFrame\000"
 7112      61756C74 
 7112      4672616D 
 7112      6500
 7113              	.LASF387:
 7114 1772 4D4D4652 		.ascii	"MMFR\000"
 7114      00
 7115              	.LASF233:
 7116 1777 4D435744 		.ascii	"MCWDT_STRUCT\000"
 7116      545F5354 
 7116      52554354 
 7116      00
 7117              	.LASF384:
 7118 1784 4D4D4641 		.ascii	"MMFAR\000"
 7118      5200
 7119              	.LASF306:
 7120 178a 70657269 		.ascii	"periVersion\000"
 7120      56657273 
 7120      696F6E00 
 7121              	.LASF25:
 7122 1796 464D5F41 		.ascii	"FM_ADDR\000"
 7122      44445200 
 7123              	.LASF4:
 7124 179e 73686F72 		.ascii	"short int\000"
 7124      7420696E 
ARM GAS  C:\Users\Rolf\AppData\Local\Temp\ccEjvRQz.s 			page 170


 7124      7400
 7125              	.LASF20:
 7126 17a8 75696E74 		.ascii	"uint64_t\000"
 7126      36345F74 
 7126      00
 7127              	.LASF456:
 7128 17b1 66707363 		.ascii	"fpscr\000"
 7128      7200
 7129              	.LASF166:
 7130 17b7 544F4331 		.ascii	"TOC1_MAGIC_NUMBER\000"
 7130      5F4D4147 
 7130      49435F4E 
 7130      554D4245 
 7130      5200
 7131              	.LASF126:
 7132 17c9 5341525F 		.ascii	"SAR_TEMP_MULTIPLIER\000"
 7132      54454D50 
 7132      5F4D554C 
 7132      5449504C 
 7132      49455200 
 7133              	.LASF222:
 7134 17dd 4D435744 		.ascii	"MCWDT_STRUCT_V1_Type\000"
 7134      545F5354 
 7134      52554354 
 7134      5F56315F 
 7134      54797065 
 7135              	.LASF440:
 7136 17f2 73764361 		.ascii	"svCallPended\000"
 7136      6C6C5065 
 7136      6E646564 
 7136      00
 7137              	.LASF266:
 7138 17ff 5057525F 		.ascii	"PWR_TRIM_LVD_CTL\000"
 7138      5452494D 
 7138      5F4C5644 
 7138      5F43544C 
 7138      00
 7139              	.LASF16:
 7140 1810 696E7431 		.ascii	"int16_t\000"
 7140      365F7400 
 7141              	.LASF388:
 7142 1818 49534152 		.ascii	"ISAR\000"
 7142      00
 7143              	.LASF493:
 7144 181d 63795F61 		.ascii	"cy_assertLine\000"
 7144      73736572 
 7144      744C696E 
 7144      6500
 7145              	.LASF137:
 7146 182b 5354414E 		.ascii	"STANDARD_SMPU_STRUCT_SLAVE_ADDR\000"
 7146      44415244 
 7146      5F534D50 
 7146      555F5354 
 7146      52554354 
 7147              	.LASF332:
 7148 184b 666C6173 		.ascii	"flashCtlMainWs1Freq\000"
 7148      6843746C 
ARM GAS  C:\Users\Rolf\AppData\Local\Temp\ccEjvRQz.s 			page 171


 7148      4D61696E 
 7148      57733146 
 7148      72657100 
 7149              	.LASF57:
 7150 185f 464D5F48 		.ascii	"FM_HV_DATA\000"
 7150      565F4441 
 7150      544100
 7151              	.LASF479:
 7152 186a 43795F53 		.ascii	"Cy_SysLib_FaultHandler\000"
 7152      79734C69 
 7152      625F4661 
 7152      756C7448 
 7152      616E646C 
 7153              	.LASF478:
 7154 1881 43795F53 		.ascii	"Cy_SysLib_ProcessingFault\000"
 7154      79734C69 
 7154      625F5072 
 7154      6F636573 
 7154      73696E67 
 7155              	.LASF400:
 7156 189b 63795F65 		.ascii	"cy_en_syslib_status_t\000"
 7156      6E5F7379 
 7156      736C6962 
 7156      5F737461 
 7156      7475735F 
 7157              	.LASF202:
 7158 18b1 52544F43 		.ascii	"RTOC2_FIRST_USER_APP_FORMAT\000"
 7158      325F4649 
 7158      5253545F 
 7158      55534552 
 7158      5F415050 
 7159              	.LASF175:
 7160 18cd 52544F43 		.ascii	"RTOC1_MAGIC_NUMBER\000"
 7160      315F4D41 
 7160      4749435F 
 7160      4E554D42 
 7160      455200
 7161              	.LASF112:
 7162 18e0 464C4153 		.ascii	"FLASHC_V1_Type\000"
 7162      48435F56 
 7162      315F5479 
 7162      706500
 7163              	.LASF403:
 7164 18ef 72657365 		.ascii	"reserved1\000"
 7164      72766564 
 7164      3100
 7165              	.LASF407:
 7166 18f9 72657365 		.ascii	"reserved2\000"
 7166      72766564 
 7166      3200
 7167              	.LASF415:
 7168 1903 72657365 		.ascii	"reserved3\000"
 7168      72766564 
 7168      3300
 7169              	.LASF421:
 7170 190d 72657365 		.ascii	"reserved4\000"
 7170      72766564 
ARM GAS  C:\Users\Rolf\AppData\Local\Temp\ccEjvRQz.s 			page 172


 7170      3400
 7171              	.LASF424:
 7172 1917 72657365 		.ascii	"reserved5\000"
 7172      72766564 
 7172      3500
 7173              	.LASF73:
 7174 1921 434D305F 		.ascii	"CM0_CA_CTL2\000"
 7174      43415F43 
 7174      544C3200 
 7175              	.LASF327:
 7176 192d 666C6173 		.ascii	"flashPipeRequired\000"
 7176      68506970 
 7176      65526571 
 7176      75697265 
 7176      6400
 7177              	.LASF273:
 7178 193f 53525353 		.ascii	"SRSS_V1_Type\000"
 7178      5F56315F 
 7178      54797065 
 7178      00
 7179              	.LASF212:
 7180 194c 4D435744 		.ascii	"MCWDT_CNTLOW\000"
 7180      545F434E 
 7180      544C4F57 
 7180      00
 7181              	.LASF488:
 7182 1959 49544D5F 		.ascii	"ITM_RxBuffer\000"
 7182      52784275 
 7182      66666572 
 7182      00
 7183              	.LASF303:
 7184 1966 6770696F 		.ascii	"gpioVersion\000"
 7184      56657273 
 7184      696F6E00 
 7185              	.LASF358:
 7186 1972 6770696F 		.ascii	"gpioPrtCfgSioOffset\000"
 7186      50727443 
 7186      66675369 
 7186      6F4F6666 
 7186      73657400 
 7187              	.LASF418:
 7188 1986 696E7653 		.ascii	"invState\000"
 7188      74617465 
 7188      00
 7189              	.LASF42:
 7190 198f 464D5F48 		.ascii	"FM_HV_DATA_ALL\000"
 7190      565F4441 
 7190      54415F41 
 7190      4C4C00
 7191              	.LASF392:
 7192 199e 53464C41 		.ascii	"SFLASH_Type\000"
 7192      53485F54 
 7192      79706500 
 7193              	.LASF110:
 7194 19aa 4558545F 		.ascii	"EXT_MS1_BUFF_CMD\000"
 7194      4D53315F 
 7194      42554646 
ARM GAS  C:\Users\Rolf\AppData\Local\Temp\ccEjvRQz.s 			page 173


 7194      5F434D44 
 7194      00
 7195              	.LASF447:
 7196 19bb 68667372 		.ascii	"hfsrReg\000"
 7196      52656700 
 7197              	.LASF430:
 7198 19c3 6D656D46 		.ascii	"memFaultAct\000"
 7198      61756C74 
 7198      41637400 
 7199              	.LASF470:
 7200 19cf 43795F53 		.ascii	"Cy_SysLib_Halt\000"
 7200      79734C69 
 7200      625F4861 
 7200      6C7400
 7201              	.LASF322:
 7202 19de 75646250 		.ascii	"udbPresent\000"
 7202      72657365 
 7202      6E7400
 7203              	.LASF464:
 7204 19e9 6D696C6C 		.ascii	"milliseconds\000"
 7204      69736563 
 7204      6F6E6473 
 7204      00
 7205              	.LASF417:
 7206 19f6 756E6465 		.ascii	"undefInstr\000"
 7206      66496E73 
 7206      747200
 7207              	.LASF199:
 7208 1a01 52544F43 		.ascii	"RTOC2_KEY_BLOCK_ADDR\000"
 7208      325F4B45 
 7208      595F424C 
 7208      4F434B5F 
 7208      41444452 
 7209              	.LASF147:
 7210 1a16 52414449 		.ascii	"RADIO_LDO_TRIMS\000"
 7210      4F5F4C44 
 7210      4F5F5452 
 7210      494D5300 
 7211              	.LASF448:
 7212 1a26 68667372 		.ascii	"hfsrBits\000"
 7212      42697473 
 7212      00
 7213              	.LASF413:
 7214 1a2f 73746B45 		.ascii	"stkErr\000"
 7214      727200
 7215              	.LASF19:
 7216 1a36 75696E74 		.ascii	"uint32_t\000"
 7216      33325F74 
 7216      00
 7217              	.LASF53:
 7218 1a3f 5245445F 		.ascii	"RED_CTL_SM01\000"
 7218      43544C5F 
 7218      534D3031 
 7218      00
 7219              	.LASF239:
 7220 1a4c 434C4B5F 		.ascii	"CLK_ILO_CONFIG\000"
 7220      494C4F5F 
ARM GAS  C:\Users\Rolf\AppData\Local\Temp\ccEjvRQz.s 			page 174


 7220      434F4E46 
 7220      494700
 7221              	.LASF411:
 7222 1a5b 696D7072 		.ascii	"imprecisErr\000"
 7222      65636973 
 7222      45727200 
 7223              	.LASF167:
 7224 1a67 544F4331 		.ascii	"TOC1_FHASH_OBJECTS\000"
 7224      5F464841 
 7224      53485F4F 
 7224      424A4543 
 7224      545300
 7225              	.LASF121:
 7226 1a7a 4449455F 		.ascii	"DIE_SORT\000"
 7226      534F5254 
 7226      00
 7227              	.LASF195:
 7228 1a83 544F4332 		.ascii	"TOC2_FLAGS\000"
 7228      5F464C41 
 7228      475300
 7229              	.LASF154:
 7230 1a8e 43505553 		.ascii	"CPUSS_TRIM_ROM_CTL_HALF_LP\000"
 7230      535F5452 
 7230      494D5F52 
 7230      4F4D5F43 
 7230      544C5F48 
 7231              	.LASF426:
 7232 1aa9 76656374 		.ascii	"vectTbl\000"
 7232      54626C00 
 7233              	.LASF241:
 7234 1ab1 434C4B5F 		.ascii	"CLK_OUTPUT_FAST\000"
 7234      4F555450 
 7234      55545F46 
 7234      41535400 
 7235              	.LASF146:
 7236 1ac1 5057525F 		.ascii	"PWR_TRIM_WAKE_CTL\000"
 7236      5452494D 
 7236      5F57414B 
 7236      455F4354 
 7236      4C00
 7237              	.LASF28:
 7238 1ad3 54494D45 		.ascii	"TIMER_CTL\000"
 7238      525F4354 
 7238      4C00
 7239              	.LASF423:
 7240 1add 64697642 		.ascii	"divByZero\000"
 7240      795A6572 
 7240      6F00
 7241              	.LASF338:
 7242 1ae7 64774368 		.ascii	"dwChCtlPrioPos\000"
 7242      43746C50 
 7242      72696F50 
 7242      6F7300
 7243              	.LASF435:
 7244 1af6 70656E64 		.ascii	"pendSVAct\000"
 7244      53564163 
 7244      7400
ARM GAS  C:\Users\Rolf\AppData\Local\Temp\ccEjvRQz.s 			page 175


 7245              	.LASF281:
 7246 1b00 414C4D32 		.ascii	"ALM2_DATE\000"
 7246      5F444154 
 7246      4500
 7247              	.LASF361:
 7248 1b0a 63707573 		.ascii	"cpussCm4StatusOffset\000"
 7248      73436D34 
 7248      53746174 
 7248      75734F66 
 7248      66736574 
 7249              	.LASF339:
 7250 1b1f 64774368 		.ascii	"dwChCtlPreemptablePos\000"
 7250      43746C50 
 7250      7265656D 
 7250      70746162 
 7250      6C65506F 
 7251              	.LASF6:
 7252 1b35 73686F72 		.ascii	"short unsigned int\000"
 7252      7420756E 
 7252      7369676E 
 7252      65642069 
 7252      6E7400
 7253              	.LASF186:
 7254 1b48 544F4332 		.ascii	"TOC2_SMIF_CFG_STRUCT_ADDR\000"
 7254      5F534D49 
 7254      465F4346 
 7254      475F5354 
 7254      52554354 
 7255              	.LASF297:
 7256 1b62 69706342 		.ascii	"ipcBase\000"
 7256      61736500 
 7257              	.LASF390:
 7258 1b6a 43504143 		.ascii	"CPACR\000"
 7258      5200
 7259              	.LASF204:
 7260 1b70 52544F43 		.ascii	"RTOC2_SECOND_USER_APP_FORMAT\000"
 7260      325F5345 
 7260      434F4E44 
 7260      5F555345 
 7260      525F4150 
 7261              	.LASF228:
 7262 1b8d 5057525F 		.ascii	"PWR_LVD_STATUS\000"
 7262      4C56445F 
 7262      53544154 
 7262      555300
 7263              	.LASF349:
 7264 1b9c 70657269 		.ascii	"periDivCmdPaTypeSelPos\000"
 7264      44697643 
 7264      6D645061 
 7264      54797065 
 7264      53656C50 
 7265              	.LASF373:
 7266 1bb3 69706353 		.ascii	"ipcStructSize\000"
 7266      74727563 
 7266      7453697A 
 7266      6500
 7267              	.LASF342:
ARM GAS  C:\Users\Rolf\AppData\Local\Temp\ccEjvRQz.s 			page 176


 7268 1bc1 70657269 		.ascii	"periTrCmdOffset\000"
 7268      5472436D 
 7268      644F6666 
 7268      73657400 
 7269              	.LASF429:
 7270 1bd1 63795F73 		.ascii	"cy_stc_fault_hfsr_t\000"
 7270      74635F66 
 7270      61756C74 
 7270      5F686673 
 7270      725F7400 
 7271              	.LASF172:
 7272 1be5 544F4331 		.ascii	"TOC1_OBJECT_ADDR_UNUSED\000"
 7272      5F4F424A 
 7272      4543545F 
 7272      41444452 
 7272      5F554E55 
 7273              	.LASF63:
 7274 1bfd 42495354 		.ascii	"BIST_CTL\000"
 7274      5F43544C 
 7274      00
 7275              	.LASF300:
 7276 1c06 63727970 		.ascii	"cryptoVersion\000"
 7276      746F5665 
 7276      7273696F 
 7276      6E00
 7277              	.LASF247:
 7278 1c14 434C4B5F 		.ascii	"CLK_PILO_CONFIG\000"
 7278      50494C4F 
 7278      5F434F4E 
 7278      46494700 
 7279              	.LASF267:
 7280 1c24 434C4B5F 		.ascii	"CLK_TRIM_ILO_CTL\000"
 7280      5452494D 
 7280      5F494C4F 
 7280      5F43544C 
 7280      00
 7281              	.LASF232:
 7282 1c35 5744545F 		.ascii	"WDT_MATCH\000"
 7282      4D415443 
 7282      4800
 7283              	.LASF98:
 7284 1c3f 4457315F 		.ascii	"DW1_BUFF_CMD\000"
 7284      42554646 
 7284      5F434D44 
 7284      00
 7285              	.LASF119:
 7286 1c4c 4449455F 		.ascii	"DIE_X\000"
 7286      5800
 7287              	.LASF120:
 7288 1c52 4449455F 		.ascii	"DIE_Y\000"
 7288      5900
 7289              	.LASF136:
 7290 1c58 4D415354 		.ascii	"MASTER_KEY\000"
 7290      45525F4B 
 7290      455900
 7291              	.LASF230:
 7292 1c63 5744545F 		.ascii	"WDT_CTL\000"
ARM GAS  C:\Users\Rolf\AppData\Local\Temp\ccEjvRQz.s 			page 177


 7292      43544C00 
 7293              	.LASF452:
 7294 1c6b 68667372 		.ascii	"hfsr\000"
 7294      00
 7295              	.LASF246:
 7296 1c70 434C4B5F 		.ascii	"CLK_ECO_STATUS\000"
 7296      45434F5F 
 7296      53544154 
 7296      555300
 7297              	.LASF331:
 7298 1c7f 666C6173 		.ascii	"flashCtlMainWs0Freq\000"
 7298      6843746C 
 7298      4D61696E 
 7298      57733046 
 7298      72657100 
 7299              	.LASF304:
 7300 1c93 6873696F 		.ascii	"hsiomVersion\000"
 7300      6D566572 
 7300      73696F6E 
 7300      00
 7301              	.LASF259:
 7302 1ca0 53525353 		.ascii	"SRSS_INTR_CFG\000"
 7302      5F494E54 
 7302      525F4346 
 7302      4700
 7303              	.LASF336:
 7304 1cae 64774368 		.ascii	"dwChOffset\000"
 7304      4F666673 
 7304      657400
 7305              	.LASF462:
 7306 1cb9 43795F53 		.ascii	"Cy_SysLib_Delay\000"
 7306      79734C69 
 7306      625F4465 
 7306      6C617900 
 7307              		.ident	"GCC: (GNU Tools for ARM Embedded Processors) 5.4.1 20160609 (release) [ARM/embedded-5-bran
