ARM GAS  C:\Users\Rolf\AppData\Local\Temp\cc4tlliX.s 			page 1


   1              		.syntax unified
   2              		.cpu cortex-m0plus
   3              		.fpu softvfp
   4              		.eabi_attribute 20, 1
   5              		.eabi_attribute 21, 1
   6              		.eabi_attribute 23, 3
   7              		.eabi_attribute 24, 1
   8              		.eabi_attribute 25, 1
   9              		.eabi_attribute 26, 1
  10              		.eabi_attribute 30, 1
  11              		.eabi_attribute 34, 0
  12              		.eabi_attribute 18, 4
  13              		.thumb
  14              		.syntax unified
  15              		.file	"cy_sar.c"
  16              		.text
  17              	.Ltext0:
  18              		.cfi_sections	.debug_frame
  19              		.global	__aeabi_idiv
  20              		.section	.text.Cy_SAR_Init,"ax",%progbits
  21              		.align	2
  22              		.global	Cy_SAR_Init
  23              		.code	16
  24              		.thumb_func
  25              		.type	Cy_SAR_Init, %function
  26              	Cy_SAR_Init:
  27              	.LFB105:
  28              		.file 1 "Generated_Source\\PSoC6\\pdl\\drivers\\peripheral\\sar\\cy_sar.c"
   1:Generated_Source\PSoC6\pdl\drivers\peripheral\sar/cy_sar.c **** /***************************************************************************//**
   2:Generated_Source\PSoC6\pdl\drivers\peripheral\sar/cy_sar.c **** * \file cy_sar.c
   3:Generated_Source\PSoC6\pdl\drivers\peripheral\sar/cy_sar.c **** * \version 1.20
   4:Generated_Source\PSoC6\pdl\drivers\peripheral\sar/cy_sar.c **** *
   5:Generated_Source\PSoC6\pdl\drivers\peripheral\sar/cy_sar.c **** * Provides the public functions for the API for the SAR driver.
   6:Generated_Source\PSoC6\pdl\drivers\peripheral\sar/cy_sar.c **** *
   7:Generated_Source\PSoC6\pdl\drivers\peripheral\sar/cy_sar.c **** ********************************************************************************
   8:Generated_Source\PSoC6\pdl\drivers\peripheral\sar/cy_sar.c **** * \copyright
   9:Generated_Source\PSoC6\pdl\drivers\peripheral\sar/cy_sar.c **** * Copyright 2017-2018, Cypress Semiconductor Corporation. All rights reserved.
  10:Generated_Source\PSoC6\pdl\drivers\peripheral\sar/cy_sar.c **** * You may use this file only in accordance with the license, terms, conditions,
  11:Generated_Source\PSoC6\pdl\drivers\peripheral\sar/cy_sar.c **** * disclaimers, and limitations in the end user license agreement accompanying
  12:Generated_Source\PSoC6\pdl\drivers\peripheral\sar/cy_sar.c **** * the software package with which this file was provided.
  13:Generated_Source\PSoC6\pdl\drivers\peripheral\sar/cy_sar.c **** *******************************************************************************/
  14:Generated_Source\PSoC6\pdl\drivers\peripheral\sar/cy_sar.c **** #include "cy_sar.h"
  15:Generated_Source\PSoC6\pdl\drivers\peripheral\sar/cy_sar.c **** 
  16:Generated_Source\PSoC6\pdl\drivers\peripheral\sar/cy_sar.c **** #ifdef CY_IP_MXS40PASS_SAR
  17:Generated_Source\PSoC6\pdl\drivers\peripheral\sar/cy_sar.c **** 
  18:Generated_Source\PSoC6\pdl\drivers\peripheral\sar/cy_sar.c **** #if defined(__cplusplus)
  19:Generated_Source\PSoC6\pdl\drivers\peripheral\sar/cy_sar.c **** extern "C" {
  20:Generated_Source\PSoC6\pdl\drivers\peripheral\sar/cy_sar.c **** #endif
  21:Generated_Source\PSoC6\pdl\drivers\peripheral\sar/cy_sar.c **** 
  22:Generated_Source\PSoC6\pdl\drivers\peripheral\sar/cy_sar.c **** static cy_stc_sar_state_backup_t enabledBeforeSleep =
  23:Generated_Source\PSoC6\pdl\drivers\peripheral\sar/cy_sar.c **** {
  24:Generated_Source\PSoC6\pdl\drivers\peripheral\sar/cy_sar.c ****     0uL,
  25:Generated_Source\PSoC6\pdl\drivers\peripheral\sar/cy_sar.c ****     0uL
  26:Generated_Source\PSoC6\pdl\drivers\peripheral\sar/cy_sar.c **** };
  27:Generated_Source\PSoC6\pdl\drivers\peripheral\sar/cy_sar.c **** 
  28:Generated_Source\PSoC6\pdl\drivers\peripheral\sar/cy_sar.c **** volatile int16_t Cy_SAR_offset[CY_SAR_MAX_NUM_CHANNELS];
  29:Generated_Source\PSoC6\pdl\drivers\peripheral\sar/cy_sar.c **** volatile int32_t Cy_SAR_countsPer10Volt[CY_SAR_MAX_NUM_CHANNELS];
ARM GAS  C:\Users\Rolf\AppData\Local\Temp\cc4tlliX.s 			page 2


  30:Generated_Source\PSoC6\pdl\drivers\peripheral\sar/cy_sar.c **** 
  31:Generated_Source\PSoC6\pdl\drivers\peripheral\sar/cy_sar.c **** 
  32:Generated_Source\PSoC6\pdl\drivers\peripheral\sar/cy_sar.c **** /*******************************************************************************
  33:Generated_Source\PSoC6\pdl\drivers\peripheral\sar/cy_sar.c **** * Function Name: Cy_SAR_Init
  34:Generated_Source\PSoC6\pdl\drivers\peripheral\sar/cy_sar.c **** ****************************************************************************//**
  35:Generated_Source\PSoC6\pdl\drivers\peripheral\sar/cy_sar.c **** *
  36:Generated_Source\PSoC6\pdl\drivers\peripheral\sar/cy_sar.c **** * Initialize all SAR configuration registers.
  37:Generated_Source\PSoC6\pdl\drivers\peripheral\sar/cy_sar.c **** * If routing is to be configured, all switches will be cleared before
  38:Generated_Source\PSoC6\pdl\drivers\peripheral\sar/cy_sar.c **** * being initialized.
  39:Generated_Source\PSoC6\pdl\drivers\peripheral\sar/cy_sar.c **** *
  40:Generated_Source\PSoC6\pdl\drivers\peripheral\sar/cy_sar.c **** * \param base
  41:Generated_Source\PSoC6\pdl\drivers\peripheral\sar/cy_sar.c **** * Pointer to structure describing registers
  42:Generated_Source\PSoC6\pdl\drivers\peripheral\sar/cy_sar.c **** *
  43:Generated_Source\PSoC6\pdl\drivers\peripheral\sar/cy_sar.c **** * \param config
  44:Generated_Source\PSoC6\pdl\drivers\peripheral\sar/cy_sar.c **** * Pointer to structure containing configuration data. See \ref cy_stc_sar_config_t
  45:Generated_Source\PSoC6\pdl\drivers\peripheral\sar/cy_sar.c **** * and guidance in the \ref group_sar_initialization section.
  46:Generated_Source\PSoC6\pdl\drivers\peripheral\sar/cy_sar.c **** *
  47:Generated_Source\PSoC6\pdl\drivers\peripheral\sar/cy_sar.c **** * \return
  48:Generated_Source\PSoC6\pdl\drivers\peripheral\sar/cy_sar.c **** * - \ref CY_SAR_SUCCESS : initialization complete
  49:Generated_Source\PSoC6\pdl\drivers\peripheral\sar/cy_sar.c **** * - \ref CY_SAR_BAD_PARAM : input pointers are null, initialization incomplete
  50:Generated_Source\PSoC6\pdl\drivers\peripheral\sar/cy_sar.c **** *
  51:Generated_Source\PSoC6\pdl\drivers\peripheral\sar/cy_sar.c **** * \funcusage
  52:Generated_Source\PSoC6\pdl\drivers\peripheral\sar/cy_sar.c **** *
  53:Generated_Source\PSoC6\pdl\drivers\peripheral\sar/cy_sar.c **** * \snippet sar_sut_01.cydsn/main_cm0p.c SNIPPET_SAR_INIT_CUSTOM
  54:Generated_Source\PSoC6\pdl\drivers\peripheral\sar/cy_sar.c **** *
  55:Generated_Source\PSoC6\pdl\drivers\peripheral\sar/cy_sar.c **** *******************************************************************************/
  56:Generated_Source\PSoC6\pdl\drivers\peripheral\sar/cy_sar.c **** cy_en_sar_status_t Cy_SAR_Init(SAR_Type *base, const cy_stc_sar_config_t *config)
  57:Generated_Source\PSoC6\pdl\drivers\peripheral\sar/cy_sar.c **** {
  29              		.loc 1 57 0
  30              		.cfi_startproc
  31              		@ args = 0, pretend = 0, frame = 0
  32              		@ frame_needed = 0, uses_anonymous_args = 0
  33              	.LVL0:
  34 0000 F8B5     		push	{r3, r4, r5, r6, r7, lr}
  35              		.cfi_def_cfa_offset 24
  36              		.cfi_offset 3, -24
  37              		.cfi_offset 4, -20
  38              		.cfi_offset 5, -16
  39              		.cfi_offset 6, -12
  40              		.cfi_offset 7, -8
  41              		.cfi_offset 14, -4
  42 0002 4F46     		mov	r7, r9
  43 0004 4646     		mov	r6, r8
  44 0006 C0B4     		push	{r6, r7}
  45              		.cfi_def_cfa_offset 32
  46              		.cfi_offset 8, -32
  47              		.cfi_offset 9, -28
  48 0008 0700     		movs	r7, r0
  49 000a 0E00     		movs	r6, r1
  58:Generated_Source\PSoC6\pdl\drivers\peripheral\sar/cy_sar.c ****     CY_ASSERT_L1(NULL != base);
  50              		.loc 1 58 0
  51 000c 0028     		cmp	r0, #0
  52 000e 03D1     		bne	.L2
  53              		.loc 1 58 0 is_stmt 0 discriminator 1
  54 0010 3A21     		movs	r1, #58
  55              	.LVL1:
  56 0012 7A48     		ldr	r0, .L26
ARM GAS  C:\Users\Rolf\AppData\Local\Temp\cc4tlliX.s 			page 3


  57              	.LVL2:
  58 0014 FFF7FEFF 		bl	Cy_SysLib_AssertFailed
  59              	.LVL3:
  60              	.L2:
  59:Generated_Source\PSoC6\pdl\drivers\peripheral\sar/cy_sar.c ****     CY_ASSERT_L1(NULL != config);
  61              		.loc 1 59 0 is_stmt 1
  62 0018 002E     		cmp	r6, #0
  63 001a 03D1     		bne	.L3
  64              		.loc 1 59 0 is_stmt 0 discriminator 1
  65 001c 3B21     		movs	r1, #59
  66 001e 7748     		ldr	r0, .L26
  67 0020 FFF7FEFF 		bl	Cy_SysLib_AssertFailed
  68              	.LVL4:
  69              	.L3:
  60:Generated_Source\PSoC6\pdl\drivers\peripheral\sar/cy_sar.c **** 
  61:Generated_Source\PSoC6\pdl\drivers\peripheral\sar/cy_sar.c ****     cy_en_sar_status_t result;
  62:Generated_Source\PSoC6\pdl\drivers\peripheral\sar/cy_sar.c ****     uint8_t chan;
  63:Generated_Source\PSoC6\pdl\drivers\peripheral\sar/cy_sar.c ****     int32_t counts;
  64:Generated_Source\PSoC6\pdl\drivers\peripheral\sar/cy_sar.c ****     bool vrefNegSelect;
  65:Generated_Source\PSoC6\pdl\drivers\peripheral\sar/cy_sar.c ****     bool singleEndedSigned;
  66:Generated_Source\PSoC6\pdl\drivers\peripheral\sar/cy_sar.c ****     bool chanSingleEnded;
  67:Generated_Source\PSoC6\pdl\drivers\peripheral\sar/cy_sar.c **** 
  68:Generated_Source\PSoC6\pdl\drivers\peripheral\sar/cy_sar.c ****     if ((NULL == base) || (NULL == config))
  70              		.loc 1 68 0 is_stmt 1
  71 0024 002F     		cmp	r7, #0
  72 0026 00D1     		bne	.LCB41
  73 0028 E0E0     		b	.L24	@long jump
  74              	.LCB41:
  75              		.loc 1 68 0 is_stmt 0 discriminator 1
  76 002a 002E     		cmp	r6, #0
  77 002c 00D1     		bne	.LCB43
  78 002e DFE0     		b	.L25	@long jump
  79              	.LCB43:
  69:Generated_Source\PSoC6\pdl\drivers\peripheral\sar/cy_sar.c ****     {
  70:Generated_Source\PSoC6\pdl\drivers\peripheral\sar/cy_sar.c ****         result = CY_SAR_BAD_PARAM;
  71:Generated_Source\PSoC6\pdl\drivers\peripheral\sar/cy_sar.c ****     }
  72:Generated_Source\PSoC6\pdl\drivers\peripheral\sar/cy_sar.c ****     else
  73:Generated_Source\PSoC6\pdl\drivers\peripheral\sar/cy_sar.c ****     {
  74:Generated_Source\PSoC6\pdl\drivers\peripheral\sar/cy_sar.c ****         CY_ASSERT_L2(CY_SAR_CTRL(config->ctrl));
  80              		.loc 1 74 0 is_stmt 1
  81 0030 734B     		ldr	r3, .L26+4
  82 0032 3268     		ldr	r2, [r6]
  83 0034 1A42     		tst	r2, r3
  84 0036 03D0     		beq	.L5
  85              		.loc 1 74 0 is_stmt 0 discriminator 1
  86 0038 4A21     		movs	r1, #74
  87 003a 7048     		ldr	r0, .L26
  88 003c FFF7FEFF 		bl	Cy_SysLib_AssertFailed
  89              	.LVL5:
  90              	.L5:
  75:Generated_Source\PSoC6\pdl\drivers\peripheral\sar/cy_sar.c ****         CY_ASSERT_L2(CY_SAR_SAMPLE_CTRL(config->sampleCtrl));
  91              		.loc 1 75 0 is_stmt 1
  92 0040 704B     		ldr	r3, .L26+8
  93 0042 7268     		ldr	r2, [r6, #4]
  94 0044 1A42     		tst	r2, r3
  95 0046 03D0     		beq	.L6
  96              		.loc 1 75 0 is_stmt 0 discriminator 1
ARM GAS  C:\Users\Rolf\AppData\Local\Temp\cc4tlliX.s 			page 4


  97 0048 4B21     		movs	r1, #75
  98 004a 6C48     		ldr	r0, .L26
  99 004c FFF7FEFF 		bl	Cy_SysLib_AssertFailed
 100              	.LVL6:
 101              	.L6:
  76:Generated_Source\PSoC6\pdl\drivers\peripheral\sar/cy_sar.c ****         CY_ASSERT_L2(CY_SAR_SAMPLE_TIME(config->sampleTime01));
 102              		.loc 1 76 0 is_stmt 1
 103 0050 6D4B     		ldr	r3, .L26+12
 104 0052 B268     		ldr	r2, [r6, #8]
 105 0054 1A42     		tst	r2, r3
 106 0056 03D0     		beq	.L7
 107              		.loc 1 76 0 is_stmt 0 discriminator 1
 108 0058 4C21     		movs	r1, #76
 109 005a 6848     		ldr	r0, .L26
 110 005c FFF7FEFF 		bl	Cy_SysLib_AssertFailed
 111              	.LVL7:
 112              	.L7:
  77:Generated_Source\PSoC6\pdl\drivers\peripheral\sar/cy_sar.c ****         CY_ASSERT_L2(CY_SAR_SAMPLE_TIME(config->sampleTime23));
 113              		.loc 1 77 0 is_stmt 1
 114 0060 694B     		ldr	r3, .L26+12
 115 0062 F268     		ldr	r2, [r6, #12]
 116 0064 1A42     		tst	r2, r3
 117 0066 03D0     		beq	.L8
 118              		.loc 1 77 0 is_stmt 0 discriminator 1
 119 0068 4D21     		movs	r1, #77
 120 006a 6448     		ldr	r0, .L26
 121 006c FFF7FEFF 		bl	Cy_SysLib_AssertFailed
 122              	.LVL8:
 123              	.L8:
  78:Generated_Source\PSoC6\pdl\drivers\peripheral\sar/cy_sar.c ****         CY_ASSERT_L3(CY_SAR_RANGECOND(config->rangeCond));
 124              		.loc 1 78 0 is_stmt 1
 125 0070 337D     		ldrb	r3, [r6, #20]
 126 0072 032B     		cmp	r3, #3
 127 0074 03D9     		bls	.L9
 128              		.loc 1 78 0 is_stmt 0 discriminator 1
 129 0076 4E21     		movs	r1, #78
 130 0078 6048     		ldr	r0, .L26
 131 007a FFF7FEFF 		bl	Cy_SysLib_AssertFailed
 132              	.LVL9:
 133              	.L9:
  79:Generated_Source\PSoC6\pdl\drivers\peripheral\sar/cy_sar.c ****         CY_ASSERT_L2(CY_SAR_CHANMASK(config->chanEn));
 134              		.loc 1 79 0 is_stmt 1
 135 007e 634B     		ldr	r3, .L26+16
 136 0080 B269     		ldr	r2, [r6, #24]
 137 0082 9A42     		cmp	r2, r3
 138 0084 03D9     		bls	.L10
 139              		.loc 1 79 0 is_stmt 0 discriminator 1
 140 0086 4F21     		movs	r1, #79
 141 0088 5C48     		ldr	r0, .L26
 142 008a FFF7FEFF 		bl	Cy_SysLib_AssertFailed
 143              	.LVL10:
 144              	.L10:
  80:Generated_Source\PSoC6\pdl\drivers\peripheral\sar/cy_sar.c ****         CY_ASSERT_L2(CY_SAR_INTRMASK(config->intrMask));
 145              		.loc 1 80 0 is_stmt 1
 146 008e F36D     		ldr	r3, [r6, #92]
 147 0090 072B     		cmp	r3, #7
 148 0092 03D9     		bls	.L11
ARM GAS  C:\Users\Rolf\AppData\Local\Temp\cc4tlliX.s 			page 5


 149              		.loc 1 80 0 is_stmt 0 discriminator 1
 150 0094 5021     		movs	r1, #80
 151 0096 5948     		ldr	r0, .L26
 152 0098 FFF7FEFF 		bl	Cy_SysLib_AssertFailed
 153              	.LVL11:
 154              	.L11:
  81:Generated_Source\PSoC6\pdl\drivers\peripheral\sar/cy_sar.c ****         CY_ASSERT_L2(CY_SAR_CHANMASK(config->satIntrMask));
 155              		.loc 1 81 0 is_stmt 1
 156 009c 5B4B     		ldr	r3, .L26+16
 157 009e 326E     		ldr	r2, [r6, #96]
 158 00a0 9A42     		cmp	r2, r3
 159 00a2 03D9     		bls	.L12
 160              		.loc 1 81 0 is_stmt 0 discriminator 1
 161 00a4 5121     		movs	r1, #81
 162 00a6 5548     		ldr	r0, .L26
 163 00a8 FFF7FEFF 		bl	Cy_SysLib_AssertFailed
 164              	.LVL12:
 165              	.L12:
  82:Generated_Source\PSoC6\pdl\drivers\peripheral\sar/cy_sar.c ****         CY_ASSERT_L2(CY_SAR_CHANMASK(config->rangeIntrMask));
 166              		.loc 1 82 0 is_stmt 1
 167 00ac 574B     		ldr	r3, .L26+16
 168 00ae 726E     		ldr	r2, [r6, #100]
 169 00b0 9A42     		cmp	r2, r3
 170 00b2 03D9     		bls	.L13
 171              		.loc 1 82 0 is_stmt 0 discriminator 1
 172 00b4 5221     		movs	r1, #82
 173 00b6 5148     		ldr	r0, .L26
 174 00b8 FFF7FEFF 		bl	Cy_SysLib_AssertFailed
 175              	.LVL13:
 176              	.L13:
  83:Generated_Source\PSoC6\pdl\drivers\peripheral\sar/cy_sar.c **** 
  84:Generated_Source\PSoC6\pdl\drivers\peripheral\sar/cy_sar.c ****         /* Set the EOS_DSI_OUT_EN bit so the EOS signal can be routed */
  85:Generated_Source\PSoC6\pdl\drivers\peripheral\sar/cy_sar.c ****         SAR_SAMPLE_CTRL(base) = config->sampleCtrl | SAR_SAMPLE_CTRL_EOS_DSI_OUT_EN_Msk;
 177              		.loc 1 85 0 is_stmt 1
 178 00bc 8023     		movs	r3, #128
 179 00be 1B06     		lsls	r3, r3, #24
 180 00c0 7268     		ldr	r2, [r6, #4]
 181 00c2 1343     		orrs	r3, r2
 182 00c4 7B60     		str	r3, [r7, #4]
  86:Generated_Source\PSoC6\pdl\drivers\peripheral\sar/cy_sar.c ****         SAR_SAMPLE_TIME01(base) = config->sampleTime01;
 183              		.loc 1 86 0
 184 00c6 B368     		ldr	r3, [r6, #8]
 185 00c8 3B61     		str	r3, [r7, #16]
  87:Generated_Source\PSoC6\pdl\drivers\peripheral\sar/cy_sar.c ****         SAR_SAMPLE_TIME23(base) = config->sampleTime23;
 186              		.loc 1 87 0
 187 00ca F368     		ldr	r3, [r6, #12]
 188 00cc 7B61     		str	r3, [r7, #20]
  88:Generated_Source\PSoC6\pdl\drivers\peripheral\sar/cy_sar.c ****         SAR_RANGE_THRES(base) = config->rangeThres;
 189              		.loc 1 88 0
 190 00ce 3369     		ldr	r3, [r6, #16]
 191 00d0 BB61     		str	r3, [r7, #24]
  89:Generated_Source\PSoC6\pdl\drivers\peripheral\sar/cy_sar.c ****         SAR_RANGE_COND(base) = (uint32_t)config->rangeCond << SAR_RANGE_COND_RANGE_COND_Pos;
 192              		.loc 1 89 0
 193 00d2 337D     		ldrb	r3, [r6, #20]
 194 00d4 9B07     		lsls	r3, r3, #30
 195 00d6 FB61     		str	r3, [r7, #28]
  90:Generated_Source\PSoC6\pdl\drivers\peripheral\sar/cy_sar.c ****         SAR_CHAN_EN(base) = config->chanEn;
ARM GAS  C:\Users\Rolf\AppData\Local\Temp\cc4tlliX.s 			page 6


 196              		.loc 1 90 0
 197 00d8 B369     		ldr	r3, [r6, #24]
 198 00da 3B62     		str	r3, [r7, #32]
  91:Generated_Source\PSoC6\pdl\drivers\peripheral\sar/cy_sar.c **** 
  92:Generated_Source\PSoC6\pdl\drivers\peripheral\sar/cy_sar.c ****         /* Check whether NEG_SEL is set for VREF */
  93:Generated_Source\PSoC6\pdl\drivers\peripheral\sar/cy_sar.c ****         vrefNegSelect = ((uint32_t)CY_SAR_NEG_SEL_VREF == (config->ctrl & SAR_CTRL_NEG_SEL_Msk))? t
 199              		.loc 1 93 0
 200 00dc E023     		movs	r3, #224
 201 00de 1B01     		lsls	r3, r3, #4
 202 00e0 3268     		ldr	r2, [r6]
 203 00e2 1A40     		ands	r2, r3
 204 00e4 9046     		mov	r8, r2
 205              	.LVL14:
  94:Generated_Source\PSoC6\pdl\drivers\peripheral\sar/cy_sar.c ****         /* Check whether single ended channels are set to signed */
  95:Generated_Source\PSoC6\pdl\drivers\peripheral\sar/cy_sar.c ****         singleEndedSigned = (SAR_SAMPLE_CTRL_SINGLE_ENDED_SIGNED_Msk == (config->sampleCtrl & SAR_S
 206              		.loc 1 95 0
 207 00e6 0423     		movs	r3, #4
 208 00e8 7268     		ldr	r2, [r6, #4]
 209              	.LVL15:
 210 00ea 1A40     		ands	r2, r3
 211 00ec 9146     		mov	r9, r2
 212              	.LVL16:
  96:Generated_Source\PSoC6\pdl\drivers\peripheral\sar/cy_sar.c **** 
  97:Generated_Source\PSoC6\pdl\drivers\peripheral\sar/cy_sar.c ****         for (chan = 0u; chan < CY_SAR_MAX_NUM_CHANNELS; chan++)
 213              		.loc 1 97 0
 214 00ee 0024     		movs	r4, #0
 215 00f0 33E0     		b	.L14
 216              	.LVL17:
 217              	.L18:
  98:Generated_Source\PSoC6\pdl\drivers\peripheral\sar/cy_sar.c ****         {
  99:Generated_Source\PSoC6\pdl\drivers\peripheral\sar/cy_sar.c ****             CY_ASSERT_L2(CY_SAR_CHAN_CONFIG(config->chanConfig[chan]));
 218              		.loc 1 99 0
 219 00f2 2500     		movs	r5, r4
 220 00f4 A31D     		adds	r3, r4, #6
 221 00f6 9B00     		lsls	r3, r3, #2
 222 00f8 F318     		adds	r3, r6, r3
 223 00fa 5A68     		ldr	r2, [r3, #4]
 224 00fc 444B     		ldr	r3, .L26+20
 225 00fe 1A42     		tst	r2, r3
 226 0100 03D0     		beq	.L15
 227              		.loc 1 99 0 is_stmt 0 discriminator 1
 228 0102 6321     		movs	r1, #99
 229 0104 3D48     		ldr	r0, .L26
 230 0106 FFF7FEFF 		bl	Cy_SysLib_AssertFailed
 231              	.LVL18:
 232              	.L15:
 100:Generated_Source\PSoC6\pdl\drivers\peripheral\sar/cy_sar.c **** 
 101:Generated_Source\PSoC6\pdl\drivers\peripheral\sar/cy_sar.c ****             SAR_CHAN_CONFIG(base, chan) = config->chanConfig[chan];
 233              		.loc 1 101 0 is_stmt 1
 234 010a AB1D     		adds	r3, r5, #6
 235 010c 9B00     		lsls	r3, r3, #2
 236 010e F318     		adds	r3, r6, r3
 237 0110 2A00     		movs	r2, r5
 238 0112 2032     		adds	r2, r2, #32
 239 0114 9200     		lsls	r2, r2, #2
 240 0116 5968     		ldr	r1, [r3, #4]
 241 0118 D151     		str	r1, [r2, r7]
ARM GAS  C:\Users\Rolf\AppData\Local\Temp\cc4tlliX.s 			page 7


 242              	.LVL19:
 102:Generated_Source\PSoC6\pdl\drivers\peripheral\sar/cy_sar.c **** 
 103:Generated_Source\PSoC6\pdl\drivers\peripheral\sar/cy_sar.c ****             counts = (int32_t) CY_SAR_WRK_MAX_12BIT;
 104:Generated_Source\PSoC6\pdl\drivers\peripheral\sar/cy_sar.c **** 
 105:Generated_Source\PSoC6\pdl\drivers\peripheral\sar/cy_sar.c ****             /* For signed single ended channels with NEG_SEL set to VREF,
 106:Generated_Source\PSoC6\pdl\drivers\peripheral\sar/cy_sar.c ****              * set the offset to minus half scale to convert results to unsigned format */
 107:Generated_Source\PSoC6\pdl\drivers\peripheral\sar/cy_sar.c ****             chanSingleEnded = (0uL == (config->chanConfig[chan] & (SAR_CHAN_CONFIG_DIFFERENTIAL_EN_
 243              		.loc 1 107 0
 244 011a 5A68     		ldr	r2, [r3, #4]
 245 011c 3D4B     		ldr	r3, .L26+24
 246              	.LVL20:
 108:Generated_Source\PSoC6\pdl\drivers\peripheral\sar/cy_sar.c ****             if (chanSingleEnded && vrefNegSelect && singleEndedSigned)
 247              		.loc 1 108 0
 248 011e 1A42     		tst	r2, r3
 249 0120 0BD1     		bne	.L16
 250              		.loc 1 108 0 is_stmt 0 discriminator 1
 251 0122 E023     		movs	r3, #224
 252              	.LVL21:
 253 0124 1B01     		lsls	r3, r3, #4
 254 0126 9845     		cmp	r8, r3
 255 0128 07D1     		bne	.L16
 256              		.loc 1 108 0 discriminator 2
 257 012a 4B46     		mov	r3, r9
 258 012c 002B     		cmp	r3, #0
 259 012e 04D0     		beq	.L16
 260              	.LVL22:
 109:Generated_Source\PSoC6\pdl\drivers\peripheral\sar/cy_sar.c ****             {
 110:Generated_Source\PSoC6\pdl\drivers\peripheral\sar/cy_sar.c ****                 Cy_SAR_offset[chan] = (int16_t) (counts / -2);
 261              		.loc 1 110 0 is_stmt 1
 262 0130 6B00     		lsls	r3, r5, #1
 263              	.LVL23:
 264 0132 3949     		ldr	r1, .L26+28
 265 0134 394A     		ldr	r2, .L26+32
 266              	.LVL24:
 267 0136 9952     		strh	r1, [r3, r2]
 268              	.LVL25:
 269 0138 03E0     		b	.L17
 270              	.LVL26:
 271              	.L16:
 111:Generated_Source\PSoC6\pdl\drivers\peripheral\sar/cy_sar.c ****             }
 112:Generated_Source\PSoC6\pdl\drivers\peripheral\sar/cy_sar.c ****             else
 113:Generated_Source\PSoC6\pdl\drivers\peripheral\sar/cy_sar.c ****             {
 114:Generated_Source\PSoC6\pdl\drivers\peripheral\sar/cy_sar.c ****                 Cy_SAR_offset[chan] = 0;
 272              		.loc 1 114 0
 273 013a 6B00     		lsls	r3, r5, #1
 274 013c 0021     		movs	r1, #0
 275 013e 374A     		ldr	r2, .L26+32
 276              	.LVL27:
 277 0140 9952     		strh	r1, [r3, r2]
 278              	.LVL28:
 279              	.L17:
 115:Generated_Source\PSoC6\pdl\drivers\peripheral\sar/cy_sar.c ****             }
 116:Generated_Source\PSoC6\pdl\drivers\peripheral\sar/cy_sar.c **** 
 117:Generated_Source\PSoC6\pdl\drivers\peripheral\sar/cy_sar.c ****             /* Calculate gain in counts per 10 volts with rounding */
 118:Generated_Source\PSoC6\pdl\drivers\peripheral\sar/cy_sar.c ****             Cy_SAR_countsPer10Volt[chan] = (int16_t)(((counts * CY_SAR_10MV_COUNTS) + (int32_t)conf
 280              		.loc 1 118 0 discriminator 2
 281 0142 716F     		ldr	r1, [r6, #116]
ARM GAS  C:\Users\Rolf\AppData\Local\Temp\cc4tlliX.s 			page 8


 282 0144 364B     		ldr	r3, .L26+36
 283 0146 C818     		adds	r0, r1, r3
 284 0148 4900     		lsls	r1, r1, #1
 285 014a FFF7FEFF 		bl	__aeabi_idiv
 286              	.LVL29:
 287 014e 00B2     		sxth	r0, r0
 288 0150 AD00     		lsls	r5, r5, #2
 289 0152 344B     		ldr	r3, .L26+40
 290 0154 E850     		str	r0, [r5, r3]
  97:Generated_Source\PSoC6\pdl\drivers\peripheral\sar/cy_sar.c ****         {
 291              		.loc 1 97 0 discriminator 2
 292 0156 0134     		adds	r4, r4, #1
 293              	.LVL30:
 294 0158 E4B2     		uxtb	r4, r4
 295              	.LVL31:
 296              	.L14:
  97:Generated_Source\PSoC6\pdl\drivers\peripheral\sar/cy_sar.c ****         {
 297              		.loc 1 97 0 is_stmt 0 discriminator 1
 298 015a 0F2C     		cmp	r4, #15
 299 015c C9D9     		bls	.L18
 119:Generated_Source\PSoC6\pdl\drivers\peripheral\sar/cy_sar.c ****         }
 120:Generated_Source\PSoC6\pdl\drivers\peripheral\sar/cy_sar.c ****         SAR_INTR_MASK(base) = config->intrMask;
 300              		.loc 1 120 0 is_stmt 1
 301 015e 8623     		movs	r3, #134
 302 0160 9B00     		lsls	r3, r3, #2
 303 0162 F26D     		ldr	r2, [r6, #92]
 304 0164 FA50     		str	r2, [r7, r3]
 121:Generated_Source\PSoC6\pdl\drivers\peripheral\sar/cy_sar.c ****         SAR_INTR(base) = config->intrMask;
 305              		.loc 1 121 0
 306 0166 083B     		subs	r3, r3, #8
 307 0168 F26D     		ldr	r2, [r6, #92]
 308 016a FA50     		str	r2, [r7, r3]
 122:Generated_Source\PSoC6\pdl\drivers\peripheral\sar/cy_sar.c ****         SAR_SATURATE_INTR_MASK(base) = config->satIntrMask;
 309              		.loc 1 122 0
 310 016c 1833     		adds	r3, r3, #24
 311 016e 326E     		ldr	r2, [r6, #96]
 312 0170 FA50     		str	r2, [r7, r3]
 123:Generated_Source\PSoC6\pdl\drivers\peripheral\sar/cy_sar.c ****         SAR_SATURATE_INTR(base) = config->satIntrMask;
 313              		.loc 1 123 0
 314 0172 083B     		subs	r3, r3, #8
 315 0174 326E     		ldr	r2, [r6, #96]
 316 0176 FA50     		str	r2, [r7, r3]
 124:Generated_Source\PSoC6\pdl\drivers\peripheral\sar/cy_sar.c ****         SAR_RANGE_INTR_MASK(base) = config->rangeIntrMask;
 317              		.loc 1 124 0
 318 0178 1833     		adds	r3, r3, #24
 319 017a 726E     		ldr	r2, [r6, #100]
 320 017c FA50     		str	r2, [r7, r3]
 125:Generated_Source\PSoC6\pdl\drivers\peripheral\sar/cy_sar.c ****         SAR_RANGE_INTR(base) = config->rangeIntrMask;
 321              		.loc 1 125 0
 322 017e 083B     		subs	r3, r3, #8
 323 0180 726E     		ldr	r2, [r6, #100]
 324 0182 FA50     		str	r2, [r7, r3]
 126:Generated_Source\PSoC6\pdl\drivers\peripheral\sar/cy_sar.c **** 
 127:Generated_Source\PSoC6\pdl\drivers\peripheral\sar/cy_sar.c ****         /* Set routing related registers if enabled */
 128:Generated_Source\PSoC6\pdl\drivers\peripheral\sar/cy_sar.c ****         if (true == config->configRouting)
 325              		.loc 1 128 0
 326 0184 C13B     		subs	r3, r3, #193
ARM GAS  C:\Users\Rolf\AppData\Local\Temp\cc4tlliX.s 			page 9


 327 0186 FF3B     		subs	r3, r3, #255
 328 0188 F35C     		ldrb	r3, [r6, r3]
 329 018a 002B     		cmp	r3, #0
 330 018c 19D0     		beq	.L19
 129:Generated_Source\PSoC6\pdl\drivers\peripheral\sar/cy_sar.c ****         {
 130:Generated_Source\PSoC6\pdl\drivers\peripheral\sar/cy_sar.c ****             CY_ASSERT_L2(CY_SAR_SWITCHMASK(config->muxSwitch));
 331              		.loc 1 130 0
 332 018e 264B     		ldr	r3, .L26+44
 333 0190 B26E     		ldr	r2, [r6, #104]
 334 0192 9A42     		cmp	r2, r3
 335 0194 03D9     		bls	.L20
 336              		.loc 1 130 0 is_stmt 0 discriminator 1
 337 0196 8221     		movs	r1, #130
 338 0198 1848     		ldr	r0, .L26
 339 019a FFF7FEFF 		bl	Cy_SysLib_AssertFailed
 340              	.LVL32:
 341              	.L20:
 131:Generated_Source\PSoC6\pdl\drivers\peripheral\sar/cy_sar.c ****             CY_ASSERT_L2(CY_SAR_SQMASK(config->muxSwitchSqCtrl));
 342              		.loc 1 131 0 is_stmt 1
 343 019e 234B     		ldr	r3, .L26+48
 344 01a0 F26E     		ldr	r2, [r6, #108]
 345 01a2 1A42     		tst	r2, r3
 346 01a4 03D0     		beq	.L21
 347              		.loc 1 131 0 is_stmt 0 discriminator 1
 348 01a6 8321     		movs	r1, #131
 349 01a8 1448     		ldr	r0, .L26
 350 01aa FFF7FEFF 		bl	Cy_SysLib_AssertFailed
 351              	.LVL33:
 352              	.L21:
 132:Generated_Source\PSoC6\pdl\drivers\peripheral\sar/cy_sar.c **** 
 133:Generated_Source\PSoC6\pdl\drivers\peripheral\sar/cy_sar.c ****             /* Clear out all the switches so that only the desired switches in the config structure
 134:Generated_Source\PSoC6\pdl\drivers\peripheral\sar/cy_sar.c ****             SAR_MUX_SWITCH_CLEAR0(base) = CY_SAR_CLEAR_ALL_SWITCHES;
 353              		.loc 1 134 0 is_stmt 1
 354 01ae 1E4A     		ldr	r2, .L26+44
 355 01b0 C123     		movs	r3, #193
 356 01b2 9B00     		lsls	r3, r3, #2
 357 01b4 FA50     		str	r2, [r7, r3]
 135:Generated_Source\PSoC6\pdl\drivers\peripheral\sar/cy_sar.c **** 
 136:Generated_Source\PSoC6\pdl\drivers\peripheral\sar/cy_sar.c ****             SAR_MUX_SWITCH0(base) = config->muxSwitch;
 358              		.loc 1 136 0
 359 01b6 043B     		subs	r3, r3, #4
 360 01b8 B26E     		ldr	r2, [r6, #104]
 361 01ba FA50     		str	r2, [r7, r3]
 137:Generated_Source\PSoC6\pdl\drivers\peripheral\sar/cy_sar.c ****             SAR_MUX_SWITCH_SQ_CTRL(base) = config->muxSwitchSqCtrl;
 362              		.loc 1 137 0
 363 01bc 4433     		adds	r3, r3, #68
 364 01be F26E     		ldr	r2, [r6, #108]
 365 01c0 FA50     		str	r2, [r7, r3]
 366              	.L19:
 138:Generated_Source\PSoC6\pdl\drivers\peripheral\sar/cy_sar.c ****         }
 139:Generated_Source\PSoC6\pdl\drivers\peripheral\sar/cy_sar.c **** 
 140:Generated_Source\PSoC6\pdl\drivers\peripheral\sar/cy_sar.c ****         /* Set the Cap trim if it was trimmed out of range from sflash */
 141:Generated_Source\PSoC6\pdl\drivers\peripheral\sar/cy_sar.c ****         if ((CY_SAR_CAP_TRIM_MAX == SAR_ANA_TRIM0(base)) || (CY_SAR_CAP_TRIM_MIN == SAR_ANA_TRIM0(b
 367              		.loc 1 141 0
 368 01c2 F023     		movs	r3, #240
 369 01c4 1B01     		lsls	r3, r3, #4
 370 01c6 FB58     		ldr	r3, [r7, r3]
ARM GAS  C:\Users\Rolf\AppData\Local\Temp\cc4tlliX.s 			page 10


 371 01c8 3F2B     		cmp	r3, #63
 372 01ca 04D0     		beq	.L22
 373              		.loc 1 141 0 is_stmt 0 discriminator 1
 374 01cc F023     		movs	r3, #240
 375 01ce 1B01     		lsls	r3, r3, #4
 376 01d0 FB58     		ldr	r3, [r7, r3]
 377 01d2 002B     		cmp	r3, #0
 378 01d4 03D1     		bne	.L23
 379              	.L22:
 142:Generated_Source\PSoC6\pdl\drivers\peripheral\sar/cy_sar.c ****         {
 143:Generated_Source\PSoC6\pdl\drivers\peripheral\sar/cy_sar.c ****             SAR_ANA_TRIM0(base) = CY_SAR_CAP_TRIM;
 380              		.loc 1 143 0 is_stmt 1
 381 01d6 0B22     		movs	r2, #11
 382 01d8 F023     		movs	r3, #240
 383 01da 1B01     		lsls	r3, r3, #4
 384 01dc FA50     		str	r2, [r7, r3]
 385              	.L23:
 144:Generated_Source\PSoC6\pdl\drivers\peripheral\sar/cy_sar.c ****         }
 145:Generated_Source\PSoC6\pdl\drivers\peripheral\sar/cy_sar.c ****         
 146:Generated_Source\PSoC6\pdl\drivers\peripheral\sar/cy_sar.c ****         /* Set the REFBUF_EN bit as this is required for proper operation. */
 147:Generated_Source\PSoC6\pdl\drivers\peripheral\sar/cy_sar.c ****         SAR_CTRL(base) = config->ctrl | SAR_CTRL_REFBUF_EN_Msk;
 386              		.loc 1 147 0
 387 01de 3368     		ldr	r3, [r6]
 388 01e0 8022     		movs	r2, #128
 389 01e2 9203     		lsls	r2, r2, #14
 390 01e4 1343     		orrs	r3, r2
 391 01e6 3B60     		str	r3, [r7]
 392              	.LVL34:
 148:Generated_Source\PSoC6\pdl\drivers\peripheral\sar/cy_sar.c **** 
 149:Generated_Source\PSoC6\pdl\drivers\peripheral\sar/cy_sar.c ****         result = CY_SAR_SUCCESS;
 393              		.loc 1 149 0
 394 01e8 0020     		movs	r0, #0
 395 01ea 02E0     		b	.L4
 396              	.LVL35:
 397              	.L24:
  70:Generated_Source\PSoC6\pdl\drivers\peripheral\sar/cy_sar.c ****     }
 398              		.loc 1 70 0
 399 01ec 1048     		ldr	r0, .L26+52
 400 01ee 00E0     		b	.L4
 401              	.L25:
 402 01f0 0F48     		ldr	r0, .L26+52
 403              	.L4:
 404              	.LVL36:
 150:Generated_Source\PSoC6\pdl\drivers\peripheral\sar/cy_sar.c ****     }
 151:Generated_Source\PSoC6\pdl\drivers\peripheral\sar/cy_sar.c **** 
 152:Generated_Source\PSoC6\pdl\drivers\peripheral\sar/cy_sar.c ****     return result;
 153:Generated_Source\PSoC6\pdl\drivers\peripheral\sar/cy_sar.c **** }
 405              		.loc 1 153 0
 406              		@ sp needed
 407              	.LVL37:
 408              	.LVL38:
 409 01f2 0CBC     		pop	{r2, r3}
 410 01f4 9046     		mov	r8, r2
 411 01f6 9946     		mov	r9, r3
 412 01f8 F8BD     		pop	{r3, r4, r5, r6, r7, pc}
 413              	.L27:
 414 01fa C046     		.align	2
ARM GAS  C:\Users\Rolf\AppData\Local\Temp\cc4tlliX.s 			page 11


 415              	.L26:
 416 01fc 00000000 		.word	.LC0
 417 0200 0811DF00 		.word	14618888
 418 0204 01FE3020 		.word	540081665
 419 0208 00FC00FC 		.word	-67044352
 420 020c FFFF0000 		.word	65535
 421 0210 88CA887E 		.word	2122893960
 422 0214 00010001 		.word	16777472
 423 0218 00F8FFFF 		.word	-2048
 424 021c 00000000 		.word	Cy_SAR_offset
 425 0220 00007102 		.word	40960000
 426 0224 00000000 		.word	Cy_SAR_countsPer10Volt
 427 0228 FFFFFF3F 		.word	1073741823
 428 022c 00FF30FF 		.word	-13566208
 429 0230 01000600 		.word	393217
 430              		.cfi_endproc
 431              	.LFE105:
 432              		.size	Cy_SAR_Init, .-Cy_SAR_Init
 433              		.section	.text.Cy_SAR_DeInit,"ax",%progbits
 434              		.align	2
 435              		.global	Cy_SAR_DeInit
 436              		.code	16
 437              		.thumb_func
 438              		.type	Cy_SAR_DeInit, %function
 439              	Cy_SAR_DeInit:
 440              	.LFB106:
 154:Generated_Source\PSoC6\pdl\drivers\peripheral\sar/cy_sar.c **** 
 155:Generated_Source\PSoC6\pdl\drivers\peripheral\sar/cy_sar.c **** 
 156:Generated_Source\PSoC6\pdl\drivers\peripheral\sar/cy_sar.c **** /*******************************************************************************
 157:Generated_Source\PSoC6\pdl\drivers\peripheral\sar/cy_sar.c **** * Function Name: Cy_SAR_DeInit
 158:Generated_Source\PSoC6\pdl\drivers\peripheral\sar/cy_sar.c **** ****************************************************************************//**
 159:Generated_Source\PSoC6\pdl\drivers\peripheral\sar/cy_sar.c **** *
 160:Generated_Source\PSoC6\pdl\drivers\peripheral\sar/cy_sar.c **** * Reset SAR registers back to power on reset defaults.
 161:Generated_Source\PSoC6\pdl\drivers\peripheral\sar/cy_sar.c **** * The \ref Cy_SAR_offset and \ref Cy_SAR_countsPer10Volt arrays are NOT reset.
 162:Generated_Source\PSoC6\pdl\drivers\peripheral\sar/cy_sar.c **** *
 163:Generated_Source\PSoC6\pdl\drivers\peripheral\sar/cy_sar.c **** * \param base
 164:Generated_Source\PSoC6\pdl\drivers\peripheral\sar/cy_sar.c **** * Pointer to structure describing registers
 165:Generated_Source\PSoC6\pdl\drivers\peripheral\sar/cy_sar.c **** *
 166:Generated_Source\PSoC6\pdl\drivers\peripheral\sar/cy_sar.c **** * \param deInitRouting
 167:Generated_Source\PSoC6\pdl\drivers\peripheral\sar/cy_sar.c **** * If true, all SARMUX switches are opened and switch control registers are reset
 168:Generated_Source\PSoC6\pdl\drivers\peripheral\sar/cy_sar.c **** * to zero. If false, switch registers are untouched.
 169:Generated_Source\PSoC6\pdl\drivers\peripheral\sar/cy_sar.c **** *
 170:Generated_Source\PSoC6\pdl\drivers\peripheral\sar/cy_sar.c **** * \return
 171:Generated_Source\PSoC6\pdl\drivers\peripheral\sar/cy_sar.c **** * - \ref CY_SAR_SUCCESS : de-initialization complete
 172:Generated_Source\PSoC6\pdl\drivers\peripheral\sar/cy_sar.c **** * - \ref CY_SAR_BAD_PARAM : input pointers are null, de-initialization incomplete
 173:Generated_Source\PSoC6\pdl\drivers\peripheral\sar/cy_sar.c **** *
 174:Generated_Source\PSoC6\pdl\drivers\peripheral\sar/cy_sar.c **** * \funcusage
 175:Generated_Source\PSoC6\pdl\drivers\peripheral\sar/cy_sar.c **** *
 176:Generated_Source\PSoC6\pdl\drivers\peripheral\sar/cy_sar.c **** * \snippet sar_sut_01.cydsn/main_cm0p.c SNIPPET_SAR_DEINIT
 177:Generated_Source\PSoC6\pdl\drivers\peripheral\sar/cy_sar.c **** *
 178:Generated_Source\PSoC6\pdl\drivers\peripheral\sar/cy_sar.c **** *******************************************************************************/
 179:Generated_Source\PSoC6\pdl\drivers\peripheral\sar/cy_sar.c **** cy_en_sar_status_t Cy_SAR_DeInit(SAR_Type *base, bool deInitRouting)
 180:Generated_Source\PSoC6\pdl\drivers\peripheral\sar/cy_sar.c **** {
 441              		.loc 1 180 0
 442              		.cfi_startproc
 443              		@ args = 0, pretend = 0, frame = 0
 444              		@ frame_needed = 0, uses_anonymous_args = 0
ARM GAS  C:\Users\Rolf\AppData\Local\Temp\cc4tlliX.s 			page 12


 445              	.LVL39:
 446 0000 70B5     		push	{r4, r5, r6, lr}
 447              		.cfi_def_cfa_offset 16
 448              		.cfi_offset 4, -16
 449              		.cfi_offset 5, -12
 450              		.cfi_offset 6, -8
 451              		.cfi_offset 14, -4
 452 0002 0500     		movs	r5, r0
 453 0004 0C00     		movs	r4, r1
 181:Generated_Source\PSoC6\pdl\drivers\peripheral\sar/cy_sar.c ****     CY_ASSERT_L1(NULL != base);
 454              		.loc 1 181 0
 455 0006 0028     		cmp	r0, #0
 456 0008 03D1     		bne	.L29
 457              		.loc 1 181 0 is_stmt 0 discriminator 1
 458 000a B521     		movs	r1, #181
 459              	.LVL40:
 460 000c 1848     		ldr	r0, .L35
 461              	.LVL41:
 462 000e FFF7FEFF 		bl	Cy_SysLib_AssertFailed
 463              	.LVL42:
 464              	.L29:
 182:Generated_Source\PSoC6\pdl\drivers\peripheral\sar/cy_sar.c **** 
 183:Generated_Source\PSoC6\pdl\drivers\peripheral\sar/cy_sar.c ****     cy_en_sar_status_t result;
 184:Generated_Source\PSoC6\pdl\drivers\peripheral\sar/cy_sar.c ****     uint8_t chan;
 185:Generated_Source\PSoC6\pdl\drivers\peripheral\sar/cy_sar.c **** 
 186:Generated_Source\PSoC6\pdl\drivers\peripheral\sar/cy_sar.c ****     if (NULL == base)
 465              		.loc 1 186 0 is_stmt 1
 466 0012 002D     		cmp	r5, #0
 467 0014 28D0     		beq	.L33
 187:Generated_Source\PSoC6\pdl\drivers\peripheral\sar/cy_sar.c ****     {
 188:Generated_Source\PSoC6\pdl\drivers\peripheral\sar/cy_sar.c ****        result = CY_SAR_BAD_PARAM;
 189:Generated_Source\PSoC6\pdl\drivers\peripheral\sar/cy_sar.c ****     }
 190:Generated_Source\PSoC6\pdl\drivers\peripheral\sar/cy_sar.c ****     else
 191:Generated_Source\PSoC6\pdl\drivers\peripheral\sar/cy_sar.c ****     {
 192:Generated_Source\PSoC6\pdl\drivers\peripheral\sar/cy_sar.c ****         SAR_CTRL(base) = CY_SAR_DEINIT;
 468              		.loc 1 192 0
 469 0016 0023     		movs	r3, #0
 470 0018 2B60     		str	r3, [r5]
 193:Generated_Source\PSoC6\pdl\drivers\peripheral\sar/cy_sar.c ****         SAR_SAMPLE_CTRL(base) = CY_SAR_DEINIT;
 471              		.loc 1 193 0
 472 001a 6B60     		str	r3, [r5, #4]
 194:Generated_Source\PSoC6\pdl\drivers\peripheral\sar/cy_sar.c ****         SAR_SAMPLE_TIME01(base) = CY_SAR_SAMPLE_TIME_DEINIT;
 473              		.loc 1 194 0
 474 001c 154A     		ldr	r2, .L35+4
 475 001e 2A61     		str	r2, [r5, #16]
 195:Generated_Source\PSoC6\pdl\drivers\peripheral\sar/cy_sar.c ****         SAR_SAMPLE_TIME23(base) = CY_SAR_SAMPLE_TIME_DEINIT;
 476              		.loc 1 195 0
 477 0020 6A61     		str	r2, [r5, #20]
 196:Generated_Source\PSoC6\pdl\drivers\peripheral\sar/cy_sar.c ****         SAR_RANGE_THRES(base) = CY_SAR_DEINIT;
 478              		.loc 1 196 0
 479 0022 AB61     		str	r3, [r5, #24]
 197:Generated_Source\PSoC6\pdl\drivers\peripheral\sar/cy_sar.c ****         SAR_RANGE_COND(base) = CY_SAR_DEINIT;
 480              		.loc 1 197 0
 481 0024 EB61     		str	r3, [r5, #28]
 198:Generated_Source\PSoC6\pdl\drivers\peripheral\sar/cy_sar.c ****         SAR_CHAN_EN(base) = CY_SAR_DEINIT;
 482              		.loc 1 198 0
 483 0026 2B62     		str	r3, [r5, #32]
ARM GAS  C:\Users\Rolf\AppData\Local\Temp\cc4tlliX.s 			page 13


 484              	.LVL43:
 199:Generated_Source\PSoC6\pdl\drivers\peripheral\sar/cy_sar.c ****         for (chan = 0u; chan < CY_SAR_MAX_NUM_CHANNELS; chan++)
 485              		.loc 1 199 0
 486 0028 06E0     		b	.L31
 487              	.LVL44:
 488              	.L32:
 200:Generated_Source\PSoC6\pdl\drivers\peripheral\sar/cy_sar.c ****         {
 201:Generated_Source\PSoC6\pdl\drivers\peripheral\sar/cy_sar.c ****             SAR_CHAN_CONFIG(base, chan) = CY_SAR_DEINIT;
 489              		.loc 1 201 0 discriminator 3
 490 002a 1A00     		movs	r2, r3
 491 002c 2032     		adds	r2, r2, #32
 492 002e 9200     		lsls	r2, r2, #2
 493 0030 0021     		movs	r1, #0
 494 0032 5151     		str	r1, [r2, r5]
 199:Generated_Source\PSoC6\pdl\drivers\peripheral\sar/cy_sar.c ****         for (chan = 0u; chan < CY_SAR_MAX_NUM_CHANNELS; chan++)
 495              		.loc 1 199 0 discriminator 3
 496 0034 0133     		adds	r3, r3, #1
 497              	.LVL45:
 498 0036 DBB2     		uxtb	r3, r3
 499              	.LVL46:
 500              	.L31:
 199:Generated_Source\PSoC6\pdl\drivers\peripheral\sar/cy_sar.c ****         for (chan = 0u; chan < CY_SAR_MAX_NUM_CHANNELS; chan++)
 501              		.loc 1 199 0 is_stmt 0 discriminator 1
 502 0038 0F2B     		cmp	r3, #15
 503 003a F6D9     		bls	.L32
 202:Generated_Source\PSoC6\pdl\drivers\peripheral\sar/cy_sar.c ****         }
 203:Generated_Source\PSoC6\pdl\drivers\peripheral\sar/cy_sar.c ****         SAR_INTR_MASK(base) = CY_SAR_DEINIT;
 504              		.loc 1 203 0 is_stmt 1
 505 003c 0023     		movs	r3, #0
 506              	.LVL47:
 507 003e 8622     		movs	r2, #134
 508 0040 9200     		lsls	r2, r2, #2
 509 0042 AB50     		str	r3, [r5, r2]
 204:Generated_Source\PSoC6\pdl\drivers\peripheral\sar/cy_sar.c ****         SAR_SATURATE_INTR_MASK(base) = CY_SAR_DEINIT;
 510              		.loc 1 204 0
 511 0044 1032     		adds	r2, r2, #16
 512 0046 AB50     		str	r3, [r5, r2]
 205:Generated_Source\PSoC6\pdl\drivers\peripheral\sar/cy_sar.c ****         SAR_RANGE_INTR_MASK(base) = CY_SAR_DEINIT;
 513              		.loc 1 205 0
 514 0048 1032     		adds	r2, r2, #16
 515 004a AB50     		str	r3, [r5, r2]
 206:Generated_Source\PSoC6\pdl\drivers\peripheral\sar/cy_sar.c ****         if (true == deInitRouting)
 516              		.loc 1 206 0
 517 004c 002C     		cmp	r4, #0
 518 004e 0DD0     		beq	.L34
 207:Generated_Source\PSoC6\pdl\drivers\peripheral\sar/cy_sar.c ****         {
 208:Generated_Source\PSoC6\pdl\drivers\peripheral\sar/cy_sar.c ****             SAR_MUX_SWITCH_CLEAR0(base) = CY_SAR_CLEAR_ALL_SWITCHES;
 519              		.loc 1 208 0
 520 0050 094A     		ldr	r2, .L35+8
 521 0052 C123     		movs	r3, #193
 522 0054 9B00     		lsls	r3, r3, #2
 523 0056 EA50     		str	r2, [r5, r3]
 209:Generated_Source\PSoC6\pdl\drivers\peripheral\sar/cy_sar.c ****             SAR_MUX_SWITCH_DS_CTRL(base) = CY_SAR_DEINIT;
 524              		.loc 1 209 0
 525 0058 0023     		movs	r3, #0
 526 005a D022     		movs	r2, #208
 527 005c 9200     		lsls	r2, r2, #2
ARM GAS  C:\Users\Rolf\AppData\Local\Temp\cc4tlliX.s 			page 14


 528 005e AB50     		str	r3, [r5, r2]
 210:Generated_Source\PSoC6\pdl\drivers\peripheral\sar/cy_sar.c ****             SAR_MUX_SWITCH_SQ_CTRL(base) = CY_SAR_DEINIT;
 529              		.loc 1 210 0
 530 0060 0432     		adds	r2, r2, #4
 531 0062 AB50     		str	r3, [r5, r2]
 211:Generated_Source\PSoC6\pdl\drivers\peripheral\sar/cy_sar.c ****         }
 212:Generated_Source\PSoC6\pdl\drivers\peripheral\sar/cy_sar.c ****         result = CY_SAR_SUCCESS;
 532              		.loc 1 212 0
 533 0064 0020     		movs	r0, #0
 534 0066 02E0     		b	.L30
 535              	.L33:
 188:Generated_Source\PSoC6\pdl\drivers\peripheral\sar/cy_sar.c ****     }
 536              		.loc 1 188 0
 537 0068 0448     		ldr	r0, .L35+12
 538 006a 00E0     		b	.L30
 539              	.L34:
 540              		.loc 1 212 0
 541 006c 0020     		movs	r0, #0
 542              	.L30:
 543              	.LVL48:
 213:Generated_Source\PSoC6\pdl\drivers\peripheral\sar/cy_sar.c ****     }
 214:Generated_Source\PSoC6\pdl\drivers\peripheral\sar/cy_sar.c **** 
 215:Generated_Source\PSoC6\pdl\drivers\peripheral\sar/cy_sar.c ****     return result;
 216:Generated_Source\PSoC6\pdl\drivers\peripheral\sar/cy_sar.c **** }
 544              		.loc 1 216 0
 545              		@ sp needed
 546              	.LVL49:
 547 006e 70BD     		pop	{r4, r5, r6, pc}
 548              	.L36:
 549              		.align	2
 550              	.L35:
 551 0070 00000000 		.word	.LC0
 552 0074 03000300 		.word	196611
 553 0078 FFFFFF3F 		.word	1073741823
 554 007c 01000600 		.word	393217
 555              		.cfi_endproc
 556              	.LFE106:
 557              		.size	Cy_SAR_DeInit, .-Cy_SAR_DeInit
 558              		.section	.text.Cy_SAR_Enable,"ax",%progbits
 559              		.align	2
 560              		.global	Cy_SAR_Enable
 561              		.code	16
 562              		.thumb_func
 563              		.type	Cy_SAR_Enable, %function
 564              	Cy_SAR_Enable:
 565              	.LFB107:
 217:Generated_Source\PSoC6\pdl\drivers\peripheral\sar/cy_sar.c **** 
 218:Generated_Source\PSoC6\pdl\drivers\peripheral\sar/cy_sar.c **** 
 219:Generated_Source\PSoC6\pdl\drivers\peripheral\sar/cy_sar.c **** /*******************************************************************************
 220:Generated_Source\PSoC6\pdl\drivers\peripheral\sar/cy_sar.c **** * Function Name: Cy_SAR_Enable
 221:Generated_Source\PSoC6\pdl\drivers\peripheral\sar/cy_sar.c **** ****************************************************************************//**
 222:Generated_Source\PSoC6\pdl\drivers\peripheral\sar/cy_sar.c **** *
 223:Generated_Source\PSoC6\pdl\drivers\peripheral\sar/cy_sar.c **** * Power up the SAR ADC subsystem block. The hardware is ready to use
 224:Generated_Source\PSoC6\pdl\drivers\peripheral\sar/cy_sar.c **** * after 2 us, which is included in this function.
 225:Generated_Source\PSoC6\pdl\drivers\peripheral\sar/cy_sar.c **** *
 226:Generated_Source\PSoC6\pdl\drivers\peripheral\sar/cy_sar.c **** * \param base
 227:Generated_Source\PSoC6\pdl\drivers\peripheral\sar/cy_sar.c **** * Pointer to structure describing registers
ARM GAS  C:\Users\Rolf\AppData\Local\Temp\cc4tlliX.s 			page 15


 228:Generated_Source\PSoC6\pdl\drivers\peripheral\sar/cy_sar.c **** *
 229:Generated_Source\PSoC6\pdl\drivers\peripheral\sar/cy_sar.c **** * \return None
 230:Generated_Source\PSoC6\pdl\drivers\peripheral\sar/cy_sar.c **** *
 231:Generated_Source\PSoC6\pdl\drivers\peripheral\sar/cy_sar.c **** *******************************************************************************/
 232:Generated_Source\PSoC6\pdl\drivers\peripheral\sar/cy_sar.c **** void Cy_SAR_Enable(SAR_Type *base)
 233:Generated_Source\PSoC6\pdl\drivers\peripheral\sar/cy_sar.c **** {
 566              		.loc 1 233 0
 567              		.cfi_startproc
 568              		@ args = 0, pretend = 0, frame = 0
 569              		@ frame_needed = 0, uses_anonymous_args = 0
 570              	.LVL50:
 571 0000 10B5     		push	{r4, lr}
 572              		.cfi_def_cfa_offset 8
 573              		.cfi_offset 4, -8
 574              		.cfi_offset 14, -4
 234:Generated_Source\PSoC6\pdl\drivers\peripheral\sar/cy_sar.c ****     if (0uL == (SAR_CTRL(base) & SAR_CTRL_ENABLED_Msk))
 575              		.loc 1 234 0
 576 0002 0368     		ldr	r3, [r0]
 577 0004 002B     		cmp	r3, #0
 578 0006 0CDB     		blt	.L37
 579              	.L39:
 235:Generated_Source\PSoC6\pdl\drivers\peripheral\sar/cy_sar.c ****     {
 236:Generated_Source\PSoC6\pdl\drivers\peripheral\sar/cy_sar.c ****         while (0uL != (SAR_STATUS(base) & SAR_STATUS_BUSY_Msk))
 580              		.loc 1 236 0 discriminator 1
 581 0008 A823     		movs	r3, #168
 582 000a 9B00     		lsls	r3, r3, #2
 583 000c C358     		ldr	r3, [r0, r3]
 584 000e 002B     		cmp	r3, #0
 585 0010 FADB     		blt	.L39
 237:Generated_Source\PSoC6\pdl\drivers\peripheral\sar/cy_sar.c ****         {
 238:Generated_Source\PSoC6\pdl\drivers\peripheral\sar/cy_sar.c ****             /* Wait for SAR to go idle to avoid deadlock */
 239:Generated_Source\PSoC6\pdl\drivers\peripheral\sar/cy_sar.c ****         }
 240:Generated_Source\PSoC6\pdl\drivers\peripheral\sar/cy_sar.c **** 
 241:Generated_Source\PSoC6\pdl\drivers\peripheral\sar/cy_sar.c ****         SAR_CTRL(base) |= SAR_CTRL_ENABLED_Msk;
 586              		.loc 1 241 0
 587 0012 0368     		ldr	r3, [r0]
 588 0014 8022     		movs	r2, #128
 589 0016 1206     		lsls	r2, r2, #24
 590 0018 1343     		orrs	r3, r2
 591 001a 0360     		str	r3, [r0]
 242:Generated_Source\PSoC6\pdl\drivers\peripheral\sar/cy_sar.c **** 
 243:Generated_Source\PSoC6\pdl\drivers\peripheral\sar/cy_sar.c ****         /* The block is ready to use 2 us after the enable signal is set high. */
 244:Generated_Source\PSoC6\pdl\drivers\peripheral\sar/cy_sar.c ****         Cy_SysLib_DelayUs(CY_SAR_2US_DELAY);
 592              		.loc 1 244 0
 593 001c 0220     		movs	r0, #2
 594              	.LVL51:
 595 001e FFF7FEFF 		bl	Cy_SysLib_DelayUs
 596              	.LVL52:
 597              	.L37:
 245:Generated_Source\PSoC6\pdl\drivers\peripheral\sar/cy_sar.c ****     }
 246:Generated_Source\PSoC6\pdl\drivers\peripheral\sar/cy_sar.c **** }
 598              		.loc 1 246 0
 599              		@ sp needed
 600 0022 10BD     		pop	{r4, pc}
 601              		.cfi_endproc
 602              	.LFE107:
 603              		.size	Cy_SAR_Enable, .-Cy_SAR_Enable
ARM GAS  C:\Users\Rolf\AppData\Local\Temp\cc4tlliX.s 			page 16


 604              		.section	.text.Cy_SAR_StartConvert,"ax",%progbits
 605              		.align	2
 606              		.global	Cy_SAR_StartConvert
 607              		.code	16
 608              		.thumb_func
 609              		.type	Cy_SAR_StartConvert, %function
 610              	Cy_SAR_StartConvert:
 611              	.LFB110:
 247:Generated_Source\PSoC6\pdl\drivers\peripheral\sar/cy_sar.c **** 
 248:Generated_Source\PSoC6\pdl\drivers\peripheral\sar/cy_sar.c **** 
 249:Generated_Source\PSoC6\pdl\drivers\peripheral\sar/cy_sar.c **** /*******************************************************************************
 250:Generated_Source\PSoC6\pdl\drivers\peripheral\sar/cy_sar.c **** * Function Name: Cy_SAR_DeepSleep
 251:Generated_Source\PSoC6\pdl\drivers\peripheral\sar/cy_sar.c **** ****************************************************************************//**
 252:Generated_Source\PSoC6\pdl\drivers\peripheral\sar/cy_sar.c **** *
 253:Generated_Source\PSoC6\pdl\drivers\peripheral\sar/cy_sar.c **** * This is the preferred routine to prepare the hardware for Deep Sleep.
 254:Generated_Source\PSoC6\pdl\drivers\peripheral\sar/cy_sar.c **** *
 255:Generated_Source\PSoC6\pdl\drivers\peripheral\sar/cy_sar.c **** * It will call \ref Cy_SAR_StopConvert to disable continuous conversions
 256:Generated_Source\PSoC6\pdl\drivers\peripheral\sar/cy_sar.c **** * and wait for SAR conversions to stop before entering Deep Sleep.
 257:Generated_Source\PSoC6\pdl\drivers\peripheral\sar/cy_sar.c **** * If the SARMUX is not configured for Deep Sleep operation, the entire SAR hardware
 258:Generated_Source\PSoC6\pdl\drivers\peripheral\sar/cy_sar.c **** * block will be turned off.
 259:Generated_Source\PSoC6\pdl\drivers\peripheral\sar/cy_sar.c **** *
 260:Generated_Source\PSoC6\pdl\drivers\peripheral\sar/cy_sar.c **** * \param base
 261:Generated_Source\PSoC6\pdl\drivers\peripheral\sar/cy_sar.c **** * Pointer to structure describing registers
 262:Generated_Source\PSoC6\pdl\drivers\peripheral\sar/cy_sar.c **** *
 263:Generated_Source\PSoC6\pdl\drivers\peripheral\sar/cy_sar.c **** * \return None
 264:Generated_Source\PSoC6\pdl\drivers\peripheral\sar/cy_sar.c **** *
 265:Generated_Source\PSoC6\pdl\drivers\peripheral\sar/cy_sar.c **** * \funcusage
 266:Generated_Source\PSoC6\pdl\drivers\peripheral\sar/cy_sar.c **** *
 267:Generated_Source\PSoC6\pdl\drivers\peripheral\sar/cy_sar.c **** * This function is used in the \ref Cy_SAR_DeepSleepCallback. There is no
 268:Generated_Source\PSoC6\pdl\drivers\peripheral\sar/cy_sar.c **** * need to call this function directly.
 269:Generated_Source\PSoC6\pdl\drivers\peripheral\sar/cy_sar.c **** *
 270:Generated_Source\PSoC6\pdl\drivers\peripheral\sar/cy_sar.c **** *******************************************************************************/
 271:Generated_Source\PSoC6\pdl\drivers\peripheral\sar/cy_sar.c **** void Cy_SAR_DeepSleep(SAR_Type *base)
 272:Generated_Source\PSoC6\pdl\drivers\peripheral\sar/cy_sar.c **** {
 273:Generated_Source\PSoC6\pdl\drivers\peripheral\sar/cy_sar.c ****     uint32_t ctrlReg = SAR_CTRL(base);
 274:Generated_Source\PSoC6\pdl\drivers\peripheral\sar/cy_sar.c **** 
 275:Generated_Source\PSoC6\pdl\drivers\peripheral\sar/cy_sar.c ****     enabledBeforeSleep.hwEnabled = ctrlReg & SAR_CTRL_ENABLED_Msk;
 276:Generated_Source\PSoC6\pdl\drivers\peripheral\sar/cy_sar.c **** 
 277:Generated_Source\PSoC6\pdl\drivers\peripheral\sar/cy_sar.c ****     /* Turn off the reference buffer */
 278:Generated_Source\PSoC6\pdl\drivers\peripheral\sar/cy_sar.c ****     ctrlReg &= ~SAR_CTRL_REFBUF_EN_Msk;
 279:Generated_Source\PSoC6\pdl\drivers\peripheral\sar/cy_sar.c **** 
 280:Generated_Source\PSoC6\pdl\drivers\peripheral\sar/cy_sar.c ****     if (SAR_CTRL_ENABLED_Msk == enabledBeforeSleep.hwEnabled)
 281:Generated_Source\PSoC6\pdl\drivers\peripheral\sar/cy_sar.c ****     {
 282:Generated_Source\PSoC6\pdl\drivers\peripheral\sar/cy_sar.c **** 
 283:Generated_Source\PSoC6\pdl\drivers\peripheral\sar/cy_sar.c ****         /* Save state of CONTINUOUS bit so that conversions can be re-started upon wake-up */
 284:Generated_Source\PSoC6\pdl\drivers\peripheral\sar/cy_sar.c ****         enabledBeforeSleep.continuous = SAR_SAMPLE_CTRL(base) & SAR_SAMPLE_CTRL_CONTINUOUS_Msk;
 285:Generated_Source\PSoC6\pdl\drivers\peripheral\sar/cy_sar.c **** 
 286:Generated_Source\PSoC6\pdl\drivers\peripheral\sar/cy_sar.c ****         Cy_SAR_StopConvert(base);
 287:Generated_Source\PSoC6\pdl\drivers\peripheral\sar/cy_sar.c **** 
 288:Generated_Source\PSoC6\pdl\drivers\peripheral\sar/cy_sar.c ****         while (0uL != (SAR_STATUS(base) & SAR_STATUS_BUSY_Msk))
 289:Generated_Source\PSoC6\pdl\drivers\peripheral\sar/cy_sar.c ****         {
 290:Generated_Source\PSoC6\pdl\drivers\peripheral\sar/cy_sar.c ****             /* Wait for SAR to stop conversions before entering low power */
 291:Generated_Source\PSoC6\pdl\drivers\peripheral\sar/cy_sar.c ****         }
 292:Generated_Source\PSoC6\pdl\drivers\peripheral\sar/cy_sar.c **** 
 293:Generated_Source\PSoC6\pdl\drivers\peripheral\sar/cy_sar.c ****         /* Turn off the entire hardware block only if the SARMUX is not
 294:Generated_Source\PSoC6\pdl\drivers\peripheral\sar/cy_sar.c ****          * enabled for Deep Sleep operation. */
 295:Generated_Source\PSoC6\pdl\drivers\peripheral\sar/cy_sar.c ****         if (SAR_CTRL_DEEPSLEEP_ON_Msk != (ctrlReg & SAR_CTRL_DEEPSLEEP_ON_Msk))
ARM GAS  C:\Users\Rolf\AppData\Local\Temp\cc4tlliX.s 			page 17


 296:Generated_Source\PSoC6\pdl\drivers\peripheral\sar/cy_sar.c ****         {
 297:Generated_Source\PSoC6\pdl\drivers\peripheral\sar/cy_sar.c ****             SAR_CTRL(base) &= ~SAR_CTRL_ENABLED_Msk;
 298:Generated_Source\PSoC6\pdl\drivers\peripheral\sar/cy_sar.c ****         }
 299:Generated_Source\PSoC6\pdl\drivers\peripheral\sar/cy_sar.c ****     }
 300:Generated_Source\PSoC6\pdl\drivers\peripheral\sar/cy_sar.c **** 
 301:Generated_Source\PSoC6\pdl\drivers\peripheral\sar/cy_sar.c ****     SAR_CTRL(base) = ctrlReg;
 302:Generated_Source\PSoC6\pdl\drivers\peripheral\sar/cy_sar.c **** }
 303:Generated_Source\PSoC6\pdl\drivers\peripheral\sar/cy_sar.c **** 
 304:Generated_Source\PSoC6\pdl\drivers\peripheral\sar/cy_sar.c **** 
 305:Generated_Source\PSoC6\pdl\drivers\peripheral\sar/cy_sar.c **** /*******************************************************************************
 306:Generated_Source\PSoC6\pdl\drivers\peripheral\sar/cy_sar.c **** * Function Name: Cy_SAR_Wakeup
 307:Generated_Source\PSoC6\pdl\drivers\peripheral\sar/cy_sar.c **** ****************************************************************************//**
 308:Generated_Source\PSoC6\pdl\drivers\peripheral\sar/cy_sar.c **** *
 309:Generated_Source\PSoC6\pdl\drivers\peripheral\sar/cy_sar.c **** * This is the preferred routine to restore the hardware to the state after calling
 310:Generated_Source\PSoC6\pdl\drivers\peripheral\sar/cy_sar.c **** * \ref Cy_SAR_DeepSleep. Restoring the hardware involves re-enabling the hardware,
 311:Generated_Source\PSoC6\pdl\drivers\peripheral\sar/cy_sar.c **** * the reference buffer, and continuous scanning if it was previously
 312:Generated_Source\PSoC6\pdl\drivers\peripheral\sar/cy_sar.c **** * enabled before entering sleep.
 313:Generated_Source\PSoC6\pdl\drivers\peripheral\sar/cy_sar.c **** *
 314:Generated_Source\PSoC6\pdl\drivers\peripheral\sar/cy_sar.c **** * \param base
 315:Generated_Source\PSoC6\pdl\drivers\peripheral\sar/cy_sar.c **** * Pointer to structure describing registers
 316:Generated_Source\PSoC6\pdl\drivers\peripheral\sar/cy_sar.c **** *
 317:Generated_Source\PSoC6\pdl\drivers\peripheral\sar/cy_sar.c **** * \sideeffect
 318:Generated_Source\PSoC6\pdl\drivers\peripheral\sar/cy_sar.c **** * Calling this function without previously calling \ref Cy_SAR_DeepSleep can lead to
 319:Generated_Source\PSoC6\pdl\drivers\peripheral\sar/cy_sar.c **** * unpredictable results.
 320:Generated_Source\PSoC6\pdl\drivers\peripheral\sar/cy_sar.c **** *
 321:Generated_Source\PSoC6\pdl\drivers\peripheral\sar/cy_sar.c **** * \return None
 322:Generated_Source\PSoC6\pdl\drivers\peripheral\sar/cy_sar.c **** *
 323:Generated_Source\PSoC6\pdl\drivers\peripheral\sar/cy_sar.c **** * \funcusage
 324:Generated_Source\PSoC6\pdl\drivers\peripheral\sar/cy_sar.c **** *
 325:Generated_Source\PSoC6\pdl\drivers\peripheral\sar/cy_sar.c **** * This function is used in the \ref Cy_SAR_DeepSleepCallback. There is no
 326:Generated_Source\PSoC6\pdl\drivers\peripheral\sar/cy_sar.c **** * need to call this function directly.
 327:Generated_Source\PSoC6\pdl\drivers\peripheral\sar/cy_sar.c **** *
 328:Generated_Source\PSoC6\pdl\drivers\peripheral\sar/cy_sar.c **** *******************************************************************************/
 329:Generated_Source\PSoC6\pdl\drivers\peripheral\sar/cy_sar.c **** void Cy_SAR_Wakeup(SAR_Type *base)
 330:Generated_Source\PSoC6\pdl\drivers\peripheral\sar/cy_sar.c **** {
 331:Generated_Source\PSoC6\pdl\drivers\peripheral\sar/cy_sar.c ****     /* Turn on the reference buffer */
 332:Generated_Source\PSoC6\pdl\drivers\peripheral\sar/cy_sar.c ****     SAR_CTRL(base) |= SAR_CTRL_REFBUF_EN_Msk;
 333:Generated_Source\PSoC6\pdl\drivers\peripheral\sar/cy_sar.c **** 
 334:Generated_Source\PSoC6\pdl\drivers\peripheral\sar/cy_sar.c ****     if (SAR_CTRL_ENABLED_Msk == enabledBeforeSleep.hwEnabled)
 335:Generated_Source\PSoC6\pdl\drivers\peripheral\sar/cy_sar.c ****     {
 336:Generated_Source\PSoC6\pdl\drivers\peripheral\sar/cy_sar.c ****         Cy_SAR_Enable(base);
 337:Generated_Source\PSoC6\pdl\drivers\peripheral\sar/cy_sar.c **** 
 338:Generated_Source\PSoC6\pdl\drivers\peripheral\sar/cy_sar.c ****         if (SAR_SAMPLE_CTRL_CONTINUOUS_Msk == enabledBeforeSleep.continuous)
 339:Generated_Source\PSoC6\pdl\drivers\peripheral\sar/cy_sar.c ****         {
 340:Generated_Source\PSoC6\pdl\drivers\peripheral\sar/cy_sar.c ****             Cy_SAR_StartConvert(base, CY_SAR_START_CONVERT_CONTINUOUS);
 341:Generated_Source\PSoC6\pdl\drivers\peripheral\sar/cy_sar.c ****         }
 342:Generated_Source\PSoC6\pdl\drivers\peripheral\sar/cy_sar.c ****     }
 343:Generated_Source\PSoC6\pdl\drivers\peripheral\sar/cy_sar.c **** }
 344:Generated_Source\PSoC6\pdl\drivers\peripheral\sar/cy_sar.c **** 
 345:Generated_Source\PSoC6\pdl\drivers\peripheral\sar/cy_sar.c **** 
 346:Generated_Source\PSoC6\pdl\drivers\peripheral\sar/cy_sar.c **** /*******************************************************************************
 347:Generated_Source\PSoC6\pdl\drivers\peripheral\sar/cy_sar.c **** * Function Name: Cy_SAR_StartConvert
 348:Generated_Source\PSoC6\pdl\drivers\peripheral\sar/cy_sar.c **** ****************************************************************************//**
 349:Generated_Source\PSoC6\pdl\drivers\peripheral\sar/cy_sar.c **** *
 350:Generated_Source\PSoC6\pdl\drivers\peripheral\sar/cy_sar.c **** * Start a single scan (one shot) of all enabled channels or start scanning
 351:Generated_Source\PSoC6\pdl\drivers\peripheral\sar/cy_sar.c **** * continuously. When in continuous mode, all firmware and hardware triggers
 352:Generated_Source\PSoC6\pdl\drivers\peripheral\sar/cy_sar.c **** * are ignored. To stop continuous scanning, call \ref Cy_SAR_StopConvert.
ARM GAS  C:\Users\Rolf\AppData\Local\Temp\cc4tlliX.s 			page 18


 353:Generated_Source\PSoC6\pdl\drivers\peripheral\sar/cy_sar.c **** *
 354:Generated_Source\PSoC6\pdl\drivers\peripheral\sar/cy_sar.c **** * \param base
 355:Generated_Source\PSoC6\pdl\drivers\peripheral\sar/cy_sar.c **** * Pointer to structure describing registers
 356:Generated_Source\PSoC6\pdl\drivers\peripheral\sar/cy_sar.c **** *
 357:Generated_Source\PSoC6\pdl\drivers\peripheral\sar/cy_sar.c **** * \param startSelect
 358:Generated_Source\PSoC6\pdl\drivers\peripheral\sar/cy_sar.c **** * A value of the enum \ref cy_en_sar_start_convert_sel_t
 359:Generated_Source\PSoC6\pdl\drivers\peripheral\sar/cy_sar.c **** *
 360:Generated_Source\PSoC6\pdl\drivers\peripheral\sar/cy_sar.c **** * \return None
 361:Generated_Source\PSoC6\pdl\drivers\peripheral\sar/cy_sar.c **** *
 362:Generated_Source\PSoC6\pdl\drivers\peripheral\sar/cy_sar.c **** * \funcusage
 363:Generated_Source\PSoC6\pdl\drivers\peripheral\sar/cy_sar.c **** *
 364:Generated_Source\PSoC6\pdl\drivers\peripheral\sar/cy_sar.c **** * \snippet sar_sut_01.cydsn/main_cm0p.c SNIPPET_SAR_START_CONVERT
 365:Generated_Source\PSoC6\pdl\drivers\peripheral\sar/cy_sar.c **** *
 366:Generated_Source\PSoC6\pdl\drivers\peripheral\sar/cy_sar.c **** *******************************************************************************/
 367:Generated_Source\PSoC6\pdl\drivers\peripheral\sar/cy_sar.c **** void Cy_SAR_StartConvert(SAR_Type *base, cy_en_sar_start_convert_sel_t startSelect)
 368:Generated_Source\PSoC6\pdl\drivers\peripheral\sar/cy_sar.c **** {
 612              		.loc 1 368 0
 613              		.cfi_startproc
 614              		@ args = 0, pretend = 0, frame = 0
 615              		@ frame_needed = 0, uses_anonymous_args = 0
 616              	.LVL53:
 617 0000 70B5     		push	{r4, r5, r6, lr}
 618              		.cfi_def_cfa_offset 16
 619              		.cfi_offset 4, -16
 620              		.cfi_offset 5, -12
 621              		.cfi_offset 6, -8
 622              		.cfi_offset 14, -4
 623 0002 0500     		movs	r5, r0
 624 0004 0C00     		movs	r4, r1
 369:Generated_Source\PSoC6\pdl\drivers\peripheral\sar/cy_sar.c ****     CY_ASSERT_L3(CY_SAR_STARTCONVERT(startSelect));
 625              		.loc 1 369 0
 626 0006 0129     		cmp	r1, #1
 627 0008 04D9     		bls	.L41
 628              		.loc 1 369 0 is_stmt 0 discriminator 1
 629 000a 7221     		movs	r1, #114
 630              	.LVL54:
 631 000c FF31     		adds	r1, r1, #255
 632 000e 0748     		ldr	r0, .L46
 633              	.LVL55:
 634 0010 FFF7FEFF 		bl	Cy_SysLib_AssertFailed
 635              	.LVL56:
 636              	.L41:
 370:Generated_Source\PSoC6\pdl\drivers\peripheral\sar/cy_sar.c **** 
 371:Generated_Source\PSoC6\pdl\drivers\peripheral\sar/cy_sar.c ****     switch(startSelect)
 637              		.loc 1 371 0 is_stmt 1
 638 0014 012C     		cmp	r4, #1
 639 0016 05D1     		bne	.L45
 372:Generated_Source\PSoC6\pdl\drivers\peripheral\sar/cy_sar.c ****     {
 373:Generated_Source\PSoC6\pdl\drivers\peripheral\sar/cy_sar.c ****     case CY_SAR_START_CONVERT_CONTINUOUS:
 374:Generated_Source\PSoC6\pdl\drivers\peripheral\sar/cy_sar.c ****         SAR_SAMPLE_CTRL(base) |= SAR_SAMPLE_CTRL_CONTINUOUS_Msk;
 640              		.loc 1 374 0
 641 0018 6B68     		ldr	r3, [r5, #4]
 642 001a 8022     		movs	r2, #128
 643 001c 5202     		lsls	r2, r2, #9
 644 001e 1343     		orrs	r3, r2
 645 0020 6B60     		str	r3, [r5, #4]
 375:Generated_Source\PSoC6\pdl\drivers\peripheral\sar/cy_sar.c ****         break;
ARM GAS  C:\Users\Rolf\AppData\Local\Temp\cc4tlliX.s 			page 19


 646              		.loc 1 375 0
 647 0022 01E0     		b	.L40
 648              	.L45:
 376:Generated_Source\PSoC6\pdl\drivers\peripheral\sar/cy_sar.c ****     case CY_SAR_START_CONVERT_SINGLE_SHOT:
 377:Generated_Source\PSoC6\pdl\drivers\peripheral\sar/cy_sar.c ****     default:
 378:Generated_Source\PSoC6\pdl\drivers\peripheral\sar/cy_sar.c ****         SAR_START_CTRL(base) = SAR_START_CTRL_FW_TRIGGER_Msk;
 649              		.loc 1 378 0
 650 0024 0123     		movs	r3, #1
 651 0026 6B62     		str	r3, [r5, #36]
 652              	.L40:
 379:Generated_Source\PSoC6\pdl\drivers\peripheral\sar/cy_sar.c ****         break;
 380:Generated_Source\PSoC6\pdl\drivers\peripheral\sar/cy_sar.c ****     }
 381:Generated_Source\PSoC6\pdl\drivers\peripheral\sar/cy_sar.c **** }
 653              		.loc 1 381 0
 654              		@ sp needed
 655              	.LVL57:
 656 0028 70BD     		pop	{r4, r5, r6, pc}
 657              	.L47:
 658 002a C046     		.align	2
 659              	.L46:
 660 002c 00000000 		.word	.LC0
 661              		.cfi_endproc
 662              	.LFE110:
 663              		.size	Cy_SAR_StartConvert, .-Cy_SAR_StartConvert
 664              		.section	.text.Cy_SAR_Wakeup,"ax",%progbits
 665              		.align	2
 666              		.global	Cy_SAR_Wakeup
 667              		.code	16
 668              		.thumb_func
 669              		.type	Cy_SAR_Wakeup, %function
 670              	Cy_SAR_Wakeup:
 671              	.LFB109:
 330:Generated_Source\PSoC6\pdl\drivers\peripheral\sar/cy_sar.c ****     /* Turn on the reference buffer */
 672              		.loc 1 330 0
 673              		.cfi_startproc
 674              		@ args = 0, pretend = 0, frame = 0
 675              		@ frame_needed = 0, uses_anonymous_args = 0
 676              	.LVL58:
 677 0000 10B5     		push	{r4, lr}
 678              		.cfi_def_cfa_offset 8
 679              		.cfi_offset 4, -8
 680              		.cfi_offset 14, -4
 681 0002 0400     		movs	r4, r0
 332:Generated_Source\PSoC6\pdl\drivers\peripheral\sar/cy_sar.c **** 
 682              		.loc 1 332 0
 683 0004 0368     		ldr	r3, [r0]
 684 0006 8022     		movs	r2, #128
 685 0008 9203     		lsls	r2, r2, #14
 686 000a 1343     		orrs	r3, r2
 687 000c 0360     		str	r3, [r0]
 334:Generated_Source\PSoC6\pdl\drivers\peripheral\sar/cy_sar.c ****     {
 688              		.loc 1 334 0
 689 000e 094B     		ldr	r3, .L50
 690 0010 1A68     		ldr	r2, [r3]
 691 0012 8023     		movs	r3, #128
 692 0014 1B06     		lsls	r3, r3, #24
 693 0016 9A42     		cmp	r2, r3
ARM GAS  C:\Users\Rolf\AppData\Local\Temp\cc4tlliX.s 			page 20


 694 0018 0BD1     		bne	.L48
 336:Generated_Source\PSoC6\pdl\drivers\peripheral\sar/cy_sar.c **** 
 695              		.loc 1 336 0
 696 001a FFF7FEFF 		bl	Cy_SAR_Enable
 697              	.LVL59:
 338:Generated_Source\PSoC6\pdl\drivers\peripheral\sar/cy_sar.c ****         {
 698              		.loc 1 338 0
 699 001e 054B     		ldr	r3, .L50
 700 0020 5A68     		ldr	r2, [r3, #4]
 701 0022 8023     		movs	r3, #128
 702 0024 5B02     		lsls	r3, r3, #9
 703 0026 9A42     		cmp	r2, r3
 704 0028 03D1     		bne	.L48
 340:Generated_Source\PSoC6\pdl\drivers\peripheral\sar/cy_sar.c ****         }
 705              		.loc 1 340 0
 706 002a 0121     		movs	r1, #1
 707 002c 2000     		movs	r0, r4
 708 002e FFF7FEFF 		bl	Cy_SAR_StartConvert
 709              	.LVL60:
 710              	.L48:
 343:Generated_Source\PSoC6\pdl\drivers\peripheral\sar/cy_sar.c **** 
 711              		.loc 1 343 0
 712              		@ sp needed
 713              	.LVL61:
 714 0032 10BD     		pop	{r4, pc}
 715              	.L51:
 716              		.align	2
 717              	.L50:
 718 0034 00000000 		.word	.LANCHOR0
 719              		.cfi_endproc
 720              	.LFE109:
 721              		.size	Cy_SAR_Wakeup, .-Cy_SAR_Wakeup
 722              		.section	.text.Cy_SAR_StopConvert,"ax",%progbits
 723              		.align	2
 724              		.global	Cy_SAR_StopConvert
 725              		.code	16
 726              		.thumb_func
 727              		.type	Cy_SAR_StopConvert, %function
 728              	Cy_SAR_StopConvert:
 729              	.LFB111:
 382:Generated_Source\PSoC6\pdl\drivers\peripheral\sar/cy_sar.c **** 
 383:Generated_Source\PSoC6\pdl\drivers\peripheral\sar/cy_sar.c **** 
 384:Generated_Source\PSoC6\pdl\drivers\peripheral\sar/cy_sar.c **** /*******************************************************************************
 385:Generated_Source\PSoC6\pdl\drivers\peripheral\sar/cy_sar.c **** * Function Name: Cy_SAR_StopConvert
 386:Generated_Source\PSoC6\pdl\drivers\peripheral\sar/cy_sar.c **** ****************************************************************************//**
 387:Generated_Source\PSoC6\pdl\drivers\peripheral\sar/cy_sar.c **** *
 388:Generated_Source\PSoC6\pdl\drivers\peripheral\sar/cy_sar.c **** * Stop continuous scanning of enabled channels.
 389:Generated_Source\PSoC6\pdl\drivers\peripheral\sar/cy_sar.c **** * If a conversion is currently executing, that conversion will complete,
 390:Generated_Source\PSoC6\pdl\drivers\peripheral\sar/cy_sar.c **** * but no further conversions will occur until the next call to
 391:Generated_Source\PSoC6\pdl\drivers\peripheral\sar/cy_sar.c **** * \ref Cy_SAR_StartConvert or the next hardware trigger, if enabled.
 392:Generated_Source\PSoC6\pdl\drivers\peripheral\sar/cy_sar.c **** *
 393:Generated_Source\PSoC6\pdl\drivers\peripheral\sar/cy_sar.c **** * \param base
 394:Generated_Source\PSoC6\pdl\drivers\peripheral\sar/cy_sar.c **** * Pointer to structure describing registers
 395:Generated_Source\PSoC6\pdl\drivers\peripheral\sar/cy_sar.c **** *
 396:Generated_Source\PSoC6\pdl\drivers\peripheral\sar/cy_sar.c **** * \return None
 397:Generated_Source\PSoC6\pdl\drivers\peripheral\sar/cy_sar.c **** *
 398:Generated_Source\PSoC6\pdl\drivers\peripheral\sar/cy_sar.c **** * \funcusage
ARM GAS  C:\Users\Rolf\AppData\Local\Temp\cc4tlliX.s 			page 21


 399:Generated_Source\PSoC6\pdl\drivers\peripheral\sar/cy_sar.c **** *
 400:Generated_Source\PSoC6\pdl\drivers\peripheral\sar/cy_sar.c **** * \snippet sar_sut_01.cydsn/main_cm0p.c SNIPPET_SAR_STOP_CONVERT
 401:Generated_Source\PSoC6\pdl\drivers\peripheral\sar/cy_sar.c **** *
 402:Generated_Source\PSoC6\pdl\drivers\peripheral\sar/cy_sar.c **** *******************************************************************************/
 403:Generated_Source\PSoC6\pdl\drivers\peripheral\sar/cy_sar.c **** void Cy_SAR_StopConvert(SAR_Type *base)
 404:Generated_Source\PSoC6\pdl\drivers\peripheral\sar/cy_sar.c **** {
 730              		.loc 1 404 0
 731              		.cfi_startproc
 732              		@ args = 0, pretend = 0, frame = 0
 733              		@ frame_needed = 0, uses_anonymous_args = 0
 734              		@ link register save eliminated.
 735              	.LVL62:
 405:Generated_Source\PSoC6\pdl\drivers\peripheral\sar/cy_sar.c ****     if (SAR_SAMPLE_CTRL_CONTINUOUS_Msk == (SAR_SAMPLE_CTRL(base) & SAR_SAMPLE_CTRL_CONTINUOUS_Msk))
 736              		.loc 1 405 0
 737 0000 4368     		ldr	r3, [r0, #4]
 738 0002 DB03     		lsls	r3, r3, #15
 739 0004 03D5     		bpl	.L52
 406:Generated_Source\PSoC6\pdl\drivers\peripheral\sar/cy_sar.c ****     {
 407:Generated_Source\PSoC6\pdl\drivers\peripheral\sar/cy_sar.c ****         SAR_SAMPLE_CTRL(base) &= ~SAR_SAMPLE_CTRL_CONTINUOUS_Msk;
 740              		.loc 1 407 0
 741 0006 4268     		ldr	r2, [r0, #4]
 742 0008 014B     		ldr	r3, .L54
 743 000a 1340     		ands	r3, r2
 744 000c 4360     		str	r3, [r0, #4]
 745              	.L52:
 408:Generated_Source\PSoC6\pdl\drivers\peripheral\sar/cy_sar.c ****     }
 409:Generated_Source\PSoC6\pdl\drivers\peripheral\sar/cy_sar.c **** }
 746              		.loc 1 409 0
 747              		@ sp needed
 748 000e 7047     		bx	lr
 749              	.L55:
 750              		.align	2
 751              	.L54:
 752 0010 FFFFFEFF 		.word	-65537
 753              		.cfi_endproc
 754              	.LFE111:
 755              		.size	Cy_SAR_StopConvert, .-Cy_SAR_StopConvert
 756              		.section	.text.Cy_SAR_DeepSleep,"ax",%progbits
 757              		.align	2
 758              		.global	Cy_SAR_DeepSleep
 759              		.code	16
 760              		.thumb_func
 761              		.type	Cy_SAR_DeepSleep, %function
 762              	Cy_SAR_DeepSleep:
 763              	.LFB108:
 272:Generated_Source\PSoC6\pdl\drivers\peripheral\sar/cy_sar.c ****     uint32_t ctrlReg = SAR_CTRL(base);
 764              		.loc 1 272 0
 765              		.cfi_startproc
 766              		@ args = 0, pretend = 0, frame = 0
 767              		@ frame_needed = 0, uses_anonymous_args = 0
 768              	.LVL63:
 769 0000 70B5     		push	{r4, r5, r6, lr}
 770              		.cfi_def_cfa_offset 16
 771              		.cfi_offset 4, -16
 772              		.cfi_offset 5, -12
 773              		.cfi_offset 6, -8
 774              		.cfi_offset 14, -4
ARM GAS  C:\Users\Rolf\AppData\Local\Temp\cc4tlliX.s 			page 22


 775 0002 0400     		movs	r4, r0
 273:Generated_Source\PSoC6\pdl\drivers\peripheral\sar/cy_sar.c **** 
 776              		.loc 1 273 0
 777 0004 0668     		ldr	r6, [r0]
 778              	.LVL64:
 275:Generated_Source\PSoC6\pdl\drivers\peripheral\sar/cy_sar.c **** 
 779              		.loc 1 275 0
 780 0006 F30F     		lsrs	r3, r6, #31
 781 0008 DB07     		lsls	r3, r3, #31
 782 000a 0D4A     		ldr	r2, .L59
 783 000c 1360     		str	r3, [r2]
 278:Generated_Source\PSoC6\pdl\drivers\peripheral\sar/cy_sar.c **** 
 784              		.loc 1 278 0
 785 000e 0D4D     		ldr	r5, .L59+4
 786 0010 3540     		ands	r5, r6
 787              	.LVL65:
 280:Generated_Source\PSoC6\pdl\drivers\peripheral\sar/cy_sar.c ****     {
 788              		.loc 1 280 0
 789 0012 002B     		cmp	r3, #0
 790 0014 12D0     		beq	.L57
 284:Generated_Source\PSoC6\pdl\drivers\peripheral\sar/cy_sar.c **** 
 791              		.loc 1 284 0
 792 0016 4268     		ldr	r2, [r0, #4]
 793 0018 8023     		movs	r3, #128
 794 001a 5B02     		lsls	r3, r3, #9
 795 001c 1340     		ands	r3, r2
 796 001e 084A     		ldr	r2, .L59
 797 0020 5360     		str	r3, [r2, #4]
 286:Generated_Source\PSoC6\pdl\drivers\peripheral\sar/cy_sar.c **** 
 798              		.loc 1 286 0
 799 0022 FFF7FEFF 		bl	Cy_SAR_StopConvert
 800              	.LVL66:
 801              	.L58:
 288:Generated_Source\PSoC6\pdl\drivers\peripheral\sar/cy_sar.c ****         {
 802              		.loc 1 288 0 discriminator 1
 803 0026 A823     		movs	r3, #168
 804 0028 9B00     		lsls	r3, r3, #2
 805 002a E358     		ldr	r3, [r4, r3]
 806 002c 002B     		cmp	r3, #0
 807 002e FADB     		blt	.L58
 295:Generated_Source\PSoC6\pdl\drivers\peripheral\sar/cy_sar.c ****         {
 808              		.loc 1 295 0
 809 0030 3301     		lsls	r3, r6, #4
 810 0032 03D4     		bmi	.L57
 297:Generated_Source\PSoC6\pdl\drivers\peripheral\sar/cy_sar.c ****         }
 811              		.loc 1 297 0
 812 0034 2368     		ldr	r3, [r4]
 813 0036 5B00     		lsls	r3, r3, #1
 814 0038 5B08     		lsrs	r3, r3, #1
 815 003a 2360     		str	r3, [r4]
 816              	.L57:
 301:Generated_Source\PSoC6\pdl\drivers\peripheral\sar/cy_sar.c **** }
 817              		.loc 1 301 0
 818 003c 2560     		str	r5, [r4]
 302:Generated_Source\PSoC6\pdl\drivers\peripheral\sar/cy_sar.c **** 
 819              		.loc 1 302 0
 820              		@ sp needed
ARM GAS  C:\Users\Rolf\AppData\Local\Temp\cc4tlliX.s 			page 23


 821              	.LVL67:
 822              	.LVL68:
 823              	.LVL69:
 824 003e 70BD     		pop	{r4, r5, r6, pc}
 825              	.L60:
 826              		.align	2
 827              	.L59:
 828 0040 00000000 		.word	.LANCHOR0
 829 0044 FFFFDFFF 		.word	-2097153
 830              		.cfi_endproc
 831              	.LFE108:
 832              		.size	Cy_SAR_DeepSleep, .-Cy_SAR_DeepSleep
 833              		.section	.text.Cy_SAR_SetConvertMode,"ax",%progbits
 834              		.align	2
 835              		.global	Cy_SAR_SetConvertMode
 836              		.code	16
 837              		.thumb_func
 838              		.type	Cy_SAR_SetConvertMode, %function
 839              	Cy_SAR_SetConvertMode:
 840              	.LFB112:
 410:Generated_Source\PSoC6\pdl\drivers\peripheral\sar/cy_sar.c **** 
 411:Generated_Source\PSoC6\pdl\drivers\peripheral\sar/cy_sar.c **** 
 412:Generated_Source\PSoC6\pdl\drivers\peripheral\sar/cy_sar.c **** /*******************************************************************************
 413:Generated_Source\PSoC6\pdl\drivers\peripheral\sar/cy_sar.c **** * Function Name: Cy_SAR_SetConvertMode
 414:Generated_Source\PSoC6\pdl\drivers\peripheral\sar/cy_sar.c **** ****************************************************************************//**
 415:Generated_Source\PSoC6\pdl\drivers\peripheral\sar/cy_sar.c **** *
 416:Generated_Source\PSoC6\pdl\drivers\peripheral\sar/cy_sar.c **** * Set the mode in which conversions are triggered. This function does
 417:Generated_Source\PSoC6\pdl\drivers\peripheral\sar/cy_sar.c **** * not start any conversions; it only configures the mode for subsequent conversions.
 418:Generated_Source\PSoC6\pdl\drivers\peripheral\sar/cy_sar.c **** *
 419:Generated_Source\PSoC6\pdl\drivers\peripheral\sar/cy_sar.c **** * There are three modes:
 420:Generated_Source\PSoC6\pdl\drivers\peripheral\sar/cy_sar.c **** *   - firmware only; hardware triggering is disabled
 421:Generated_Source\PSoC6\pdl\drivers\peripheral\sar/cy_sar.c **** *   - firmware and edge sensitive hardware triggering
 422:Generated_Source\PSoC6\pdl\drivers\peripheral\sar/cy_sar.c **** *   - firmware and level sensitive hardware triggering
 423:Generated_Source\PSoC6\pdl\drivers\peripheral\sar/cy_sar.c **** *
 424:Generated_Source\PSoC6\pdl\drivers\peripheral\sar/cy_sar.c **** * Note that firmware triggering is always enabled.
 425:Generated_Source\PSoC6\pdl\drivers\peripheral\sar/cy_sar.c **** *
 426:Generated_Source\PSoC6\pdl\drivers\peripheral\sar/cy_sar.c **** * \param base
 427:Generated_Source\PSoC6\pdl\drivers\peripheral\sar/cy_sar.c **** * Pointer to structure describing registers
 428:Generated_Source\PSoC6\pdl\drivers\peripheral\sar/cy_sar.c **** *
 429:Generated_Source\PSoC6\pdl\drivers\peripheral\sar/cy_sar.c **** * \param mode
 430:Generated_Source\PSoC6\pdl\drivers\peripheral\sar/cy_sar.c **** * A value of the enum \ref cy_en_sar_sample_ctrl_trigger_mode_t
 431:Generated_Source\PSoC6\pdl\drivers\peripheral\sar/cy_sar.c **** *
 432:Generated_Source\PSoC6\pdl\drivers\peripheral\sar/cy_sar.c **** * \return None
 433:Generated_Source\PSoC6\pdl\drivers\peripheral\sar/cy_sar.c **** *
 434:Generated_Source\PSoC6\pdl\drivers\peripheral\sar/cy_sar.c **** * \funcusage
 435:Generated_Source\PSoC6\pdl\drivers\peripheral\sar/cy_sar.c **** *
 436:Generated_Source\PSoC6\pdl\drivers\peripheral\sar/cy_sar.c **** * \snippet sar_sut_01.cydsn/main_cm4.c SAR_SNIPPET_SET_CONVERT_MODE
 437:Generated_Source\PSoC6\pdl\drivers\peripheral\sar/cy_sar.c **** *
 438:Generated_Source\PSoC6\pdl\drivers\peripheral\sar/cy_sar.c **** *******************************************************************************/
 439:Generated_Source\PSoC6\pdl\drivers\peripheral\sar/cy_sar.c **** void Cy_SAR_SetConvertMode(SAR_Type *base, cy_en_sar_sample_ctrl_trigger_mode_t mode)
 440:Generated_Source\PSoC6\pdl\drivers\peripheral\sar/cy_sar.c **** {
 841              		.loc 1 440 0
 842              		.cfi_startproc
 843              		@ args = 0, pretend = 0, frame = 0
 844              		@ frame_needed = 0, uses_anonymous_args = 0
 845              	.LVL70:
 846 0000 70B5     		push	{r4, r5, r6, lr}
ARM GAS  C:\Users\Rolf\AppData\Local\Temp\cc4tlliX.s 			page 24


 847              		.cfi_def_cfa_offset 16
 848              		.cfi_offset 4, -16
 849              		.cfi_offset 5, -12
 850              		.cfi_offset 6, -8
 851              		.cfi_offset 14, -4
 852 0002 0500     		movs	r5, r0
 853 0004 0C1E     		subs	r4, r1, #0
 441:Generated_Source\PSoC6\pdl\drivers\peripheral\sar/cy_sar.c ****     CY_ASSERT_L3(CY_SAR_TRIGGER(mode));
 854              		.loc 1 441 0
 855 0006 0CD0     		beq	.L62
 856              		.loc 1 441 0 is_stmt 0 discriminator 1
 857 0008 8023     		movs	r3, #128
 858 000a 9B02     		lsls	r3, r3, #10
 859 000c 9942     		cmp	r1, r3
 860 000e 08D0     		beq	.L62
 861              		.loc 1 441 0 discriminator 2
 862 0010 C023     		movs	r3, #192
 863 0012 DB02     		lsls	r3, r3, #11
 864 0014 9942     		cmp	r1, r3
 865 0016 04D0     		beq	.L62
 866              		.loc 1 441 0 discriminator 3
 867 0018 BA21     		movs	r1, #186
 868              	.LVL71:
 869 001a FF31     		adds	r1, r1, #255
 870 001c 0448     		ldr	r0, .L63
 871              	.LVL72:
 872 001e FFF7FEFF 		bl	Cy_SysLib_AssertFailed
 873              	.LVL73:
 874              	.L62:
 442:Generated_Source\PSoC6\pdl\drivers\peripheral\sar/cy_sar.c **** 
 443:Generated_Source\PSoC6\pdl\drivers\peripheral\sar/cy_sar.c ****     /* Clear the TRIGGER_EN and TRIGGER_LEVEL bits */
 444:Generated_Source\PSoC6\pdl\drivers\peripheral\sar/cy_sar.c ****     uint32_t sampleCtrlReg = SAR_SAMPLE_CTRL(base) & ~(SAR_SAMPLE_CTRL_DSI_TRIGGER_EN_Msk | SAR_SAM
 875              		.loc 1 444 0 is_stmt 1
 876 0022 6968     		ldr	r1, [r5, #4]
 877 0024 034B     		ldr	r3, .L63+4
 878 0026 1940     		ands	r1, r3
 879              	.LVL74:
 445:Generated_Source\PSoC6\pdl\drivers\peripheral\sar/cy_sar.c **** 
 446:Generated_Source\PSoC6\pdl\drivers\peripheral\sar/cy_sar.c ****     SAR_SAMPLE_CTRL(base) = sampleCtrlReg | mode;
 880              		.loc 1 446 0
 881 0028 2143     		orrs	r1, r4
 882              	.LVL75:
 883 002a 6960     		str	r1, [r5, #4]
 447:Generated_Source\PSoC6\pdl\drivers\peripheral\sar/cy_sar.c **** }
 884              		.loc 1 447 0
 885              		@ sp needed
 886              	.LVL76:
 887              	.LVL77:
 888 002c 70BD     		pop	{r4, r5, r6, pc}
 889              	.L64:
 890 002e C046     		.align	2
 891              	.L63:
 892 0030 00000000 		.word	.LC0
 893 0034 FFFFF9FF 		.word	-393217
 894              		.cfi_endproc
 895              	.LFE112:
 896              		.size	Cy_SAR_SetConvertMode, .-Cy_SAR_SetConvertMode
ARM GAS  C:\Users\Rolf\AppData\Local\Temp\cc4tlliX.s 			page 25


 897              		.section	.text.Cy_SAR_IsEndConversion,"ax",%progbits
 898              		.align	2
 899              		.global	Cy_SAR_IsEndConversion
 900              		.code	16
 901              		.thumb_func
 902              		.type	Cy_SAR_IsEndConversion, %function
 903              	Cy_SAR_IsEndConversion:
 904              	.LFB113:
 448:Generated_Source\PSoC6\pdl\drivers\peripheral\sar/cy_sar.c **** 
 449:Generated_Source\PSoC6\pdl\drivers\peripheral\sar/cy_sar.c **** 
 450:Generated_Source\PSoC6\pdl\drivers\peripheral\sar/cy_sar.c **** /*******************************************************************************
 451:Generated_Source\PSoC6\pdl\drivers\peripheral\sar/cy_sar.c **** * Function Name: Cy_SAR_IsEndConversion
 452:Generated_Source\PSoC6\pdl\drivers\peripheral\sar/cy_sar.c **** ****************************************************************************//**
 453:Generated_Source\PSoC6\pdl\drivers\peripheral\sar/cy_sar.c **** *
 454:Generated_Source\PSoC6\pdl\drivers\peripheral\sar/cy_sar.c **** * Immediately return the status of the conversion or does not return (blocking)
 455:Generated_Source\PSoC6\pdl\drivers\peripheral\sar/cy_sar.c **** * until the conversion completes, depending on the retMode parameter.
 456:Generated_Source\PSoC6\pdl\drivers\peripheral\sar/cy_sar.c **** * In blocking mode, there is a time out of about 10 seconds for a CPU speed of
 457:Generated_Source\PSoC6\pdl\drivers\peripheral\sar/cy_sar.c **** * 100 MHz.
 458:Generated_Source\PSoC6\pdl\drivers\peripheral\sar/cy_sar.c **** *
 459:Generated_Source\PSoC6\pdl\drivers\peripheral\sar/cy_sar.c **** * \param base
 460:Generated_Source\PSoC6\pdl\drivers\peripheral\sar/cy_sar.c **** * Pointer to structure describing registers
 461:Generated_Source\PSoC6\pdl\drivers\peripheral\sar/cy_sar.c **** *
 462:Generated_Source\PSoC6\pdl\drivers\peripheral\sar/cy_sar.c **** * \param retMode
 463:Generated_Source\PSoC6\pdl\drivers\peripheral\sar/cy_sar.c **** * A value of the enum \ref cy_en_sar_return_mode_t
 464:Generated_Source\PSoC6\pdl\drivers\peripheral\sar/cy_sar.c **** *
 465:Generated_Source\PSoC6\pdl\drivers\peripheral\sar/cy_sar.c **** * \return
 466:Generated_Source\PSoC6\pdl\drivers\peripheral\sar/cy_sar.c **** * - \ref CY_SAR_SUCCESS : the last conversion is complete
 467:Generated_Source\PSoC6\pdl\drivers\peripheral\sar/cy_sar.c **** * - \ref CY_SAR_CONVERSION_NOT_COMPLETE : the conversion has not completed
 468:Generated_Source\PSoC6\pdl\drivers\peripheral\sar/cy_sar.c **** * - \ref CY_SAR_TIMEOUT : the watchdog timer has expired in blocking mode
 469:Generated_Source\PSoC6\pdl\drivers\peripheral\sar/cy_sar.c **** *
 470:Generated_Source\PSoC6\pdl\drivers\peripheral\sar/cy_sar.c **** * \sideeffect
 471:Generated_Source\PSoC6\pdl\drivers\peripheral\sar/cy_sar.c **** * This function reads the end of conversion status and clears it after.
 472:Generated_Source\PSoC6\pdl\drivers\peripheral\sar/cy_sar.c **** *
 473:Generated_Source\PSoC6\pdl\drivers\peripheral\sar/cy_sar.c **** * \funcusage
 474:Generated_Source\PSoC6\pdl\drivers\peripheral\sar/cy_sar.c **** *
 475:Generated_Source\PSoC6\pdl\drivers\peripheral\sar/cy_sar.c **** * \snippet sar_sut_01.cydsn/main_cm0p.c SNIPPET_SAR_IS_END_CONVERSION
 476:Generated_Source\PSoC6\pdl\drivers\peripheral\sar/cy_sar.c **** *
 477:Generated_Source\PSoC6\pdl\drivers\peripheral\sar/cy_sar.c **** *******************************************************************************/
 478:Generated_Source\PSoC6\pdl\drivers\peripheral\sar/cy_sar.c **** cy_en_sar_status_t Cy_SAR_IsEndConversion(SAR_Type *base, cy_en_sar_return_mode_t retMode)
 479:Generated_Source\PSoC6\pdl\drivers\peripheral\sar/cy_sar.c **** {
 905              		.loc 1 479 0
 906              		.cfi_startproc
 907              		@ args = 0, pretend = 0, frame = 0
 908              		@ frame_needed = 0, uses_anonymous_args = 0
 909              	.LVL78:
 910 0000 70B5     		push	{r4, r5, r6, lr}
 911              		.cfi_def_cfa_offset 16
 912              		.cfi_offset 4, -16
 913              		.cfi_offset 5, -12
 914              		.cfi_offset 6, -8
 915              		.cfi_offset 14, -4
 916 0002 0400     		movs	r4, r0
 917 0004 0D00     		movs	r5, r1
 480:Generated_Source\PSoC6\pdl\drivers\peripheral\sar/cy_sar.c ****     CY_ASSERT_L3(CY_SAR_RETURN(retMode));
 918              		.loc 1 480 0
 919 0006 0129     		cmp	r1, #1
 920 0008 04D9     		bls	.L66
ARM GAS  C:\Users\Rolf\AppData\Local\Temp\cc4tlliX.s 			page 26


 921              		.loc 1 480 0 is_stmt 0 discriminator 1
 922 000a F021     		movs	r1, #240
 923              	.LVL79:
 924 000c 4900     		lsls	r1, r1, #1
 925 000e 1448     		ldr	r0, .L76
 926              	.LVL80:
 927 0010 FFF7FEFF 		bl	Cy_SysLib_AssertFailed
 928              	.LVL81:
 929              	.L66:
 481:Generated_Source\PSoC6\pdl\drivers\peripheral\sar/cy_sar.c **** 
 482:Generated_Source\PSoC6\pdl\drivers\peripheral\sar/cy_sar.c ****     cy_en_sar_status_t result;
 483:Generated_Source\PSoC6\pdl\drivers\peripheral\sar/cy_sar.c **** 
 484:Generated_Source\PSoC6\pdl\drivers\peripheral\sar/cy_sar.c ****     uint32_t endOfConversion = SAR_INTR(base) & SAR_INTR_EOS_INTR_Msk;
 930              		.loc 1 484 0 is_stmt 1
 931 0014 8423     		movs	r3, #132
 932 0016 9B00     		lsls	r3, r3, #2
 933 0018 E358     		ldr	r3, [r4, r3]
 934 001a 0122     		movs	r2, #1
 935 001c 1340     		ands	r3, r2
 936              	.LVL82:
 485:Generated_Source\PSoC6\pdl\drivers\peripheral\sar/cy_sar.c ****     uint32_t wdt = 0x1555555uL; /* Watchdog timer for blocking while loop */
 486:Generated_Source\PSoC6\pdl\drivers\peripheral\sar/cy_sar.c **** 
 487:Generated_Source\PSoC6\pdl\drivers\peripheral\sar/cy_sar.c ****     switch(retMode)
 937              		.loc 1 487 0
 938 001e 012D     		cmp	r5, #1
 939 0020 07D0     		beq	.L73
 940 0022 0CE0     		b	.L75
 941              	.LVL83:
 942              	.L69:
 488:Generated_Source\PSoC6\pdl\drivers\peripheral\sar/cy_sar.c ****     {
 489:Generated_Source\PSoC6\pdl\drivers\peripheral\sar/cy_sar.c ****     case CY_SAR_WAIT_FOR_RESULT:
 490:Generated_Source\PSoC6\pdl\drivers\peripheral\sar/cy_sar.c ****         while((0uL == endOfConversion) && (0uL != wdt))
 491:Generated_Source\PSoC6\pdl\drivers\peripheral\sar/cy_sar.c ****         {
 492:Generated_Source\PSoC6\pdl\drivers\peripheral\sar/cy_sar.c ****             endOfConversion = SAR_INTR(base) & SAR_INTR_EOS_INTR_Msk;
 943              		.loc 1 492 0
 944 0024 8423     		movs	r3, #132
 945              	.LVL84:
 946 0026 9B00     		lsls	r3, r3, #2
 947 0028 E358     		ldr	r3, [r4, r3]
 948 002a 0121     		movs	r1, #1
 949 002c 0B40     		ands	r3, r1
 950              	.LVL85:
 493:Generated_Source\PSoC6\pdl\drivers\peripheral\sar/cy_sar.c ****             wdt--;
 951              		.loc 1 493 0
 952 002e 013A     		subs	r2, r2, #1
 953              	.LVL86:
 954 0030 00E0     		b	.L68
 955              	.LVL87:
 956              	.L73:
 487:Generated_Source\PSoC6\pdl\drivers\peripheral\sar/cy_sar.c ****     {
 957              		.loc 1 487 0
 958 0032 0C4A     		ldr	r2, .L76+4
 959              	.LVL88:
 960              	.L68:
 490:Generated_Source\PSoC6\pdl\drivers\peripheral\sar/cy_sar.c ****         {
 961              		.loc 1 490 0
 962 0034 002B     		cmp	r3, #0
ARM GAS  C:\Users\Rolf\AppData\Local\Temp\cc4tlliX.s 			page 27


 963 0036 03D1     		bne	.L67
 490:Generated_Source\PSoC6\pdl\drivers\peripheral\sar/cy_sar.c ****         {
 964              		.loc 1 490 0 is_stmt 0 discriminator 1
 965 0038 002A     		cmp	r2, #0
 966 003a F3D1     		bne	.L69
 967 003c 00E0     		b	.L67
 968              	.LVL89:
 969              	.L75:
 485:Generated_Source\PSoC6\pdl\drivers\peripheral\sar/cy_sar.c **** 
 970              		.loc 1 485 0 is_stmt 1
 971 003e 094A     		ldr	r2, .L76+4
 972              	.LVL90:
 973              	.L67:
 494:Generated_Source\PSoC6\pdl\drivers\peripheral\sar/cy_sar.c ****         }
 495:Generated_Source\PSoC6\pdl\drivers\peripheral\sar/cy_sar.c ****         break;
 496:Generated_Source\PSoC6\pdl\drivers\peripheral\sar/cy_sar.c ****     case CY_SAR_RETURN_STATUS:
 497:Generated_Source\PSoC6\pdl\drivers\peripheral\sar/cy_sar.c ****     default:
 498:Generated_Source\PSoC6\pdl\drivers\peripheral\sar/cy_sar.c ****         break;
 499:Generated_Source\PSoC6\pdl\drivers\peripheral\sar/cy_sar.c ****     }
 500:Generated_Source\PSoC6\pdl\drivers\peripheral\sar/cy_sar.c **** 
 501:Generated_Source\PSoC6\pdl\drivers\peripheral\sar/cy_sar.c ****     /* Clear the EOS bit */
 502:Generated_Source\PSoC6\pdl\drivers\peripheral\sar/cy_sar.c ****     if (SAR_INTR_EOS_INTR_Msk == endOfConversion)
 974              		.loc 1 502 0
 975 0040 012B     		cmp	r3, #1
 976 0042 06D1     		bne	.L70
 977              	.LVL91:
 503:Generated_Source\PSoC6\pdl\drivers\peripheral\sar/cy_sar.c ****     {
 504:Generated_Source\PSoC6\pdl\drivers\peripheral\sar/cy_sar.c ****         result = CY_SAR_SUCCESS;
 505:Generated_Source\PSoC6\pdl\drivers\peripheral\sar/cy_sar.c ****         SAR_INTR(base) = SAR_INTR_EOS_INTR_Msk;
 978              		.loc 1 505 0
 979 0044 8423     		movs	r3, #132
 980              	.LVL92:
 981 0046 9B00     		lsls	r3, r3, #2
 982 0048 0122     		movs	r2, #1
 983              	.LVL93:
 984 004a E250     		str	r2, [r4, r3]
 506:Generated_Source\PSoC6\pdl\drivers\peripheral\sar/cy_sar.c ****         /* Do a dummy read after write for buffered write */
 507:Generated_Source\PSoC6\pdl\drivers\peripheral\sar/cy_sar.c ****         (void) SAR_INTR(base);
 985              		.loc 1 507 0
 986 004c E358     		ldr	r3, [r4, r3]
 504:Generated_Source\PSoC6\pdl\drivers\peripheral\sar/cy_sar.c ****         SAR_INTR(base) = SAR_INTR_EOS_INTR_Msk;
 987              		.loc 1 504 0
 988 004e 0020     		movs	r0, #0
 989 0050 04E0     		b	.L71
 990              	.LVL94:
 991              	.L70:
 508:Generated_Source\PSoC6\pdl\drivers\peripheral\sar/cy_sar.c ****     }
 509:Generated_Source\PSoC6\pdl\drivers\peripheral\sar/cy_sar.c ****     else if (0uL == wdt)
 992              		.loc 1 509 0
 993 0052 002A     		cmp	r2, #0
 994 0054 01D1     		bne	.L74
 510:Generated_Source\PSoC6\pdl\drivers\peripheral\sar/cy_sar.c ****     {
 511:Generated_Source\PSoC6\pdl\drivers\peripheral\sar/cy_sar.c ****         result = CY_SAR_TIMEOUT;
 995              		.loc 1 511 0
 996 0056 0448     		ldr	r0, .L76+8
 997 0058 00E0     		b	.L71
 998              	.L74:
ARM GAS  C:\Users\Rolf\AppData\Local\Temp\cc4tlliX.s 			page 28


 512:Generated_Source\PSoC6\pdl\drivers\peripheral\sar/cy_sar.c ****     }
 513:Generated_Source\PSoC6\pdl\drivers\peripheral\sar/cy_sar.c ****     else
 514:Generated_Source\PSoC6\pdl\drivers\peripheral\sar/cy_sar.c ****     {
 515:Generated_Source\PSoC6\pdl\drivers\peripheral\sar/cy_sar.c ****         result = CY_SAR_CONVERSION_NOT_COMPLETE;
 999              		.loc 1 515 0
 1000 005a 0448     		ldr	r0, .L76+12
 1001              	.LVL95:
 1002              	.L71:
 516:Generated_Source\PSoC6\pdl\drivers\peripheral\sar/cy_sar.c ****     }
 517:Generated_Source\PSoC6\pdl\drivers\peripheral\sar/cy_sar.c **** 
 518:Generated_Source\PSoC6\pdl\drivers\peripheral\sar/cy_sar.c ****     return result;
 519:Generated_Source\PSoC6\pdl\drivers\peripheral\sar/cy_sar.c **** }
 1003              		.loc 1 519 0
 1004              		@ sp needed
 1005              	.LVL96:
 1006 005c 70BD     		pop	{r4, r5, r6, pc}
 1007              	.L77:
 1008 005e C046     		.align	2
 1009              	.L76:
 1010 0060 00000000 		.word	.LC0
 1011 0064 55555501 		.word	22369621
 1012 0068 02000600 		.word	393218
 1013 006c 03000600 		.word	393219
 1014              		.cfi_endproc
 1015              	.LFE113:
 1016              		.size	Cy_SAR_IsEndConversion, .-Cy_SAR_IsEndConversion
 1017              		.section	.text.Cy_SAR_IsChannelSingleEnded,"ax",%progbits
 1018              		.align	2
 1019              		.global	Cy_SAR_IsChannelSingleEnded
 1020              		.code	16
 1021              		.thumb_func
 1022              		.type	Cy_SAR_IsChannelSingleEnded, %function
 1023              	Cy_SAR_IsChannelSingleEnded:
 1024              	.LFB115:
 520:Generated_Source\PSoC6\pdl\drivers\peripheral\sar/cy_sar.c **** 
 521:Generated_Source\PSoC6\pdl\drivers\peripheral\sar/cy_sar.c **** 
 522:Generated_Source\PSoC6\pdl\drivers\peripheral\sar/cy_sar.c **** /*******************************************************************************
 523:Generated_Source\PSoC6\pdl\drivers\peripheral\sar/cy_sar.c **** * Function Name: Cy_SAR_IsChannelSigned
 524:Generated_Source\PSoC6\pdl\drivers\peripheral\sar/cy_sar.c **** ****************************************************************************//**
 525:Generated_Source\PSoC6\pdl\drivers\peripheral\sar/cy_sar.c **** *
 526:Generated_Source\PSoC6\pdl\drivers\peripheral\sar/cy_sar.c **** * Return true if channel result is configured for signed format, else false.
 527:Generated_Source\PSoC6\pdl\drivers\peripheral\sar/cy_sar.c **** * The formats for single-ended and differential channels are independent.
 528:Generated_Source\PSoC6\pdl\drivers\peripheral\sar/cy_sar.c **** * This function will first check whether the channel is single-ended or differential.
 529:Generated_Source\PSoC6\pdl\drivers\peripheral\sar/cy_sar.c **** *
 530:Generated_Source\PSoC6\pdl\drivers\peripheral\sar/cy_sar.c **** * \param base
 531:Generated_Source\PSoC6\pdl\drivers\peripheral\sar/cy_sar.c **** * Pointer to structure describing registers
 532:Generated_Source\PSoC6\pdl\drivers\peripheral\sar/cy_sar.c **** *
 533:Generated_Source\PSoC6\pdl\drivers\peripheral\sar/cy_sar.c **** * \param chan
 534:Generated_Source\PSoC6\pdl\drivers\peripheral\sar/cy_sar.c **** * The channel to check, between 0 and \ref CY_SAR_MAX_NUM_CHANNELS - 1
 535:Generated_Source\PSoC6\pdl\drivers\peripheral\sar/cy_sar.c **** *
 536:Generated_Source\PSoC6\pdl\drivers\peripheral\sar/cy_sar.c **** * \return
 537:Generated_Source\PSoC6\pdl\drivers\peripheral\sar/cy_sar.c **** * If channel number is invalid, false is returned
 538:Generated_Source\PSoC6\pdl\drivers\peripheral\sar/cy_sar.c **** *
 539:Generated_Source\PSoC6\pdl\drivers\peripheral\sar/cy_sar.c **** * \funcusage
 540:Generated_Source\PSoC6\pdl\drivers\peripheral\sar/cy_sar.c **** *
 541:Generated_Source\PSoC6\pdl\drivers\peripheral\sar/cy_sar.c **** * \snippet sar_sut_01.cydsn/main_cm0p.c SNIPPET_SAR_IS_CHANNEL_SIGNED
 542:Generated_Source\PSoC6\pdl\drivers\peripheral\sar/cy_sar.c **** *
ARM GAS  C:\Users\Rolf\AppData\Local\Temp\cc4tlliX.s 			page 29


 543:Generated_Source\PSoC6\pdl\drivers\peripheral\sar/cy_sar.c **** *******************************************************************************/
 544:Generated_Source\PSoC6\pdl\drivers\peripheral\sar/cy_sar.c **** bool Cy_SAR_IsChannelSigned(const SAR_Type *base, uint32_t chan)
 545:Generated_Source\PSoC6\pdl\drivers\peripheral\sar/cy_sar.c **** {
 546:Generated_Source\PSoC6\pdl\drivers\peripheral\sar/cy_sar.c ****     CY_ASSERT_L2(CY_SAR_CHANNUM(chan));
 547:Generated_Source\PSoC6\pdl\drivers\peripheral\sar/cy_sar.c **** 
 548:Generated_Source\PSoC6\pdl\drivers\peripheral\sar/cy_sar.c ****     bool isSigned = false;
 549:Generated_Source\PSoC6\pdl\drivers\peripheral\sar/cy_sar.c **** 
 550:Generated_Source\PSoC6\pdl\drivers\peripheral\sar/cy_sar.c ****     if (chan < CY_SAR_MAX_NUM_CHANNELS)
 551:Generated_Source\PSoC6\pdl\drivers\peripheral\sar/cy_sar.c ****     {
 552:Generated_Source\PSoC6\pdl\drivers\peripheral\sar/cy_sar.c **** 
 553:Generated_Source\PSoC6\pdl\drivers\peripheral\sar/cy_sar.c ****         /* Sign bits are stored separately for differential and single ended channels. */
 554:Generated_Source\PSoC6\pdl\drivers\peripheral\sar/cy_sar.c ****         if (true == Cy_SAR_IsChannelDifferential(base, chan))
 555:Generated_Source\PSoC6\pdl\drivers\peripheral\sar/cy_sar.c ****         { /* Differential channel */
 556:Generated_Source\PSoC6\pdl\drivers\peripheral\sar/cy_sar.c ****             if (SAR_SAMPLE_CTRL_DIFFERENTIAL_SIGNED_Msk == (SAR_SAMPLE_CTRL(base) & SAR_SAMPLE_CTRL
 557:Generated_Source\PSoC6\pdl\drivers\peripheral\sar/cy_sar.c ****             {
 558:Generated_Source\PSoC6\pdl\drivers\peripheral\sar/cy_sar.c ****                 isSigned = true;
 559:Generated_Source\PSoC6\pdl\drivers\peripheral\sar/cy_sar.c ****             }
 560:Generated_Source\PSoC6\pdl\drivers\peripheral\sar/cy_sar.c ****         }
 561:Generated_Source\PSoC6\pdl\drivers\peripheral\sar/cy_sar.c ****         else
 562:Generated_Source\PSoC6\pdl\drivers\peripheral\sar/cy_sar.c ****         { /* Single ended channel */
 563:Generated_Source\PSoC6\pdl\drivers\peripheral\sar/cy_sar.c ****             if (SAR_SAMPLE_CTRL_SINGLE_ENDED_SIGNED_Msk == (SAR_SAMPLE_CTRL(base) & SAR_SAMPLE_CTRL
 564:Generated_Source\PSoC6\pdl\drivers\peripheral\sar/cy_sar.c ****             {
 565:Generated_Source\PSoC6\pdl\drivers\peripheral\sar/cy_sar.c ****                 isSigned = true;
 566:Generated_Source\PSoC6\pdl\drivers\peripheral\sar/cy_sar.c ****             }
 567:Generated_Source\PSoC6\pdl\drivers\peripheral\sar/cy_sar.c ****         }
 568:Generated_Source\PSoC6\pdl\drivers\peripheral\sar/cy_sar.c ****     }
 569:Generated_Source\PSoC6\pdl\drivers\peripheral\sar/cy_sar.c **** 
 570:Generated_Source\PSoC6\pdl\drivers\peripheral\sar/cy_sar.c ****     return isSigned;
 571:Generated_Source\PSoC6\pdl\drivers\peripheral\sar/cy_sar.c **** }
 572:Generated_Source\PSoC6\pdl\drivers\peripheral\sar/cy_sar.c **** 
 573:Generated_Source\PSoC6\pdl\drivers\peripheral\sar/cy_sar.c **** 
 574:Generated_Source\PSoC6\pdl\drivers\peripheral\sar/cy_sar.c **** /*******************************************************************************
 575:Generated_Source\PSoC6\pdl\drivers\peripheral\sar/cy_sar.c **** * Function Name: Cy_SAR_IsChannelSingleEnded
 576:Generated_Source\PSoC6\pdl\drivers\peripheral\sar/cy_sar.c **** ****************************************************************************//**
 577:Generated_Source\PSoC6\pdl\drivers\peripheral\sar/cy_sar.c **** *
 578:Generated_Source\PSoC6\pdl\drivers\peripheral\sar/cy_sar.c **** * Return true if channel is single ended, else false
 579:Generated_Source\PSoC6\pdl\drivers\peripheral\sar/cy_sar.c **** *
 580:Generated_Source\PSoC6\pdl\drivers\peripheral\sar/cy_sar.c **** * \param base
 581:Generated_Source\PSoC6\pdl\drivers\peripheral\sar/cy_sar.c **** * Pointer to structure describing registers
 582:Generated_Source\PSoC6\pdl\drivers\peripheral\sar/cy_sar.c **** *
 583:Generated_Source\PSoC6\pdl\drivers\peripheral\sar/cy_sar.c **** * \param chan
 584:Generated_Source\PSoC6\pdl\drivers\peripheral\sar/cy_sar.c **** * The channel to check, between 0 and \ref CY_SAR_MAX_NUM_CHANNELS - 1
 585:Generated_Source\PSoC6\pdl\drivers\peripheral\sar/cy_sar.c **** *
 586:Generated_Source\PSoC6\pdl\drivers\peripheral\sar/cy_sar.c **** * \return
 587:Generated_Source\PSoC6\pdl\drivers\peripheral\sar/cy_sar.c **** * If channel number is invalid, false is returned
 588:Generated_Source\PSoC6\pdl\drivers\peripheral\sar/cy_sar.c **** *
 589:Generated_Source\PSoC6\pdl\drivers\peripheral\sar/cy_sar.c **** * \funcusage
 590:Generated_Source\PSoC6\pdl\drivers\peripheral\sar/cy_sar.c **** *
 591:Generated_Source\PSoC6\pdl\drivers\peripheral\sar/cy_sar.c **** * \snippet sar_sut_01.cydsn/main_cm0p.c SNIPPET_SAR_IS_CHANNEL_SE
 592:Generated_Source\PSoC6\pdl\drivers\peripheral\sar/cy_sar.c **** *
 593:Generated_Source\PSoC6\pdl\drivers\peripheral\sar/cy_sar.c **** *******************************************************************************/
 594:Generated_Source\PSoC6\pdl\drivers\peripheral\sar/cy_sar.c **** bool Cy_SAR_IsChannelSingleEnded(const SAR_Type *base, uint32_t chan)
 595:Generated_Source\PSoC6\pdl\drivers\peripheral\sar/cy_sar.c **** {
 1025              		.loc 1 595 0
 1026              		.cfi_startproc
 1027              		@ args = 0, pretend = 0, frame = 0
 1028              		@ frame_needed = 0, uses_anonymous_args = 0
ARM GAS  C:\Users\Rolf\AppData\Local\Temp\cc4tlliX.s 			page 30


 1029              	.LVL97:
 1030 0000 70B5     		push	{r4, r5, r6, lr}
 1031              		.cfi_def_cfa_offset 16
 1032              		.cfi_offset 4, -16
 1033              		.cfi_offset 5, -12
 1034              		.cfi_offset 6, -8
 1035              		.cfi_offset 14, -4
 1036 0002 0500     		movs	r5, r0
 1037 0004 0C00     		movs	r4, r1
 596:Generated_Source\PSoC6\pdl\drivers\peripheral\sar/cy_sar.c ****     CY_ASSERT_L2(CY_SAR_CHANNUM(chan));
 1038              		.loc 1 596 0
 1039 0006 0F29     		cmp	r1, #15
 1040 0008 04D9     		bls	.L79
 1041              		.loc 1 596 0 is_stmt 0 discriminator 1
 1042 000a 9521     		movs	r1, #149
 1043              	.LVL98:
 1044 000c 8900     		lsls	r1, r1, #2
 1045 000e 0848     		ldr	r0, .L83
 1046              	.LVL99:
 1047 0010 FFF7FEFF 		bl	Cy_SysLib_AssertFailed
 1048              	.LVL100:
 1049              	.L79:
 597:Generated_Source\PSoC6\pdl\drivers\peripheral\sar/cy_sar.c **** 
 598:Generated_Source\PSoC6\pdl\drivers\peripheral\sar/cy_sar.c ****     bool isSingleEnded = false;
 599:Generated_Source\PSoC6\pdl\drivers\peripheral\sar/cy_sar.c **** 
 600:Generated_Source\PSoC6\pdl\drivers\peripheral\sar/cy_sar.c ****     if (chan < CY_SAR_MAX_NUM_CHANNELS)
 1050              		.loc 1 600 0 is_stmt 1
 1051 0014 0F2C     		cmp	r4, #15
 1052 0016 07D8     		bhi	.L81
 601:Generated_Source\PSoC6\pdl\drivers\peripheral\sar/cy_sar.c ****     {
 602:Generated_Source\PSoC6\pdl\drivers\peripheral\sar/cy_sar.c ****         if (0uL == (SAR_CHAN_CONFIG(base, chan) & (SAR_CHAN_CONFIG_DIFFERENTIAL_EN_Msk | SAR_CHAN_C
 1053              		.loc 1 602 0
 1054 0018 2034     		adds	r4, r4, #32
 1055              	.LVL101:
 1056 001a A400     		lsls	r4, r4, #2
 1057              	.LVL102:
 1058 001c 6259     		ldr	r2, [r4, r5]
 1059 001e 054B     		ldr	r3, .L83+4
 1060 0020 1A42     		tst	r2, r3
 1061 0022 03D0     		beq	.L82
 598:Generated_Source\PSoC6\pdl\drivers\peripheral\sar/cy_sar.c **** 
 1062              		.loc 1 598 0
 1063 0024 0020     		movs	r0, #0
 1064 0026 02E0     		b	.L80
 1065              	.LVL103:
 1066              	.L81:
 1067 0028 0020     		movs	r0, #0
 1068 002a 00E0     		b	.L80
 1069              	.LVL104:
 1070              	.L82:
 603:Generated_Source\PSoC6\pdl\drivers\peripheral\sar/cy_sar.c ****             isSingleEnded = true;
 1071              		.loc 1 603 0
 1072 002c 0120     		movs	r0, #1
 1073              	.L80:
 1074              	.LVL105:
 604:Generated_Source\PSoC6\pdl\drivers\peripheral\sar/cy_sar.c ****         }
 605:Generated_Source\PSoC6\pdl\drivers\peripheral\sar/cy_sar.c ****     }
ARM GAS  C:\Users\Rolf\AppData\Local\Temp\cc4tlliX.s 			page 31


 606:Generated_Source\PSoC6\pdl\drivers\peripheral\sar/cy_sar.c **** 
 607:Generated_Source\PSoC6\pdl\drivers\peripheral\sar/cy_sar.c ****     return isSingleEnded;
 608:Generated_Source\PSoC6\pdl\drivers\peripheral\sar/cy_sar.c **** }
 1075              		.loc 1 608 0
 1076              		@ sp needed
 1077              	.LVL106:
 1078 002e 70BD     		pop	{r4, r5, r6, pc}
 1079              	.L84:
 1080              		.align	2
 1081              	.L83:
 1082 0030 00000000 		.word	.LC0
 1083 0034 00010001 		.word	16777472
 1084              		.cfi_endproc
 1085              	.LFE115:
 1086              		.size	Cy_SAR_IsChannelSingleEnded, .-Cy_SAR_IsChannelSingleEnded
 1087              		.section	.text.Cy_SAR_IsChannelSigned,"ax",%progbits
 1088              		.align	2
 1089              		.global	Cy_SAR_IsChannelSigned
 1090              		.code	16
 1091              		.thumb_func
 1092              		.type	Cy_SAR_IsChannelSigned, %function
 1093              	Cy_SAR_IsChannelSigned:
 1094              	.LFB114:
 545:Generated_Source\PSoC6\pdl\drivers\peripheral\sar/cy_sar.c ****     CY_ASSERT_L2(CY_SAR_CHANNUM(chan));
 1095              		.loc 1 545 0
 1096              		.cfi_startproc
 1097              		@ args = 0, pretend = 0, frame = 0
 1098              		@ frame_needed = 0, uses_anonymous_args = 0
 1099              	.LVL107:
 1100 0000 70B5     		push	{r4, r5, r6, lr}
 1101              		.cfi_def_cfa_offset 16
 1102              		.cfi_offset 4, -16
 1103              		.cfi_offset 5, -12
 1104              		.cfi_offset 6, -8
 1105              		.cfi_offset 14, -4
 1106 0002 0500     		movs	r5, r0
 1107 0004 0C00     		movs	r4, r1
 546:Generated_Source\PSoC6\pdl\drivers\peripheral\sar/cy_sar.c **** 
 1108              		.loc 1 546 0
 1109 0006 0F29     		cmp	r1, #15
 1110 0008 03D9     		bls	.L86
 546:Generated_Source\PSoC6\pdl\drivers\peripheral\sar/cy_sar.c **** 
 1111              		.loc 1 546 0 is_stmt 0 discriminator 1
 1112 000a 0F49     		ldr	r1, .L92
 1113              	.LVL108:
 1114 000c 0F48     		ldr	r0, .L92+4
 1115              	.LVL109:
 1116 000e FFF7FEFF 		bl	Cy_SysLib_AssertFailed
 1117              	.LVL110:
 1118              	.L86:
 550:Generated_Source\PSoC6\pdl\drivers\peripheral\sar/cy_sar.c ****     {
 1119              		.loc 1 550 0 is_stmt 1
 1120 0012 0F2C     		cmp	r4, #15
 1121 0014 12D8     		bhi	.L89
 1122              	.LVL111:
 1123              	.LBB4:
 1124              	.LBB5:
ARM GAS  C:\Users\Rolf\AppData\Local\Temp\cc4tlliX.s 			page 32


 1125              		.file 2 "Generated_Source\\PSoC6\\pdl\\drivers\\peripheral\\sar\\cy_sar.h"
   1:Generated_Source\PSoC6\pdl\drivers\peripheral\sar/cy_sar.h **** /***************************************************************************//**
   2:Generated_Source\PSoC6\pdl\drivers\peripheral\sar/cy_sar.h **** * \file cy_sar.h
   3:Generated_Source\PSoC6\pdl\drivers\peripheral\sar/cy_sar.h **** * \version 1.20
   4:Generated_Source\PSoC6\pdl\drivers\peripheral\sar/cy_sar.h **** *
   5:Generated_Source\PSoC6\pdl\drivers\peripheral\sar/cy_sar.h **** * Header file for the SAR driver.
   6:Generated_Source\PSoC6\pdl\drivers\peripheral\sar/cy_sar.h **** *
   7:Generated_Source\PSoC6\pdl\drivers\peripheral\sar/cy_sar.h **** ********************************************************************************
   8:Generated_Source\PSoC6\pdl\drivers\peripheral\sar/cy_sar.h **** * \copyright
   9:Generated_Source\PSoC6\pdl\drivers\peripheral\sar/cy_sar.h **** * Copyright 2017-2018, Cypress Semiconductor Corporation. All rights reserved.
  10:Generated_Source\PSoC6\pdl\drivers\peripheral\sar/cy_sar.h **** * You may use this file only in accordance with the license, terms, conditions,
  11:Generated_Source\PSoC6\pdl\drivers\peripheral\sar/cy_sar.h **** * disclaimers, and limitations in the end user license agreement accompanying
  12:Generated_Source\PSoC6\pdl\drivers\peripheral\sar/cy_sar.h **** * the software package with which this file was provided.
  13:Generated_Source\PSoC6\pdl\drivers\peripheral\sar/cy_sar.h **** *******************************************************************************/
  14:Generated_Source\PSoC6\pdl\drivers\peripheral\sar/cy_sar.h **** 
  15:Generated_Source\PSoC6\pdl\drivers\peripheral\sar/cy_sar.h **** /**
  16:Generated_Source\PSoC6\pdl\drivers\peripheral\sar/cy_sar.h **** * \addtogroup group_sar
  17:Generated_Source\PSoC6\pdl\drivers\peripheral\sar/cy_sar.h **** * \{
  18:Generated_Source\PSoC6\pdl\drivers\peripheral\sar/cy_sar.h **** * This driver configures and controls the SAR ADC subsystem block.
  19:Generated_Source\PSoC6\pdl\drivers\peripheral\sar/cy_sar.h **** *
  20:Generated_Source\PSoC6\pdl\drivers\peripheral\sar/cy_sar.h **** * The functions and other declarations used in this driver are in cy_sar.h. 
  21:Generated_Source\PSoC6\pdl\drivers\peripheral\sar/cy_sar.h **** * You can include cy_pdl.h (ModusToolbox only) to get access to all functions 
  22:Generated_Source\PSoC6\pdl\drivers\peripheral\sar/cy_sar.h **** * and declarations in the PDL. 
  23:Generated_Source\PSoC6\pdl\drivers\peripheral\sar/cy_sar.h **** *
  24:Generated_Source\PSoC6\pdl\drivers\peripheral\sar/cy_sar.h **** * This SAR ADC subsystem is comprised of:
  25:Generated_Source\PSoC6\pdl\drivers\peripheral\sar/cy_sar.h **** *   - a 12-bit SAR converter (SARADC)
  26:Generated_Source\PSoC6\pdl\drivers\peripheral\sar/cy_sar.h **** *   - an embedded reference block (SARREF)
  27:Generated_Source\PSoC6\pdl\drivers\peripheral\sar/cy_sar.h **** *   - a mux (\ref group_sar_sarmux "SARMUX") at the inputs of the converter
  28:Generated_Source\PSoC6\pdl\drivers\peripheral\sar/cy_sar.h **** *   - a sequence controller (\ref group_sar_sarmux "SARSEQ") that enables multi-channel acquisition
  29:Generated_Source\PSoC6\pdl\drivers\peripheral\sar/cy_sar.h **** *       in a round robin fashion, without CPU intervention, to maximize scan rates.
  30:Generated_Source\PSoC6\pdl\drivers\peripheral\sar/cy_sar.h **** *
  31:Generated_Source\PSoC6\pdl\drivers\peripheral\sar/cy_sar.h **** * \image html sar_block_diagram.png
  32:Generated_Source\PSoC6\pdl\drivers\peripheral\sar/cy_sar.h **** *
  33:Generated_Source\PSoC6\pdl\drivers\peripheral\sar/cy_sar.h **** * The high level features of the subsystem are:
  34:Generated_Source\PSoC6\pdl\drivers\peripheral\sar/cy_sar.h **** *   - maximum sample rate of 1 Msps
  35:Generated_Source\PSoC6\pdl\drivers\peripheral\sar/cy_sar.h **** *   - Sixteen individually configurable channels (depends on device routing capabilities)
  36:Generated_Source\PSoC6\pdl\drivers\peripheral\sar/cy_sar.h **** *   - per channel selectable
  37:Generated_Source\PSoC6\pdl\drivers\peripheral\sar/cy_sar.h **** *       - single-ended or differential input mode
  38:Generated_Source\PSoC6\pdl\drivers\peripheral\sar/cy_sar.h **** *       - input from external pin (8 channels in single-ended mode or 4 channels in differential mo
  39:Generated_Source\PSoC6\pdl\drivers\peripheral\sar/cy_sar.h **** *         or from internal signals (AMUXBUS, CTB, Die Temperature Sensor)
  40:Generated_Source\PSoC6\pdl\drivers\peripheral\sar/cy_sar.h **** *       - choose one of four programmable acquisition times
  41:Generated_Source\PSoC6\pdl\drivers\peripheral\sar/cy_sar.h **** *       - averaging and accumulation
  42:Generated_Source\PSoC6\pdl\drivers\peripheral\sar/cy_sar.h **** *   - scan can be triggered by firmware or hardware in single shot or continuous mode
  43:Generated_Source\PSoC6\pdl\drivers\peripheral\sar/cy_sar.h **** *   - hardware averaging from 2 to 256 samples
  44:Generated_Source\PSoC6\pdl\drivers\peripheral\sar/cy_sar.h **** *   - selectable voltage references
  45:Generated_Source\PSoC6\pdl\drivers\peripheral\sar/cy_sar.h **** *       - internal VDDA and VDDA/2 references
  46:Generated_Source\PSoC6\pdl\drivers\peripheral\sar/cy_sar.h **** *       - buffered 1.2 V bandgap reference from \ref group_sysanalog "AREF"
  47:Generated_Source\PSoC6\pdl\drivers\peripheral\sar/cy_sar.h **** *       - external reference from dedicated pin
  48:Generated_Source\PSoC6\pdl\drivers\peripheral\sar/cy_sar.h **** *   - Interrupt generation
  49:Generated_Source\PSoC6\pdl\drivers\peripheral\sar/cy_sar.h **** *
  50:Generated_Source\PSoC6\pdl\drivers\peripheral\sar/cy_sar.h **** * \section group_sar_usage Usage
  51:Generated_Source\PSoC6\pdl\drivers\peripheral\sar/cy_sar.h **** *
  52:Generated_Source\PSoC6\pdl\drivers\peripheral\sar/cy_sar.h **** * The high level steps to use this driver are:
  53:Generated_Source\PSoC6\pdl\drivers\peripheral\sar/cy_sar.h **** *
  54:Generated_Source\PSoC6\pdl\drivers\peripheral\sar/cy_sar.h **** *   -# \ref group_sar_initialization
  55:Generated_Source\PSoC6\pdl\drivers\peripheral\sar/cy_sar.h **** *   -# \ref group_sar_trigger_conversions
  56:Generated_Source\PSoC6\pdl\drivers\peripheral\sar/cy_sar.h **** *   -# \ref group_sar_handle_interrupts
ARM GAS  C:\Users\Rolf\AppData\Local\Temp\cc4tlliX.s 			page 33


  57:Generated_Source\PSoC6\pdl\drivers\peripheral\sar/cy_sar.h **** *   -# \ref group_sar_retrieve_result
  58:Generated_Source\PSoC6\pdl\drivers\peripheral\sar/cy_sar.h **** *
  59:Generated_Source\PSoC6\pdl\drivers\peripheral\sar/cy_sar.h **** * \section group_sar_initialization Initialization and Enable
  60:Generated_Source\PSoC6\pdl\drivers\peripheral\sar/cy_sar.h **** *
  61:Generated_Source\PSoC6\pdl\drivers\peripheral\sar/cy_sar.h **** * To configure the SAR subsystem, call \ref Cy_SAR_Init. Pass in a pointer to the \ref SAR_Type
  62:Generated_Source\PSoC6\pdl\drivers\peripheral\sar/cy_sar.h **** * structure for the base hardware register address and pass in the configuration structure,
  63:Generated_Source\PSoC6\pdl\drivers\peripheral\sar/cy_sar.h **** * \ref cy_stc_sar_config_t.
  64:Generated_Source\PSoC6\pdl\drivers\peripheral\sar/cy_sar.h **** *
  65:Generated_Source\PSoC6\pdl\drivers\peripheral\sar/cy_sar.h **** * After initialization, call \ref Cy_SAR_Enable to enable the hardware.
  66:Generated_Source\PSoC6\pdl\drivers\peripheral\sar/cy_sar.h **** *
  67:Generated_Source\PSoC6\pdl\drivers\peripheral\sar/cy_sar.h **** * Here is guidance on how to set the data fields of the configuration structure:
  68:Generated_Source\PSoC6\pdl\drivers\peripheral\sar/cy_sar.h **** *
  69:Generated_Source\PSoC6\pdl\drivers\peripheral\sar/cy_sar.h **** * \subsection group_sar_init_struct_ctrl uint32_t ctrl
  70:Generated_Source\PSoC6\pdl\drivers\peripheral\sar/cy_sar.h **** *
  71:Generated_Source\PSoC6\pdl\drivers\peripheral\sar/cy_sar.h **** * This field specifies configurations that apply to all channels such as the Vref
  72:Generated_Source\PSoC6\pdl\drivers\peripheral\sar/cy_sar.h **** * source or the negative terminal selection for all single-ended channels.
  73:Generated_Source\PSoC6\pdl\drivers\peripheral\sar/cy_sar.h **** * Select a value from each of the following enums that begin with "cy_en_sar_ctrl_" and "OR" them t
  74:Generated_Source\PSoC6\pdl\drivers\peripheral\sar/cy_sar.h **** *   - \ref cy_en_sar_ctrl_pwr_ctrl_vref_t
  75:Generated_Source\PSoC6\pdl\drivers\peripheral\sar/cy_sar.h **** *   - \ref cy_en_sar_ctrl_vref_sel_t
  76:Generated_Source\PSoC6\pdl\drivers\peripheral\sar/cy_sar.h **** *   - \ref cy_en_sar_ctrl_bypass_cap_t
  77:Generated_Source\PSoC6\pdl\drivers\peripheral\sar/cy_sar.h **** *   - \ref cy_en_sar_ctrl_neg_sel_t
  78:Generated_Source\PSoC6\pdl\drivers\peripheral\sar/cy_sar.h **** *   - \ref cy_en_sar_ctrl_hw_ctrl_negvref_t
  79:Generated_Source\PSoC6\pdl\drivers\peripheral\sar/cy_sar.h **** *   - \ref cy_en_sar_ctrl_comp_delay_t
  80:Generated_Source\PSoC6\pdl\drivers\peripheral\sar/cy_sar.h **** *   - \ref cy_en_sar_ctrl_comp_pwr_t
  81:Generated_Source\PSoC6\pdl\drivers\peripheral\sar/cy_sar.h **** *   - \ref cy_en_sar_ctrl_sarmux_deep_sleep_t
  82:Generated_Source\PSoC6\pdl\drivers\peripheral\sar/cy_sar.h **** *   - \ref cy_en_sar_ctrl_sarseq_routing_switches_t
  83:Generated_Source\PSoC6\pdl\drivers\peripheral\sar/cy_sar.h **** *
  84:Generated_Source\PSoC6\pdl\drivers\peripheral\sar/cy_sar.h **** * \snippet sar_sut_01.cydsn/main_cm0p.c SNIPPET_SAR_SAR_CTRL
  85:Generated_Source\PSoC6\pdl\drivers\peripheral\sar/cy_sar.h **** *
  86:Generated_Source\PSoC6\pdl\drivers\peripheral\sar/cy_sar.h **** * \subsection group_sar_init_struct_sampleCtrl uint32_t sampleCtrl
  87:Generated_Source\PSoC6\pdl\drivers\peripheral\sar/cy_sar.h **** *
  88:Generated_Source\PSoC6\pdl\drivers\peripheral\sar/cy_sar.h **** * This field configures sampling details that apply to all channels.
  89:Generated_Source\PSoC6\pdl\drivers\peripheral\sar/cy_sar.h **** * Select a value from each of the following enums that begin with "cy_en_sar_sample_" and "OR" them
  90:Generated_Source\PSoC6\pdl\drivers\peripheral\sar/cy_sar.h **** *   - \ref cy_en_sar_sample_ctrl_result_align_t
  91:Generated_Source\PSoC6\pdl\drivers\peripheral\sar/cy_sar.h **** *   - \ref cy_en_sar_sample_ctrl_single_ended_format_t
  92:Generated_Source\PSoC6\pdl\drivers\peripheral\sar/cy_sar.h **** *   - \ref cy_en_sar_sample_ctrl_differential_format_t
  93:Generated_Source\PSoC6\pdl\drivers\peripheral\sar/cy_sar.h **** *   - \ref cy_en_sar_sample_ctrl_avg_cnt_t
  94:Generated_Source\PSoC6\pdl\drivers\peripheral\sar/cy_sar.h **** *   - \ref cy_en_sar_sample_ctrl_avg_mode_t
  95:Generated_Source\PSoC6\pdl\drivers\peripheral\sar/cy_sar.h **** *   - \ref cy_en_sar_sample_ctrl_trigger_mode_t
  96:Generated_Source\PSoC6\pdl\drivers\peripheral\sar/cy_sar.h **** *
  97:Generated_Source\PSoC6\pdl\drivers\peripheral\sar/cy_sar.h **** * \snippet sar_sut_01.cydsn/main_cm0p.c SNIPPET_SAR_SAMPLE_CTRL
  98:Generated_Source\PSoC6\pdl\drivers\peripheral\sar/cy_sar.h **** *
  99:Generated_Source\PSoC6\pdl\drivers\peripheral\sar/cy_sar.h **** * \subsection group_sar_init_struct_sampleTime01 uint32_t sampleTime01
 100:Generated_Source\PSoC6\pdl\drivers\peripheral\sar/cy_sar.h **** *
 101:Generated_Source\PSoC6\pdl\drivers\peripheral\sar/cy_sar.h **** * This field configures the value for sample times 0 and 1 in ADC clock cycles.
 102:Generated_Source\PSoC6\pdl\drivers\peripheral\sar/cy_sar.h **** *
 103:Generated_Source\PSoC6\pdl\drivers\peripheral\sar/cy_sar.h **** * The SAR has four programmable 10-bit aperture times that are configured using two data fields,
 104:Generated_Source\PSoC6\pdl\drivers\peripheral\sar/cy_sar.h **** * \ref group_sar_init_struct_sampleTime01 and
 105:Generated_Source\PSoC6\pdl\drivers\peripheral\sar/cy_sar.h **** * \ref group_sar_init_struct_sampleTime23.
 106:Generated_Source\PSoC6\pdl\drivers\peripheral\sar/cy_sar.h **** * Ten bits allow for a range of 0 to 1023 cycles, however 0 and 1 are invalid.
 107:Generated_Source\PSoC6\pdl\drivers\peripheral\sar/cy_sar.h **** * The minimum aperture time is 167 ns. With an 18 MHz ADC clock, this is
 108:Generated_Source\PSoC6\pdl\drivers\peripheral\sar/cy_sar.h **** * equal to 3 cycles or a value of 4 in this field. The actual aperture time is one cycle less than
 109:Generated_Source\PSoC6\pdl\drivers\peripheral\sar/cy_sar.h **** * the value stored in this field.
 110:Generated_Source\PSoC6\pdl\drivers\peripheral\sar/cy_sar.h **** *
 111:Generated_Source\PSoC6\pdl\drivers\peripheral\sar/cy_sar.h **** * Use the shifts defined in \ref cy_en_sar_sample_time_shift_t.
 112:Generated_Source\PSoC6\pdl\drivers\peripheral\sar/cy_sar.h **** *
 113:Generated_Source\PSoC6\pdl\drivers\peripheral\sar/cy_sar.h **** * \snippet sar_sut_01.cydsn/main_cm0p.c SNIPPET_SAR_SAMPLE_TIME01
ARM GAS  C:\Users\Rolf\AppData\Local\Temp\cc4tlliX.s 			page 34


 114:Generated_Source\PSoC6\pdl\drivers\peripheral\sar/cy_sar.h **** *
 115:Generated_Source\PSoC6\pdl\drivers\peripheral\sar/cy_sar.h **** * \subsection group_sar_init_struct_sampleTime23 uint32_t sampleTime23
 116:Generated_Source\PSoC6\pdl\drivers\peripheral\sar/cy_sar.h **** *
 117:Generated_Source\PSoC6\pdl\drivers\peripheral\sar/cy_sar.h **** * This field configures the value for sample times 2 and 3 in ADC clock cycles.
 118:Generated_Source\PSoC6\pdl\drivers\peripheral\sar/cy_sar.h **** * Use the shifts defined in \ref cy_en_sar_sample_time_shift_t.
 119:Generated_Source\PSoC6\pdl\drivers\peripheral\sar/cy_sar.h **** *
 120:Generated_Source\PSoC6\pdl\drivers\peripheral\sar/cy_sar.h **** * \snippet sar_sut_01.cydsn/main_cm0p.c SNIPPET_SAR_SAMPLE_TIME23
 121:Generated_Source\PSoC6\pdl\drivers\peripheral\sar/cy_sar.h **** *
 122:Generated_Source\PSoC6\pdl\drivers\peripheral\sar/cy_sar.h **** * \subsection group_sar_init_struct_rangeThres uint32_t rangeThres
 123:Generated_Source\PSoC6\pdl\drivers\peripheral\sar/cy_sar.h **** *
 124:Generated_Source\PSoC6\pdl\drivers\peripheral\sar/cy_sar.h **** * This field configures the upper and lower thresholds for the range interrupt.
 125:Generated_Source\PSoC6\pdl\drivers\peripheral\sar/cy_sar.h **** * These thresholds apply on a global level for all channels with range detection enabled.
 126:Generated_Source\PSoC6\pdl\drivers\peripheral\sar/cy_sar.h **** *
 127:Generated_Source\PSoC6\pdl\drivers\peripheral\sar/cy_sar.h **** * The SARSEQ supports range detection to allow for automatic detection of sample values
 128:Generated_Source\PSoC6\pdl\drivers\peripheral\sar/cy_sar.h **** * compared to two programmable thresholds without CPU involvement.
 129:Generated_Source\PSoC6\pdl\drivers\peripheral\sar/cy_sar.h **** * Range detection is done after averaging, alignment, and sign extension (if applicable). In other 
 130:Generated_Source\PSoC6\pdl\drivers\peripheral\sar/cy_sar.h **** * threshold values need to have the same data format as the result data.
 131:Generated_Source\PSoC6\pdl\drivers\peripheral\sar/cy_sar.h **** * The values are interpreted as signed or unsigned according to each channel's configuration.
 132:Generated_Source\PSoC6\pdl\drivers\peripheral\sar/cy_sar.h **** *
 133:Generated_Source\PSoC6\pdl\drivers\peripheral\sar/cy_sar.h **** * Use the shifts defined in \ref cy_en_sar_range_thres_shift_t.
 134:Generated_Source\PSoC6\pdl\drivers\peripheral\sar/cy_sar.h **** *
 135:Generated_Source\PSoC6\pdl\drivers\peripheral\sar/cy_sar.h **** * The \ref Cy_SAR_SetLowLimit and \ref Cy_SAR_SetHighLimit provide run-time configurability of thes
 136:Generated_Source\PSoC6\pdl\drivers\peripheral\sar/cy_sar.h **** *
 137:Generated_Source\PSoC6\pdl\drivers\peripheral\sar/cy_sar.h **** * \snippet sar_sut_01.cydsn/main_cm0p.c SNIPPET_SAR_RANGE_THRES
 138:Generated_Source\PSoC6\pdl\drivers\peripheral\sar/cy_sar.h **** *
 139:Generated_Source\PSoC6\pdl\drivers\peripheral\sar/cy_sar.h **** * \subsection group_sar_init_struct_rangeCond cy_en_sar_range_detect_condition_t rangeCond
 140:Generated_Source\PSoC6\pdl\drivers\peripheral\sar/cy_sar.h **** *
 141:Generated_Source\PSoC6\pdl\drivers\peripheral\sar/cy_sar.h **** * This field configures the condition (below, inside, outside, or above) that will trigger
 142:Generated_Source\PSoC6\pdl\drivers\peripheral\sar/cy_sar.h **** * the range interrupt. Select a value from the \ref cy_en_sar_range_detect_condition_t enum.
 143:Generated_Source\PSoC6\pdl\drivers\peripheral\sar/cy_sar.h **** *
 144:Generated_Source\PSoC6\pdl\drivers\peripheral\sar/cy_sar.h **** * \subsection group_sar_init_struct_chanEn uint32_t chanEn
 145:Generated_Source\PSoC6\pdl\drivers\peripheral\sar/cy_sar.h **** *
 146:Generated_Source\PSoC6\pdl\drivers\peripheral\sar/cy_sar.h **** * This field configures which channels will be scanned.
 147:Generated_Source\PSoC6\pdl\drivers\peripheral\sar/cy_sar.h **** * Each bit corresponds to a channel. Bit 0 enables channel 0, bit 1 enables channel 1,
 148:Generated_Source\PSoC6\pdl\drivers\peripheral\sar/cy_sar.h **** * bit 2 enables channel 2, and so on.
 149:Generated_Source\PSoC6\pdl\drivers\peripheral\sar/cy_sar.h **** *
 150:Generated_Source\PSoC6\pdl\drivers\peripheral\sar/cy_sar.h **** * \subsection group_sar_init_struct_chanConfig uint32_t chanConfig[16]
 151:Generated_Source\PSoC6\pdl\drivers\peripheral\sar/cy_sar.h **** *
 152:Generated_Source\PSoC6\pdl\drivers\peripheral\sar/cy_sar.h **** * Each channel has its own channel configuration register.
 153:Generated_Source\PSoC6\pdl\drivers\peripheral\sar/cy_sar.h **** * The channel configuration specifies which pin/signal is connected to that channel
 154:Generated_Source\PSoC6\pdl\drivers\peripheral\sar/cy_sar.h **** * and how the channel is sampled.
 155:Generated_Source\PSoC6\pdl\drivers\peripheral\sar/cy_sar.h **** *
 156:Generated_Source\PSoC6\pdl\drivers\peripheral\sar/cy_sar.h **** * Select a value from each of the following enums that begin with "cy_en_sar_chan_config_" and "OR"
 157:Generated_Source\PSoC6\pdl\drivers\peripheral\sar/cy_sar.h **** *
 158:Generated_Source\PSoC6\pdl\drivers\peripheral\sar/cy_sar.h **** *   - \ref cy_en_sar_chan_config_input_mode_t
 159:Generated_Source\PSoC6\pdl\drivers\peripheral\sar/cy_sar.h **** *   - \ref cy_en_sar_chan_config_pos_pin_addr_t
 160:Generated_Source\PSoC6\pdl\drivers\peripheral\sar/cy_sar.h **** *   - \ref cy_en_sar_chan_config_pos_port_addr_t
 161:Generated_Source\PSoC6\pdl\drivers\peripheral\sar/cy_sar.h **** *   - \ref cy_en_sar_chan_config_avg_en_t
 162:Generated_Source\PSoC6\pdl\drivers\peripheral\sar/cy_sar.h **** *   - \ref cy_en_sar_chan_config_sample_time_t
 163:Generated_Source\PSoC6\pdl\drivers\peripheral\sar/cy_sar.h **** *   - \ref cy_en_sar_chan_config_neg_pin_addr_t
 164:Generated_Source\PSoC6\pdl\drivers\peripheral\sar/cy_sar.h **** *   - \ref cy_en_sar_chan_config_neg_port_addr_t
 165:Generated_Source\PSoC6\pdl\drivers\peripheral\sar/cy_sar.h **** *
 166:Generated_Source\PSoC6\pdl\drivers\peripheral\sar/cy_sar.h **** * Some important considerations are:
 167:Generated_Source\PSoC6\pdl\drivers\peripheral\sar/cy_sar.h **** *   - The POS_PORT_ADDR and POS_PIN_ADDR bit fields are used by the SARSEQ to select
 168:Generated_Source\PSoC6\pdl\drivers\peripheral\sar/cy_sar.h **** *   the connection to the positive terminal (Vplus) of the ADC for each channel.
 169:Generated_Source\PSoC6\pdl\drivers\peripheral\sar/cy_sar.h **** *   - When the channel is an unpaired differential input (\ref CY_SAR_CHAN_DIFFERENTIAL_UNPAIRED), 
 170:Generated_Source\PSoC6\pdl\drivers\peripheral\sar/cy_sar.h **** *   NEG_PORT_ADDR and NEG_PIN_ADDR are used by the SARSEQ to select the connection
ARM GAS  C:\Users\Rolf\AppData\Local\Temp\cc4tlliX.s 			page 35


 171:Generated_Source\PSoC6\pdl\drivers\peripheral\sar/cy_sar.h **** *   to the negative terminal (Vminus) of the ADC.
 172:Generated_Source\PSoC6\pdl\drivers\peripheral\sar/cy_sar.h **** *   - When the channel is a differential input pair (\ref CY_SAR_CHAN_DIFFERENTIAL_PAIRED), the NEG
 173:Generated_Source\PSoC6\pdl\drivers\peripheral\sar/cy_sar.h **** *   For differential input pairs, only the pin for the positive terminal needs to be
 174:Generated_Source\PSoC6\pdl\drivers\peripheral\sar/cy_sar.h **** *   specified and this pin must be even. For example, Pin 0 (positive terminal) and Pin 1 (negative
 175:Generated_Source\PSoC6\pdl\drivers\peripheral\sar/cy_sar.h **** *   are a pair. Pin 2 (positive terminal) and Pin 3 (negative terminal) are a pair.
 176:Generated_Source\PSoC6\pdl\drivers\peripheral\sar/cy_sar.h **** *
 177:Generated_Source\PSoC6\pdl\drivers\peripheral\sar/cy_sar.h **** * If the SARSEQ is disabled (\ref cy_en_sar_ctrl_sarseq_routing_switches_t) or
 178:Generated_Source\PSoC6\pdl\drivers\peripheral\sar/cy_sar.h **** * it is not controlling any switches (\ref group_sar_init_struct_muxSwitchSqCtrl = 0), the port and
 179:Generated_Source\PSoC6\pdl\drivers\peripheral\sar/cy_sar.h **** * are ignored. This is possible when there is only one channel to scan.
 180:Generated_Source\PSoC6\pdl\drivers\peripheral\sar/cy_sar.h **** *
 181:Generated_Source\PSoC6\pdl\drivers\peripheral\sar/cy_sar.h **** * \snippet sar_sut_01.cydsn/main_cm0p.c SNIPPET_SAR_CHAN_CONFIG
 182:Generated_Source\PSoC6\pdl\drivers\peripheral\sar/cy_sar.h **** *
 183:Generated_Source\PSoC6\pdl\drivers\peripheral\sar/cy_sar.h **** * \subsection group_sar_init_struct_intrMask uint32_t intrMask
 184:Generated_Source\PSoC6\pdl\drivers\peripheral\sar/cy_sar.h **** *
 185:Generated_Source\PSoC6\pdl\drivers\peripheral\sar/cy_sar.h **** * This field configures which interrupt events (end of scan, overflow, or firmware collision) will 
 186:Generated_Source\PSoC6\pdl\drivers\peripheral\sar/cy_sar.h **** *
 187:Generated_Source\PSoC6\pdl\drivers\peripheral\sar/cy_sar.h **** * Select one or more values from the \ref cy_en_sar_intr_mask_t enum and "OR" them
 188:Generated_Source\PSoC6\pdl\drivers\peripheral\sar/cy_sar.h **** * together.
 189:Generated_Source\PSoC6\pdl\drivers\peripheral\sar/cy_sar.h **** *
 190:Generated_Source\PSoC6\pdl\drivers\peripheral\sar/cy_sar.h **** * \snippet sar_sut_01.cydsn/main_cm0p.c SNIPPET_SAR_INTR_MASK
 191:Generated_Source\PSoC6\pdl\drivers\peripheral\sar/cy_sar.h **** *
 192:Generated_Source\PSoC6\pdl\drivers\peripheral\sar/cy_sar.h **** * \subsection group_sar_init_struct_satIntrMask uint32_t satIntrMask
 193:Generated_Source\PSoC6\pdl\drivers\peripheral\sar/cy_sar.h **** *
 194:Generated_Source\PSoC6\pdl\drivers\peripheral\sar/cy_sar.h **** * This field configures which channels will cause a saturation interrupt.
 195:Generated_Source\PSoC6\pdl\drivers\peripheral\sar/cy_sar.h **** *
 196:Generated_Source\PSoC6\pdl\drivers\peripheral\sar/cy_sar.h **** * The SARSEQ has a saturation detect that is always applied to every conversion.
 197:Generated_Source\PSoC6\pdl\drivers\peripheral\sar/cy_sar.h **** * This feature detects whether a channel's sample value is equal to the minimum or maximum values.
 198:Generated_Source\PSoC6\pdl\drivers\peripheral\sar/cy_sar.h **** * This allows the firmware to take action, for example, discard the result, when the SARADC saturat
 199:Generated_Source\PSoC6\pdl\drivers\peripheral\sar/cy_sar.h **** * The sample value is tested right after conversion, that is, before averaging. This means that it
 200:Generated_Source\PSoC6\pdl\drivers\peripheral\sar/cy_sar.h **** * can happen that the interrupt is set while the averaged result in the data register is not
 201:Generated_Source\PSoC6\pdl\drivers\peripheral\sar/cy_sar.h **** * equal to the minimum or maximum.
 202:Generated_Source\PSoC6\pdl\drivers\peripheral\sar/cy_sar.h **** *
 203:Generated_Source\PSoC6\pdl\drivers\peripheral\sar/cy_sar.h **** * Each bit corresponds to a channel. A value of 0 disables saturation detection for all channels.
 204:Generated_Source\PSoC6\pdl\drivers\peripheral\sar/cy_sar.h **** *
 205:Generated_Source\PSoC6\pdl\drivers\peripheral\sar/cy_sar.h **** * \subsection group_sar_init_struct_rangeIntrMask uint32_t rangeIntrMask
 206:Generated_Source\PSoC6\pdl\drivers\peripheral\sar/cy_sar.h **** *
 207:Generated_Source\PSoC6\pdl\drivers\peripheral\sar/cy_sar.h **** * This field configures which channels will cause a range detection interrupt.
 208:Generated_Source\PSoC6\pdl\drivers\peripheral\sar/cy_sar.h **** * Each bit corresponds to a channel. A value of 0 disables range detection for all channels.
 209:Generated_Source\PSoC6\pdl\drivers\peripheral\sar/cy_sar.h **** *
 210:Generated_Source\PSoC6\pdl\drivers\peripheral\sar/cy_sar.h **** * \subsection group_sar_init_struct_muxSwitch uint32_t muxSwitch
 211:Generated_Source\PSoC6\pdl\drivers\peripheral\sar/cy_sar.h **** *
 212:Generated_Source\PSoC6\pdl\drivers\peripheral\sar/cy_sar.h **** * This field is the firmware control of the SARMUX switches.
 213:Generated_Source\PSoC6\pdl\drivers\peripheral\sar/cy_sar.h **** *
 214:Generated_Source\PSoC6\pdl\drivers\peripheral\sar/cy_sar.h **** * Use one or more values from the \ref cy_en_sar_mux_switch_fw_ctrl_t enum and "OR" them together.
 215:Generated_Source\PSoC6\pdl\drivers\peripheral\sar/cy_sar.h **** * If the SARSEQ is enabled, the SARMUX switches that will be used must
 216:Generated_Source\PSoC6\pdl\drivers\peripheral\sar/cy_sar.h **** * also be closed using this firmware control.
 217:Generated_Source\PSoC6\pdl\drivers\peripheral\sar/cy_sar.h **** *
 218:Generated_Source\PSoC6\pdl\drivers\peripheral\sar/cy_sar.h **** * \snippet sar_sut_01.cydsn/main_cm0p.c SNIPPET_SAR_MUX_SWITCH
 219:Generated_Source\PSoC6\pdl\drivers\peripheral\sar/cy_sar.h **** *
 220:Generated_Source\PSoC6\pdl\drivers\peripheral\sar/cy_sar.h **** * Firmware control can be changed at run-time by calling \ref Cy_SAR_SetAnalogSwitch with \ref CY_S
 221:Generated_Source\PSoC6\pdl\drivers\peripheral\sar/cy_sar.h **** * and the desired switch states.
 222:Generated_Source\PSoC6\pdl\drivers\peripheral\sar/cy_sar.h **** *
 223:Generated_Source\PSoC6\pdl\drivers\peripheral\sar/cy_sar.h **** * \subsection group_sar_init_struct_muxSwitchSqCtrl uint32_t muxSwitchSqCtrl
 224:Generated_Source\PSoC6\pdl\drivers\peripheral\sar/cy_sar.h **** *
 225:Generated_Source\PSoC6\pdl\drivers\peripheral\sar/cy_sar.h **** * This field enables or disables SARSEQ control of the SARMUX switches.
 226:Generated_Source\PSoC6\pdl\drivers\peripheral\sar/cy_sar.h **** * To disable control of all switches, set this field to 0. To disable the SARSEQ all together,
 227:Generated_Source\PSoC6\pdl\drivers\peripheral\sar/cy_sar.h **** * use \ref CY_SAR_SARSEQ_SWITCH_DISABLE when configuring the \ref group_sar_init_struct_ctrl regist
ARM GAS  C:\Users\Rolf\AppData\Local\Temp\cc4tlliX.s 			page 36


 228:Generated_Source\PSoC6\pdl\drivers\peripheral\sar/cy_sar.h **** *
 229:Generated_Source\PSoC6\pdl\drivers\peripheral\sar/cy_sar.h **** * Use one or more values from the \ref cy_en_sar_mux_switch_sq_ctrl_t enum and "OR" them together.
 230:Generated_Source\PSoC6\pdl\drivers\peripheral\sar/cy_sar.h **** *
 231:Generated_Source\PSoC6\pdl\drivers\peripheral\sar/cy_sar.h **** * \snippet sar_sut_01.cydsn/main_cm0p.c SNIPPET_SAR_MUX_SQ_CTRL
 232:Generated_Source\PSoC6\pdl\drivers\peripheral\sar/cy_sar.h **** *
 233:Generated_Source\PSoC6\pdl\drivers\peripheral\sar/cy_sar.h **** * SARSEQ control can be changed at run-time by calling \ref Cy_SAR_SetSwitchSarSeqCtrl.
 234:Generated_Source\PSoC6\pdl\drivers\peripheral\sar/cy_sar.h **** *
 235:Generated_Source\PSoC6\pdl\drivers\peripheral\sar/cy_sar.h **** * \subsection group_sar_init_struct_configRouting bool configRouting
 236:Generated_Source\PSoC6\pdl\drivers\peripheral\sar/cy_sar.h **** *
 237:Generated_Source\PSoC6\pdl\drivers\peripheral\sar/cy_sar.h **** * If true, the \ref group_sar_init_struct_muxSwitch and \ref group_sar_init_struct_muxSwitchSqCtrl 
 238:Generated_Source\PSoC6\pdl\drivers\peripheral\sar/cy_sar.h **** * will be used. If false, the fields will be ignored.
 239:Generated_Source\PSoC6\pdl\drivers\peripheral\sar/cy_sar.h **** *
 240:Generated_Source\PSoC6\pdl\drivers\peripheral\sar/cy_sar.h **** * \subsection group_sar_init_struct_vrefMvValue uint32_t vrefMvValue
 241:Generated_Source\PSoC6\pdl\drivers\peripheral\sar/cy_sar.h **** *
 242:Generated_Source\PSoC6\pdl\drivers\peripheral\sar/cy_sar.h **** * This field sets the value of the reference voltage in millivolts used. This value
 243:Generated_Source\PSoC6\pdl\drivers\peripheral\sar/cy_sar.h **** * is used for converting counts to volts in the \ref Cy_SAR_CountsTo_Volts, \ref Cy_SAR_CountsTo_mV
 244:Generated_Source\PSoC6\pdl\drivers\peripheral\sar/cy_sar.h **** * \ref Cy_SAR_CountsTo_uVolts functions.
 245:Generated_Source\PSoC6\pdl\drivers\peripheral\sar/cy_sar.h **** *
 246:Generated_Source\PSoC6\pdl\drivers\peripheral\sar/cy_sar.h **** * \section group_sar_trigger_conversions Triggering Conversions
 247:Generated_Source\PSoC6\pdl\drivers\peripheral\sar/cy_sar.h **** *
 248:Generated_Source\PSoC6\pdl\drivers\peripheral\sar/cy_sar.h **** * The SAR subsystem has the following modes for triggering a conversion:
 249:Generated_Source\PSoC6\pdl\drivers\peripheral\sar/cy_sar.h **** * <table class="doxtable">
 250:Generated_Source\PSoC6\pdl\drivers\peripheral\sar/cy_sar.h **** *   <tr>
 251:Generated_Source\PSoC6\pdl\drivers\peripheral\sar/cy_sar.h **** *     <th>Mode</th>
 252:Generated_Source\PSoC6\pdl\drivers\peripheral\sar/cy_sar.h **** *     <th>Description</th>
 253:Generated_Source\PSoC6\pdl\drivers\peripheral\sar/cy_sar.h **** *     <th>Usage</th>
 254:Generated_Source\PSoC6\pdl\drivers\peripheral\sar/cy_sar.h **** *   </tr>
 255:Generated_Source\PSoC6\pdl\drivers\peripheral\sar/cy_sar.h **** *   <tr>
 256:Generated_Source\PSoC6\pdl\drivers\peripheral\sar/cy_sar.h **** *     <td>Continuous</td>
 257:Generated_Source\PSoC6\pdl\drivers\peripheral\sar/cy_sar.h **** *     <td>After completing a scan, the
 258:Generated_Source\PSoC6\pdl\drivers\peripheral\sar/cy_sar.h **** *     SARSEQ will immediately start the next scan. That is, the SARSEQ will always be BUSY.
 259:Generated_Source\PSoC6\pdl\drivers\peripheral\sar/cy_sar.h **** *     As a result all other triggers, firmware or hardware, are essentially ignored.
 260:Generated_Source\PSoC6\pdl\drivers\peripheral\sar/cy_sar.h **** *  </td>
 261:Generated_Source\PSoC6\pdl\drivers\peripheral\sar/cy_sar.h **** *     <td>To enter this mode, call \ref Cy_SAR_StartConvert with \ref CY_SAR_START_CONVERT_CONTINUO
 262:Generated_Source\PSoC6\pdl\drivers\peripheral\sar/cy_sar.h **** *     To stop continuous conversions, call \ref Cy_SAR_StopConvert.
 263:Generated_Source\PSoC6\pdl\drivers\peripheral\sar/cy_sar.h **** *     </td>
 264:Generated_Source\PSoC6\pdl\drivers\peripheral\sar/cy_sar.h **** *   </tr>
 265:Generated_Source\PSoC6\pdl\drivers\peripheral\sar/cy_sar.h **** *   <tr>
 266:Generated_Source\PSoC6\pdl\drivers\peripheral\sar/cy_sar.h **** *     <td>Firmware single shot</td>
 267:Generated_Source\PSoC6\pdl\drivers\peripheral\sar/cy_sar.h **** *     <td>A single conversion of all enabled channels is triggered with a function call to \ref Cy_
 268:Generated_Source\PSoC6\pdl\drivers\peripheral\sar/cy_sar.h **** *     \ref CY_SAR_START_CONVERT_SINGLE_SHOT.
 269:Generated_Source\PSoC6\pdl\drivers\peripheral\sar/cy_sar.h **** *     </td>
 270:Generated_Source\PSoC6\pdl\drivers\peripheral\sar/cy_sar.h **** *     <td>
 271:Generated_Source\PSoC6\pdl\drivers\peripheral\sar/cy_sar.h **** *     Firmware triggering is always available by calling \ref Cy_SAR_StartConvert with \ref CY_SAR_
 272:Generated_Source\PSoC6\pdl\drivers\peripheral\sar/cy_sar.h **** *     To allow only firmware triggering, or disable
 273:Generated_Source\PSoC6\pdl\drivers\peripheral\sar/cy_sar.h **** *     hardware triggering, set up the \ref cy_stc_sar_config_t config structure with \ref CY_SAR_TR
 274:Generated_Source\PSoC6\pdl\drivers\peripheral\sar/cy_sar.h **** *     </td>
 275:Generated_Source\PSoC6\pdl\drivers\peripheral\sar/cy_sar.h **** *   </tr>
 276:Generated_Source\PSoC6\pdl\drivers\peripheral\sar/cy_sar.h **** *   <tr>
 277:Generated_Source\PSoC6\pdl\drivers\peripheral\sar/cy_sar.h **** *     <td>Hardware edge sensitive</td>
 278:Generated_Source\PSoC6\pdl\drivers\peripheral\sar/cy_sar.h **** *     <td>A single conversion of all enabled channels is triggered on the rising edge of the hardwa
 279:Generated_Source\PSoC6\pdl\drivers\peripheral\sar/cy_sar.h **** *     trigger signal.</td>
 280:Generated_Source\PSoC6\pdl\drivers\peripheral\sar/cy_sar.h **** *     <td>To enable this mode, set up the \ref cy_stc_sar_config_t config structure with
 281:Generated_Source\PSoC6\pdl\drivers\peripheral\sar/cy_sar.h **** *     \ref CY_SAR_TRIGGER_MODE_FW_AND_HWEDGE.</td>
 282:Generated_Source\PSoC6\pdl\drivers\peripheral\sar/cy_sar.h **** *    </tr>
 283:Generated_Source\PSoC6\pdl\drivers\peripheral\sar/cy_sar.h **** *    <tr>
 284:Generated_Source\PSoC6\pdl\drivers\peripheral\sar/cy_sar.h **** *     <td>Hardware level sensitive</td>
ARM GAS  C:\Users\Rolf\AppData\Local\Temp\cc4tlliX.s 			page 37


 285:Generated_Source\PSoC6\pdl\drivers\peripheral\sar/cy_sar.h **** *     <td>Conversions are triggered continuously when the hardware trigger signal is high.</td>
 286:Generated_Source\PSoC6\pdl\drivers\peripheral\sar/cy_sar.h **** *     <td>To enable this mode, set up the \ref cy_stc_sar_config_t config structure with
 287:Generated_Source\PSoC6\pdl\drivers\peripheral\sar/cy_sar.h **** *     \ref CY_SAR_TRIGGER_MODE_FW_AND_HWLEVEL.</td>
 288:Generated_Source\PSoC6\pdl\drivers\peripheral\sar/cy_sar.h **** *    </tr>
 289:Generated_Source\PSoC6\pdl\drivers\peripheral\sar/cy_sar.h **** * </table>
 290:Generated_Source\PSoC6\pdl\drivers\peripheral\sar/cy_sar.h **** *
 291:Generated_Source\PSoC6\pdl\drivers\peripheral\sar/cy_sar.h **** * The trigger mode can be changed during run time with \ref Cy_SAR_SetConvertMode.
 292:Generated_Source\PSoC6\pdl\drivers\peripheral\sar/cy_sar.h **** *
 293:Generated_Source\PSoC6\pdl\drivers\peripheral\sar/cy_sar.h **** * For the hardware trigger modes, use the \ref group_trigmux driver to route an internal or externa
 294:Generated_Source\PSoC6\pdl\drivers\peripheral\sar/cy_sar.h **** * signal to the SAR trigger input.
 295:Generated_Source\PSoC6\pdl\drivers\peripheral\sar/cy_sar.h **** * When making the required \ref Cy_TrigMux_Connect calls, use the pre-defined enum, TRIG6_OUT_PASS_
 296:Generated_Source\PSoC6\pdl\drivers\peripheral\sar/cy_sar.h **** * for the SAR trigger input.
 297:Generated_Source\PSoC6\pdl\drivers\peripheral\sar/cy_sar.h **** *
 298:Generated_Source\PSoC6\pdl\drivers\peripheral\sar/cy_sar.h **** * \snippet sar_sut_01.cydsn/main_cm0p.c SNIPPET_SAR_CONFIG_TRIGGER
 299:Generated_Source\PSoC6\pdl\drivers\peripheral\sar/cy_sar.h **** *
 300:Generated_Source\PSoC6\pdl\drivers\peripheral\sar/cy_sar.h **** * \section group_sar_handle_interrupts Handling Interrupts
 301:Generated_Source\PSoC6\pdl\drivers\peripheral\sar/cy_sar.h **** *
 302:Generated_Source\PSoC6\pdl\drivers\peripheral\sar/cy_sar.h **** * The SAR can generate interrupts on these events:
 303:Generated_Source\PSoC6\pdl\drivers\peripheral\sar/cy_sar.h **** *
 304:Generated_Source\PSoC6\pdl\drivers\peripheral\sar/cy_sar.h **** *   - End of scan (EOS): when scanning of all enabled channels complete.
 305:Generated_Source\PSoC6\pdl\drivers\peripheral\sar/cy_sar.h **** *   - Overflow: when the result register is updated before the previous result is read.
 306:Generated_Source\PSoC6\pdl\drivers\peripheral\sar/cy_sar.h **** *   - FW collision: when a new trigger is received while the SAR is still processing the previous t
 307:Generated_Source\PSoC6\pdl\drivers\peripheral\sar/cy_sar.h **** *   - Saturation detection: when the channel result is equal to the minimum or maximum value.
 308:Generated_Source\PSoC6\pdl\drivers\peripheral\sar/cy_sar.h **** *   - Range detection: when the channel result meets the programmed upper or lower threshold values
 309:Generated_Source\PSoC6\pdl\drivers\peripheral\sar/cy_sar.h **** *
 310:Generated_Source\PSoC6\pdl\drivers\peripheral\sar/cy_sar.h **** * The SAR interrupt to the NVIC is raised any time the intersection (logic and) of the interrupt
 311:Generated_Source\PSoC6\pdl\drivers\peripheral\sar/cy_sar.h **** * flags and the corresponding interrupt masks are non-zero.
 312:Generated_Source\PSoC6\pdl\drivers\peripheral\sar/cy_sar.h **** *
 313:Generated_Source\PSoC6\pdl\drivers\peripheral\sar/cy_sar.h **** * Implement an interrupt routine and assign it to the SAR interrupt.
 314:Generated_Source\PSoC6\pdl\drivers\peripheral\sar/cy_sar.h **** * Use the pre-defined enum, pass_interrupt_sar_IRQn, as the interrupt source for the SAR.
 315:Generated_Source\PSoC6\pdl\drivers\peripheral\sar/cy_sar.h **** *
 316:Generated_Source\PSoC6\pdl\drivers\peripheral\sar/cy_sar.h **** * The following code snippet demonstrates how to implement a routine to handle the interrupt.
 317:Generated_Source\PSoC6\pdl\drivers\peripheral\sar/cy_sar.h **** * The routine gets called when any one of the SAR interrupts are triggered.
 318:Generated_Source\PSoC6\pdl\drivers\peripheral\sar/cy_sar.h **** * When servicing an interrupt, the user must clear the interrupt so that subsequent
 319:Generated_Source\PSoC6\pdl\drivers\peripheral\sar/cy_sar.h **** * interrupts can be handled.
 320:Generated_Source\PSoC6\pdl\drivers\peripheral\sar/cy_sar.h **** *
 321:Generated_Source\PSoC6\pdl\drivers\peripheral\sar/cy_sar.h **** * \snippet sar_sut_01.cydsn/main_cm0p.c SNIPPET_SAR_ISR
 322:Generated_Source\PSoC6\pdl\drivers\peripheral\sar/cy_sar.h **** *
 323:Generated_Source\PSoC6\pdl\drivers\peripheral\sar/cy_sar.h **** * The following code snippet demonstrates how to configure and enable the interrupt.
 324:Generated_Source\PSoC6\pdl\drivers\peripheral\sar/cy_sar.h **** *
 325:Generated_Source\PSoC6\pdl\drivers\peripheral\sar/cy_sar.h **** * \snippet sar_sut_01.cydsn/main_cm0p.c SNIPPET_SAR_CONFIG_INTR
 326:Generated_Source\PSoC6\pdl\drivers\peripheral\sar/cy_sar.h **** *
 327:Generated_Source\PSoC6\pdl\drivers\peripheral\sar/cy_sar.h **** * Alternately, instead of handling the interrupts, the \ref Cy_SAR_IsEndConversion function
 328:Generated_Source\PSoC6\pdl\drivers\peripheral\sar/cy_sar.h **** * allows for firmware polling of the end of conversion status.
 329:Generated_Source\PSoC6\pdl\drivers\peripheral\sar/cy_sar.h **** *
 330:Generated_Source\PSoC6\pdl\drivers\peripheral\sar/cy_sar.h **** * \section group_sar_retrieve_result Retrieve Channel Results
 331:Generated_Source\PSoC6\pdl\drivers\peripheral\sar/cy_sar.h **** *
 332:Generated_Source\PSoC6\pdl\drivers\peripheral\sar/cy_sar.h **** * Retrieve the ADC result by calling \ref Cy_SAR_GetResult16 with the desired channel.
 333:Generated_Source\PSoC6\pdl\drivers\peripheral\sar/cy_sar.h **** * To convert the result to a voltage, pass the ADC result to \ref Cy_SAR_CountsTo_Volts, \ref Cy_SA
 334:Generated_Source\PSoC6\pdl\drivers\peripheral\sar/cy_sar.h **** * \ref Cy_SAR_CountsTo_uVolts.
 335:Generated_Source\PSoC6\pdl\drivers\peripheral\sar/cy_sar.h **** *
 336:Generated_Source\PSoC6\pdl\drivers\peripheral\sar/cy_sar.h **** * \section group_sar_clock SAR Clock Configuration
 337:Generated_Source\PSoC6\pdl\drivers\peripheral\sar/cy_sar.h **** *
 338:Generated_Source\PSoC6\pdl\drivers\peripheral\sar/cy_sar.h **** * The SAR requires a clock. Assign a clock to the SAR using the
 339:Generated_Source\PSoC6\pdl\drivers\peripheral\sar/cy_sar.h **** * pre-defined enum, PCLK_PASS_CLOCK_SAR, to identify the SAR subsystem.
 340:Generated_Source\PSoC6\pdl\drivers\peripheral\sar/cy_sar.h **** * Set the clock divider value to achieve the desired clock rate. The SAR can support
 341:Generated_Source\PSoC6\pdl\drivers\peripheral\sar/cy_sar.h **** * a maximum frequency of 18 MHz.
ARM GAS  C:\Users\Rolf\AppData\Local\Temp\cc4tlliX.s 			page 38


 342:Generated_Source\PSoC6\pdl\drivers\peripheral\sar/cy_sar.h **** *
 343:Generated_Source\PSoC6\pdl\drivers\peripheral\sar/cy_sar.h **** * \snippet sar_sut_01.cydsn/main_cm4.c SAR_SNIPPET_CONFIGURE_CLOCK
 344:Generated_Source\PSoC6\pdl\drivers\peripheral\sar/cy_sar.h **** *
 345:Generated_Source\PSoC6\pdl\drivers\peripheral\sar/cy_sar.h **** * \section group_sar_scan_time Scan Rate
 346:Generated_Source\PSoC6\pdl\drivers\peripheral\sar/cy_sar.h **** *
 347:Generated_Source\PSoC6\pdl\drivers\peripheral\sar/cy_sar.h **** * The scan rate is dependent on the following:
 348:Generated_Source\PSoC6\pdl\drivers\peripheral\sar/cy_sar.h **** *
 349:Generated_Source\PSoC6\pdl\drivers\peripheral\sar/cy_sar.h **** *   - ADC clock rate
 350:Generated_Source\PSoC6\pdl\drivers\peripheral\sar/cy_sar.h **** *   - Number of channels
 351:Generated_Source\PSoC6\pdl\drivers\peripheral\sar/cy_sar.h **** *   - Averaging
 352:Generated_Source\PSoC6\pdl\drivers\peripheral\sar/cy_sar.h **** *   - Resolution
 353:Generated_Source\PSoC6\pdl\drivers\peripheral\sar/cy_sar.h **** *   - Acquisition times
 354:Generated_Source\PSoC6\pdl\drivers\peripheral\sar/cy_sar.h **** *
 355:Generated_Source\PSoC6\pdl\drivers\peripheral\sar/cy_sar.h **** * \subsection group_sar_acquisition_time Acquisition Time
 356:Generated_Source\PSoC6\pdl\drivers\peripheral\sar/cy_sar.h **** *
 357:Generated_Source\PSoC6\pdl\drivers\peripheral\sar/cy_sar.h **** * The acquisition time of a channel is based on which of the four global aperture times are selecte
 358:Generated_Source\PSoC6\pdl\drivers\peripheral\sar/cy_sar.h **** * channel. The selection is done during initialization per channel with \ref group_sar_init_struct_
 359:Generated_Source\PSoC6\pdl\drivers\peripheral\sar/cy_sar.h **** * The four global aperture times are also set during initialization with \ref group_sar_init_struct
 360:Generated_Source\PSoC6\pdl\drivers\peripheral\sar/cy_sar.h **** * \ref group_sar_init_struct_sampleTime23. Note that these global aperture times are in SAR clock c
 361:Generated_Source\PSoC6\pdl\drivers\peripheral\sar/cy_sar.h **** * acquisition time is 1 less than that value in the register.
 362:Generated_Source\PSoC6\pdl\drivers\peripheral\sar/cy_sar.h **** *
 363:Generated_Source\PSoC6\pdl\drivers\peripheral\sar/cy_sar.h **** * \image html sar_acquisition_time_eqn.png
 364:Generated_Source\PSoC6\pdl\drivers\peripheral\sar/cy_sar.h **** *
 365:Generated_Source\PSoC6\pdl\drivers\peripheral\sar/cy_sar.h **** * \subsection group_sar_channel_sample_time Channel Sample Time
 366:Generated_Source\PSoC6\pdl\drivers\peripheral\sar/cy_sar.h **** *
 367:Generated_Source\PSoC6\pdl\drivers\peripheral\sar/cy_sar.h **** * The sample time for a channel is the time required to acquire the analog signal
 368:Generated_Source\PSoC6\pdl\drivers\peripheral\sar/cy_sar.h **** * and convert it to a digital code.
 369:Generated_Source\PSoC6\pdl\drivers\peripheral\sar/cy_sar.h **** *
 370:Generated_Source\PSoC6\pdl\drivers\peripheral\sar/cy_sar.h **** * \image html sar_channel_sample_time_eqn.png
 371:Generated_Source\PSoC6\pdl\drivers\peripheral\sar/cy_sar.h **** *
 372:Generated_Source\PSoC6\pdl\drivers\peripheral\sar/cy_sar.h **** * The SAR ADC is a 12-bit converter so Resolution = 12.
 373:Generated_Source\PSoC6\pdl\drivers\peripheral\sar/cy_sar.h **** *
 374:Generated_Source\PSoC6\pdl\drivers\peripheral\sar/cy_sar.h **** * \subsection group_sar_total_scan_time Total Scan Time
 375:Generated_Source\PSoC6\pdl\drivers\peripheral\sar/cy_sar.h **** *
 376:Generated_Source\PSoC6\pdl\drivers\peripheral\sar/cy_sar.h **** * Channels using one of the sequential averaging modes (\ref CY_SAR_AVG_MODE_SEQUENTIAL_ACCUM or \r
 377:Generated_Source\PSoC6\pdl\drivers\peripheral\sar/cy_sar.h **** * are sampled multiple times per scan. The number of samples averaged are set during initialization
 378:Generated_Source\PSoC6\pdl\drivers\peripheral\sar/cy_sar.h **** * with \ref group_sar_init_struct_sampleCtrl using one of the values from \ref cy_en_sar_sample_ctr
 379:Generated_Source\PSoC6\pdl\drivers\peripheral\sar/cy_sar.h **** * Channels that are not averaged or use the \ref CY_SAR_AVG_MODE_INTERLEAVED mode are only sampled 
 380:Generated_Source\PSoC6\pdl\drivers\peripheral\sar/cy_sar.h **** *
 381:Generated_Source\PSoC6\pdl\drivers\peripheral\sar/cy_sar.h **** * The total scan time is the sum of each channel's sample time multiplied by the samples per scan.
 382:Generated_Source\PSoC6\pdl\drivers\peripheral\sar/cy_sar.h **** *
 383:Generated_Source\PSoC6\pdl\drivers\peripheral\sar/cy_sar.h **** * \image html sar_scan_rate_eqn.png
 384:Generated_Source\PSoC6\pdl\drivers\peripheral\sar/cy_sar.h **** *
 385:Generated_Source\PSoC6\pdl\drivers\peripheral\sar/cy_sar.h **** * where N is the total number of channels in the scan.
 386:Generated_Source\PSoC6\pdl\drivers\peripheral\sar/cy_sar.h **** *
 387:Generated_Source\PSoC6\pdl\drivers\peripheral\sar/cy_sar.h **** * \section group_sar_sarmux SARMUX and SARSEQ
 388:Generated_Source\PSoC6\pdl\drivers\peripheral\sar/cy_sar.h **** *
 389:Generated_Source\PSoC6\pdl\drivers\peripheral\sar/cy_sar.h **** * The SARMUX is an analog programmable multiplexer. Its switches can be controlled by the SARSEQ or
 390:Generated_Source\PSoC6\pdl\drivers\peripheral\sar/cy_sar.h **** * and the inputs can come from:
 391:Generated_Source\PSoC6\pdl\drivers\peripheral\sar/cy_sar.h **** *   - a dedicated port (can support 8 single-ended channels or 4 differential channels)
 392:Generated_Source\PSoC6\pdl\drivers\peripheral\sar/cy_sar.h **** *   - an internal die temperature (DieTemp) sensor
 393:Generated_Source\PSoC6\pdl\drivers\peripheral\sar/cy_sar.h **** *   - CTB output via SARBUS0/1 (if CTBs are available on the device)
 394:Generated_Source\PSoC6\pdl\drivers\peripheral\sar/cy_sar.h **** *   - AMUXBUSA/B
 395:Generated_Source\PSoC6\pdl\drivers\peripheral\sar/cy_sar.h **** *
 396:Generated_Source\PSoC6\pdl\drivers\peripheral\sar/cy_sar.h **** * The following figure shows the SARMUX switches. See the device datasheet for the exact location o
 397:Generated_Source\PSoC6\pdl\drivers\peripheral\sar/cy_sar.h **** *
 398:Generated_Source\PSoC6\pdl\drivers\peripheral\sar/cy_sar.h **** * \image html sar_sarmux_switches.png
ARM GAS  C:\Users\Rolf\AppData\Local\Temp\cc4tlliX.s 			page 39


 399:Generated_Source\PSoC6\pdl\drivers\peripheral\sar/cy_sar.h **** *
 400:Generated_Source\PSoC6\pdl\drivers\peripheral\sar/cy_sar.h **** * When using the SARSEQ, the following configurations must be performed:
 401:Generated_Source\PSoC6\pdl\drivers\peripheral\sar/cy_sar.h **** *   - enable SARSEQ control of required switches (see \ref group_sar_init_struct_muxSwitchSqCtrl)
 402:Generated_Source\PSoC6\pdl\drivers\peripheral\sar/cy_sar.h **** *   - close the required switches with firmware (see \ref group_sar_init_struct_muxSwitch)
 403:Generated_Source\PSoC6\pdl\drivers\peripheral\sar/cy_sar.h **** *   - configure the POS_PORT_ADDR and POS_PIN_ADDR, and if used, the NEG_PORT_ADDR and NEG_PIN_ADDR
 404:Generated_Source\PSoC6\pdl\drivers\peripheral\sar/cy_sar.h **** *
 405:Generated_Source\PSoC6\pdl\drivers\peripheral\sar/cy_sar.h **** * While firmware can control every switch in the SARMUX, not every switch can be controlled by the 
 406:Generated_Source\PSoC6\pdl\drivers\peripheral\sar/cy_sar.h **** * Additionally, switches outside of the SARMUX such as the AMUXBUSA/B switches or
 407:Generated_Source\PSoC6\pdl\drivers\peripheral\sar/cy_sar.h **** * CTB switches will require separate function calls (see \ref group_gpio "GPIO" and \ref group_ctb 
 408:Generated_Source\PSoC6\pdl\drivers\peripheral\sar/cy_sar.h **** * The SARSEQ can control three switches in the \ref group_ctb "CTB" driver (see \ref Cy_CTB_EnableS
 409:Generated_Source\PSoC6\pdl\drivers\peripheral\sar/cy_sar.h **** * These switches need to be enabled for SARSEQ control if the CTB outputs are used as the SARMUX in
 410:Generated_Source\PSoC6\pdl\drivers\peripheral\sar/cy_sar.h **** *
 411:Generated_Source\PSoC6\pdl\drivers\peripheral\sar/cy_sar.h **** * The following table shows the required POS_PORT_ADDR and POS_PIN_ADDR settings
 412:Generated_Source\PSoC6\pdl\drivers\peripheral\sar/cy_sar.h **** * for different input connections.
 413:Generated_Source\PSoC6\pdl\drivers\peripheral\sar/cy_sar.h **** *
 414:Generated_Source\PSoC6\pdl\drivers\peripheral\sar/cy_sar.h **** * <table class="doxtable">
 415:Generated_Source\PSoC6\pdl\drivers\peripheral\sar/cy_sar.h **** *   <tr>
 416:Generated_Source\PSoC6\pdl\drivers\peripheral\sar/cy_sar.h **** *     <th>Input Connection Selection</th>
 417:Generated_Source\PSoC6\pdl\drivers\peripheral\sar/cy_sar.h **** *     <th>POS_PORT_ADDR</th>
 418:Generated_Source\PSoC6\pdl\drivers\peripheral\sar/cy_sar.h **** *     <th>POS_PIN_ADDR</th>
 419:Generated_Source\PSoC6\pdl\drivers\peripheral\sar/cy_sar.h **** *   </tr>
 420:Generated_Source\PSoC6\pdl\drivers\peripheral\sar/cy_sar.h **** *   <tr>
 421:Generated_Source\PSoC6\pdl\drivers\peripheral\sar/cy_sar.h **** *     <td>SARMUX dedicated port</td>
 422:Generated_Source\PSoC6\pdl\drivers\peripheral\sar/cy_sar.h **** *     <td>\ref CY_SAR_POS_PORT_ADDR_SARMUX</td>
 423:Generated_Source\PSoC6\pdl\drivers\peripheral\sar/cy_sar.h **** *     <td>\ref CY_SAR_CHAN_POS_PIN_ADDR_0 through \ref CY_SAR_CHAN_POS_PIN_ADDR_7</td>
 424:Generated_Source\PSoC6\pdl\drivers\peripheral\sar/cy_sar.h **** *   </tr>
 425:Generated_Source\PSoC6\pdl\drivers\peripheral\sar/cy_sar.h **** *   <tr>
 426:Generated_Source\PSoC6\pdl\drivers\peripheral\sar/cy_sar.h **** *     <td>DieTemp sensor</td>
 427:Generated_Source\PSoC6\pdl\drivers\peripheral\sar/cy_sar.h **** *     <td>\ref CY_SAR_POS_PORT_ADDR_SARMUX_VIRT</td>
 428:Generated_Source\PSoC6\pdl\drivers\peripheral\sar/cy_sar.h **** *     <td>\ref CY_SAR_CHAN_POS_PIN_ADDR_0</td>
 429:Generated_Source\PSoC6\pdl\drivers\peripheral\sar/cy_sar.h **** *   </tr>
 430:Generated_Source\PSoC6\pdl\drivers\peripheral\sar/cy_sar.h **** *   <tr>
 431:Generated_Source\PSoC6\pdl\drivers\peripheral\sar/cy_sar.h **** *     <td>AMUXBUSA</td>
 432:Generated_Source\PSoC6\pdl\drivers\peripheral\sar/cy_sar.h **** *     <td>\ref CY_SAR_POS_PORT_ADDR_SARMUX_VIRT</td>
 433:Generated_Source\PSoC6\pdl\drivers\peripheral\sar/cy_sar.h **** *     <td>\ref CY_SAR_CHAN_POS_PIN_ADDR_2</td>
 434:Generated_Source\PSoC6\pdl\drivers\peripheral\sar/cy_sar.h **** *   </tr>
 435:Generated_Source\PSoC6\pdl\drivers\peripheral\sar/cy_sar.h **** *   <tr>
 436:Generated_Source\PSoC6\pdl\drivers\peripheral\sar/cy_sar.h **** *     <td>AMUXBUSB</td>
 437:Generated_Source\PSoC6\pdl\drivers\peripheral\sar/cy_sar.h **** *     <td>\ref CY_SAR_POS_PORT_ADDR_SARMUX_VIRT</td>
 438:Generated_Source\PSoC6\pdl\drivers\peripheral\sar/cy_sar.h **** *     <td>\ref CY_SAR_CHAN_POS_PIN_ADDR_3</td>
 439:Generated_Source\PSoC6\pdl\drivers\peripheral\sar/cy_sar.h **** *   </tr>
 440:Generated_Source\PSoC6\pdl\drivers\peripheral\sar/cy_sar.h **** *   <tr>
 441:Generated_Source\PSoC6\pdl\drivers\peripheral\sar/cy_sar.h **** *     <td>CTB0 Opamp0 1x output</td>
 442:Generated_Source\PSoC6\pdl\drivers\peripheral\sar/cy_sar.h **** *     <td>\ref CY_SAR_POS_PORT_ADDR_CTB0</td>
 443:Generated_Source\PSoC6\pdl\drivers\peripheral\sar/cy_sar.h **** *     <td>\ref CY_SAR_CHAN_POS_PIN_ADDR_2</td>
 444:Generated_Source\PSoC6\pdl\drivers\peripheral\sar/cy_sar.h **** *   </tr>
 445:Generated_Source\PSoC6\pdl\drivers\peripheral\sar/cy_sar.h **** *   <tr>
 446:Generated_Source\PSoC6\pdl\drivers\peripheral\sar/cy_sar.h **** *     <td>CTB0 Opamp1 1x output</td>
 447:Generated_Source\PSoC6\pdl\drivers\peripheral\sar/cy_sar.h **** *     <td>\ref CY_SAR_POS_PORT_ADDR_CTB0</td>
 448:Generated_Source\PSoC6\pdl\drivers\peripheral\sar/cy_sar.h **** *     <td>\ref CY_SAR_CHAN_POS_PIN_ADDR_3</td>
 449:Generated_Source\PSoC6\pdl\drivers\peripheral\sar/cy_sar.h **** *   </tr>
 450:Generated_Source\PSoC6\pdl\drivers\peripheral\sar/cy_sar.h **** * </table>
 451:Generated_Source\PSoC6\pdl\drivers\peripheral\sar/cy_sar.h **** *
 452:Generated_Source\PSoC6\pdl\drivers\peripheral\sar/cy_sar.h **** * \subsection group_sar_sarmux_dietemp Input from DieTemp sensor
 453:Generated_Source\PSoC6\pdl\drivers\peripheral\sar/cy_sar.h **** *
 454:Generated_Source\PSoC6\pdl\drivers\peripheral\sar/cy_sar.h **** * When using the DieTemp sensor, always use single-ended mode.
 455:Generated_Source\PSoC6\pdl\drivers\peripheral\sar/cy_sar.h **** * The temperature sensor can be routed to Vplus using the \ref CY_SAR_MUX_FW_TEMP_VPLUS switch.
ARM GAS  C:\Users\Rolf\AppData\Local\Temp\cc4tlliX.s 			page 40


 456:Generated_Source\PSoC6\pdl\drivers\peripheral\sar/cy_sar.h **** * Connecting this switch will also enable the sensor. Set the \ref group_sar_acquisition_time "acqu
 457:Generated_Source\PSoC6\pdl\drivers\peripheral\sar/cy_sar.h **** * be at least 1 us to meet the settling time of the temperature sensor.
 458:Generated_Source\PSoC6\pdl\drivers\peripheral\sar/cy_sar.h **** *
 459:Generated_Source\PSoC6\pdl\drivers\peripheral\sar/cy_sar.h **** * \image html sar_sarmux_dietemp.png
 460:Generated_Source\PSoC6\pdl\drivers\peripheral\sar/cy_sar.h **** *
 461:Generated_Source\PSoC6\pdl\drivers\peripheral\sar/cy_sar.h **** * \snippet sar_sut_02.cydsn/main_cm4.c SNIPPET_SAR_SARMUX_DIETEMP
 462:Generated_Source\PSoC6\pdl\drivers\peripheral\sar/cy_sar.h **** *
 463:Generated_Source\PSoC6\pdl\drivers\peripheral\sar/cy_sar.h **** * \subsection group_sar_sarmux_se_diff Input from SARMUX port
 464:Generated_Source\PSoC6\pdl\drivers\peripheral\sar/cy_sar.h **** *
 465:Generated_Source\PSoC6\pdl\drivers\peripheral\sar/cy_sar.h **** * The following figure and code snippet show how two GPIOs on the SARMUX dedicated port
 466:Generated_Source\PSoC6\pdl\drivers\peripheral\sar/cy_sar.h **** * are connected to the SARADC as separate single-ended channels and as a differential-pair channel.
 467:Generated_Source\PSoC6\pdl\drivers\peripheral\sar/cy_sar.h **** *
 468:Generated_Source\PSoC6\pdl\drivers\peripheral\sar/cy_sar.h **** * \image html sar_sarmux_dedicated_port.png
 469:Generated_Source\PSoC6\pdl\drivers\peripheral\sar/cy_sar.h **** *
 470:Generated_Source\PSoC6\pdl\drivers\peripheral\sar/cy_sar.h **** * \snippet sar_sut_02.cydsn/main_cm4.c SNIPPET_SAR_SARMUX_SE_DIFF
 471:Generated_Source\PSoC6\pdl\drivers\peripheral\sar/cy_sar.h **** *
 472:Generated_Source\PSoC6\pdl\drivers\peripheral\sar/cy_sar.h **** * \subsection group_sar_sarmux_ctb Input from CTB output visa SARBUS0/1
 473:Generated_Source\PSoC6\pdl\drivers\peripheral\sar/cy_sar.h **** *
 474:Generated_Source\PSoC6\pdl\drivers\peripheral\sar/cy_sar.h **** * The following figure and code snippet show how the two opamp outputs from the CTB
 475:Generated_Source\PSoC6\pdl\drivers\peripheral\sar/cy_sar.h **** * are connected to the SARADC as separate single-ended channels and as a differential-pair channel.
 476:Generated_Source\PSoC6\pdl\drivers\peripheral\sar/cy_sar.h **** * Note that separate function calls are needed to configure and enable the opamps, perform required
 477:Generated_Source\PSoC6\pdl\drivers\peripheral\sar/cy_sar.h **** * and enable SARSEQ control of the switches contained in the CTB.
 478:Generated_Source\PSoC6\pdl\drivers\peripheral\sar/cy_sar.h **** *
 479:Generated_Source\PSoC6\pdl\drivers\peripheral\sar/cy_sar.h **** * \image html sar_sarmux_ctb.png
 480:Generated_Source\PSoC6\pdl\drivers\peripheral\sar/cy_sar.h **** *
 481:Generated_Source\PSoC6\pdl\drivers\peripheral\sar/cy_sar.h **** * \snippet sar_sut_02.cydsn/main_cm4.c SNIPPET_SAR_SARMUX_CTB
 482:Generated_Source\PSoC6\pdl\drivers\peripheral\sar/cy_sar.h **** *
 483:Generated_Source\PSoC6\pdl\drivers\peripheral\sar/cy_sar.h **** * \subsection group_sar_sarmux_amuxbus Input from other pins through AMUXBUSA/B
 484:Generated_Source\PSoC6\pdl\drivers\peripheral\sar/cy_sar.h **** *
 485:Generated_Source\PSoC6\pdl\drivers\peripheral\sar/cy_sar.h **** * The following figure and code snippet show how two GPIOs on any port through the AMUXBUSA and AMU
 486:Generated_Source\PSoC6\pdl\drivers\peripheral\sar/cy_sar.h **** * are connected to the SARADC as separate single-ended channels and as a differential-pair channel.
 487:Generated_Source\PSoC6\pdl\drivers\peripheral\sar/cy_sar.h **** * Note that separate function calls are needed to route the device pins to the SARMUX. The AMUXBUSe
 488:Generated_Source\PSoC6\pdl\drivers\peripheral\sar/cy_sar.h **** * are separated into multiple segments and these segments are connected/disconnected using the AMUX
 489:Generated_Source\PSoC6\pdl\drivers\peripheral\sar/cy_sar.h **** * registers in the HSIOM. In the following code snippet, to connect Port 1 to the SARMUX, the left 
 490:Generated_Source\PSoC6\pdl\drivers\peripheral\sar/cy_sar.h **** * switches of AMUX_SPLIT_CTL[1] and AMUX_SPLIT_CTL[6] need to be closed.
 491:Generated_Source\PSoC6\pdl\drivers\peripheral\sar/cy_sar.h **** *
 492:Generated_Source\PSoC6\pdl\drivers\peripheral\sar/cy_sar.h **** * \image html sar_sarmux_amuxbus.png
 493:Generated_Source\PSoC6\pdl\drivers\peripheral\sar/cy_sar.h **** *
 494:Generated_Source\PSoC6\pdl\drivers\peripheral\sar/cy_sar.h **** * \snippet sar_sut_02.cydsn/main_cm4.c SNIPPET_SAR_SARMUX_AMUXBUS
 495:Generated_Source\PSoC6\pdl\drivers\peripheral\sar/cy_sar.h **** *
 496:Generated_Source\PSoC6\pdl\drivers\peripheral\sar/cy_sar.h **** * \section group_sar_low_power Low Power Support
 497:Generated_Source\PSoC6\pdl\drivers\peripheral\sar/cy_sar.h **** * This SAR driver provides a callback function to handle power mode transitions.
 498:Generated_Source\PSoC6\pdl\drivers\peripheral\sar/cy_sar.h **** * The \ref Cy_SAR_DeepSleepCallback function ensures that SAR conversions are stopped
 499:Generated_Source\PSoC6\pdl\drivers\peripheral\sar/cy_sar.h **** * before Deep Sleep entry. Upon wakeup, the callback
 500:Generated_Source\PSoC6\pdl\drivers\peripheral\sar/cy_sar.h **** * enables the hardware and continuous conversions, if previously enabled.
 501:Generated_Source\PSoC6\pdl\drivers\peripheral\sar/cy_sar.h **** *
 502:Generated_Source\PSoC6\pdl\drivers\peripheral\sar/cy_sar.h **** * To trigger the callback execution, the callback must be registered before calling \ref Cy_SysPm_C
 503:Generated_Source\PSoC6\pdl\drivers\peripheral\sar/cy_sar.h **** * \ref group_syspm driver for more information about power mode transitions and
 504:Generated_Source\PSoC6\pdl\drivers\peripheral\sar/cy_sar.h **** * callback registration.
 505:Generated_Source\PSoC6\pdl\drivers\peripheral\sar/cy_sar.h **** *
 506:Generated_Source\PSoC6\pdl\drivers\peripheral\sar/cy_sar.h **** * Recall that during configuration of the \ref group_sar_init_struct_ctrl "ctrl" field,
 507:Generated_Source\PSoC6\pdl\drivers\peripheral\sar/cy_sar.h **** * the SARMUX can be configured to remain enabled in Deep Sleep mode.
 508:Generated_Source\PSoC6\pdl\drivers\peripheral\sar/cy_sar.h **** * All other blocks (SARADC, REFBUF, and SARSEQ) do not support Deep Sleep mode operation.
 509:Generated_Source\PSoC6\pdl\drivers\peripheral\sar/cy_sar.h **** *
 510:Generated_Source\PSoC6\pdl\drivers\peripheral\sar/cy_sar.h **** * \section group_sar_more_information More Information
 511:Generated_Source\PSoC6\pdl\drivers\peripheral\sar/cy_sar.h **** * For more information on the SAR ADC subsystem, refer to the technical reference manual (TRM).
 512:Generated_Source\PSoC6\pdl\drivers\peripheral\sar/cy_sar.h **** *
ARM GAS  C:\Users\Rolf\AppData\Local\Temp\cc4tlliX.s 			page 41


 513:Generated_Source\PSoC6\pdl\drivers\peripheral\sar/cy_sar.h **** * \section group_sar_MISRA MISRA-C Compliance]
 514:Generated_Source\PSoC6\pdl\drivers\peripheral\sar/cy_sar.h **** *
 515:Generated_Source\PSoC6\pdl\drivers\peripheral\sar/cy_sar.h **** * This driver has the following specific deviations:
 516:Generated_Source\PSoC6\pdl\drivers\peripheral\sar/cy_sar.h **** *
 517:Generated_Source\PSoC6\pdl\drivers\peripheral\sar/cy_sar.h **** * <table class="doxtable">
 518:Generated_Source\PSoC6\pdl\drivers\peripheral\sar/cy_sar.h **** *   <tr>
 519:Generated_Source\PSoC6\pdl\drivers\peripheral\sar/cy_sar.h **** *     <th>MISRA Rule</th>
 520:Generated_Source\PSoC6\pdl\drivers\peripheral\sar/cy_sar.h **** *     <th>Rule Class (Required/Advisory)</th>
 521:Generated_Source\PSoC6\pdl\drivers\peripheral\sar/cy_sar.h **** *     <th>Rule Description</th>
 522:Generated_Source\PSoC6\pdl\drivers\peripheral\sar/cy_sar.h **** *     <th>Description of Deviation(s)</th>
 523:Generated_Source\PSoC6\pdl\drivers\peripheral\sar/cy_sar.h **** *   </tr>
 524:Generated_Source\PSoC6\pdl\drivers\peripheral\sar/cy_sar.h **** *   <tr>
 525:Generated_Source\PSoC6\pdl\drivers\peripheral\sar/cy_sar.h **** *     <td>11.4</td>
 526:Generated_Source\PSoC6\pdl\drivers\peripheral\sar/cy_sar.h **** *     <td>Advisory</td>
 527:Generated_Source\PSoC6\pdl\drivers\peripheral\sar/cy_sar.h **** *     <td>A cast should not be performed between a pointer to object type and a different pointer t
 528:Generated_Source\PSoC6\pdl\drivers\peripheral\sar/cy_sar.h **** *     <td>The cy_syspm driver defines the pointer to void in the \ref cy_stc_syspm_callback_params_
 529:Generated_Source\PSoC6\pdl\drivers\peripheral\sar/cy_sar.h **** *       This SAR driver implements a Deep Sleep callback conforming to the cy_syspm driver requirem
 530:Generated_Source\PSoC6\pdl\drivers\peripheral\sar/cy_sar.h **** *       When the callback is called, the base should point to the SAR_Type register address.
 531:Generated_Source\PSoC6\pdl\drivers\peripheral\sar/cy_sar.h **** *     </td>
 532:Generated_Source\PSoC6\pdl\drivers\peripheral\sar/cy_sar.h **** *   </tr>
 533:Generated_Source\PSoC6\pdl\drivers\peripheral\sar/cy_sar.h **** * </table>
 534:Generated_Source\PSoC6\pdl\drivers\peripheral\sar/cy_sar.h **** *
 535:Generated_Source\PSoC6\pdl\drivers\peripheral\sar/cy_sar.h **** * \section group_sar_changelog Changelog
 536:Generated_Source\PSoC6\pdl\drivers\peripheral\sar/cy_sar.h **** * <table class="doxtable">
 537:Generated_Source\PSoC6\pdl\drivers\peripheral\sar/cy_sar.h **** *   <tr><th>Version</th><th>Changes</th><th>Reason for Change</th></tr>
 538:Generated_Source\PSoC6\pdl\drivers\peripheral\sar/cy_sar.h **** *   <tr>
 539:Generated_Source\PSoC6\pdl\drivers\peripheral\sar/cy_sar.h **** *     <td rowspan="2">1.20</td>
 540:Generated_Source\PSoC6\pdl\drivers\peripheral\sar/cy_sar.h **** *     <td>Flattened the organization of the driver source code into the single source directory and
 541:Generated_Source\PSoC6\pdl\drivers\peripheral\sar/cy_sar.h **** *     <td>Driver library directory-structure simplification.</td>
 542:Generated_Source\PSoC6\pdl\drivers\peripheral\sar/cy_sar.h **** *   </tr>
 543:Generated_Source\PSoC6\pdl\drivers\peripheral\sar/cy_sar.h **** *   <tr>
 544:Generated_Source\PSoC6\pdl\drivers\peripheral\sar/cy_sar.h **** *     <td>Added register access layer. Use register access macros instead
 545:Generated_Source\PSoC6\pdl\drivers\peripheral\sar/cy_sar.h **** *         of direct register access using dereferenced pointers.</td>
 546:Generated_Source\PSoC6\pdl\drivers\peripheral\sar/cy_sar.h **** *     <td>Makes register access device-independent, so that the PDL does 
 547:Generated_Source\PSoC6\pdl\drivers\peripheral\sar/cy_sar.h **** *         not need to be recompiled for each supported part number.</td>
 548:Generated_Source\PSoC6\pdl\drivers\peripheral\sar/cy_sar.h **** *   </tr>
 549:Generated_Source\PSoC6\pdl\drivers\peripheral\sar/cy_sar.h **** *   <tr>
 550:Generated_Source\PSoC6\pdl\drivers\peripheral\sar/cy_sar.h **** *     <td rowspan="3">1.10</td>
 551:Generated_Source\PSoC6\pdl\drivers\peripheral\sar/cy_sar.h **** *     <td> Added workaround for parts with out of range CAP_TRIM in Init API.</td>
 552:Generated_Source\PSoC6\pdl\drivers\peripheral\sar/cy_sar.h **** *     <td> Correct CAP_TRIM is necessary achieving specified SAR ADC linearity</td>
 553:Generated_Source\PSoC6\pdl\drivers\peripheral\sar/cy_sar.h **** *   </tr>
 554:Generated_Source\PSoC6\pdl\drivers\peripheral\sar/cy_sar.h **** *   <tr>
 555:Generated_Source\PSoC6\pdl\drivers\peripheral\sar/cy_sar.h **** *     <td> Turn off the entire hardware block only if the SARMUX is not enabled 
 556:Generated_Source\PSoC6\pdl\drivers\peripheral\sar/cy_sar.h **** *          for Deep Sleep operation.                
 557:Generated_Source\PSoC6\pdl\drivers\peripheral\sar/cy_sar.h **** *     </td>
 558:Generated_Source\PSoC6\pdl\drivers\peripheral\sar/cy_sar.h **** *     <td> Improvement of the \ref Cy_SAR_DeepSleep flow</td>
 559:Generated_Source\PSoC6\pdl\drivers\peripheral\sar/cy_sar.h **** *   </tr>
 560:Generated_Source\PSoC6\pdl\drivers\peripheral\sar/cy_sar.h **** *   <tr>
 561:Generated_Source\PSoC6\pdl\drivers\peripheral\sar/cy_sar.h **** *     <td>Updated "Low Power Support" section to describe registering the Deep Sleep callback.
 562:Generated_Source\PSoC6\pdl\drivers\peripheral\sar/cy_sar.h **** *         Added parenthesis around logical AND operation in Sleep API.</td>
 563:Generated_Source\PSoC6\pdl\drivers\peripheral\sar/cy_sar.h **** *     <td>Documentation update and clarification</td>
 564:Generated_Source\PSoC6\pdl\drivers\peripheral\sar/cy_sar.h **** *   </tr>
 565:Generated_Source\PSoC6\pdl\drivers\peripheral\sar/cy_sar.h **** *   <tr>
 566:Generated_Source\PSoC6\pdl\drivers\peripheral\sar/cy_sar.h **** *     <td>1.0</td>
 567:Generated_Source\PSoC6\pdl\drivers\peripheral\sar/cy_sar.h **** *     <td>Initial version</td>
 568:Generated_Source\PSoC6\pdl\drivers\peripheral\sar/cy_sar.h **** *     <td></td>
 569:Generated_Source\PSoC6\pdl\drivers\peripheral\sar/cy_sar.h **** *   </tr>
ARM GAS  C:\Users\Rolf\AppData\Local\Temp\cc4tlliX.s 			page 42


 570:Generated_Source\PSoC6\pdl\drivers\peripheral\sar/cy_sar.h **** * </table>
 571:Generated_Source\PSoC6\pdl\drivers\peripheral\sar/cy_sar.h **** *
 572:Generated_Source\PSoC6\pdl\drivers\peripheral\sar/cy_sar.h **** * \defgroup group_sar_macros Macros
 573:Generated_Source\PSoC6\pdl\drivers\peripheral\sar/cy_sar.h **** * \defgroup group_sar_functions Functions
 574:Generated_Source\PSoC6\pdl\drivers\peripheral\sar/cy_sar.h **** *   \{
 575:Generated_Source\PSoC6\pdl\drivers\peripheral\sar/cy_sar.h **** *       \defgroup group_sar_functions_basic         Initialization and Basic Functions
 576:Generated_Source\PSoC6\pdl\drivers\peripheral\sar/cy_sar.h **** *       \defgroup group_sar_functions_power         Low Power Callback
 577:Generated_Source\PSoC6\pdl\drivers\peripheral\sar/cy_sar.h **** *       \defgroup group_sar_functions_config        Run-time Configuration Functions
 578:Generated_Source\PSoC6\pdl\drivers\peripheral\sar/cy_sar.h **** *       \defgroup group_sar_functions_countsto      Counts Conversion Functions
 579:Generated_Source\PSoC6\pdl\drivers\peripheral\sar/cy_sar.h **** *       \defgroup group_sar_functions_interrupt     Interrupt Functions
 580:Generated_Source\PSoC6\pdl\drivers\peripheral\sar/cy_sar.h **** *       \defgroup group_sar_functions_switches      SARMUX Switch Control Functions
 581:Generated_Source\PSoC6\pdl\drivers\peripheral\sar/cy_sar.h **** *       \defgroup group_sar_functions_helper        Useful Configuration Query Functions
 582:Generated_Source\PSoC6\pdl\drivers\peripheral\sar/cy_sar.h **** *   \}
 583:Generated_Source\PSoC6\pdl\drivers\peripheral\sar/cy_sar.h **** * \defgroup group_sar_globals Global Variables
 584:Generated_Source\PSoC6\pdl\drivers\peripheral\sar/cy_sar.h **** * \defgroup group_sar_data_structures Data Structures
 585:Generated_Source\PSoC6\pdl\drivers\peripheral\sar/cy_sar.h **** * \defgroup group_sar_enums Enumerated Types
 586:Generated_Source\PSoC6\pdl\drivers\peripheral\sar/cy_sar.h **** *   \{
 587:Generated_Source\PSoC6\pdl\drivers\peripheral\sar/cy_sar.h **** *       \defgroup group_sar_ctrl_register_enums         Control Register Enums
 588:Generated_Source\PSoC6\pdl\drivers\peripheral\sar/cy_sar.h **** *       \defgroup group_sar_sample_ctrl_register_enums  Sample Control Register Enums
 589:Generated_Source\PSoC6\pdl\drivers\peripheral\sar/cy_sar.h **** *       \defgroup group_sar_sample_time_shift_enums     Sample Time Register Enums
 590:Generated_Source\PSoC6\pdl\drivers\peripheral\sar/cy_sar.h **** *       \defgroup group_sar_range_thres_register_enums  Range Interrupt Register Enums
 591:Generated_Source\PSoC6\pdl\drivers\peripheral\sar/cy_sar.h **** *       \defgroup group_sar_chan_config_register_enums  Channel Configuration Register Enums
 592:Generated_Source\PSoC6\pdl\drivers\peripheral\sar/cy_sar.h **** *       \defgroup group_sar_intr_mask_t_register_enums  Interrupt Mask Register Enums
 593:Generated_Source\PSoC6\pdl\drivers\peripheral\sar/cy_sar.h **** *       \defgroup group_sar_mux_switch_register_enums   SARMUX Switch Control Register Enums
 594:Generated_Source\PSoC6\pdl\drivers\peripheral\sar/cy_sar.h **** *   \}
 595:Generated_Source\PSoC6\pdl\drivers\peripheral\sar/cy_sar.h **** */
 596:Generated_Source\PSoC6\pdl\drivers\peripheral\sar/cy_sar.h **** 
 597:Generated_Source\PSoC6\pdl\drivers\peripheral\sar/cy_sar.h **** #if !defined(CY_SAR_H)
 598:Generated_Source\PSoC6\pdl\drivers\peripheral\sar/cy_sar.h **** #define CY_SAR_H
 599:Generated_Source\PSoC6\pdl\drivers\peripheral\sar/cy_sar.h **** 
 600:Generated_Source\PSoC6\pdl\drivers\peripheral\sar/cy_sar.h **** #include <stdint.h>
 601:Generated_Source\PSoC6\pdl\drivers\peripheral\sar/cy_sar.h **** #include <stdbool.h>
 602:Generated_Source\PSoC6\pdl\drivers\peripheral\sar/cy_sar.h **** #include <stddef.h>
 603:Generated_Source\PSoC6\pdl\drivers\peripheral\sar/cy_sar.h **** #include "cy_device_headers.h"
 604:Generated_Source\PSoC6\pdl\drivers\peripheral\sar/cy_sar.h **** #include "cy_syslib.h"
 605:Generated_Source\PSoC6\pdl\drivers\peripheral\sar/cy_sar.h **** #include "cy_syspm.h"
 606:Generated_Source\PSoC6\pdl\drivers\peripheral\sar/cy_sar.h **** #include "cy_device.h"
 607:Generated_Source\PSoC6\pdl\drivers\peripheral\sar/cy_sar.h **** 
 608:Generated_Source\PSoC6\pdl\drivers\peripheral\sar/cy_sar.h **** #ifdef CY_IP_MXS40PASS_SAR
 609:Generated_Source\PSoC6\pdl\drivers\peripheral\sar/cy_sar.h **** 
 610:Generated_Source\PSoC6\pdl\drivers\peripheral\sar/cy_sar.h **** #if defined(__cplusplus)
 611:Generated_Source\PSoC6\pdl\drivers\peripheral\sar/cy_sar.h **** extern "C" {
 612:Generated_Source\PSoC6\pdl\drivers\peripheral\sar/cy_sar.h **** #endif
 613:Generated_Source\PSoC6\pdl\drivers\peripheral\sar/cy_sar.h **** 
 614:Generated_Source\PSoC6\pdl\drivers\peripheral\sar/cy_sar.h **** /** \addtogroup group_sar_macros
 615:Generated_Source\PSoC6\pdl\drivers\peripheral\sar/cy_sar.h **** * \{
 616:Generated_Source\PSoC6\pdl\drivers\peripheral\sar/cy_sar.h **** */
 617:Generated_Source\PSoC6\pdl\drivers\peripheral\sar/cy_sar.h **** 
 618:Generated_Source\PSoC6\pdl\drivers\peripheral\sar/cy_sar.h **** /** Driver major version */
 619:Generated_Source\PSoC6\pdl\drivers\peripheral\sar/cy_sar.h **** #define CY_SAR_DRV_VERSION_MAJOR        1
 620:Generated_Source\PSoC6\pdl\drivers\peripheral\sar/cy_sar.h **** 
 621:Generated_Source\PSoC6\pdl\drivers\peripheral\sar/cy_sar.h **** /** Driver minor version */
 622:Generated_Source\PSoC6\pdl\drivers\peripheral\sar/cy_sar.h **** #define CY_SAR_DRV_VERSION_MINOR        20
 623:Generated_Source\PSoC6\pdl\drivers\peripheral\sar/cy_sar.h **** 
 624:Generated_Source\PSoC6\pdl\drivers\peripheral\sar/cy_sar.h **** /** SAR driver identifier */
 625:Generated_Source\PSoC6\pdl\drivers\peripheral\sar/cy_sar.h **** #define CY_SAR_ID                       CY_PDL_DRV_ID(0x01u)
 626:Generated_Source\PSoC6\pdl\drivers\peripheral\sar/cy_sar.h **** 
ARM GAS  C:\Users\Rolf\AppData\Local\Temp\cc4tlliX.s 			page 43


 627:Generated_Source\PSoC6\pdl\drivers\peripheral\sar/cy_sar.h **** /** Maximum number of channels */
 628:Generated_Source\PSoC6\pdl\drivers\peripheral\sar/cy_sar.h **** #define CY_SAR_MAX_NUM_CHANNELS         (PASS_SAR_SAR_CHANNELS)
 629:Generated_Source\PSoC6\pdl\drivers\peripheral\sar/cy_sar.h **** 
 630:Generated_Source\PSoC6\pdl\drivers\peripheral\sar/cy_sar.h **** /** \cond INTERNAL */
 631:Generated_Source\PSoC6\pdl\drivers\peripheral\sar/cy_sar.h **** #define CY_SAR_DEINIT                   (0uL)             /**< De-init value for most SAR registers
 632:Generated_Source\PSoC6\pdl\drivers\peripheral\sar/cy_sar.h **** #define CY_SAR_SAMPLE_TIME_DEINIT       ((3uL << SAR_SAMPLE_TIME01_SAMPLE_TIME0_Pos) | (3uL << SAR_
 633:Generated_Source\PSoC6\pdl\drivers\peripheral\sar/cy_sar.h **** #define CY_SAR_CLEAR_ALL_SWITCHES       (0x3FFFFFFFuL)    /**< Value to clear all SARMUX switches *
 634:Generated_Source\PSoC6\pdl\drivers\peripheral\sar/cy_sar.h **** #define CY_SAR_DEINIT_SQ_CTRL           (SAR_MUX_SWITCH_SQ_CTRL_MUX_SQ_CTRL_P0_Msk \
 635:Generated_Source\PSoC6\pdl\drivers\peripheral\sar/cy_sar.h ****                                         | SAR_MUX_SWITCH_SQ_CTRL_MUX_SQ_CTRL_P1_Msk \
 636:Generated_Source\PSoC6\pdl\drivers\peripheral\sar/cy_sar.h ****                                         | SAR_MUX_SWITCH_SQ_CTRL_MUX_SQ_CTRL_P2_Msk \
 637:Generated_Source\PSoC6\pdl\drivers\peripheral\sar/cy_sar.h ****                                         | SAR_MUX_SWITCH_SQ_CTRL_MUX_SQ_CTRL_P3_Msk \
 638:Generated_Source\PSoC6\pdl\drivers\peripheral\sar/cy_sar.h ****                                         | SAR_MUX_SWITCH_SQ_CTRL_MUX_SQ_CTRL_P4_Msk \
 639:Generated_Source\PSoC6\pdl\drivers\peripheral\sar/cy_sar.h ****                                         | SAR_MUX_SWITCH_SQ_CTRL_MUX_SQ_CTRL_P5_Msk \
 640:Generated_Source\PSoC6\pdl\drivers\peripheral\sar/cy_sar.h ****                                         | SAR_MUX_SWITCH_SQ_CTRL_MUX_SQ_CTRL_P6_Msk \
 641:Generated_Source\PSoC6\pdl\drivers\peripheral\sar/cy_sar.h ****                                         | SAR_MUX_SWITCH_SQ_CTRL_MUX_SQ_CTRL_P7_Msk \
 642:Generated_Source\PSoC6\pdl\drivers\peripheral\sar/cy_sar.h ****                                         | SAR_MUX_SWITCH_SQ_CTRL_MUX_SQ_CTRL_VSSA_Msk \
 643:Generated_Source\PSoC6\pdl\drivers\peripheral\sar/cy_sar.h ****                                         | SAR_MUX_SWITCH_SQ_CTRL_MUX_SQ_CTRL_TEMP_Msk \
 644:Generated_Source\PSoC6\pdl\drivers\peripheral\sar/cy_sar.h ****                                         | SAR_MUX_SWITCH_SQ_CTRL_MUX_SQ_CTRL_AMUXBUSA_Msk \
 645:Generated_Source\PSoC6\pdl\drivers\peripheral\sar/cy_sar.h ****                                         | SAR_MUX_SWITCH_SQ_CTRL_MUX_SQ_CTRL_AMUXBUSB_Msk \
 646:Generated_Source\PSoC6\pdl\drivers\peripheral\sar/cy_sar.h ****                                         | SAR_MUX_SWITCH_SQ_CTRL_MUX_SQ_CTRL_SARBUS0_Msk \
 647:Generated_Source\PSoC6\pdl\drivers\peripheral\sar/cy_sar.h ****                                         | SAR_MUX_SWITCH_SQ_CTRL_MUX_SQ_CTRL_SARBUS1_Msk)
 648:Generated_Source\PSoC6\pdl\drivers\peripheral\sar/cy_sar.h **** #define CY_SAR_REG_CTRL_MASK            (SAR_CTRL_PWR_CTRL_VREF_Msk \
 649:Generated_Source\PSoC6\pdl\drivers\peripheral\sar/cy_sar.h ****                                         | SAR_CTRL_VREF_SEL_Msk \
 650:Generated_Source\PSoC6\pdl\drivers\peripheral\sar/cy_sar.h ****                                         | SAR_CTRL_VREF_BYP_CAP_EN_Msk \
 651:Generated_Source\PSoC6\pdl\drivers\peripheral\sar/cy_sar.h ****                                         | SAR_CTRL_NEG_SEL_Msk \
 652:Generated_Source\PSoC6\pdl\drivers\peripheral\sar/cy_sar.h ****                                         | SAR_CTRL_SAR_HW_CTRL_NEGVREF_Msk \
 653:Generated_Source\PSoC6\pdl\drivers\peripheral\sar/cy_sar.h ****                                         | SAR_CTRL_COMP_DLY_Msk \
 654:Generated_Source\PSoC6\pdl\drivers\peripheral\sar/cy_sar.h ****                                         | SAR_CTRL_REFBUF_EN_Msk \
 655:Generated_Source\PSoC6\pdl\drivers\peripheral\sar/cy_sar.h ****                                         | SAR_CTRL_COMP_PWR_Msk \
 656:Generated_Source\PSoC6\pdl\drivers\peripheral\sar/cy_sar.h ****                                         | SAR_CTRL_DEEPSLEEP_ON_Msk \
 657:Generated_Source\PSoC6\pdl\drivers\peripheral\sar/cy_sar.h ****                                         | SAR_CTRL_DSI_SYNC_CONFIG_Msk \
 658:Generated_Source\PSoC6\pdl\drivers\peripheral\sar/cy_sar.h ****                                         | SAR_CTRL_DSI_MODE_Msk \
 659:Generated_Source\PSoC6\pdl\drivers\peripheral\sar/cy_sar.h ****                                         | SAR_CTRL_SWITCH_DISABLE_Msk \
 660:Generated_Source\PSoC6\pdl\drivers\peripheral\sar/cy_sar.h ****                                         | SAR_CTRL_ENABLED_Msk)
 661:Generated_Source\PSoC6\pdl\drivers\peripheral\sar/cy_sar.h **** #define CY_SAR_REG_SAMPLE_CTRL_MASK     (SAR_SAMPLE_CTRL_LEFT_ALIGN_Msk \
 662:Generated_Source\PSoC6\pdl\drivers\peripheral\sar/cy_sar.h ****                                         | SAR_SAMPLE_CTRL_SINGLE_ENDED_SIGNED_Msk \
 663:Generated_Source\PSoC6\pdl\drivers\peripheral\sar/cy_sar.h ****                                         | SAR_SAMPLE_CTRL_DIFFERENTIAL_SIGNED_Msk \
 664:Generated_Source\PSoC6\pdl\drivers\peripheral\sar/cy_sar.h ****                                         | SAR_SAMPLE_CTRL_AVG_CNT_Msk \
 665:Generated_Source\PSoC6\pdl\drivers\peripheral\sar/cy_sar.h ****                                         | SAR_SAMPLE_CTRL_AVG_SHIFT_Msk \
 666:Generated_Source\PSoC6\pdl\drivers\peripheral\sar/cy_sar.h ****                                         | SAR_SAMPLE_CTRL_AVG_MODE_Msk \
 667:Generated_Source\PSoC6\pdl\drivers\peripheral\sar/cy_sar.h ****                                         | SAR_SAMPLE_CTRL_CONTINUOUS_Msk \
 668:Generated_Source\PSoC6\pdl\drivers\peripheral\sar/cy_sar.h ****                                         | SAR_SAMPLE_CTRL_DSI_TRIGGER_EN_Msk \
 669:Generated_Source\PSoC6\pdl\drivers\peripheral\sar/cy_sar.h ****                                         | SAR_SAMPLE_CTRL_DSI_TRIGGER_LEVEL_Msk \
 670:Generated_Source\PSoC6\pdl\drivers\peripheral\sar/cy_sar.h ****                                         | SAR_SAMPLE_CTRL_DSI_SYNC_TRIGGER_Msk \
 671:Generated_Source\PSoC6\pdl\drivers\peripheral\sar/cy_sar.h ****                                         | SAR_SAMPLE_CTRL_UAB_SCAN_MODE_Msk \
 672:Generated_Source\PSoC6\pdl\drivers\peripheral\sar/cy_sar.h ****                                         | SAR_SAMPLE_CTRL_REPEAT_INVALID_Msk \
 673:Generated_Source\PSoC6\pdl\drivers\peripheral\sar/cy_sar.h ****                                         | SAR_SAMPLE_CTRL_VALID_SEL_Msk \
 674:Generated_Source\PSoC6\pdl\drivers\peripheral\sar/cy_sar.h ****                                         | SAR_SAMPLE_CTRL_VALID_SEL_EN_Msk \
 675:Generated_Source\PSoC6\pdl\drivers\peripheral\sar/cy_sar.h ****                                         | SAR_SAMPLE_CTRL_VALID_IGNORE_Msk \
 676:Generated_Source\PSoC6\pdl\drivers\peripheral\sar/cy_sar.h ****                                         | SAR_SAMPLE_CTRL_TRIGGER_OUT_EN_Msk \
 677:Generated_Source\PSoC6\pdl\drivers\peripheral\sar/cy_sar.h ****                                         | SAR_SAMPLE_CTRL_EOS_DSI_OUT_EN_Msk)
 678:Generated_Source\PSoC6\pdl\drivers\peripheral\sar/cy_sar.h **** #define CY_SAR_REG_CHAN_CONFIG_MASK     (SAR_CHAN_CONFIG_POS_PIN_ADDR_Msk \
 679:Generated_Source\PSoC6\pdl\drivers\peripheral\sar/cy_sar.h ****                                         | SAR_CHAN_CONFIG_POS_PORT_ADDR_Msk \
 680:Generated_Source\PSoC6\pdl\drivers\peripheral\sar/cy_sar.h ****                                         | SAR_CHAN_CONFIG_DIFFERENTIAL_EN_Msk \
 681:Generated_Source\PSoC6\pdl\drivers\peripheral\sar/cy_sar.h ****                                         | SAR_CHAN_CONFIG_AVG_EN_Msk \
 682:Generated_Source\PSoC6\pdl\drivers\peripheral\sar/cy_sar.h ****                                         | SAR_CHAN_CONFIG_SAMPLE_TIME_SEL_Msk \
 683:Generated_Source\PSoC6\pdl\drivers\peripheral\sar/cy_sar.h ****                                         | SAR_CHAN_CONFIG_NEG_PIN_ADDR_Msk \
ARM GAS  C:\Users\Rolf\AppData\Local\Temp\cc4tlliX.s 			page 44


 684:Generated_Source\PSoC6\pdl\drivers\peripheral\sar/cy_sar.h ****                                         | SAR_CHAN_CONFIG_NEG_PORT_ADDR_Msk \
 685:Generated_Source\PSoC6\pdl\drivers\peripheral\sar/cy_sar.h ****                                         | SAR_CHAN_CONFIG_NEG_ADDR_EN_Msk \
 686:Generated_Source\PSoC6\pdl\drivers\peripheral\sar/cy_sar.h ****                                         | SAR_CHAN_CONFIG_DSI_OUT_EN_Msk)
 687:Generated_Source\PSoC6\pdl\drivers\peripheral\sar/cy_sar.h **** #define CY_SAR_REG_SAMPLE_TIME_MASK     (SAR_SAMPLE_TIME01_SAMPLE_TIME0_Msk | SAR_SAMPLE_TIME01_SAM
 688:Generated_Source\PSoC6\pdl\drivers\peripheral\sar/cy_sar.h **** 
 689:Generated_Source\PSoC6\pdl\drivers\peripheral\sar/cy_sar.h **** #define CY_SAR_2US_DELAY                (2u)              /**< Delay used in Enable API function to
 690:Generated_Source\PSoC6\pdl\drivers\peripheral\sar/cy_sar.h **** #define CY_SAR_10V_COUNTS               (10.0F)           /**< Value of 10 in volts */
 691:Generated_Source\PSoC6\pdl\drivers\peripheral\sar/cy_sar.h **** #define CY_SAR_10MV_COUNTS              (10000)           /**< Value of 10 in millivolts */
 692:Generated_Source\PSoC6\pdl\drivers\peripheral\sar/cy_sar.h **** #define CY_SAR_10UV_COUNTS              (10000000L)       /**< Value of 10 in microvolts */
 693:Generated_Source\PSoC6\pdl\drivers\peripheral\sar/cy_sar.h **** #define CY_SAR_WRK_MAX_12BIT            (0x00001000uL)    /**< Maximum SAR work register value for 
 694:Generated_Source\PSoC6\pdl\drivers\peripheral\sar/cy_sar.h **** #define CY_SAR_RANGE_LIMIT_MAX          (0xFFFFuL)        /**< Maximum value for the low and high r
 695:Generated_Source\PSoC6\pdl\drivers\peripheral\sar/cy_sar.h **** #define CY_SAR_CAP_TRIM_MAX             (0x3FuL)          /**< Maximum value for CAP_TRIM */
 696:Generated_Source\PSoC6\pdl\drivers\peripheral\sar/cy_sar.h **** #define CY_SAR_CAP_TRIM_MIN             (0x00uL)          /**< Maximum value for CAP_TRIM */
 697:Generated_Source\PSoC6\pdl\drivers\peripheral\sar/cy_sar.h **** #define CY_SAR_CAP_TRIM                 (0x0BuL)          /**< Correct cap trim value */
 698:Generated_Source\PSoC6\pdl\drivers\peripheral\sar/cy_sar.h **** 
 699:Generated_Source\PSoC6\pdl\drivers\peripheral\sar/cy_sar.h **** /**< Macros for conditions used in CY_ASSERT calls */
 700:Generated_Source\PSoC6\pdl\drivers\peripheral\sar/cy_sar.h **** #define CY_SAR_CHANNUM(chan)            ((chan) < CY_SAR_MAX_NUM_CHANNELS)
 701:Generated_Source\PSoC6\pdl\drivers\peripheral\sar/cy_sar.h **** #define CY_SAR_CHANMASK(mask)           ((mask) < (1uL << CY_SAR_MAX_NUM_CHANNELS))
 702:Generated_Source\PSoC6\pdl\drivers\peripheral\sar/cy_sar.h **** #define CY_SAR_RANGECOND(cond)          ((cond) <= CY_SAR_RANGE_COND_OUTSIDE)
 703:Generated_Source\PSoC6\pdl\drivers\peripheral\sar/cy_sar.h **** #define CY_SAR_INTRMASK(mask)           ((mask) <= (uint32_t)(CY_SAR_INTR_EOS_MASK | CY_SAR_INTR_OV
 704:Generated_Source\PSoC6\pdl\drivers\peripheral\sar/cy_sar.h **** #define CY_SAR_TRIGGER(mode)            (((mode) == CY_SAR_TRIGGER_MODE_FW_ONLY) \
 705:Generated_Source\PSoC6\pdl\drivers\peripheral\sar/cy_sar.h ****                                         || ((mode) == CY_SAR_TRIGGER_MODE_FW_AND_HWEDGE) \
 706:Generated_Source\PSoC6\pdl\drivers\peripheral\sar/cy_sar.h ****                                         || ((mode) == CY_SAR_TRIGGER_MODE_FW_AND_HWLEVEL))
 707:Generated_Source\PSoC6\pdl\drivers\peripheral\sar/cy_sar.h **** #define CY_SAR_RETURN(mode)             (((mode) == CY_SAR_RETURN_STATUS) || ((mode) == CY_SAR_WAIT
 708:Generated_Source\PSoC6\pdl\drivers\peripheral\sar/cy_sar.h **** #define CY_SAR_STARTCONVERT(mode)       (((mode) == CY_SAR_START_CONVERT_SINGLE_SHOT) || ((mode) ==
 709:Generated_Source\PSoC6\pdl\drivers\peripheral\sar/cy_sar.h **** #define CY_SAR_RANGE_LIMIT(limit)       ((limit) <= CY_SAR_RANGE_LIMIT_MAX)
 710:Generated_Source\PSoC6\pdl\drivers\peripheral\sar/cy_sar.h **** #define CY_SAR_SWITCHSELECT(select)     ((select) == CY_SAR_MUX_SWITCH0)
 711:Generated_Source\PSoC6\pdl\drivers\peripheral\sar/cy_sar.h **** #define CY_SAR_SWITCHMASK(mask)         ((mask) <= CY_SAR_CLEAR_ALL_SWITCHES)
 712:Generated_Source\PSoC6\pdl\drivers\peripheral\sar/cy_sar.h **** #define CY_SAR_SWITCHSTATE(state)       (((state) == CY_SAR_SWITCH_OPEN) || ((state) == CY_SAR_SWIT
 713:Generated_Source\PSoC6\pdl\drivers\peripheral\sar/cy_sar.h **** #define CY_SAR_SQMASK(mask)             (((mask) & (~CY_SAR_DEINIT_SQ_CTRL)) == 0uL)
 714:Generated_Source\PSoC6\pdl\drivers\peripheral\sar/cy_sar.h **** #define CY_SAR_SQCTRL(ctrl)             (((ctrl) == CY_SAR_SWITCH_SEQ_CTRL_ENABLE) || ((ctrl) == CY
 715:Generated_Source\PSoC6\pdl\drivers\peripheral\sar/cy_sar.h **** 
 716:Generated_Source\PSoC6\pdl\drivers\peripheral\sar/cy_sar.h **** #define CY_SAR_CTRL(value)              (((value) & (~CY_SAR_REG_CTRL_MASK)) == 0uL)
 717:Generated_Source\PSoC6\pdl\drivers\peripheral\sar/cy_sar.h **** #define CY_SAR_SAMPLE_CTRL(value)       (((value) & (~CY_SAR_REG_SAMPLE_CTRL_MASK)) == 0uL)
 718:Generated_Source\PSoC6\pdl\drivers\peripheral\sar/cy_sar.h **** #define CY_SAR_SAMPLE_TIME(value)       (((value) & (~CY_SAR_REG_SAMPLE_TIME_MASK)) == 0uL)
 719:Generated_Source\PSoC6\pdl\drivers\peripheral\sar/cy_sar.h **** #define CY_SAR_CHAN_CONFIG(value)       (((value) & (~CY_SAR_REG_CHAN_CONFIG_MASK)) == 0uL)
 720:Generated_Source\PSoC6\pdl\drivers\peripheral\sar/cy_sar.h **** /** \endcond */
 721:Generated_Source\PSoC6\pdl\drivers\peripheral\sar/cy_sar.h **** 
 722:Generated_Source\PSoC6\pdl\drivers\peripheral\sar/cy_sar.h **** /** \} group_sar_macro */
 723:Generated_Source\PSoC6\pdl\drivers\peripheral\sar/cy_sar.h **** 
 724:Generated_Source\PSoC6\pdl\drivers\peripheral\sar/cy_sar.h **** /** \addtogroup group_sar_globals
 725:Generated_Source\PSoC6\pdl\drivers\peripheral\sar/cy_sar.h **** * \{
 726:Generated_Source\PSoC6\pdl\drivers\peripheral\sar/cy_sar.h **** */
 727:Generated_Source\PSoC6\pdl\drivers\peripheral\sar/cy_sar.h **** /***************************************
 728:Generated_Source\PSoC6\pdl\drivers\peripheral\sar/cy_sar.h **** *        Global Variables
 729:Generated_Source\PSoC6\pdl\drivers\peripheral\sar/cy_sar.h **** ***************************************/
 730:Generated_Source\PSoC6\pdl\drivers\peripheral\sar/cy_sar.h **** 
 731:Generated_Source\PSoC6\pdl\drivers\peripheral\sar/cy_sar.h **** /** This array is used to calibrate the offset for each channel.
 732:Generated_Source\PSoC6\pdl\drivers\peripheral\sar/cy_sar.h **** *
 733:Generated_Source\PSoC6\pdl\drivers\peripheral\sar/cy_sar.h **** * At initialization, channels that are single-ended, signed, and with Vneg = Vref
 734:Generated_Source\PSoC6\pdl\drivers\peripheral\sar/cy_sar.h **** * have an offset of -(2^12)/2 = -2048. All other channels have an offset of 0.
 735:Generated_Source\PSoC6\pdl\drivers\peripheral\sar/cy_sar.h **** * The offset can be overridden using \ref Cy_SAR_SetOffset.
 736:Generated_Source\PSoC6\pdl\drivers\peripheral\sar/cy_sar.h **** *
 737:Generated_Source\PSoC6\pdl\drivers\peripheral\sar/cy_sar.h **** * The channel offsets are used by the \ref Cy_SAR_CountsTo_Volts, \ref Cy_SAR_CountsTo_mVolts, and
 738:Generated_Source\PSoC6\pdl\drivers\peripheral\sar/cy_sar.h **** * \ref Cy_SAR_CountsTo_uVolts functions to convert counts to voltage.
 739:Generated_Source\PSoC6\pdl\drivers\peripheral\sar/cy_sar.h **** *
 740:Generated_Source\PSoC6\pdl\drivers\peripheral\sar/cy_sar.h **** */
ARM GAS  C:\Users\Rolf\AppData\Local\Temp\cc4tlliX.s 			page 45


 741:Generated_Source\PSoC6\pdl\drivers\peripheral\sar/cy_sar.h **** extern volatile int16_t Cy_SAR_offset[CY_SAR_MAX_NUM_CHANNELS];
 742:Generated_Source\PSoC6\pdl\drivers\peripheral\sar/cy_sar.h **** 
 743:Generated_Source\PSoC6\pdl\drivers\peripheral\sar/cy_sar.h **** /** This array is used to calibrate the gain for each channel.
 744:Generated_Source\PSoC6\pdl\drivers\peripheral\sar/cy_sar.h **** *
 745:Generated_Source\PSoC6\pdl\drivers\peripheral\sar/cy_sar.h **** * It is set at initialization and the value depends on the SARADC resolution
 746:Generated_Source\PSoC6\pdl\drivers\peripheral\sar/cy_sar.h **** * and voltage reference, 10*(2^12)/(2*Vref).
 747:Generated_Source\PSoC6\pdl\drivers\peripheral\sar/cy_sar.h **** * The gain can be overridden using \ref Cy_SAR_SetGain.
 748:Generated_Source\PSoC6\pdl\drivers\peripheral\sar/cy_sar.h **** *
 749:Generated_Source\PSoC6\pdl\drivers\peripheral\sar/cy_sar.h **** * The channel gains are used by the \ref Cy_SAR_CountsTo_Volts, \ref Cy_SAR_CountsTo_mVolts, and
 750:Generated_Source\PSoC6\pdl\drivers\peripheral\sar/cy_sar.h **** * \ref Cy_SAR_CountsTo_uVolts functions to convert counts to voltage.
 751:Generated_Source\PSoC6\pdl\drivers\peripheral\sar/cy_sar.h **** */
 752:Generated_Source\PSoC6\pdl\drivers\peripheral\sar/cy_sar.h **** extern volatile int32_t Cy_SAR_countsPer10Volt[CY_SAR_MAX_NUM_CHANNELS];
 753:Generated_Source\PSoC6\pdl\drivers\peripheral\sar/cy_sar.h **** 
 754:Generated_Source\PSoC6\pdl\drivers\peripheral\sar/cy_sar.h **** /** \} group_sar_globals */
 755:Generated_Source\PSoC6\pdl\drivers\peripheral\sar/cy_sar.h **** 
 756:Generated_Source\PSoC6\pdl\drivers\peripheral\sar/cy_sar.h **** /** \addtogroup group_sar_enums
 757:Generated_Source\PSoC6\pdl\drivers\peripheral\sar/cy_sar.h **** * \{
 758:Generated_Source\PSoC6\pdl\drivers\peripheral\sar/cy_sar.h **** */
 759:Generated_Source\PSoC6\pdl\drivers\peripheral\sar/cy_sar.h **** 
 760:Generated_Source\PSoC6\pdl\drivers\peripheral\sar/cy_sar.h **** /******************************************************************************
 761:Generated_Source\PSoC6\pdl\drivers\peripheral\sar/cy_sar.h ****  * Enumerations
 762:Generated_Source\PSoC6\pdl\drivers\peripheral\sar/cy_sar.h ****  *****************************************************************************/
 763:Generated_Source\PSoC6\pdl\drivers\peripheral\sar/cy_sar.h **** 
 764:Generated_Source\PSoC6\pdl\drivers\peripheral\sar/cy_sar.h **** /** The SAR status/error code definitions */
 765:Generated_Source\PSoC6\pdl\drivers\peripheral\sar/cy_sar.h **** typedef enum
 766:Generated_Source\PSoC6\pdl\drivers\peripheral\sar/cy_sar.h **** {
 767:Generated_Source\PSoC6\pdl\drivers\peripheral\sar/cy_sar.h ****     CY_SAR_SUCCESS    = 0x00uL,                                      /**< Success */
 768:Generated_Source\PSoC6\pdl\drivers\peripheral\sar/cy_sar.h ****     CY_SAR_BAD_PARAM  = CY_SAR_ID | CY_PDL_STATUS_ERROR | 0x01uL,    /**< Invalid input parameters 
 769:Generated_Source\PSoC6\pdl\drivers\peripheral\sar/cy_sar.h ****     CY_SAR_TIMEOUT    = CY_SAR_ID | CY_PDL_STATUS_ERROR | 0x02uL,    /**< A timeout occurred */
 770:Generated_Source\PSoC6\pdl\drivers\peripheral\sar/cy_sar.h ****     CY_SAR_CONVERSION_NOT_COMPLETE = CY_SAR_ID | CY_PDL_STATUS_ERROR | 0x03uL,    /**< SAR conversi
 771:Generated_Source\PSoC6\pdl\drivers\peripheral\sar/cy_sar.h **** }cy_en_sar_status_t;
 772:Generated_Source\PSoC6\pdl\drivers\peripheral\sar/cy_sar.h **** 
 773:Generated_Source\PSoC6\pdl\drivers\peripheral\sar/cy_sar.h **** /** Definitions for starting a conversion used in \ref Cy_SAR_StartConvert */
 774:Generated_Source\PSoC6\pdl\drivers\peripheral\sar/cy_sar.h **** typedef enum
 775:Generated_Source\PSoC6\pdl\drivers\peripheral\sar/cy_sar.h **** {
 776:Generated_Source\PSoC6\pdl\drivers\peripheral\sar/cy_sar.h ****     CY_SAR_START_CONVERT_SINGLE_SHOT = 0uL, /**< Start a single scan (one shot) from firmware */
 777:Generated_Source\PSoC6\pdl\drivers\peripheral\sar/cy_sar.h ****     CY_SAR_START_CONVERT_CONTINUOUS  = 1uL, /**< Continuously scan enabled channels and ignores all
 778:Generated_Source\PSoC6\pdl\drivers\peripheral\sar/cy_sar.h **** }cy_en_sar_start_convert_sel_t;
 779:Generated_Source\PSoC6\pdl\drivers\peripheral\sar/cy_sar.h **** 
 780:Generated_Source\PSoC6\pdl\drivers\peripheral\sar/cy_sar.h **** /** Definitions for the return mode used in \ref Cy_SAR_IsEndConversion */
 781:Generated_Source\PSoC6\pdl\drivers\peripheral\sar/cy_sar.h **** typedef enum
 782:Generated_Source\PSoC6\pdl\drivers\peripheral\sar/cy_sar.h **** {
 783:Generated_Source\PSoC6\pdl\drivers\peripheral\sar/cy_sar.h ****     CY_SAR_RETURN_STATUS    = 0uL,      /**< Immediately returns the conversion status. */
 784:Generated_Source\PSoC6\pdl\drivers\peripheral\sar/cy_sar.h ****     CY_SAR_WAIT_FOR_RESULT  = 1uL,    /**< Does not return a result until the conversion of all seq
 785:Generated_Source\PSoC6\pdl\drivers\peripheral\sar/cy_sar.h **** }cy_en_sar_return_mode_t;
 786:Generated_Source\PSoC6\pdl\drivers\peripheral\sar/cy_sar.h **** 
 787:Generated_Source\PSoC6\pdl\drivers\peripheral\sar/cy_sar.h **** /** Switch state definitions */
 788:Generated_Source\PSoC6\pdl\drivers\peripheral\sar/cy_sar.h **** typedef enum
 789:Generated_Source\PSoC6\pdl\drivers\peripheral\sar/cy_sar.h **** {
 790:Generated_Source\PSoC6\pdl\drivers\peripheral\sar/cy_sar.h ****     CY_SAR_SWITCH_OPEN      = 0uL,    /**< Open the switch */
 791:Generated_Source\PSoC6\pdl\drivers\peripheral\sar/cy_sar.h ****     CY_SAR_SWITCH_CLOSE     = 1uL     /**< Close the switch */
 792:Generated_Source\PSoC6\pdl\drivers\peripheral\sar/cy_sar.h **** }cy_en_sar_switch_state_t;
 793:Generated_Source\PSoC6\pdl\drivers\peripheral\sar/cy_sar.h **** 
 794:Generated_Source\PSoC6\pdl\drivers\peripheral\sar/cy_sar.h **** /** Definitions for sequencer control of switches */
 795:Generated_Source\PSoC6\pdl\drivers\peripheral\sar/cy_sar.h **** typedef enum
 796:Generated_Source\PSoC6\pdl\drivers\peripheral\sar/cy_sar.h **** {
 797:Generated_Source\PSoC6\pdl\drivers\peripheral\sar/cy_sar.h ****     CY_SAR_SWITCH_SEQ_CTRL_DISABLE = 0uL, /**< Disable sequencer control of switch */
ARM GAS  C:\Users\Rolf\AppData\Local\Temp\cc4tlliX.s 			page 46


 798:Generated_Source\PSoC6\pdl\drivers\peripheral\sar/cy_sar.h ****     CY_SAR_SWITCH_SEQ_CTRL_ENABLE  = 1uL  /**< Enable sequencer control of switch */
 799:Generated_Source\PSoC6\pdl\drivers\peripheral\sar/cy_sar.h **** }cy_en_sar_switch_sar_seq_ctrl_t;
 800:Generated_Source\PSoC6\pdl\drivers\peripheral\sar/cy_sar.h **** 
 801:Generated_Source\PSoC6\pdl\drivers\peripheral\sar/cy_sar.h **** /** Switch register selection for \ref Cy_SAR_SetAnalogSwitch and \ref Cy_SAR_GetAnalogSwitch */
 802:Generated_Source\PSoC6\pdl\drivers\peripheral\sar/cy_sar.h **** typedef enum
 803:Generated_Source\PSoC6\pdl\drivers\peripheral\sar/cy_sar.h **** {
 804:Generated_Source\PSoC6\pdl\drivers\peripheral\sar/cy_sar.h ****     CY_SAR_MUX_SWITCH0  = 0uL,      /**< SARMUX switch control register */
 805:Generated_Source\PSoC6\pdl\drivers\peripheral\sar/cy_sar.h **** }cy_en_sar_switch_register_sel_t;
 806:Generated_Source\PSoC6\pdl\drivers\peripheral\sar/cy_sar.h **** 
 807:Generated_Source\PSoC6\pdl\drivers\peripheral\sar/cy_sar.h **** /** \addtogroup group_sar_ctrl_register_enums
 808:Generated_Source\PSoC6\pdl\drivers\peripheral\sar/cy_sar.h **** * This set of enumerations aids in configuring the SAR CTRL register
 809:Generated_Source\PSoC6\pdl\drivers\peripheral\sar/cy_sar.h **** * \{
 810:Generated_Source\PSoC6\pdl\drivers\peripheral\sar/cy_sar.h **** */
 811:Generated_Source\PSoC6\pdl\drivers\peripheral\sar/cy_sar.h **** /** Reference voltage buffer power mode definitions */
 812:Generated_Source\PSoC6\pdl\drivers\peripheral\sar/cy_sar.h **** typedef enum
 813:Generated_Source\PSoC6\pdl\drivers\peripheral\sar/cy_sar.h **** {
 814:Generated_Source\PSoC6\pdl\drivers\peripheral\sar/cy_sar.h ****     CY_SAR_VREF_PWR_100     = 0uL << SAR_CTRL_PWR_CTRL_VREF_Pos,      /**< Full power (100%) */
 815:Generated_Source\PSoC6\pdl\drivers\peripheral\sar/cy_sar.h ****     CY_SAR_VREF_PWR_80      = 1uL << SAR_CTRL_PWR_CTRL_VREF_Pos,      /**< 80% power */
 816:Generated_Source\PSoC6\pdl\drivers\peripheral\sar/cy_sar.h ****     CY_SAR_VREF_PWR_60      = 2uL << SAR_CTRL_PWR_CTRL_VREF_Pos,      /**< 60% power */
 817:Generated_Source\PSoC6\pdl\drivers\peripheral\sar/cy_sar.h ****     CY_SAR_VREF_PWR_50      = 3uL << SAR_CTRL_PWR_CTRL_VREF_Pos,      /**< 50% power */
 818:Generated_Source\PSoC6\pdl\drivers\peripheral\sar/cy_sar.h ****     CY_SAR_VREF_PWR_40      = 4uL << SAR_CTRL_PWR_CTRL_VREF_Pos,      /**< 40% power */
 819:Generated_Source\PSoC6\pdl\drivers\peripheral\sar/cy_sar.h ****     CY_SAR_VREF_PWR_30      = 5uL << SAR_CTRL_PWR_CTRL_VREF_Pos,      /**< 30% power */
 820:Generated_Source\PSoC6\pdl\drivers\peripheral\sar/cy_sar.h ****     CY_SAR_VREF_PWR_20      = 6uL << SAR_CTRL_PWR_CTRL_VREF_Pos,      /**< 20% power */
 821:Generated_Source\PSoC6\pdl\drivers\peripheral\sar/cy_sar.h ****     CY_SAR_VREF_PWR_10      = 7uL << SAR_CTRL_PWR_CTRL_VREF_Pos,      /**< 10% power */
 822:Generated_Source\PSoC6\pdl\drivers\peripheral\sar/cy_sar.h **** }cy_en_sar_ctrl_pwr_ctrl_vref_t;
 823:Generated_Source\PSoC6\pdl\drivers\peripheral\sar/cy_sar.h **** 
 824:Generated_Source\PSoC6\pdl\drivers\peripheral\sar/cy_sar.h **** /** Reference voltage selection definitions */
 825:Generated_Source\PSoC6\pdl\drivers\peripheral\sar/cy_sar.h **** typedef enum
 826:Generated_Source\PSoC6\pdl\drivers\peripheral\sar/cy_sar.h **** {
 827:Generated_Source\PSoC6\pdl\drivers\peripheral\sar/cy_sar.h ****     CY_SAR_VREF_SEL_BGR         = 4uL << SAR_CTRL_VREF_SEL_Pos,     /**< System wide bandgap from \
 828:Generated_Source\PSoC6\pdl\drivers\peripheral\sar/cy_sar.h ****     CY_SAR_VREF_SEL_EXT         = 5uL << SAR_CTRL_VREF_SEL_Pos,     /**< External Vref direct from 
 829:Generated_Source\PSoC6\pdl\drivers\peripheral\sar/cy_sar.h ****     CY_SAR_VREF_SEL_VDDA_DIV_2  = 6uL << SAR_CTRL_VREF_SEL_Pos,     /**< Vdda/2 (Vref buffer on) */
 830:Generated_Source\PSoC6\pdl\drivers\peripheral\sar/cy_sar.h ****     CY_SAR_VREF_SEL_VDDA        = 7uL << SAR_CTRL_VREF_SEL_Pos      /**< Vdda */
 831:Generated_Source\PSoC6\pdl\drivers\peripheral\sar/cy_sar.h **** }cy_en_sar_ctrl_vref_sel_t;
 832:Generated_Source\PSoC6\pdl\drivers\peripheral\sar/cy_sar.h **** 
 833:Generated_Source\PSoC6\pdl\drivers\peripheral\sar/cy_sar.h **** /** Vref bypass cap enable.
 834:Generated_Source\PSoC6\pdl\drivers\peripheral\sar/cy_sar.h **** * When enabled, a bypass capacitor should
 835:Generated_Source\PSoC6\pdl\drivers\peripheral\sar/cy_sar.h **** * be connected to the dedicated Vref pin of the device.
 836:Generated_Source\PSoC6\pdl\drivers\peripheral\sar/cy_sar.h **** * Refer to the device datasheet for the minimum bypass capacitor value to use.
 837:Generated_Source\PSoC6\pdl\drivers\peripheral\sar/cy_sar.h **** */
 838:Generated_Source\PSoC6\pdl\drivers\peripheral\sar/cy_sar.h **** typedef enum
 839:Generated_Source\PSoC6\pdl\drivers\peripheral\sar/cy_sar.h **** {
 840:Generated_Source\PSoC6\pdl\drivers\peripheral\sar/cy_sar.h ****     CY_SAR_BYPASS_CAP_DISABLE = 0uL << SAR_CTRL_VREF_BYP_CAP_EN_Pos,    /**< Disable Vref bypass ca
 841:Generated_Source\PSoC6\pdl\drivers\peripheral\sar/cy_sar.h ****     CY_SAR_BYPASS_CAP_ENABLE  = 1uL << SAR_CTRL_VREF_BYP_CAP_EN_Pos     /**< Enable Vref bypass cap
 842:Generated_Source\PSoC6\pdl\drivers\peripheral\sar/cy_sar.h **** }cy_en_sar_ctrl_bypass_cap_t;
 843:Generated_Source\PSoC6\pdl\drivers\peripheral\sar/cy_sar.h **** 
 844:Generated_Source\PSoC6\pdl\drivers\peripheral\sar/cy_sar.h **** /** Negative terminal (Vminus) selection definitions for single-ended channels.
 845:Generated_Source\PSoC6\pdl\drivers\peripheral\sar/cy_sar.h **** *
 846:Generated_Source\PSoC6\pdl\drivers\peripheral\sar/cy_sar.h **** * The Vminus input for single ended channels can be connected to
 847:Generated_Source\PSoC6\pdl\drivers\peripheral\sar/cy_sar.h **** * Vref, VSSA, or routed out to an external pin.
 848:Generated_Source\PSoC6\pdl\drivers\peripheral\sar/cy_sar.h **** * The options for routing to a pin are through Pin 1, Pin 3, Pin 5, or Pin 7
 849:Generated_Source\PSoC6\pdl\drivers\peripheral\sar/cy_sar.h **** * of the SARMUX dedicated port or an acore wire in AROUTE, if available on the device.
 850:Generated_Source\PSoC6\pdl\drivers\peripheral\sar/cy_sar.h **** *
 851:Generated_Source\PSoC6\pdl\drivers\peripheral\sar/cy_sar.h **** * \ref CY_SAR_NEG_SEL_VSSA_KELVIN comes straight from a Vssa pad without any shared branches
 852:Generated_Source\PSoC6\pdl\drivers\peripheral\sar/cy_sar.h **** * so as to keep quiet and avoid voltage drops.
 853:Generated_Source\PSoC6\pdl\drivers\peripheral\sar/cy_sar.h **** */
 854:Generated_Source\PSoC6\pdl\drivers\peripheral\sar/cy_sar.h **** typedef enum
ARM GAS  C:\Users\Rolf\AppData\Local\Temp\cc4tlliX.s 			page 47


 855:Generated_Source\PSoC6\pdl\drivers\peripheral\sar/cy_sar.h **** {
 856:Generated_Source\PSoC6\pdl\drivers\peripheral\sar/cy_sar.h ****     CY_SAR_NEG_SEL_VSSA_KELVIN  = 0uL << SAR_CTRL_NEG_SEL_Pos,  /**< Connect Vminus to VSSA_KELVIN 
 857:Generated_Source\PSoC6\pdl\drivers\peripheral\sar/cy_sar.h ****     CY_SAR_NEG_SEL_P1           = 2uL << SAR_CTRL_NEG_SEL_Pos,  /**< Connect Vminus to Pin 1 of SAR
 858:Generated_Source\PSoC6\pdl\drivers\peripheral\sar/cy_sar.h ****     CY_SAR_NEG_SEL_P3           = 3uL << SAR_CTRL_NEG_SEL_Pos,  /**< Connect Vminus to Pin 3 of SAR
 859:Generated_Source\PSoC6\pdl\drivers\peripheral\sar/cy_sar.h ****     CY_SAR_NEG_SEL_P5           = 4uL << SAR_CTRL_NEG_SEL_Pos,  /**< Connect Vminus to Pin 5 of SAR
 860:Generated_Source\PSoC6\pdl\drivers\peripheral\sar/cy_sar.h ****     CY_SAR_NEG_SEL_P7           = 5uL << SAR_CTRL_NEG_SEL_Pos,  /**< Connect Vminus to Pin 6 of SAR
 861:Generated_Source\PSoC6\pdl\drivers\peripheral\sar/cy_sar.h ****     CY_SAR_NEG_SEL_ACORE        = 6uL << SAR_CTRL_NEG_SEL_Pos,  /**< Connect Vminus to an ACORE in 
 862:Generated_Source\PSoC6\pdl\drivers\peripheral\sar/cy_sar.h ****     CY_SAR_NEG_SEL_VREF         = 7uL << SAR_CTRL_NEG_SEL_Pos,  /**< Connect Vminus to VREF input o
 863:Generated_Source\PSoC6\pdl\drivers\peripheral\sar/cy_sar.h **** }cy_en_sar_ctrl_neg_sel_t;
 864:Generated_Source\PSoC6\pdl\drivers\peripheral\sar/cy_sar.h **** 
 865:Generated_Source\PSoC6\pdl\drivers\peripheral\sar/cy_sar.h **** /** Enable hardware control of the switch between Vref and the Vminus input */
 866:Generated_Source\PSoC6\pdl\drivers\peripheral\sar/cy_sar.h **** typedef enum
 867:Generated_Source\PSoC6\pdl\drivers\peripheral\sar/cy_sar.h **** {
 868:Generated_Source\PSoC6\pdl\drivers\peripheral\sar/cy_sar.h ****     CY_SAR_CTRL_NEGVREF_FW_ONLY = 0uL << SAR_CTRL_SAR_HW_CTRL_NEGVREF_Pos,    /**< Only firmware co
 869:Generated_Source\PSoC6\pdl\drivers\peripheral\sar/cy_sar.h ****     CY_SAR_CTRL_NEGVREF_HW      = 1uL << SAR_CTRL_SAR_HW_CTRL_NEGVREF_Pos     /**< Enable hardware 
 870:Generated_Source\PSoC6\pdl\drivers\peripheral\sar/cy_sar.h **** }cy_en_sar_ctrl_hw_ctrl_negvref_t;
 871:Generated_Source\PSoC6\pdl\drivers\peripheral\sar/cy_sar.h **** 
 872:Generated_Source\PSoC6\pdl\drivers\peripheral\sar/cy_sar.h **** /** Configure the comparator latch delay */
 873:Generated_Source\PSoC6\pdl\drivers\peripheral\sar/cy_sar.h **** typedef enum
 874:Generated_Source\PSoC6\pdl\drivers\peripheral\sar/cy_sar.h **** {
 875:Generated_Source\PSoC6\pdl\drivers\peripheral\sar/cy_sar.h ****     CY_SAR_CTRL_COMP_DLY_2P5    = 0uL << SAR_CTRL_COMP_DLY_Pos,    /**< 2.5 ns delay, use for SAR c
 876:Generated_Source\PSoC6\pdl\drivers\peripheral\sar/cy_sar.h ****     CY_SAR_CTRL_COMP_DLY_4      = 1uL << SAR_CTRL_COMP_DLY_Pos,    /**< 4 ns delay, use for SAR con
 877:Generated_Source\PSoC6\pdl\drivers\peripheral\sar/cy_sar.h ****     CY_SAR_CTRL_COMP_DLY_10     = 2uL << SAR_CTRL_COMP_DLY_Pos,    /**< 10 ns delay, use for SAR co
 878:Generated_Source\PSoC6\pdl\drivers\peripheral\sar/cy_sar.h ****     CY_SAR_CTRL_COMP_DLY_12     = 3uL << SAR_CTRL_COMP_DLY_Pos     /**< 12 ns delay, use for SAR co
 879:Generated_Source\PSoC6\pdl\drivers\peripheral\sar/cy_sar.h **** }cy_en_sar_ctrl_comp_delay_t;
 880:Generated_Source\PSoC6\pdl\drivers\peripheral\sar/cy_sar.h **** 
 881:Generated_Source\PSoC6\pdl\drivers\peripheral\sar/cy_sar.h **** /** Configure the comparator power mode */
 882:Generated_Source\PSoC6\pdl\drivers\peripheral\sar/cy_sar.h **** typedef enum
 883:Generated_Source\PSoC6\pdl\drivers\peripheral\sar/cy_sar.h **** {
 884:Generated_Source\PSoC6\pdl\drivers\peripheral\sar/cy_sar.h ****     CY_SAR_COMP_PWR_100     = 0uL << SAR_CTRL_COMP_PWR_Pos,      /**< 100% power, use this for > 2 
 885:Generated_Source\PSoC6\pdl\drivers\peripheral\sar/cy_sar.h ****     CY_SAR_COMP_PWR_80      = 1uL << SAR_CTRL_COMP_PWR_Pos,      /**< 80% power, use this for 1.5 -
 886:Generated_Source\PSoC6\pdl\drivers\peripheral\sar/cy_sar.h ****     CY_SAR_COMP_PWR_60      = 2uL << SAR_CTRL_COMP_PWR_Pos,      /**< 60% power, use this for 1.0 -
 887:Generated_Source\PSoC6\pdl\drivers\peripheral\sar/cy_sar.h ****     CY_SAR_COMP_PWR_50      = 3uL << SAR_CTRL_COMP_PWR_Pos,      /**< 50% power, use this for 500 k
 888:Generated_Source\PSoC6\pdl\drivers\peripheral\sar/cy_sar.h ****     CY_SAR_COMP_PWR_40      = 4uL << SAR_CTRL_COMP_PWR_Pos,      /**< 40% power, use this for 250 -
 889:Generated_Source\PSoC6\pdl\drivers\peripheral\sar/cy_sar.h ****     CY_SAR_COMP_PWR_30      = 5uL << SAR_CTRL_COMP_PWR_Pos,      /**< 30% power, use this for 100 -
 890:Generated_Source\PSoC6\pdl\drivers\peripheral\sar/cy_sar.h ****     CY_SAR_COMP_PWR_20      = 6uL << SAR_CTRL_COMP_PWR_Pos,      /**< 20% power, use this for TDB s
 891:Generated_Source\PSoC6\pdl\drivers\peripheral\sar/cy_sar.h ****     CY_SAR_COMP_PWR_10      = 7uL << SAR_CTRL_COMP_PWR_Pos,      /**< 10% power, use this for < 100
 892:Generated_Source\PSoC6\pdl\drivers\peripheral\sar/cy_sar.h **** }cy_en_sar_ctrl_comp_pwr_t;
 893:Generated_Source\PSoC6\pdl\drivers\peripheral\sar/cy_sar.h **** 
 894:Generated_Source\PSoC6\pdl\drivers\peripheral\sar/cy_sar.h **** /** Enable or disable the SARMUX during Deep Sleep power mode. */
 895:Generated_Source\PSoC6\pdl\drivers\peripheral\sar/cy_sar.h **** typedef enum
 896:Generated_Source\PSoC6\pdl\drivers\peripheral\sar/cy_sar.h **** {
 897:Generated_Source\PSoC6\pdl\drivers\peripheral\sar/cy_sar.h ****     CY_SAR_DEEPSLEEP_SARMUX_OFF = 0uL << SAR_CTRL_DEEPSLEEP_ON_Pos,    /**< Disable SARMUX operatio
 898:Generated_Source\PSoC6\pdl\drivers\peripheral\sar/cy_sar.h ****     CY_SAR_DEEPSLEEP_SARMUX_ON  = 1uL << SAR_CTRL_DEEPSLEEP_ON_Pos     /**< Enable SARMUX operation
 899:Generated_Source\PSoC6\pdl\drivers\peripheral\sar/cy_sar.h **** }cy_en_sar_ctrl_sarmux_deep_sleep_t;
 900:Generated_Source\PSoC6\pdl\drivers\peripheral\sar/cy_sar.h **** 
 901:Generated_Source\PSoC6\pdl\drivers\peripheral\sar/cy_sar.h **** /** Enable or disable the SARSEQ control of routing switches */
 902:Generated_Source\PSoC6\pdl\drivers\peripheral\sar/cy_sar.h **** typedef enum
 903:Generated_Source\PSoC6\pdl\drivers\peripheral\sar/cy_sar.h **** {
 904:Generated_Source\PSoC6\pdl\drivers\peripheral\sar/cy_sar.h ****     CY_SAR_SARSEQ_SWITCH_ENABLE    = 0uL << SAR_CTRL_SWITCH_DISABLE_Pos,    /**< Enable the SARSEQ 
 905:Generated_Source\PSoC6\pdl\drivers\peripheral\sar/cy_sar.h ****     CY_SAR_SARSEQ_SWITCH_DISABLE   = 1uL << SAR_CTRL_SWITCH_DISABLE_Pos     /**< Disable the SARSEQ
 906:Generated_Source\PSoC6\pdl\drivers\peripheral\sar/cy_sar.h **** }cy_en_sar_ctrl_sarseq_routing_switches_t;
 907:Generated_Source\PSoC6\pdl\drivers\peripheral\sar/cy_sar.h **** 
 908:Generated_Source\PSoC6\pdl\drivers\peripheral\sar/cy_sar.h **** /* \} */
 909:Generated_Source\PSoC6\pdl\drivers\peripheral\sar/cy_sar.h **** 
 910:Generated_Source\PSoC6\pdl\drivers\peripheral\sar/cy_sar.h **** /** \addtogroup group_sar_sample_ctrl_register_enums
 911:Generated_Source\PSoC6\pdl\drivers\peripheral\sar/cy_sar.h **** * This set of enumerations are used in configuring the SAR SAMPLE_CTRL register
ARM GAS  C:\Users\Rolf\AppData\Local\Temp\cc4tlliX.s 			page 48


 912:Generated_Source\PSoC6\pdl\drivers\peripheral\sar/cy_sar.h **** * \{
 913:Generated_Source\PSoC6\pdl\drivers\peripheral\sar/cy_sar.h **** */
 914:Generated_Source\PSoC6\pdl\drivers\peripheral\sar/cy_sar.h **** /** Configure result alignment, either left or right aligned.
 915:Generated_Source\PSoC6\pdl\drivers\peripheral\sar/cy_sar.h **** *
 916:Generated_Source\PSoC6\pdl\drivers\peripheral\sar/cy_sar.h **** * \note
 917:Generated_Source\PSoC6\pdl\drivers\peripheral\sar/cy_sar.h **** * Averaging always uses right alignment. If the \ref CY_SAR_LEFT_ALIGN
 918:Generated_Source\PSoC6\pdl\drivers\peripheral\sar/cy_sar.h **** * is selected with averaging enabled, it is ignored.
 919:Generated_Source\PSoC6\pdl\drivers\peripheral\sar/cy_sar.h **** *
 920:Generated_Source\PSoC6\pdl\drivers\peripheral\sar/cy_sar.h **** * \note
 921:Generated_Source\PSoC6\pdl\drivers\peripheral\sar/cy_sar.h **** * The voltage conversion functions (\ref Cy_SAR_CountsTo_Volts, \ref Cy_SAR_CountsTo_mVolts,
 922:Generated_Source\PSoC6\pdl\drivers\peripheral\sar/cy_sar.h **** * \ref Cy_SAR_CountsTo_uVolts) are only valid for right alignment.
 923:Generated_Source\PSoC6\pdl\drivers\peripheral\sar/cy_sar.h **** * */
 924:Generated_Source\PSoC6\pdl\drivers\peripheral\sar/cy_sar.h **** typedef enum
 925:Generated_Source\PSoC6\pdl\drivers\peripheral\sar/cy_sar.h **** {
 926:Generated_Source\PSoC6\pdl\drivers\peripheral\sar/cy_sar.h ****     CY_SAR_RIGHT_ALIGN  = 0uL << SAR_SAMPLE_CTRL_LEFT_ALIGN_Pos,    /**< Right align result data to
 927:Generated_Source\PSoC6\pdl\drivers\peripheral\sar/cy_sar.h ****     CY_SAR_LEFT_ALIGN   = 1uL << SAR_SAMPLE_CTRL_LEFT_ALIGN_Pos     /**< Left align result data to 
 928:Generated_Source\PSoC6\pdl\drivers\peripheral\sar/cy_sar.h **** }cy_en_sar_sample_ctrl_result_align_t;
 929:Generated_Source\PSoC6\pdl\drivers\peripheral\sar/cy_sar.h **** 
 930:Generated_Source\PSoC6\pdl\drivers\peripheral\sar/cy_sar.h **** /** Configure format, signed or unsigned, of single-ended channels */
 931:Generated_Source\PSoC6\pdl\drivers\peripheral\sar/cy_sar.h **** typedef enum
 932:Generated_Source\PSoC6\pdl\drivers\peripheral\sar/cy_sar.h **** {
 933:Generated_Source\PSoC6\pdl\drivers\peripheral\sar/cy_sar.h ****     CY_SAR_SINGLE_ENDED_UNSIGNED  = 0uL << SAR_SAMPLE_CTRL_SINGLE_ENDED_SIGNED_Pos,    /**< Result 
 934:Generated_Source\PSoC6\pdl\drivers\peripheral\sar/cy_sar.h ****     CY_SAR_SINGLE_ENDED_SIGNED    = 1uL << SAR_SAMPLE_CTRL_SINGLE_ENDED_SIGNED_Pos     /**< Result 
 935:Generated_Source\PSoC6\pdl\drivers\peripheral\sar/cy_sar.h **** }cy_en_sar_sample_ctrl_single_ended_format_t;
 936:Generated_Source\PSoC6\pdl\drivers\peripheral\sar/cy_sar.h **** 
 937:Generated_Source\PSoC6\pdl\drivers\peripheral\sar/cy_sar.h **** /** Configure format, signed or unsigned, of differential channels */
 938:Generated_Source\PSoC6\pdl\drivers\peripheral\sar/cy_sar.h **** typedef enum
 939:Generated_Source\PSoC6\pdl\drivers\peripheral\sar/cy_sar.h **** {
 940:Generated_Source\PSoC6\pdl\drivers\peripheral\sar/cy_sar.h ****     CY_SAR_DIFFERENTIAL_UNSIGNED  = 0uL << SAR_SAMPLE_CTRL_DIFFERENTIAL_SIGNED_Pos,    /**< Result 
 941:Generated_Source\PSoC6\pdl\drivers\peripheral\sar/cy_sar.h ****     CY_SAR_DIFFERENTIAL_SIGNED    = 1uL << SAR_SAMPLE_CTRL_DIFFERENTIAL_SIGNED_Pos     /**< Result 
 942:Generated_Source\PSoC6\pdl\drivers\peripheral\sar/cy_sar.h **** }cy_en_sar_sample_ctrl_differential_format_t;
 943:Generated_Source\PSoC6\pdl\drivers\peripheral\sar/cy_sar.h **** 
 944:Generated_Source\PSoC6\pdl\drivers\peripheral\sar/cy_sar.h **** /** Configure number of samples for averaging.
 945:Generated_Source\PSoC6\pdl\drivers\peripheral\sar/cy_sar.h **** * This applies only to channels with averaging enabled.
 946:Generated_Source\PSoC6\pdl\drivers\peripheral\sar/cy_sar.h **** */
 947:Generated_Source\PSoC6\pdl\drivers\peripheral\sar/cy_sar.h **** typedef enum
 948:Generated_Source\PSoC6\pdl\drivers\peripheral\sar/cy_sar.h **** {
 949:Generated_Source\PSoC6\pdl\drivers\peripheral\sar/cy_sar.h ****     CY_SAR_AVG_CNT_2          = 0uL << SAR_SAMPLE_CTRL_AVG_CNT_Pos,    /**< Set samples averaged to
 950:Generated_Source\PSoC6\pdl\drivers\peripheral\sar/cy_sar.h ****     CY_SAR_AVG_CNT_4          = 1uL << SAR_SAMPLE_CTRL_AVG_CNT_Pos,    /**< Set samples averaged to
 951:Generated_Source\PSoC6\pdl\drivers\peripheral\sar/cy_sar.h ****     CY_SAR_AVG_CNT_8          = 2uL << SAR_SAMPLE_CTRL_AVG_CNT_Pos,    /**< Set samples averaged to
 952:Generated_Source\PSoC6\pdl\drivers\peripheral\sar/cy_sar.h ****     CY_SAR_AVG_CNT_16         = 3uL << SAR_SAMPLE_CTRL_AVG_CNT_Pos,    /**< Set samples averaged to
 953:Generated_Source\PSoC6\pdl\drivers\peripheral\sar/cy_sar.h ****     CY_SAR_AVG_CNT_32         = 4uL << SAR_SAMPLE_CTRL_AVG_CNT_Pos,    /**< Set samples averaged to
 954:Generated_Source\PSoC6\pdl\drivers\peripheral\sar/cy_sar.h ****     CY_SAR_AVG_CNT_64         = 5uL << SAR_SAMPLE_CTRL_AVG_CNT_Pos,    /**< Set samples averaged to
 955:Generated_Source\PSoC6\pdl\drivers\peripheral\sar/cy_sar.h ****     CY_SAR_AVG_CNT_128        = 6uL << SAR_SAMPLE_CTRL_AVG_CNT_Pos,    /**< Set samples averaged to
 956:Generated_Source\PSoC6\pdl\drivers\peripheral\sar/cy_sar.h ****     CY_SAR_AVG_CNT_256        = 7uL << SAR_SAMPLE_CTRL_AVG_CNT_Pos     /**< Set samples averaged to
 957:Generated_Source\PSoC6\pdl\drivers\peripheral\sar/cy_sar.h **** }cy_en_sar_sample_ctrl_avg_cnt_t;
 958:Generated_Source\PSoC6\pdl\drivers\peripheral\sar/cy_sar.h **** 
 959:Generated_Source\PSoC6\pdl\drivers\peripheral\sar/cy_sar.h **** /** Configure the averaging mode.
 960:Generated_Source\PSoC6\pdl\drivers\peripheral\sar/cy_sar.h **** *
 961:Generated_Source\PSoC6\pdl\drivers\peripheral\sar/cy_sar.h **** * - Sequential accumulate and dump: a channel will be sampled back to back.
 962:Generated_Source\PSoC6\pdl\drivers\peripheral\sar/cy_sar.h **** *   The result is added to a running sum in a 20-bit register. At the end
 963:Generated_Source\PSoC6\pdl\drivers\peripheral\sar/cy_sar.h **** *   of the scan, the accumulated value is shifted right to fit into 16 bits
 964:Generated_Source\PSoC6\pdl\drivers\peripheral\sar/cy_sar.h **** *   and stored into the CHAN_RESULT register.
 965:Generated_Source\PSoC6\pdl\drivers\peripheral\sar/cy_sar.h **** * - Sequential fixed:  a channel will be sampled back to back.
 966:Generated_Source\PSoC6\pdl\drivers\peripheral\sar/cy_sar.h **** *   The result is added to a running sum in a 20-bit register. At the end
 967:Generated_Source\PSoC6\pdl\drivers\peripheral\sar/cy_sar.h **** *   of the scan, the accumulated value is shifted right to fit into 12 bits
 968:Generated_Source\PSoC6\pdl\drivers\peripheral\sar/cy_sar.h **** *   and stored into the CHAN_RESULT register.
ARM GAS  C:\Users\Rolf\AppData\Local\Temp\cc4tlliX.s 			page 49


 969:Generated_Source\PSoC6\pdl\drivers\peripheral\sar/cy_sar.h **** * - Interleaved: a channel will be sampled once per scan.
 970:Generated_Source\PSoC6\pdl\drivers\peripheral\sar/cy_sar.h **** *   The result is added to a running sum in a 16-bit register.
 971:Generated_Source\PSoC6\pdl\drivers\peripheral\sar/cy_sar.h **** *   In the scan where the final averaging count is reached,
 972:Generated_Source\PSoC6\pdl\drivers\peripheral\sar/cy_sar.h **** *   the accumulated value is shifted right to fit into 12 bits
 973:Generated_Source\PSoC6\pdl\drivers\peripheral\sar/cy_sar.h **** *   and stored into the CHAN_RESULT register.
 974:Generated_Source\PSoC6\pdl\drivers\peripheral\sar/cy_sar.h **** *   In all other scans, the CHAN_RESULT will have an invalid result.
 975:Generated_Source\PSoC6\pdl\drivers\peripheral\sar/cy_sar.h **** *   In interleaved mode, make sure that the averaging
 976:Generated_Source\PSoC6\pdl\drivers\peripheral\sar/cy_sar.h **** *   count is low enough to ensure that the intermediate value does not exceed 16 bits,
 977:Generated_Source\PSoC6\pdl\drivers\peripheral\sar/cy_sar.h **** *   that is averaging count is 16 or less. Otherwise, the MSBs will be lost.
 978:Generated_Source\PSoC6\pdl\drivers\peripheral\sar/cy_sar.h **** *   In the special case that averaging is enabled for all enabled channels
 979:Generated_Source\PSoC6\pdl\drivers\peripheral\sar/cy_sar.h **** *   and interleaved mode is used, the interrupt frequency
 980:Generated_Source\PSoC6\pdl\drivers\peripheral\sar/cy_sar.h **** *   will be reduced by a factor of the number of samples averaged.
 981:Generated_Source\PSoC6\pdl\drivers\peripheral\sar/cy_sar.h **** */
 982:Generated_Source\PSoC6\pdl\drivers\peripheral\sar/cy_sar.h **** typedef enum
 983:Generated_Source\PSoC6\pdl\drivers\peripheral\sar/cy_sar.h **** {
 984:Generated_Source\PSoC6\pdl\drivers\peripheral\sar/cy_sar.h ****     CY_SAR_AVG_MODE_SEQUENTIAL_ACCUM    = 0uL,                               /**< Set mode to seque
 985:Generated_Source\PSoC6\pdl\drivers\peripheral\sar/cy_sar.h ****     CY_SAR_AVG_MODE_SEQUENTIAL_FIXED    = SAR_SAMPLE_CTRL_AVG_SHIFT_Msk,     /**< Set mode to seque
 986:Generated_Source\PSoC6\pdl\drivers\peripheral\sar/cy_sar.h ****     CY_SAR_AVG_MODE_INTERLEAVED         = SAR_SAMPLE_CTRL_AVG_MODE_Msk,      /**< Set mode to inter
 987:Generated_Source\PSoC6\pdl\drivers\peripheral\sar/cy_sar.h **** }cy_en_sar_sample_ctrl_avg_mode_t;
 988:Generated_Source\PSoC6\pdl\drivers\peripheral\sar/cy_sar.h **** 
 989:Generated_Source\PSoC6\pdl\drivers\peripheral\sar/cy_sar.h **** /** Configure the trigger mode.
 990:Generated_Source\PSoC6\pdl\drivers\peripheral\sar/cy_sar.h **** *
 991:Generated_Source\PSoC6\pdl\drivers\peripheral\sar/cy_sar.h **** * Firmware triggering is always enabled and can be single shot or continuous.
 992:Generated_Source\PSoC6\pdl\drivers\peripheral\sar/cy_sar.h **** * Additionally, hardware triggering can be enabled with the option to be
 993:Generated_Source\PSoC6\pdl\drivers\peripheral\sar/cy_sar.h **** * edge or level sensitive.
 994:Generated_Source\PSoC6\pdl\drivers\peripheral\sar/cy_sar.h **** */
 995:Generated_Source\PSoC6\pdl\drivers\peripheral\sar/cy_sar.h **** typedef enum
 996:Generated_Source\PSoC6\pdl\drivers\peripheral\sar/cy_sar.h **** {
 997:Generated_Source\PSoC6\pdl\drivers\peripheral\sar/cy_sar.h ****     CY_SAR_TRIGGER_MODE_FW_ONLY        = 0uL,                                /**< Firmware trigger 
 998:Generated_Source\PSoC6\pdl\drivers\peripheral\sar/cy_sar.h ****     CY_SAR_TRIGGER_MODE_FW_AND_HWEDGE  = SAR_SAMPLE_CTRL_DSI_TRIGGER_EN_Msk, /**< Enable edge sensi
 999:Generated_Source\PSoC6\pdl\drivers\peripheral\sar/cy_sar.h ****     CY_SAR_TRIGGER_MODE_FW_AND_HWLEVEL = SAR_SAMPLE_CTRL_DSI_TRIGGER_EN_Msk | SAR_SAMPLE_CTRL_DSI_T
1000:Generated_Source\PSoC6\pdl\drivers\peripheral\sar/cy_sar.h **** }cy_en_sar_sample_ctrl_trigger_mode_t;
1001:Generated_Source\PSoC6\pdl\drivers\peripheral\sar/cy_sar.h **** 
1002:Generated_Source\PSoC6\pdl\drivers\peripheral\sar/cy_sar.h **** /* \} */
1003:Generated_Source\PSoC6\pdl\drivers\peripheral\sar/cy_sar.h **** 
1004:Generated_Source\PSoC6\pdl\drivers\peripheral\sar/cy_sar.h **** /** \addtogroup group_sar_sample_time_shift_enums
1005:Generated_Source\PSoC6\pdl\drivers\peripheral\sar/cy_sar.h **** * This set of enumerations aids in configuring the SAR SAMPLE_TIME* registers
1006:Generated_Source\PSoC6\pdl\drivers\peripheral\sar/cy_sar.h **** * \{
1007:Generated_Source\PSoC6\pdl\drivers\peripheral\sar/cy_sar.h **** */
1008:Generated_Source\PSoC6\pdl\drivers\peripheral\sar/cy_sar.h **** /** Configure the sample time by using these shifts */
1009:Generated_Source\PSoC6\pdl\drivers\peripheral\sar/cy_sar.h **** typedef enum
1010:Generated_Source\PSoC6\pdl\drivers\peripheral\sar/cy_sar.h **** {
1011:Generated_Source\PSoC6\pdl\drivers\peripheral\sar/cy_sar.h ****     CY_SAR_SAMPLE_TIME0_SHIFT       = SAR_SAMPLE_TIME01_SAMPLE_TIME0_Pos,             /**< Shift fo
1012:Generated_Source\PSoC6\pdl\drivers\peripheral\sar/cy_sar.h ****     CY_SAR_SAMPLE_TIME1_SHIFT       = SAR_SAMPLE_TIME01_SAMPLE_TIME1_Pos,             /**< Shift fo
1013:Generated_Source\PSoC6\pdl\drivers\peripheral\sar/cy_sar.h ****     CY_SAR_SAMPLE_TIME2_SHIFT       = SAR_SAMPLE_TIME23_SAMPLE_TIME2_Pos,             /**< Shift fo
1014:Generated_Source\PSoC6\pdl\drivers\peripheral\sar/cy_sar.h ****     CY_SAR_SAMPLE_TIME3_SHIFT       = SAR_SAMPLE_TIME23_SAMPLE_TIME3_Pos,             /**< Shift fo
1015:Generated_Source\PSoC6\pdl\drivers\peripheral\sar/cy_sar.h **** }cy_en_sar_sample_time_shift_t;
1016:Generated_Source\PSoC6\pdl\drivers\peripheral\sar/cy_sar.h **** /* \} */
1017:Generated_Source\PSoC6\pdl\drivers\peripheral\sar/cy_sar.h **** 
1018:Generated_Source\PSoC6\pdl\drivers\peripheral\sar/cy_sar.h **** /** \addtogroup group_sar_range_thres_register_enums
1019:Generated_Source\PSoC6\pdl\drivers\peripheral\sar/cy_sar.h **** * This set of enumerations aids in configuring the SAR RANGE* registers
1020:Generated_Source\PSoC6\pdl\drivers\peripheral\sar/cy_sar.h **** * \{
1021:Generated_Source\PSoC6\pdl\drivers\peripheral\sar/cy_sar.h **** */
1022:Generated_Source\PSoC6\pdl\drivers\peripheral\sar/cy_sar.h **** /** Configure the lower and upper thresholds for range detection
1023:Generated_Source\PSoC6\pdl\drivers\peripheral\sar/cy_sar.h **** *
1024:Generated_Source\PSoC6\pdl\drivers\peripheral\sar/cy_sar.h **** * The SARSEQ supports range detection to allow for automatic detection of sample
1025:Generated_Source\PSoC6\pdl\drivers\peripheral\sar/cy_sar.h **** * values compared to two programmable thresholds without CPU involvement.
ARM GAS  C:\Users\Rolf\AppData\Local\Temp\cc4tlliX.s 			page 50


1026:Generated_Source\PSoC6\pdl\drivers\peripheral\sar/cy_sar.h **** * Range detection is defined by two global thresholds and a condition.
1027:Generated_Source\PSoC6\pdl\drivers\peripheral\sar/cy_sar.h **** * The RANGE_LOW value defines the lower threshold and RANGE_HIGH defines
1028:Generated_Source\PSoC6\pdl\drivers\peripheral\sar/cy_sar.h **** * the upper threshold of the range.
1029:Generated_Source\PSoC6\pdl\drivers\peripheral\sar/cy_sar.h **** *
1030:Generated_Source\PSoC6\pdl\drivers\peripheral\sar/cy_sar.h **** * Range detect is done after averaging, alignment, and sign extension (if applicable).
1031:Generated_Source\PSoC6\pdl\drivers\peripheral\sar/cy_sar.h **** * In other words, the thresholds values must have the same data format as the result data.
1032:Generated_Source\PSoC6\pdl\drivers\peripheral\sar/cy_sar.h **** * Range detection is always done for all channels scanned. By making RANGE_INTR_MASK=0,
1033:Generated_Source\PSoC6\pdl\drivers\peripheral\sar/cy_sar.h **** * the firmware can choose to ignore the range detect interrupt for any channel.
1034:Generated_Source\PSoC6\pdl\drivers\peripheral\sar/cy_sar.h **** */
1035:Generated_Source\PSoC6\pdl\drivers\peripheral\sar/cy_sar.h **** typedef enum
1036:Generated_Source\PSoC6\pdl\drivers\peripheral\sar/cy_sar.h **** {
1037:Generated_Source\PSoC6\pdl\drivers\peripheral\sar/cy_sar.h ****     CY_SAR_RANGE_LOW_SHIFT      = SAR_RANGE_THRES_RANGE_LOW_Pos,        /**< Shift for setting lowe
1038:Generated_Source\PSoC6\pdl\drivers\peripheral\sar/cy_sar.h ****     CY_SAR_RANGE_HIGH_SHIFT     = SAR_RANGE_THRES_RANGE_HIGH_Pos,       /**< Shift for setting uppe
1039:Generated_Source\PSoC6\pdl\drivers\peripheral\sar/cy_sar.h **** }cy_en_sar_range_thres_shift_t;
1040:Generated_Source\PSoC6\pdl\drivers\peripheral\sar/cy_sar.h **** 
1041:Generated_Source\PSoC6\pdl\drivers\peripheral\sar/cy_sar.h **** /** Configure the condition (below, inside, above, or outside) of the range detection interrupt */
1042:Generated_Source\PSoC6\pdl\drivers\peripheral\sar/cy_sar.h **** typedef enum
1043:Generated_Source\PSoC6\pdl\drivers\peripheral\sar/cy_sar.h **** {
1044:Generated_Source\PSoC6\pdl\drivers\peripheral\sar/cy_sar.h ****     CY_SAR_RANGE_COND_BELOW     = 0uL,  /**< Range interrupt detected when result < RANGE_LOW */
1045:Generated_Source\PSoC6\pdl\drivers\peripheral\sar/cy_sar.h ****     CY_SAR_RANGE_COND_INSIDE    = 1uL,  /**< Range interrupt detected when RANGE_LOW <= result < RA
1046:Generated_Source\PSoC6\pdl\drivers\peripheral\sar/cy_sar.h ****     CY_SAR_RANGE_COND_ABOVE     = 2uL,  /**< Range interrupt detected when RANGE_HIGH <= result */
1047:Generated_Source\PSoC6\pdl\drivers\peripheral\sar/cy_sar.h ****     CY_SAR_RANGE_COND_OUTSIDE   = 3uL,  /**< Range interrupt detected when result < RANGE_LOW || RA
1048:Generated_Source\PSoC6\pdl\drivers\peripheral\sar/cy_sar.h **** }cy_en_sar_range_detect_condition_t;
1049:Generated_Source\PSoC6\pdl\drivers\peripheral\sar/cy_sar.h **** /* \} */
1050:Generated_Source\PSoC6\pdl\drivers\peripheral\sar/cy_sar.h **** 
1051:Generated_Source\PSoC6\pdl\drivers\peripheral\sar/cy_sar.h **** /** \addtogroup group_sar_chan_config_register_enums
1052:Generated_Source\PSoC6\pdl\drivers\peripheral\sar/cy_sar.h **** * This set of enumerations aids in configuring the SAR CHAN_CONFIG register
1053:Generated_Source\PSoC6\pdl\drivers\peripheral\sar/cy_sar.h **** * \{
1054:Generated_Source\PSoC6\pdl\drivers\peripheral\sar/cy_sar.h **** */
1055:Generated_Source\PSoC6\pdl\drivers\peripheral\sar/cy_sar.h **** /** Configure the input mode of the channel
1056:Generated_Source\PSoC6\pdl\drivers\peripheral\sar/cy_sar.h **** *
1057:Generated_Source\PSoC6\pdl\drivers\peripheral\sar/cy_sar.h **** * - Single ended channel: the \ref cy_en_sar_ctrl_neg_sel_t selection in the \ref group_sar_init_st
1058:Generated_Source\PSoC6\pdl\drivers\peripheral\sar/cy_sar.h **** *   determines what drives the Vminus pin
1059:Generated_Source\PSoC6\pdl\drivers\peripheral\sar/cy_sar.h **** * - Differential paired: Vplus and Vminus are a pair. Bit 0 of \ref cy_en_sar_chan_config_pos_pin_a
1060:Generated_Source\PSoC6\pdl\drivers\peripheral\sar/cy_sar.h **** *   is ignored and considered to be 0.
1061:Generated_Source\PSoC6\pdl\drivers\peripheral\sar/cy_sar.h **** *   In other words, \ref cy_en_sar_chan_config_pos_pin_addr_t "POS_PIN_ADDR" points to the even pin
1062:Generated_Source\PSoC6\pdl\drivers\peripheral\sar/cy_sar.h **** *   The even pin is connected to Vplus and the odd pin is connected to Vminus.
1063:Generated_Source\PSoC6\pdl\drivers\peripheral\sar/cy_sar.h **** *   \ref cy_en_sar_chan_config_pos_port_addr_t "POS_PORT_ADDR" is used to identify the port that co
1064:Generated_Source\PSoC6\pdl\drivers\peripheral\sar/cy_sar.h **** * - Differential unpaired: The \ref cy_en_sar_chan_config_neg_pin_addr_t "NEG_PIN_ADDR" and
1065:Generated_Source\PSoC6\pdl\drivers\peripheral\sar/cy_sar.h **** *   \ref cy_en_sar_chan_config_neg_port_addr_t "NEG_PORT_ADDR" determine what drives the Vminus pin
1066:Generated_Source\PSoC6\pdl\drivers\peripheral\sar/cy_sar.h **** *   This is a variation of differential mode with no even-odd pair limitation
1067:Generated_Source\PSoC6\pdl\drivers\peripheral\sar/cy_sar.h **** */
1068:Generated_Source\PSoC6\pdl\drivers\peripheral\sar/cy_sar.h **** typedef enum
1069:Generated_Source\PSoC6\pdl\drivers\peripheral\sar/cy_sar.h **** {
1070:Generated_Source\PSoC6\pdl\drivers\peripheral\sar/cy_sar.h ****     CY_SAR_CHAN_SINGLE_ENDED            = 0uL,                                     /**< Single ende
1071:Generated_Source\PSoC6\pdl\drivers\peripheral\sar/cy_sar.h ****     CY_SAR_CHAN_DIFFERENTIAL_PAIRED     = SAR_CHAN_CONFIG_DIFFERENTIAL_EN_Msk,     /**< Differentia
1072:Generated_Source\PSoC6\pdl\drivers\peripheral\sar/cy_sar.h ****     CY_SAR_CHAN_DIFFERENTIAL_UNPAIRED   = SAR_CHAN_CONFIG_NEG_ADDR_EN_Msk          /**< Differentia
1073:Generated_Source\PSoC6\pdl\drivers\peripheral\sar/cy_sar.h **** }cy_en_sar_chan_config_input_mode_t;
1074:Generated_Source\PSoC6\pdl\drivers\peripheral\sar/cy_sar.h **** 
1075:Generated_Source\PSoC6\pdl\drivers\peripheral\sar/cy_sar.h **** /** Configure address of the pin connected to the Vplus terminal of the SARADC. */
1076:Generated_Source\PSoC6\pdl\drivers\peripheral\sar/cy_sar.h **** typedef enum
1077:Generated_Source\PSoC6\pdl\drivers\peripheral\sar/cy_sar.h **** {
1078:Generated_Source\PSoC6\pdl\drivers\peripheral\sar/cy_sar.h ****     CY_SAR_CHAN_POS_PIN_ADDR_0     = 0uL,                                            /**< Pin 0 on 
1079:Generated_Source\PSoC6\pdl\drivers\peripheral\sar/cy_sar.h ****     CY_SAR_CHAN_POS_PIN_ADDR_1     = 1uL << SAR_CHAN_CONFIG_POS_PIN_ADDR_Pos,        /**< Pin 1 on 
1080:Generated_Source\PSoC6\pdl\drivers\peripheral\sar/cy_sar.h ****     CY_SAR_CHAN_POS_PIN_ADDR_2     = 2uL << SAR_CHAN_CONFIG_POS_PIN_ADDR_Pos,        /**< Pin 2 on 
1081:Generated_Source\PSoC6\pdl\drivers\peripheral\sar/cy_sar.h ****     CY_SAR_CHAN_POS_PIN_ADDR_3     = 3uL << SAR_CHAN_CONFIG_POS_PIN_ADDR_Pos,        /**< Pin 3 on 
1082:Generated_Source\PSoC6\pdl\drivers\peripheral\sar/cy_sar.h ****     CY_SAR_CHAN_POS_PIN_ADDR_4     = 4uL << SAR_CHAN_CONFIG_POS_PIN_ADDR_Pos,        /**< Pin 4 on 
ARM GAS  C:\Users\Rolf\AppData\Local\Temp\cc4tlliX.s 			page 51


1083:Generated_Source\PSoC6\pdl\drivers\peripheral\sar/cy_sar.h ****     CY_SAR_CHAN_POS_PIN_ADDR_5     = 5uL << SAR_CHAN_CONFIG_POS_PIN_ADDR_Pos,        /**< Pin 5 on 
1084:Generated_Source\PSoC6\pdl\drivers\peripheral\sar/cy_sar.h ****     CY_SAR_CHAN_POS_PIN_ADDR_6     = 6uL << SAR_CHAN_CONFIG_POS_PIN_ADDR_Pos,        /**< Pin 6 on 
1085:Generated_Source\PSoC6\pdl\drivers\peripheral\sar/cy_sar.h ****     CY_SAR_CHAN_POS_PIN_ADDR_7     = 7uL << SAR_CHAN_CONFIG_POS_PIN_ADDR_Pos,        /**< Pin 7 on 
1086:Generated_Source\PSoC6\pdl\drivers\peripheral\sar/cy_sar.h **** }cy_en_sar_chan_config_pos_pin_addr_t;
1087:Generated_Source\PSoC6\pdl\drivers\peripheral\sar/cy_sar.h **** 
1088:Generated_Source\PSoC6\pdl\drivers\peripheral\sar/cy_sar.h **** /** Configure address of the port that contains the pin connected to the Vplus terminal of the SARA
1089:Generated_Source\PSoC6\pdl\drivers\peripheral\sar/cy_sar.h **** *
1090:Generated_Source\PSoC6\pdl\drivers\peripheral\sar/cy_sar.h **** * - \ref CY_SAR_POS_PORT_ADDR_SARMUX is for the dedicated SARMUX port (8 pins)
1091:Generated_Source\PSoC6\pdl\drivers\peripheral\sar/cy_sar.h **** * - Port 1 through 4 are respectively the pins of CTB0, CTB1, CTB2, and CTB3 (if present)
1092:Generated_Source\PSoC6\pdl\drivers\peripheral\sar/cy_sar.h **** * - Port 7, 5, and 6 (VPORT0/1/2) are the groups of internal signals that can be selected
1093:Generated_Source\PSoC6\pdl\drivers\peripheral\sar/cy_sar.h **** *   in the SARMUX or AROUTE (if present).
1094:Generated_Source\PSoC6\pdl\drivers\peripheral\sar/cy_sar.h **** *
1095:Generated_Source\PSoC6\pdl\drivers\peripheral\sar/cy_sar.h **** * See the \ref group_sar_sarmux section for more guidance.
1096:Generated_Source\PSoC6\pdl\drivers\peripheral\sar/cy_sar.h **** */
1097:Generated_Source\PSoC6\pdl\drivers\peripheral\sar/cy_sar.h **** typedef enum
1098:Generated_Source\PSoC6\pdl\drivers\peripheral\sar/cy_sar.h **** {
1099:Generated_Source\PSoC6\pdl\drivers\peripheral\sar/cy_sar.h ****     CY_SAR_POS_PORT_ADDR_SARMUX         = 0uL,                                       /**< Dedicated
1100:Generated_Source\PSoC6\pdl\drivers\peripheral\sar/cy_sar.h ****     CY_SAR_POS_PORT_ADDR_CTB0           = 1uL << SAR_CHAN_CONFIG_POS_PORT_ADDR_Pos,  /**< Outputs f
1101:Generated_Source\PSoC6\pdl\drivers\peripheral\sar/cy_sar.h ****     CY_SAR_POS_PORT_ADDR_CTB1           = 2uL << SAR_CHAN_CONFIG_POS_PORT_ADDR_Pos,  /**< Outputs f
1102:Generated_Source\PSoC6\pdl\drivers\peripheral\sar/cy_sar.h ****     CY_SAR_POS_PORT_ADDR_CTB2           = 3uL << SAR_CHAN_CONFIG_POS_PORT_ADDR_Pos,  /**< Outputs f
1103:Generated_Source\PSoC6\pdl\drivers\peripheral\sar/cy_sar.h ****     CY_SAR_POS_PORT_ADDR_CTB3           = 4uL << SAR_CHAN_CONFIG_POS_PORT_ADDR_Pos,  /**< Outputs f
1104:Generated_Source\PSoC6\pdl\drivers\peripheral\sar/cy_sar.h ****     CY_SAR_POS_PORT_ADDR_AROUTE_VIRT2   = 5uL << SAR_CHAN_CONFIG_POS_PORT_ADDR_Pos,  /**< AROUTE vi
1105:Generated_Source\PSoC6\pdl\drivers\peripheral\sar/cy_sar.h ****     CY_SAR_POS_PORT_ADDR_AROUTE_VIRT1   = 6uL << SAR_CHAN_CONFIG_POS_PORT_ADDR_Pos,  /**< AROUTE vi
1106:Generated_Source\PSoC6\pdl\drivers\peripheral\sar/cy_sar.h ****     CY_SAR_POS_PORT_ADDR_SARMUX_VIRT    = 7uL << SAR_CHAN_CONFIG_POS_PORT_ADDR_Pos,  /**< SARMUX vi
1107:Generated_Source\PSoC6\pdl\drivers\peripheral\sar/cy_sar.h **** }cy_en_sar_chan_config_pos_port_addr_t;
1108:Generated_Source\PSoC6\pdl\drivers\peripheral\sar/cy_sar.h **** 
1109:Generated_Source\PSoC6\pdl\drivers\peripheral\sar/cy_sar.h **** /** Enable or disable averaging for the channel */
1110:Generated_Source\PSoC6\pdl\drivers\peripheral\sar/cy_sar.h **** typedef enum
1111:Generated_Source\PSoC6\pdl\drivers\peripheral\sar/cy_sar.h **** {
1112:Generated_Source\PSoC6\pdl\drivers\peripheral\sar/cy_sar.h ****     CY_SAR_CHAN_AVG_DISABLE      = 0uL,                                 /**< Disable averaging for 
1113:Generated_Source\PSoC6\pdl\drivers\peripheral\sar/cy_sar.h ****     CY_SAR_CHAN_AVG_ENABLE       = 1uL << SAR_CHAN_CONFIG_AVG_EN_Pos    /**< Enable averaging for t
1114:Generated_Source\PSoC6\pdl\drivers\peripheral\sar/cy_sar.h **** }cy_en_sar_chan_config_avg_en_t;
1115:Generated_Source\PSoC6\pdl\drivers\peripheral\sar/cy_sar.h **** 
1116:Generated_Source\PSoC6\pdl\drivers\peripheral\sar/cy_sar.h **** /** Select which sample time to use for the channel.
1117:Generated_Source\PSoC6\pdl\drivers\peripheral\sar/cy_sar.h **** * There are four global samples times available set by \ref group_sar_init_struct_sampleTime01 and
1118:Generated_Source\PSoC6\pdl\drivers\peripheral\sar/cy_sar.h **** * \ref group_sar_init_struct_sampleTime23.
1119:Generated_Source\PSoC6\pdl\drivers\peripheral\sar/cy_sar.h **** */
1120:Generated_Source\PSoC6\pdl\drivers\peripheral\sar/cy_sar.h **** typedef enum
1121:Generated_Source\PSoC6\pdl\drivers\peripheral\sar/cy_sar.h **** {
1122:Generated_Source\PSoC6\pdl\drivers\peripheral\sar/cy_sar.h ****     CY_SAR_CHAN_SAMPLE_TIME_0     = 0uL,                                          /**< Use sample t
1123:Generated_Source\PSoC6\pdl\drivers\peripheral\sar/cy_sar.h ****     CY_SAR_CHAN_SAMPLE_TIME_1     = 1uL << SAR_CHAN_CONFIG_SAMPLE_TIME_SEL_Pos,   /**< Use sample t
1124:Generated_Source\PSoC6\pdl\drivers\peripheral\sar/cy_sar.h ****     CY_SAR_CHAN_SAMPLE_TIME_2     = 2uL << SAR_CHAN_CONFIG_SAMPLE_TIME_SEL_Pos,   /**< Use sample t
1125:Generated_Source\PSoC6\pdl\drivers\peripheral\sar/cy_sar.h ****     CY_SAR_CHAN_SAMPLE_TIME_3     = 3uL << SAR_CHAN_CONFIG_SAMPLE_TIME_SEL_Pos,   /**< Use sample t
1126:Generated_Source\PSoC6\pdl\drivers\peripheral\sar/cy_sar.h **** }cy_en_sar_chan_config_sample_time_t;
1127:Generated_Source\PSoC6\pdl\drivers\peripheral\sar/cy_sar.h **** 
1128:Generated_Source\PSoC6\pdl\drivers\peripheral\sar/cy_sar.h **** /** Configure address of the pin connected to the Vminus terminal of the SARADC. */
1129:Generated_Source\PSoC6\pdl\drivers\peripheral\sar/cy_sar.h **** typedef enum
1130:Generated_Source\PSoC6\pdl\drivers\peripheral\sar/cy_sar.h **** {
1131:Generated_Source\PSoC6\pdl\drivers\peripheral\sar/cy_sar.h ****     CY_SAR_CHAN_NEG_PIN_ADDR_0     = 0uL,                                            /**< Pin 0 on 
1132:Generated_Source\PSoC6\pdl\drivers\peripheral\sar/cy_sar.h ****     CY_SAR_CHAN_NEG_PIN_ADDR_1     = 1uL << SAR_CHAN_CONFIG_NEG_PIN_ADDR_Pos,        /**< Pin 1 on 
1133:Generated_Source\PSoC6\pdl\drivers\peripheral\sar/cy_sar.h ****     CY_SAR_CHAN_NEG_PIN_ADDR_2     = 2uL << SAR_CHAN_CONFIG_NEG_PIN_ADDR_Pos,        /**< Pin 2 on 
1134:Generated_Source\PSoC6\pdl\drivers\peripheral\sar/cy_sar.h ****     CY_SAR_CHAN_NEG_PIN_ADDR_3     = 3uL << SAR_CHAN_CONFIG_NEG_PIN_ADDR_Pos,        /**< Pin 3 on 
1135:Generated_Source\PSoC6\pdl\drivers\peripheral\sar/cy_sar.h ****     CY_SAR_CHAN_NEG_PIN_ADDR_4     = 4uL << SAR_CHAN_CONFIG_NEG_PIN_ADDR_Pos,        /**< Pin 4 on 
1136:Generated_Source\PSoC6\pdl\drivers\peripheral\sar/cy_sar.h ****     CY_SAR_CHAN_NEG_PIN_ADDR_5     = 5uL << SAR_CHAN_CONFIG_NEG_PIN_ADDR_Pos,        /**< Pin 5 on 
1137:Generated_Source\PSoC6\pdl\drivers\peripheral\sar/cy_sar.h ****     CY_SAR_CHAN_NEG_PIN_ADDR_6     = 6uL << SAR_CHAN_CONFIG_NEG_PIN_ADDR_Pos,        /**< Pin 6 on 
1138:Generated_Source\PSoC6\pdl\drivers\peripheral\sar/cy_sar.h ****     CY_SAR_CHAN_NEG_PIN_ADDR_7     = 7uL << SAR_CHAN_CONFIG_NEG_PIN_ADDR_Pos,        /**< Pin 7 on 
1139:Generated_Source\PSoC6\pdl\drivers\peripheral\sar/cy_sar.h **** }cy_en_sar_chan_config_neg_pin_addr_t;
ARM GAS  C:\Users\Rolf\AppData\Local\Temp\cc4tlliX.s 			page 52


1140:Generated_Source\PSoC6\pdl\drivers\peripheral\sar/cy_sar.h **** 
1141:Generated_Source\PSoC6\pdl\drivers\peripheral\sar/cy_sar.h **** /** Configure address of the port that contains the pin connected to the Vminus terminal of the SAR
1142:Generated_Source\PSoC6\pdl\drivers\peripheral\sar/cy_sar.h **** *
1143:Generated_Source\PSoC6\pdl\drivers\peripheral\sar/cy_sar.h **** * - Port 0 is 8 pins of the SARMUX
1144:Generated_Source\PSoC6\pdl\drivers\peripheral\sar/cy_sar.h **** * - Port 7, 5, and 6 (VPORT0/1/2) are the groups of internal signals that can be selected
1145:Generated_Source\PSoC6\pdl\drivers\peripheral\sar/cy_sar.h **** *   in the SARMUX or AROUTE (if present).
1146:Generated_Source\PSoC6\pdl\drivers\peripheral\sar/cy_sar.h **** */
1147:Generated_Source\PSoC6\pdl\drivers\peripheral\sar/cy_sar.h **** typedef enum
1148:Generated_Source\PSoC6\pdl\drivers\peripheral\sar/cy_sar.h **** {
1149:Generated_Source\PSoC6\pdl\drivers\peripheral\sar/cy_sar.h ****     CY_SAR_NEG_PORT_ADDR_SARMUX         = 0uL,                                       /**< Dedicated
1150:Generated_Source\PSoC6\pdl\drivers\peripheral\sar/cy_sar.h ****     CY_SAR_NEG_PORT_ADDR_AROUTE_VIRT2   = 5uL << SAR_CHAN_CONFIG_POS_PORT_ADDR_Pos,  /**< AROUTE vi
1151:Generated_Source\PSoC6\pdl\drivers\peripheral\sar/cy_sar.h ****     CY_SAR_NEG_PORT_ADDR_AROUTE_VIRT1   = 6uL << SAR_CHAN_CONFIG_POS_PORT_ADDR_Pos,  /**< AROUTE vi
1152:Generated_Source\PSoC6\pdl\drivers\peripheral\sar/cy_sar.h ****     CY_SAR_NEG_PORT_ADDR_SARMUX_VIRT    = 7uL << SAR_CHAN_CONFIG_POS_PORT_ADDR_Pos,  /**< SARMUX vi
1153:Generated_Source\PSoC6\pdl\drivers\peripheral\sar/cy_sar.h **** }cy_en_sar_chan_config_neg_port_addr_t;
1154:Generated_Source\PSoC6\pdl\drivers\peripheral\sar/cy_sar.h **** 
1155:Generated_Source\PSoC6\pdl\drivers\peripheral\sar/cy_sar.h **** /* \} */
1156:Generated_Source\PSoC6\pdl\drivers\peripheral\sar/cy_sar.h **** 
1157:Generated_Source\PSoC6\pdl\drivers\peripheral\sar/cy_sar.h **** /** \addtogroup group_sar_intr_mask_t_register_enums
1158:Generated_Source\PSoC6\pdl\drivers\peripheral\sar/cy_sar.h **** * This set of enumerations aids in configuring the SAR INTR_MASK register
1159:Generated_Source\PSoC6\pdl\drivers\peripheral\sar/cy_sar.h **** * \{
1160:Generated_Source\PSoC6\pdl\drivers\peripheral\sar/cy_sar.h **** */
1161:Generated_Source\PSoC6\pdl\drivers\peripheral\sar/cy_sar.h **** /** Configure which signal will cause an interrupt event.
1162:Generated_Source\PSoC6\pdl\drivers\peripheral\sar/cy_sar.h **** *
1163:Generated_Source\PSoC6\pdl\drivers\peripheral\sar/cy_sar.h **** * - End of scan (EOS): occurs after completing a scan of all enabled channels
1164:Generated_Source\PSoC6\pdl\drivers\peripheral\sar/cy_sar.h **** * - Overflow: occurs when hardware sets a new EOS interrupt while the previous interrupt
1165:Generated_Source\PSoC6\pdl\drivers\peripheral\sar/cy_sar.h **** *   has not be cleared by the firmware
1166:Generated_Source\PSoC6\pdl\drivers\peripheral\sar/cy_sar.h **** * - Firmware collision: occurs when firmware attempts to start one-shot
1167:Generated_Source\PSoC6\pdl\drivers\peripheral\sar/cy_sar.h **** *   conversion while the SAR is busy.
1168:Generated_Source\PSoC6\pdl\drivers\peripheral\sar/cy_sar.h **** *
1169:Generated_Source\PSoC6\pdl\drivers\peripheral\sar/cy_sar.h **** * Enable all, one, or none of the interrupt events.
1170:Generated_Source\PSoC6\pdl\drivers\peripheral\sar/cy_sar.h **** */
1171:Generated_Source\PSoC6\pdl\drivers\peripheral\sar/cy_sar.h **** typedef enum
