ARM GAS  C:\Users\Rolf\AppData\Local\Temp\cckLMDaR.s 			page 1


   1              		.syntax unified
   2              		.cpu cortex-m0plus
   3              		.fpu softvfp
   4              		.eabi_attribute 20, 1
   5              		.eabi_attribute 21, 1
   6              		.eabi_attribute 23, 3
   7              		.eabi_attribute 24, 1
   8              		.eabi_attribute 25, 1
   9              		.eabi_attribute 26, 1
  10              		.eabi_attribute 30, 1
  11              		.eabi_attribute 34, 0
  12              		.eabi_attribute 18, 4
  13              		.thumb
  14              		.syntax unified
  15              		.file	"cy_systick.c"
  16              		.text
  17              	.Ltext0:
  18              		.cfi_sections	.debug_frame
  19              		.section	.text.Cy_SysTick_ServiceCallbacks,"ax",%progbits
  20              		.align	2
  21              		.code	16
  22              		.thumb_func
  23              		.type	Cy_SysTick_ServiceCallbacks, %function
  24              	Cy_SysTick_ServiceCallbacks:
  25              	.LFB59:
  26              		.file 1 "Generated_Source\\PSoC6\\pdl\\drivers\\peripheral\\systick\\cy_systick.c"
   1:Generated_Source\PSoC6\pdl\drivers\peripheral\systick/cy_systick.c **** /***************************************************************************//**
   2:Generated_Source\PSoC6\pdl\drivers\peripheral\systick/cy_systick.c **** * \file cy_systick.c
   3:Generated_Source\PSoC6\pdl\drivers\peripheral\systick/cy_systick.c **** * \version 1.10
   4:Generated_Source\PSoC6\pdl\drivers\peripheral\systick/cy_systick.c **** *
   5:Generated_Source\PSoC6\pdl\drivers\peripheral\systick/cy_systick.c **** * Provides the API definitions of the SisTick driver.
   6:Generated_Source\PSoC6\pdl\drivers\peripheral\systick/cy_systick.c **** *
   7:Generated_Source\PSoC6\pdl\drivers\peripheral\systick/cy_systick.c **** ********************************************************************************
   8:Generated_Source\PSoC6\pdl\drivers\peripheral\systick/cy_systick.c **** * \copyright
   9:Generated_Source\PSoC6\pdl\drivers\peripheral\systick/cy_systick.c **** * Copyright 2016-2018, Cypress Semiconductor Corporation.  All rights reserved.
  10:Generated_Source\PSoC6\pdl\drivers\peripheral\systick/cy_systick.c **** * You may use this file only in accordance with the license, terms, conditions,
  11:Generated_Source\PSoC6\pdl\drivers\peripheral\systick/cy_systick.c **** * disclaimers, and limitations in the end user license agreement accompanying
  12:Generated_Source\PSoC6\pdl\drivers\peripheral\systick/cy_systick.c **** * the software package with which this file was provided.
  13:Generated_Source\PSoC6\pdl\drivers\peripheral\systick/cy_systick.c **** *******************************************************************************/
  14:Generated_Source\PSoC6\pdl\drivers\peripheral\systick/cy_systick.c **** 
  15:Generated_Source\PSoC6\pdl\drivers\peripheral\systick/cy_systick.c **** #include "cy_systick.h"
  16:Generated_Source\PSoC6\pdl\drivers\peripheral\systick/cy_systick.c **** #include <stddef.h>     /* for NULL */
  17:Generated_Source\PSoC6\pdl\drivers\peripheral\systick/cy_systick.c **** 
  18:Generated_Source\PSoC6\pdl\drivers\peripheral\systick/cy_systick.c **** 
  19:Generated_Source\PSoC6\pdl\drivers\peripheral\systick/cy_systick.c **** static Cy_SysTick_Callback Cy_SysTick_Callbacks[CY_SYS_SYST_NUM_OF_CALLBACKS];
  20:Generated_Source\PSoC6\pdl\drivers\peripheral\systick/cy_systick.c **** static void Cy_SysTick_ServiceCallbacks(void);
  21:Generated_Source\PSoC6\pdl\drivers\peripheral\systick/cy_systick.c **** 
  22:Generated_Source\PSoC6\pdl\drivers\peripheral\systick/cy_systick.c **** 
  23:Generated_Source\PSoC6\pdl\drivers\peripheral\systick/cy_systick.c **** /*******************************************************************************
  24:Generated_Source\PSoC6\pdl\drivers\peripheral\systick/cy_systick.c **** * Function Name: Cy_SysTick_Init
  25:Generated_Source\PSoC6\pdl\drivers\peripheral\systick/cy_systick.c **** ****************************************************************************//**
  26:Generated_Source\PSoC6\pdl\drivers\peripheral\systick/cy_systick.c **** *
  27:Generated_Source\PSoC6\pdl\drivers\peripheral\systick/cy_systick.c **** * Initializes the SysTick driver:
  28:Generated_Source\PSoC6\pdl\drivers\peripheral\systick/cy_systick.c **** * - Initializes the callback addresses with pointers to NULL
  29:Generated_Source\PSoC6\pdl\drivers\peripheral\systick/cy_systick.c **** * - Associates the SysTick system vector with the callback functions
  30:Generated_Source\PSoC6\pdl\drivers\peripheral\systick/cy_systick.c **** * - Sets the SysTick clock by calling \ref Cy_SysTick_SetClockSource()
  31:Generated_Source\PSoC6\pdl\drivers\peripheral\systick/cy_systick.c **** * - Sets the SysTick reload interval by calling \ref Cy_SysTick_SetReload()
ARM GAS  C:\Users\Rolf\AppData\Local\Temp\cckLMDaR.s 			page 2


  32:Generated_Source\PSoC6\pdl\drivers\peripheral\systick/cy_systick.c **** * - Clears the SysTick counter value by calling \ref Cy_SysTick_Clear()
  33:Generated_Source\PSoC6\pdl\drivers\peripheral\systick/cy_systick.c **** * - Enables the SysTick by calling \ref Cy_SysTick_Enable(). Note the \ref
  34:Generated_Source\PSoC6\pdl\drivers\peripheral\systick/cy_systick.c **** *   Cy_SysTick_Enable() function also enables the SysTick interrupt by calling
  35:Generated_Source\PSoC6\pdl\drivers\peripheral\systick/cy_systick.c **** *   \ref Cy_SysTick_EnableInterrupt().
  36:Generated_Source\PSoC6\pdl\drivers\peripheral\systick/cy_systick.c **** *
  37:Generated_Source\PSoC6\pdl\drivers\peripheral\systick/cy_systick.c **** * \param clockSource The SysTick clock source \ref cy_en_systick_clock_source_t
  38:Generated_Source\PSoC6\pdl\drivers\peripheral\systick/cy_systick.c **** * \param interval The SysTick reload value.
  39:Generated_Source\PSoC6\pdl\drivers\peripheral\systick/cy_systick.c **** *
  40:Generated_Source\PSoC6\pdl\drivers\peripheral\systick/cy_systick.c **** * \sideeffect Clears the SysTick count flag if it was set.
  41:Generated_Source\PSoC6\pdl\drivers\peripheral\systick/cy_systick.c **** *
  42:Generated_Source\PSoC6\pdl\drivers\peripheral\systick/cy_systick.c **** *******************************************************************************/
  43:Generated_Source\PSoC6\pdl\drivers\peripheral\systick/cy_systick.c **** void Cy_SysTick_Init(cy_en_systick_clock_source_t clockSource, uint32_t interval)
  44:Generated_Source\PSoC6\pdl\drivers\peripheral\systick/cy_systick.c **** {
  45:Generated_Source\PSoC6\pdl\drivers\peripheral\systick/cy_systick.c ****     uint32_t i;
  46:Generated_Source\PSoC6\pdl\drivers\peripheral\systick/cy_systick.c **** 
  47:Generated_Source\PSoC6\pdl\drivers\peripheral\systick/cy_systick.c ****     for (i = 0u; i<CY_SYS_SYST_NUM_OF_CALLBACKS; i++)
  48:Generated_Source\PSoC6\pdl\drivers\peripheral\systick/cy_systick.c ****     {
  49:Generated_Source\PSoC6\pdl\drivers\peripheral\systick/cy_systick.c ****         Cy_SysTick_Callbacks[i] = NULL;
  50:Generated_Source\PSoC6\pdl\drivers\peripheral\systick/cy_systick.c ****     }
  51:Generated_Source\PSoC6\pdl\drivers\peripheral\systick/cy_systick.c **** 
  52:Generated_Source\PSoC6\pdl\drivers\peripheral\systick/cy_systick.c ****     __ramVectors[CY_SYSTICK_IRQ_NUM] = &Cy_SysTick_ServiceCallbacks;
  53:Generated_Source\PSoC6\pdl\drivers\peripheral\systick/cy_systick.c ****     Cy_SysTick_SetClockSource(clockSource);
  54:Generated_Source\PSoC6\pdl\drivers\peripheral\systick/cy_systick.c **** 
  55:Generated_Source\PSoC6\pdl\drivers\peripheral\systick/cy_systick.c ****     Cy_SysTick_SetReload(interval);
  56:Generated_Source\PSoC6\pdl\drivers\peripheral\systick/cy_systick.c ****     Cy_SysTick_Clear();
  57:Generated_Source\PSoC6\pdl\drivers\peripheral\systick/cy_systick.c ****     Cy_SysTick_Enable();
  58:Generated_Source\PSoC6\pdl\drivers\peripheral\systick/cy_systick.c **** }
  59:Generated_Source\PSoC6\pdl\drivers\peripheral\systick/cy_systick.c **** 
  60:Generated_Source\PSoC6\pdl\drivers\peripheral\systick/cy_systick.c **** 
  61:Generated_Source\PSoC6\pdl\drivers\peripheral\systick/cy_systick.c **** /*******************************************************************************
  62:Generated_Source\PSoC6\pdl\drivers\peripheral\systick/cy_systick.c **** * Function Name: Cy_SysTick_Enable
  63:Generated_Source\PSoC6\pdl\drivers\peripheral\systick/cy_systick.c **** ****************************************************************************//**
  64:Generated_Source\PSoC6\pdl\drivers\peripheral\systick/cy_systick.c **** *
  65:Generated_Source\PSoC6\pdl\drivers\peripheral\systick/cy_systick.c **** * Enables the SysTick timer and its interrupt.
  66:Generated_Source\PSoC6\pdl\drivers\peripheral\systick/cy_systick.c **** *
  67:Generated_Source\PSoC6\pdl\drivers\peripheral\systick/cy_systick.c **** * \sideeffect Clears the SysTick count flag if it was set
  68:Generated_Source\PSoC6\pdl\drivers\peripheral\systick/cy_systick.c **** *
  69:Generated_Source\PSoC6\pdl\drivers\peripheral\systick/cy_systick.c **** *******************************************************************************/
  70:Generated_Source\PSoC6\pdl\drivers\peripheral\systick/cy_systick.c **** void Cy_SysTick_Enable(void)
  71:Generated_Source\PSoC6\pdl\drivers\peripheral\systick/cy_systick.c **** {
  72:Generated_Source\PSoC6\pdl\drivers\peripheral\systick/cy_systick.c ****     Cy_SysTick_EnableInterrupt();
  73:Generated_Source\PSoC6\pdl\drivers\peripheral\systick/cy_systick.c ****     SYSTICK_CTRL |= SysTick_CTRL_ENABLE_Msk;
  74:Generated_Source\PSoC6\pdl\drivers\peripheral\systick/cy_systick.c **** }
  75:Generated_Source\PSoC6\pdl\drivers\peripheral\systick/cy_systick.c **** 
  76:Generated_Source\PSoC6\pdl\drivers\peripheral\systick/cy_systick.c **** 
  77:Generated_Source\PSoC6\pdl\drivers\peripheral\systick/cy_systick.c **** /*******************************************************************************
  78:Generated_Source\PSoC6\pdl\drivers\peripheral\systick/cy_systick.c **** * Function Name: Cy_SysTick_Disable
  79:Generated_Source\PSoC6\pdl\drivers\peripheral\systick/cy_systick.c **** ****************************************************************************//**
  80:Generated_Source\PSoC6\pdl\drivers\peripheral\systick/cy_systick.c **** *
  81:Generated_Source\PSoC6\pdl\drivers\peripheral\systick/cy_systick.c **** * Disables the SysTick timer and its interrupt.
  82:Generated_Source\PSoC6\pdl\drivers\peripheral\systick/cy_systick.c **** *
  83:Generated_Source\PSoC6\pdl\drivers\peripheral\systick/cy_systick.c **** * \sideeffect Clears the SysTick count flag if it was set
  84:Generated_Source\PSoC6\pdl\drivers\peripheral\systick/cy_systick.c **** *
  85:Generated_Source\PSoC6\pdl\drivers\peripheral\systick/cy_systick.c **** *******************************************************************************/
  86:Generated_Source\PSoC6\pdl\drivers\peripheral\systick/cy_systick.c **** void Cy_SysTick_Disable(void)
  87:Generated_Source\PSoC6\pdl\drivers\peripheral\systick/cy_systick.c **** {
  88:Generated_Source\PSoC6\pdl\drivers\peripheral\systick/cy_systick.c ****     Cy_SysTick_DisableInterrupt();
ARM GAS  C:\Users\Rolf\AppData\Local\Temp\cckLMDaR.s 			page 3


  89:Generated_Source\PSoC6\pdl\drivers\peripheral\systick/cy_systick.c ****     SYSTICK_CTRL &= ~SysTick_CTRL_ENABLE_Msk;
  90:Generated_Source\PSoC6\pdl\drivers\peripheral\systick/cy_systick.c **** }
  91:Generated_Source\PSoC6\pdl\drivers\peripheral\systick/cy_systick.c **** 
  92:Generated_Source\PSoC6\pdl\drivers\peripheral\systick/cy_systick.c **** 
  93:Generated_Source\PSoC6\pdl\drivers\peripheral\systick/cy_systick.c **** /*******************************************************************************
  94:Generated_Source\PSoC6\pdl\drivers\peripheral\systick/cy_systick.c **** * Function Name: Cy_SysTick_SetClockSource
  95:Generated_Source\PSoC6\pdl\drivers\peripheral\systick/cy_systick.c **** ****************************************************************************//**
  96:Generated_Source\PSoC6\pdl\drivers\peripheral\systick/cy_systick.c **** *
  97:Generated_Source\PSoC6\pdl\drivers\peripheral\systick/cy_systick.c **** * Sets the clock source for the SysTick counter.
  98:Generated_Source\PSoC6\pdl\drivers\peripheral\systick/cy_systick.c **** *
  99:Generated_Source\PSoC6\pdl\drivers\peripheral\systick/cy_systick.c **** * Clears the SysTick count flag if it was set. If the clock source is not ready
 100:Generated_Source\PSoC6\pdl\drivers\peripheral\systick/cy_systick.c **** * this function call will have no effect. After changing the clock source to the
 101:Generated_Source\PSoC6\pdl\drivers\peripheral\systick/cy_systick.c **** * low frequency clock, the counter and reload register values will remain
 102:Generated_Source\PSoC6\pdl\drivers\peripheral\systick/cy_systick.c **** * unchanged so the time to the interrupt will be significantly longer and vice
 103:Generated_Source\PSoC6\pdl\drivers\peripheral\systick/cy_systick.c **** * versa.
 104:Generated_Source\PSoC6\pdl\drivers\peripheral\systick/cy_systick.c **** *
 105:Generated_Source\PSoC6\pdl\drivers\peripheral\systick/cy_systick.c **** * Changing the SysTick clock source and/or its frequency will change
 106:Generated_Source\PSoC6\pdl\drivers\peripheral\systick/cy_systick.c **** * the interrupt interval and Cy_SysTick_SetReload() should be
 107:Generated_Source\PSoC6\pdl\drivers\peripheral\systick/cy_systick.c **** * called to compensate this change.
 108:Generated_Source\PSoC6\pdl\drivers\peripheral\systick/cy_systick.c **** *
 109:Generated_Source\PSoC6\pdl\drivers\peripheral\systick/cy_systick.c **** * \param clockSource \ref cy_en_systick_clock_source_t Clock source.
 110:Generated_Source\PSoC6\pdl\drivers\peripheral\systick/cy_systick.c **** *
 111:Generated_Source\PSoC6\pdl\drivers\peripheral\systick/cy_systick.c **** *******************************************************************************/
 112:Generated_Source\PSoC6\pdl\drivers\peripheral\systick/cy_systick.c **** void Cy_SysTick_SetClockSource(cy_en_systick_clock_source_t clockSource)
 113:Generated_Source\PSoC6\pdl\drivers\peripheral\systick/cy_systick.c **** {
 114:Generated_Source\PSoC6\pdl\drivers\peripheral\systick/cy_systick.c ****     if (clockSource == CY_SYSTICK_CLOCK_SOURCE_CLK_CPU)
 115:Generated_Source\PSoC6\pdl\drivers\peripheral\systick/cy_systick.c ****     {
 116:Generated_Source\PSoC6\pdl\drivers\peripheral\systick/cy_systick.c ****         SYSTICK_CTRL |= SysTick_CTRL_CLKSOURCE_Msk;
 117:Generated_Source\PSoC6\pdl\drivers\peripheral\systick/cy_systick.c ****     }
 118:Generated_Source\PSoC6\pdl\drivers\peripheral\systick/cy_systick.c ****     else
 119:Generated_Source\PSoC6\pdl\drivers\peripheral\systick/cy_systick.c ****     {
 120:Generated_Source\PSoC6\pdl\drivers\peripheral\systick/cy_systick.c ****         CPUSS_SYSTICK_CTL = _VAL2FLD(CPUSS_SYSTICK_CTL_CLOCK_SOURCE, (uint32_t) clockSource);
 121:Generated_Source\PSoC6\pdl\drivers\peripheral\systick/cy_systick.c ****         SYSTICK_CTRL &= ~SysTick_CTRL_CLKSOURCE_Msk;
 122:Generated_Source\PSoC6\pdl\drivers\peripheral\systick/cy_systick.c ****     }
 123:Generated_Source\PSoC6\pdl\drivers\peripheral\systick/cy_systick.c **** }
 124:Generated_Source\PSoC6\pdl\drivers\peripheral\systick/cy_systick.c **** 
 125:Generated_Source\PSoC6\pdl\drivers\peripheral\systick/cy_systick.c **** 
 126:Generated_Source\PSoC6\pdl\drivers\peripheral\systick/cy_systick.c **** /*******************************************************************************
 127:Generated_Source\PSoC6\pdl\drivers\peripheral\systick/cy_systick.c **** * Function Name: Cy_SysTick_GetClockSource
 128:Generated_Source\PSoC6\pdl\drivers\peripheral\systick/cy_systick.c **** ****************************************************************************//**
 129:Generated_Source\PSoC6\pdl\drivers\peripheral\systick/cy_systick.c **** *
 130:Generated_Source\PSoC6\pdl\drivers\peripheral\systick/cy_systick.c **** * Gets the clock source for the SysTick counter.
 131:Generated_Source\PSoC6\pdl\drivers\peripheral\systick/cy_systick.c **** *
 132:Generated_Source\PSoC6\pdl\drivers\peripheral\systick/cy_systick.c **** * \returns \ref cy_en_systick_clock_source_t Clock source
 133:Generated_Source\PSoC6\pdl\drivers\peripheral\systick/cy_systick.c **** *
 134:Generated_Source\PSoC6\pdl\drivers\peripheral\systick/cy_systick.c **** *******************************************************************************/
 135:Generated_Source\PSoC6\pdl\drivers\peripheral\systick/cy_systick.c **** cy_en_systick_clock_source_t Cy_SysTick_GetClockSource(void)
 136:Generated_Source\PSoC6\pdl\drivers\peripheral\systick/cy_systick.c **** {
 137:Generated_Source\PSoC6\pdl\drivers\peripheral\systick/cy_systick.c ****     cy_en_systick_clock_source_t returnValue;
 138:Generated_Source\PSoC6\pdl\drivers\peripheral\systick/cy_systick.c **** 
 139:Generated_Source\PSoC6\pdl\drivers\peripheral\systick/cy_systick.c ****     if ((SYSTICK_CTRL & SysTick_CTRL_CLKSOURCE_Msk) != 0u)
 140:Generated_Source\PSoC6\pdl\drivers\peripheral\systick/cy_systick.c ****     {
 141:Generated_Source\PSoC6\pdl\drivers\peripheral\systick/cy_systick.c ****         returnValue = CY_SYSTICK_CLOCK_SOURCE_CLK_CPU;
 142:Generated_Source\PSoC6\pdl\drivers\peripheral\systick/cy_systick.c ****     }
 143:Generated_Source\PSoC6\pdl\drivers\peripheral\systick/cy_systick.c ****     else
 144:Generated_Source\PSoC6\pdl\drivers\peripheral\systick/cy_systick.c ****     {
 145:Generated_Source\PSoC6\pdl\drivers\peripheral\systick/cy_systick.c ****         returnValue =  (cy_en_systick_clock_source_t) ((uint32_t) _FLD2VAL(CPUSS_SYSTICK_CTL_CLOCK_
ARM GAS  C:\Users\Rolf\AppData\Local\Temp\cckLMDaR.s 			page 4


 146:Generated_Source\PSoC6\pdl\drivers\peripheral\systick/cy_systick.c ****     }
 147:Generated_Source\PSoC6\pdl\drivers\peripheral\systick/cy_systick.c **** 
 148:Generated_Source\PSoC6\pdl\drivers\peripheral\systick/cy_systick.c ****     return(returnValue);
 149:Generated_Source\PSoC6\pdl\drivers\peripheral\systick/cy_systick.c **** }
 150:Generated_Source\PSoC6\pdl\drivers\peripheral\systick/cy_systick.c **** 
 151:Generated_Source\PSoC6\pdl\drivers\peripheral\systick/cy_systick.c **** 
 152:Generated_Source\PSoC6\pdl\drivers\peripheral\systick/cy_systick.c **** /*******************************************************************************
 153:Generated_Source\PSoC6\pdl\drivers\peripheral\systick/cy_systick.c **** * Function Name: Cy_SysTick_SetCallback
 154:Generated_Source\PSoC6\pdl\drivers\peripheral\systick/cy_systick.c **** ****************************************************************************//**
 155:Generated_Source\PSoC6\pdl\drivers\peripheral\systick/cy_systick.c **** *
 156:Generated_Source\PSoC6\pdl\drivers\peripheral\systick/cy_systick.c **** * Sets the callback function to the specified callback number.
 157:Generated_Source\PSoC6\pdl\drivers\peripheral\systick/cy_systick.c **** *
 158:Generated_Source\PSoC6\pdl\drivers\peripheral\systick/cy_systick.c **** * \param number The number of the callback function addresses to be set.
 159:Generated_Source\PSoC6\pdl\drivers\peripheral\systick/cy_systick.c **** * The valid range is from 0 to \ref CY_SYS_SYST_NUM_OF_CALLBACKS - 1.
 160:Generated_Source\PSoC6\pdl\drivers\peripheral\systick/cy_systick.c **** *
 161:Generated_Source\PSoC6\pdl\drivers\peripheral\systick/cy_systick.c **** * \param function The pointer to the function that will be associated with the
 162:Generated_Source\PSoC6\pdl\drivers\peripheral\systick/cy_systick.c **** * SysTick ISR for the specified number.
 163:Generated_Source\PSoC6\pdl\drivers\peripheral\systick/cy_systick.c **** *
 164:Generated_Source\PSoC6\pdl\drivers\peripheral\systick/cy_systick.c **** * \return Returns the address of the previous callback function.
 165:Generated_Source\PSoC6\pdl\drivers\peripheral\systick/cy_systick.c **** * The NULL is returned if the specified address in not set or incorrect
 166:Generated_Source\PSoC6\pdl\drivers\peripheral\systick/cy_systick.c **** * parameter is specified.
 167:Generated_Source\PSoC6\pdl\drivers\peripheral\systick/cy_systick.c **** 
 168:Generated_Source\PSoC6\pdl\drivers\peripheral\systick/cy_systick.c **** * \sideeffect
 169:Generated_Source\PSoC6\pdl\drivers\peripheral\systick/cy_systick.c **** * The registered callback functions will be executed in the interrupt.
 170:Generated_Source\PSoC6\pdl\drivers\peripheral\systick/cy_systick.c **** *
 171:Generated_Source\PSoC6\pdl\drivers\peripheral\systick/cy_systick.c **** *******************************************************************************/
 172:Generated_Source\PSoC6\pdl\drivers\peripheral\systick/cy_systick.c **** Cy_SysTick_Callback Cy_SysTick_SetCallback(uint32_t number, Cy_SysTick_Callback function)
 173:Generated_Source\PSoC6\pdl\drivers\peripheral\systick/cy_systick.c **** {
 174:Generated_Source\PSoC6\pdl\drivers\peripheral\systick/cy_systick.c ****     Cy_SysTick_Callback retVal;
 175:Generated_Source\PSoC6\pdl\drivers\peripheral\systick/cy_systick.c **** 
 176:Generated_Source\PSoC6\pdl\drivers\peripheral\systick/cy_systick.c ****     if (number < CY_SYS_SYST_NUM_OF_CALLBACKS)
 177:Generated_Source\PSoC6\pdl\drivers\peripheral\systick/cy_systick.c ****     {
 178:Generated_Source\PSoC6\pdl\drivers\peripheral\systick/cy_systick.c ****         retVal = Cy_SysTick_Callbacks[number];
 179:Generated_Source\PSoC6\pdl\drivers\peripheral\systick/cy_systick.c ****         Cy_SysTick_Callbacks[number] = function;
 180:Generated_Source\PSoC6\pdl\drivers\peripheral\systick/cy_systick.c ****     }
 181:Generated_Source\PSoC6\pdl\drivers\peripheral\systick/cy_systick.c ****     else
 182:Generated_Source\PSoC6\pdl\drivers\peripheral\systick/cy_systick.c ****     {
 183:Generated_Source\PSoC6\pdl\drivers\peripheral\systick/cy_systick.c ****         retVal = NULL;
 184:Generated_Source\PSoC6\pdl\drivers\peripheral\systick/cy_systick.c ****     }
 185:Generated_Source\PSoC6\pdl\drivers\peripheral\systick/cy_systick.c **** 
 186:Generated_Source\PSoC6\pdl\drivers\peripheral\systick/cy_systick.c ****     return (retVal);
 187:Generated_Source\PSoC6\pdl\drivers\peripheral\systick/cy_systick.c **** }
 188:Generated_Source\PSoC6\pdl\drivers\peripheral\systick/cy_systick.c **** 
 189:Generated_Source\PSoC6\pdl\drivers\peripheral\systick/cy_systick.c **** 
 190:Generated_Source\PSoC6\pdl\drivers\peripheral\systick/cy_systick.c **** /*******************************************************************************
 191:Generated_Source\PSoC6\pdl\drivers\peripheral\systick/cy_systick.c **** * Function Name: Cy_SysTick_GetCallback
 192:Generated_Source\PSoC6\pdl\drivers\peripheral\systick/cy_systick.c **** ****************************************************************************//**
 193:Generated_Source\PSoC6\pdl\drivers\peripheral\systick/cy_systick.c **** *
 194:Generated_Source\PSoC6\pdl\drivers\peripheral\systick/cy_systick.c **** * Gets the specified callback function address.
 195:Generated_Source\PSoC6\pdl\drivers\peripheral\systick/cy_systick.c **** *
 196:Generated_Source\PSoC6\pdl\drivers\peripheral\systick/cy_systick.c **** * \param number The number of the callback function address to get. The valid
 197:Generated_Source\PSoC6\pdl\drivers\peripheral\systick/cy_systick.c **** * range is from 0 to \ref CY_SYS_SYST_NUM_OF_CALLBACKS - 1.
 198:Generated_Source\PSoC6\pdl\drivers\peripheral\systick/cy_systick.c **** *
 199:Generated_Source\PSoC6\pdl\drivers\peripheral\systick/cy_systick.c **** * \return Returns the address of the specified callback function.
 200:Generated_Source\PSoC6\pdl\drivers\peripheral\systick/cy_systick.c **** * The NULL is returned if the specified address in not initialized or incorrect
 201:Generated_Source\PSoC6\pdl\drivers\peripheral\systick/cy_systick.c **** * parameter is specified.
 202:Generated_Source\PSoC6\pdl\drivers\peripheral\systick/cy_systick.c **** *
ARM GAS  C:\Users\Rolf\AppData\Local\Temp\cckLMDaR.s 			page 5


 203:Generated_Source\PSoC6\pdl\drivers\peripheral\systick/cy_systick.c **** *******************************************************************************/
 204:Generated_Source\PSoC6\pdl\drivers\peripheral\systick/cy_systick.c **** Cy_SysTick_Callback Cy_SysTick_GetCallback(uint32_t number)
 205:Generated_Source\PSoC6\pdl\drivers\peripheral\systick/cy_systick.c **** {
 206:Generated_Source\PSoC6\pdl\drivers\peripheral\systick/cy_systick.c ****     Cy_SysTick_Callback retVal;
 207:Generated_Source\PSoC6\pdl\drivers\peripheral\systick/cy_systick.c **** 
 208:Generated_Source\PSoC6\pdl\drivers\peripheral\systick/cy_systick.c ****     if (number < CY_SYS_SYST_NUM_OF_CALLBACKS)
 209:Generated_Source\PSoC6\pdl\drivers\peripheral\systick/cy_systick.c ****     {
 210:Generated_Source\PSoC6\pdl\drivers\peripheral\systick/cy_systick.c ****         retVal = Cy_SysTick_Callbacks[number];
 211:Generated_Source\PSoC6\pdl\drivers\peripheral\systick/cy_systick.c ****     }
 212:Generated_Source\PSoC6\pdl\drivers\peripheral\systick/cy_systick.c ****     else
 213:Generated_Source\PSoC6\pdl\drivers\peripheral\systick/cy_systick.c ****     {
 214:Generated_Source\PSoC6\pdl\drivers\peripheral\systick/cy_systick.c ****         retVal = NULL;
 215:Generated_Source\PSoC6\pdl\drivers\peripheral\systick/cy_systick.c ****     }
 216:Generated_Source\PSoC6\pdl\drivers\peripheral\systick/cy_systick.c **** 
 217:Generated_Source\PSoC6\pdl\drivers\peripheral\systick/cy_systick.c ****     return (retVal);
 218:Generated_Source\PSoC6\pdl\drivers\peripheral\systick/cy_systick.c **** }
 219:Generated_Source\PSoC6\pdl\drivers\peripheral\systick/cy_systick.c **** 
 220:Generated_Source\PSoC6\pdl\drivers\peripheral\systick/cy_systick.c **** 
 221:Generated_Source\PSoC6\pdl\drivers\peripheral\systick/cy_systick.c **** /*******************************************************************************
 222:Generated_Source\PSoC6\pdl\drivers\peripheral\systick/cy_systick.c **** * Function Name: Cy_SysTick_ServiceCallbacks
 223:Generated_Source\PSoC6\pdl\drivers\peripheral\systick/cy_systick.c **** ****************************************************************************//**
 224:Generated_Source\PSoC6\pdl\drivers\peripheral\systick/cy_systick.c **** *
 225:Generated_Source\PSoC6\pdl\drivers\peripheral\systick/cy_systick.c **** * The system Tick timer interrupt routine.
 226:Generated_Source\PSoC6\pdl\drivers\peripheral\systick/cy_systick.c **** *
 227:Generated_Source\PSoC6\pdl\drivers\peripheral\systick/cy_systick.c **** *******************************************************************************/
 228:Generated_Source\PSoC6\pdl\drivers\peripheral\systick/cy_systick.c **** static void Cy_SysTick_ServiceCallbacks(void)
 229:Generated_Source\PSoC6\pdl\drivers\peripheral\systick/cy_systick.c **** {
  27              		.loc 1 229 0
  28              		.cfi_startproc
  29              		@ args = 0, pretend = 0, frame = 0
  30              		@ frame_needed = 0, uses_anonymous_args = 0
  31 0000 10B5     		push	{r4, lr}
  32              		.cfi_def_cfa_offset 8
  33              		.cfi_offset 4, -8
  34              		.cfi_offset 14, -4
  35              	.LBB12:
  36              	.LBB13:
  37              		.file 2 "Generated_Source\\PSoC6\\pdl\\drivers\\peripheral\\systick\\cy_systick.h"
   1:Generated_Source\PSoC6\pdl\drivers\peripheral\systick/cy_systick.h **** /***************************************************************************//**
   2:Generated_Source\PSoC6\pdl\drivers\peripheral\systick/cy_systick.h **** * \file cy_systick.h
   3:Generated_Source\PSoC6\pdl\drivers\peripheral\systick/cy_systick.h **** * \version 1.10
   4:Generated_Source\PSoC6\pdl\drivers\peripheral\systick/cy_systick.h **** *
   5:Generated_Source\PSoC6\pdl\drivers\peripheral\systick/cy_systick.h **** * Provides the API declarations of the SysTick driver.
   6:Generated_Source\PSoC6\pdl\drivers\peripheral\systick/cy_systick.h **** *
   7:Generated_Source\PSoC6\pdl\drivers\peripheral\systick/cy_systick.h **** ********************************************************************************
   8:Generated_Source\PSoC6\pdl\drivers\peripheral\systick/cy_systick.h **** * \copyright
   9:Generated_Source\PSoC6\pdl\drivers\peripheral\systick/cy_systick.h **** * Copyright 2016-2018, Cypress Semiconductor Corporation.  All rights reserved.
  10:Generated_Source\PSoC6\pdl\drivers\peripheral\systick/cy_systick.h **** * You may use this file only in accordance with the license, terms, conditions,
  11:Generated_Source\PSoC6\pdl\drivers\peripheral\systick/cy_systick.h **** * disclaimers, and limitations in the end user license agreement accompanying
  12:Generated_Source\PSoC6\pdl\drivers\peripheral\systick/cy_systick.h **** * the software package with which this file was provided.
  13:Generated_Source\PSoC6\pdl\drivers\peripheral\systick/cy_systick.h **** *******************************************************************************/
  14:Generated_Source\PSoC6\pdl\drivers\peripheral\systick/cy_systick.h **** 
  15:Generated_Source\PSoC6\pdl\drivers\peripheral\systick/cy_systick.h **** #ifndef CY_SYSTICK_H
  16:Generated_Source\PSoC6\pdl\drivers\peripheral\systick/cy_systick.h **** #define CY_SYSTICK_H
  17:Generated_Source\PSoC6\pdl\drivers\peripheral\systick/cy_systick.h **** 
  18:Generated_Source\PSoC6\pdl\drivers\peripheral\systick/cy_systick.h **** /**
  19:Generated_Source\PSoC6\pdl\drivers\peripheral\systick/cy_systick.h **** * \addtogroup group_arm_system_timer
ARM GAS  C:\Users\Rolf\AppData\Local\Temp\cckLMDaR.s 			page 6


  20:Generated_Source\PSoC6\pdl\drivers\peripheral\systick/cy_systick.h **** * \{
  21:Generated_Source\PSoC6\pdl\drivers\peripheral\systick/cy_systick.h **** * Provides vendor-specific SysTick API.
  22:Generated_Source\PSoC6\pdl\drivers\peripheral\systick/cy_systick.h **** *
  23:Generated_Source\PSoC6\pdl\drivers\peripheral\systick/cy_systick.h **** * The functions and other declarations used in this driver are in cy_systick.h. 
  24:Generated_Source\PSoC6\pdl\drivers\peripheral\systick/cy_systick.h **** * You can include cy_pdl.h (ModusToolbox only) to get access to all functions and declarations in t
  25:Generated_Source\PSoC6\pdl\drivers\peripheral\systick/cy_systick.h **** *
  26:Generated_Source\PSoC6\pdl\drivers\peripheral\systick/cy_systick.h **** * The SysTick timer is part of the CPU. The timer is a down counter with a 24-bit reload/tick value
  27:Generated_Source\PSoC6\pdl\drivers\peripheral\systick/cy_systick.h **** * the FastClk/SlowClk. The timer has the capability to generate an interrupt when the set number of
  28:Generated_Source\PSoC6\pdl\drivers\peripheral\systick/cy_systick.h **** * the counter is reloaded. This interrupt is available as part of the Nested Vectored Interrupt Con
  29:Generated_Source\PSoC6\pdl\drivers\peripheral\systick/cy_systick.h **** * service by the CPU and can be used for general-purpose timing control in user code.
  30:Generated_Source\PSoC6\pdl\drivers\peripheral\systick/cy_systick.h **** *
  31:Generated_Source\PSoC6\pdl\drivers\peripheral\systick/cy_systick.h **** * The timer is independent of the CPU (except for the clock), which is useful in applications requi
  32:Generated_Source\PSoC6\pdl\drivers\peripheral\systick/cy_systick.h **** * precise timing that do not have a dedicated timer/counter available for the job.
  33:Generated_Source\PSoC6\pdl\drivers\peripheral\systick/cy_systick.h **** *
  34:Generated_Source\PSoC6\pdl\drivers\peripheral\systick/cy_systick.h **** * \section group_systick_configuration Configuration Considerations
  35:Generated_Source\PSoC6\pdl\drivers\peripheral\systick/cy_systick.h **** *
  36:Generated_Source\PSoC6\pdl\drivers\peripheral\systick/cy_systick.h **** * The \ref Cy_SysTick_Init() performs all required driver's initialization and enables the timer. T
  37:Generated_Source\PSoC6\pdl\drivers\peripheral\systick/cy_systick.h **** * two parameters: clock source \ref cy_en_systick_clock_source_t and the timer interval. You must e
  38:Generated_Source\PSoC6\pdl\drivers\peripheral\systick/cy_systick.h **** * the selected clock source for SysTick is enabled.
  39:Generated_Source\PSoC6\pdl\drivers\peripheral\systick/cy_systick.h **** * The callbacks can be registered/unregistered any time after \ref Cy_SysTick_Init() by calling
  40:Generated_Source\PSoC6\pdl\drivers\peripheral\systick/cy_systick.h **** * \ref Cy_SysTick_SetCallback().
  41:Generated_Source\PSoC6\pdl\drivers\peripheral\systick/cy_systick.h **** *
  42:Generated_Source\PSoC6\pdl\drivers\peripheral\systick/cy_systick.h **** * Changing the SysTick clock source and/or its frequency will change the interrupt interval and the
  43:Generated_Source\PSoC6\pdl\drivers\peripheral\systick/cy_systick.h **** * \ref Cy_SysTick_SetReload() should be called to compensate for this change.
  44:Generated_Source\PSoC6\pdl\drivers\peripheral\systick/cy_systick.h **** *
  45:Generated_Source\PSoC6\pdl\drivers\peripheral\systick/cy_systick.h **** * \section group_systick_more_information More Information
  46:Generated_Source\PSoC6\pdl\drivers\peripheral\systick/cy_systick.h **** *
  47:Generated_Source\PSoC6\pdl\drivers\peripheral\systick/cy_systick.h **** * Refer to the SysTick section of the ARM reference guide for complete details on the registers and
  48:Generated_Source\PSoC6\pdl\drivers\peripheral\systick/cy_systick.h **** * See also the "CPU Subsystem (CPUSS)" chapter of the device technical reference manual (TRM).
  49:Generated_Source\PSoC6\pdl\drivers\peripheral\systick/cy_systick.h **** *
  50:Generated_Source\PSoC6\pdl\drivers\peripheral\systick/cy_systick.h **** * \section group_systick_MISRA MISRA-C Compliance
  51:Generated_Source\PSoC6\pdl\drivers\peripheral\systick/cy_systick.h **** *
  52:Generated_Source\PSoC6\pdl\drivers\peripheral\systick/cy_systick.h **** * <table class="doxtable">
  53:Generated_Source\PSoC6\pdl\drivers\peripheral\systick/cy_systick.h **** *   <tr>
  54:Generated_Source\PSoC6\pdl\drivers\peripheral\systick/cy_systick.h **** *       <th>MISRA Rule</th>
  55:Generated_Source\PSoC6\pdl\drivers\peripheral\systick/cy_systick.h **** *       <th>Rule Class (Required/Advisory)</th>
  56:Generated_Source\PSoC6\pdl\drivers\peripheral\systick/cy_systick.h **** *       <th>Rule Description</th>
  57:Generated_Source\PSoC6\pdl\drivers\peripheral\systick/cy_systick.h **** *       <th>Description of Deviation(s)</th>
  58:Generated_Source\PSoC6\pdl\drivers\peripheral\systick/cy_systick.h **** *   </tr>
  59:Generated_Source\PSoC6\pdl\drivers\peripheral\systick/cy_systick.h **** *   <tr>
  60:Generated_Source\PSoC6\pdl\drivers\peripheral\systick/cy_systick.h **** *       <td>8.12</td>
  61:Generated_Source\PSoC6\pdl\drivers\peripheral\systick/cy_systick.h **** *       <td>Required</td>
  62:Generated_Source\PSoC6\pdl\drivers\peripheral\systick/cy_systick.h **** *       <td>When an array is declared with external linkage, its size shall be
  63:Generated_Source\PSoC6\pdl\drivers\peripheral\systick/cy_systick.h **** *           stated explicitly or defined implicitly by initialization.</td>
  64:Generated_Source\PSoC6\pdl\drivers\peripheral\systick/cy_systick.h **** *       <td>The warning is related to the __ramVectors symbol defined in the assembly startup code.
  65:Generated_Source\PSoC6\pdl\drivers\peripheral\systick/cy_systick.h **** *           It's size is device-specific and unknown to the SysTick driver.</td>
  66:Generated_Source\PSoC6\pdl\drivers\peripheral\systick/cy_systick.h **** *   </tr>
  67:Generated_Source\PSoC6\pdl\drivers\peripheral\systick/cy_systick.h **** * </table>
  68:Generated_Source\PSoC6\pdl\drivers\peripheral\systick/cy_systick.h **** *
  69:Generated_Source\PSoC6\pdl\drivers\peripheral\systick/cy_systick.h **** * \section group_systick_changelog Changelog
  70:Generated_Source\PSoC6\pdl\drivers\peripheral\systick/cy_systick.h **** *
  71:Generated_Source\PSoC6\pdl\drivers\peripheral\systick/cy_systick.h **** * <table class="doxtable">
  72:Generated_Source\PSoC6\pdl\drivers\peripheral\systick/cy_systick.h **** * <tr><th>Version</th><th>Changes</th><th>Reason for Change</th></tr>
  73:Generated_Source\PSoC6\pdl\drivers\peripheral\systick/cy_systick.h **** * <tr>
  74:Generated_Source\PSoC6\pdl\drivers\peripheral\systick/cy_systick.h **** *   <td rowspan="2">1.10</td>
  75:Generated_Source\PSoC6\pdl\drivers\peripheral\systick/cy_systick.h **** *     <td>Flattened the organization of the driver source code into the single 
  76:Generated_Source\PSoC6\pdl\drivers\peripheral\systick/cy_systick.h **** *         source directory and the single include directory.
ARM GAS  C:\Users\Rolf\AppData\Local\Temp\cckLMDaR.s 			page 7


  77:Generated_Source\PSoC6\pdl\drivers\peripheral\systick/cy_systick.h **** *     </td>
  78:Generated_Source\PSoC6\pdl\drivers\peripheral\systick/cy_systick.h **** *     <td>Driver library directory-structure simplification.</td>
  79:Generated_Source\PSoC6\pdl\drivers\peripheral\systick/cy_systick.h **** * </tr>
  80:Generated_Source\PSoC6\pdl\drivers\peripheral\systick/cy_systick.h **** *   <tr>
  81:Generated_Source\PSoC6\pdl\drivers\peripheral\systick/cy_systick.h **** *     <td>Added register access layer. Use register access macros instead
  82:Generated_Source\PSoC6\pdl\drivers\peripheral\systick/cy_systick.h **** *         of direct register access using dereferenced pointers.</td>
  83:Generated_Source\PSoC6\pdl\drivers\peripheral\systick/cy_systick.h **** *     <td>Makes register access device-independent, so that the PDL does 
  84:Generated_Source\PSoC6\pdl\drivers\peripheral\systick/cy_systick.h **** *         not need to be recompiled for each supported part number.</td>
  85:Generated_Source\PSoC6\pdl\drivers\peripheral\systick/cy_systick.h **** *   </tr>
  86:Generated_Source\PSoC6\pdl\drivers\peripheral\systick/cy_systick.h **** * <tr>
  87:Generated_Source\PSoC6\pdl\drivers\peripheral\systick/cy_systick.h **** * <td>1.0.1</td>
  88:Generated_Source\PSoC6\pdl\drivers\peripheral\systick/cy_systick.h **** * <td>Fixed a warning issued when the compilation of C++ source code was
  89:Generated_Source\PSoC6\pdl\drivers\peripheral\systick/cy_systick.h **** *     enabled.</td> 
  90:Generated_Source\PSoC6\pdl\drivers\peripheral\systick/cy_systick.h **** * <td></td>
  91:Generated_Source\PSoC6\pdl\drivers\peripheral\systick/cy_systick.h **** * </tr>
  92:Generated_Source\PSoC6\pdl\drivers\peripheral\systick/cy_systick.h **** * <tr>
  93:Generated_Source\PSoC6\pdl\drivers\peripheral\systick/cy_systick.h **** * <td>1.0</td>
  94:Generated_Source\PSoC6\pdl\drivers\peripheral\systick/cy_systick.h **** * <td>Initial version</td>
  95:Generated_Source\PSoC6\pdl\drivers\peripheral\systick/cy_systick.h **** * <td></td>
  96:Generated_Source\PSoC6\pdl\drivers\peripheral\systick/cy_systick.h **** * </tr>
  97:Generated_Source\PSoC6\pdl\drivers\peripheral\systick/cy_systick.h **** * </table>
  98:Generated_Source\PSoC6\pdl\drivers\peripheral\systick/cy_systick.h **** *
  99:Generated_Source\PSoC6\pdl\drivers\peripheral\systick/cy_systick.h **** * \defgroup group_systick_macros Macros
 100:Generated_Source\PSoC6\pdl\drivers\peripheral\systick/cy_systick.h **** * \defgroup group_systick_functions Functions
 101:Generated_Source\PSoC6\pdl\drivers\peripheral\systick/cy_systick.h **** * \defgroup group_systick_data_structures Data Structures
 102:Generated_Source\PSoC6\pdl\drivers\peripheral\systick/cy_systick.h **** */
 103:Generated_Source\PSoC6\pdl\drivers\peripheral\systick/cy_systick.h **** 
 104:Generated_Source\PSoC6\pdl\drivers\peripheral\systick/cy_systick.h **** #include <stdint.h>
 105:Generated_Source\PSoC6\pdl\drivers\peripheral\systick/cy_systick.h **** #include "cy_syslib.h"
 106:Generated_Source\PSoC6\pdl\drivers\peripheral\systick/cy_systick.h **** #include "cy_device.h"
 107:Generated_Source\PSoC6\pdl\drivers\peripheral\systick/cy_systick.h **** 
 108:Generated_Source\PSoC6\pdl\drivers\peripheral\systick/cy_systick.h **** #ifdef __cplusplus
 109:Generated_Source\PSoC6\pdl\drivers\peripheral\systick/cy_systick.h **** extern "C" {
 110:Generated_Source\PSoC6\pdl\drivers\peripheral\systick/cy_systick.h **** #endif
 111:Generated_Source\PSoC6\pdl\drivers\peripheral\systick/cy_systick.h **** 
 112:Generated_Source\PSoC6\pdl\drivers\peripheral\systick/cy_systick.h **** /** \cond */
 113:Generated_Source\PSoC6\pdl\drivers\peripheral\systick/cy_systick.h **** extern cy_israddress __ramVectors[];
 114:Generated_Source\PSoC6\pdl\drivers\peripheral\systick/cy_systick.h **** typedef void (*Cy_SysTick_Callback)(void);
 115:Generated_Source\PSoC6\pdl\drivers\peripheral\systick/cy_systick.h **** /** \endcond */
 116:Generated_Source\PSoC6\pdl\drivers\peripheral\systick/cy_systick.h **** 
 117:Generated_Source\PSoC6\pdl\drivers\peripheral\systick/cy_systick.h **** /**
 118:Generated_Source\PSoC6\pdl\drivers\peripheral\systick/cy_systick.h **** * \addtogroup group_systick_data_structures
 119:Generated_Source\PSoC6\pdl\drivers\peripheral\systick/cy_systick.h **** * \{
 120:Generated_Source\PSoC6\pdl\drivers\peripheral\systick/cy_systick.h **** */
 121:Generated_Source\PSoC6\pdl\drivers\peripheral\systick/cy_systick.h **** /** SysTick clocks sources */
 122:Generated_Source\PSoC6\pdl\drivers\peripheral\systick/cy_systick.h **** typedef enum
 123:Generated_Source\PSoC6\pdl\drivers\peripheral\systick/cy_systick.h **** {
 124:Generated_Source\PSoC6\pdl\drivers\peripheral\systick/cy_systick.h ****     CY_SYSTICK_CLOCK_SOURCE_CLK_LF    = 0u,     /**< The low frequency clock clk_lf is selected. */
 125:Generated_Source\PSoC6\pdl\drivers\peripheral\systick/cy_systick.h ****     CY_SYSTICK_CLOCK_SOURCE_CLK_IMO   = 1u,     /**< The internal main oscillator (IMO) clock clk_i
 126:Generated_Source\PSoC6\pdl\drivers\peripheral\systick/cy_systick.h ****     CY_SYSTICK_CLOCK_SOURCE_CLK_ECO   = 2u,     /**< The external crystal oscillator (ECO) clock cl
 127:Generated_Source\PSoC6\pdl\drivers\peripheral\systick/cy_systick.h ****     CY_SYSTICK_CLOCK_SOURCE_CLK_TIMER = 3u,     /**< The SRSS clk_timer is selected. */
 128:Generated_Source\PSoC6\pdl\drivers\peripheral\systick/cy_systick.h ****     CY_SYSTICK_CLOCK_SOURCE_CLK_CPU   = 4u,     /**< The CPU clock is selected. */
 129:Generated_Source\PSoC6\pdl\drivers\peripheral\systick/cy_systick.h **** } cy_en_systick_clock_source_t;
 130:Generated_Source\PSoC6\pdl\drivers\peripheral\systick/cy_systick.h **** 
 131:Generated_Source\PSoC6\pdl\drivers\peripheral\systick/cy_systick.h **** /** \} group_systick_data_structures */
 132:Generated_Source\PSoC6\pdl\drivers\peripheral\systick/cy_systick.h **** 
 133:Generated_Source\PSoC6\pdl\drivers\peripheral\systick/cy_systick.h **** 
ARM GAS  C:\Users\Rolf\AppData\Local\Temp\cckLMDaR.s 			page 8


 134:Generated_Source\PSoC6\pdl\drivers\peripheral\systick/cy_systick.h **** /**
 135:Generated_Source\PSoC6\pdl\drivers\peripheral\systick/cy_systick.h **** * \addtogroup group_systick_functions
 136:Generated_Source\PSoC6\pdl\drivers\peripheral\systick/cy_systick.h **** * \{
 137:Generated_Source\PSoC6\pdl\drivers\peripheral\systick/cy_systick.h **** */
 138:Generated_Source\PSoC6\pdl\drivers\peripheral\systick/cy_systick.h **** 
 139:Generated_Source\PSoC6\pdl\drivers\peripheral\systick/cy_systick.h **** void Cy_SysTick_Init(cy_en_systick_clock_source_t clockSource, uint32_t interval);
 140:Generated_Source\PSoC6\pdl\drivers\peripheral\systick/cy_systick.h **** void Cy_SysTick_Enable(void);
 141:Generated_Source\PSoC6\pdl\drivers\peripheral\systick/cy_systick.h **** void Cy_SysTick_Disable(void);
 142:Generated_Source\PSoC6\pdl\drivers\peripheral\systick/cy_systick.h **** Cy_SysTick_Callback Cy_SysTick_SetCallback(uint32_t number, Cy_SysTick_Callback function);
 143:Generated_Source\PSoC6\pdl\drivers\peripheral\systick/cy_systick.h **** Cy_SysTick_Callback Cy_SysTick_GetCallback(uint32_t number);
 144:Generated_Source\PSoC6\pdl\drivers\peripheral\systick/cy_systick.h **** void Cy_SysTick_SetClockSource(cy_en_systick_clock_source_t clockSource);
 145:Generated_Source\PSoC6\pdl\drivers\peripheral\systick/cy_systick.h **** cy_en_systick_clock_source_t Cy_SysTick_GetClockSource(void);
 146:Generated_Source\PSoC6\pdl\drivers\peripheral\systick/cy_systick.h **** __STATIC_INLINE void Cy_SysTick_EnableInterrupt(void);
 147:Generated_Source\PSoC6\pdl\drivers\peripheral\systick/cy_systick.h **** __STATIC_INLINE void Cy_SysTick_DisableInterrupt(void);
 148:Generated_Source\PSoC6\pdl\drivers\peripheral\systick/cy_systick.h **** __STATIC_INLINE void Cy_SysTick_SetReload(uint32_t value);
 149:Generated_Source\PSoC6\pdl\drivers\peripheral\systick/cy_systick.h **** __STATIC_INLINE uint32_t Cy_SysTick_GetReload(void);
 150:Generated_Source\PSoC6\pdl\drivers\peripheral\systick/cy_systick.h **** __STATIC_INLINE uint32_t Cy_SysTick_GetValue(void);
 151:Generated_Source\PSoC6\pdl\drivers\peripheral\systick/cy_systick.h **** __STATIC_INLINE uint32_t Cy_SysTick_GetCountFlag(void);
 152:Generated_Source\PSoC6\pdl\drivers\peripheral\systick/cy_systick.h **** __STATIC_INLINE void Cy_SysTick_Clear(void);
 153:Generated_Source\PSoC6\pdl\drivers\peripheral\systick/cy_systick.h **** 
 154:Generated_Source\PSoC6\pdl\drivers\peripheral\systick/cy_systick.h **** /** \} group_systick_functions */
 155:Generated_Source\PSoC6\pdl\drivers\peripheral\systick/cy_systick.h **** 
 156:Generated_Source\PSoC6\pdl\drivers\peripheral\systick/cy_systick.h **** 
 157:Generated_Source\PSoC6\pdl\drivers\peripheral\systick/cy_systick.h **** /**
 158:Generated_Source\PSoC6\pdl\drivers\peripheral\systick/cy_systick.h **** * \addtogroup group_systick_macros
 159:Generated_Source\PSoC6\pdl\drivers\peripheral\systick/cy_systick.h **** * \{
 160:Generated_Source\PSoC6\pdl\drivers\peripheral\systick/cy_systick.h **** */
 161:Generated_Source\PSoC6\pdl\drivers\peripheral\systick/cy_systick.h **** 
 162:Generated_Source\PSoC6\pdl\drivers\peripheral\systick/cy_systick.h **** /** Driver major version */
 163:Generated_Source\PSoC6\pdl\drivers\peripheral\systick/cy_systick.h **** #define SYSTICK_DRV_VERSION_MAJOR       1
 164:Generated_Source\PSoC6\pdl\drivers\peripheral\systick/cy_systick.h **** 
 165:Generated_Source\PSoC6\pdl\drivers\peripheral\systick/cy_systick.h **** /** Driver minor version */
 166:Generated_Source\PSoC6\pdl\drivers\peripheral\systick/cy_systick.h **** #define SYSTICK_DRV_VERSION_MINOR       10
 167:Generated_Source\PSoC6\pdl\drivers\peripheral\systick/cy_systick.h **** 
 168:Generated_Source\PSoC6\pdl\drivers\peripheral\systick/cy_systick.h **** /** Number of the callbacks assigned to the SysTick interrupt */
 169:Generated_Source\PSoC6\pdl\drivers\peripheral\systick/cy_systick.h **** #define CY_SYS_SYST_NUM_OF_CALLBACKS         (5u)
 170:Generated_Source\PSoC6\pdl\drivers\peripheral\systick/cy_systick.h **** 
 171:Generated_Source\PSoC6\pdl\drivers\peripheral\systick/cy_systick.h **** /** \} group_systick_macros */
 172:Generated_Source\PSoC6\pdl\drivers\peripheral\systick/cy_systick.h **** 
 173:Generated_Source\PSoC6\pdl\drivers\peripheral\systick/cy_systick.h **** 
 174:Generated_Source\PSoC6\pdl\drivers\peripheral\systick/cy_systick.h **** /** \cond */
 175:Generated_Source\PSoC6\pdl\drivers\peripheral\systick/cy_systick.h **** /** Interrupt number in the vector table */
 176:Generated_Source\PSoC6\pdl\drivers\peripheral\systick/cy_systick.h **** #define CY_SYSTICK_IRQ_NUM                   (15u)
 177:Generated_Source\PSoC6\pdl\drivers\peripheral\systick/cy_systick.h **** /** \endcond */
 178:Generated_Source\PSoC6\pdl\drivers\peripheral\systick/cy_systick.h **** 
 179:Generated_Source\PSoC6\pdl\drivers\peripheral\systick/cy_systick.h **** /**
 180:Generated_Source\PSoC6\pdl\drivers\peripheral\systick/cy_systick.h **** * \addtogroup group_systick_functions
 181:Generated_Source\PSoC6\pdl\drivers\peripheral\systick/cy_systick.h **** * \{
 182:Generated_Source\PSoC6\pdl\drivers\peripheral\systick/cy_systick.h **** */
 183:Generated_Source\PSoC6\pdl\drivers\peripheral\systick/cy_systick.h **** 
 184:Generated_Source\PSoC6\pdl\drivers\peripheral\systick/cy_systick.h **** /*******************************************************************************
 185:Generated_Source\PSoC6\pdl\drivers\peripheral\systick/cy_systick.h **** * Function Name: Cy_SysTick_EnableInterrupt
 186:Generated_Source\PSoC6\pdl\drivers\peripheral\systick/cy_systick.h **** ****************************************************************************//**
 187:Generated_Source\PSoC6\pdl\drivers\peripheral\systick/cy_systick.h **** *
 188:Generated_Source\PSoC6\pdl\drivers\peripheral\systick/cy_systick.h **** * Enables the SysTick interrupt.
 189:Generated_Source\PSoC6\pdl\drivers\peripheral\systick/cy_systick.h **** *
 190:Generated_Source\PSoC6\pdl\drivers\peripheral\systick/cy_systick.h **** * \sideeffect Clears the SysTick count flag if it was set
ARM GAS  C:\Users\Rolf\AppData\Local\Temp\cckLMDaR.s 			page 9


 191:Generated_Source\PSoC6\pdl\drivers\peripheral\systick/cy_systick.h **** *
 192:Generated_Source\PSoC6\pdl\drivers\peripheral\systick/cy_systick.h **** *******************************************************************************/
 193:Generated_Source\PSoC6\pdl\drivers\peripheral\systick/cy_systick.h **** __STATIC_INLINE void Cy_SysTick_EnableInterrupt(void)
 194:Generated_Source\PSoC6\pdl\drivers\peripheral\systick/cy_systick.h **** {
 195:Generated_Source\PSoC6\pdl\drivers\peripheral\systick/cy_systick.h ****     SYSTICK_CTRL = SYSTICK_CTRL | SysTick_CTRL_TICKINT_Msk;
 196:Generated_Source\PSoC6\pdl\drivers\peripheral\systick/cy_systick.h **** }
 197:Generated_Source\PSoC6\pdl\drivers\peripheral\systick/cy_systick.h **** 
 198:Generated_Source\PSoC6\pdl\drivers\peripheral\systick/cy_systick.h **** 
 199:Generated_Source\PSoC6\pdl\drivers\peripheral\systick/cy_systick.h **** /*******************************************************************************
 200:Generated_Source\PSoC6\pdl\drivers\peripheral\systick/cy_systick.h **** * Function Name: Cy_SysTick_DisableInterrupt
 201:Generated_Source\PSoC6\pdl\drivers\peripheral\systick/cy_systick.h **** ****************************************************************************//**
 202:Generated_Source\PSoC6\pdl\drivers\peripheral\systick/cy_systick.h **** *
 203:Generated_Source\PSoC6\pdl\drivers\peripheral\systick/cy_systick.h **** * Disables the SysTick interrupt.
 204:Generated_Source\PSoC6\pdl\drivers\peripheral\systick/cy_systick.h **** *
 205:Generated_Source\PSoC6\pdl\drivers\peripheral\systick/cy_systick.h **** * \sideeffect Clears the SysTick count flag if it was set
 206:Generated_Source\PSoC6\pdl\drivers\peripheral\systick/cy_systick.h **** *
 207:Generated_Source\PSoC6\pdl\drivers\peripheral\systick/cy_systick.h **** *******************************************************************************/
 208:Generated_Source\PSoC6\pdl\drivers\peripheral\systick/cy_systick.h **** __STATIC_INLINE void Cy_SysTick_DisableInterrupt(void)
 209:Generated_Source\PSoC6\pdl\drivers\peripheral\systick/cy_systick.h **** {
 210:Generated_Source\PSoC6\pdl\drivers\peripheral\systick/cy_systick.h ****     SYSTICK_CTRL = SYSTICK_CTRL & ~SysTick_CTRL_TICKINT_Msk;
 211:Generated_Source\PSoC6\pdl\drivers\peripheral\systick/cy_systick.h **** }
 212:Generated_Source\PSoC6\pdl\drivers\peripheral\systick/cy_systick.h **** 
 213:Generated_Source\PSoC6\pdl\drivers\peripheral\systick/cy_systick.h **** 
 214:Generated_Source\PSoC6\pdl\drivers\peripheral\systick/cy_systick.h **** /*******************************************************************************
 215:Generated_Source\PSoC6\pdl\drivers\peripheral\systick/cy_systick.h **** * Function Name: Cy_SysTick_SetReload
 216:Generated_Source\PSoC6\pdl\drivers\peripheral\systick/cy_systick.h **** ****************************************************************************//**
 217:Generated_Source\PSoC6\pdl\drivers\peripheral\systick/cy_systick.h **** *
 218:Generated_Source\PSoC6\pdl\drivers\peripheral\systick/cy_systick.h **** * Sets the value the counter is set to on a startup and after it reaches zero.
 219:Generated_Source\PSoC6\pdl\drivers\peripheral\systick/cy_systick.h **** * This function does not change or reset the current sysTick counter value, so
 220:Generated_Source\PSoC6\pdl\drivers\peripheral\systick/cy_systick.h **** * it should be cleared using the Cy_SysTick_Clear() API.
 221:Generated_Source\PSoC6\pdl\drivers\peripheral\systick/cy_systick.h **** *
 222:Generated_Source\PSoC6\pdl\drivers\peripheral\systick/cy_systick.h **** * \param value: The valid range is [0x0-0x00FFFFFF]. The counter reset value.
 223:Generated_Source\PSoC6\pdl\drivers\peripheral\systick/cy_systick.h **** *
 224:Generated_Source\PSoC6\pdl\drivers\peripheral\systick/cy_systick.h **** *******************************************************************************/
 225:Generated_Source\PSoC6\pdl\drivers\peripheral\systick/cy_systick.h **** __STATIC_INLINE void Cy_SysTick_SetReload(uint32_t value)
 226:Generated_Source\PSoC6\pdl\drivers\peripheral\systick/cy_systick.h **** {
 227:Generated_Source\PSoC6\pdl\drivers\peripheral\systick/cy_systick.h ****     SYSTICK_LOAD = (value & SysTick_LOAD_RELOAD_Msk);
 228:Generated_Source\PSoC6\pdl\drivers\peripheral\systick/cy_systick.h **** }
 229:Generated_Source\PSoC6\pdl\drivers\peripheral\systick/cy_systick.h **** 
 230:Generated_Source\PSoC6\pdl\drivers\peripheral\systick/cy_systick.h **** 
 231:Generated_Source\PSoC6\pdl\drivers\peripheral\systick/cy_systick.h **** /*******************************************************************************
 232:Generated_Source\PSoC6\pdl\drivers\peripheral\systick/cy_systick.h **** * Function Name: Cy_SysTick_GetReload
 233:Generated_Source\PSoC6\pdl\drivers\peripheral\systick/cy_systick.h **** ****************************************************************************//**
 234:Generated_Source\PSoC6\pdl\drivers\peripheral\systick/cy_systick.h **** *
 235:Generated_Source\PSoC6\pdl\drivers\peripheral\systick/cy_systick.h **** * Gets the value the counter is set to on a startup and after it reaches zero.
 236:Generated_Source\PSoC6\pdl\drivers\peripheral\systick/cy_systick.h **** *
 237:Generated_Source\PSoC6\pdl\drivers\peripheral\systick/cy_systick.h **** * \return The counter reset value.
 238:Generated_Source\PSoC6\pdl\drivers\peripheral\systick/cy_systick.h **** *
 239:Generated_Source\PSoC6\pdl\drivers\peripheral\systick/cy_systick.h **** *******************************************************************************/
 240:Generated_Source\PSoC6\pdl\drivers\peripheral\systick/cy_systick.h **** __STATIC_INLINE uint32_t Cy_SysTick_GetReload(void)
 241:Generated_Source\PSoC6\pdl\drivers\peripheral\systick/cy_systick.h **** {
 242:Generated_Source\PSoC6\pdl\drivers\peripheral\systick/cy_systick.h ****     return (SYSTICK_LOAD);
 243:Generated_Source\PSoC6\pdl\drivers\peripheral\systick/cy_systick.h **** }
 244:Generated_Source\PSoC6\pdl\drivers\peripheral\systick/cy_systick.h **** 
 245:Generated_Source\PSoC6\pdl\drivers\peripheral\systick/cy_systick.h **** 
 246:Generated_Source\PSoC6\pdl\drivers\peripheral\systick/cy_systick.h **** /*******************************************************************************
 247:Generated_Source\PSoC6\pdl\drivers\peripheral\systick/cy_systick.h **** * Function Name: Cy_SysTick_GetValue
ARM GAS  C:\Users\Rolf\AppData\Local\Temp\cckLMDaR.s 			page 10


 248:Generated_Source\PSoC6\pdl\drivers\peripheral\systick/cy_systick.h **** ****************************************************************************//**
 249:Generated_Source\PSoC6\pdl\drivers\peripheral\systick/cy_systick.h **** *
 250:Generated_Source\PSoC6\pdl\drivers\peripheral\systick/cy_systick.h **** * Gets the current SysTick counter value.
 251:Generated_Source\PSoC6\pdl\drivers\peripheral\systick/cy_systick.h **** *
 252:Generated_Source\PSoC6\pdl\drivers\peripheral\systick/cy_systick.h **** * \return The current SysTick counter value.
 253:Generated_Source\PSoC6\pdl\drivers\peripheral\systick/cy_systick.h **** *
 254:Generated_Source\PSoC6\pdl\drivers\peripheral\systick/cy_systick.h **** *******************************************************************************/
 255:Generated_Source\PSoC6\pdl\drivers\peripheral\systick/cy_systick.h **** __STATIC_INLINE uint32_t Cy_SysTick_GetValue(void)
 256:Generated_Source\PSoC6\pdl\drivers\peripheral\systick/cy_systick.h **** {
 257:Generated_Source\PSoC6\pdl\drivers\peripheral\systick/cy_systick.h ****     return (SYSTICK_VAL);
 258:Generated_Source\PSoC6\pdl\drivers\peripheral\systick/cy_systick.h **** }
 259:Generated_Source\PSoC6\pdl\drivers\peripheral\systick/cy_systick.h **** 
 260:Generated_Source\PSoC6\pdl\drivers\peripheral\systick/cy_systick.h **** /*******************************************************************************
 261:Generated_Source\PSoC6\pdl\drivers\peripheral\systick/cy_systick.h **** * Function Name: Cy_SysTick_Clear
 262:Generated_Source\PSoC6\pdl\drivers\peripheral\systick/cy_systick.h **** ****************************************************************************//**
 263:Generated_Source\PSoC6\pdl\drivers\peripheral\systick/cy_systick.h **** *
 264:Generated_Source\PSoC6\pdl\drivers\peripheral\systick/cy_systick.h **** * Clears the SysTick counter for a well-defined startup.
 265:Generated_Source\PSoC6\pdl\drivers\peripheral\systick/cy_systick.h **** *
 266:Generated_Source\PSoC6\pdl\drivers\peripheral\systick/cy_systick.h **** *******************************************************************************/
 267:Generated_Source\PSoC6\pdl\drivers\peripheral\systick/cy_systick.h **** __STATIC_INLINE void Cy_SysTick_Clear(void)
 268:Generated_Source\PSoC6\pdl\drivers\peripheral\systick/cy_systick.h **** {
 269:Generated_Source\PSoC6\pdl\drivers\peripheral\systick/cy_systick.h ****     SYSTICK_VAL = 0u;
 270:Generated_Source\PSoC6\pdl\drivers\peripheral\systick/cy_systick.h **** }
 271:Generated_Source\PSoC6\pdl\drivers\peripheral\systick/cy_systick.h **** 
 272:Generated_Source\PSoC6\pdl\drivers\peripheral\systick/cy_systick.h **** 
 273:Generated_Source\PSoC6\pdl\drivers\peripheral\systick/cy_systick.h **** /*******************************************************************************
 274:Generated_Source\PSoC6\pdl\drivers\peripheral\systick/cy_systick.h **** * Function Name: Cy_SysTick_GetCountFlag
 275:Generated_Source\PSoC6\pdl\drivers\peripheral\systick/cy_systick.h **** ****************************************************************************//**
 276:Generated_Source\PSoC6\pdl\drivers\peripheral\systick/cy_systick.h **** *
 277:Generated_Source\PSoC6\pdl\drivers\peripheral\systick/cy_systick.h **** * Gets the values of the count flag. The count flag is set once the SysTick
 278:Generated_Source\PSoC6\pdl\drivers\peripheral\systick/cy_systick.h **** * counter reaches zero. The flag is cleared on read.
 279:Generated_Source\PSoC6\pdl\drivers\peripheral\systick/cy_systick.h **** *
 280:Generated_Source\PSoC6\pdl\drivers\peripheral\systick/cy_systick.h **** * \return Returns a non-zero value if a flag is set; otherwise a zero is
 281:Generated_Source\PSoC6\pdl\drivers\peripheral\systick/cy_systick.h **** * returned.
 282:Generated_Source\PSoC6\pdl\drivers\peripheral\systick/cy_systick.h **** *
 283:Generated_Source\PSoC6\pdl\drivers\peripheral\systick/cy_systick.h **** * \sideeffect Clears the SysTick count flag if it was set.
 284:Generated_Source\PSoC6\pdl\drivers\peripheral\systick/cy_systick.h **** *
 285:Generated_Source\PSoC6\pdl\drivers\peripheral\systick/cy_systick.h **** *******************************************************************************/
 286:Generated_Source\PSoC6\pdl\drivers\peripheral\systick/cy_systick.h **** __STATIC_INLINE uint32_t Cy_SysTick_GetCountFlag(void)
 287:Generated_Source\PSoC6\pdl\drivers\peripheral\systick/cy_systick.h **** {
 288:Generated_Source\PSoC6\pdl\drivers\peripheral\systick/cy_systick.h ****     return (SYSTICK_CTRL & SysTick_CTRL_COUNTFLAG_Msk);
  38              		.loc 2 288 0
  39 0002 084B     		ldr	r3, .L7
  40 0004 1B68     		ldr	r3, [r3]
  41              	.LBE13:
  42              	.LBE12:
 230:Generated_Source\PSoC6\pdl\drivers\peripheral\systick/cy_systick.c ****     uint32_t i;
 231:Generated_Source\PSoC6\pdl\drivers\peripheral\systick/cy_systick.c **** 
 232:Generated_Source\PSoC6\pdl\drivers\peripheral\systick/cy_systick.c ****     /* Verify that tick timer flag was set */
 233:Generated_Source\PSoC6\pdl\drivers\peripheral\systick/cy_systick.c ****     if (0u != Cy_SysTick_GetCountFlag())
  43              		.loc 1 233 0
  44 0006 DB03     		lsls	r3, r3, #15
  45 0008 08D4     		bmi	.L6
  46 000a 0AE0     		b	.L1
  47              	.LVL0:
  48              	.L5:
 234:Generated_Source\PSoC6\pdl\drivers\peripheral\systick/cy_systick.c ****     {
ARM GAS  C:\Users\Rolf\AppData\Local\Temp\cckLMDaR.s 			page 11


 235:Generated_Source\PSoC6\pdl\drivers\peripheral\systick/cy_systick.c ****         for (i=0u; i < CY_SYS_SYST_NUM_OF_CALLBACKS; i++)
 236:Generated_Source\PSoC6\pdl\drivers\peripheral\systick/cy_systick.c ****         {
 237:Generated_Source\PSoC6\pdl\drivers\peripheral\systick/cy_systick.c ****             if (Cy_SysTick_Callbacks[i] != NULL)
  49              		.loc 1 237 0
  50 000c A300     		lsls	r3, r4, #2
  51 000e 064A     		ldr	r2, .L7+4
  52 0010 9B58     		ldr	r3, [r3, r2]
  53 0012 002B     		cmp	r3, #0
  54 0014 00D0     		beq	.L4
 238:Generated_Source\PSoC6\pdl\drivers\peripheral\systick/cy_systick.c ****             {
 239:Generated_Source\PSoC6\pdl\drivers\peripheral\systick/cy_systick.c ****                 (void)(Cy_SysTick_Callbacks[i])();
  55              		.loc 1 239 0
  56 0016 9847     		blx	r3
  57              	.LVL1:
  58              	.L4:
 235:Generated_Source\PSoC6\pdl\drivers\peripheral\systick/cy_systick.c ****         {
  59              		.loc 1 235 0 discriminator 2
  60 0018 0134     		adds	r4, r4, #1
  61              	.LVL2:
  62 001a 00E0     		b	.L2
  63              	.LVL3:
  64              	.L6:
  65 001c 0024     		movs	r4, #0
  66              	.L2:
  67              	.LVL4:
 235:Generated_Source\PSoC6\pdl\drivers\peripheral\systick/cy_systick.c ****         {
  68              		.loc 1 235 0 is_stmt 0 discriminator 1
  69 001e 042C     		cmp	r4, #4
  70 0020 F4D9     		bls	.L5
  71              	.LVL5:
  72              	.L1:
 240:Generated_Source\PSoC6\pdl\drivers\peripheral\systick/cy_systick.c ****             }
 241:Generated_Source\PSoC6\pdl\drivers\peripheral\systick/cy_systick.c ****         }
 242:Generated_Source\PSoC6\pdl\drivers\peripheral\systick/cy_systick.c ****     }
 243:Generated_Source\PSoC6\pdl\drivers\peripheral\systick/cy_systick.c **** }
  73              		.loc 1 243 0 is_stmt 1
  74              		@ sp needed
  75 0022 10BD     		pop	{r4, pc}
  76              	.L8:
  77              		.align	2
  78              	.L7:
  79 0024 10E000E0 		.word	-536813552
  80 0028 00000000 		.word	.LANCHOR0
  81              		.cfi_endproc
  82              	.LFE59:
  83              		.size	Cy_SysTick_ServiceCallbacks, .-Cy_SysTick_ServiceCallbacks
  84              		.section	.text.Cy_SysTick_Enable,"ax",%progbits
  85              		.align	2
  86              		.global	Cy_SysTick_Enable
  87              		.code	16
  88              		.thumb_func
  89              		.type	Cy_SysTick_Enable, %function
  90              	Cy_SysTick_Enable:
  91              	.LFB53:
  71:Generated_Source\PSoC6\pdl\drivers\peripheral\systick/cy_systick.c ****     Cy_SysTick_EnableInterrupt();
  92              		.loc 1 71 0
  93              		.cfi_startproc
ARM GAS  C:\Users\Rolf\AppData\Local\Temp\cckLMDaR.s 			page 12


  94              		@ args = 0, pretend = 0, frame = 0
  95              		@ frame_needed = 0, uses_anonymous_args = 0
  96              		@ link register save eliminated.
  97              	.LBB14:
  98              	.LBB15:
 195:Generated_Source\PSoC6\pdl\drivers\peripheral\systick/cy_systick.h **** }
  99              		.loc 2 195 0
 100 0000 044B     		ldr	r3, .L10
 101 0002 1968     		ldr	r1, [r3]
 102 0004 0222     		movs	r2, #2
 103 0006 0A43     		orrs	r2, r1
 104 0008 1A60     		str	r2, [r3]
 105              	.LBE15:
 106              	.LBE14:
  73:Generated_Source\PSoC6\pdl\drivers\peripheral\systick/cy_systick.c **** }
 107              		.loc 1 73 0
 108 000a 1968     		ldr	r1, [r3]
 109 000c 0122     		movs	r2, #1
 110 000e 0A43     		orrs	r2, r1
 111 0010 1A60     		str	r2, [r3]
  74:Generated_Source\PSoC6\pdl\drivers\peripheral\systick/cy_systick.c **** 
 112              		.loc 1 74 0
 113              		@ sp needed
 114 0012 7047     		bx	lr
 115              	.L11:
 116              		.align	2
 117              	.L10:
 118 0014 10E000E0 		.word	-536813552
 119              		.cfi_endproc
 120              	.LFE53:
 121              		.size	Cy_SysTick_Enable, .-Cy_SysTick_Enable
 122              		.section	.text.Cy_SysTick_Disable,"ax",%progbits
 123              		.align	2
 124              		.global	Cy_SysTick_Disable
 125              		.code	16
 126              		.thumb_func
 127              		.type	Cy_SysTick_Disable, %function
 128              	Cy_SysTick_Disable:
 129              	.LFB54:
  87:Generated_Source\PSoC6\pdl\drivers\peripheral\systick/cy_systick.c ****     Cy_SysTick_DisableInterrupt();
 130              		.loc 1 87 0
 131              		.cfi_startproc
 132              		@ args = 0, pretend = 0, frame = 0
 133              		@ frame_needed = 0, uses_anonymous_args = 0
 134              		@ link register save eliminated.
 135              	.LBB16:
 136              	.LBB17:
 210:Generated_Source\PSoC6\pdl\drivers\peripheral\systick/cy_systick.h **** }
 137              		.loc 2 210 0
 138 0000 044B     		ldr	r3, .L13
 139 0002 1A68     		ldr	r2, [r3]
 140 0004 0221     		movs	r1, #2
 141 0006 8A43     		bics	r2, r1
 142 0008 1A60     		str	r2, [r3]
 143              	.LBE17:
 144              	.LBE16:
  89:Generated_Source\PSoC6\pdl\drivers\peripheral\systick/cy_systick.c **** }
ARM GAS  C:\Users\Rolf\AppData\Local\Temp\cckLMDaR.s 			page 13


 145              		.loc 1 89 0
 146 000a 1A68     		ldr	r2, [r3]
 147 000c 0139     		subs	r1, r1, #1
 148 000e 8A43     		bics	r2, r1
 149 0010 1A60     		str	r2, [r3]
  90:Generated_Source\PSoC6\pdl\drivers\peripheral\systick/cy_systick.c **** 
 150              		.loc 1 90 0
 151              		@ sp needed
 152 0012 7047     		bx	lr
 153              	.L14:
 154              		.align	2
 155              	.L13:
 156 0014 10E000E0 		.word	-536813552
 157              		.cfi_endproc
 158              	.LFE54:
 159              		.size	Cy_SysTick_Disable, .-Cy_SysTick_Disable
 160              		.section	.text.Cy_SysTick_SetClockSource,"ax",%progbits
 161              		.align	2
 162              		.global	Cy_SysTick_SetClockSource
 163              		.code	16
 164              		.thumb_func
 165              		.type	Cy_SysTick_SetClockSource, %function
 166              	Cy_SysTick_SetClockSource:
 167              	.LFB55:
 113:Generated_Source\PSoC6\pdl\drivers\peripheral\systick/cy_systick.c ****     if (clockSource == CY_SYSTICK_CLOCK_SOURCE_CLK_CPU)
 168              		.loc 1 113 0
 169              		.cfi_startproc
 170              		@ args = 0, pretend = 0, frame = 0
 171              		@ frame_needed = 0, uses_anonymous_args = 0
 172              		@ link register save eliminated.
 173              	.LVL6:
 114:Generated_Source\PSoC6\pdl\drivers\peripheral\systick/cy_systick.c ****     {
 174              		.loc 1 114 0
 175 0000 0428     		cmp	r0, #4
 176 0002 05D1     		bne	.L16
 116:Generated_Source\PSoC6\pdl\drivers\peripheral\systick/cy_systick.c ****     }
 177              		.loc 1 116 0
 178 0004 0B4A     		ldr	r2, .L18
 179 0006 1168     		ldr	r1, [r2]
 180 0008 0423     		movs	r3, #4
 181 000a 0B43     		orrs	r3, r1
 182 000c 1360     		str	r3, [r2]
 183 000e 0FE0     		b	.L15
 184              	.L16:
 120:Generated_Source\PSoC6\pdl\drivers\peripheral\systick/cy_systick.c ****         SYSTICK_CTRL &= ~SysTick_CTRL_CLKSOURCE_Msk;
 185              		.loc 1 120 0
 186 0010 094B     		ldr	r3, .L18+4
 187 0012 1A68     		ldr	r2, [r3]
 188 0014 1168     		ldr	r1, [r2]
 189 0016 A023     		movs	r3, #160
 190 0018 D358     		ldr	r3, [r2, r3]
 191 001a CB18     		adds	r3, r1, r3
 192 001c 0006     		lsls	r0, r0, #24
 193              	.LVL7:
 194 001e C022     		movs	r2, #192
 195 0020 9204     		lsls	r2, r2, #18
 196 0022 1040     		ands	r0, r2
ARM GAS  C:\Users\Rolf\AppData\Local\Temp\cckLMDaR.s 			page 14


 197 0024 1860     		str	r0, [r3]
 121:Generated_Source\PSoC6\pdl\drivers\peripheral\systick/cy_systick.c ****     }
 198              		.loc 1 121 0
 199 0026 034A     		ldr	r2, .L18
 200 0028 1368     		ldr	r3, [r2]
 201 002a 0421     		movs	r1, #4
 202 002c 8B43     		bics	r3, r1
 203 002e 1360     		str	r3, [r2]
 204              	.L15:
 123:Generated_Source\PSoC6\pdl\drivers\peripheral\systick/cy_systick.c **** 
 205              		.loc 1 123 0
 206              		@ sp needed
 207 0030 7047     		bx	lr
 208              	.L19:
 209 0032 C046     		.align	2
 210              	.L18:
 211 0034 10E000E0 		.word	-536813552
 212 0038 00000000 		.word	cy_device
 213              		.cfi_endproc
 214              	.LFE55:
 215              		.size	Cy_SysTick_SetClockSource, .-Cy_SysTick_SetClockSource
 216              		.section	.text.Cy_SysTick_Init,"ax",%progbits
 217              		.align	2
 218              		.global	Cy_SysTick_Init
 219              		.code	16
 220              		.thumb_func
 221              		.type	Cy_SysTick_Init, %function
 222              	Cy_SysTick_Init:
 223              	.LFB52:
  44:Generated_Source\PSoC6\pdl\drivers\peripheral\systick/cy_systick.c ****     uint32_t i;
 224              		.loc 1 44 0
 225              		.cfi_startproc
 226              		@ args = 0, pretend = 0, frame = 0
 227              		@ frame_needed = 0, uses_anonymous_args = 0
 228              	.LVL8:
 229 0000 70B5     		push	{r4, r5, r6, lr}
 230              		.cfi_def_cfa_offset 16
 231              		.cfi_offset 4, -16
 232              		.cfi_offset 5, -12
 233              		.cfi_offset 6, -8
 234              		.cfi_offset 14, -4
 235 0002 0D00     		movs	r5, r1
 236              	.LVL9:
  47:Generated_Source\PSoC6\pdl\drivers\peripheral\systick/cy_systick.c ****     {
 237              		.loc 1 47 0
 238 0004 0023     		movs	r3, #0
 239 0006 04E0     		b	.L21
 240              	.LVL10:
 241              	.L22:
  49:Generated_Source\PSoC6\pdl\drivers\peripheral\systick/cy_systick.c ****     }
 242              		.loc 1 49 0 discriminator 3
 243 0008 9900     		lsls	r1, r3, #2
 244 000a 0024     		movs	r4, #0
 245 000c 094A     		ldr	r2, .L23
 246 000e 8C50     		str	r4, [r1, r2]
  47:Generated_Source\PSoC6\pdl\drivers\peripheral\systick/cy_systick.c ****     {
 247              		.loc 1 47 0 discriminator 3
ARM GAS  C:\Users\Rolf\AppData\Local\Temp\cckLMDaR.s 			page 15


 248 0010 0133     		adds	r3, r3, #1
 249              	.LVL11:
 250              	.L21:
  47:Generated_Source\PSoC6\pdl\drivers\peripheral\systick/cy_systick.c ****     {
 251              		.loc 1 47 0 is_stmt 0 discriminator 1
 252 0012 042B     		cmp	r3, #4
 253 0014 F8D9     		bls	.L22
  52:Generated_Source\PSoC6\pdl\drivers\peripheral\systick/cy_systick.c ****     Cy_SysTick_SetClockSource(clockSource);
 254              		.loc 1 52 0 is_stmt 1
 255 0016 084A     		ldr	r2, .L23+4
 256 0018 084B     		ldr	r3, .L23+8
 257              	.LVL12:
 258 001a DA63     		str	r2, [r3, #60]
  53:Generated_Source\PSoC6\pdl\drivers\peripheral\systick/cy_systick.c **** 
 259              		.loc 1 53 0
 260 001c FFF7FEFF 		bl	Cy_SysTick_SetClockSource
 261              	.LVL13:
 262              	.LBB18:
 263              	.LBB19:
 227:Generated_Source\PSoC6\pdl\drivers\peripheral\systick/cy_systick.h **** }
 264              		.loc 2 227 0
 265 0020 2D02     		lsls	r5, r5, #8
 266              	.LVL14:
 267 0022 2D0A     		lsrs	r5, r5, #8
 268 0024 064B     		ldr	r3, .L23+12
 269 0026 5D60     		str	r5, [r3, #4]
 270              	.LVL15:
 271              	.LBE19:
 272              	.LBE18:
 273              	.LBB20:
 274              	.LBB21:
 269:Generated_Source\PSoC6\pdl\drivers\peripheral\systick/cy_systick.h **** }
 275              		.loc 2 269 0
 276 0028 0022     		movs	r2, #0
 277 002a 9A60     		str	r2, [r3, #8]
 278              	.LBE21:
 279              	.LBE20:
  57:Generated_Source\PSoC6\pdl\drivers\peripheral\systick/cy_systick.c **** }
 280              		.loc 1 57 0
 281 002c FFF7FEFF 		bl	Cy_SysTick_Enable
 282              	.LVL16:
  58:Generated_Source\PSoC6\pdl\drivers\peripheral\systick/cy_systick.c **** 
 283              		.loc 1 58 0
 284              		@ sp needed
 285 0030 70BD     		pop	{r4, r5, r6, pc}
 286              	.L24:
 287 0032 C046     		.align	2
 288              	.L23:
 289 0034 00000000 		.word	.LANCHOR0
 290 0038 00000000 		.word	Cy_SysTick_ServiceCallbacks
 291 003c 00000000 		.word	__ramVectors
 292 0040 10E000E0 		.word	-536813552
 293              		.cfi_endproc
 294              	.LFE52:
 295              		.size	Cy_SysTick_Init, .-Cy_SysTick_Init
 296              		.section	.text.Cy_SysTick_GetClockSource,"ax",%progbits
 297              		.align	2
ARM GAS  C:\Users\Rolf\AppData\Local\Temp\cckLMDaR.s 			page 16


 298              		.global	Cy_SysTick_GetClockSource
 299              		.code	16
 300              		.thumb_func
 301              		.type	Cy_SysTick_GetClockSource, %function
 302              	Cy_SysTick_GetClockSource:
 303              	.LFB56:
 136:Generated_Source\PSoC6\pdl\drivers\peripheral\systick/cy_systick.c ****     cy_en_systick_clock_source_t returnValue;
 304              		.loc 1 136 0
 305              		.cfi_startproc
 306              		@ args = 0, pretend = 0, frame = 0
 307              		@ frame_needed = 0, uses_anonymous_args = 0
 308              		@ link register save eliminated.
 139:Generated_Source\PSoC6\pdl\drivers\peripheral\systick/cy_systick.c ****     {
 309              		.loc 1 139 0
 310 0000 084B     		ldr	r3, .L28
 311 0002 1B68     		ldr	r3, [r3]
 312 0004 5B07     		lsls	r3, r3, #29
 313 0006 0AD4     		bmi	.L27
 145:Generated_Source\PSoC6\pdl\drivers\peripheral\systick/cy_systick.c ****     }
 314              		.loc 1 145 0
 315 0008 074B     		ldr	r3, .L28+4
 316 000a 1A68     		ldr	r2, [r3]
 317 000c 1168     		ldr	r1, [r2]
 318 000e A023     		movs	r3, #160
 319 0010 D358     		ldr	r3, [r2, r3]
 320 0012 CB18     		adds	r3, r1, r3
 321 0014 1868     		ldr	r0, [r3]
 322 0016 000E     		lsrs	r0, r0, #24
 323 0018 0323     		movs	r3, #3
 324 001a 1840     		ands	r0, r3
 325              	.LVL17:
 326 001c 00E0     		b	.L26
 327              	.LVL18:
 328              	.L27:
 141:Generated_Source\PSoC6\pdl\drivers\peripheral\systick/cy_systick.c ****     }
 329              		.loc 1 141 0
 330 001e 0420     		movs	r0, #4
 331              	.L26:
 332              	.LVL19:
 149:Generated_Source\PSoC6\pdl\drivers\peripheral\systick/cy_systick.c **** 
 333              		.loc 1 149 0
 334              		@ sp needed
 335 0020 7047     		bx	lr
 336              	.L29:
 337 0022 C046     		.align	2
 338              	.L28:
 339 0024 10E000E0 		.word	-536813552
 340 0028 00000000 		.word	cy_device
 341              		.cfi_endproc
 342              	.LFE56:
 343              		.size	Cy_SysTick_GetClockSource, .-Cy_SysTick_GetClockSource
 344              		.section	.text.Cy_SysTick_SetCallback,"ax",%progbits
 345              		.align	2
 346              		.global	Cy_SysTick_SetCallback
 347              		.code	16
 348              		.thumb_func
 349              		.type	Cy_SysTick_SetCallback, %function
ARM GAS  C:\Users\Rolf\AppData\Local\Temp\cckLMDaR.s 			page 17


 350              	Cy_SysTick_SetCallback:
 351              	.LFB57:
 173:Generated_Source\PSoC6\pdl\drivers\peripheral\systick/cy_systick.c ****     Cy_SysTick_Callback retVal;
 352              		.loc 1 173 0
 353              		.cfi_startproc
 354              		@ args = 0, pretend = 0, frame = 0
 355              		@ frame_needed = 0, uses_anonymous_args = 0
 356              		@ link register save eliminated.
 357              	.LVL20:
 176:Generated_Source\PSoC6\pdl\drivers\peripheral\systick/cy_systick.c ****     {
 358              		.loc 1 176 0
 359 0000 0428     		cmp	r0, #4
 360 0002 04D8     		bhi	.L32
 178:Generated_Source\PSoC6\pdl\drivers\peripheral\systick/cy_systick.c ****         Cy_SysTick_Callbacks[number] = function;
 361              		.loc 1 178 0
 362 0004 034A     		ldr	r2, .L33
 363 0006 8300     		lsls	r3, r0, #2
 364 0008 9858     		ldr	r0, [r3, r2]
 365              	.LVL21:
 179:Generated_Source\PSoC6\pdl\drivers\peripheral\systick/cy_systick.c ****     }
 366              		.loc 1 179 0
 367 000a 9950     		str	r1, [r3, r2]
 368 000c 00E0     		b	.L31
 369              	.LVL22:
 370              	.L32:
 183:Generated_Source\PSoC6\pdl\drivers\peripheral\systick/cy_systick.c ****     }
 371              		.loc 1 183 0
 372 000e 0020     		movs	r0, #0
 373              	.LVL23:
 374              	.L31:
 187:Generated_Source\PSoC6\pdl\drivers\peripheral\systick/cy_systick.c **** 
 375              		.loc 1 187 0
 376              		@ sp needed
 377 0010 7047     		bx	lr
 378              	.L34:
 379 0012 C046     		.align	2
 380              	.L33:
 381 0014 00000000 		.word	.LANCHOR0
 382              		.cfi_endproc
 383              	.LFE57:
 384              		.size	Cy_SysTick_SetCallback, .-Cy_SysTick_SetCallback
 385              		.section	.text.Cy_SysTick_GetCallback,"ax",%progbits
 386              		.align	2
 387              		.global	Cy_SysTick_GetCallback
 388              		.code	16
 389              		.thumb_func
 390              		.type	Cy_SysTick_GetCallback, %function
 391              	Cy_SysTick_GetCallback:
 392              	.LFB58:
 205:Generated_Source\PSoC6\pdl\drivers\peripheral\systick/cy_systick.c ****     Cy_SysTick_Callback retVal;
 393              		.loc 1 205 0
 394              		.cfi_startproc
 395              		@ args = 0, pretend = 0, frame = 0
 396              		@ frame_needed = 0, uses_anonymous_args = 0
 397              		@ link register save eliminated.
 398              	.LVL24:
 208:Generated_Source\PSoC6\pdl\drivers\peripheral\systick/cy_systick.c ****     {
ARM GAS  C:\Users\Rolf\AppData\Local\Temp\cckLMDaR.s 			page 18


 399              		.loc 1 208 0
 400 0000 0428     		cmp	r0, #4
 401 0002 03D8     		bhi	.L37
 210:Generated_Source\PSoC6\pdl\drivers\peripheral\systick/cy_systick.c ****     }
 402              		.loc 1 210 0
 403 0004 8000     		lsls	r0, r0, #2
 404              	.LVL25:
 405 0006 024B     		ldr	r3, .L38
 406 0008 C058     		ldr	r0, [r0, r3]
 407              	.LVL26:
 408 000a 00E0     		b	.L36
 409              	.LVL27:
 410              	.L37:
 214:Generated_Source\PSoC6\pdl\drivers\peripheral\systick/cy_systick.c ****     }
 411              		.loc 1 214 0
 412 000c 0020     		movs	r0, #0
 413              	.LVL28:
 414              	.L36:
 218:Generated_Source\PSoC6\pdl\drivers\peripheral\systick/cy_systick.c **** 
 415              		.loc 1 218 0
 416              		@ sp needed
 417 000e 7047     		bx	lr
 418              	.L39:
 419              		.align	2
 420              	.L38:
 421 0010 00000000 		.word	.LANCHOR0
 422              		.cfi_endproc
 423              	.LFE58:
 424              		.size	Cy_SysTick_GetCallback, .-Cy_SysTick_GetCallback
 425              		.bss
 426              		.align	2
 427              		.set	.LANCHOR0,. + 0
 428              		.type	Cy_SysTick_Callbacks, %object
 429              		.size	Cy_SysTick_Callbacks, 20
 430              	Cy_SysTick_Callbacks:
 431 0000 00000000 		.space	20
 431      00000000 
 431      00000000 
 431      00000000 
 431      00000000 
 432              		.text
 433              	.Letext0:
 434              		.file 3 "c:\\program files (x86)\\cypress\\psoc creator\\4.4\\4.4\\psoc creator\\import\\gnu\\arm\
 435              		.file 4 "c:\\program files (x86)\\cypress\\psoc creator\\4.4\\4.4\\psoc creator\\import\\gnu\\arm\
 436              		.file 5 "Generated_Source\\PSoC6\\pdl\\drivers/peripheral/device/cy_device.h"
 437              		.file 6 "Generated_Source\\PSoC6\\pdl\\cmsis/include/core_cm0plus.h"
 438              		.file 7 "Generated_Source\\PSoC6\\pdl\\drivers/peripheral/syslib/cy_syslib.h"